ARM GAS  C:\Users\Revanth\AppData\Local\Temp\ccSEzD1d.s 			page 1


   1              		.syntax unified
   2              		.cpu cortex-m3
   3              		.fpu softvfp
   4              		.eabi_attribute 20, 1
   5              		.eabi_attribute 21, 1
   6              		.eabi_attribute 23, 3
   7              		.eabi_attribute 24, 1
   8              		.eabi_attribute 25, 1
   9              		.eabi_attribute 26, 1
  10              		.eabi_attribute 30, 1
  11              		.eabi_attribute 34, 1
  12              		.eabi_attribute 18, 4
  13              		.thumb
  14              		.syntax unified
  15              		.file	"L6470.c"
  16              		.text
  17              	.Ltext0:
  18              		.cfi_sections	.debug_frame
  19              		.section	.text.Initialize_PWM,"ax",%progbits
  20              		.align	2
  21              		.global	Initialize_PWM
  22              		.thumb
  23              		.thumb_func
  24              		.type	Initialize_PWM, %function
  25              	Initialize_PWM:
  26              	.LFB79:
  27              		.file 1 "L6470.c"
   1:L6470.c       **** 
   2:L6470.c       **** /* ========================================
   3:L6470.c       **** 
   4:L6470.c       ****    Copyright Sigtuple, 2022
   5:L6470.c       ****    All Rights Reserved
   6:L6470.c       ****    UNPUBLISHED, LICENSED SOFTWARE.
   7:L6470.c       **** 
   8:L6470.c       ****    CONFIDENTIAL AND PROPRIETARY INFORMATION
   9:L6470.c       ****    WHICH IS THE PROPERTY OF SIGTUPLE.
  10:L6470.c       **** 
  11:L6470.c       ****    ========================================
  12:L6470.c       **** */
  13:L6470.c       **** #include "L6470.h"
  14:L6470.c       **** #include "variables.h"
  15:L6470.c       **** #include "project.h"
  16:L6470.c       **** #include "math.h"
  17:L6470.c       **** #include "configuration.h"
  18:L6470.c       **** #include <stdlib.h>
  19:L6470.c       **** 
  20:L6470.c       **** bool Time_Out_Error = true;
  21:L6470.c       **** unsigned int command;
  22:L6470.c       **** 
  23:L6470.c       **** 
  24:L6470.c       **** int Error = 0;
  25:L6470.c       **** 
  26:L6470.c       **** 
  27:L6470.c       **** int errorX=0;
  28:L6470.c       **** int errorY=0;
  29:L6470.c       **** int errorZ=0;
  30:L6470.c       **** int errorT=0;
ARM GAS  C:\Users\Revanth\AppData\Local\Temp\ccSEzD1d.s 			page 2


  31:L6470.c       **** 
  32:L6470.c       **** int32 Input_position_X = 0;
  33:L6470.c       **** int32 Input_position_Y = 0;
  34:L6470.c       **** int32 Input_position_Z = 0;
  35:L6470.c       **** int32 Input_position_T = 0;
  36:L6470.c       **** int32 Position_Y_Requested = 0;
  37:L6470.c       **** int32 Position_X_Requested = 0;
  38:L6470.c       **** int32 Position_Z_Requested = 0;
  39:L6470.c       **** int32 Position_T_Requested = 0;
  40:L6470.c       **** 
  41:L6470.c       **** 
  42:L6470.c       **** int32 Position_X_Move = 0;
  43:L6470.c       **** int32 Position_Y_Move = 0;
  44:L6470.c       **** int32 Position_Z_Move = 0;
  45:L6470.c       **** 
  46:L6470.c       **** 
  47:L6470.c       **** int old_cpr = 16000;
  48:L6470.c       **** int new_cpr = 4000;
  49:L6470.c       **** int sub_step_multiplier = 0; 
  50:L6470.c       **** 
  51:L6470.c       **** int old_pitch = 4; //4mm
  52:L6470.c       **** int new_pitch = 8; //8mm
  53:L6470.c       **** int pitch_factor_XY = 0;
  54:L6470.c       **** float pitch_factor_Z = 2.54;
  55:L6470.c       **** float pitch_factor_T = 2.54;
  56:L6470.c       **** int fact_z = 0;
  57:L6470.c       **** int fact_t = 0;
  58:L6470.c       **** 
  59:L6470.c       **** volatile int32 X_QuadPosition = 0;
  60:L6470.c       **** volatile int32 Y_QuadPosition = 0;
  61:L6470.c       **** volatile int32 Z_QuadPosition = 0;
  62:L6470.c       **** volatile int32 T_QuadPosition = 0;
  63:L6470.c       **** float Z_Rectification = 0.635;
  64:L6470.c       **** int No_of_X_Cycle=0;
  65:L6470.c       **** int No_of_Y_Cycle=0;
  66:L6470.c       **** int No_of_Z_Cycle=0;
  67:L6470.c       **** unsigned int Motor_Speed_X = 350;//Default_X_Motor_Speed;
  68:L6470.c       **** unsigned int Motor_Speed_Y = 300;//Default_Y_Motor_Speed;
  69:L6470.c       **** unsigned int Motor_Speed_Z = Default_Z_Motor_Speed;
  70:L6470.c       **** int step_correction_loop_x = No_of_Execution_GoToX;
  71:L6470.c       **** int step_correction_loop_y = No_of_Execution_GoToY;
  72:L6470.c       **** int step_correction_loop_z = No_of_Execution_GoToZ;
  73:L6470.c       **** bool HomeX_done = true;
  74:L6470.c       **** bool HomeY_done = true;
  75:L6470.c       **** bool HomeZ_done = true;
  76:L6470.c       **** bool HomeT_done = true;
  77:L6470.c       **** int EncoderTZSelect = 0;
  78:L6470.c       **** int Buffer_Z_QuadPosition = 0;
  79:L6470.c       **** int Buffer_T_QuadPosition = 0;
  80:L6470.c       **** int PWM_comare_value = 0;
  81:L6470.c       **** int PWM_barcode_comare_value = 0;
  82:L6470.c       **** int spi_read_value =0;
  83:L6470.c       **** extern uint8_t SPI_STATUS_VALUE1;
  84:L6470.c       **** extern uint8_t status_x;
  85:L6470.c       **** extern uint8_t status_y;
  86:L6470.c       **** extern uint8_t status_z;
  87:L6470.c       **** extern uint8_t status_t;
ARM GAS  C:\Users\Revanth\AppData\Local\Temp\ccSEzD1d.s 			page 3


  88:L6470.c       **** 
  89:L6470.c       **** //Motor Movment Functions Start-------------------------------------------------------
  90:L6470.c       **** void GotoPos(int Pos, uint8_t Motor)
  91:L6470.c       **** {
  92:L6470.c       ****     Write_32bitSPI_DATA (0x20  , (int) 0x00000000, Motor );
  93:L6470.c       ****     Write_32bitSPI_DATA (0x05  , Pos, Motor );
  94:L6470.c       ****     Write_32bitSPI_DATA (0x2D  , Pos, Motor );   
  95:L6470.c       **** 
  96:L6470.c       **** }
  97:L6470.c       **** 
  98:L6470.c       **** ///////////////////////////////////////////////////////////////////////////////////////
  99:L6470.c       **** 
 100:L6470.c       **** /////////////////////////////////////Homing X//////////////////////////////////////////
 101:L6470.c       **** 
 102:L6470.c       **** void homeX(uint8_t Motor)
 103:L6470.c       **** {
 104:L6470.c       **** update_max_velocity(51200, Motor);
 105:L6470.c       **** Write_32bitSPI_DATA (0x20  , (int) 0x00000002, Motor );
 106:L6470.c       **** CyDelayUs(200);
 107:L6470.c       **** Read_32bitSPI_DATA(0x04, Motor, &status_y);
 108:L6470.c       **** CyDelayUs(500);
 109:L6470.c       **** Read_32bitSPI_DATA(0x04, Motor, &status_y);
 110:L6470.c       **** while ( (status_y & 0x40) == 0x00)
 111:L6470.c       **** {
 112:L6470.c       ****    Read_32bitSPI_DATA(0x04, Motor, &status_y);
 113:L6470.c       ****    CyDelayUs(100);
 114:L6470.c       **** }
 115:L6470.c       **** Write_32bitSPI_DATA (0x21  , (int) 0x0000000, Motor);
 116:L6470.c       **** CyDelayUs(10);
 117:L6470.c       **** GotoPos(((256*200)*2), Motor);
 118:L6470.c       **** CyDelayUs(500);
 119:L6470.c       **** Read_32bitSPI_DATA(0x04, Motor, &status_x);
 120:L6470.c       **** CyDelayUs(500);
 121:L6470.c       **** Read_32bitSPI_DATA(0x04, Motor, &status_x);
 122:L6470.c       **** while ( (status_x & 0x20) == 0x00)
 123:L6470.c       **** {
 124:L6470.c       ****    Read_32bitSPI_DATA(0x04, Motor, &status_x);
 125:L6470.c       ****     CyDelayUs(100);
 126:L6470.c       ****    
 127:L6470.c       **** }
 128:L6470.c       **** update_max_velocity(51200, Motor);
 129:L6470.c       **** Write_32bitSPI_DATA (0x20  , (int) 0x00000002, Motor );
 130:L6470.c       **** CyDelayUs(200);
 131:L6470.c       **** Read_32bitSPI_DATA(0x04, Motor, &status_y);
 132:L6470.c       **** CyDelayUs(500);
 133:L6470.c       **** Read_32bitSPI_DATA(0x04, Motor, &status_y);
 134:L6470.c       **** while ( (status_y & 0x40) == 0x00)
 135:L6470.c       **** {
 136:L6470.c       ****    Read_32bitSPI_DATA(0x04, Motor, &status_y);
 137:L6470.c       ****    CyDelayUs(100);
 138:L6470.c       **** }
 139:L6470.c       **** 
 140:L6470.c       **** Write_32bitSPI_DATA (0x21  , (int) 0x0000000, TMC5160_nCS_MotorX);
 141:L6470.c       **** //X_last_position = 0;
 142:L6470.c       **** QuadDec_X_SetCounter(0);
 143:L6470.c       **** CyDelayUs(100);
 144:L6470.c       **** goTo_X((256*200)*1);
ARM GAS  C:\Users\Revanth\AppData\Local\Temp\ccSEzD1d.s 			page 4


 145:L6470.c       **** HomeX_done = false;
 146:L6470.c       **** CyDelayUs(100);
 147:L6470.c       **** Write_32bitSPI_DATA (0x21  , (int) 0x0000000, Motor); 
 148:L6470.c       **** Write_32bitSPI_DATA (0x2D  , 0x00000000, Motor );
 149:L6470.c       **** update_max_velocity(0x0007A5C3, Motor);
 150:L6470.c       **** 
 151:L6470.c       **** //X_last_position = 0;
 152:L6470.c       **** QuadDec_X_SetCounter(0);
 153:L6470.c       **** X_QuadPosition =0 ;
 154:L6470.c       **** HomeX_done = true;
 155:L6470.c       **** Write_Debug_UART_Char("HomeX executed  \r\n");
 156:L6470.c       **** ////
 157:L6470.c       **** }
 158:L6470.c       **** 
 159:L6470.c       **** ///////////////////////////////////////////////////////////////////////////////////////
 160:L6470.c       **** 
 161:L6470.c       **** /////////////////////////////////////Homing Y//////////////////////////////////////////
 162:L6470.c       **** 
 163:L6470.c       **** void homeY(uint8_t Motor)
 164:L6470.c       **** {
 165:L6470.c       **** update_max_velocity(51200, Motor);
 166:L6470.c       **** Write_32bitSPI_DATA (0x20  , (int) 0x00000002, Motor );
 167:L6470.c       **** CyDelayUs(50);
 168:L6470.c       **** Read_32bitSPI_DATA(0x04, Motor, &status_y);
 169:L6470.c       **** CyDelayUs(500);
 170:L6470.c       **** Read_32bitSPI_DATA(0x04, Motor, &status_y);
 171:L6470.c       **** while ( (status_y & 0x40) == 0x00)
 172:L6470.c       **** {
 173:L6470.c       ****    Read_32bitSPI_DATA(0x04, Motor, &status_y);
 174:L6470.c       ****    CyDelayUs(100);
 175:L6470.c       **** }
 176:L6470.c       **** Write_32bitSPI_DATA (0x21  , (int) 0x0000000, Motor);
 177:L6470.c       **** CyDelayUs(10);
 178:L6470.c       **** GotoPos(((256*200)*1), Motor);
 179:L6470.c       **** CyDelayUs(500);
 180:L6470.c       **** Read_32bitSPI_DATA(0x04, Motor, &status_y);
 181:L6470.c       **** CyDelayUs(500);
 182:L6470.c       **** Read_32bitSPI_DATA(0x04, Motor, &status_y);
 183:L6470.c       **** while ( (status_y & 0x20) == 0x00)
 184:L6470.c       **** {
 185:L6470.c       ****    Read_32bitSPI_DATA(0x04, Motor, &status_y);
 186:L6470.c       ****     CyDelayUs(100);
 187:L6470.c       ****    
 188:L6470.c       **** }
 189:L6470.c       **** update_max_velocity(51200, Motor);
 190:L6470.c       **** Write_32bitSPI_DATA (0x20  , (int) 0x00000002, Motor );
 191:L6470.c       **** CyDelayUs(200);
 192:L6470.c       **** Read_32bitSPI_DATA(0x04, Motor, &status_y);
 193:L6470.c       **** CyDelayUs(500);
 194:L6470.c       **** Read_32bitSPI_DATA(0x04, Motor, &status_y);
 195:L6470.c       **** while ( (status_y & 0x40) == 0x00)
 196:L6470.c       **** {
 197:L6470.c       ****    Read_32bitSPI_DATA(0x04, Motor, &status_y);
 198:L6470.c       ****    CyDelayUs(100);
 199:L6470.c       **** }
 200:L6470.c       **** 
 201:L6470.c       **** Write_32bitSPI_DATA (0x21  , (int) 0x0000000, Motor);
ARM GAS  C:\Users\Revanth\AppData\Local\Temp\ccSEzD1d.s 			page 5


 202:L6470.c       **** //Y_last_position = 0;
 203:L6470.c       **** QuadDec_Y_SetCounter(0);
 204:L6470.c       **** CyDelayUs(100);
 205:L6470.c       **** goTo_Y((256*200)*1);
 206:L6470.c       **** HomeY_done = false;
 207:L6470.c       **** CyDelayUs(100);
 208:L6470.c       **** Write_32bitSPI_DATA (0x21  , (int) 0x0000000, Motor); 
 209:L6470.c       **** Write_32bitSPI_DATA (0x2D  , 0x00000000, Motor );
 210:L6470.c       **** update_max_velocity(0x0007A5C3, Motor);
 211:L6470.c       **** 
 212:L6470.c       **** //Y_last_position = 0;
 213:L6470.c       **** QuadDec_Y_SetCounter(0);
 214:L6470.c       **** X_QuadPosition =0 ;
 215:L6470.c       **** HomeY_done = true;
 216:L6470.c       **** Write_Debug_UART_Char("HomeY executed  \r\n");
 217:L6470.c       **** 
 218:L6470.c       **** }
 219:L6470.c       **** 
 220:L6470.c       **** ////////////////////////////////////////////////////////////////////////////////////////////
 221:L6470.c       **** 
 222:L6470.c       **** //////////////////////////////////////////Homing Z//////////////////////////////////////////
 223:L6470.c       **** 
 224:L6470.c       **** void homeZ(uint8_t Motor)
 225:L6470.c       **** {
 226:L6470.c       **** update_max_velocity(102400, Motor);
 227:L6470.c       **** Enable_Encoder_Z(-Buffer_Z_QuadPosition);
 228:L6470.c       **** Write_32bitSPI_DATA (0x20  , (int) 0x00000002, Motor );
 229:L6470.c       **** CyDelayUs(50);
 230:L6470.c       **** Read_32bitSPI_DATA(0x04, Motor, &status_z);
 231:L6470.c       **** CyDelayUs(500);
 232:L6470.c       **** Read_32bitSPI_DATA(0x04, Motor, &status_z);
 233:L6470.c       **** while ( (status_z & 0x40) == 0x00)
 234:L6470.c       **** {
 235:L6470.c       ****    Read_32bitSPI_DATA(0x04, Motor, &status_z);
 236:L6470.c       ****    CyDelayUs(100);
 237:L6470.c       **** }
 238:L6470.c       **** Write_32bitSPI_DATA (0x21  , (int) 0x0000000, Motor);
 239:L6470.c       **** //Z_last_position = 0;
 240:L6470.c       **** Enable_Encoder_Z(0);
 241:L6470.c       **** Buffer_Z_QuadPosition=0;
 242:L6470.c       **** CyDelayUs(10);
 243:L6470.c       **** GotoPos(((256*200)*3), Motor);
 244:L6470.c       **** CyDelayUs(500);
 245:L6470.c       **** Read_32bitSPI_DATA(0x04, Motor, &status_z);
 246:L6470.c       **** CyDelayUs(500);
 247:L6470.c       **** Read_32bitSPI_DATA(0x04, Motor, &status_z);
 248:L6470.c       **** while ( (status_z & 0x20) == 0x00)
 249:L6470.c       **** {
 250:L6470.c       ****    Read_32bitSPI_DATA(0x04, Motor, &status_z);
 251:L6470.c       ****     CyDelayUs(100);
 252:L6470.c       ****    
 253:L6470.c       **** }
 254:L6470.c       **** update_max_velocity(102400, Motor);
 255:L6470.c       **** Write_32bitSPI_DATA (0x20  , (int) 0x00000002, Motor );
 256:L6470.c       **** CyDelayUs(200);
 257:L6470.c       **** Read_32bitSPI_DATA(0x04, Motor, &status_y);
 258:L6470.c       **** CyDelayUs(500);
ARM GAS  C:\Users\Revanth\AppData\Local\Temp\ccSEzD1d.s 			page 6


 259:L6470.c       **** Read_32bitSPI_DATA(0x04, Motor, &status_y);
 260:L6470.c       **** while ( (status_y & 0x40) == 0x00)
 261:L6470.c       **** {
 262:L6470.c       ****    Read_32bitSPI_DATA(0x04, Motor, &status_y);
 263:L6470.c       ****    CyDelayUs(100);
 264:L6470.c       **** }
 265:L6470.c       **** 
 266:L6470.c       **** Write_32bitSPI_DATA (0x21  , (int) 0x0000000, Motor);
 267:L6470.c       **** //Z_last_position = 0;
 268:L6470.c       **** Enable_Encoder_Z(0);
 269:L6470.c       **** Buffer_Z_QuadPosition=0;
 270:L6470.c       **** CyDelayUs(100);
 271:L6470.c       **** goTo_Z((256*200)*3);
 272:L6470.c       **** HomeZ_done = false;
 273:L6470.c       **** CyDelayUs(100);
 274:L6470.c       **** Write_32bitSPI_DATA (0x21  , (int) 0x0000000, Motor); 
 275:L6470.c       **** Write_32bitSPI_DATA (0x2D  , 0x00000000, Motor );
 276:L6470.c       **** update_max_velocity(0x0007A5C3, Motor);
 277:L6470.c       **** 
 278:L6470.c       **** //Z_last_position = 0;
 279:L6470.c       **** Enable_Encoder_Z(0);
 280:L6470.c       **** Buffer_Z_QuadPosition=0;
 281:L6470.c       **** HomeZ_done = true;
 282:L6470.c       **** Write_Debug_UART_Char("HomeZ executed  \r\n");
 283:L6470.c       **** 
 284:L6470.c       **** }
 285:L6470.c       **** 
 286:L6470.c       **** ///////////////////////////////////////////////////////////////////////////////////////
 287:L6470.c       **** 
 288:L6470.c       **** /////////////////////////////////////Homing T//////////////////////////////////////////
 289:L6470.c       **** 
 290:L6470.c       **** void homeT(uint8_t Motor)
 291:L6470.c       **** {
 292:L6470.c       **** update_max_velocity(51200, Motor);
 293:L6470.c       **** Enable_Encoder_T(-Buffer_T_QuadPosition);
 294:L6470.c       **** Write_32bitSPI_DATA (0x20  , (int) 0x00000002, Motor );
 295:L6470.c       **** CyDelayUs(50);
 296:L6470.c       **** Read_32bitSPI_DATA(0x04, Motor, &status_z);
 297:L6470.c       **** CyDelayUs(500);
 298:L6470.c       **** Read_32bitSPI_DATA(0x04, Motor, &status_z);
 299:L6470.c       **** while ( (status_z & 0x40) == 0x00)
 300:L6470.c       **** {
 301:L6470.c       ****    Read_32bitSPI_DATA(0x04, Motor, &status_z);
 302:L6470.c       ****    CyDelayUs(100);
 303:L6470.c       **** }
 304:L6470.c       **** Write_32bitSPI_DATA (0x21  , (int) 0x0000000, Motor);
 305:L6470.c       **** CyDelayUs(10);
 306:L6470.c       **** GotoPos(((256*200)*2), Motor);
 307:L6470.c       **** CyDelayUs(500);
 308:L6470.c       **** Read_32bitSPI_DATA(0x04, Motor, &status_z);
 309:L6470.c       **** CyDelayUs(500);
 310:L6470.c       **** Read_32bitSPI_DATA(0x04, Motor, &status_z);
 311:L6470.c       **** while ( (status_z & 0x20) == 0x00)
 312:L6470.c       **** {
 313:L6470.c       ****    Read_32bitSPI_DATA(0x04, Motor, &status_z);
 314:L6470.c       ****     CyDelayUs(100);
 315:L6470.c       ****    
ARM GAS  C:\Users\Revanth\AppData\Local\Temp\ccSEzD1d.s 			page 7


 316:L6470.c       **** }
 317:L6470.c       **** update_max_velocity(51200, Motor);
 318:L6470.c       **** Write_32bitSPI_DATA (0x20  , (int) 0x00000002, Motor );
 319:L6470.c       **** CyDelayUs(200);
 320:L6470.c       **** Read_32bitSPI_DATA(0x04, Motor, &status_y);
 321:L6470.c       **** CyDelayUs(500);
 322:L6470.c       **** Read_32bitSPI_DATA(0x04, Motor, &status_y);
 323:L6470.c       **** while ( (status_y & 0x40) == 0x00)
 324:L6470.c       **** {
 325:L6470.c       ****    Read_32bitSPI_DATA(0x04, Motor, &status_y);
 326:L6470.c       ****    CyDelayUs(100);
 327:L6470.c       **** }
 328:L6470.c       **** 
 329:L6470.c       **** Write_32bitSPI_DATA (0x21  , (int) 0x0000000, Motor);
 330:L6470.c       **** //T_last_position = 0;
 331:L6470.c       **** Enable_Encoder_T(0);
 332:L6470.c       **** Buffer_T_QuadPosition=0;
 333:L6470.c       **** CyDelayUs(100);
 334:L6470.c       **** goTo_T((256*200)*1);
 335:L6470.c       **** HomeT_done = false;
 336:L6470.c       **** CyDelayUs(100);
 337:L6470.c       **** Write_32bitSPI_DATA (0x21  , (int) 0x0000000, Motor); 
 338:L6470.c       **** Write_32bitSPI_DATA (0x2D  , 0x00000000, Motor );
 339:L6470.c       **** update_max_velocity(0x0007A5C3, Motor);
 340:L6470.c       **** 
 341:L6470.c       **** //T_last_position = 0;
 342:L6470.c       **** Enable_Encoder_T(0);
 343:L6470.c       **** Buffer_T_QuadPosition=0;
 344:L6470.c       **** HomeT_done = true;
 345:L6470.c       **** Write_Debug_UART_Char("HomeT executed  \r\n");
 346:L6470.c       **** }
 347:L6470.c       **** 
 348:L6470.c       **** ///////////////////////////////////////////////////////////////////////////////////////////////////
 349:L6470.c       **** /////////////////////////////////////Go to Position in X Axis//////////////////////////////////////
 350:L6470.c       **** 
 351:L6470.c       **** int goTo_X(int32 Position_X_Requested)
 352:L6470.c       **** {
 353:L6470.c       ****     
 354:L6470.c       ****     if(if_all_homing_done())
 355:L6470.c       ****     
 356:L6470.c       ****     {
 357:L6470.c       ****         //Position_X_Move = Position_X_Move + Position_X_Requested;
 358:L6470.c       ****         Error = 0;
 359:L6470.c       ****         Read_All_Optical_Encoder();
 360:L6470.c       ****         //X_last_position = X_QuadPosition;
 361:L6470.c       ****         Write_Debug_UART_Char("GotoX Command Recived--->");
 362:L6470.c       ****         GotoPos(Position_X_Requested, TMC5160_nCS_MotorX); // If provided value is position and not
 363:L6470.c       ****         WaitTillPositionReached (TMC5160_nCS_MotorX);
 364:L6470.c       ****         CyDelayUs(50);
 365:L6470.c       ****         //GotoPos(Position_X_Move, TMC5160_nCS_MotorX); // If provided value is steps to move and n
 366:L6470.c       ****         Write_Debug_UART_Int(Position_X_Requested);
 367:L6470.c       ****         Write_Debug_UART_Char("  \r\n");
 368:L6470.c       ****         Step_correction_x(Position_X_Requested);
 369:L6470.c       ****         return errorX;
 370:L6470.c       ****     }
 371:L6470.c       ****     else
 372:L6470.c       ****     {
ARM GAS  C:\Users\Revanth\AppData\Local\Temp\ccSEzD1d.s 			page 8


 373:L6470.c       ****         Write_Debug_UART_Char("Homing Not Done");
 374:L6470.c       ****         Error = All_Homing_Not_Done_Yet;
 375:L6470.c       ****         return Error;
 376:L6470.c       ****     }
 377:L6470.c       ****     
 378:L6470.c       **** }
 379:L6470.c       **** 
 380:L6470.c       **** int Step_correction_x(int32 steps)
 381:L6470.c       **** {  
 382:L6470.c       ****     int32 Encoder_Position_X_Requested =0;
 383:L6470.c       ****     uint8_t temp;
 384:L6470.c       ****     int32 new_step=0;
 385:L6470.c       ****     //int32 diff_encoder_value=0;
 386:L6470.c       ****     int32 encoder_error_value = 0;
 387:L6470.c       ****     Encoder_Position_X_Requested = steps/3.2;
 388:L6470.c       ****     
 389:L6470.c       ****     for(temp=0; temp<=5; temp++)
 390:L6470.c       ****     {
 391:L6470.c       ****     Read_All_Optical_Encoder();
 392:L6470.c       ****     //diff_encoder_value = (X_QuadPosition - X_last_position);
 393:L6470.c       ****     encoder_error_value = Encoder_Position_X_Requested - X_QuadPosition;
 394:L6470.c       ****     new_step= encoder_error_value*3.2;
 395:L6470.c       ****     
 396:L6470.c       ****     if((abs(encoder_error_value))>=3)
 397:L6470.c       ****     {
 398:L6470.c       ****       new_step = new_step+steps;     
 399:L6470.c       ****       GotoPos(new_step, TMC5160_nCS_MotorX);
 400:L6470.c       ****       WaitTillPositionReached (TMC5160_nCS_MotorX);
 401:L6470.c       ****       CyDelayUs(50);
 402:L6470.c       ****       Write_32bitSPI_DATA (0x21  , steps, TMC5160_nCS_MotorX );
 403:L6470.c       ****     }
 404:L6470.c       ****     }
 405:L6470.c       ****     Read_All_Optical_Encoder();
 406:L6470.c       ****     encoder_error_value = Encoder_Position_X_Requested - X_QuadPosition;
 407:L6470.c       ****     if((temp>5))
 408:L6470.c       ****     {
 409:L6470.c       ****      if(((abs(encoder_error_value))>=5) )
 410:L6470.c       ****      {
 411:L6470.c       ****         Write_Debug_UART_Char("Fail to reach X position \r\n");
 412:L6470.c       ****         LED3_Write(0xFF);
 413:L6470.c       ****         errorX=  1;
 414:L6470.c       ****      }
 415:L6470.c       ****     
 416:L6470.c       ****      else if ( ((abs(encoder_error_value))>4000))
 417:L6470.c       ****      {
 418:L6470.c       ****        Write_Debug_UART_Char("X Encoder or X Motor Might Not be Working \r\n");
 419:L6470.c       ****        errorX=  1;
 420:L6470.c       ****      }
 421:L6470.c       ****     
 422:L6470.c       ****      else
 423:L6470.c       ****      {
 424:L6470.c       ****         Write_Debug_UART_Char("X position Reached");
 425:L6470.c       ****         errorX = 0;
 426:L6470.c       ****         Write_32bitSPI_DATA (0x21  , steps, TMC5160_nCS_MotorX );
 427:L6470.c       ****         CyDelayUs(500);
 428:L6470.c       ****         
 429:L6470.c       ****      }
ARM GAS  C:\Users\Revanth\AppData\Local\Temp\ccSEzD1d.s 			page 9


 430:L6470.c       ****     
 431:L6470.c       ****     }
 432:L6470.c       ****     
 433:L6470.c       ****     return errorX;
 434:L6470.c       **** }
 435:L6470.c       **** 
 436:L6470.c       **** ///////////////////////////////////////////////////////////////////////////////////////////////////
 437:L6470.c       **** /////////////////////////////////////Go to Position in Y Axis//////////////////////////////////////
 438:L6470.c       **** 
 439:L6470.c       **** int goTo_Y(int32 Position_Y_Requested)
 440:L6470.c       **** {   
 441:L6470.c       ****     if(if_all_homing_done())
 442:L6470.c       ****     {
 443:L6470.c       ****         //Position_Y_Move = Position_Y_Move + Position_Y_Requested;
 444:L6470.c       ****         Error = 0;
 445:L6470.c       ****         Read_All_Optical_Encoder();
 446:L6470.c       ****         //Y_last_position = Y_QuadPosition;
 447:L6470.c       ****         Write_Debug_UART_Char("GotoX Command Recived--->");
 448:L6470.c       ****         GotoPos(Position_Y_Requested, TMC5160_nCS_MotorY); // If provided value is position and not
 449:L6470.c       ****         WaitTillPositionReached (TMC5160_nCS_MotorY);
 450:L6470.c       ****         CyDelayUs(50);
 451:L6470.c       ****         //GotoPos(Position_X_Move, TMC5160_nCS_MotorX); // If provided value is steps to move and n
 452:L6470.c       ****         Write_Debug_UART_Int(Position_Y_Requested);
 453:L6470.c       ****         Write_Debug_UART_Char("  \r\n");
 454:L6470.c       ****         Step_correction_y(Position_Y_Requested);
 455:L6470.c       ****         return errorY;
 456:L6470.c       ****     }
 457:L6470.c       ****     else
 458:L6470.c       ****     {
 459:L6470.c       ****         Write_Debug_UART_Char("Homing Not Done");
 460:L6470.c       ****         Error = All_Homing_Not_Done_Yet;
 461:L6470.c       ****         return Error;
 462:L6470.c       ****     }
 463:L6470.c       **** }
 464:L6470.c       **** 
 465:L6470.c       **** int Step_correction_y(int32 steps)
 466:L6470.c       **** {  
 467:L6470.c       ****     uint8_t temp=0;
 468:L6470.c       ****     int32 new_step=0;
 469:L6470.c       ****     int32 Encoder_Position_Y_Requested =0;
 470:L6470.c       ****     //int32 diff_encoder_value=0;
 471:L6470.c       ****     int32 encoder_error_value = 0;
 472:L6470.c       ****     Encoder_Position_Y_Requested = steps/3.2;
 473:L6470.c       ****     
 474:L6470.c       ****     for(temp=0; temp<=3; temp++)
 475:L6470.c       ****     {
 476:L6470.c       ****     Read_All_Optical_Encoder();
 477:L6470.c       ****     //diff_encoder_value = (X_QuadPosition - X_last_position);
 478:L6470.c       ****     encoder_error_value = Encoder_Position_Y_Requested - Y_QuadPosition;
 479:L6470.c       ****     new_step= encoder_error_value*3.2;
 480:L6470.c       ****     
 481:L6470.c       ****     if((abs(encoder_error_value))>=5)
 482:L6470.c       ****     {
 483:L6470.c       ****       new_step = new_step+steps;     
 484:L6470.c       ****       GotoPos(new_step, TMC5160_nCS_MotorY);
 485:L6470.c       ****       WaitTillPositionReached (TMC5160_nCS_MotorY);
 486:L6470.c       ****       CyDelayUs(50);
ARM GAS  C:\Users\Revanth\AppData\Local\Temp\ccSEzD1d.s 			page 10


 487:L6470.c       ****       Write_32bitSPI_DATA (0x21  , steps, TMC5160_nCS_MotorY );
 488:L6470.c       ****     }
 489:L6470.c       ****     
 490:L6470.c       ****     }
 491:L6470.c       ****     
 492:L6470.c       ****     
 493:L6470.c       ****     Read_All_Optical_Encoder();
 494:L6470.c       ****     encoder_error_value = Encoder_Position_Y_Requested - Y_QuadPosition;
 495:L6470.c       ****     
 496:L6470.c       ****     if(temp>=4)
 497:L6470.c       ****     {
 498:L6470.c       ****      if(((abs(encoder_error_value))>=5))
 499:L6470.c       ****      {
 500:L6470.c       ****         Write_Debug_UART_Char("Fail to reach Y position \r\n");
 501:L6470.c       ****         LED3_Write(0xFF);
 502:L6470.c       ****         errorY=  1;
 503:L6470.c       ****      }
 504:L6470.c       ****     
 505:L6470.c       ****      else if ( ((abs(encoder_error_value))>4000))
 506:L6470.c       ****      {
 507:L6470.c       ****        Write_Debug_UART_Char("Y Encoder or Y Motor Might Not be Working \r\n"); 
 508:L6470.c       ****      }
 509:L6470.c       ****     
 510:L6470.c       ****      else
 511:L6470.c       ****      {
 512:L6470.c       ****         Write_Debug_UART_Char("Y position Reached");
 513:L6470.c       ****         errorY = 0;
 514:L6470.c       ****         
 515:L6470.c       ****      }
 516:L6470.c       ****     
 517:L6470.c       ****     }
 518:L6470.c       ****     
 519:L6470.c       ****     return errorY;
 520:L6470.c       **** }
 521:L6470.c       **** 
 522:L6470.c       **** ///////////////////////////////////////////////////////////////////////////////////////////////////
 523:L6470.c       **** /////////////////////////////////////Go to Position in Z Axis//////////////////////////////////////
 524:L6470.c       **** 
 525:L6470.c       **** 
 526:L6470.c       **** int goTo_Z(int32 Position_Z_Requested)
 527:L6470.c       **** {
 528:L6470.c       ****     Enable_Encoder_Z(-Buffer_Z_QuadPosition);
 529:L6470.c       ****     if(if_all_homing_done())
 530:L6470.c       ****     {
 531:L6470.c       ****         Error = 0;
 532:L6470.c       ****         Read_All_Optical_Encoder();
 533:L6470.c       ****         //Z_last_position = Z_QuadPosition;
 534:L6470.c       ****         Write_Debug_UART_Char("GotoZ Command Recived--->");
 535:L6470.c       ****         GotoPos(Position_Z_Requested, TMC5160_nCS_MotorZ); // If provided value is position and not
 536:L6470.c       ****         WaitTillPositionReached (TMC5160_nCS_MotorZ);
 537:L6470.c       ****         CyDelayUs(50);
 538:L6470.c       ****         //GotoPos(Position_X_Move, TMC5160_nCS_MotorX); // If provided value is steps to move and n
 539:L6470.c       ****         Write_Debug_UART_Int(Position_Z_Requested);
 540:L6470.c       ****         Write_Debug_UART_Char("  \r\n");
 541:L6470.c       ****         Step_correction_z(Position_Z_Requested);
 542:L6470.c       ****         Read_All_Optical_Encoder();
 543:L6470.c       ****         Buffer_Z_QuadPosition = Z_QuadPosition;
ARM GAS  C:\Users\Revanth\AppData\Local\Temp\ccSEzD1d.s 			page 11


 544:L6470.c       ****         return errorZ;
 545:L6470.c       ****     }
 546:L6470.c       ****     else
 547:L6470.c       ****     {
 548:L6470.c       ****         Write_Debug_UART_Char("Homing Not Done");
 549:L6470.c       ****         Error = All_Homing_Not_Done_Yet;
 550:L6470.c       ****         return Error;
 551:L6470.c       ****     }
 552:L6470.c       **** 
 553:L6470.c       **** }
 554:L6470.c       **** 
 555:L6470.c       **** int Step_correction_z(int32 steps)
 556:L6470.c       **** {  
 557:L6470.c       ****     uint8_t temp=0;
 558:L6470.c       ****     int32 new_step=0;
 559:L6470.c       ****     int32 Encoder_Position_Z_Requested =0;
 560:L6470.c       ****     //int32 diff_encoder_value=0;
 561:L6470.c       ****     int32 encoder_error_value = 0;
 562:L6470.c       ****     Encoder_Position_Z_Requested = steps/3.2;
 563:L6470.c       ****     
 564:L6470.c       ****     for(temp=0; temp<=3; temp++)
 565:L6470.c       ****     {
 566:L6470.c       ****     
 567:L6470.c       ****     Read_All_Optical_Encoder();
 568:L6470.c       ****     //diff_encoder_value = (X_QuadPosition - X_last_position);
 569:L6470.c       ****     encoder_error_value = Encoder_Position_Z_Requested - Z_QuadPosition;
 570:L6470.c       ****     new_step= encoder_error_value*3.2;
 571:L6470.c       ****     
 572:L6470.c       ****     if((abs(encoder_error_value))>=5)
 573:L6470.c       ****     {
 574:L6470.c       ****       new_step = new_step+steps;     
 575:L6470.c       ****       GotoPos(new_step, TMC5160_nCS_MotorZ);
 576:L6470.c       ****       WaitTillPositionReached (TMC5160_nCS_MotorZ);
 577:L6470.c       ****       CyDelayUs(50);
 578:L6470.c       ****       Write_32bitSPI_DATA (0x21  , steps, TMC5160_nCS_MotorZ );
 579:L6470.c       ****     }
 580:L6470.c       ****     
 581:L6470.c       ****     }
 582:L6470.c       ****     
 583:L6470.c       ****     
 584:L6470.c       ****     Read_All_Optical_Encoder();
 585:L6470.c       ****     encoder_error_value = Encoder_Position_Z_Requested - Z_QuadPosition;
 586:L6470.c       ****     
 587:L6470.c       ****     if(temp>=4)
 588:L6470.c       ****     {
 589:L6470.c       ****      if(((abs(encoder_error_value))>=5)  )
 590:L6470.c       ****      {
 591:L6470.c       ****         Write_Debug_UART_Char("Fail to reach Z position \r\n");
 592:L6470.c       ****         LED2_Write(0xFF);
 593:L6470.c       ****         errorZ = 1;
 594:L6470.c       ****      }
 595:L6470.c       ****     
 596:L6470.c       ****      else if ( ((abs(encoder_error_value))>4000))
 597:L6470.c       ****      {
 598:L6470.c       ****        Write_Debug_UART_Char("Z Encoder or Z Motor Might Not be Working \r\n"); 
 599:L6470.c       ****      }
 600:L6470.c       ****     
ARM GAS  C:\Users\Revanth\AppData\Local\Temp\ccSEzD1d.s 			page 12


 601:L6470.c       ****      else
 602:L6470.c       ****      {
 603:L6470.c       ****         Write_Debug_UART_Char("Z position Reached");
 604:L6470.c       ****        errorZ = 0;
 605:L6470.c       ****         
 606:L6470.c       ****      }
 607:L6470.c       ****     
 608:L6470.c       ****     }
 609:L6470.c       ****     
 610:L6470.c       ****     return errorZ;
 611:L6470.c       **** }
 612:L6470.c       **** 
 613:L6470.c       **** /////////////////////////////////////Go to Position in T Axis//////////////////////////////////////
 614:L6470.c       **** 
 615:L6470.c       **** int goTo_T(int32 Position_T_Requested)
 616:L6470.c       **** {
 617:L6470.c       ****     Enable_Encoder_T(-Buffer_T_QuadPosition);
 618:L6470.c       ****     if(if_all_homing_done())
 619:L6470.c       ****     {
 620:L6470.c       ****         Error = 0;
 621:L6470.c       ****         Read_All_Optical_Encoder();        
 622:L6470.c       ****         Write_Debug_UART_Char("GotoT Command Recived--->");
 623:L6470.c       ****         GotoPos(Position_T_Requested, TMC5160_nCS_MotorT); // If provided value is position and not
 624:L6470.c       ****         WaitTillPositionReached (TMC5160_nCS_MotorT);
 625:L6470.c       ****         CyDelayUs(50);
 626:L6470.c       ****         //GotoPos(Position_X_Move, TMC5160_nCS_MotorX); // If provided value is steps to move and n
 627:L6470.c       ****         Write_Debug_UART_Int(Position_T_Requested);
 628:L6470.c       ****         Write_Debug_UART_Char("  \r\n");
 629:L6470.c       ****         Step_correction_t(Position_T_Requested);
 630:L6470.c       ****         Read_All_Optical_Encoder();
 631:L6470.c       ****         Buffer_T_QuadPosition = T_QuadPosition;
 632:L6470.c       ****         return Error;
 633:L6470.c       ****     }
 634:L6470.c       ****     else
 635:L6470.c       ****     {
 636:L6470.c       ****         Write_Debug_UART_Char("Homing Not Done");
 637:L6470.c       ****         Error = All_Homing_Not_Done_Yet;
 638:L6470.c       ****         return Error;
 639:L6470.c       ****     }
 640:L6470.c       ****     //Buffer_T_QuadPosition = T_QuadPosition;
 641:L6470.c       **** }
 642:L6470.c       **** 
 643:L6470.c       **** int Step_correction_t(int32 steps)
 644:L6470.c       **** {  
 645:L6470.c       ****     uint8_t temp=0;
 646:L6470.c       ****     int32 new_step=0;
 647:L6470.c       ****     int32 Encoder_Position_T_Requested =0;
 648:L6470.c       ****     //int32 diff_encoder_value=0;
 649:L6470.c       ****     int32 encoder_error_value = 0;
 650:L6470.c       ****     Encoder_Position_T_Requested = steps/3.2;
 651:L6470.c       ****     
 652:L6470.c       ****     for(temp=0; temp<=3; temp++)
 653:L6470.c       ****     {
 654:L6470.c       ****     Read_All_Optical_Encoder();
 655:L6470.c       ****     //diff_encoder_value = (X_QuadPosition - X_last_position);
 656:L6470.c       ****     encoder_error_value = Encoder_Position_T_Requested - T_QuadPosition;
 657:L6470.c       ****     new_step= encoder_error_value*3.2;
ARM GAS  C:\Users\Revanth\AppData\Local\Temp\ccSEzD1d.s 			page 13


 658:L6470.c       ****     
 659:L6470.c       ****     if((abs(encoder_error_value))>=5)
 660:L6470.c       ****     {
 661:L6470.c       ****       new_step = new_step+steps;     
 662:L6470.c       ****       GotoPos(new_step, TMC5160_nCS_MotorT);
 663:L6470.c       ****       WaitTillPositionReached (TMC5160_nCS_MotorT);
 664:L6470.c       ****       CyDelayUs(50);
 665:L6470.c       ****       Write_32bitSPI_DATA (0x21  , steps, TMC5160_nCS_MotorT );
 666:L6470.c       ****     }
 667:L6470.c       ****     
 668:L6470.c       ****     }
 669:L6470.c       ****     
 670:L6470.c       ****     Read_All_Optical_Encoder();
 671:L6470.c       ****     encoder_error_value = Encoder_Position_T_Requested - T_QuadPosition;
 672:L6470.c       ****     
 673:L6470.c       ****     if(temp>=4)
 674:L6470.c       ****     {
 675:L6470.c       ****      if(((abs(encoder_error_value))>=5) )
 676:L6470.c       ****      {
 677:L6470.c       ****         Write_Debug_UART_Char("Fail to reach T position \r\n");
 678:L6470.c       ****         Error = 1;
 679:L6470.c       ****      }
 680:L6470.c       ****     
 681:L6470.c       ****      else if ( ((abs(encoder_error_value))>4000))
 682:L6470.c       ****      {
 683:L6470.c       ****        Write_Debug_UART_Char("T Encoder or T Motor Might Not be Working \r\n"); 
 684:L6470.c       ****      }
 685:L6470.c       ****     
 686:L6470.c       ****      else
 687:L6470.c       ****      {
 688:L6470.c       ****         Write_Debug_UART_Char("T position Reached");
 689:L6470.c       ****         Error = 0;
 690:L6470.c       ****         
 691:L6470.c       ****      }
 692:L6470.c       ****     
 693:L6470.c       ****     }
 694:L6470.c       ****     
 695:L6470.c       ****     return Error;
 696:L6470.c       **** }
 697:L6470.c       **** 
 698:L6470.c       **** 
 699:L6470.c       **** ///////////////////////////////////////////////////////////////////////////////////////////////////
 700:L6470.c       **** /////////////////////////////////////Go to Position in XYZ Axis////////////////////////////////////
 701:L6470.c       **** 
 702:L6470.c       **** int goTo_XYZ(int32 Position_X_Requested,int32 Position_Y_Requested,int32 Position_Z_Requested)
 703:L6470.c       **** {
 704:L6470.c       ****     Read_All_Optical_Encoder();
 705:L6470.c       ****     //X_last_position = X_QuadPosition;
 706:L6470.c       ****     Write_Debug_UART_Char("GotoX Command Recived--->");
 707:L6470.c       ****     GotoPos(Position_X_Requested, TMC5160_nCS_MotorX); // If provided value is position and not the
 708:L6470.c       ****     GotoPos(Position_Y_Requested, TMC5160_nCS_MotorY);
 709:L6470.c       ****     Enable_Encoder_Z(-Buffer_Z_QuadPosition);
 710:L6470.c       ****     GotoPos(Position_Z_Requested, TMC5160_nCS_MotorZ);
 711:L6470.c       ****     
 712:L6470.c       ****     WaitTillPositionReached (TMC5160_nCS_MotorX);
 713:L6470.c       ****     WaitTillPositionReached (TMC5160_nCS_MotorY);
 714:L6470.c       ****     WaitTillPositionReached (TMC5160_nCS_MotorZ);
ARM GAS  C:\Users\Revanth\AppData\Local\Temp\ccSEzD1d.s 			page 14


 715:L6470.c       ****     
 716:L6470.c       ****     Step_correction_x(Position_X_Requested);
 717:L6470.c       ****     Step_correction_y(Position_Y_Requested);
 718:L6470.c       ****     Step_correction_z(Position_Z_Requested);
 719:L6470.c       ****     
 720:L6470.c       ****     Read_All_Optical_Encoder();
 721:L6470.c       ****     Buffer_Z_QuadPosition = Z_QuadPosition;
 722:L6470.c       ****     
 723:L6470.c       ****     CyDelayUs(50);
 724:L6470.c       ****     //GotoPos(Position_X_Move, TMC5160_nCS_MotorX); // If provided value is steps to move and not t
 725:L6470.c       ****     Write_Debug_UART_Int(Position_X_Requested);
 726:L6470.c       ****     Write_Debug_UART_Char("  \r\n");
 727:L6470.c       ****     Step_correction_x(Position_X_Requested);
 728:L6470.c       ****     return Error;  
 729:L6470.c       ****         
 730:L6470.c       **** }
 731:L6470.c       **** 
 732:L6470.c       **** 
 733:L6470.c       **** bool if_all_homing_done()
 734:L6470.c       **** {
 735:L6470.c       ****     if((HomeY_done == false)&&(errorY == 0))
 736:L6470.c       ****     {
 737:L6470.c       ****         Error = 12;//Y_Homing_Not_Done_Yet
 738:L6470.c       ****         Write_Debug_UART_Char("Y_Homing_Not_Done_Yet***********[x12]  \r\n");
 739:L6470.c       ****         UART_print_all_values();
 740:L6470.c       ****         return false;
 741:L6470.c       ****     }
 742:L6470.c       ****     else if((HomeX_done == false)&&(errorX == 0))
 743:L6470.c       ****     {
 744:L6470.c       ****         Error = 6;//X_Homing_Not_Done_Yet
 745:L6470.c       ****         Write_Debug_UART_Char("X_Homing_Not_Done_Yet***********  \r\n");
 746:L6470.c       ****         UART_print_all_values();
 747:L6470.c       ****         return false;
 748:L6470.c       ****     }
 749:L6470.c       ****     else if((HomeZ_done == false)&&(errorZ == 0))
 750:L6470.c       ****     {
 751:L6470.c       ****         Error = 18;//Z_Homing_Not_Done_Yet
 752:L6470.c       ****         Write_Debug_UART_Char("Z_Homing_Not_Done_Yet***********  \r\n");
 753:L6470.c       ****         UART_print_all_values();
 754:L6470.c       ****         return false;
 755:L6470.c       ****     } 
 756:L6470.c       ****     else
 757:L6470.c       ****     {
 758:L6470.c       ****         return true;
 759:L6470.c       ****     }
 760:L6470.c       **** }
 761:L6470.c       **** 
 762:L6470.c       **** ///////////////////////////////////////////////////////////////////////////////////////////////////
 763:L6470.c       **** //PWM Functions Start-------------------------------------------------------
 764:L6470.c       **** void Initialize_PWM()
 765:L6470.c       **** {
  28              		.loc 1 765 0
  29              		.cfi_startproc
  30              		@ args = 0, pretend = 0, frame = 0
  31              		@ frame_needed = 0, uses_anonymous_args = 0
  32 0000 08B5     		push	{r3, lr}
  33              		.cfi_def_cfa_offset 8
ARM GAS  C:\Users\Revanth\AppData\Local\Temp\ccSEzD1d.s 			page 15


  34              		.cfi_offset 3, -8
  35              		.cfi_offset 14, -4
 766:L6470.c       ****     PWM_CondenserLED_Start();
  36              		.loc 1 766 0
  37 0002 FFF7FEFF 		bl	PWM_CondenserLED_Start
  38              	.LVL0:
 767:L6470.c       ****     PWM_CondenserLED_WriteCompare(2); 
  39              		.loc 1 767 0
  40 0006 0220     		movs	r0, #2
  41 0008 FFF7FEFF 		bl	PWM_CondenserLED_WriteCompare
  42              	.LVL1:
 768:L6470.c       ****     
 769:L6470.c       ****     PWM_BarcodeCondenser_LED_Start();
  43              		.loc 1 769 0
  44 000c FFF7FEFF 		bl	PWM_BarcodeCondenser_LED_Start
  45              	.LVL2:
 770:L6470.c       ****     PWM_BarcodeCondenser_LED_WriteCompare(2);
  46              		.loc 1 770 0
  47 0010 0220     		movs	r0, #2
  48 0012 FFF7FEFF 		bl	PWM_BarcodeCondenser_LED_WriteCompare
  49              	.LVL3:
 771:L6470.c       ****     
 772:L6470.c       ****     PWM_Buzzer_Start();
  50              		.loc 1 772 0
  51 0016 FFF7FEFF 		bl	PWM_Buzzer_Start
  52              	.LVL4:
 773:L6470.c       ****     PWM_Buzzer_WriteCompare(2500);
  53              		.loc 1 773 0
  54 001a 40F6C410 		movw	r0, #2500
  55 001e FFF7FEFF 		bl	PWM_Buzzer_WriteCompare
  56              	.LVL5:
 774:L6470.c       ****     CyDelay(200);
  57              		.loc 1 774 0
  58 0022 C820     		movs	r0, #200
  59 0024 FFF7FEFF 		bl	CyDelay
  60              	.LVL6:
 775:L6470.c       ****     PWM_Buzzer_WriteCompare(0);
  61              		.loc 1 775 0
  62 0028 0020     		movs	r0, #0
  63 002a FFF7FEFF 		bl	PWM_Buzzer_WriteCompare
  64              	.LVL7:
 776:L6470.c       ****     CyDelay(200);
  65              		.loc 1 776 0
  66 002e C820     		movs	r0, #200
  67 0030 FFF7FEFF 		bl	CyDelay
  68              	.LVL8:
 777:L6470.c       ****     PWM_Buzzer_WriteCompare(2500);
  69              		.loc 1 777 0
  70 0034 40F6C410 		movw	r0, #2500
  71 0038 FFF7FEFF 		bl	PWM_Buzzer_WriteCompare
  72              	.LVL9:
 778:L6470.c       ****     CyDelay(200);
  73              		.loc 1 778 0
  74 003c C820     		movs	r0, #200
  75 003e FFF7FEFF 		bl	CyDelay
  76              	.LVL10:
 779:L6470.c       ****     PWM_Buzzer_WriteCompare(0);
ARM GAS  C:\Users\Revanth\AppData\Local\Temp\ccSEzD1d.s 			page 16


  77              		.loc 1 779 0
  78 0042 0020     		movs	r0, #0
  79 0044 FFF7FEFF 		bl	PWM_Buzzer_WriteCompare
  80              	.LVL11:
  81 0048 08BD     		pop	{r3, pc}
  82              		.cfi_endproc
  83              	.LFE79:
  84              		.size	Initialize_PWM, .-Initialize_PWM
  85 004a 00BF     		.section	.text.Set_Backlight_LED,"ax",%progbits
  86              		.align	2
  87              		.global	Set_Backlight_LED
  88              		.thumb
  89              		.thumb_func
  90              		.type	Set_Backlight_LED, %function
  91              	Set_Backlight_LED:
  92              	.LFB85:
 780:L6470.c       **** }
 781:L6470.c       **** int set_BarcodeCondenser_LED()//Set Barcode Condenser LED light intensity
 782:L6470.c       **** {
 783:L6470.c       ****     PWM_barcode_comare_value = ((unsigned int)USB_received[3] << 8) + USB_received[2];  //Read LED 
 784:L6470.c       ****     PWM_BarcodeCondenser_LED_WriteCompare((PWM_barcode_comare_value*0.6)/10);    //Writing LED valu
 785:L6470.c       ****     Write_Debug_UART_Char("LED Barcode Value Recived--->");
 786:L6470.c       ****     Write_Debug_UART_Int(PWM_barcode_comare_value);
 787:L6470.c       ****     Write_Debug_UART_Char("\r\n");
 788:L6470.c       ****     Write_Debug_UART_Char("Set Barcode LED Command Executed  \r\n");
 789:L6470.c       ****     return 0;
 790:L6470.c       **** }
 791:L6470.c       **** 
 792:L6470.c       **** int set_CondenserLED()//Set Condenser LED light intensity
 793:L6470.c       **** {
 794:L6470.c       ****     PWM_comare_value = ((unsigned int)USB_received[3] << 8) + USB_received[2];  //Read LED intensit
 795:L6470.c       ****     PWM_CondenserLED_WriteCompare((PWM_comare_value*0.6)/10);    //Writing LED value in to PWM maxi
 796:L6470.c       ****     Write_Debug_UART_Char(" LED Value Recived--->");
 797:L6470.c       ****     Write_Debug_UART_Int(PWM_comare_value);
 798:L6470.c       ****     Write_Debug_UART_Char("\r\n");
 799:L6470.c       ****     Write_Debug_UART_Char("Set LED Command Executed  \r\n");
 800:L6470.c       ****     return 0;
 801:L6470.c       **** }
 802:L6470.c       **** 
 803:L6470.c       **** int Beep_Once()//Set Condenser LED light intensity
 804:L6470.c       **** {
 805:L6470.c       ****     PWM_Buzzer_WriteCompare(2500);
 806:L6470.c       ****     CyDelay(200);
 807:L6470.c       ****     PWM_Buzzer_WriteCompare(0);
 808:L6470.c       ****     Write_Debug_UART_Char("Beeped Once  \r\n");
 809:L6470.c       ****     return 0;
 810:L6470.c       **** }
 811:L6470.c       **** 
 812:L6470.c       **** int Beep_Twice()//Set Condenser LED light intensity
 813:L6470.c       **** {
 814:L6470.c       ****     PWM_Buzzer_WriteCompare(2500);
 815:L6470.c       ****     CyDelay(200);
 816:L6470.c       ****     PWM_Buzzer_WriteCompare(0);
 817:L6470.c       ****     CyDelay(200);
 818:L6470.c       ****     PWM_Buzzer_WriteCompare(2500);
 819:L6470.c       ****     CyDelay(200);
 820:L6470.c       ****     PWM_Buzzer_WriteCompare(0);
ARM GAS  C:\Users\Revanth\AppData\Local\Temp\ccSEzD1d.s 			page 17


 821:L6470.c       ****     Write_Debug_UART_Char("Beeped Twice  \r\n");
 822:L6470.c       ****     return 0;
 823:L6470.c       **** }
 824:L6470.c       **** 
 825:L6470.c       **** int Long_Beep()//Set Condenser LED light intensity
 826:L6470.c       **** {
 827:L6470.c       ****     PWM_Buzzer_WriteCompare(2500);
 828:L6470.c       ****     CyDelay(2000);
 829:L6470.c       ****     PWM_Buzzer_WriteCompare(0);
 830:L6470.c       ****     CyDelay(200);
 831:L6470.c       ****     
 832:L6470.c       ****     Write_Debug_UART_Char("Beeped Long  \r\n");
 833:L6470.c       ****     return 0;
 834:L6470.c       **** }
 835:L6470.c       **** 
 836:L6470.c       **** //PWM Functions Stop-------------------------------------------------------
 837:L6470.c       **** 
 838:L6470.c       **** void Set_Backlight_LED(uint8_t value)
 839:L6470.c       **** {
  93              		.loc 1 839 0
  94              		.cfi_startproc
  95              		@ args = 0, pretend = 0, frame = 0
  96              		@ frame_needed = 0, uses_anonymous_args = 0
  97              	.LVL12:
  98 0000 08B5     		push	{r3, lr}
  99              		.cfi_def_cfa_offset 8
 100              		.cfi_offset 3, -8
 101              		.cfi_offset 14, -4
 840:L6470.c       ****     Pin_Backlight_Write(value);
 102              		.loc 1 840 0
 103 0002 FFF7FEFF 		bl	Pin_Backlight_Write
 104              	.LVL13:
 105 0006 08BD     		pop	{r3, pc}
 106              		.cfi_endproc
 107              	.LFE85:
 108              		.size	Set_Backlight_LED, .-Set_Backlight_LED
 109              		.section	.text.Enable_Encoder_T,"ax",%progbits
 110              		.align	2
 111              		.global	Enable_Encoder_T
 112              		.thumb
 113              		.thumb_func
 114              		.type	Enable_Encoder_T, %function
 115              	Enable_Encoder_T:
 116              	.LFB87:
 841:L6470.c       **** }
 842:L6470.c       **** 
 843:L6470.c       **** //Optical Decoder Functions Start-------------------------------------------------------
 844:L6470.c       **** void Initialize_And_Start_All_Opt_Encoder()//Initialize and start Interrupt for XY encoder count an
 845:L6470.c       **** {   
 846:L6470.c       ****     X_QuadPosition = 0;
 847:L6470.c       ****     Y_QuadPosition = 0;
 848:L6470.c       ****     Z_QuadPosition =0 ;
 849:L6470.c       ****     T_QuadPosition=0;
 850:L6470.c       ****     QuadDec_TZ_Start();
 851:L6470.c       ****     QuadDec_Y_Start();
 852:L6470.c       ****     QuadDec_X_Start();
 853:L6470.c       **** 
ARM GAS  C:\Users\Revanth\AppData\Local\Temp\ccSEzD1d.s 			page 18


 854:L6470.c       ****     Enable_Encoder_Z(0);
 855:L6470.c       ****     Enable_Encoder_T(0);
 856:L6470.c       **** }
 857:L6470.c       **** 
 858:L6470.c       **** 
 859:L6470.c       **** void Enable_Encoder_T(int steps)
 860:L6470.c       **** {
 117              		.loc 1 860 0
 118              		.cfi_startproc
 119              		@ args = 0, pretend = 0, frame = 0
 120              		@ frame_needed = 0, uses_anonymous_args = 0
 121              	.LVL14:
 122 0000 10B5     		push	{r4, lr}
 123              		.cfi_def_cfa_offset 8
 124              		.cfi_offset 4, -8
 125              		.cfi_offset 14, -4
 861:L6470.c       ****     EncoderTZSelect = 0; // 0 for T and 1 for Z
 126              		.loc 1 861 0
 127 0002 0024     		movs	r4, #0
 128 0004 034B     		ldr	r3, .L7
 129 0006 1C60     		str	r4, [r3]
 862:L6470.c       ****     QuadDec_TZ_SetCounter(steps);      
 130              		.loc 1 862 0
 131 0008 FFF7FEFF 		bl	QuadDec_TZ_SetCounter
 132              	.LVL15:
 863:L6470.c       ****     Encoder_T_Z_Select_Write(0);
 133              		.loc 1 863 0
 134 000c 2046     		mov	r0, r4
 135 000e FFF7FEFF 		bl	Encoder_T_Z_Select_Write
 136              	.LVL16:
 137 0012 10BD     		pop	{r4, pc}
 138              	.L8:
 139              		.align	2
 140              	.L7:
 141 0014 00000000 		.word	.LANCHOR0
 142              		.cfi_endproc
 143              	.LFE87:
 144              		.size	Enable_Encoder_T, .-Enable_Encoder_T
 145              		.section	.text.Enable_Encoder_Z,"ax",%progbits
 146              		.align	2
 147              		.global	Enable_Encoder_Z
 148              		.thumb
 149              		.thumb_func
 150              		.type	Enable_Encoder_Z, %function
 151              	Enable_Encoder_Z:
 152              	.LFB88:
 864:L6470.c       **** }
 865:L6470.c       **** 
 866:L6470.c       **** void Enable_Encoder_Z(int steps)
 867:L6470.c       **** {
 153              		.loc 1 867 0
 154              		.cfi_startproc
 155              		@ args = 0, pretend = 0, frame = 0
 156              		@ frame_needed = 0, uses_anonymous_args = 0
 157              	.LVL17:
 158 0000 10B5     		push	{r4, lr}
 159              		.cfi_def_cfa_offset 8
ARM GAS  C:\Users\Revanth\AppData\Local\Temp\ccSEzD1d.s 			page 19


 160              		.cfi_offset 4, -8
 161              		.cfi_offset 14, -4
 868:L6470.c       ****     EncoderTZSelect = 1; // 0 for T and 1 for Z
 162              		.loc 1 868 0
 163 0002 0124     		movs	r4, #1
 164 0004 034B     		ldr	r3, .L11
 165 0006 1C60     		str	r4, [r3]
 869:L6470.c       ****     QuadDec_TZ_SetCounter(steps);
 166              		.loc 1 869 0
 167 0008 FFF7FEFF 		bl	QuadDec_TZ_SetCounter
 168              	.LVL18:
 870:L6470.c       ****     Encoder_T_Z_Select_Write(1);
 169              		.loc 1 870 0
 170 000c 2046     		mov	r0, r4
 171 000e FFF7FEFF 		bl	Encoder_T_Z_Select_Write
 172              	.LVL19:
 173 0012 10BD     		pop	{r4, pc}
 174              	.L12:
 175              		.align	2
 176              	.L11:
 177 0014 00000000 		.word	.LANCHOR0
 178              		.cfi_endproc
 179              	.LFE88:
 180              		.size	Enable_Encoder_Z, .-Enable_Encoder_Z
 181              		.section	.text.Initialize_And_Start_All_Opt_Encoder,"ax",%progbits
 182              		.align	2
 183              		.global	Initialize_And_Start_All_Opt_Encoder
 184              		.thumb
 185              		.thumb_func
 186              		.type	Initialize_And_Start_All_Opt_Encoder, %function
 187              	Initialize_And_Start_All_Opt_Encoder:
 188              	.LFB86:
 845:L6470.c       ****     X_QuadPosition = 0;
 189              		.loc 1 845 0
 190              		.cfi_startproc
 191              		@ args = 0, pretend = 0, frame = 0
 192              		@ frame_needed = 0, uses_anonymous_args = 0
 193 0000 10B5     		push	{r4, lr}
 194              		.cfi_def_cfa_offset 8
 195              		.cfi_offset 4, -8
 196              		.cfi_offset 14, -4
 846:L6470.c       ****     Y_QuadPosition = 0;
 197              		.loc 1 846 0
 198 0002 094B     		ldr	r3, .L15
 199 0004 0024     		movs	r4, #0
 200 0006 5C60     		str	r4, [r3, #4]
 847:L6470.c       ****     Z_QuadPosition =0 ;
 201              		.loc 1 847 0
 202 0008 9C60     		str	r4, [r3, #8]
 848:L6470.c       ****     T_QuadPosition=0;
 203              		.loc 1 848 0
 204 000a DC60     		str	r4, [r3, #12]
 849:L6470.c       ****     QuadDec_TZ_Start();
 205              		.loc 1 849 0
 206 000c 1C61     		str	r4, [r3, #16]
 850:L6470.c       ****     QuadDec_Y_Start();
 207              		.loc 1 850 0
ARM GAS  C:\Users\Revanth\AppData\Local\Temp\ccSEzD1d.s 			page 20


 208 000e FFF7FEFF 		bl	QuadDec_TZ_Start
 209              	.LVL20:
 851:L6470.c       ****     QuadDec_X_Start();
 210              		.loc 1 851 0
 211 0012 FFF7FEFF 		bl	QuadDec_Y_Start
 212              	.LVL21:
 852:L6470.c       **** 
 213              		.loc 1 852 0
 214 0016 FFF7FEFF 		bl	QuadDec_X_Start
 215              	.LVL22:
 854:L6470.c       ****     Enable_Encoder_T(0);
 216              		.loc 1 854 0
 217 001a 2046     		mov	r0, r4
 218 001c FFF7FEFF 		bl	Enable_Encoder_Z
 219              	.LVL23:
 855:L6470.c       **** }
 220              		.loc 1 855 0
 221 0020 2046     		mov	r0, r4
 222 0022 FFF7FEFF 		bl	Enable_Encoder_T
 223              	.LVL24:
 224 0026 10BD     		pop	{r4, pc}
 225              	.L16:
 226              		.align	2
 227              	.L15:
 228 0028 00000000 		.word	.LANCHOR0
 229              		.cfi_endproc
 230              	.LFE86:
 231              		.size	Initialize_And_Start_All_Opt_Encoder, .-Initialize_And_Start_All_Opt_Encoder
 232              		.section	.text.Read_All_Optical_Encoder,"ax",%progbits
 233              		.align	2
 234              		.global	Read_All_Optical_Encoder
 235              		.thumb
 236              		.thumb_func
 237              		.type	Read_All_Optical_Encoder, %function
 238              	Read_All_Optical_Encoder:
 239              	.LFB89:
 871:L6470.c       **** }
 872:L6470.c       **** 
 873:L6470.c       **** void Read_All_Optical_Encoder()//Read all optical encoder value and update XYZ value
 874:L6470.c       **** {
 240              		.loc 1 874 0
 241              		.cfi_startproc
 242              		@ args = 0, pretend = 0, frame = 0
 243              		@ frame_needed = 0, uses_anonymous_args = 0
 244 0000 10B5     		push	{r4, lr}
 245              		.cfi_def_cfa_offset 8
 246              		.cfi_offset 4, -8
 247              		.cfi_offset 14, -4
 875:L6470.c       ****     if(EncoderTZSelect == 0)
 248              		.loc 1 875 0
 249 0002 0F4B     		ldr	r3, .L21
 250 0004 1B68     		ldr	r3, [r3]
 251 0006 33B9     		cbnz	r3, .L18
 876:L6470.c       ****     {
 877:L6470.c       ****         T_QuadPosition = -QuadDec_TZ_GetCounter();
 252              		.loc 1 877 0
 253 0008 FFF7FEFF 		bl	QuadDec_TZ_GetCounter
ARM GAS  C:\Users\Revanth\AppData\Local\Temp\ccSEzD1d.s 			page 21


 254              	.LVL25:
 255 000c 4042     		negs	r0, r0
 256 000e 0C4B     		ldr	r3, .L21
 257 0010 1861     		str	r0, [r3, #16]
 878:L6470.c       ****         Z_QuadPosition = Buffer_Z_QuadPosition;
 258              		.loc 1 878 0
 259 0012 5A69     		ldr	r2, [r3, #20]
 260 0014 DA60     		str	r2, [r3, #12]
 261              	.L18:
 879:L6470.c       ****     }
 880:L6470.c       ****     if(EncoderTZSelect == 1)
 262              		.loc 1 880 0
 263 0016 0A4B     		ldr	r3, .L21
 264 0018 1B68     		ldr	r3, [r3]
 265 001a 012B     		cmp	r3, #1
 266 001c 06D1     		bne	.L19
 881:L6470.c       ****     {
 882:L6470.c       ****         T_QuadPosition = Buffer_T_QuadPosition;
 267              		.loc 1 882 0
 268 001e 084C     		ldr	r4, .L21
 269 0020 A369     		ldr	r3, [r4, #24]
 270 0022 2361     		str	r3, [r4, #16]
 883:L6470.c       ****         Z_QuadPosition = -QuadDec_TZ_GetCounter();
 271              		.loc 1 883 0
 272 0024 FFF7FEFF 		bl	QuadDec_TZ_GetCounter
 273              	.LVL26:
 274 0028 4042     		negs	r0, r0
 275 002a E060     		str	r0, [r4, #12]
 276              	.L19:
 884:L6470.c       ****     }
 885:L6470.c       ****     X_QuadPosition = -QuadDec_X_GetCounter();
 277              		.loc 1 885 0
 278 002c FFF7FEFF 		bl	QuadDec_X_GetCounter
 279              	.LVL27:
 280 0030 4042     		negs	r0, r0
 281 0032 034C     		ldr	r4, .L21
 282 0034 6060     		str	r0, [r4, #4]
 886:L6470.c       ****     Y_QuadPosition = -QuadDec_Y_GetCounter();
 283              		.loc 1 886 0
 284 0036 FFF7FEFF 		bl	QuadDec_Y_GetCounter
 285              	.LVL28:
 286 003a 4042     		negs	r0, r0
 287 003c A060     		str	r0, [r4, #8]
 288 003e 10BD     		pop	{r4, pc}
 289              	.L22:
 290              		.align	2
 291              	.L21:
 292 0040 00000000 		.word	.LANCHOR0
 293              		.cfi_endproc
 294              	.LFE89:
 295              		.size	Read_All_Optical_Encoder, .-Read_All_Optical_Encoder
 296              		.section	.text.USB_Detect_Indication_Via_LED,"ax",%progbits
 297              		.align	2
 298              		.global	USB_Detect_Indication_Via_LED
 299              		.thumb
 300              		.thumb_func
 301              		.type	USB_Detect_Indication_Via_LED, %function
ARM GAS  C:\Users\Revanth\AppData\Local\Temp\ccSEzD1d.s 			page 22


 302              	USB_Detect_Indication_Via_LED:
 303              	.LFB92:
 887:L6470.c       **** }    
 888:L6470.c       **** //Optical Decoder Functions Stop-------------------------------------------------------
 889:L6470.c       **** 
 890:L6470.c       **** 
 891:L6470.c       **** //USB Functions Start-------------------------------------------------------
 892:L6470.c       **** void Process_USB_Data()/* Process USB incoming data command. */
 893:L6470.c       **** {
 894:L6470.c       ****     //Pin_USB_RX_TX_Indicator_LED_Write(1); /* turn ON LED as a indicator to start process the comm
 895:L6470.c       ****     Error = 0;
 896:L6470.c       ****     command = ((unsigned int)USB_received[1] << 8) + USB_received[0];   /* Reading USB data. */
 897:L6470.c       ****     /*Compare USB data and execute the command*/
 898:L6470.c       **** 
 899:L6470.c       ****     if (command == HomeX)                                          
 900:L6470.c       ****     {
 901:L6470.c       ****         goTo_X(0);
 902:L6470.c       ****         homeX(TMC5160_nCS_MotorX);   
 903:L6470.c       ****         Send_Feedback_to_USB(Error);
 904:L6470.c       ****     }
 905:L6470.c       ****     else if (command == HomeY)                           
 906:L6470.c       ****     {
 907:L6470.c       ****         goTo_Y(0);
 908:L6470.c       ****         homeY(TMC5160_nCS_MotorY);
 909:L6470.c       ****         Send_Feedback_to_USB(Error);
 910:L6470.c       ****     }
 911:L6470.c       ****     else if (command == HomeZ)                           
 912:L6470.c       ****     {
 913:L6470.c       ****         goTo_Z(0);
 914:L6470.c       ****         homeZ(TMC5160_nCS_MotorZ);
 915:L6470.c       ****         Send_Feedback_to_USB(Error);
 916:L6470.c       ****     }
 917:L6470.c       ****     else if (command == HomeT)                           
 918:L6470.c       ****     {
 919:L6470.c       ****         goTo_T(0);
 920:L6470.c       ****         homeT(TMC5160_nCS_MotorT);
 921:L6470.c       ****         Send_Feedback_to_USB(Error);
 922:L6470.c       ****     }
 923:L6470.c       ****     else if (command == GotoX)                           
 924:L6470.c       ****     {
 925:L6470.c       ****         Position_X_Requested = ((int32)USB_received[5] << 24) + ((int32)USB_received[4] << 16) + ((
 926:L6470.c       ****         Error = goTo_X(Position_X_Requested);
 927:L6470.c       ****         Send_Feedback_to_USB(Error);
 928:L6470.c       ****     }
 929:L6470.c       ****     else if (command == GotoY)          
 930:L6470.c       ****     {
 931:L6470.c       ****         Position_Y_Requested = ((int32)USB_received[5] << 24) + ((int32)USB_received[4] << 16) + ((
 932:L6470.c       ****         Error = goTo_Y(Position_Y_Requested);
 933:L6470.c       ****         Send_Feedback_to_USB(Error);
 934:L6470.c       ****     }
 935:L6470.c       ****     else if (command == GotoZ)        
 936:L6470.c       ****     {
 937:L6470.c       ****         Position_Z_Requested = ((int32)USB_received[5] << 24) + ((int32)USB_received[4] << 16) + ((
 938:L6470.c       ****         Error = goTo_Z(Position_Z_Requested);
 939:L6470.c       ****         Send_Feedback_to_USB(Error);
 940:L6470.c       ****     }
 941:L6470.c       ****     else if (command == GotoT)        
ARM GAS  C:\Users\Revanth\AppData\Local\Temp\ccSEzD1d.s 			page 23


 942:L6470.c       ****     {
 943:L6470.c       ****         Position_T_Requested = ((int32)USB_received[5] << 24) + ((int32)USB_received[4] << 16) + ((
 944:L6470.c       ****         Error = goTo_T(Position_T_Requested);
 945:L6470.c       ****         Send_Feedback_to_USB(Error);
 946:L6470.c       ****     }
 947:L6470.c       ****     else if ( command == Set_OilDispenser )
 948:L6470.c       ****     {
 949:L6470.c       ****         int time_ms=0;
 950:L6470.c       ****         uint8_t direction=0;
 951:L6470.c       ****         time_ms = ((int32)USB_received[5] << 24) + ((int32)USB_received[4] << 16) + ((int32)USB_rec
 952:L6470.c       ****         direction = USB_received[6];
 953:L6470.c       ****         run_pump (time_ms, direction);
 954:L6470.c       ****     }
 955:L6470.c       ****     else if (command == Set_LED_voltage)
 956:L6470.c       ****     { 
 957:L6470.c       ****        set_CondenserLED();
 958:L6470.c       ****         CyDelay(100);
 959:L6470.c       ****         Send_Feedback_to_USB(Error);  
 960:L6470.c       ****     }
 961:L6470.c       ****     else if (command == PCB_Reset)                     
 962:L6470.c       ****     {
 963:L6470.c       ****         Write_Debug_UART_Char("PCB Reset Command Recived  \r\n");
 964:L6470.c       ****         Write_Debug_UART_Char("\r\n");
 965:L6470.c       ****         CyDelay(500);
 966:L6470.c       ****         Send_Feedback_to_USB(0);
 967:L6470.c       ****         CyDelay(500);
 968:L6470.c       ****         CySoftwareReset();
 969:L6470.c       ****     }
 970:L6470.c       ****     else if(command == SetSpeed)  
 971:L6470.c       ****     {
 972:L6470.c       ****         //Set_Speed();
 973:L6470.c       ****         Send_Feedback_to_USB(Error);
 974:L6470.c       ****     }
 975:L6470.c       ****     else if (command == SetNoOfExecution)
 976:L6470.c       ****     {
 977:L6470.c       ****         //set_no_of_execution();
 978:L6470.c       ****         Send_Feedback_to_USB(Error);   
 979:L6470.c       ****     }
 980:L6470.c       ****     else if (command == Get_Status)                          
 981:L6470.c       ****     {
 982:L6470.c       ****         Write_Debug_UART_Char("Get Status Command Recived  \r\n");
 983:L6470.c       ****         CyDelay(10);
 984:L6470.c       ****         Send_Feedback_to_USB(0);
 985:L6470.c       ****     }
 986:L6470.c       ****     else
 987:L6470.c       ****     {
 988:L6470.c       ****         Error = 19;//Wrong_Command_Received
 989:L6470.c       ****         Write_Debug_UART_Char("Wrong Command Received*********** \r\n");
 990:L6470.c       ****         UART_print_all_values();
 991:L6470.c       ****         Send_Feedback_to_USB(19);
 992:L6470.c       ****     }
 993:L6470.c       ****     //Pin_USB_RX_TX_Indicator_LED_Write(0);/* turn OFF LED as a indicator to stop process the comma
 994:L6470.c       **** }
 995:L6470.c       **** void Send_Feedback_to_USB(int Error)//Send Feedback to USB if USB command executed correctely 
 996:L6470.c       **** {
 997:L6470.c       ****      Read_All_Optical_Encoder();
 998:L6470.c       **** 
ARM GAS  C:\Users\Revanth\AppData\Local\Temp\ccSEzD1d.s 			page 24


 999:L6470.c       ****     
1000:L6470.c       ****     
1001:L6470.c       ****         if(Error == 0)
1002:L6470.c       ****         {            
1003:L6470.c       ****             USB_transmit[0] = command;
1004:L6470.c       ****             USB_transmit[1] = (command >> 8);
1005:L6470.c       ****             USB_transmit[2] = No_Error;
1006:L6470.c       ****             USB_transmit[3] = No_Error >> 8;
1007:L6470.c       ****         }
1008:L6470.c       ****         else
1009:L6470.c       ****         {
1010:L6470.c       ****             switch(Error)
1011:L6470.c       ****             {
1012:L6470.c       ****                 case 1:
1013:L6470.c       ****                 {
1014:L6470.c       ****                     USB_transmit[2] = X_Motor_Not_Working;
1015:L6470.c       ****                     USB_transmit[3] = X_Motor_Not_Working >> 8; 
1016:L6470.c       ****                     break;
1017:L6470.c       ****                 }
1018:L6470.c       ****                 case 2:
1019:L6470.c       ****                 {
1020:L6470.c       ****                     USB_transmit[2] = X_Encoder_Not_Working;
1021:L6470.c       ****                     USB_transmit[3] = X_Encoder_Not_Working >> 8; 
1022:L6470.c       ****                     break;
1023:L6470.c       ****                 }
1024:L6470.c       ****                 case 3:
1025:L6470.c       ****                 {
1026:L6470.c       ****                     USB_transmit[2] = X_Switch_Not_Working;
1027:L6470.c       ****                     USB_transmit[3] = X_Switch_Not_Working >> 8; 
1028:L6470.c       ****                     break;
1029:L6470.c       ****                 }
1030:L6470.c       ****                 case 4:
1031:L6470.c       ****                 {
1032:L6470.c       ****                     USB_transmit[2] = X_Motor_Driver_Fault;
1033:L6470.c       ****                     USB_transmit[3] = X_Motor_Driver_Fault >> 8; 
1034:L6470.c       ****                     break;
1035:L6470.c       ****                 }
1036:L6470.c       ****                 case 5:
1037:L6470.c       ****                 {
1038:L6470.c       ****                     USB_transmit[2] = Requested_X_Step_Exceeding_The_Limit;
1039:L6470.c       ****                     USB_transmit[3] = Requested_X_Step_Exceeding_The_Limit >> 8; 
1040:L6470.c       ****                     break;
1041:L6470.c       ****                 }
1042:L6470.c       ****                 case 6:
1043:L6470.c       ****                 {
1044:L6470.c       ****                     USB_transmit[2] = X_Homing_Not_Done_Yet;
1045:L6470.c       ****                     USB_transmit[3] = X_Homing_Not_Done_Yet >> 8; 
1046:L6470.c       ****                     break;
1047:L6470.c       ****                 }
1048:L6470.c       ****                 case 7:
1049:L6470.c       ****                 {
1050:L6470.c       ****                     USB_transmit[2] = X_Motor_Busy ;
1051:L6470.c       ****                     USB_transmit[3] = X_Motor_Busy >> 8; 
1052:L6470.c       ****                     break;
1053:L6470.c       ****                 }
1054:L6470.c       ****                 case 8:
1055:L6470.c       ****                 {
ARM GAS  C:\Users\Revanth\AppData\Local\Temp\ccSEzD1d.s 			page 25


1056:L6470.c       ****                     USB_transmit[2] = Y_Motor_Not_Working;
1057:L6470.c       ****                     USB_transmit[3] = Y_Motor_Not_Working >> 8; 
1058:L6470.c       ****                     break;
1059:L6470.c       ****                 }
1060:L6470.c       ****                 case 9:
1061:L6470.c       ****                 {
1062:L6470.c       ****                     USB_transmit[2] = Y_Encoder_Not_Working;
1063:L6470.c       ****                     USB_transmit[3] = Y_Encoder_Not_Working >> 8; 
1064:L6470.c       ****                     break;
1065:L6470.c       ****                 }
1066:L6470.c       ****                 case 10:
1067:L6470.c       ****                 {
1068:L6470.c       ****                     USB_transmit[2] = Y_Switch_Not_Working;
1069:L6470.c       ****                     USB_transmit[3] = Y_Switch_Not_Working >> 8; 
1070:L6470.c       ****                     break;
1071:L6470.c       ****                 }
1072:L6470.c       ****                 case 11:
1073:L6470.c       ****                 {
1074:L6470.c       ****                     USB_transmit[2] = Y_Motor_Driver_Fault;
1075:L6470.c       ****                     USB_transmit[3] = Y_Motor_Driver_Fault >> 8; 
1076:L6470.c       ****                     break;
1077:L6470.c       ****                 }
1078:L6470.c       ****                 case 12:
1079:L6470.c       ****                 {
1080:L6470.c       ****                     USB_transmit[2] = Requested_Y_Step_Exceeding_The_Limit;
1081:L6470.c       ****                     USB_transmit[3] = Requested_Y_Step_Exceeding_The_Limit >> 8; 
1082:L6470.c       ****                     break;
1083:L6470.c       ****                 }
1084:L6470.c       ****                 case 13:
1085:L6470.c       ****                 {
1086:L6470.c       ****                     USB_transmit[2] = Y_Homing_Not_Done_Yet;
1087:L6470.c       ****                     USB_transmit[3] = Y_Homing_Not_Done_Yet >> 8; 
1088:L6470.c       ****                     break;
1089:L6470.c       ****                 }
1090:L6470.c       ****                 case 14:
1091:L6470.c       ****                 {
1092:L6470.c       ****                     USB_transmit[2] = Y_Motor_Busy;
1093:L6470.c       ****                     USB_transmit[3] = Y_Motor_Busy >> 8; 
1094:L6470.c       ****                     break;
1095:L6470.c       ****                 }
1096:L6470.c       ****                 case 15:
1097:L6470.c       ****                 {
1098:L6470.c       ****                     USB_transmit[2] = Z_Motor_Not_Working ;
1099:L6470.c       ****                     USB_transmit[3] = Z_Motor_Not_Working >> 8; 
1100:L6470.c       ****                     break;
1101:L6470.c       ****                 }
1102:L6470.c       ****                 case 16:
1103:L6470.c       ****                 {
1104:L6470.c       ****                     USB_transmit[2] = Z_Encoder_Not_Working ;
1105:L6470.c       ****                     USB_transmit[3] = Z_Encoder_Not_Working >> 8; 
1106:L6470.c       ****                     break;
1107:L6470.c       ****                 }
1108:L6470.c       ****                 case 17:
1109:L6470.c       ****                 {
1110:L6470.c       ****                     USB_transmit[2] = Z_Switch_Not_Working;
1111:L6470.c       ****                     USB_transmit[3] = Z_Switch_Not_Working >> 8; 
1112:L6470.c       ****                     break;
ARM GAS  C:\Users\Revanth\AppData\Local\Temp\ccSEzD1d.s 			page 26


1113:L6470.c       ****                 }
1114:L6470.c       ****                 case 18:
1115:L6470.c       ****                 {
1116:L6470.c       ****                     USB_transmit[2] = Z_Motor_Driver_Fault;
1117:L6470.c       ****                     USB_transmit[3] = Z_Motor_Driver_Fault >> 8; 
1118:L6470.c       ****                     break;
1119:L6470.c       ****                 }
1120:L6470.c       ****                 case 19:
1121:L6470.c       ****                 {
1122:L6470.c       ****                     USB_transmit[2] = Requested_Z_Step_Exceeding_The_Limit;
1123:L6470.c       ****                     USB_transmit[3] = Requested_Z_Step_Exceeding_The_Limit >> 8; 
1124:L6470.c       ****                     break;
1125:L6470.c       ****                 }
1126:L6470.c       ****                 case 20:
1127:L6470.c       ****                 {
1128:L6470.c       ****                     USB_transmit[2] = Z_Homing_Not_Done_Yet;
1129:L6470.c       ****                     USB_transmit[3] = Z_Homing_Not_Done_Yet >> 8; 
1130:L6470.c       ****                     break;
1131:L6470.c       ****                 }
1132:L6470.c       ****                 case 21:
1133:L6470.c       ****                 {
1134:L6470.c       ****                     USB_transmit[2] = Z_Motor_Busy;
1135:L6470.c       ****                     USB_transmit[3] = Z_Motor_Busy >> 8; 
1136:L6470.c       ****                     break;
1137:L6470.c       ****                 }
1138:L6470.c       ****                 case 22:
1139:L6470.c       ****                 {
1140:L6470.c       ****                     USB_transmit[2] = T_Motor_Not_Working;
1141:L6470.c       ****                     USB_transmit[3] =  T_Motor_Not_Working>> 8; 
1142:L6470.c       ****                     break;
1143:L6470.c       ****                 }
1144:L6470.c       ****                 case 23:
1145:L6470.c       ****                 {
1146:L6470.c       ****                     USB_transmit[2] = T_Encoder_Not_Working;
1147:L6470.c       ****                     USB_transmit[3] =  T_Encoder_Not_Working>> 8; 
1148:L6470.c       ****                     break;
1149:L6470.c       ****                 }
1150:L6470.c       ****                 case 24:
1151:L6470.c       ****                 {
1152:L6470.c       ****                     USB_transmit[2] = T_Switch_Not_Working;
1153:L6470.c       ****                     USB_transmit[3] =  T_Switch_Not_Working>> 8; 
1154:L6470.c       ****                     break;
1155:L6470.c       ****                 }
1156:L6470.c       ****                 
1157:L6470.c       ****                 case 25:
1158:L6470.c       ****                 {
1159:L6470.c       ****                     USB_transmit[2] = T_Motor_Driver_Fault;
1160:L6470.c       ****                     USB_transmit[3] =  T_Motor_Driver_Fault>> 8; 
1161:L6470.c       ****                     break;
1162:L6470.c       ****                 }
1163:L6470.c       ****                 case 26:
1164:L6470.c       ****                 {
1165:L6470.c       ****                     USB_transmit[2] = Requested_T_Step_Exceeding_The_Limit;
1166:L6470.c       ****                     USB_transmit[3] =  Requested_T_Step_Exceeding_The_Limit>> 8; 
1167:L6470.c       ****                     break;
1168:L6470.c       ****                 }
1169:L6470.c       ****                 case 27:
ARM GAS  C:\Users\Revanth\AppData\Local\Temp\ccSEzD1d.s 			page 27


1170:L6470.c       ****                 {
1171:L6470.c       ****                     USB_transmit[2] = T_Homing_Not_Done_Yet;
1172:L6470.c       ****                     USB_transmit[3] =  T_Homing_Not_Done_Yet>> 8; 
1173:L6470.c       ****                     break;
1174:L6470.c       ****                 }
1175:L6470.c       ****                 case 28:
1176:L6470.c       ****                 {
1177:L6470.c       ****                     USB_transmit[2] = T_Motor_Busy;
1178:L6470.c       ****                     USB_transmit[3] = T_Motor_Busy >> 8; 
1179:L6470.c       ****                     break;
1180:L6470.c       ****                 }
1181:L6470.c       ****                 case 29:
1182:L6470.c       ****                 {
1183:L6470.c       ****                     USB_transmit[2] = Wrong_Command_Received;
1184:L6470.c       ****                     USB_transmit[3] = Wrong_Command_Received >> 8; 
1185:L6470.c       ****                     break;
1186:L6470.c       ****                 }
1187:L6470.c       ****                 case 30:
1188:L6470.c       ****                 {
1189:L6470.c       ****                     USB_transmit[2] = PCB_Paused;
1190:L6470.c       ****                     USB_transmit[3] = PCB_Paused >> 8; 
1191:L6470.c       ****                     break;
1192:L6470.c       ****                 }
1193:L6470.c       ****                 case 31:
1194:L6470.c       ****                 {
1195:L6470.c       ****                     USB_transmit[2] = PCB_Busy;
1196:L6470.c       ****                     USB_transmit[3] = PCB_Busy >> 8; 
1197:L6470.c       ****                     break;
1198:L6470.c       ****                 }
1199:L6470.c       ****                 case 32:
1200:L6470.c       ****                 {
1201:L6470.c       ****                     USB_transmit[2] = All_Motors_Homing_Not_Done;
1202:L6470.c       ****                     USB_transmit[3] = All_Motors_Homing_Not_Done >> 8; 
1203:L6470.c       ****                     break;
1204:L6470.c       ****                 }
1205:L6470.c       ****             }
1206:L6470.c       ****         }
1207:L6470.c       ****         USB_transmit[4] = (X_QuadPosition);
1208:L6470.c       ****         USB_transmit[5] = (X_QuadPosition) >> 8;
1209:L6470.c       ****         USB_transmit[6] = (X_QuadPosition) >> 16;
1210:L6470.c       ****         USB_transmit[7] = (X_QuadPosition) >> 24;
1211:L6470.c       ****         USB_transmit[8] = (Y_QuadPosition);
1212:L6470.c       ****         USB_transmit[9] = (Y_QuadPosition) >> 8;
1213:L6470.c       ****         USB_transmit[10] = (Y_QuadPosition) >> 16;
1214:L6470.c       ****         USB_transmit[11] = (Y_QuadPosition) >> 24;
1215:L6470.c       ****         USB_transmit[12] = Z_QuadPosition;
1216:L6470.c       ****         USB_transmit[13] = Z_QuadPosition >> 8;
1217:L6470.c       ****         USB_transmit[14] = Z_QuadPosition >> 16;
1218:L6470.c       ****         USB_transmit[15] = Z_QuadPosition >> 24;
1219:L6470.c       ****         USB_transmit[16] = T_QuadPosition;
1220:L6470.c       ****         USB_transmit[17] = T_QuadPosition >> 8;
1221:L6470.c       ****         USB_transmit[18] = T_QuadPosition >> 16;
1222:L6470.c       ****         USB_transmit[19] = T_QuadPosition >> 24;
1223:L6470.c       **** //        USB_transmit[20] = PWM_Comare_Value_White;
1224:L6470.c       **** //        USB_transmit[21] = PWM_Comare_Value_White >> 8;
1225:L6470.c       ****         USB_transmit[22] = 0;
1226:L6470.c       ****         USB_transmit[23] = 0;
ARM GAS  C:\Users\Revanth\AppData\Local\Temp\ccSEzD1d.s 			page 28


1227:L6470.c       ****         USB_transmit[24] = 0;
1228:L6470.c       ****         USB_transmit[25] = 0;
1229:L6470.c       ****         USB_transmit[26] = 0;
1230:L6470.c       ****         USB_transmit[27] = 0;
1231:L6470.c       ****         USB_transmit[28] = Motor_Speed_X;
1232:L6470.c       ****         USB_transmit[29] = Motor_Speed_X >> 8;
1233:L6470.c       ****         USB_transmit[30] = Motor_Speed_Y;
1234:L6470.c       ****         USB_transmit[31] = Motor_Speed_Y >> 8;
1235:L6470.c       ****         USB_transmit[32] = Motor_Speed_Z;
1236:L6470.c       ****         USB_transmit[33] = Motor_Speed_Z >> 8;
1237:L6470.c       ****         USB_transmit[34] = 0x00;
1238:L6470.c       ****         USB_transmit[35] = 0x00 >> 8;
1239:L6470.c       ****         USB_transmit[36] = 0x00;
1240:L6470.c       ****         USB_transmit[37] = 0x00;
1241:L6470.c       ****         USB_transmit[38] = 0x00;
1242:L6470.c       ****         USB_transmit[39] = Firmware_Version;
1243:L6470.c       ****         USB_transmit[40] = 0;
1244:L6470.c       ****         USB_transmit[41] = 0;
1245:L6470.c       ****         USB_transmit[42] = 0;
1246:L6470.c       ****         USB_transmit[43] = 0;
1247:L6470.c       ****         USB_transmit[44] = 0;
1248:L6470.c       ****         USB_transmit[45] = 0;
1249:L6470.c       ****         
1250:L6470.c       ****         No_of_X_Cycle = 0;
1251:L6470.c       ****         No_of_Y_Cycle = 0;
1252:L6470.c       ****         No_of_Z_Cycle = 0;
1253:L6470.c       ****         //No_of_T_Cycle = 0;
1254:L6470.c       ****         
1255:L6470.c       ****         
1256:L6470.c       ****         
1257:L6470.c       ****         Write_Debug_UART_Char("Feedback Sent to Motherboard  \r\n");
1258:L6470.c       ****         USB_PutData(USB_transmit, 46);  //send data back to usb
1259:L6470.c       ****     
1260:L6470.c       **** }
1261:L6470.c       **** void USB_Detect_Indication_Via_LED()/* LED Indicator for USB detection. */
1262:L6470.c       **** {
 304              		.loc 1 1262 0
 305              		.cfi_startproc
 306              		@ args = 0, pretend = 0, frame = 0
 307              		@ frame_needed = 0, uses_anonymous_args = 0
 308              		@ link register save eliminated.
 309 0000 7047     		bx	lr
 310              		.cfi_endproc
 311              	.LFE92:
 312              		.size	USB_Detect_Indication_Via_LED, .-USB_Detect_Indication_Via_LED
 313 0002 00BF     		.section	.text.Clear_USB_RX_Buffer,"ax",%progbits
 314              		.align	2
 315              		.global	Clear_USB_RX_Buffer
 316              		.thumb
 317              		.thumb_func
 318              		.type	Clear_USB_RX_Buffer, %function
 319              	Clear_USB_RX_Buffer:
 320              	.LFB95:
1263:L6470.c       **** 
1264:L6470.c       **** }
1265:L6470.c       **** void Initialize_USB()/* Start the USB. */
1266:L6470.c       **** {
ARM GAS  C:\Users\Revanth\AppData\Local\Temp\ccSEzD1d.s 			page 29


1267:L6470.c       ****     USB_Start(0, USB_5V_OPERATION);   
1268:L6470.c       ****     while (0 == USB_GetConfiguration()) /* wait untill USB not found. */
1269:L6470.c       ****     {
1270:L6470.c       ****         Write_Debug_UART_Char("USB not Connected***********  \r\n");
1271:L6470.c       ****         CyDelayUs(1);
1272:L6470.c       ****     }
1273:L6470.c       ****     USB_CDC_Init();
1274:L6470.c       ****     Write_Debug_UART_Char("USB Connected  \r\n");
1275:L6470.c       ****     USB_EnableSofInt();  
1276:L6470.c       **** }
1277:L6470.c       **** void Is_USB_Unpluged()/* Check for changes in USB port reset if USB changes. */
1278:L6470.c       **** {
1279:L6470.c       ****    static bool dont_Execute_1st_Time=false;
1280:L6470.c       ****    if(USB_IsConfigurationChanged() != 0)
1281:L6470.c       ****    {
1282:L6470.c       ****     Beep_Twice();
1283:L6470.c       ****        if(USB_GetConfiguration() != 0)
1284:L6470.c       ****        {
1285:L6470.c       ****             if(dont_Execute_1st_Time)/* Ignore for the first time. */
1286:L6470.c       ****             {
1287:L6470.c       ****                 Write_Debug_UART_Char("USB Unpluged PCB resetting ***********  \r\n");
1288:L6470.c       ****                 UART_print_all_values();
1289:L6470.c       ****                 CyDelay(1);
1290:L6470.c       ****                 //CySoftwareReset();
1291:L6470.c       ****             }
1292:L6470.c       ****             dont_Execute_1st_Time = true;
1293:L6470.c       ****        }
1294:L6470.c       ****    }  
1295:L6470.c       **** }
1296:L6470.c       **** void Clear_USB_RX_Buffer()/* Initialize all USB_received 64 bits to 0. */
1297:L6470.c       **** {
 321              		.loc 1 1297 0
 322              		.cfi_startproc
 323              		@ args = 0, pretend = 0, frame = 0
 324              		@ frame_needed = 0, uses_anonymous_args = 0
 325              		@ link register save eliminated.
 326              	.LVL29:
1298:L6470.c       ****     int i =0;
1299:L6470.c       ****     for(i=0;i<65;i++)   //Initializing all bites to 0
 327              		.loc 1 1299 0
 328 0000 0023     		movs	r3, #0
 329 0002 03E0     		b	.L25
 330              	.LVL30:
 331              	.L26:
1300:L6470.c       ****         USB_received[i] = 0;   
 332              		.loc 1 1300 0 discriminator 3
 333 0004 0021     		movs	r1, #0
 334 0006 034A     		ldr	r2, .L27
 335 0008 D154     		strb	r1, [r2, r3]
1299:L6470.c       ****         USB_received[i] = 0;   
 336              		.loc 1 1299 0 discriminator 3
 337 000a 0133     		adds	r3, r3, #1
 338              	.LVL31:
 339              	.L25:
1299:L6470.c       ****         USB_received[i] = 0;   
 340              		.loc 1 1299 0 is_stmt 0 discriminator 1
 341 000c 402B     		cmp	r3, #64
ARM GAS  C:\Users\Revanth\AppData\Local\Temp\ccSEzD1d.s 			page 30


 342 000e F9DD     		ble	.L26
1301:L6470.c       **** }
 343              		.loc 1 1301 0 is_stmt 1
 344 0010 7047     		bx	lr
 345              	.L28:
 346 0012 00BF     		.align	2
 347              	.L27:
 348 0014 00000000 		.word	USB_received
 349              		.cfi_endproc
 350              	.LFE95:
 351              		.size	Clear_USB_RX_Buffer, .-Clear_USB_RX_Buffer
 352              		.section	.text.Clear_Pending_USB_Data,"ax",%progbits
 353              		.align	2
 354              		.global	Clear_Pending_USB_Data
 355              		.thumb
 356              		.thumb_func
 357              		.type	Clear_Pending_USB_Data, %function
 358              	Clear_Pending_USB_Data:
 359              	.LFB96:
1302:L6470.c       **** void Clear_Pending_USB_Data()/* Clear all pending data on usb RX buffer. */
1303:L6470.c       **** {
 360              		.loc 1 1303 0
 361              		.cfi_startproc
 362              		@ args = 0, pretend = 0, frame = 64
 363              		@ frame_needed = 0, uses_anonymous_args = 0
 364 0000 10B5     		push	{r4, lr}
 365              		.cfi_def_cfa_offset 8
 366              		.cfi_offset 4, -8
 367              		.cfi_offset 14, -4
 368 0002 90B0     		sub	sp, sp, #64
 369              		.cfi_def_cfa_offset 72
 370              	.LVL32:
1304:L6470.c       ****     int i;
1305:L6470.c       ****     uint8 USB_received_temp[64];
1306:L6470.c       ****     for(i=0;i<5;i++)
 371              		.loc 1 1306 0
 372 0004 0024     		movs	r4, #0
 373 0006 03E0     		b	.L30
 374              	.LVL33:
 375              	.L31:
1307:L6470.c       ****         {       
1308:L6470.c       ****             USB_GetAll(USB_received_temp);/* read and clear all Pending data. */
 376              		.loc 1 1308 0 discriminator 3
 377 0008 6846     		mov	r0, sp
 378 000a FFF7FEFF 		bl	USB_GetAll
 379              	.LVL34:
1306:L6470.c       ****         {       
 380              		.loc 1 1306 0 discriminator 3
 381 000e 0134     		adds	r4, r4, #1
 382              	.LVL35:
 383              	.L30:
1306:L6470.c       ****         {       
 384              		.loc 1 1306 0 is_stmt 0 discriminator 1
 385 0010 042C     		cmp	r4, #4
 386 0012 F9DD     		ble	.L31
1309:L6470.c       ****         }    
1310:L6470.c       **** }
ARM GAS  C:\Users\Revanth\AppData\Local\Temp\ccSEzD1d.s 			page 31


 387              		.loc 1 1310 0 is_stmt 1
 388 0014 10B0     		add	sp, sp, #64
 389              		.cfi_def_cfa_offset 8
 390              		@ sp needed
 391 0016 10BD     		pop	{r4, pc}
 392              		.cfi_endproc
 393              	.LFE96:
 394              		.size	Clear_Pending_USB_Data, .-Clear_Pending_USB_Data
 395              		.section	.text.Write_Debug_UART_Char,"ax",%progbits
 396              		.align	2
 397              		.global	Write_Debug_UART_Char
 398              		.thumb
 399              		.thumb_func
 400              		.type	Write_Debug_UART_Char, %function
 401              	Write_Debug_UART_Char:
 402              	.LFB97:
1311:L6470.c       **** void Write_Debug_UART_Char(char Str[])
1312:L6470.c       **** {
 403              		.loc 1 1312 0
 404              		.cfi_startproc
 405              		@ args = 0, pretend = 0, frame = 0
 406              		@ frame_needed = 0, uses_anonymous_args = 0
 407              	.LVL36:
 408 0000 10B5     		push	{r4, lr}
 409              		.cfi_def_cfa_offset 8
 410              		.cfi_offset 4, -8
 411              		.cfi_offset 14, -4
 412 0002 0446     		mov	r4, r0
 413              	.LBB2:
1313:L6470.c       ****     //if(Pin_UART_Enable_Read()==0)
1314:L6470.c       ****     {
1315:L6470.c       ****         static char Str_Last_One[] = "ShonitV2.2\r\n";
1316:L6470.c       ****         if((strncmp(Str_Last_One, Str, 10)!=0))
 414              		.loc 1 1316 0
 415 0004 0A22     		movs	r2, #10
 416 0006 0146     		mov	r1, r0
 417 0008 0748     		ldr	r0, .L36
 418              	.LVL37:
 419 000a FFF7FEFF 		bl	strncmp
 420              	.LVL38:
 421 000e 50B1     		cbz	r0, .L33
1317:L6470.c       ****     	{
1318:L6470.c       ****             UART_PCB_LOG_PutString(Str);
 422              		.loc 1 1318 0
 423 0010 2046     		mov	r0, r4
 424 0012 FFF7FEFF 		bl	UART_PCB_LOG_PutString
 425              	.LVL39:
1319:L6470.c       ****             CyDelayUs(1);
 426              		.loc 1 1319 0
 427 0016 0120     		movs	r0, #1
 428 0018 FFF7FEFF 		bl	CyDelayUs
 429              	.LVL40:
1320:L6470.c       ****             strncpy(Str_Last_One, Str, 10); 
 430              		.loc 1 1320 0
 431 001c 0A22     		movs	r2, #10
 432 001e 2146     		mov	r1, r4
 433 0020 0148     		ldr	r0, .L36
ARM GAS  C:\Users\Revanth\AppData\Local\Temp\ccSEzD1d.s 			page 32


 434 0022 FFF7FEFF 		bl	strncpy
 435              	.LVL41:
 436              	.L33:
 437 0026 10BD     		pop	{r4, pc}
 438              	.LVL42:
 439              	.L37:
 440              		.align	2
 441              	.L36:
 442 0028 00000000 		.word	.LANCHOR1
 443              	.LBE2:
 444              		.cfi_endproc
 445              	.LFE97:
 446              		.size	Write_Debug_UART_Char, .-Write_Debug_UART_Char
 447              		.section	.text.Beep_Once,"ax",%progbits
 448              		.align	2
 449              		.global	Beep_Once
 450              		.thumb
 451              		.thumb_func
 452              		.type	Beep_Once, %function
 453              	Beep_Once:
 454              	.LFB82:
 804:L6470.c       ****     PWM_Buzzer_WriteCompare(2500);
 455              		.loc 1 804 0
 456              		.cfi_startproc
 457              		@ args = 0, pretend = 0, frame = 0
 458              		@ frame_needed = 0, uses_anonymous_args = 0
 459 0000 08B5     		push	{r3, lr}
 460              		.cfi_def_cfa_offset 8
 461              		.cfi_offset 3, -8
 462              		.cfi_offset 14, -4
 805:L6470.c       ****     CyDelay(200);
 463              		.loc 1 805 0
 464 0002 40F6C410 		movw	r0, #2500
 465 0006 FFF7FEFF 		bl	PWM_Buzzer_WriteCompare
 466              	.LVL43:
 806:L6470.c       ****     PWM_Buzzer_WriteCompare(0);
 467              		.loc 1 806 0
 468 000a C820     		movs	r0, #200
 469 000c FFF7FEFF 		bl	CyDelay
 470              	.LVL44:
 807:L6470.c       ****     Write_Debug_UART_Char("Beeped Once  \r\n");
 471              		.loc 1 807 0
 472 0010 0020     		movs	r0, #0
 473 0012 FFF7FEFF 		bl	PWM_Buzzer_WriteCompare
 474              	.LVL45:
 808:L6470.c       ****     return 0;
 475              		.loc 1 808 0
 476 0016 0248     		ldr	r0, .L40
 477 0018 FFF7FEFF 		bl	Write_Debug_UART_Char
 478              	.LVL46:
 810:L6470.c       **** 
 479              		.loc 1 810 0
 480 001c 0020     		movs	r0, #0
 481 001e 08BD     		pop	{r3, pc}
 482              	.L41:
 483              		.align	2
 484              	.L40:
ARM GAS  C:\Users\Revanth\AppData\Local\Temp\ccSEzD1d.s 			page 33


 485 0020 00000000 		.word	.LC0
 486              		.cfi_endproc
 487              	.LFE82:
 488              		.size	Beep_Once, .-Beep_Once
 489              		.section	.text.Beep_Twice,"ax",%progbits
 490              		.align	2
 491              		.global	Beep_Twice
 492              		.thumb
 493              		.thumb_func
 494              		.type	Beep_Twice, %function
 495              	Beep_Twice:
 496              	.LFB83:
 813:L6470.c       ****     PWM_Buzzer_WriteCompare(2500);
 497              		.loc 1 813 0
 498              		.cfi_startproc
 499              		@ args = 0, pretend = 0, frame = 0
 500              		@ frame_needed = 0, uses_anonymous_args = 0
 501 0000 08B5     		push	{r3, lr}
 502              		.cfi_def_cfa_offset 8
 503              		.cfi_offset 3, -8
 504              		.cfi_offset 14, -4
 814:L6470.c       ****     CyDelay(200);
 505              		.loc 1 814 0
 506 0002 40F6C410 		movw	r0, #2500
 507 0006 FFF7FEFF 		bl	PWM_Buzzer_WriteCompare
 508              	.LVL47:
 815:L6470.c       ****     PWM_Buzzer_WriteCompare(0);
 509              		.loc 1 815 0
 510 000a C820     		movs	r0, #200
 511 000c FFF7FEFF 		bl	CyDelay
 512              	.LVL48:
 816:L6470.c       ****     CyDelay(200);
 513              		.loc 1 816 0
 514 0010 0020     		movs	r0, #0
 515 0012 FFF7FEFF 		bl	PWM_Buzzer_WriteCompare
 516              	.LVL49:
 817:L6470.c       ****     PWM_Buzzer_WriteCompare(2500);
 517              		.loc 1 817 0
 518 0016 C820     		movs	r0, #200
 519 0018 FFF7FEFF 		bl	CyDelay
 520              	.LVL50:
 818:L6470.c       ****     CyDelay(200);
 521              		.loc 1 818 0
 522 001c 40F6C410 		movw	r0, #2500
 523 0020 FFF7FEFF 		bl	PWM_Buzzer_WriteCompare
 524              	.LVL51:
 819:L6470.c       ****     PWM_Buzzer_WriteCompare(0);
 525              		.loc 1 819 0
 526 0024 C820     		movs	r0, #200
 527 0026 FFF7FEFF 		bl	CyDelay
 528              	.LVL52:
 820:L6470.c       ****     Write_Debug_UART_Char("Beeped Twice  \r\n");
 529              		.loc 1 820 0
 530 002a 0020     		movs	r0, #0
 531 002c FFF7FEFF 		bl	PWM_Buzzer_WriteCompare
 532              	.LVL53:
 821:L6470.c       ****     return 0;
ARM GAS  C:\Users\Revanth\AppData\Local\Temp\ccSEzD1d.s 			page 34


 533              		.loc 1 821 0
 534 0030 0248     		ldr	r0, .L44
 535 0032 FFF7FEFF 		bl	Write_Debug_UART_Char
 536              	.LVL54:
 823:L6470.c       **** 
 537              		.loc 1 823 0
 538 0036 0020     		movs	r0, #0
 539 0038 08BD     		pop	{r3, pc}
 540              	.L45:
 541 003a 00BF     		.align	2
 542              	.L44:
 543 003c 10000000 		.word	.LC1
 544              		.cfi_endproc
 545              	.LFE83:
 546              		.size	Beep_Twice, .-Beep_Twice
 547              		.section	.text.Long_Beep,"ax",%progbits
 548              		.align	2
 549              		.global	Long_Beep
 550              		.thumb
 551              		.thumb_func
 552              		.type	Long_Beep, %function
 553              	Long_Beep:
 554              	.LFB84:
 826:L6470.c       ****     PWM_Buzzer_WriteCompare(2500);
 555              		.loc 1 826 0
 556              		.cfi_startproc
 557              		@ args = 0, pretend = 0, frame = 0
 558              		@ frame_needed = 0, uses_anonymous_args = 0
 559 0000 08B5     		push	{r3, lr}
 560              		.cfi_def_cfa_offset 8
 561              		.cfi_offset 3, -8
 562              		.cfi_offset 14, -4
 827:L6470.c       ****     CyDelay(2000);
 563              		.loc 1 827 0
 564 0002 40F6C410 		movw	r0, #2500
 565 0006 FFF7FEFF 		bl	PWM_Buzzer_WriteCompare
 566              	.LVL55:
 828:L6470.c       ****     PWM_Buzzer_WriteCompare(0);
 567              		.loc 1 828 0
 568 000a 4FF4FA60 		mov	r0, #2000
 569 000e FFF7FEFF 		bl	CyDelay
 570              	.LVL56:
 829:L6470.c       ****     CyDelay(200);
 571              		.loc 1 829 0
 572 0012 0020     		movs	r0, #0
 573 0014 FFF7FEFF 		bl	PWM_Buzzer_WriteCompare
 574              	.LVL57:
 830:L6470.c       ****     
 575              		.loc 1 830 0
 576 0018 C820     		movs	r0, #200
 577 001a FFF7FEFF 		bl	CyDelay
 578              	.LVL58:
 832:L6470.c       ****     return 0;
 579              		.loc 1 832 0
 580 001e 0248     		ldr	r0, .L48
 581 0020 FFF7FEFF 		bl	Write_Debug_UART_Char
 582              	.LVL59:
ARM GAS  C:\Users\Revanth\AppData\Local\Temp\ccSEzD1d.s 			page 35


 834:L6470.c       **** 
 583              		.loc 1 834 0
 584 0024 0020     		movs	r0, #0
 585 0026 08BD     		pop	{r3, pc}
 586              	.L49:
 587              		.align	2
 588              	.L48:
 589 0028 24000000 		.word	.LC2
 590              		.cfi_endproc
 591              	.LFE84:
 592              		.size	Long_Beep, .-Long_Beep
 593              		.section	.text.Send_Feedback_to_USB,"ax",%progbits
 594              		.align	2
 595              		.global	Send_Feedback_to_USB
 596              		.thumb
 597              		.thumb_func
 598              		.type	Send_Feedback_to_USB, %function
 599              	Send_Feedback_to_USB:
 600              	.LFB91:
 996:L6470.c       ****      Read_All_Optical_Encoder();
 601              		.loc 1 996 0
 602              		.cfi_startproc
 603              		@ args = 0, pretend = 0, frame = 0
 604              		@ frame_needed = 0, uses_anonymous_args = 0
 605              	.LVL60:
 606 0000 10B5     		push	{r4, lr}
 607              		.cfi_def_cfa_offset 8
 608              		.cfi_offset 4, -8
 609              		.cfi_offset 14, -4
 610 0002 0446     		mov	r4, r0
 997:L6470.c       **** 
 611              		.loc 1 997 0
 612 0004 FFF7FEFF 		bl	Read_All_Optical_Encoder
 613              	.LVL61:
1001:L6470.c       ****         {            
 614              		.loc 1 1001 0
 615 0008 4CB9     		cbnz	r4, .L51
1003:L6470.c       ****             USB_transmit[1] = (command >> 8);
 616              		.loc 1 1003 0
 617 000a A34B     		ldr	r3, .L87
 618 000c 1A68     		ldr	r2, [r3]
 619 000e A34B     		ldr	r3, .L87+4
 620 0010 1A70     		strb	r2, [r3]
1004:L6470.c       ****             USB_transmit[2] = No_Error;
 621              		.loc 1 1004 0
 622 0012 120A     		lsrs	r2, r2, #8
 623 0014 5A70     		strb	r2, [r3, #1]
1005:L6470.c       ****             USB_transmit[3] = No_Error >> 8;
 624              		.loc 1 1005 0
 625 0016 0022     		movs	r2, #0
 626 0018 9A70     		strb	r2, [r3, #2]
1006:L6470.c       ****         }
 627              		.loc 1 1006 0
 628 001a DA70     		strb	r2, [r3, #3]
 629 001c D4E0     		b	.L52
 630              	.L51:
1010:L6470.c       ****             {
ARM GAS  C:\Users\Revanth\AppData\Local\Temp\ccSEzD1d.s 			page 36


 631              		.loc 1 1010 0
 632 001e 013C     		subs	r4, r4, #1
 633              	.LVL62:
 634 0020 1F2C     		cmp	r4, #31
 635 0022 00F2D180 		bhi	.L52
 636 0026 DFE804F0 		tbb	[pc, r4]
 637              	.L54:
 638 002a 10       		.byte	(.L53-.L54)/2
 639 002b 16       		.byte	(.L55-.L54)/2
 640 002c 1C       		.byte	(.L56-.L54)/2
 641 002d 22       		.byte	(.L57-.L54)/2
 642 002e 28       		.byte	(.L58-.L54)/2
 643 002f 2E       		.byte	(.L59-.L54)/2
 644 0030 34       		.byte	(.L60-.L54)/2
 645 0031 3A       		.byte	(.L61-.L54)/2
 646 0032 40       		.byte	(.L62-.L54)/2
 647 0033 46       		.byte	(.L63-.L54)/2
 648 0034 4C       		.byte	(.L64-.L54)/2
 649 0035 52       		.byte	(.L65-.L54)/2
 650 0036 58       		.byte	(.L66-.L54)/2
 651 0037 5E       		.byte	(.L67-.L54)/2
 652 0038 64       		.byte	(.L68-.L54)/2
 653 0039 6A       		.byte	(.L69-.L54)/2
 654 003a 70       		.byte	(.L70-.L54)/2
 655 003b 76       		.byte	(.L71-.L54)/2
 656 003c 7C       		.byte	(.L72-.L54)/2
 657 003d 82       		.byte	(.L73-.L54)/2
 658 003e 88       		.byte	(.L74-.L54)/2
 659 003f 8E       		.byte	(.L75-.L54)/2
 660 0040 94       		.byte	(.L76-.L54)/2
 661 0041 9A       		.byte	(.L77-.L54)/2
 662 0042 A0       		.byte	(.L78-.L54)/2
 663 0043 A6       		.byte	(.L79-.L54)/2
 664 0044 AC       		.byte	(.L80-.L54)/2
 665 0045 B2       		.byte	(.L81-.L54)/2
 666 0046 B8       		.byte	(.L82-.L54)/2
 667 0047 BE       		.byte	(.L83-.L54)/2
 668 0048 C4       		.byte	(.L84-.L54)/2
 669 0049 CA       		.byte	(.L85-.L54)/2
 670              		.p2align 1
 671              	.L53:
1014:L6470.c       ****                     USB_transmit[3] = X_Motor_Not_Working >> 8; 
 672              		.loc 1 1014 0
 673 004a 944B     		ldr	r3, .L87+4
 674 004c 0122     		movs	r2, #1
 675 004e 9A70     		strb	r2, [r3, #2]
1015:L6470.c       ****                     break;
 676              		.loc 1 1015 0
 677 0050 FA22     		movs	r2, #250
 678 0052 DA70     		strb	r2, [r3, #3]
1016:L6470.c       ****                 }
 679              		.loc 1 1016 0
 680 0054 B8E0     		b	.L52
 681              	.L55:
1020:L6470.c       ****                     USB_transmit[3] = X_Encoder_Not_Working >> 8; 
 682              		.loc 1 1020 0
 683 0056 914B     		ldr	r3, .L87+4
ARM GAS  C:\Users\Revanth\AppData\Local\Temp\ccSEzD1d.s 			page 37


 684 0058 0222     		movs	r2, #2
 685 005a 9A70     		strb	r2, [r3, #2]
1021:L6470.c       ****                     break;
 686              		.loc 1 1021 0
 687 005c FA22     		movs	r2, #250
 688 005e DA70     		strb	r2, [r3, #3]
1022:L6470.c       ****                 }
 689              		.loc 1 1022 0
 690 0060 B2E0     		b	.L52
 691              	.L56:
1026:L6470.c       ****                     USB_transmit[3] = X_Switch_Not_Working >> 8; 
 692              		.loc 1 1026 0
 693 0062 8E4B     		ldr	r3, .L87+4
 694 0064 1722     		movs	r2, #23
 695 0066 9A70     		strb	r2, [r3, #2]
1027:L6470.c       ****                     break;
 696              		.loc 1 1027 0
 697 0068 FA22     		movs	r2, #250
 698 006a DA70     		strb	r2, [r3, #3]
1028:L6470.c       ****                 }
 699              		.loc 1 1028 0
 700 006c ACE0     		b	.L52
 701              	.L57:
1032:L6470.c       ****                     USB_transmit[3] = X_Motor_Driver_Fault >> 8; 
 702              		.loc 1 1032 0
 703 006e 8B4B     		ldr	r3, .L87+4
 704 0070 0722     		movs	r2, #7
 705 0072 9A70     		strb	r2, [r3, #2]
1033:L6470.c       ****                     break;
 706              		.loc 1 1033 0
 707 0074 FA22     		movs	r2, #250
 708 0076 DA70     		strb	r2, [r3, #3]
1034:L6470.c       ****                 }
 709              		.loc 1 1034 0
 710 0078 A6E0     		b	.L52
 711              	.L58:
1038:L6470.c       ****                     USB_transmit[3] = Requested_X_Step_Exceeding_The_Limit >> 8; 
 712              		.loc 1 1038 0
 713 007a 884B     		ldr	r3, .L87+4
 714 007c 1122     		movs	r2, #17
 715 007e 9A70     		strb	r2, [r3, #2]
1039:L6470.c       ****                     break;
 716              		.loc 1 1039 0
 717 0080 FA22     		movs	r2, #250
 718 0082 DA70     		strb	r2, [r3, #3]
1040:L6470.c       ****                 }
 719              		.loc 1 1040 0
 720 0084 A0E0     		b	.L52
 721              	.L59:
1044:L6470.c       ****                     USB_transmit[3] = X_Homing_Not_Done_Yet >> 8; 
 722              		.loc 1 1044 0
 723 0086 854B     		ldr	r3, .L87+4
 724 0088 1D22     		movs	r2, #29
 725 008a 9A70     		strb	r2, [r3, #2]
1045:L6470.c       ****                     break;
 726              		.loc 1 1045 0
 727 008c FA22     		movs	r2, #250
ARM GAS  C:\Users\Revanth\AppData\Local\Temp\ccSEzD1d.s 			page 38


 728 008e DA70     		strb	r2, [r3, #3]
1046:L6470.c       ****                 }
 729              		.loc 1 1046 0
 730 0090 9AE0     		b	.L52
 731              	.L60:
1050:L6470.c       ****                     USB_transmit[3] = X_Motor_Busy >> 8; 
 732              		.loc 1 1050 0
 733 0092 824B     		ldr	r3, .L87+4
 734 0094 2522     		movs	r2, #37
 735 0096 9A70     		strb	r2, [r3, #2]
1051:L6470.c       ****                     break;
 736              		.loc 1 1051 0
 737 0098 FA22     		movs	r2, #250
 738 009a DA70     		strb	r2, [r3, #3]
1052:L6470.c       ****                 }
 739              		.loc 1 1052 0
 740 009c 94E0     		b	.L52
 741              	.L61:
1056:L6470.c       ****                     USB_transmit[3] = Y_Motor_Not_Working >> 8; 
 742              		.loc 1 1056 0
 743 009e 7F4B     		ldr	r3, .L87+4
 744 00a0 0322     		movs	r2, #3
 745 00a2 9A70     		strb	r2, [r3, #2]
1057:L6470.c       ****                     break;
 746              		.loc 1 1057 0
 747 00a4 FA22     		movs	r2, #250
 748 00a6 DA70     		strb	r2, [r3, #3]
1058:L6470.c       ****                 }
 749              		.loc 1 1058 0
 750 00a8 8EE0     		b	.L52
 751              	.L62:
1062:L6470.c       ****                     USB_transmit[3] = Y_Encoder_Not_Working >> 8; 
 752              		.loc 1 1062 0
 753 00aa 7C4B     		ldr	r3, .L87+4
 754 00ac 0422     		movs	r2, #4
 755 00ae 9A70     		strb	r2, [r3, #2]
1063:L6470.c       ****                     break;
 756              		.loc 1 1063 0
 757 00b0 FA22     		movs	r2, #250
 758 00b2 DA70     		strb	r2, [r3, #3]
1064:L6470.c       ****                 }
 759              		.loc 1 1064 0
 760 00b4 88E0     		b	.L52
 761              	.L63:
1068:L6470.c       ****                     USB_transmit[3] = Y_Switch_Not_Working >> 8; 
 762              		.loc 1 1068 0
 763 00b6 794B     		ldr	r3, .L87+4
 764 00b8 1822     		movs	r2, #24
 765 00ba 9A70     		strb	r2, [r3, #2]
1069:L6470.c       ****                     break;
 766              		.loc 1 1069 0
 767 00bc FA22     		movs	r2, #250
 768 00be DA70     		strb	r2, [r3, #3]
1070:L6470.c       ****                 }
 769              		.loc 1 1070 0
 770 00c0 82E0     		b	.L52
 771              	.L64:
ARM GAS  C:\Users\Revanth\AppData\Local\Temp\ccSEzD1d.s 			page 39


1074:L6470.c       ****                     USB_transmit[3] = Y_Motor_Driver_Fault >> 8; 
 772              		.loc 1 1074 0
 773 00c2 764B     		ldr	r3, .L87+4
 774 00c4 0822     		movs	r2, #8
 775 00c6 9A70     		strb	r2, [r3, #2]
1075:L6470.c       ****                     break;
 776              		.loc 1 1075 0
 777 00c8 FA22     		movs	r2, #250
 778 00ca DA70     		strb	r2, [r3, #3]
1076:L6470.c       ****                 }
 779              		.loc 1 1076 0
 780 00cc 7CE0     		b	.L52
 781              	.L65:
1080:L6470.c       ****                     USB_transmit[3] = Requested_Y_Step_Exceeding_The_Limit >> 8; 
 782              		.loc 1 1080 0
 783 00ce 734B     		ldr	r3, .L87+4
 784 00d0 1222     		movs	r2, #18
 785 00d2 9A70     		strb	r2, [r3, #2]
1081:L6470.c       ****                     break;
 786              		.loc 1 1081 0
 787 00d4 FA22     		movs	r2, #250
 788 00d6 DA70     		strb	r2, [r3, #3]
1082:L6470.c       ****                 }
 789              		.loc 1 1082 0
 790 00d8 76E0     		b	.L52
 791              	.L66:
1086:L6470.c       ****                     USB_transmit[3] = Y_Homing_Not_Done_Yet >> 8; 
 792              		.loc 1 1086 0
 793 00da 704B     		ldr	r3, .L87+4
 794 00dc 1E22     		movs	r2, #30
 795 00de 9A70     		strb	r2, [r3, #2]
1087:L6470.c       ****                     break;
 796              		.loc 1 1087 0
 797 00e0 FA22     		movs	r2, #250
 798 00e2 DA70     		strb	r2, [r3, #3]
1088:L6470.c       ****                 }
 799              		.loc 1 1088 0
 800 00e4 70E0     		b	.L52
 801              	.L67:
1092:L6470.c       ****                     USB_transmit[3] = Y_Motor_Busy >> 8; 
 802              		.loc 1 1092 0
 803 00e6 6D4B     		ldr	r3, .L87+4
 804 00e8 2622     		movs	r2, #38
 805 00ea 9A70     		strb	r2, [r3, #2]
1093:L6470.c       ****                     break;
 806              		.loc 1 1093 0
 807 00ec FA22     		movs	r2, #250
 808 00ee DA70     		strb	r2, [r3, #3]
1094:L6470.c       ****                 }
 809              		.loc 1 1094 0
 810 00f0 6AE0     		b	.L52
 811              	.L68:
1098:L6470.c       ****                     USB_transmit[3] = Z_Motor_Not_Working >> 8; 
 812              		.loc 1 1098 0
 813 00f2 6A4B     		ldr	r3, .L87+4
 814 00f4 0522     		movs	r2, #5
 815 00f6 9A70     		strb	r2, [r3, #2]
ARM GAS  C:\Users\Revanth\AppData\Local\Temp\ccSEzD1d.s 			page 40


1099:L6470.c       ****                     break;
 816              		.loc 1 1099 0
 817 00f8 FA22     		movs	r2, #250
 818 00fa DA70     		strb	r2, [r3, #3]
1100:L6470.c       ****                 }
 819              		.loc 1 1100 0
 820 00fc 64E0     		b	.L52
 821              	.L69:
1104:L6470.c       ****                     USB_transmit[3] = Z_Encoder_Not_Working >> 8; 
 822              		.loc 1 1104 0
 823 00fe 674B     		ldr	r3, .L87+4
 824 0100 0622     		movs	r2, #6
 825 0102 9A70     		strb	r2, [r3, #2]
1105:L6470.c       ****                     break;
 826              		.loc 1 1105 0
 827 0104 FA22     		movs	r2, #250
 828 0106 DA70     		strb	r2, [r3, #3]
1106:L6470.c       ****                 }
 829              		.loc 1 1106 0
 830 0108 5EE0     		b	.L52
 831              	.L70:
1110:L6470.c       ****                     USB_transmit[3] = Z_Switch_Not_Working >> 8; 
 832              		.loc 1 1110 0
 833 010a 644B     		ldr	r3, .L87+4
 834 010c 1922     		movs	r2, #25
 835 010e 9A70     		strb	r2, [r3, #2]
1111:L6470.c       ****                     break;
 836              		.loc 1 1111 0
 837 0110 FA22     		movs	r2, #250
 838 0112 DA70     		strb	r2, [r3, #3]
1112:L6470.c       ****                 }
 839              		.loc 1 1112 0
 840 0114 58E0     		b	.L52
 841              	.L71:
1116:L6470.c       ****                     USB_transmit[3] = Z_Motor_Driver_Fault >> 8; 
 842              		.loc 1 1116 0
 843 0116 614B     		ldr	r3, .L87+4
 844 0118 0922     		movs	r2, #9
 845 011a 9A70     		strb	r2, [r3, #2]
1117:L6470.c       ****                     break;
 846              		.loc 1 1117 0
 847 011c FA22     		movs	r2, #250
 848 011e DA70     		strb	r2, [r3, #3]
1118:L6470.c       ****                 }
 849              		.loc 1 1118 0
 850 0120 52E0     		b	.L52
 851              	.L72:
1122:L6470.c       ****                     USB_transmit[3] = Requested_Z_Step_Exceeding_The_Limit >> 8; 
 852              		.loc 1 1122 0
 853 0122 5E4B     		ldr	r3, .L87+4
 854 0124 1322     		movs	r2, #19
 855 0126 9A70     		strb	r2, [r3, #2]
1123:L6470.c       ****                     break;
 856              		.loc 1 1123 0
 857 0128 FA22     		movs	r2, #250
 858 012a DA70     		strb	r2, [r3, #3]
1124:L6470.c       ****                 }
ARM GAS  C:\Users\Revanth\AppData\Local\Temp\ccSEzD1d.s 			page 41


 859              		.loc 1 1124 0
 860 012c 4CE0     		b	.L52
 861              	.L73:
1128:L6470.c       ****                     USB_transmit[3] = Z_Homing_Not_Done_Yet >> 8; 
 862              		.loc 1 1128 0
 863 012e 5B4B     		ldr	r3, .L87+4
 864 0130 1F22     		movs	r2, #31
 865 0132 9A70     		strb	r2, [r3, #2]
1129:L6470.c       ****                     break;
 866              		.loc 1 1129 0
 867 0134 FA22     		movs	r2, #250
 868 0136 DA70     		strb	r2, [r3, #3]
1130:L6470.c       ****                 }
 869              		.loc 1 1130 0
 870 0138 46E0     		b	.L52
 871              	.L74:
1134:L6470.c       ****                     USB_transmit[3] = Z_Motor_Busy >> 8; 
 872              		.loc 1 1134 0
 873 013a 584B     		ldr	r3, .L87+4
 874 013c 2722     		movs	r2, #39
 875 013e 9A70     		strb	r2, [r3, #2]
1135:L6470.c       ****                     break;
 876              		.loc 1 1135 0
 877 0140 FA22     		movs	r2, #250
 878 0142 DA70     		strb	r2, [r3, #3]
1136:L6470.c       ****                 }
 879              		.loc 1 1136 0
 880 0144 40E0     		b	.L52
 881              	.L75:
1140:L6470.c       ****                     USB_transmit[3] =  T_Motor_Not_Working>> 8; 
 882              		.loc 1 1140 0
 883 0146 554B     		ldr	r3, .L87+4
 884 0148 2B22     		movs	r2, #43
 885 014a 9A70     		strb	r2, [r3, #2]
1141:L6470.c       ****                     break;
 886              		.loc 1 1141 0
 887 014c FA22     		movs	r2, #250
 888 014e DA70     		strb	r2, [r3, #3]
1142:L6470.c       ****                 }
 889              		.loc 1 1142 0
 890 0150 3AE0     		b	.L52
 891              	.L76:
1146:L6470.c       ****                     USB_transmit[3] =  T_Encoder_Not_Working>> 8; 
 892              		.loc 1 1146 0
 893 0152 524B     		ldr	r3, .L87+4
 894 0154 2C22     		movs	r2, #44
 895 0156 9A70     		strb	r2, [r3, #2]
1147:L6470.c       ****                     break;
 896              		.loc 1 1147 0
 897 0158 FA22     		movs	r2, #250
 898 015a DA70     		strb	r2, [r3, #3]
1148:L6470.c       ****                 }
 899              		.loc 1 1148 0
 900 015c 34E0     		b	.L52
 901              	.L77:
1152:L6470.c       ****                     USB_transmit[3] =  T_Switch_Not_Working>> 8; 
 902              		.loc 1 1152 0
ARM GAS  C:\Users\Revanth\AppData\Local\Temp\ccSEzD1d.s 			page 42


 903 015e 4F4B     		ldr	r3, .L87+4
 904 0160 2D22     		movs	r2, #45
 905 0162 9A70     		strb	r2, [r3, #2]
1153:L6470.c       ****                     break;
 906              		.loc 1 1153 0
 907 0164 FA22     		movs	r2, #250
 908 0166 DA70     		strb	r2, [r3, #3]
1154:L6470.c       ****                 }
 909              		.loc 1 1154 0
 910 0168 2EE0     		b	.L52
 911              	.L78:
1159:L6470.c       ****                     USB_transmit[3] =  T_Motor_Driver_Fault>> 8; 
 912              		.loc 1 1159 0
 913 016a 4C4B     		ldr	r3, .L87+4
 914 016c 2E22     		movs	r2, #46
 915 016e 9A70     		strb	r2, [r3, #2]
1160:L6470.c       ****                     break;
 916              		.loc 1 1160 0
 917 0170 FA22     		movs	r2, #250
 918 0172 DA70     		strb	r2, [r3, #3]
1161:L6470.c       ****                 }
 919              		.loc 1 1161 0
 920 0174 28E0     		b	.L52
 921              	.L79:
1165:L6470.c       ****                     USB_transmit[3] =  Requested_T_Step_Exceeding_The_Limit>> 8; 
 922              		.loc 1 1165 0
 923 0176 494B     		ldr	r3, .L87+4
 924 0178 2A22     		movs	r2, #42
 925 017a 9A70     		strb	r2, [r3, #2]
1166:L6470.c       ****                     break;
 926              		.loc 1 1166 0
 927 017c FA22     		movs	r2, #250
 928 017e DA70     		strb	r2, [r3, #3]
1167:L6470.c       ****                 }
 929              		.loc 1 1167 0
 930 0180 22E0     		b	.L52
 931              	.L80:
1171:L6470.c       ****                     USB_transmit[3] =  T_Homing_Not_Done_Yet>> 8; 
 932              		.loc 1 1171 0
 933 0182 464B     		ldr	r3, .L87+4
 934 0184 2F22     		movs	r2, #47
 935 0186 9A70     		strb	r2, [r3, #2]
1172:L6470.c       ****                     break;
 936              		.loc 1 1172 0
 937 0188 FA22     		movs	r2, #250
 938 018a DA70     		strb	r2, [r3, #3]
1173:L6470.c       ****                 }
 939              		.loc 1 1173 0
 940 018c 1CE0     		b	.L52
 941              	.L81:
1177:L6470.c       ****                     USB_transmit[3] = T_Motor_Busy >> 8; 
 942              		.loc 1 1177 0
 943 018e 434B     		ldr	r3, .L87+4
 944 0190 2822     		movs	r2, #40
 945 0192 9A70     		strb	r2, [r3, #2]
1178:L6470.c       ****                     break;
 946              		.loc 1 1178 0
ARM GAS  C:\Users\Revanth\AppData\Local\Temp\ccSEzD1d.s 			page 43


 947 0194 FA22     		movs	r2, #250
 948 0196 DA70     		strb	r2, [r3, #3]
1179:L6470.c       ****                 }
 949              		.loc 1 1179 0
 950 0198 16E0     		b	.L52
 951              	.L82:
1183:L6470.c       ****                     USB_transmit[3] = Wrong_Command_Received >> 8; 
 952              		.loc 1 1183 0
 953 019a 404B     		ldr	r3, .L87+4
 954 019c 2222     		movs	r2, #34
 955 019e 9A70     		strb	r2, [r3, #2]
1184:L6470.c       ****                     break;
 956              		.loc 1 1184 0
 957 01a0 FA22     		movs	r2, #250
 958 01a2 DA70     		strb	r2, [r3, #3]
1185:L6470.c       ****                 }
 959              		.loc 1 1185 0
 960 01a4 10E0     		b	.L52
 961              	.L83:
1189:L6470.c       ****                     USB_transmit[3] = PCB_Paused >> 8; 
 962              		.loc 1 1189 0
 963 01a6 3D4B     		ldr	r3, .L87+4
 964 01a8 2322     		movs	r2, #35
 965 01aa 9A70     		strb	r2, [r3, #2]
1190:L6470.c       ****                     break;
 966              		.loc 1 1190 0
 967 01ac FA22     		movs	r2, #250
 968 01ae DA70     		strb	r2, [r3, #3]
1191:L6470.c       ****                 }
 969              		.loc 1 1191 0
 970 01b0 0AE0     		b	.L52
 971              	.L84:
1195:L6470.c       ****                     USB_transmit[3] = PCB_Busy >> 8; 
 972              		.loc 1 1195 0
 973 01b2 3A4B     		ldr	r3, .L87+4
 974 01b4 2422     		movs	r2, #36
 975 01b6 9A70     		strb	r2, [r3, #2]
1196:L6470.c       ****                     break;
 976              		.loc 1 1196 0
 977 01b8 FA22     		movs	r2, #250
 978 01ba DA70     		strb	r2, [r3, #3]
1197:L6470.c       ****                 }
 979              		.loc 1 1197 0
 980 01bc 04E0     		b	.L52
 981              	.L85:
1201:L6470.c       ****                     USB_transmit[3] = All_Motors_Homing_Not_Done >> 8; 
 982              		.loc 1 1201 0
 983 01be 374B     		ldr	r3, .L87+4
 984 01c0 2922     		movs	r2, #41
 985 01c2 9A70     		strb	r2, [r3, #2]
1202:L6470.c       ****                     break;
 986              		.loc 1 1202 0
 987 01c4 FA22     		movs	r2, #250
 988 01c6 DA70     		strb	r2, [r3, #3]
 989              	.LVL63:
 990              	.L52:
1207:L6470.c       ****         USB_transmit[5] = (X_QuadPosition) >> 8;
ARM GAS  C:\Users\Revanth\AppData\Local\Temp\ccSEzD1d.s 			page 44


 991              		.loc 1 1207 0
 992 01c8 354A     		ldr	r2, .L87+8
 993 01ca 5368     		ldr	r3, [r2, #4]
 994 01cc 334C     		ldr	r4, .L87+4
 995 01ce 2371     		strb	r3, [r4, #4]
1208:L6470.c       ****         USB_transmit[6] = (X_QuadPosition) >> 16;
 996              		.loc 1 1208 0
 997 01d0 5368     		ldr	r3, [r2, #4]
 998 01d2 1B12     		asrs	r3, r3, #8
 999 01d4 6371     		strb	r3, [r4, #5]
1209:L6470.c       ****         USB_transmit[7] = (X_QuadPosition) >> 24;
 1000              		.loc 1 1209 0
 1001 01d6 5368     		ldr	r3, [r2, #4]
 1002 01d8 1B14     		asrs	r3, r3, #16
 1003 01da A371     		strb	r3, [r4, #6]
1210:L6470.c       ****         USB_transmit[8] = (Y_QuadPosition);
 1004              		.loc 1 1210 0
 1005 01dc 5368     		ldr	r3, [r2, #4]
 1006 01de 1B16     		asrs	r3, r3, #24
 1007 01e0 E371     		strb	r3, [r4, #7]
1211:L6470.c       ****         USB_transmit[9] = (Y_QuadPosition) >> 8;
 1008              		.loc 1 1211 0
 1009 01e2 9368     		ldr	r3, [r2, #8]
 1010 01e4 2372     		strb	r3, [r4, #8]
1212:L6470.c       ****         USB_transmit[10] = (Y_QuadPosition) >> 16;
 1011              		.loc 1 1212 0
 1012 01e6 9368     		ldr	r3, [r2, #8]
 1013 01e8 1B12     		asrs	r3, r3, #8
 1014 01ea 6372     		strb	r3, [r4, #9]
1213:L6470.c       ****         USB_transmit[11] = (Y_QuadPosition) >> 24;
 1015              		.loc 1 1213 0
 1016 01ec 9368     		ldr	r3, [r2, #8]
 1017 01ee 1B14     		asrs	r3, r3, #16
 1018 01f0 A372     		strb	r3, [r4, #10]
1214:L6470.c       ****         USB_transmit[12] = Z_QuadPosition;
 1019              		.loc 1 1214 0
 1020 01f2 9368     		ldr	r3, [r2, #8]
 1021 01f4 1B16     		asrs	r3, r3, #24
 1022 01f6 E372     		strb	r3, [r4, #11]
1215:L6470.c       ****         USB_transmit[13] = Z_QuadPosition >> 8;
 1023              		.loc 1 1215 0
 1024 01f8 D368     		ldr	r3, [r2, #12]
 1025 01fa 2373     		strb	r3, [r4, #12]
1216:L6470.c       ****         USB_transmit[14] = Z_QuadPosition >> 16;
 1026              		.loc 1 1216 0
 1027 01fc D368     		ldr	r3, [r2, #12]
 1028 01fe 1B12     		asrs	r3, r3, #8
 1029 0200 6373     		strb	r3, [r4, #13]
1217:L6470.c       ****         USB_transmit[15] = Z_QuadPosition >> 24;
 1030              		.loc 1 1217 0
 1031 0202 D368     		ldr	r3, [r2, #12]
 1032 0204 1B14     		asrs	r3, r3, #16
 1033 0206 A373     		strb	r3, [r4, #14]
1218:L6470.c       ****         USB_transmit[16] = T_QuadPosition;
 1034              		.loc 1 1218 0
 1035 0208 D368     		ldr	r3, [r2, #12]
 1036 020a 1B16     		asrs	r3, r3, #24
ARM GAS  C:\Users\Revanth\AppData\Local\Temp\ccSEzD1d.s 			page 45


 1037 020c E373     		strb	r3, [r4, #15]
1219:L6470.c       ****         USB_transmit[17] = T_QuadPosition >> 8;
 1038              		.loc 1 1219 0
 1039 020e 1369     		ldr	r3, [r2, #16]
 1040 0210 2374     		strb	r3, [r4, #16]
1220:L6470.c       ****         USB_transmit[18] = T_QuadPosition >> 16;
 1041              		.loc 1 1220 0
 1042 0212 1369     		ldr	r3, [r2, #16]
 1043 0214 1B12     		asrs	r3, r3, #8
 1044 0216 6374     		strb	r3, [r4, #17]
1221:L6470.c       ****         USB_transmit[19] = T_QuadPosition >> 24;
 1045              		.loc 1 1221 0
 1046 0218 1369     		ldr	r3, [r2, #16]
 1047 021a 1B14     		asrs	r3, r3, #16
 1048 021c A374     		strb	r3, [r4, #18]
1222:L6470.c       **** //        USB_transmit[20] = PWM_Comare_Value_White;
 1049              		.loc 1 1222 0
 1050 021e 1369     		ldr	r3, [r2, #16]
 1051 0220 1B16     		asrs	r3, r3, #24
 1052 0222 E374     		strb	r3, [r4, #19]
1225:L6470.c       ****         USB_transmit[23] = 0;
 1053              		.loc 1 1225 0
 1054 0224 0023     		movs	r3, #0
 1055 0226 A375     		strb	r3, [r4, #22]
1226:L6470.c       ****         USB_transmit[24] = 0;
 1056              		.loc 1 1226 0
 1057 0228 E375     		strb	r3, [r4, #23]
1227:L6470.c       ****         USB_transmit[25] = 0;
 1058              		.loc 1 1227 0
 1059 022a 2376     		strb	r3, [r4, #24]
1228:L6470.c       ****         USB_transmit[26] = 0;
 1060              		.loc 1 1228 0
 1061 022c 6376     		strb	r3, [r4, #25]
1229:L6470.c       ****         USB_transmit[27] = 0;
 1062              		.loc 1 1229 0
 1063 022e A376     		strb	r3, [r4, #26]
1230:L6470.c       ****         USB_transmit[28] = Motor_Speed_X;
 1064              		.loc 1 1230 0
 1065 0230 E376     		strb	r3, [r4, #27]
1231:L6470.c       ****         USB_transmit[29] = Motor_Speed_X >> 8;
 1066              		.loc 1 1231 0
 1067 0232 1C48     		ldr	r0, .L87+12
 1068 0234 0169     		ldr	r1, [r0, #16]
 1069 0236 2177     		strb	r1, [r4, #28]
1232:L6470.c       ****         USB_transmit[30] = Motor_Speed_Y;
 1070              		.loc 1 1232 0
 1071 0238 090A     		lsrs	r1, r1, #8
 1072 023a 6177     		strb	r1, [r4, #29]
1233:L6470.c       ****         USB_transmit[31] = Motor_Speed_Y >> 8;
 1073              		.loc 1 1233 0
 1074 023c 4169     		ldr	r1, [r0, #20]
 1075 023e A177     		strb	r1, [r4, #30]
1234:L6470.c       ****         USB_transmit[32] = Motor_Speed_Z;
 1076              		.loc 1 1234 0
 1077 0240 090A     		lsrs	r1, r1, #8
 1078 0242 E177     		strb	r1, [r4, #31]
1235:L6470.c       ****         USB_transmit[33] = Motor_Speed_Z >> 8;
ARM GAS  C:\Users\Revanth\AppData\Local\Temp\ccSEzD1d.s 			page 46


 1079              		.loc 1 1235 0
 1080 0244 8169     		ldr	r1, [r0, #24]
 1081 0246 84F82010 		strb	r1, [r4, #32]
1236:L6470.c       ****         USB_transmit[34] = 0x00;
 1082              		.loc 1 1236 0
 1083 024a 090A     		lsrs	r1, r1, #8
 1084 024c 84F82110 		strb	r1, [r4, #33]
1237:L6470.c       ****         USB_transmit[35] = 0x00 >> 8;
 1085              		.loc 1 1237 0
 1086 0250 84F82230 		strb	r3, [r4, #34]
1238:L6470.c       ****         USB_transmit[36] = 0x00;
 1087              		.loc 1 1238 0
 1088 0254 84F82330 		strb	r3, [r4, #35]
1239:L6470.c       ****         USB_transmit[37] = 0x00;
 1089              		.loc 1 1239 0
 1090 0258 84F82430 		strb	r3, [r4, #36]
1240:L6470.c       ****         USB_transmit[38] = 0x00;
 1091              		.loc 1 1240 0
 1092 025c 84F82530 		strb	r3, [r4, #37]
1241:L6470.c       ****         USB_transmit[39] = Firmware_Version;
 1093              		.loc 1 1241 0
 1094 0260 84F82630 		strb	r3, [r4, #38]
1242:L6470.c       ****         USB_transmit[40] = 0;
 1095              		.loc 1 1242 0
 1096 0264 1B21     		movs	r1, #27
 1097 0266 84F82710 		strb	r1, [r4, #39]
1243:L6470.c       ****         USB_transmit[41] = 0;
 1098              		.loc 1 1243 0
 1099 026a 84F82830 		strb	r3, [r4, #40]
1244:L6470.c       ****         USB_transmit[42] = 0;
 1100              		.loc 1 1244 0
 1101 026e 84F82930 		strb	r3, [r4, #41]
1245:L6470.c       ****         USB_transmit[43] = 0;
 1102              		.loc 1 1245 0
 1103 0272 84F82A30 		strb	r3, [r4, #42]
1246:L6470.c       ****         USB_transmit[44] = 0;
 1104              		.loc 1 1246 0
 1105 0276 84F82B30 		strb	r3, [r4, #43]
1247:L6470.c       ****         USB_transmit[45] = 0;
 1106              		.loc 1 1247 0
 1107 027a 84F82C30 		strb	r3, [r4, #44]
1248:L6470.c       ****         
 1108              		.loc 1 1248 0
 1109 027e 84F82D30 		strb	r3, [r4, #45]
1250:L6470.c       ****         No_of_Y_Cycle = 0;
 1110              		.loc 1 1250 0
 1111 0282 D361     		str	r3, [r2, #28]
1251:L6470.c       ****         No_of_Z_Cycle = 0;
 1112              		.loc 1 1251 0
 1113 0284 1362     		str	r3, [r2, #32]
1252:L6470.c       ****         //No_of_T_Cycle = 0;
 1114              		.loc 1 1252 0
 1115 0286 5362     		str	r3, [r2, #36]
1257:L6470.c       ****         USB_PutData(USB_transmit, 46);  //send data back to usb
 1116              		.loc 1 1257 0
 1117 0288 0748     		ldr	r0, .L87+16
 1118 028a FFF7FEFF 		bl	Write_Debug_UART_Char
ARM GAS  C:\Users\Revanth\AppData\Local\Temp\ccSEzD1d.s 			page 47


 1119              	.LVL64:
1258:L6470.c       ****     
 1120              		.loc 1 1258 0
 1121 028e 2E21     		movs	r1, #46
 1122 0290 2046     		mov	r0, r4
 1123 0292 FFF7FEFF 		bl	USB_PutData
 1124              	.LVL65:
 1125 0296 10BD     		pop	{r4, pc}
 1126              	.L88:
 1127              		.align	2
 1128              	.L87:
 1129 0298 00000000 		.word	command
 1130 029c 00000000 		.word	USB_transmit
 1131 02a0 00000000 		.word	.LANCHOR0
 1132 02a4 00000000 		.word	.LANCHOR1
 1133 02a8 34000000 		.word	.LC3
 1134              		.cfi_endproc
 1135              	.LFE91:
 1136              		.size	Send_Feedback_to_USB, .-Send_Feedback_to_USB
 1137              		.section	.text.Initialize_USB,"ax",%progbits
 1138              		.align	2
 1139              		.global	Initialize_USB
 1140              		.thumb
 1141              		.thumb_func
 1142              		.type	Initialize_USB, %function
 1143              	Initialize_USB:
 1144              	.LFB93:
1266:L6470.c       ****     USB_Start(0, USB_5V_OPERATION);   
 1145              		.loc 1 1266 0
 1146              		.cfi_startproc
 1147              		@ args = 0, pretend = 0, frame = 0
 1148              		@ frame_needed = 0, uses_anonymous_args = 0
 1149 0000 08B5     		push	{r3, lr}
 1150              		.cfi_def_cfa_offset 8
 1151              		.cfi_offset 3, -8
 1152              		.cfi_offset 14, -4
1267:L6470.c       ****     while (0 == USB_GetConfiguration()) /* wait untill USB not found. */
 1153              		.loc 1 1267 0
 1154 0002 0121     		movs	r1, #1
 1155 0004 0020     		movs	r0, #0
 1156 0006 FFF7FEFF 		bl	USB_Start
 1157              	.LVL66:
1268:L6470.c       ****     {
 1158              		.loc 1 1268 0
 1159 000a 05E0     		b	.L90
 1160              	.L91:
1270:L6470.c       ****         CyDelayUs(1);
 1161              		.loc 1 1270 0
 1162 000c 0848     		ldr	r0, .L93
 1163 000e FFF7FEFF 		bl	Write_Debug_UART_Char
 1164              	.LVL67:
1271:L6470.c       ****     }
 1165              		.loc 1 1271 0
 1166 0012 0120     		movs	r0, #1
 1167 0014 FFF7FEFF 		bl	CyDelayUs
 1168              	.LVL68:
 1169              	.L90:
ARM GAS  C:\Users\Revanth\AppData\Local\Temp\ccSEzD1d.s 			page 48


1268:L6470.c       ****     {
 1170              		.loc 1 1268 0
 1171 0018 FFF7FEFF 		bl	USB_GetConfiguration
 1172              	.LVL69:
 1173 001c 0028     		cmp	r0, #0
 1174 001e F5D0     		beq	.L91
1273:L6470.c       ****     Write_Debug_UART_Char("USB Connected  \r\n");
 1175              		.loc 1 1273 0
 1176 0020 FFF7FEFF 		bl	USB_CDC_Init
 1177              	.LVL70:
1274:L6470.c       ****     USB_EnableSofInt();  
 1178              		.loc 1 1274 0
 1179 0024 0348     		ldr	r0, .L93+4
 1180 0026 FFF7FEFF 		bl	Write_Debug_UART_Char
 1181              	.LVL71:
1275:L6470.c       **** }
 1182              		.loc 1 1275 0
 1183 002a FFF7FEFF 		bl	USB_EnableSofInt
 1184              	.LVL72:
 1185 002e 08BD     		pop	{r3, pc}
 1186              	.L94:
 1187              		.align	2
 1188              	.L93:
 1189 0030 58000000 		.word	.LC4
 1190 0034 7C000000 		.word	.LC5
 1191              		.cfi_endproc
 1192              	.LFE93:
 1193              		.size	Initialize_USB, .-Initialize_USB
 1194              		.section	.text.Write_Debug_UART_Int,"ax",%progbits
 1195              		.align	2
 1196              		.global	Write_Debug_UART_Int
 1197              		.thumb
 1198              		.thumb_func
 1199              		.type	Write_Debug_UART_Int, %function
 1200              	Write_Debug_UART_Int:
 1201              	.LFB98:
1321:L6470.c       ****     	}
1322:L6470.c       ****     }
1323:L6470.c       **** }
1324:L6470.c       **** void Write_Debug_UART_Int(int32 num)
1325:L6470.c       **** {
 1202              		.loc 1 1325 0
 1203              		.cfi_startproc
 1204              		@ args = 0, pretend = 0, frame = 24
 1205              		@ frame_needed = 0, uses_anonymous_args = 0
 1206              	.LVL73:
 1207 0000 00B5     		push	{lr}
 1208              		.cfi_def_cfa_offset 4
 1209              		.cfi_offset 14, -4
 1210 0002 87B0     		sub	sp, sp, #28
 1211              		.cfi_def_cfa_offset 32
 1212              	.LBB3:
1326:L6470.c       ****    // if(Pin_UART_Enable_Read()==0)
1327:L6470.c       ****     {
1328:L6470.c       ****         char uart_Buffer[20];
1329:L6470.c       ****         sprintf(uart_Buffer,"%d, ",(int)num);
 1213              		.loc 1 1329 0
ARM GAS  C:\Users\Revanth\AppData\Local\Temp\ccSEzD1d.s 			page 49


 1214 0004 0246     		mov	r2, r0
 1215 0006 0649     		ldr	r1, .L97
 1216 0008 01A8     		add	r0, sp, #4
 1217              	.LVL74:
 1218 000a FFF7FEFF 		bl	sprintf
 1219              	.LVL75:
1330:L6470.c       ****         UART_PCB_LOG_PutString(uart_Buffer);
 1220              		.loc 1 1330 0
 1221 000e 01A8     		add	r0, sp, #4
 1222 0010 FFF7FEFF 		bl	UART_PCB_LOG_PutString
 1223              	.LVL76:
1331:L6470.c       ****         CyDelayUs(1);
 1224              		.loc 1 1331 0
 1225 0014 0120     		movs	r0, #1
 1226 0016 FFF7FEFF 		bl	CyDelayUs
 1227              	.LVL77:
 1228              	.LBE3:
1332:L6470.c       ****     }
1333:L6470.c       **** }
 1229              		.loc 1 1333 0
 1230 001a 07B0     		add	sp, sp, #28
 1231              		.cfi_def_cfa_offset 4
 1232              		@ sp needed
 1233 001c 5DF804FB 		ldr	pc, [sp], #4
 1234              	.L98:
 1235              		.align	2
 1236              	.L97:
 1237 0020 90000000 		.word	.LC6
 1238              		.cfi_endproc
 1239              	.LFE98:
 1240              		.size	Write_Debug_UART_Int, .-Write_Debug_UART_Int
 1241              		.global	__aeabi_i2d
 1242              		.global	__aeabi_dmul
 1243              		.global	__aeabi_ddiv
 1244              		.global	__aeabi_d2uiz
 1245              		.section	.text.set_BarcodeCondenser_LED,"ax",%progbits
 1246              		.align	2
 1247              		.global	set_BarcodeCondenser_LED
 1248              		.thumb
 1249              		.thumb_func
 1250              		.type	set_BarcodeCondenser_LED, %function
 1251              	set_BarcodeCondenser_LED:
 1252              	.LFB80:
 782:L6470.c       ****     PWM_barcode_comare_value = ((unsigned int)USB_received[3] << 8) + USB_received[2];  //Read LED 
 1253              		.loc 1 782 0
 1254              		.cfi_startproc
 1255              		@ args = 0, pretend = 0, frame = 0
 1256              		@ frame_needed = 0, uses_anonymous_args = 0
 1257 0000 10B5     		push	{r4, lr}
 1258              		.cfi_def_cfa_offset 8
 1259              		.cfi_offset 4, -8
 1260              		.cfi_offset 14, -4
 783:L6470.c       ****     PWM_BarcodeCondenser_LED_WriteCompare((PWM_barcode_comare_value*0.6)/10);    //Writing LED valu
 1261              		.loc 1 783 0
 1262 0002 154B     		ldr	r3, .L101+8
 1263 0004 D878     		ldrb	r0, [r3, #3]	@ zero_extendqisi2
 1264 0006 9B78     		ldrb	r3, [r3, #2]	@ zero_extendqisi2
ARM GAS  C:\Users\Revanth\AppData\Local\Temp\ccSEzD1d.s 			page 50


 1265 0008 03EB0020 		add	r0, r3, r0, lsl #8
 1266 000c 134C     		ldr	r4, .L101+12
 1267 000e A062     		str	r0, [r4, #40]
 784:L6470.c       ****     Write_Debug_UART_Char("LED Barcode Value Recived--->");
 1268              		.loc 1 784 0
 1269 0010 FFF7FEFF 		bl	__aeabi_i2d
 1270              	.LVL78:
 1271 0014 0EA3     		adr	r3, .L101
 1272 0016 D3E90023 		ldrd	r2, [r3]
 1273 001a FFF7FEFF 		bl	__aeabi_dmul
 1274              	.LVL79:
 1275 001e 0022     		movs	r2, #0
 1276 0020 0F4B     		ldr	r3, .L101+16
 1277 0022 FFF7FEFF 		bl	__aeabi_ddiv
 1278              	.LVL80:
 1279 0026 FFF7FEFF 		bl	__aeabi_d2uiz
 1280              	.LVL81:
 1281 002a 80B2     		uxth	r0, r0
 1282 002c FFF7FEFF 		bl	PWM_BarcodeCondenser_LED_WriteCompare
 1283              	.LVL82:
 785:L6470.c       ****     Write_Debug_UART_Int(PWM_barcode_comare_value);
 1284              		.loc 1 785 0
 1285 0030 0C48     		ldr	r0, .L101+20
 1286 0032 FFF7FEFF 		bl	Write_Debug_UART_Char
 1287              	.LVL83:
 786:L6470.c       ****     Write_Debug_UART_Char("\r\n");
 1288              		.loc 1 786 0
 1289 0036 A06A     		ldr	r0, [r4, #40]
 1290 0038 FFF7FEFF 		bl	Write_Debug_UART_Int
 1291              	.LVL84:
 787:L6470.c       ****     Write_Debug_UART_Char("Set Barcode LED Command Executed  \r\n");
 1292              		.loc 1 787 0
 1293 003c 0A48     		ldr	r0, .L101+24
 1294 003e FFF7FEFF 		bl	Write_Debug_UART_Char
 1295              	.LVL85:
 788:L6470.c       ****     return 0;
 1296              		.loc 1 788 0
 1297 0042 0A48     		ldr	r0, .L101+28
 1298 0044 FFF7FEFF 		bl	Write_Debug_UART_Char
 1299              	.LVL86:
 790:L6470.c       **** 
 1300              		.loc 1 790 0
 1301 0048 0020     		movs	r0, #0
 1302 004a 10BD     		pop	{r4, pc}
 1303              	.L102:
 1304 004c AFF30080 		.align	3
 1305              	.L101:
 1306 0050 33333333 		.word	858993459
 1307 0054 3333E33F 		.word	1071854387
 1308 0058 00000000 		.word	USB_received
 1309 005c 00000000 		.word	.LANCHOR0
 1310 0060 00002440 		.word	1076101120
 1311 0064 98000000 		.word	.LC7
 1312 0068 B8000000 		.word	.LC8
 1313 006c BC000000 		.word	.LC9
 1314              		.cfi_endproc
 1315              	.LFE80:
ARM GAS  C:\Users\Revanth\AppData\Local\Temp\ccSEzD1d.s 			page 51


 1316              		.size	set_BarcodeCondenser_LED, .-set_BarcodeCondenser_LED
 1317              		.section	.text.set_CondenserLED,"ax",%progbits
 1318              		.align	2
 1319              		.global	set_CondenserLED
 1320              		.thumb
 1321              		.thumb_func
 1322              		.type	set_CondenserLED, %function
 1323              	set_CondenserLED:
 1324              	.LFB81:
 793:L6470.c       ****     PWM_comare_value = ((unsigned int)USB_received[3] << 8) + USB_received[2];  //Read LED intensit
 1325              		.loc 1 793 0
 1326              		.cfi_startproc
 1327              		@ args = 0, pretend = 0, frame = 0
 1328              		@ frame_needed = 0, uses_anonymous_args = 0
 1329 0000 10B5     		push	{r4, lr}
 1330              		.cfi_def_cfa_offset 8
 1331              		.cfi_offset 4, -8
 1332              		.cfi_offset 14, -4
 794:L6470.c       ****     PWM_CondenserLED_WriteCompare((PWM_comare_value*0.6)/10);    //Writing LED value in to PWM maxi
 1333              		.loc 1 794 0
 1334 0002 154B     		ldr	r3, .L105+8
 1335 0004 D878     		ldrb	r0, [r3, #3]	@ zero_extendqisi2
 1336 0006 9B78     		ldrb	r3, [r3, #2]	@ zero_extendqisi2
 1337 0008 03EB0020 		add	r0, r3, r0, lsl #8
 1338 000c 134C     		ldr	r4, .L105+12
 1339 000e E062     		str	r0, [r4, #44]
 795:L6470.c       ****     Write_Debug_UART_Char(" LED Value Recived--->");
 1340              		.loc 1 795 0
 1341 0010 FFF7FEFF 		bl	__aeabi_i2d
 1342              	.LVL87:
 1343 0014 0EA3     		adr	r3, .L105
 1344 0016 D3E90023 		ldrd	r2, [r3]
 1345 001a FFF7FEFF 		bl	__aeabi_dmul
 1346              	.LVL88:
 1347 001e 0022     		movs	r2, #0
 1348 0020 0F4B     		ldr	r3, .L105+16
 1349 0022 FFF7FEFF 		bl	__aeabi_ddiv
 1350              	.LVL89:
 1351 0026 FFF7FEFF 		bl	__aeabi_d2uiz
 1352              	.LVL90:
 1353 002a 80B2     		uxth	r0, r0
 1354 002c FFF7FEFF 		bl	PWM_CondenserLED_WriteCompare
 1355              	.LVL91:
 796:L6470.c       ****     Write_Debug_UART_Int(PWM_comare_value);
 1356              		.loc 1 796 0
 1357 0030 0C48     		ldr	r0, .L105+20
 1358 0032 FFF7FEFF 		bl	Write_Debug_UART_Char
 1359              	.LVL92:
 797:L6470.c       ****     Write_Debug_UART_Char("\r\n");
 1360              		.loc 1 797 0
 1361 0036 E06A     		ldr	r0, [r4, #44]
 1362 0038 FFF7FEFF 		bl	Write_Debug_UART_Int
 1363              	.LVL93:
 798:L6470.c       ****     Write_Debug_UART_Char("Set LED Command Executed  \r\n");
 1364              		.loc 1 798 0
 1365 003c 0A48     		ldr	r0, .L105+24
 1366 003e FFF7FEFF 		bl	Write_Debug_UART_Char
ARM GAS  C:\Users\Revanth\AppData\Local\Temp\ccSEzD1d.s 			page 52


 1367              	.LVL94:
 799:L6470.c       ****     return 0;
 1368              		.loc 1 799 0
 1369 0042 0A48     		ldr	r0, .L105+28
 1370 0044 FFF7FEFF 		bl	Write_Debug_UART_Char
 1371              	.LVL95:
 801:L6470.c       **** 
 1372              		.loc 1 801 0
 1373 0048 0020     		movs	r0, #0
 1374 004a 10BD     		pop	{r4, pc}
 1375              	.L106:
 1376 004c AFF30080 		.align	3
 1377              	.L105:
 1378 0050 33333333 		.word	858993459
 1379 0054 3333E33F 		.word	1071854387
 1380 0058 00000000 		.word	USB_received
 1381 005c 00000000 		.word	.LANCHOR0
 1382 0060 00002440 		.word	1076101120
 1383 0064 E4000000 		.word	.LC10
 1384 0068 B8000000 		.word	.LC8
 1385 006c FC000000 		.word	.LC11
 1386              		.cfi_endproc
 1387              	.LFE81:
 1388              		.size	set_CondenserLED, .-set_CondenserLED
 1389              		.section	.text.UART_print_all_values,"ax",%progbits
 1390              		.align	2
 1391              		.global	UART_print_all_values
 1392              		.thumb
 1393              		.thumb_func
 1394              		.type	UART_print_all_values, %function
 1395              	UART_print_all_values:
 1396              	.LFB99:
1334:L6470.c       **** void UART_print_all_values()
1335:L6470.c       **** {
 1397              		.loc 1 1335 0
 1398              		.cfi_startproc
 1399              		@ args = 0, pretend = 0, frame = 0
 1400              		@ frame_needed = 0, uses_anonymous_args = 0
 1401 0000 08B5     		push	{r3, lr}
 1402              		.cfi_def_cfa_offset 8
 1403              		.cfi_offset 3, -8
 1404              		.cfi_offset 14, -4
1336:L6470.c       ****     Write_Debug_UART_Char("\r\n");
 1405              		.loc 1 1336 0
 1406 0002 0548     		ldr	r0, .L109
 1407 0004 FFF7FEFF 		bl	Write_Debug_UART_Char
 1408              	.LVL96:
1337:L6470.c       ****     Write_Debug_UART_Char("--------------------------------------------------");
 1409              		.loc 1 1337 0
 1410 0008 0448     		ldr	r0, .L109+4
 1411 000a FFF7FEFF 		bl	Write_Debug_UART_Char
 1412              	.LVL97:
1338:L6470.c       ****     Write_Debug_UART_Char("\n");
 1413              		.loc 1 1338 0
 1414 000e 0448     		ldr	r0, .L109+8
 1415 0010 FFF7FEFF 		bl	Write_Debug_UART_Char
 1416              	.LVL98:
ARM GAS  C:\Users\Revanth\AppData\Local\Temp\ccSEzD1d.s 			page 53


 1417 0014 08BD     		pop	{r3, pc}
 1418              	.L110:
 1419 0016 00BF     		.align	2
 1420              	.L109:
 1421 0018 B8000000 		.word	.LC8
 1422 001c 1C010000 		.word	.LC12
 1423 0020 50010000 		.word	.LC13
 1424              		.cfi_endproc
 1425              	.LFE99:
 1426              		.size	UART_print_all_values, .-UART_print_all_values
 1427              		.section	.text.if_all_homing_done,"ax",%progbits
 1428              		.align	2
 1429              		.global	if_all_homing_done
 1430              		.thumb
 1431              		.thumb_func
 1432              		.type	if_all_homing_done, %function
 1433              	if_all_homing_done:
 1434              	.LFB78:
 734:L6470.c       ****     if((HomeY_done == false)&&(errorY == 0))
 1435              		.loc 1 734 0
 1436              		.cfi_startproc
 1437              		@ args = 0, pretend = 0, frame = 0
 1438              		@ frame_needed = 0, uses_anonymous_args = 0
 1439 0000 10B5     		push	{r4, lr}
 1440              		.cfi_def_cfa_offset 8
 1441              		.cfi_offset 4, -8
 1442              		.cfi_offset 14, -4
 735:L6470.c       ****     {
 1443              		.loc 1 735 0
 1444 0002 184B     		ldr	r3, .L117
 1445 0004 1C7F     		ldrb	r4, [r3, #28]	@ zero_extendqisi2
 1446 0006 5CB9     		cbnz	r4, .L112
 735:L6470.c       ****     {
 1447              		.loc 1 735 0 is_stmt 0 discriminator 1
 1448 0008 174B     		ldr	r3, .L117+4
 1449 000a 1B6B     		ldr	r3, [r3, #48]
 1450 000c 43B9     		cbnz	r3, .L112
 737:L6470.c       ****         Write_Debug_UART_Char("Y_Homing_Not_Done_Yet***********[x12]  \r\n");
 1451              		.loc 1 737 0 is_stmt 1
 1452 000e 0C22     		movs	r2, #12
 1453 0010 154B     		ldr	r3, .L117+4
 1454 0012 5A63     		str	r2, [r3, #52]
 738:L6470.c       ****         UART_print_all_values();
 1455              		.loc 1 738 0
 1456 0014 1548     		ldr	r0, .L117+8
 1457 0016 FFF7FEFF 		bl	Write_Debug_UART_Char
 1458              	.LVL99:
 739:L6470.c       ****         return false;
 1459              		.loc 1 739 0
 1460 001a FFF7FEFF 		bl	UART_print_all_values
 1461              	.LVL100:
 740:L6470.c       ****     }
 1462              		.loc 1 740 0
 1463 001e 1EE0     		b	.L113
 1464              	.L112:
 742:L6470.c       ****     {
 1465              		.loc 1 742 0
ARM GAS  C:\Users\Revanth\AppData\Local\Temp\ccSEzD1d.s 			page 54


 1466 0020 104B     		ldr	r3, .L117
 1467 0022 5C7F     		ldrb	r4, [r3, #29]	@ zero_extendqisi2
 1468 0024 5CB9     		cbnz	r4, .L114
 742:L6470.c       ****     {
 1469              		.loc 1 742 0 is_stmt 0 discriminator 1
 1470 0026 104B     		ldr	r3, .L117+4
 1471 0028 9B6B     		ldr	r3, [r3, #56]
 1472 002a 43B9     		cbnz	r3, .L114
 744:L6470.c       ****         Write_Debug_UART_Char("X_Homing_Not_Done_Yet***********  \r\n");
 1473              		.loc 1 744 0 is_stmt 1
 1474 002c 0622     		movs	r2, #6
 1475 002e 0E4B     		ldr	r3, .L117+4
 1476 0030 5A63     		str	r2, [r3, #52]
 745:L6470.c       ****         UART_print_all_values();
 1477              		.loc 1 745 0
 1478 0032 0F48     		ldr	r0, .L117+12
 1479 0034 FFF7FEFF 		bl	Write_Debug_UART_Char
 1480              	.LVL101:
 746:L6470.c       ****         return false;
 1481              		.loc 1 746 0
 1482 0038 FFF7FEFF 		bl	UART_print_all_values
 1483              	.LVL102:
 747:L6470.c       ****     }
 1484              		.loc 1 747 0
 1485 003c 0FE0     		b	.L113
 1486              	.L114:
 749:L6470.c       ****     {
 1487              		.loc 1 749 0
 1488 003e 094B     		ldr	r3, .L117
 1489 0040 9C7F     		ldrb	r4, [r3, #30]	@ zero_extendqisi2
 1490 0042 64B9     		cbnz	r4, .L113
 749:L6470.c       ****     {
 1491              		.loc 1 749 0 is_stmt 0 discriminator 1
 1492 0044 084B     		ldr	r3, .L117+4
 1493 0046 DB6B     		ldr	r3, [r3, #60]
 1494 0048 43B9     		cbnz	r3, .L115
 751:L6470.c       ****         Write_Debug_UART_Char("Z_Homing_Not_Done_Yet***********  \r\n");
 1495              		.loc 1 751 0 is_stmt 1
 1496 004a 1222     		movs	r2, #18
 1497 004c 064B     		ldr	r3, .L117+4
 1498 004e 5A63     		str	r2, [r3, #52]
 752:L6470.c       ****         UART_print_all_values();
 1499              		.loc 1 752 0
 1500 0050 0848     		ldr	r0, .L117+16
 1501 0052 FFF7FEFF 		bl	Write_Debug_UART_Char
 1502              	.LVL103:
 753:L6470.c       ****         return false;
 1503              		.loc 1 753 0
 1504 0056 FFF7FEFF 		bl	UART_print_all_values
 1505              	.LVL104:
 754:L6470.c       ****     } 
 1506              		.loc 1 754 0
 1507 005a 00E0     		b	.L113
 1508              	.L115:
 758:L6470.c       ****     }
 1509              		.loc 1 758 0
 1510 005c 0124     		movs	r4, #1
ARM GAS  C:\Users\Revanth\AppData\Local\Temp\ccSEzD1d.s 			page 55


 1511              	.L113:
 760:L6470.c       **** 
 1512              		.loc 1 760 0
 1513 005e 2046     		mov	r0, r4
 1514 0060 10BD     		pop	{r4, pc}
 1515              	.L118:
 1516 0062 00BF     		.align	2
 1517              	.L117:
 1518 0064 00000000 		.word	.LANCHOR1
 1519 0068 00000000 		.word	.LANCHOR0
 1520 006c 54010000 		.word	.LC14
 1521 0070 80010000 		.word	.LC15
 1522 0074 A8010000 		.word	.LC16
 1523              		.cfi_endproc
 1524              	.LFE78:
 1525              		.size	if_all_homing_done, .-if_all_homing_done
 1526              		.section	.text.Is_USB_Unpluged,"ax",%progbits
 1527              		.align	2
 1528              		.global	Is_USB_Unpluged
 1529              		.thumb
 1530              		.thumb_func
 1531              		.type	Is_USB_Unpluged, %function
 1532              	Is_USB_Unpluged:
 1533              	.LFB94:
1278:L6470.c       ****    static bool dont_Execute_1st_Time=false;
 1534              		.loc 1 1278 0
 1535              		.cfi_startproc
 1536              		@ args = 0, pretend = 0, frame = 0
 1537              		@ frame_needed = 0, uses_anonymous_args = 0
 1538 0000 08B5     		push	{r3, lr}
 1539              		.cfi_def_cfa_offset 8
 1540              		.cfi_offset 3, -8
 1541              		.cfi_offset 14, -4
1280:L6470.c       ****    {
 1542              		.loc 1 1280 0
 1543 0002 FFF7FEFF 		bl	USB_IsConfigurationChanged
 1544              	.LVL105:
 1545 0006 A0B1     		cbz	r0, .L119
1282:L6470.c       ****        if(USB_GetConfiguration() != 0)
 1546              		.loc 1 1282 0
 1547 0008 FFF7FEFF 		bl	Beep_Twice
 1548              	.LVL106:
1283:L6470.c       ****        {
 1549              		.loc 1 1283 0
 1550 000c FFF7FEFF 		bl	USB_GetConfiguration
 1551              	.LVL107:
 1552 0010 78B1     		cbz	r0, .L119
1285:L6470.c       ****             {
 1553              		.loc 1 1285 0
 1554 0012 084B     		ldr	r3, .L123
 1555 0014 93F84030 		ldrb	r3, [r3, #64]	@ zero_extendqisi2
 1556 0018 3BB1     		cbz	r3, .L121
1287:L6470.c       ****                 UART_print_all_values();
 1557              		.loc 1 1287 0
 1558 001a 0748     		ldr	r0, .L123+4
 1559 001c FFF7FEFF 		bl	Write_Debug_UART_Char
 1560              	.LVL108:
ARM GAS  C:\Users\Revanth\AppData\Local\Temp\ccSEzD1d.s 			page 56


1288:L6470.c       ****                 CyDelay(1);
 1561              		.loc 1 1288 0
 1562 0020 FFF7FEFF 		bl	UART_print_all_values
 1563              	.LVL109:
1289:L6470.c       ****                 //CySoftwareReset();
 1564              		.loc 1 1289 0
 1565 0024 0120     		movs	r0, #1
 1566 0026 FFF7FEFF 		bl	CyDelay
 1567              	.LVL110:
 1568              	.L121:
1292:L6470.c       ****        }
 1569              		.loc 1 1292 0
 1570 002a 0122     		movs	r2, #1
 1571 002c 014B     		ldr	r3, .L123
 1572 002e 83F84020 		strb	r2, [r3, #64]
 1573              	.L119:
 1574 0032 08BD     		pop	{r3, pc}
 1575              	.L124:
 1576              		.align	2
 1577              	.L123:
 1578 0034 00000000 		.word	.LANCHOR0
 1579 0038 D0010000 		.word	.LC17
 1580              		.cfi_endproc
 1581              	.LFE94:
 1582              		.size	Is_USB_Unpluged, .-Is_USB_Unpluged
 1583              		.section	.text.Data_To_Transfer,"ax",%progbits
 1584              		.align	2
 1585              		.global	Data_To_Transfer
 1586              		.thumb
 1587              		.thumb_func
 1588              		.type	Data_To_Transfer, %function
 1589              	Data_To_Transfer:
 1590              	.LFB100:
1339:L6470.c       **** 
1340:L6470.c       **** }
1341:L6470.c       **** //USB Functions Stop-------------------------------------------------------
1342:L6470.c       **** 
1343:L6470.c       **** 
1344:L6470.c       **** //L6470 Motor Driver Functions Stop-------------------------------------------------------
1345:L6470.c       **** 
1346:L6470.c       **** 
1347:L6470.c       **** uint8_t Data_To_Transfer(uint8_t data)
1348:L6470.c       **** {   
 1591              		.loc 1 1348 0
 1592              		.cfi_startproc
 1593              		@ args = 0, pretend = 0, frame = 0
 1594              		@ frame_needed = 0, uses_anonymous_args = 0
 1595              	.LVL111:
 1596 0000 08B5     		push	{r3, lr}
 1597              		.cfi_def_cfa_offset 8
 1598              		.cfi_offset 3, -8
 1599              		.cfi_offset 14, -4
1349:L6470.c       ****     SPIM_WriteTxData(data);
 1600              		.loc 1 1349 0
 1601 0002 FFF7FEFF 		bl	SPIM_WriteTxData
 1602              	.LVL112:
1350:L6470.c       ****     CyDelayUs(10);
ARM GAS  C:\Users\Revanth\AppData\Local\Temp\ccSEzD1d.s 			page 57


 1603              		.loc 1 1350 0
 1604 0006 0A20     		movs	r0, #10
 1605 0008 FFF7FEFF 		bl	CyDelayUs
 1606              	.LVL113:
1351:L6470.c       ****     return 1;
1352:L6470.c       **** }
 1607              		.loc 1 1352 0
 1608 000c 0120     		movs	r0, #1
 1609 000e 08BD     		pop	{r3, pc}
 1610              		.cfi_endproc
 1611              	.LFE100:
 1612              		.size	Data_To_Transfer, .-Data_To_Transfer
 1613              		.section	.text.SPI_MOTOR_CHIP_SELECT,"ax",%progbits
 1614              		.align	2
 1615              		.global	SPI_MOTOR_CHIP_SELECT
 1616              		.thumb
 1617              		.thumb_func
 1618              		.type	SPI_MOTOR_CHIP_SELECT, %function
 1619              	SPI_MOTOR_CHIP_SELECT:
 1620              	.LFB101:
1353:L6470.c       **** 
1354:L6470.c       **** 
1355:L6470.c       **** 
1356:L6470.c       **** /* --------------------------------------------------------------------------------------------
1357:L6470.c       **** Function Name        : SPI_MOTOR_CHIP_SELECT
1358:L6470.c       **** 
1359:L6470.c       **** Prerequist Knowledge : SPI Communication Protocol, SCI Chip Select Pin, GPIO, SWITCH Statement
1360:L6470.c       **** 
1361:L6470.c       **** Function Description : This Function is used to assert or de-assert the chipselect pin of
1362:L6470.c       ****                        selected driver IC.
1363:L6470.c       **** 
1364:L6470.c       **** Return Type & Data   : Void
1365:L6470.c       **** 
1366:L6470.c       **** Numnber of Arguments : 2
1367:L6470.c       **** 
1368:L6470.c       **** -----Argument 1-----
1369:L6470.c       **** Name                 : Motor
1370:L6470.c       **** Tupe                 : uint8_t
1371:L6470.c       **** Description          : This Argument Represents the driver channel
1372:L6470.c       **** Condition            : This Value must range from 0x00 to 0x04 since there are only 5 channels
1373:L6470.c       ****                        available in AS76 System Configuration
1374:L6470.c       **** --------------------
1375:L6470.c       **** 
1376:L6470.c       **** -----Argument 2-----
1377:L6470.c       **** Name                 : Value
1378:L6470.c       **** Tupe                 : uint8_t
1379:L6470.c       **** Description          : This Argument Represents the GPIO Level
1380:L6470.c       **** Condition            : This Value must either 0x00 or 0xFF (Low/High)
1381:L6470.c       **** --------------------
1382:L6470.c       **** 
1383:L6470.c       **** ---------------------------------------------------------------------------------------------*/
1384:L6470.c       **** 
1385:L6470.c       **** void SPI_MOTOR_CHIP_SELECT (uint8_t Motor, uint8_t Value)
1386:L6470.c       **** {
 1621              		.loc 1 1386 0
 1622              		.cfi_startproc
 1623              		@ args = 0, pretend = 0, frame = 0
ARM GAS  C:\Users\Revanth\AppData\Local\Temp\ccSEzD1d.s 			page 58


 1624              		@ frame_needed = 0, uses_anonymous_args = 0
 1625              	.LVL114:
 1626 0000 10B5     		push	{r4, lr}
 1627              		.cfi_def_cfa_offset 8
 1628              		.cfi_offset 4, -8
 1629              		.cfi_offset 14, -4
1387:L6470.c       ****     
1388:L6470.c       **** if ((Value == 0x00) || (Value == 0xFF))  // Condition to check for valid GPIO Value
 1630              		.loc 1 1388 0
 1631 0002 4B1E     		subs	r3, r1, #1
 1632 0004 DBB2     		uxtb	r3, r3
 1633 0006 FD2B     		cmp	r3, #253
 1634 0008 3DD9     		bls	.L128
 1635 000a 0C46     		mov	r4, r1
1389:L6470.c       **** {
1390:L6470.c       ****  switch (Motor) // Condition to select correct motor driver channel
 1636              		.loc 1 1390 0
 1637 000c 0428     		cmp	r0, #4
 1638 000e 36D8     		bhi	.L129
 1639 0010 DFE800F0 		tbb	[pc, r0]
 1640              	.L131:
 1641 0014 03       		.byte	(.L130-.L131)/2
 1642 0015 0D       		.byte	(.L132-.L131)/2
 1643 0016 17       		.byte	(.L133-.L131)/2
 1644 0017 21       		.byte	(.L134-.L131)/2
 1645 0018 2B       		.byte	(.L135-.L131)/2
 1646 0019 00       		.p2align 1
 1647              	.L130:
1391:L6470.c       ****     {
1392:L6470.c       ****     case 0x00:
1393:L6470.c       ****         {
1394:L6470.c       ****           CyDelayUs(10);
 1648              		.loc 1 1394 0
 1649 001a 0A20     		movs	r0, #10
 1650              	.LVL115:
 1651 001c FFF7FEFF 		bl	CyDelayUs
 1652              	.LVL116:
1395:L6470.c       ****           Pin_CSMotorX_Write(Value);
 1653              		.loc 1 1395 0
 1654 0020 2046     		mov	r0, r4
 1655 0022 FFF7FEFF 		bl	Pin_CSMotorX_Write
 1656              	.LVL117:
1396:L6470.c       ****           CyDelayUs(10);
 1657              		.loc 1 1396 0
 1658 0026 0A20     		movs	r0, #10
 1659 0028 FFF7FEFF 		bl	CyDelayUs
 1660              	.LVL118:
1397:L6470.c       ****          // Write_Debug_UART_Char("Motor Channel 1 asserted/de-asserted for SPI Read/Write  \r\n");
1398:L6470.c       ****           break;
 1661              		.loc 1 1398 0
 1662 002c 10BD     		pop	{r4, pc}
 1663              	.LVL119:
 1664              	.L132:
1399:L6470.c       ****         }
1400:L6470.c       ****     case 0x01:
1401:L6470.c       ****         {
1402:L6470.c       ****           CyDelayUs(10);
ARM GAS  C:\Users\Revanth\AppData\Local\Temp\ccSEzD1d.s 			page 59


 1665              		.loc 1 1402 0
 1666 002e 0A20     		movs	r0, #10
 1667              	.LVL120:
 1668 0030 FFF7FEFF 		bl	CyDelayUs
 1669              	.LVL121:
1403:L6470.c       ****           Pin_CSMotorY_Write(Value);
 1670              		.loc 1 1403 0
 1671 0034 2046     		mov	r0, r4
 1672 0036 FFF7FEFF 		bl	Pin_CSMotorY_Write
 1673              	.LVL122:
1404:L6470.c       ****           CyDelayUs(10);
 1674              		.loc 1 1404 0
 1675 003a 0A20     		movs	r0, #10
 1676 003c FFF7FEFF 		bl	CyDelayUs
 1677              	.LVL123:
1405:L6470.c       ****          // Write_Debug_UART_Char("Motor Channel 2 asserted/de-asserted for SPI Read/Write  \r\n");
1406:L6470.c       ****           break;
 1678              		.loc 1 1406 0
 1679 0040 10BD     		pop	{r4, pc}
 1680              	.LVL124:
 1681              	.L133:
1407:L6470.c       ****         }
1408:L6470.c       ****         case 0x02:
1409:L6470.c       ****         {
1410:L6470.c       ****           CyDelayUs(10);
 1682              		.loc 1 1410 0
 1683 0042 0A20     		movs	r0, #10
 1684              	.LVL125:
 1685 0044 FFF7FEFF 		bl	CyDelayUs
 1686              	.LVL126:
1411:L6470.c       ****           Pin_CSMotorZ_Write(Value);
 1687              		.loc 1 1411 0
 1688 0048 2046     		mov	r0, r4
 1689 004a FFF7FEFF 		bl	Pin_CSMotorZ_Write
 1690              	.LVL127:
1412:L6470.c       ****          // Write_Debug_UART_Char("Motor Channel 3 asserted/de-asserted for SPI Read/Write  \r\n");
1413:L6470.c       ****           CyDelayUs(10);
 1691              		.loc 1 1413 0
 1692 004e 0A20     		movs	r0, #10
 1693 0050 FFF7FEFF 		bl	CyDelayUs
 1694              	.LVL128:
1414:L6470.c       ****           break;
 1695              		.loc 1 1414 0
 1696 0054 10BD     		pop	{r4, pc}
 1697              	.LVL129:
 1698              	.L134:
1415:L6470.c       ****         }
1416:L6470.c       ****         case 0x03:
1417:L6470.c       ****         {
1418:L6470.c       ****           CyDelayUs(10);
 1699              		.loc 1 1418 0
 1700 0056 0A20     		movs	r0, #10
 1701              	.LVL130:
 1702 0058 FFF7FEFF 		bl	CyDelayUs
 1703              	.LVL131:
1419:L6470.c       ****           Pin_CSMotorT_Write(Value);
 1704              		.loc 1 1419 0
ARM GAS  C:\Users\Revanth\AppData\Local\Temp\ccSEzD1d.s 			page 60


 1705 005c 2046     		mov	r0, r4
 1706 005e FFF7FEFF 		bl	Pin_CSMotorT_Write
 1707              	.LVL132:
1420:L6470.c       ****         //  Write_Debug_UART_Char("Motor Channel 4 asserted/de-asserted for SPI Read/Write  \r\n");
1421:L6470.c       ****           CyDelayUs(10);
 1708              		.loc 1 1421 0
 1709 0062 0A20     		movs	r0, #10
 1710 0064 FFF7FEFF 		bl	CyDelayUs
 1711              	.LVL133:
1422:L6470.c       ****           break;
 1712              		.loc 1 1422 0
 1713 0068 10BD     		pop	{r4, pc}
 1714              	.LVL134:
 1715              	.L135:
1423:L6470.c       ****         }
1424:L6470.c       ****         case 0x04:
1425:L6470.c       ****         {
1426:L6470.c       ****           CyDelayUs(10);
 1716              		.loc 1 1426 0
 1717 006a 0A20     		movs	r0, #10
 1718              	.LVL135:
 1719 006c FFF7FEFF 		bl	CyDelayUs
 1720              	.LVL136:
1427:L6470.c       ****           Pin_CSMotorO_Write(Value);
 1721              		.loc 1 1427 0
 1722 0070 2046     		mov	r0, r4
 1723 0072 FFF7FEFF 		bl	Pin_CSMotorO_Write
 1724              	.LVL137:
1428:L6470.c       ****         //  Write_Debug_UART_Char("Motor Channel 5 asserted/de-asserted for SPI Read/Write  \r\n");
1429:L6470.c       ****           CyDelayUs(10);
 1725              		.loc 1 1429 0
 1726 0076 0A20     		movs	r0, #10
 1727 0078 FFF7FEFF 		bl	CyDelayUs
 1728              	.LVL138:
1430:L6470.c       ****           break;
 1729              		.loc 1 1430 0
 1730 007c 10BD     		pop	{r4, pc}
 1731              	.LVL139:
 1732              	.L129:
1431:L6470.c       ****         }
1432:L6470.c       ****         
1433:L6470.c       ****         default : // If Invalid motor channel selected print error message
1434:L6470.c       ****         {
1435:L6470.c       ****             Write_Debug_UART_Char("No Valid Driver nCS asserted/de-asserted for SPI Read/Write  \r\
 1733              		.loc 1 1435 0
 1734 007e 0448     		ldr	r0, .L138
 1735              	.LVL140:
 1736 0080 FFF7FEFF 		bl	Write_Debug_UART_Char
 1737              	.LVL141:
 1738 0084 10BD     		pop	{r4, pc}
 1739              	.LVL142:
 1740              	.L128:
1436:L6470.c       ****         }
1437:L6470.c       ****     } 
1438:L6470.c       **** }
1439:L6470.c       **** else // If Invalid GPIO Value given, print error message
1440:L6470.c       **** {
ARM GAS  C:\Users\Revanth\AppData\Local\Temp\ccSEzD1d.s 			page 61


1441:L6470.c       ****    Write_Debug_UART_Char("Invalid GPIO Level Value, Unable to assert/de-assert nCSN Pin for SPI Rea
 1741              		.loc 1 1441 0
 1742 0086 0348     		ldr	r0, .L138+4
 1743              	.LVL143:
 1744 0088 FFF7FEFF 		bl	Write_Debug_UART_Char
 1745              	.LVL144:
 1746 008c 10BD     		pop	{r4, pc}
 1747              	.L139:
 1748 008e 00BF     		.align	2
 1749              	.L138:
 1750 0090 FC010000 		.word	.LC18
 1751 0094 3C020000 		.word	.LC19
 1752              		.cfi_endproc
 1753              	.LFE101:
 1754              		.size	SPI_MOTOR_CHIP_SELECT, .-SPI_MOTOR_CHIP_SELECT
 1755              		.section	.text.Read_32bitSPI_DATA,"ax",%progbits
 1756              		.align	2
 1757              		.global	Read_32bitSPI_DATA
 1758              		.thumb
 1759              		.thumb_func
 1760              		.type	Read_32bitSPI_DATA, %function
 1761              	Read_32bitSPI_DATA:
 1762              	.LFB102:
1442:L6470.c       **** }
1443:L6470.c       **** }
1444:L6470.c       **** 
1445:L6470.c       **** //-------------------------- [] END OF SPI_MOTOR_CHIP_SELECT Function ---------------------------
1446:L6470.c       **** 
1447:L6470.c       **** 
1448:L6470.c       **** /* --------------------------------------------------------------------------------------------
1449:L6470.c       **** Function Name        : Read_32bitSPI_DATA
1450:L6470.c       **** 
1451:L6470.c       **** Prerequist Knowledge : SPI Communication Protocol, TMC5160 SPI Communication Protocol
1452:L6470.c       **** 
1453:L6470.c       **** Function Description : This Function is used to read 32bit data from the driver register
1454:L6470.c       ****                        using 32bit SPI communication protocol specific to TMC5160.
1455:L6470.c       **** 
1456:L6470.c       **** Return Type & Data   :32 bit signed or unsigned integer which was fetched from the register
1457:L6470.c       **** 
1458:L6470.c       **** Numnber of Arguments : 2
1459:L6470.c       **** 
1460:L6470.c       **** -----Argument 1-----
1461:L6470.c       **** Name                 : ADDR
1462:L6470.c       **** Tupe                 : uint8_t
1463:L6470.c       **** Description          : The Address of the TMC5160 Register from which data needs to be read
1464:L6470.c       **** Condition            : Nil
1465:L6470.c       **** --------------------
1466:L6470.c       **** 
1467:L6470.c       **** -----Argument 2-----
1468:L6470.c       **** Name                 : Motor
1469:L6470.c       **** Tupe                 : uint8_t
1470:L6470.c       **** Description          : This Argument Represents the driver channel
1471:L6470.c       **** Condition            : This Value must range from 0x00 to 0x04 since there are only 5 channels
1472:L6470.c       ****                        available in AS76 System Configuration, condition to be checked in 
1473:L6470.c       ****                        SPI_MOTOR_CHIP_SELECT Function                       
1474:L6470.c       **** --------------------
1475:L6470.c       **** 
ARM GAS  C:\Users\Revanth\AppData\Local\Temp\ccSEzD1d.s 			page 62


1476:L6470.c       **** 
1477:L6470.c       **** ---------------------------------------------------------------------------------------------*/
1478:L6470.c       **** 
1479:L6470.c       **** 
1480:L6470.c       **** int Read_32bitSPI_DATA(uint8_t ADDR, uint8_t Motor, uint8_t* motor_status )
1481:L6470.c       **** {
 1763              		.loc 1 1481 0
 1764              		.cfi_startproc
 1765              		@ args = 0, pretend = 0, frame = 0
 1766              		@ frame_needed = 0, uses_anonymous_args = 0
 1767              	.LVL145:
 1768 0000 F8B5     		push	{r3, r4, r5, r6, r7, lr}
 1769              		.cfi_def_cfa_offset 24
 1770              		.cfi_offset 3, -24
 1771              		.cfi_offset 4, -20
 1772              		.cfi_offset 5, -16
 1773              		.cfi_offset 6, -12
 1774              		.cfi_offset 7, -8
 1775              		.cfi_offset 14, -4
 1776 0002 0646     		mov	r6, r0
 1777 0004 0D46     		mov	r5, r1
 1778 0006 1746     		mov	r7, r2
 1779              	.LVL146:
1482:L6470.c       ****                 uint32_t SPI_DATA_VALUE = 0;
1483:L6470.c       ****                
1484:L6470.c       ****                
1485:L6470.c       ****                 SPI_MOTOR_CHIP_SELECT (Motor, 0x00);  
 1780              		.loc 1 1485 0
 1781 0008 0021     		movs	r1, #0
 1782              	.LVL147:
 1783 000a 2846     		mov	r0, r5
 1784              	.LVL148:
 1785 000c FFF7FEFF 		bl	SPI_MOTOR_CHIP_SELECT
 1786              	.LVL149:
1486:L6470.c       ****                 
1487:L6470.c       ****                 Data_To_Transfer(ADDR & 0x7F);                
 1787              		.loc 1 1487 0
 1788 0010 06F07F06 		and	r6, r6, #127
 1789 0014 3046     		mov	r0, r6
 1790 0016 FFF7FEFF 		bl	Data_To_Transfer
 1791              	.LVL150:
1488:L6470.c       ****                 Data_To_Transfer(0x00);                
 1792              		.loc 1 1488 0
 1793 001a 0020     		movs	r0, #0
 1794 001c FFF7FEFF 		bl	Data_To_Transfer
 1795              	.LVL151:
1489:L6470.c       ****                 Data_To_Transfer(0x00);                
 1796              		.loc 1 1489 0
 1797 0020 0020     		movs	r0, #0
 1798 0022 FFF7FEFF 		bl	Data_To_Transfer
 1799              	.LVL152:
1490:L6470.c       ****                 Data_To_Transfer(0x00);                
 1800              		.loc 1 1490 0
 1801 0026 0020     		movs	r0, #0
 1802 0028 FFF7FEFF 		bl	Data_To_Transfer
 1803              	.LVL153:
1491:L6470.c       ****                 Data_To_Transfer(0x00); 
ARM GAS  C:\Users\Revanth\AppData\Local\Temp\ccSEzD1d.s 			page 63


 1804              		.loc 1 1491 0
 1805 002c 0020     		movs	r0, #0
 1806 002e FFF7FEFF 		bl	Data_To_Transfer
 1807              	.LVL154:
1492:L6470.c       ****                 
1493:L6470.c       ****                 SPI_MOTOR_CHIP_SELECT (Motor, 0xFF); 
 1808              		.loc 1 1493 0
 1809 0032 FF21     		movs	r1, #255
 1810 0034 2846     		mov	r0, r5
 1811 0036 FFF7FEFF 		bl	SPI_MOTOR_CHIP_SELECT
 1812              	.LVL155:
1494:L6470.c       ****                 
1495:L6470.c       ****                 CyDelay(1);
 1813              		.loc 1 1495 0
 1814 003a 0120     		movs	r0, #1
 1815 003c FFF7FEFF 		bl	CyDelay
 1816              	.LVL156:
1496:L6470.c       ****                 
1497:L6470.c       ****                 SPI_MOTOR_CHIP_SELECT (Motor, 0x00);
 1817              		.loc 1 1497 0
 1818 0040 0021     		movs	r1, #0
 1819 0042 2846     		mov	r0, r5
 1820 0044 FFF7FEFF 		bl	SPI_MOTOR_CHIP_SELECT
 1821              	.LVL157:
1498:L6470.c       ****                 
1499:L6470.c       ****                 Data_To_Transfer(ADDR & 0x7F);
 1822              		.loc 1 1499 0
 1823 0048 3046     		mov	r0, r6
 1824 004a FFF7FEFF 		bl	Data_To_Transfer
 1825              	.LVL158:
1500:L6470.c       ****                 *motor_status = SPIM_ReadRxData();
 1826              		.loc 1 1500 0
 1827 004e FFF7FEFF 		bl	SPIM_ReadRxData
 1828              	.LVL159:
 1829 0052 3870     		strb	r0, [r7]
1501:L6470.c       ****                 Data_To_Transfer(0x00);
 1830              		.loc 1 1501 0
 1831 0054 0020     		movs	r0, #0
 1832 0056 FFF7FEFF 		bl	Data_To_Transfer
 1833              	.LVL160:
1502:L6470.c       ****                 SPI_DATA_VALUE |= (uint32_t) SPIM_ReadRxData() << 24;
 1834              		.loc 1 1502 0
 1835 005a FFF7FEFF 		bl	SPIM_ReadRxData
 1836              	.LVL161:
 1837 005e 0406     		lsls	r4, r0, #24
 1838              	.LVL162:
1503:L6470.c       ****                 Data_To_Transfer(0x00);
 1839              		.loc 1 1503 0
 1840 0060 0020     		movs	r0, #0
 1841 0062 FFF7FEFF 		bl	Data_To_Transfer
 1842              	.LVL163:
1504:L6470.c       ****                 SPI_DATA_VALUE |= (uint32_t) SPIM_ReadRxData() << 16;
 1843              		.loc 1 1504 0
 1844 0066 FFF7FEFF 		bl	SPIM_ReadRxData
 1845              	.LVL164:
 1846 006a 44EA0044 		orr	r4, r4, r0, lsl #16
 1847              	.LVL165:
ARM GAS  C:\Users\Revanth\AppData\Local\Temp\ccSEzD1d.s 			page 64


1505:L6470.c       ****                 Data_To_Transfer(0x00);
 1848              		.loc 1 1505 0
 1849 006e 0020     		movs	r0, #0
 1850 0070 FFF7FEFF 		bl	Data_To_Transfer
 1851              	.LVL166:
1506:L6470.c       ****                 SPI_DATA_VALUE |= (uint32_t) SPIM_ReadRxData() << 8; 
 1852              		.loc 1 1506 0
 1853 0074 FFF7FEFF 		bl	SPIM_ReadRxData
 1854              	.LVL167:
 1855 0078 44EA0024 		orr	r4, r4, r0, lsl #8
 1856              	.LVL168:
1507:L6470.c       ****                 Data_To_Transfer(0x00); 
 1857              		.loc 1 1507 0
 1858 007c 0020     		movs	r0, #0
 1859 007e FFF7FEFF 		bl	Data_To_Transfer
 1860              	.LVL169:
1508:L6470.c       ****                 SPI_DATA_VALUE |= (uint32_t) SPIM_ReadRxData();
 1861              		.loc 1 1508 0
 1862 0082 FFF7FEFF 		bl	SPIM_ReadRxData
 1863              	.LVL170:
 1864 0086 0443     		orrs	r4, r4, r0
 1865              	.LVL171:
1509:L6470.c       ****                 
1510:L6470.c       ****                 SPI_MOTOR_CHIP_SELECT (Motor, 0xFF);
 1866              		.loc 1 1510 0
 1867 0088 FF21     		movs	r1, #255
 1868 008a 2846     		mov	r0, r5
 1869 008c FFF7FEFF 		bl	SPI_MOTOR_CHIP_SELECT
 1870              	.LVL172:
1511:L6470.c       **** 
1512:L6470.c       ****                 CyDelay(1);
 1871              		.loc 1 1512 0
 1872 0090 0120     		movs	r0, #1
 1873 0092 FFF7FEFF 		bl	CyDelay
 1874              	.LVL173:
1513:L6470.c       ****                 
1514:L6470.c       ****                 SPI_MOTOR_CHIP_SELECT (Motor, 0x00);
 1875              		.loc 1 1514 0
 1876 0096 0021     		movs	r1, #0
 1877 0098 2846     		mov	r0, r5
 1878 009a FFF7FEFF 		bl	SPI_MOTOR_CHIP_SELECT
 1879              	.LVL174:
1515:L6470.c       ****                 
1516:L6470.c       ****                 Data_To_Transfer(ADDR & 0x7F);
 1880              		.loc 1 1516 0
 1881 009e 3046     		mov	r0, r6
 1882 00a0 FFF7FEFF 		bl	Data_To_Transfer
 1883              	.LVL175:
1517:L6470.c       ****                 *motor_status = SPIM_ReadRxData();
 1884              		.loc 1 1517 0
 1885 00a4 FFF7FEFF 		bl	SPIM_ReadRxData
 1886              	.LVL176:
 1887 00a8 3870     		strb	r0, [r7]
1518:L6470.c       ****                 Data_To_Transfer(0x00);
 1888              		.loc 1 1518 0
 1889 00aa 0020     		movs	r0, #0
 1890 00ac FFF7FEFF 		bl	Data_To_Transfer
ARM GAS  C:\Users\Revanth\AppData\Local\Temp\ccSEzD1d.s 			page 65


 1891              	.LVL177:
1519:L6470.c       ****                 SPI_DATA_VALUE |= (uint32_t) SPIM_ReadRxData() << 24;
 1892              		.loc 1 1519 0
 1893 00b0 FFF7FEFF 		bl	SPIM_ReadRxData
 1894              	.LVL178:
 1895 00b4 44EA0064 		orr	r4, r4, r0, lsl #24
 1896              	.LVL179:
1520:L6470.c       ****                 Data_To_Transfer(0x00);
 1897              		.loc 1 1520 0
 1898 00b8 0020     		movs	r0, #0
 1899 00ba FFF7FEFF 		bl	Data_To_Transfer
 1900              	.LVL180:
1521:L6470.c       ****                 SPI_DATA_VALUE |= (uint32_t) SPIM_ReadRxData() << 16;
 1901              		.loc 1 1521 0
 1902 00be FFF7FEFF 		bl	SPIM_ReadRxData
 1903              	.LVL181:
 1904 00c2 44EA0044 		orr	r4, r4, r0, lsl #16
 1905              	.LVL182:
1522:L6470.c       ****                 Data_To_Transfer(0x00);
 1906              		.loc 1 1522 0
 1907 00c6 0020     		movs	r0, #0
 1908 00c8 FFF7FEFF 		bl	Data_To_Transfer
 1909              	.LVL183:
1523:L6470.c       ****                 SPI_DATA_VALUE |= (uint32_t) SPIM_ReadRxData() << 8; 
 1910              		.loc 1 1523 0
 1911 00cc FFF7FEFF 		bl	SPIM_ReadRxData
 1912              	.LVL184:
 1913 00d0 44EA0024 		orr	r4, r4, r0, lsl #8
 1914              	.LVL185:
1524:L6470.c       ****                 Data_To_Transfer(0x00); 
 1915              		.loc 1 1524 0
 1916 00d4 0020     		movs	r0, #0
 1917 00d6 FFF7FEFF 		bl	Data_To_Transfer
 1918              	.LVL186:
1525:L6470.c       ****                 SPI_DATA_VALUE |= (uint32_t) SPIM_ReadRxData();
 1919              		.loc 1 1525 0
 1920 00da FFF7FEFF 		bl	SPIM_ReadRxData
 1921              	.LVL187:
 1922 00de 0443     		orrs	r4, r4, r0
 1923              	.LVL188:
1526:L6470.c       ****                 
1527:L6470.c       ****                 SPI_MOTOR_CHIP_SELECT (Motor, 0xFF);
 1924              		.loc 1 1527 0
 1925 00e0 FF21     		movs	r1, #255
 1926 00e2 2846     		mov	r0, r5
 1927 00e4 FFF7FEFF 		bl	SPI_MOTOR_CHIP_SELECT
 1928              	.LVL189:
1528:L6470.c       ****                 
1529:L6470.c       ****                 
1530:L6470.c       ****                 return SPI_DATA_VALUE;
1531:L6470.c       **** }
 1929              		.loc 1 1531 0
 1930 00e8 2046     		mov	r0, r4
 1931 00ea F8BD     		pop	{r3, r4, r5, r6, r7, pc}
 1932              		.cfi_endproc
 1933              	.LFE102:
 1934              		.size	Read_32bitSPI_DATA, .-Read_32bitSPI_DATA
ARM GAS  C:\Users\Revanth\AppData\Local\Temp\ccSEzD1d.s 			page 66


 1935              		.section	.text.Write_32bitSPI_DATA,"ax",%progbits
 1936              		.align	2
 1937              		.global	Write_32bitSPI_DATA
 1938              		.thumb
 1939              		.thumb_func
 1940              		.type	Write_32bitSPI_DATA, %function
 1941              	Write_32bitSPI_DATA:
 1942              	.LFB103:
1532:L6470.c       **** 
1533:L6470.c       **** //-------------------------- [] END OF Read_32bitSPI_DATA Function ---------------------------
1534:L6470.c       **** 
1535:L6470.c       **** 
1536:L6470.c       **** /* --------------------------------------------------------------------------------------------
1537:L6470.c       **** Function Name        : Write_32bitSPI_DATA
1538:L6470.c       **** 
1539:L6470.c       **** Prerequist Knowledge : SPI Communication Protocol, TMC5160 SPI Communication Protocol
1540:L6470.c       **** 
1541:L6470.c       **** Function Description : This Function is used to write 32bit data to the driver register
1542:L6470.c       ****                        using 32bit SPI communication protocol specific to TMC5160.
1543:L6470.c       **** 
1544:L6470.c       **** Return Type & Data   :Void
1545:L6470.c       **** 
1546:L6470.c       **** Numnber of Arguments : 3
1547:L6470.c       **** 
1548:L6470.c       **** -----Argument 1-----
1549:L6470.c       **** Name                 : ADDR
1550:L6470.c       **** Tupe                 : uint8_t
1551:L6470.c       **** Description          : The Address of the TMC5160 Register to which data needs to be written
1552:L6470.c       **** Condition            : Nil
1553:L6470.c       **** --------------------
1554:L6470.c       **** 
1555:L6470.c       **** -----Argument 2-----
1556:L6470.c       **** Name                 : data
1557:L6470.c       **** Tupe                 : uint8_t
1558:L6470.c       **** Description          : The 32bit data that needs to be written to TMC5160 register
1559:L6470.c       **** Condition            : Nil
1560:L6470.c       **** --------------------
1561:L6470.c       **** 
1562:L6470.c       **** -----Argument 3-----
1563:L6470.c       **** Name                 : Motor
1564:L6470.c       **** Tupe                 : uint8_t
1565:L6470.c       **** Description          : This Argument Represents the driver channel
1566:L6470.c       **** Condition            : This Value must range from 0x00 to 0x04 since there are only 5 channels
1567:L6470.c       ****                        available in AS76 System Configuration, condition to be checked in 
1568:L6470.c       ****                        SPI_MOTOR_CHIP_SELECT Function                       
1569:L6470.c       **** --------------------
1570:L6470.c       **** 
1571:L6470.c       **** ---------------------------------------------------------------------------------------------*/
1572:L6470.c       **** 
1573:L6470.c       **** void Write_32bitSPI_DATA (uint8_t ADDR, int data, uint8_t Motor)
1574:L6470.c       **** {
 1943              		.loc 1 1574 0
 1944              		.cfi_startproc
 1945              		@ args = 0, pretend = 0, frame = 0
 1946              		@ frame_needed = 0, uses_anonymous_args = 0
 1947              	.LVL190:
 1948 0000 70B5     		push	{r4, r5, r6, lr}
ARM GAS  C:\Users\Revanth\AppData\Local\Temp\ccSEzD1d.s 			page 67


 1949              		.cfi_def_cfa_offset 16
 1950              		.cfi_offset 4, -16
 1951              		.cfi_offset 5, -12
 1952              		.cfi_offset 6, -8
 1953              		.cfi_offset 14, -4
 1954 0002 0646     		mov	r6, r0
 1955 0004 0C46     		mov	r4, r1
 1956 0006 1546     		mov	r5, r2
1575:L6470.c       ****  
1576:L6470.c       ****                 SPI_MOTOR_CHIP_SELECT (Motor, 0x00);
 1957              		.loc 1 1576 0
 1958 0008 0021     		movs	r1, #0
 1959              	.LVL191:
 1960 000a 1046     		mov	r0, r2
 1961              	.LVL192:
 1962 000c FFF7FEFF 		bl	SPI_MOTOR_CHIP_SELECT
 1963              	.LVL193:
1577:L6470.c       ****                 Data_To_Transfer(ADDR | 0x80);                
 1964              		.loc 1 1577 0
 1965 0010 46F08000 		orr	r0, r6, #128
 1966 0014 FFF7FEFF 		bl	Data_To_Transfer
 1967              	.LVL194:
1578:L6470.c       ****                 Data_To_Transfer((data & 0xFF000000) >> 24);
 1968              		.loc 1 1578 0
 1969 0018 200E     		lsrs	r0, r4, #24
 1970 001a FFF7FEFF 		bl	Data_To_Transfer
 1971              	.LVL195:
1579:L6470.c       ****                 Data_To_Transfer((data & 0xFF0000) >> 16);
 1972              		.loc 1 1579 0
 1973 001e C4F30740 		ubfx	r0, r4, #16, #8
 1974 0022 FFF7FEFF 		bl	Data_To_Transfer
 1975              	.LVL196:
1580:L6470.c       ****                 Data_To_Transfer((data & 0xFF00) >> 8);
 1976              		.loc 1 1580 0
 1977 0026 C4F30720 		ubfx	r0, r4, #8, #8
 1978 002a FFF7FEFF 		bl	Data_To_Transfer
 1979              	.LVL197:
1581:L6470.c       ****                 Data_To_Transfer(data & 0xFF);     
 1980              		.loc 1 1581 0
 1981 002e E0B2     		uxtb	r0, r4
 1982 0030 FFF7FEFF 		bl	Data_To_Transfer
 1983              	.LVL198:
1582:L6470.c       ****                 SPI_MOTOR_CHIP_SELECT (Motor, 0xFF); 
 1984              		.loc 1 1582 0
 1985 0034 FF21     		movs	r1, #255
 1986 0036 2846     		mov	r0, r5
 1987 0038 FFF7FEFF 		bl	SPI_MOTOR_CHIP_SELECT
 1988              	.LVL199:
 1989 003c 70BD     		pop	{r4, r5, r6, pc}
 1990              		.cfi_endproc
 1991              	.LFE103:
 1992              		.size	Write_32bitSPI_DATA, .-Write_32bitSPI_DATA
 1993 003e 00BF     		.section	.text.GotoPos,"ax",%progbits
 1994              		.align	2
 1995              		.global	GotoPos
 1996              		.thumb
 1997              		.thumb_func
ARM GAS  C:\Users\Revanth\AppData\Local\Temp\ccSEzD1d.s 			page 68


 1998              		.type	GotoPos, %function
 1999              	GotoPos:
 2000              	.LFB64:
  91:L6470.c       ****     Write_32bitSPI_DATA (0x20  , (int) 0x00000000, Motor );
 2001              		.loc 1 91 0
 2002              		.cfi_startproc
 2003              		@ args = 0, pretend = 0, frame = 0
 2004              		@ frame_needed = 0, uses_anonymous_args = 0
 2005              	.LVL200:
 2006 0000 38B5     		push	{r3, r4, r5, lr}
 2007              		.cfi_def_cfa_offset 16
 2008              		.cfi_offset 3, -16
 2009              		.cfi_offset 4, -12
 2010              		.cfi_offset 5, -8
 2011              		.cfi_offset 14, -4
 2012 0002 0546     		mov	r5, r0
 2013 0004 0C46     		mov	r4, r1
  92:L6470.c       ****     Write_32bitSPI_DATA (0x05  , Pos, Motor );
 2014              		.loc 1 92 0
 2015 0006 0A46     		mov	r2, r1
 2016 0008 0021     		movs	r1, #0
 2017              	.LVL201:
 2018 000a 2020     		movs	r0, #32
 2019              	.LVL202:
 2020 000c FFF7FEFF 		bl	Write_32bitSPI_DATA
 2021              	.LVL203:
  93:L6470.c       ****     Write_32bitSPI_DATA (0x2D  , Pos, Motor );   
 2022              		.loc 1 93 0
 2023 0010 2246     		mov	r2, r4
 2024 0012 2946     		mov	r1, r5
 2025 0014 0520     		movs	r0, #5
 2026 0016 FFF7FEFF 		bl	Write_32bitSPI_DATA
 2027              	.LVL204:
  94:L6470.c       **** 
 2028              		.loc 1 94 0
 2029 001a 2246     		mov	r2, r4
 2030 001c 2946     		mov	r1, r5
 2031 001e 2D20     		movs	r0, #45
 2032 0020 FFF7FEFF 		bl	Write_32bitSPI_DATA
 2033              	.LVL205:
 2034 0024 38BD     		pop	{r3, r4, r5, pc}
 2035              		.cfi_endproc
 2036              	.LFE64:
 2037              		.size	GotoPos, .-GotoPos
 2038 0026 00BF     		.section	.text.Initialize_Motor,"ax",%progbits
 2039              		.align	2
 2040              		.global	Initialize_Motor
 2041              		.thumb
 2042              		.thumb_func
 2043              		.type	Initialize_Motor, %function
 2044              	Initialize_Motor:
 2045              	.LFB104:
1583:L6470.c       ****    
1584:L6470.c       ****     
1585:L6470.c       **** }
1586:L6470.c       **** 
1587:L6470.c       **** //-------------------------- [] END OF Write_32bitSPI_DATA Function ---------------------------
ARM GAS  C:\Users\Revanth\AppData\Local\Temp\ccSEzD1d.s 			page 69


1588:L6470.c       **** 
1589:L6470.c       **** void Initialize_Motor(uint8_t Motor)
1590:L6470.c       **** {
 2046              		.loc 1 1590 0
 2047              		.cfi_startproc
 2048              		@ args = 0, pretend = 0, frame = 0
 2049              		@ frame_needed = 0, uses_anonymous_args = 0
 2050              	.LVL206:
 2051 0000 10B5     		push	{r4, lr}
 2052              		.cfi_def_cfa_offset 8
 2053              		.cfi_offset 4, -8
 2054              		.cfi_offset 14, -4
 2055 0002 0446     		mov	r4, r0
1591:L6470.c       ****             Write_32bitSPI_DATA (0x01  , (int) 0x00000005, Motor );
 2056              		.loc 1 1591 0
 2057 0004 0246     		mov	r2, r0
 2058 0006 0521     		movs	r1, #5
 2059 0008 0120     		movs	r0, #1
 2060              	.LVL207:
 2061 000a FFF7FEFF 		bl	Write_32bitSPI_DATA
 2062              	.LVL208:
1592:L6470.c       ****             Write_32bitSPI_DATA (0x00  , (int) 0x00000008, Motor );
 2063              		.loc 1 1592 0
 2064 000e 2246     		mov	r2, r4
 2065 0010 0821     		movs	r1, #8
 2066 0012 0020     		movs	r0, #0
 2067 0014 FFF7FEFF 		bl	Write_32bitSPI_DATA
 2068              	.LVL209:
1593:L6470.c       ****             Write_32bitSPI_DATA (0x03  , (int) 0x00000000, Motor );
 2069              		.loc 1 1593 0
 2070 0018 2246     		mov	r2, r4
 2071 001a 0021     		movs	r1, #0
 2072 001c 0320     		movs	r0, #3
 2073 001e FFF7FEFF 		bl	Write_32bitSPI_DATA
 2074              	.LVL210:
1594:L6470.c       ****             Write_32bitSPI_DATA (0x05  , (int) 0x00000000, Motor );
 2075              		.loc 1 1594 0
 2076 0022 2246     		mov	r2, r4
 2077 0024 0021     		movs	r1, #0
 2078 0026 0520     		movs	r0, #5
 2079 0028 FFF7FEFF 		bl	Write_32bitSPI_DATA
 2080              	.LVL211:
1595:L6470.c       ****             Write_32bitSPI_DATA (0x06  , (int) 0x00000000, Motor );
 2081              		.loc 1 1595 0
 2082 002c 2246     		mov	r2, r4
 2083 002e 0021     		movs	r1, #0
 2084 0030 0620     		movs	r0, #6
 2085 0032 FFF7FEFF 		bl	Write_32bitSPI_DATA
 2086              	.LVL212:
1596:L6470.c       ****             Write_32bitSPI_DATA (0x08  , (int) 0x0000000F, Motor );
 2087              		.loc 1 1596 0
 2088 0036 2246     		mov	r2, r4
 2089 0038 0F21     		movs	r1, #15
 2090 003a 0820     		movs	r0, #8
 2091 003c FFF7FEFF 		bl	Write_32bitSPI_DATA
 2092              	.LVL213:
1597:L6470.c       ****             Write_32bitSPI_DATA (0x09  , (int) 0x00010606, Motor );
ARM GAS  C:\Users\Revanth\AppData\Local\Temp\ccSEzD1d.s 			page 70


 2093              		.loc 1 1597 0
 2094 0040 2246     		mov	r2, r4
 2095 0042 6749     		ldr	r1, .L148
 2096 0044 0920     		movs	r0, #9
 2097 0046 FFF7FEFF 		bl	Write_32bitSPI_DATA
 2098              	.LVL214:
1598:L6470.c       ****             Write_32bitSPI_DATA (0x0A  , (int) 0x0008041F, Motor );
 2099              		.loc 1 1598 0
 2100 004a 2246     		mov	r2, r4
 2101 004c 6549     		ldr	r1, .L148+4
 2102 004e 0A20     		movs	r0, #10
 2103 0050 FFF7FEFF 		bl	Write_32bitSPI_DATA
 2104              	.LVL215:
1599:L6470.c       ****             Write_32bitSPI_DATA (0x0B  , (int) 0x00000000, Motor );
 2105              		.loc 1 1599 0
 2106 0054 2246     		mov	r2, r4
 2107 0056 0021     		movs	r1, #0
 2108 0058 0B20     		movs	r0, #11
 2109 005a FFF7FEFF 		bl	Write_32bitSPI_DATA
 2110              	.LVL216:
1600:L6470.c       ****             Write_32bitSPI_DATA (0x10  , (int) 0x00070301, Motor );
 2111              		.loc 1 1600 0
 2112 005e 2246     		mov	r2, r4
 2113 0060 6149     		ldr	r1, .L148+8
 2114 0062 1020     		movs	r0, #16
 2115 0064 FFF7FEFF 		bl	Write_32bitSPI_DATA
 2116              	.LVL217:
1601:L6470.c       ****             Write_32bitSPI_DATA (0x11  , (int) 0x0000000A, Motor );
 2117              		.loc 1 1601 0
 2118 0068 2246     		mov	r2, r4
 2119 006a 0A21     		movs	r1, #10
 2120 006c 1120     		movs	r0, #17
 2121 006e FFF7FEFF 		bl	Write_32bitSPI_DATA
 2122              	.LVL218:
1602:L6470.c       ****             Write_32bitSPI_DATA (0x13  , (int) 0x00000000, Motor );
 2123              		.loc 1 1602 0
 2124 0072 2246     		mov	r2, r4
 2125 0074 0021     		movs	r1, #0
 2126 0076 1320     		movs	r0, #19
 2127 0078 FFF7FEFF 		bl	Write_32bitSPI_DATA
 2128              	.LVL219:
1603:L6470.c       ****             Write_32bitSPI_DATA (0x14  , (int) 0x00000000, Motor );
 2129              		.loc 1 1603 0
 2130 007c 2246     		mov	r2, r4
 2131 007e 0021     		movs	r1, #0
 2132 0080 1420     		movs	r0, #20
 2133 0082 FFF7FEFF 		bl	Write_32bitSPI_DATA
 2134              	.LVL220:
1604:L6470.c       ****             Write_32bitSPI_DATA (0x15  , (int) 0x00000000, Motor );
 2135              		.loc 1 1604 0
 2136 0086 2246     		mov	r2, r4
 2137 0088 0021     		movs	r1, #0
 2138 008a 1520     		movs	r0, #21
 2139 008c FFF7FEFF 		bl	Write_32bitSPI_DATA
 2140              	.LVL221:
1605:L6470.c       ****             
1606:L6470.c       ****             Write_32bitSPI_DATA (0x21  , (int) 0x00000000, Motor );
ARM GAS  C:\Users\Revanth\AppData\Local\Temp\ccSEzD1d.s 			page 71


 2141              		.loc 1 1606 0
 2142 0090 2246     		mov	r2, r4
 2143 0092 0021     		movs	r1, #0
 2144 0094 2120     		movs	r0, #33
 2145 0096 FFF7FEFF 		bl	Write_32bitSPI_DATA
 2146              	.LVL222:
1607:L6470.c       ****             Write_32bitSPI_DATA (0x23  , (int) 0x00004A38, Motor );
 2147              		.loc 1 1607 0
 2148 009a 2246     		mov	r2, r4
 2149 009c 44F63821 		movw	r1, #19000
 2150 00a0 2320     		movs	r0, #35
 2151 00a2 FFF7FEFF 		bl	Write_32bitSPI_DATA
 2152              	.LVL223:
1608:L6470.c       ****             
1609:L6470.c       ****             Write_32bitSPI_DATA (0x2C  , (int) 0x00000000, Motor );
 2153              		.loc 1 1609 0
 2154 00a6 2246     		mov	r2, r4
 2155 00a8 0021     		movs	r1, #0
 2156 00aa 2C20     		movs	r0, #44
 2157 00ac FFF7FEFF 		bl	Write_32bitSPI_DATA
 2158              	.LVL224:
1610:L6470.c       ****             
1611:L6470.c       ****             Write_32bitSPI_DATA (0x33  , (int) 0x00000000, Motor );
 2159              		.loc 1 1611 0
 2160 00b0 2246     		mov	r2, r4
 2161 00b2 0021     		movs	r1, #0
 2162 00b4 3320     		movs	r0, #51
 2163 00b6 FFF7FEFF 		bl	Write_32bitSPI_DATA
 2164              	.LVL225:
1612:L6470.c       ****             Write_32bitSPI_DATA (0x34  , (int) 0x000002AF, Motor );
 2165              		.loc 1 1612 0
 2166 00ba 2246     		mov	r2, r4
 2167 00bc 40F2AF21 		movw	r1, #687
 2168 00c0 3420     		movs	r0, #52
 2169 00c2 FFF7FEFF 		bl	Write_32bitSPI_DATA
 2170              	.LVL226:
1613:L6470.c       ****             Write_32bitSPI_DATA (0x38  , (int) 0x00000000, Motor );
 2171              		.loc 1 1613 0
 2172 00c6 2246     		mov	r2, r4
 2173 00c8 0021     		movs	r1, #0
 2174 00ca 3820     		movs	r0, #56
 2175 00cc FFF7FEFF 		bl	Write_32bitSPI_DATA
 2176              	.LVL227:
1614:L6470.c       ****             Write_32bitSPI_DATA (0x39  , (int) 0x00000000, Motor );
 2177              		.loc 1 1614 0
 2178 00d0 2246     		mov	r2, r4
 2179 00d2 0021     		movs	r1, #0
 2180 00d4 3920     		movs	r0, #57
 2181 00d6 FFF7FEFF 		bl	Write_32bitSPI_DATA
 2182              	.LVL228:
1615:L6470.c       ****             Write_32bitSPI_DATA (0x3A  , (int) 0x00010000, Motor );
 2183              		.loc 1 1615 0
 2184 00da 2246     		mov	r2, r4
 2185 00dc 4FF48031 		mov	r1, #65536
 2186 00e0 3A20     		movs	r0, #58
 2187 00e2 FFF7FEFF 		bl	Write_32bitSPI_DATA
 2188              	.LVL229:
ARM GAS  C:\Users\Revanth\AppData\Local\Temp\ccSEzD1d.s 			page 72


1616:L6470.c       ****             Write_32bitSPI_DATA (0x3D  , (int) 0x00000000, Motor );
 2189              		.loc 1 1616 0
 2190 00e6 2246     		mov	r2, r4
 2191 00e8 0021     		movs	r1, #0
 2192 00ea 3D20     		movs	r0, #61
 2193 00ec FFF7FEFF 		bl	Write_32bitSPI_DATA
 2194              	.LVL230:
1617:L6470.c       ****             Write_32bitSPI_DATA (0x60  , (int) 0xAAAAB554, Motor );
 2195              		.loc 1 1617 0
 2196 00f0 2246     		mov	r2, r4
 2197 00f2 3E49     		ldr	r1, .L148+12
 2198 00f4 6020     		movs	r0, #96
 2199 00f6 FFF7FEFF 		bl	Write_32bitSPI_DATA
 2200              	.LVL231:
1618:L6470.c       ****             Write_32bitSPI_DATA (0x61  , (int) 0x4A9554AA, Motor );
 2201              		.loc 1 1618 0
 2202 00fa 2246     		mov	r2, r4
 2203 00fc 3C49     		ldr	r1, .L148+16
 2204 00fe 6120     		movs	r0, #97
 2205 0100 FFF7FEFF 		bl	Write_32bitSPI_DATA
 2206              	.LVL232:
1619:L6470.c       ****             Write_32bitSPI_DATA (0x62  , (int) 0x24492929, Motor );
 2207              		.loc 1 1619 0
 2208 0104 2246     		mov	r2, r4
 2209 0106 3B49     		ldr	r1, .L148+20
 2210 0108 6220     		movs	r0, #98
 2211 010a FFF7FEFF 		bl	Write_32bitSPI_DATA
 2212              	.LVL233:
1620:L6470.c       ****             Write_32bitSPI_DATA (0x63  , (int) 0x00000008, Motor );
 2213              		.loc 1 1620 0
 2214 010e 2246     		mov	r2, r4
 2215 0110 0821     		movs	r1, #8
 2216 0112 6320     		movs	r0, #99
 2217 0114 FFF7FEFF 		bl	Write_32bitSPI_DATA
 2218              	.LVL234:
1621:L6470.c       ****             Write_32bitSPI_DATA (0x64  , (int) 0xFBFFFFFF, Motor );
 2219              		.loc 1 1621 0
 2220 0118 2246     		mov	r2, r4
 2221 011a 6FF08061 		mvn	r1, #67108864
 2222 011e 6420     		movs	r0, #100
 2223 0120 FFF7FEFF 		bl	Write_32bitSPI_DATA
 2224              	.LVL235:
1622:L6470.c       ****             Write_32bitSPI_DATA (0x65  , (int) 0xB5BB777D, Motor );
 2225              		.loc 1 1622 0
 2226 0124 2246     		mov	r2, r4
 2227 0126 3449     		ldr	r1, .L148+24
 2228 0128 6520     		movs	r0, #101
 2229 012a FFF7FEFF 		bl	Write_32bitSPI_DATA
 2230              	.LVL236:
1623:L6470.c       ****             Write_32bitSPI_DATA (0x66  , (int) 0x49295556, Motor );
 2231              		.loc 1 1623 0
 2232 012e 2246     		mov	r2, r4
 2233 0130 3249     		ldr	r1, .L148+28
 2234 0132 6620     		movs	r0, #102
 2235 0134 FFF7FEFF 		bl	Write_32bitSPI_DATA
 2236              	.LVL237:
1624:L6470.c       ****             Write_32bitSPI_DATA (0x67  , (int) 0x00404222, Motor );
ARM GAS  C:\Users\Revanth\AppData\Local\Temp\ccSEzD1d.s 			page 73


 2237              		.loc 1 1624 0
 2238 0138 2246     		mov	r2, r4
 2239 013a 3149     		ldr	r1, .L148+32
 2240 013c 6720     		movs	r0, #103
 2241 013e FFF7FEFF 		bl	Write_32bitSPI_DATA
 2242              	.LVL238:
1625:L6470.c       ****             Write_32bitSPI_DATA (0x68  , (int) 0xFFFF8056, Motor );
 2243              		.loc 1 1625 0
 2244 0142 2246     		mov	r2, r4
 2245 0144 2F49     		ldr	r1, .L148+36
 2246 0146 6820     		movs	r0, #104
 2247 0148 FFF7FEFF 		bl	Write_32bitSPI_DATA
 2248              	.LVL239:
1626:L6470.c       ****             Write_32bitSPI_DATA (0x69  , (int) 0x00F70000, Motor );
 2249              		.loc 1 1626 0
 2250 014c 2246     		mov	r2, r4
 2251 014e 4FF47701 		mov	r1, #16187392
 2252 0152 6920     		movs	r0, #105
 2253 0154 FFF7FEFF 		bl	Write_32bitSPI_DATA
 2254              	.LVL240:
1627:L6470.c       ****            
1628:L6470.c       ****             Write_32bitSPI_DATA (0x6C  , (int) 0x00410153, Motor ); 
 2255              		.loc 1 1628 0
 2256 0158 2246     		mov	r2, r4
 2257 015a 2B49     		ldr	r1, .L148+40
 2258 015c 6C20     		movs	r0, #108
 2259 015e FFF7FEFF 		bl	Write_32bitSPI_DATA
 2260              	.LVL241:
1629:L6470.c       ****             Write_32bitSPI_DATA (0x6D  , (int) 0x00000000, Motor );
 2261              		.loc 1 1629 0
 2262 0162 2246     		mov	r2, r4
 2263 0164 0021     		movs	r1, #0
 2264 0166 6D20     		movs	r0, #109
 2265 0168 FFF7FEFF 		bl	Write_32bitSPI_DATA
 2266              	.LVL242:
1630:L6470.c       **** 
1631:L6470.c       ****             Write_32bitSPI_DATA (0x6E  , (int) 0x00000000, Motor );
 2267              		.loc 1 1631 0
 2268 016c 2246     		mov	r2, r4
 2269 016e 0021     		movs	r1, #0
 2270 0170 6E20     		movs	r0, #110
 2271 0172 FFF7FEFF 		bl	Write_32bitSPI_DATA
 2272              	.LVL243:
1632:L6470.c       ****             Write_32bitSPI_DATA (0x70  , (int) 0xC40C001E, Motor ); 
 2273              		.loc 1 1632 0
 2274 0176 2246     		mov	r2, r4
 2275 0178 2449     		ldr	r1, .L148+44
 2276 017a 7020     		movs	r0, #112
 2277 017c FFF7FEFF 		bl	Write_32bitSPI_DATA
 2278              	.LVL244:
1633:L6470.c       ****             
1634:L6470.c       ****             Write_32bitSPI_DATA (0x24  , (int) 0x00001C77, Motor );
 2279              		.loc 1 1634 0
 2280 0180 2246     		mov	r2, r4
 2281 0182 41F67741 		movw	r1, #7287
 2282 0186 2420     		movs	r0, #36
 2283 0188 FFF7FEFF 		bl	Write_32bitSPI_DATA
ARM GAS  C:\Users\Revanth\AppData\Local\Temp\ccSEzD1d.s 			page 74


 2284              	.LVL245:
1635:L6470.c       ****             Write_32bitSPI_DATA (0x25  , (int) 0x00004A38, Motor );
 2285              		.loc 1 1635 0
 2286 018c 2246     		mov	r2, r4
 2287 018e 44F63821 		movw	r1, #19000
 2288 0192 2520     		movs	r0, #37
 2289 0194 FFF7FEFF 		bl	Write_32bitSPI_DATA
 2290              	.LVL246:
1636:L6470.c       ****             Write_32bitSPI_DATA (0x26  , (int) 0x00005ACF, Motor );
 2291              		.loc 1 1636 0
 2292 0198 2246     		mov	r2, r4
 2293 019a 45F6CF21 		movw	r1, #23247
 2294 019e 2620     		movs	r0, #38
 2295 01a0 FFF7FEFF 		bl	Write_32bitSPI_DATA
 2296              	.LVL247:
1637:L6470.c       ****             Write_32bitSPI_DATA (0x27  , (int) 0x0007A5C3, Motor );
 2297              		.loc 1 1637 0
 2298 01a4 2246     		mov	r2, r4
 2299 01a6 1A49     		ldr	r1, .L148+48
 2300 01a8 2720     		movs	r0, #39
 2301 01aa FFF7FEFF 		bl	Write_32bitSPI_DATA
 2302              	.LVL248:
1638:L6470.c       ****             Write_32bitSPI_DATA (0x28  , (int) 0x0000FFFF, Motor );
 2303              		.loc 1 1638 0
 2304 01ae 2246     		mov	r2, r4
 2305 01b0 4FF6FF71 		movw	r1, #65535
 2306 01b4 2820     		movs	r0, #40
 2307 01b6 FFF7FEFF 		bl	Write_32bitSPI_DATA
 2308              	.LVL249:
1639:L6470.c       ****             Write_32bitSPI_DATA (0x2A  , (int) 0x0000FFFF, Motor );
 2309              		.loc 1 1639 0
 2310 01ba 2246     		mov	r2, r4
 2311 01bc 4FF6FF71 		movw	r1, #65535
 2312 01c0 2A20     		movs	r0, #42
 2313 01c2 FFF7FEFF 		bl	Write_32bitSPI_DATA
 2314              	.LVL250:
1640:L6470.c       ****             Write_32bitSPI_DATA (0x2B  , (int) 0x00004A38, Motor );
 2315              		.loc 1 1640 0
 2316 01c6 2246     		mov	r2, r4
 2317 01c8 44F63821 		movw	r1, #19000
 2318 01cc 2B20     		movs	r0, #43
 2319 01ce FFF7FEFF 		bl	Write_32bitSPI_DATA
 2320              	.LVL251:
1641:L6470.c       ****             Write_32bitSPI_DATA (0x20  , (int) 0x00000000, Motor );
 2321              		.loc 1 1641 0
 2322 01d2 2246     		mov	r2, r4
 2323 01d4 0021     		movs	r1, #0
 2324 01d6 2020     		movs	r0, #32
 2325 01d8 FFF7FEFF 		bl	Write_32bitSPI_DATA
 2326              	.LVL252:
 2327 01dc 10BD     		pop	{r4, pc}
 2328              	.L149:
 2329 01de 00BF     		.align	2
 2330              	.L148:
 2331 01e0 06060100 		.word	67078
 2332 01e4 1F040800 		.word	525343
 2333 01e8 01030700 		.word	459521
ARM GAS  C:\Users\Revanth\AppData\Local\Temp\ccSEzD1d.s 			page 75


 2334 01ec 54B5AAAA 		.word	-1431653036
 2335 01f0 AA54954A 		.word	1251300522
 2336 01f4 29294924 		.word	608774441
 2337 01f8 7D77BBB5 		.word	-1246005379
 2338 01fc 56552949 		.word	1227445590
 2339 0200 22424000 		.word	4211234
 2340 0204 5680FFFF 		.word	-32682
 2341 0208 53014100 		.word	4260179
 2342 020c 1E000CC4 		.word	-1005846498
 2343 0210 C3A50700 		.word	501187
 2344              		.cfi_endproc
 2345              	.LFE104:
 2346              		.size	Initialize_Motor, .-Initialize_Motor
 2347              		.section	.text.IsPositionReached,"ax",%progbits
 2348              		.align	2
 2349              		.global	IsPositionReached
 2350              		.thumb
 2351              		.thumb_func
 2352              		.type	IsPositionReached, %function
 2353              	IsPositionReached:
 2354              	.LFB105:
1642:L6470.c       **** }
1643:L6470.c       **** 
1644:L6470.c       **** 
1645:L6470.c       **** 
1646:L6470.c       **** bool IsPositionReached (uint8_t Motor)
1647:L6470.c       **** {
 2355              		.loc 1 1647 0
 2356              		.cfi_startproc
 2357              		@ args = 0, pretend = 0, frame = 0
 2358              		@ frame_needed = 0, uses_anonymous_args = 0
 2359              	.LVL253:
 2360 0000 38B5     		push	{r3, r4, r5, lr}
 2361              		.cfi_def_cfa_offset 16
 2362              		.cfi_offset 3, -16
 2363              		.cfi_offset 4, -12
 2364              		.cfi_offset 5, -8
 2365              		.cfi_offset 14, -4
 2366 0002 0546     		mov	r5, r0
1648:L6470.c       ****          bool status;
1649:L6470.c       ****          CyDelayUs(500);
 2367              		.loc 1 1649 0
 2368 0004 4FF4FA70 		mov	r0, #500
 2369              	.LVL254:
 2370 0008 FFF7FEFF 		bl	CyDelayUs
 2371              	.LVL255:
1650:L6470.c       ****          Read_32bitSPI_DATA(0x04, Motor, &status_x);
 2372              		.loc 1 1650 0
 2373 000c 0A4C     		ldr	r4, .L154
 2374 000e 2246     		mov	r2, r4
 2375 0010 2946     		mov	r1, r5
 2376 0012 0420     		movs	r0, #4
 2377 0014 FFF7FEFF 		bl	Read_32bitSPI_DATA
 2378              	.LVL256:
1651:L6470.c       ****          CyDelayUs(100);
 2379              		.loc 1 1651 0
 2380 0018 6420     		movs	r0, #100
ARM GAS  C:\Users\Revanth\AppData\Local\Temp\ccSEzD1d.s 			page 76


 2381 001a FFF7FEFF 		bl	CyDelayUs
 2382              	.LVL257:
1652:L6470.c       ****          Read_32bitSPI_DATA(0x04, Motor, &status_x);
 2383              		.loc 1 1652 0
 2384 001e 2246     		mov	r2, r4
 2385 0020 2946     		mov	r1, r5
 2386 0022 0420     		movs	r0, #4
 2387 0024 FFF7FEFF 		bl	Read_32bitSPI_DATA
 2388              	.LVL258:
1653:L6470.c       ****          if ( (status_x & 0x20) == 0x00)
 2389              		.loc 1 1653 0
 2390 0028 2378     		ldrb	r3, [r4]	@ zero_extendqisi2
 2391 002a 13F0200F 		tst	r3, #32
 2392 002e 01D1     		bne	.L152
1654:L6470.c       ****             {
1655:L6470.c       ****                  status = false;
 2393              		.loc 1 1655 0
 2394 0030 0020     		movs	r0, #0
 2395 0032 38BD     		pop	{r3, r4, r5, pc}
 2396              	.L152:
1656:L6470.c       ****    
1657:L6470.c       ****             }
1658:L6470.c       ****          else
1659:L6470.c       ****             {
1660:L6470.c       ****                  status = true;
 2397              		.loc 1 1660 0
 2398 0034 0120     		movs	r0, #1
 2399              	.LVL259:
1661:L6470.c       ****             }
1662:L6470.c       ****             
1663:L6470.c       ****          return status;
1664:L6470.c       **** }
 2400              		.loc 1 1664 0
 2401 0036 38BD     		pop	{r3, r4, r5, pc}
 2402              	.L155:
 2403              		.align	2
 2404              	.L154:
 2405 0038 00000000 		.word	status_x
 2406              		.cfi_endproc
 2407              	.LFE105:
 2408              		.size	IsPositionReached, .-IsPositionReached
 2409              		.section	.text.WaitTillPositionReached,"ax",%progbits
 2410              		.align	2
 2411              		.global	WaitTillPositionReached
 2412              		.thumb
 2413              		.thumb_func
 2414              		.type	WaitTillPositionReached, %function
 2415              	WaitTillPositionReached:
 2416              	.LFB106:
1665:L6470.c       **** 
1666:L6470.c       **** int WaitTillPositionReached (uint8_t Motor)
1667:L6470.c       **** {
 2417              		.loc 1 1667 0
 2418              		.cfi_startproc
 2419              		@ args = 0, pretend = 0, frame = 8
 2420              		@ frame_needed = 0, uses_anonymous_args = 0
 2421              	.LVL260:
ARM GAS  C:\Users\Revanth\AppData\Local\Temp\ccSEzD1d.s 			page 77


 2422 0000 30B5     		push	{r4, r5, lr}
 2423              		.cfi_def_cfa_offset 12
 2424              		.cfi_offset 4, -12
 2425              		.cfi_offset 5, -8
 2426              		.cfi_offset 14, -4
 2427 0002 83B0     		sub	sp, sp, #12
 2428              		.cfi_def_cfa_offset 24
 2429 0004 0446     		mov	r4, r0
1668:L6470.c       ****          uint8_t wait_status = 0;
 2430              		.loc 1 1668 0
 2431 0006 02AD     		add	r5, sp, #8
 2432 0008 0023     		movs	r3, #0
 2433 000a 05F8013D 		strb	r3, [r5, #-1]!
 2434              	.LVL261:
1669:L6470.c       ****          bool status = 0;
1670:L6470.c       ****          CyDelayUs(500);
 2435              		.loc 1 1670 0
 2436 000e 4FF4FA70 		mov	r0, #500
 2437              	.LVL262:
 2438 0012 FFF7FEFF 		bl	CyDelayUs
 2439              	.LVL263:
1671:L6470.c       ****          Read_32bitSPI_DATA(0x04, Motor, &wait_status);
 2440              		.loc 1 1671 0
 2441 0016 2A46     		mov	r2, r5
 2442 0018 2146     		mov	r1, r4
 2443 001a 0420     		movs	r0, #4
 2444 001c FFF7FEFF 		bl	Read_32bitSPI_DATA
 2445              	.LVL264:
1672:L6470.c       ****          CyDelayUs(100);
 2446              		.loc 1 1672 0
 2447 0020 6420     		movs	r0, #100
 2448 0022 FFF7FEFF 		bl	CyDelayUs
 2449              	.LVL265:
1673:L6470.c       ****          Read_32bitSPI_DATA(0x04, Motor, &wait_status);
 2450              		.loc 1 1673 0
 2451 0026 2A46     		mov	r2, r5
 2452 0028 2146     		mov	r1, r4
 2453 002a 0420     		movs	r0, #4
 2454 002c FFF7FEFF 		bl	Read_32bitSPI_DATA
 2455              	.LVL266:
1674:L6470.c       ****          while ( (wait_status & 0x20) == 0x00)
 2456              		.loc 1 1674 0
 2457 0030 08E0     		b	.L157
 2458              	.L158:
1675:L6470.c       ****             {
1676:L6470.c       ****                  Read_32bitSPI_DATA(0x21, Motor,  &wait_status);                
 2459              		.loc 1 1676 0
 2460 0032 0DF10702 		add	r2, sp, #7
 2461 0036 2146     		mov	r1, r4
 2462 0038 2120     		movs	r0, #33
 2463 003a FFF7FEFF 		bl	Read_32bitSPI_DATA
 2464              	.LVL267:
1677:L6470.c       ****                  CyDelayUs(100);
 2465              		.loc 1 1677 0
 2466 003e 6420     		movs	r0, #100
 2467 0040 FFF7FEFF 		bl	CyDelayUs
 2468              	.LVL268:
ARM GAS  C:\Users\Revanth\AppData\Local\Temp\ccSEzD1d.s 			page 78


 2469              	.L157:
1674:L6470.c       ****          while ( (wait_status & 0x20) == 0x00)
 2470              		.loc 1 1674 0
 2471 0044 9DF80730 		ldrb	r3, [sp, #7]	@ zero_extendqisi2
 2472 0048 13F0200F 		tst	r3, #32
 2473 004c F1D0     		beq	.L158
1678:L6470.c       ****    
1679:L6470.c       ****             }
1680:L6470.c       ****             
1681:L6470.c       ****          return status;
1682:L6470.c       **** }
 2474              		.loc 1 1682 0
 2475 004e 0020     		movs	r0, #0
 2476 0050 03B0     		add	sp, sp, #12
 2477              		.cfi_def_cfa_offset 12
 2478              		@ sp needed
 2479 0052 30BD     		pop	{r4, r5, pc}
 2480              		.cfi_endproc
 2481              	.LFE106:
 2482              		.size	WaitTillPositionReached, .-WaitTillPositionReached
 2483              		.global	__aeabi_d2iz
 2484              		.section	.text.Step_correction_x,"ax",%progbits
 2485              		.align	2
 2486              		.global	Step_correction_x
 2487              		.thumb
 2488              		.thumb_func
 2489              		.type	Step_correction_x, %function
 2490              	Step_correction_x:
 2491              	.LFB70:
 381:L6470.c       ****     int32 Encoder_Position_X_Requested =0;
 2492              		.loc 1 381 0
 2493              		.cfi_startproc
 2494              		@ args = 0, pretend = 0, frame = 0
 2495              		@ frame_needed = 0, uses_anonymous_args = 0
 2496              	.LVL269:
 2497 0000 F8B5     		push	{r3, r4, r5, r6, r7, lr}
 2498              		.cfi_def_cfa_offset 24
 2499              		.cfi_offset 3, -24
 2500              		.cfi_offset 4, -20
 2501              		.cfi_offset 5, -16
 2502              		.cfi_offset 6, -12
 2503              		.cfi_offset 7, -8
 2504              		.cfi_offset 14, -4
 2505 0002 0746     		mov	r7, r0
 2506              	.LVL270:
 387:L6470.c       ****     
 2507              		.loc 1 387 0
 2508 0004 FFF7FEFF 		bl	__aeabi_i2d
 2509              	.LVL271:
 2510 0008 31A3     		adr	r3, .L168
 2511 000a D3E90023 		ldrd	r2, [r3]
 2512 000e FFF7FEFF 		bl	__aeabi_ddiv
 2513              	.LVL272:
 2514 0012 FFF7FEFF 		bl	__aeabi_d2iz
 2515              	.LVL273:
 2516 0016 0646     		mov	r6, r0
 2517              	.LVL274:
ARM GAS  C:\Users\Revanth\AppData\Local\Temp\ccSEzD1d.s 			page 79


 389:L6470.c       ****     {
 2518              		.loc 1 389 0
 2519 0018 0025     		movs	r5, #0
 2520 001a 24E0     		b	.L161
 2521              	.LVL275:
 2522              	.L163:
 391:L6470.c       ****     //diff_encoder_value = (X_QuadPosition - X_last_position);
 2523              		.loc 1 391 0
 2524 001c FFF7FEFF 		bl	Read_All_Optical_Encoder
 2525              	.LVL276:
 393:L6470.c       ****     new_step= encoder_error_value*3.2;
 2526              		.loc 1 393 0
 2527 0020 2D4B     		ldr	r3, .L168+8
 2528 0022 5C68     		ldr	r4, [r3, #4]
 2529 0024 341B     		subs	r4, r6, r4
 2530              	.LVL277:
 394:L6470.c       ****     
 2531              		.loc 1 394 0
 2532 0026 2046     		mov	r0, r4
 2533 0028 FFF7FEFF 		bl	__aeabi_i2d
 2534              	.LVL278:
 2535 002c 28A3     		adr	r3, .L168
 2536 002e D3E90023 		ldrd	r2, [r3]
 2537 0032 FFF7FEFF 		bl	__aeabi_dmul
 2538              	.LVL279:
 2539 0036 FFF7FEFF 		bl	__aeabi_d2iz
 2540              	.LVL280:
 396:L6470.c       ****     {
 2541              		.loc 1 396 0
 2542 003a 002C     		cmp	r4, #0
 2543 003c B8BF     		it	lt
 2544 003e 6442     		rsblt	r4, r4, #0
 2545              	.LVL281:
 2546 0040 022C     		cmp	r4, #2
 2547 0042 0EDD     		ble	.L162
 2548              	.LVL282:
 399:L6470.c       ****       WaitTillPositionReached (TMC5160_nCS_MotorX);
 2549              		.loc 1 399 0
 2550 0044 0021     		movs	r1, #0
 2551 0046 3844     		add	r0, r0, r7
 2552              	.LVL283:
 2553 0048 FFF7FEFF 		bl	GotoPos
 2554              	.LVL284:
 400:L6470.c       ****       CyDelayUs(50);
 2555              		.loc 1 400 0
 2556 004c 0020     		movs	r0, #0
 2557 004e FFF7FEFF 		bl	WaitTillPositionReached
 2558              	.LVL285:
 401:L6470.c       ****       Write_32bitSPI_DATA (0x21  , steps, TMC5160_nCS_MotorX );
 2559              		.loc 1 401 0
 2560 0052 3220     		movs	r0, #50
 2561 0054 FFF7FEFF 		bl	CyDelayUs
 2562              	.LVL286:
 402:L6470.c       ****     }
 2563              		.loc 1 402 0
 2564 0058 0022     		movs	r2, #0
 2565 005a 3946     		mov	r1, r7
ARM GAS  C:\Users\Revanth\AppData\Local\Temp\ccSEzD1d.s 			page 80


 2566 005c 2120     		movs	r0, #33
 2567 005e FFF7FEFF 		bl	Write_32bitSPI_DATA
 2568              	.LVL287:
 2569              	.L162:
 389:L6470.c       ****     {
 2570              		.loc 1 389 0 discriminator 2
 2571 0062 0135     		adds	r5, r5, #1
 2572              	.LVL288:
 2573 0064 EDB2     		uxtb	r5, r5
 2574              	.LVL289:
 2575              	.L161:
 389:L6470.c       ****     {
 2576              		.loc 1 389 0 is_stmt 0 discriminator 1
 2577 0066 052D     		cmp	r5, #5
 2578 0068 D8D9     		bls	.L163
 405:L6470.c       ****     encoder_error_value = Encoder_Position_X_Requested - X_QuadPosition;
 2579              		.loc 1 405 0 is_stmt 1
 2580 006a FFF7FEFF 		bl	Read_All_Optical_Encoder
 2581              	.LVL290:
 406:L6470.c       ****     if((temp>5))
 2582              		.loc 1 406 0
 2583 006e 1A4B     		ldr	r3, .L168+8
 2584 0070 5B68     		ldr	r3, [r3, #4]
 2585 0072 F61A     		subs	r6, r6, r3
 2586              	.LVL291:
 407:L6470.c       ****     {
 2587              		.loc 1 407 0
 2588 0074 052D     		cmp	r5, #5
 2589 0076 26D9     		bls	.L164
 409:L6470.c       ****      {
 2590              		.loc 1 409 0
 2591 0078 002E     		cmp	r6, #0
 2592 007a B8BF     		it	lt
 2593 007c 7642     		rsblt	r6, r6, #0
 2594              	.LVL292:
 2595 007e 042E     		cmp	r6, #4
 2596 0080 09DD     		ble	.L165
 411:L6470.c       ****         LED3_Write(0xFF);
 2597              		.loc 1 411 0
 2598 0082 1648     		ldr	r0, .L168+12
 2599 0084 FFF7FEFF 		bl	Write_Debug_UART_Char
 2600              	.LVL293:
 412:L6470.c       ****         errorX=  1;
 2601              		.loc 1 412 0
 2602 0088 FF20     		movs	r0, #255
 2603 008a FFF7FEFF 		bl	LED3_Write
 2604              	.LVL294:
 413:L6470.c       ****      }
 2605              		.loc 1 413 0
 2606 008e 0122     		movs	r2, #1
 2607 0090 114B     		ldr	r3, .L168+8
 2608 0092 9A63     		str	r2, [r3, #56]
 2609 0094 17E0     		b	.L164
 2610              	.L165:
 416:L6470.c       ****      {
 2611              		.loc 1 416 0
 2612 0096 B6F57A6F 		cmp	r6, #4000
ARM GAS  C:\Users\Revanth\AppData\Local\Temp\ccSEzD1d.s 			page 81


 2613 009a 06DD     		ble	.L166
 418:L6470.c       ****        errorX=  1;
 2614              		.loc 1 418 0
 2615 009c 1048     		ldr	r0, .L168+16
 2616 009e FFF7FEFF 		bl	Write_Debug_UART_Char
 2617              	.LVL295:
 419:L6470.c       ****      }
 2618              		.loc 1 419 0
 2619 00a2 0122     		movs	r2, #1
 2620 00a4 0C4B     		ldr	r3, .L168+8
 2621 00a6 9A63     		str	r2, [r3, #56]
 2622 00a8 0DE0     		b	.L164
 2623              	.L166:
 424:L6470.c       ****         errorX = 0;
 2624              		.loc 1 424 0
 2625 00aa 0E48     		ldr	r0, .L168+20
 2626 00ac FFF7FEFF 		bl	Write_Debug_UART_Char
 2627              	.LVL296:
 425:L6470.c       ****         Write_32bitSPI_DATA (0x21  , steps, TMC5160_nCS_MotorX );
 2628              		.loc 1 425 0
 2629 00b0 0022     		movs	r2, #0
 2630 00b2 094B     		ldr	r3, .L168+8
 2631 00b4 9A63     		str	r2, [r3, #56]
 426:L6470.c       ****         CyDelayUs(500);
 2632              		.loc 1 426 0
 2633 00b6 3946     		mov	r1, r7
 2634 00b8 2120     		movs	r0, #33
 2635 00ba FFF7FEFF 		bl	Write_32bitSPI_DATA
 2636              	.LVL297:
 427:L6470.c       ****         
 2637              		.loc 1 427 0
 2638 00be 4FF4FA70 		mov	r0, #500
 2639 00c2 FFF7FEFF 		bl	CyDelayUs
 2640              	.LVL298:
 2641              	.L164:
 434:L6470.c       **** 
 2642              		.loc 1 434 0
 2643 00c6 044B     		ldr	r3, .L168+8
 2644 00c8 986B     		ldr	r0, [r3, #56]
 2645 00ca F8BD     		pop	{r3, r4, r5, r6, r7, pc}
 2646              	.LVL299:
 2647              	.L169:
 2648 00cc AFF30080 		.align	3
 2649              	.L168:
 2650 00d0 9A999999 		.word	-1717986918
 2651 00d4 99990940 		.word	1074370969
 2652 00d8 00000000 		.word	.LANCHOR0
 2653 00dc 94020000 		.word	.LC20
 2654 00e0 B0020000 		.word	.LC21
 2655 00e4 E0020000 		.word	.LC22
 2656              		.cfi_endproc
 2657              	.LFE70:
 2658              		.size	Step_correction_x, .-Step_correction_x
 2659              		.section	.text.goTo_X,"ax",%progbits
 2660              		.align	2
 2661              		.global	goTo_X
 2662              		.thumb
ARM GAS  C:\Users\Revanth\AppData\Local\Temp\ccSEzD1d.s 			page 82


 2663              		.thumb_func
 2664              		.type	goTo_X, %function
 2665              	goTo_X:
 2666              	.LFB69:
 352:L6470.c       ****     
 2667              		.loc 1 352 0
 2668              		.cfi_startproc
 2669              		@ args = 0, pretend = 0, frame = 0
 2670              		@ frame_needed = 0, uses_anonymous_args = 0
 2671              	.LVL300:
 2672 0000 70B5     		push	{r4, r5, r6, lr}
 2673              		.cfi_def_cfa_offset 16
 2674              		.cfi_offset 4, -16
 2675              		.cfi_offset 5, -12
 2676              		.cfi_offset 6, -8
 2677              		.cfi_offset 14, -4
 2678 0002 0446     		mov	r4, r0
 354:L6470.c       ****     
 2679              		.loc 1 354 0
 2680 0004 FFF7FEFF 		bl	if_all_homing_done
 2681              	.LVL301:
 2682 0008 E0B1     		cbz	r0, .L171
 358:L6470.c       ****         Read_All_Optical_Encoder();
 2683              		.loc 1 358 0
 2684 000a 124E     		ldr	r6, .L174
 2685 000c 0025     		movs	r5, #0
 2686 000e 7563     		str	r5, [r6, #52]
 359:L6470.c       ****         //X_last_position = X_QuadPosition;
 2687              		.loc 1 359 0
 2688 0010 FFF7FEFF 		bl	Read_All_Optical_Encoder
 2689              	.LVL302:
 361:L6470.c       ****         GotoPos(Position_X_Requested, TMC5160_nCS_MotorX); // If provided value is position and not
 2690              		.loc 1 361 0
 2691 0014 1048     		ldr	r0, .L174+4
 2692 0016 FFF7FEFF 		bl	Write_Debug_UART_Char
 2693              	.LVL303:
 362:L6470.c       ****         WaitTillPositionReached (TMC5160_nCS_MotorX);
 2694              		.loc 1 362 0
 2695 001a 2946     		mov	r1, r5
 2696 001c 2046     		mov	r0, r4
 2697 001e FFF7FEFF 		bl	GotoPos
 2698              	.LVL304:
 363:L6470.c       ****         CyDelayUs(50);
 2699              		.loc 1 363 0
 2700 0022 2846     		mov	r0, r5
 2701 0024 FFF7FEFF 		bl	WaitTillPositionReached
 2702              	.LVL305:
 364:L6470.c       ****         //GotoPos(Position_X_Move, TMC5160_nCS_MotorX); // If provided value is steps to move and n
 2703              		.loc 1 364 0
 2704 0028 3220     		movs	r0, #50
 2705 002a FFF7FEFF 		bl	CyDelayUs
 2706              	.LVL306:
 366:L6470.c       ****         Write_Debug_UART_Char("  \r\n");
 2707              		.loc 1 366 0
 2708 002e 2046     		mov	r0, r4
 2709 0030 FFF7FEFF 		bl	Write_Debug_UART_Int
 2710              	.LVL307:
ARM GAS  C:\Users\Revanth\AppData\Local\Temp\ccSEzD1d.s 			page 83


 367:L6470.c       ****         Step_correction_x(Position_X_Requested);
 2711              		.loc 1 367 0
 2712 0034 0948     		ldr	r0, .L174+8
 2713 0036 FFF7FEFF 		bl	Write_Debug_UART_Char
 2714              	.LVL308:
 368:L6470.c       ****         return errorX;
 2715              		.loc 1 368 0
 2716 003a 2046     		mov	r0, r4
 2717 003c FFF7FEFF 		bl	Step_correction_x
 2718              	.LVL309:
 369:L6470.c       ****     }
 2719              		.loc 1 369 0
 2720 0040 B06B     		ldr	r0, [r6, #56]
 2721 0042 70BD     		pop	{r4, r5, r6, pc}
 2722              	.LVL310:
 2723              	.L171:
 373:L6470.c       ****         Error = All_Homing_Not_Done_Yet;
 2724              		.loc 1 373 0
 2725 0044 0648     		ldr	r0, .L174+12
 2726 0046 FFF7FEFF 		bl	Write_Debug_UART_Char
 2727              	.LVL311:
 374:L6470.c       ****         return Error;
 2728              		.loc 1 374 0
 2729 004a 4FF62920 		movw	r0, #64041
 2730 004e 014B     		ldr	r3, .L174
 2731 0050 5863     		str	r0, [r3, #52]
 378:L6470.c       **** 
 2732              		.loc 1 378 0
 2733 0052 70BD     		pop	{r4, r5, r6, pc}
 2734              	.LVL312:
 2735              	.L175:
 2736              		.align	2
 2737              	.L174:
 2738 0054 00000000 		.word	.LANCHOR0
 2739 0058 F4020000 		.word	.LC23
 2740 005c 10030000 		.word	.LC24
 2741 0060 18030000 		.word	.LC25
 2742              		.cfi_endproc
 2743              	.LFE69:
 2744              		.size	goTo_X, .-goTo_X
 2745              		.section	.text.Step_correction_y,"ax",%progbits
 2746              		.align	2
 2747              		.global	Step_correction_y
 2748              		.thumb
 2749              		.thumb_func
 2750              		.type	Step_correction_y, %function
 2751              	Step_correction_y:
 2752              	.LFB72:
 466:L6470.c       ****     uint8_t temp=0;
 2753              		.loc 1 466 0
 2754              		.cfi_startproc
 2755              		@ args = 0, pretend = 0, frame = 0
 2756              		@ frame_needed = 0, uses_anonymous_args = 0
 2757              	.LVL313:
 2758 0000 F8B5     		push	{r3, r4, r5, r6, r7, lr}
 2759              		.cfi_def_cfa_offset 24
 2760              		.cfi_offset 3, -24
ARM GAS  C:\Users\Revanth\AppData\Local\Temp\ccSEzD1d.s 			page 84


 2761              		.cfi_offset 4, -20
 2762              		.cfi_offset 5, -16
 2763              		.cfi_offset 6, -12
 2764              		.cfi_offset 7, -8
 2765              		.cfi_offset 14, -4
 2766 0002 0746     		mov	r7, r0
 2767              	.LVL314:
 472:L6470.c       ****     
 2768              		.loc 1 472 0
 2769 0004 FFF7FEFF 		bl	__aeabi_i2d
 2770              	.LVL315:
 2771 0008 2BA3     		adr	r3, .L184
 2772 000a D3E90023 		ldrd	r2, [r3]
 2773 000e FFF7FEFF 		bl	__aeabi_ddiv
 2774              	.LVL316:
 2775 0012 FFF7FEFF 		bl	__aeabi_d2iz
 2776              	.LVL317:
 2777 0016 0646     		mov	r6, r0
 2778              	.LVL318:
 474:L6470.c       ****     {
 2779              		.loc 1 474 0
 2780 0018 0025     		movs	r5, #0
 2781 001a 24E0     		b	.L177
 2782              	.LVL319:
 2783              	.L179:
 476:L6470.c       ****     //diff_encoder_value = (X_QuadPosition - X_last_position);
 2784              		.loc 1 476 0
 2785 001c FFF7FEFF 		bl	Read_All_Optical_Encoder
 2786              	.LVL320:
 478:L6470.c       ****     new_step= encoder_error_value*3.2;
 2787              		.loc 1 478 0
 2788 0020 274B     		ldr	r3, .L184+8
 2789 0022 9C68     		ldr	r4, [r3, #8]
 2790 0024 341B     		subs	r4, r6, r4
 2791              	.LVL321:
 479:L6470.c       ****     
 2792              		.loc 1 479 0
 2793 0026 2046     		mov	r0, r4
 2794 0028 FFF7FEFF 		bl	__aeabi_i2d
 2795              	.LVL322:
 2796 002c 22A3     		adr	r3, .L184
 2797 002e D3E90023 		ldrd	r2, [r3]
 2798 0032 FFF7FEFF 		bl	__aeabi_dmul
 2799              	.LVL323:
 2800 0036 FFF7FEFF 		bl	__aeabi_d2iz
 2801              	.LVL324:
 481:L6470.c       ****     {
 2802              		.loc 1 481 0
 2803 003a 002C     		cmp	r4, #0
 2804 003c B8BF     		it	lt
 2805 003e 6442     		rsblt	r4, r4, #0
 2806              	.LVL325:
 2807 0040 042C     		cmp	r4, #4
 2808 0042 0EDD     		ble	.L178
 2809              	.LVL326:
 484:L6470.c       ****       WaitTillPositionReached (TMC5160_nCS_MotorY);
 2810              		.loc 1 484 0
ARM GAS  C:\Users\Revanth\AppData\Local\Temp\ccSEzD1d.s 			page 85


 2811 0044 0121     		movs	r1, #1
 2812 0046 3844     		add	r0, r0, r7
 2813              	.LVL327:
 2814 0048 FFF7FEFF 		bl	GotoPos
 2815              	.LVL328:
 485:L6470.c       ****       CyDelayUs(50);
 2816              		.loc 1 485 0
 2817 004c 0120     		movs	r0, #1
 2818 004e FFF7FEFF 		bl	WaitTillPositionReached
 2819              	.LVL329:
 486:L6470.c       ****       Write_32bitSPI_DATA (0x21  , steps, TMC5160_nCS_MotorY );
 2820              		.loc 1 486 0
 2821 0052 3220     		movs	r0, #50
 2822 0054 FFF7FEFF 		bl	CyDelayUs
 2823              	.LVL330:
 487:L6470.c       ****     }
 2824              		.loc 1 487 0
 2825 0058 0122     		movs	r2, #1
 2826 005a 3946     		mov	r1, r7
 2827 005c 2120     		movs	r0, #33
 2828 005e FFF7FEFF 		bl	Write_32bitSPI_DATA
 2829              	.LVL331:
 2830              	.L178:
 474:L6470.c       ****     {
 2831              		.loc 1 474 0 discriminator 2
 2832 0062 0135     		adds	r5, r5, #1
 2833              	.LVL332:
 2834 0064 EDB2     		uxtb	r5, r5
 2835              	.LVL333:
 2836              	.L177:
 474:L6470.c       ****     {
 2837              		.loc 1 474 0 is_stmt 0 discriminator 1
 2838 0066 032D     		cmp	r5, #3
 2839 0068 D8D9     		bls	.L179
 493:L6470.c       ****     encoder_error_value = Encoder_Position_Y_Requested - Y_QuadPosition;
 2840              		.loc 1 493 0 is_stmt 1
 2841 006a FFF7FEFF 		bl	Read_All_Optical_Encoder
 2842              	.LVL334:
 494:L6470.c       ****     
 2843              		.loc 1 494 0
 2844 006e 144B     		ldr	r3, .L184+8
 2845 0070 9868     		ldr	r0, [r3, #8]
 2846 0072 301A     		subs	r0, r6, r0
 2847              	.LVL335:
 496:L6470.c       ****     {
 2848              		.loc 1 496 0
 2849 0074 032D     		cmp	r5, #3
 2850 0076 1BD9     		bls	.L180
 498:L6470.c       ****      {
 2851              		.loc 1 498 0
 2852 0078 0028     		cmp	r0, #0
 2853 007a B8BF     		it	lt
 2854 007c 4042     		rsblt	r0, r0, #0
 2855              	.LVL336:
 2856 007e 0428     		cmp	r0, #4
 2857 0080 09DD     		ble	.L181
 500:L6470.c       ****         LED3_Write(0xFF);
ARM GAS  C:\Users\Revanth\AppData\Local\Temp\ccSEzD1d.s 			page 86


 2858              		.loc 1 500 0
 2859 0082 1048     		ldr	r0, .L184+12
 2860 0084 FFF7FEFF 		bl	Write_Debug_UART_Char
 2861              	.LVL337:
 501:L6470.c       ****         errorY=  1;
 2862              		.loc 1 501 0
 2863 0088 FF20     		movs	r0, #255
 2864 008a FFF7FEFF 		bl	LED3_Write
 2865              	.LVL338:
 502:L6470.c       ****      }
 2866              		.loc 1 502 0
 2867 008e 0122     		movs	r2, #1
 2868 0090 0B4B     		ldr	r3, .L184+8
 2869 0092 1A63     		str	r2, [r3, #48]
 2870 0094 0CE0     		b	.L180
 2871              	.L181:
 505:L6470.c       ****      {
 2872              		.loc 1 505 0
 2873 0096 B0F57A6F 		cmp	r0, #4000
 2874 009a 03DD     		ble	.L182
 507:L6470.c       ****      }
 2875              		.loc 1 507 0
 2876 009c 0A48     		ldr	r0, .L184+16
 2877 009e FFF7FEFF 		bl	Write_Debug_UART_Char
 2878              	.LVL339:
 2879 00a2 05E0     		b	.L180
 2880              	.L182:
 512:L6470.c       ****         errorY = 0;
 2881              		.loc 1 512 0
 2882 00a4 0948     		ldr	r0, .L184+20
 2883 00a6 FFF7FEFF 		bl	Write_Debug_UART_Char
 2884              	.LVL340:
 513:L6470.c       ****         
 2885              		.loc 1 513 0
 2886 00aa 0022     		movs	r2, #0
 2887 00ac 044B     		ldr	r3, .L184+8
 2888 00ae 1A63     		str	r2, [r3, #48]
 2889              	.L180:
 520:L6470.c       **** 
 2890              		.loc 1 520 0
 2891 00b0 034B     		ldr	r3, .L184+8
 2892 00b2 186B     		ldr	r0, [r3, #48]
 2893 00b4 F8BD     		pop	{r3, r4, r5, r6, r7, pc}
 2894              	.LVL341:
 2895              	.L185:
 2896 00b6 00BF     		.align	3
 2897              	.L184:
 2898 00b8 9A999999 		.word	-1717986918
 2899 00bc 99990940 		.word	1074370969
 2900 00c0 00000000 		.word	.LANCHOR0
 2901 00c4 28030000 		.word	.LC26
 2902 00c8 44030000 		.word	.LC27
 2903 00cc 74030000 		.word	.LC28
 2904              		.cfi_endproc
 2905              	.LFE72:
 2906              		.size	Step_correction_y, .-Step_correction_y
 2907              		.section	.text.goTo_Y,"ax",%progbits
ARM GAS  C:\Users\Revanth\AppData\Local\Temp\ccSEzD1d.s 			page 87


 2908              		.align	2
 2909              		.global	goTo_Y
 2910              		.thumb
 2911              		.thumb_func
 2912              		.type	goTo_Y, %function
 2913              	goTo_Y:
 2914              	.LFB71:
 440:L6470.c       ****     if(if_all_homing_done())
 2915              		.loc 1 440 0
 2916              		.cfi_startproc
 2917              		@ args = 0, pretend = 0, frame = 0
 2918              		@ frame_needed = 0, uses_anonymous_args = 0
 2919              	.LVL342:
 2920 0000 38B5     		push	{r3, r4, r5, lr}
 2921              		.cfi_def_cfa_offset 16
 2922              		.cfi_offset 3, -16
 2923              		.cfi_offset 4, -12
 2924              		.cfi_offset 5, -8
 2925              		.cfi_offset 14, -4
 2926 0002 0446     		mov	r4, r0
 441:L6470.c       ****     {
 2927              		.loc 1 441 0
 2928 0004 FFF7FEFF 		bl	if_all_homing_done
 2929              	.LVL343:
 2930 0008 E0B1     		cbz	r0, .L187
 444:L6470.c       ****         Read_All_Optical_Encoder();
 2931              		.loc 1 444 0
 2932 000a 124D     		ldr	r5, .L190
 2933 000c 0023     		movs	r3, #0
 2934 000e 6B63     		str	r3, [r5, #52]
 445:L6470.c       ****         //Y_last_position = Y_QuadPosition;
 2935              		.loc 1 445 0
 2936 0010 FFF7FEFF 		bl	Read_All_Optical_Encoder
 2937              	.LVL344:
 447:L6470.c       ****         GotoPos(Position_Y_Requested, TMC5160_nCS_MotorY); // If provided value is position and not
 2938              		.loc 1 447 0
 2939 0014 1048     		ldr	r0, .L190+4
 2940 0016 FFF7FEFF 		bl	Write_Debug_UART_Char
 2941              	.LVL345:
 448:L6470.c       ****         WaitTillPositionReached (TMC5160_nCS_MotorY);
 2942              		.loc 1 448 0
 2943 001a 0121     		movs	r1, #1
 2944 001c 2046     		mov	r0, r4
 2945 001e FFF7FEFF 		bl	GotoPos
 2946              	.LVL346:
 449:L6470.c       ****         CyDelayUs(50);
 2947              		.loc 1 449 0
 2948 0022 0120     		movs	r0, #1
 2949 0024 FFF7FEFF 		bl	WaitTillPositionReached
 2950              	.LVL347:
 450:L6470.c       ****         //GotoPos(Position_X_Move, TMC5160_nCS_MotorX); // If provided value is steps to move and n
 2951              		.loc 1 450 0
 2952 0028 3220     		movs	r0, #50
 2953 002a FFF7FEFF 		bl	CyDelayUs
 2954              	.LVL348:
 452:L6470.c       ****         Write_Debug_UART_Char("  \r\n");
 2955              		.loc 1 452 0
ARM GAS  C:\Users\Revanth\AppData\Local\Temp\ccSEzD1d.s 			page 88


 2956 002e 2046     		mov	r0, r4
 2957 0030 FFF7FEFF 		bl	Write_Debug_UART_Int
 2958              	.LVL349:
 453:L6470.c       ****         Step_correction_y(Position_Y_Requested);
 2959              		.loc 1 453 0
 2960 0034 0948     		ldr	r0, .L190+8
 2961 0036 FFF7FEFF 		bl	Write_Debug_UART_Char
 2962              	.LVL350:
 454:L6470.c       ****         return errorY;
 2963              		.loc 1 454 0
 2964 003a 2046     		mov	r0, r4
 2965 003c FFF7FEFF 		bl	Step_correction_y
 2966              	.LVL351:
 455:L6470.c       ****     }
 2967              		.loc 1 455 0
 2968 0040 286B     		ldr	r0, [r5, #48]
 2969 0042 38BD     		pop	{r3, r4, r5, pc}
 2970              	.LVL352:
 2971              	.L187:
 459:L6470.c       ****         Error = All_Homing_Not_Done_Yet;
 2972              		.loc 1 459 0
 2973 0044 0648     		ldr	r0, .L190+12
 2974 0046 FFF7FEFF 		bl	Write_Debug_UART_Char
 2975              	.LVL353:
 460:L6470.c       ****         return Error;
 2976              		.loc 1 460 0
 2977 004a 4FF62920 		movw	r0, #64041
 2978 004e 014B     		ldr	r3, .L190
 2979 0050 5863     		str	r0, [r3, #52]
 463:L6470.c       **** 
 2980              		.loc 1 463 0
 2981 0052 38BD     		pop	{r3, r4, r5, pc}
 2982              	.LVL354:
 2983              	.L191:
 2984              		.align	2
 2985              	.L190:
 2986 0054 00000000 		.word	.LANCHOR0
 2987 0058 F4020000 		.word	.LC23
 2988 005c 10030000 		.word	.LC24
 2989 0060 18030000 		.word	.LC25
 2990              		.cfi_endproc
 2991              	.LFE71:
 2992              		.size	goTo_Y, .-goTo_Y
 2993              		.section	.text.Step_correction_z,"ax",%progbits
 2994              		.align	2
 2995              		.global	Step_correction_z
 2996              		.thumb
 2997              		.thumb_func
 2998              		.type	Step_correction_z, %function
 2999              	Step_correction_z:
 3000              	.LFB74:
 556:L6470.c       ****     uint8_t temp=0;
 3001              		.loc 1 556 0
 3002              		.cfi_startproc
 3003              		@ args = 0, pretend = 0, frame = 0
 3004              		@ frame_needed = 0, uses_anonymous_args = 0
 3005              	.LVL355:
ARM GAS  C:\Users\Revanth\AppData\Local\Temp\ccSEzD1d.s 			page 89


 3006 0000 F8B5     		push	{r3, r4, r5, r6, r7, lr}
 3007              		.cfi_def_cfa_offset 24
 3008              		.cfi_offset 3, -24
 3009              		.cfi_offset 4, -20
 3010              		.cfi_offset 5, -16
 3011              		.cfi_offset 6, -12
 3012              		.cfi_offset 7, -8
 3013              		.cfi_offset 14, -4
 3014 0002 0746     		mov	r7, r0
 3015              	.LVL356:
 562:L6470.c       ****     
 3016              		.loc 1 562 0
 3017 0004 FFF7FEFF 		bl	__aeabi_i2d
 3018              	.LVL357:
 3019 0008 2BA3     		adr	r3, .L200
 3020 000a D3E90023 		ldrd	r2, [r3]
 3021 000e FFF7FEFF 		bl	__aeabi_ddiv
 3022              	.LVL358:
 3023 0012 FFF7FEFF 		bl	__aeabi_d2iz
 3024              	.LVL359:
 3025 0016 0646     		mov	r6, r0
 3026              	.LVL360:
 564:L6470.c       ****     {
 3027              		.loc 1 564 0
 3028 0018 0025     		movs	r5, #0
 3029 001a 24E0     		b	.L193
 3030              	.LVL361:
 3031              	.L195:
 567:L6470.c       ****     //diff_encoder_value = (X_QuadPosition - X_last_position);
 3032              		.loc 1 567 0
 3033 001c FFF7FEFF 		bl	Read_All_Optical_Encoder
 3034              	.LVL362:
 569:L6470.c       ****     new_step= encoder_error_value*3.2;
 3035              		.loc 1 569 0
 3036 0020 274B     		ldr	r3, .L200+8
 3037 0022 DC68     		ldr	r4, [r3, #12]
 3038 0024 341B     		subs	r4, r6, r4
 3039              	.LVL363:
 570:L6470.c       ****     
 3040              		.loc 1 570 0
 3041 0026 2046     		mov	r0, r4
 3042 0028 FFF7FEFF 		bl	__aeabi_i2d
 3043              	.LVL364:
 3044 002c 22A3     		adr	r3, .L200
 3045 002e D3E90023 		ldrd	r2, [r3]
 3046 0032 FFF7FEFF 		bl	__aeabi_dmul
 3047              	.LVL365:
 3048 0036 FFF7FEFF 		bl	__aeabi_d2iz
 3049              	.LVL366:
 572:L6470.c       ****     {
 3050              		.loc 1 572 0
 3051 003a 002C     		cmp	r4, #0
 3052 003c B8BF     		it	lt
 3053 003e 6442     		rsblt	r4, r4, #0
 3054              	.LVL367:
 3055 0040 042C     		cmp	r4, #4
 3056 0042 0EDD     		ble	.L194
ARM GAS  C:\Users\Revanth\AppData\Local\Temp\ccSEzD1d.s 			page 90


 3057              	.LVL368:
 575:L6470.c       ****       WaitTillPositionReached (TMC5160_nCS_MotorZ);
 3058              		.loc 1 575 0
 3059 0044 0221     		movs	r1, #2
 3060 0046 3844     		add	r0, r0, r7
 3061              	.LVL369:
 3062 0048 FFF7FEFF 		bl	GotoPos
 3063              	.LVL370:
 576:L6470.c       ****       CyDelayUs(50);
 3064              		.loc 1 576 0
 3065 004c 0220     		movs	r0, #2
 3066 004e FFF7FEFF 		bl	WaitTillPositionReached
 3067              	.LVL371:
 577:L6470.c       ****       Write_32bitSPI_DATA (0x21  , steps, TMC5160_nCS_MotorZ );
 3068              		.loc 1 577 0
 3069 0052 3220     		movs	r0, #50
 3070 0054 FFF7FEFF 		bl	CyDelayUs
 3071              	.LVL372:
 578:L6470.c       ****     }
 3072              		.loc 1 578 0
 3073 0058 0222     		movs	r2, #2
 3074 005a 3946     		mov	r1, r7
 3075 005c 2120     		movs	r0, #33
 3076 005e FFF7FEFF 		bl	Write_32bitSPI_DATA
 3077              	.LVL373:
 3078              	.L194:
 564:L6470.c       ****     {
 3079              		.loc 1 564 0 discriminator 2
 3080 0062 0135     		adds	r5, r5, #1
 3081              	.LVL374:
 3082 0064 EDB2     		uxtb	r5, r5
 3083              	.LVL375:
 3084              	.L193:
 564:L6470.c       ****     {
 3085              		.loc 1 564 0 is_stmt 0 discriminator 1
 3086 0066 032D     		cmp	r5, #3
 3087 0068 D8D9     		bls	.L195
 584:L6470.c       ****     encoder_error_value = Encoder_Position_Z_Requested - Z_QuadPosition;
 3088              		.loc 1 584 0 is_stmt 1
 3089 006a FFF7FEFF 		bl	Read_All_Optical_Encoder
 3090              	.LVL376:
 585:L6470.c       ****     
 3091              		.loc 1 585 0
 3092 006e 144B     		ldr	r3, .L200+8
 3093 0070 D868     		ldr	r0, [r3, #12]
 3094 0072 301A     		subs	r0, r6, r0
 3095              	.LVL377:
 587:L6470.c       ****     {
 3096              		.loc 1 587 0
 3097 0074 032D     		cmp	r5, #3
 3098 0076 1BD9     		bls	.L196
 589:L6470.c       ****      {
 3099              		.loc 1 589 0
 3100 0078 0028     		cmp	r0, #0
 3101 007a B8BF     		it	lt
 3102 007c 4042     		rsblt	r0, r0, #0
 3103              	.LVL378:
ARM GAS  C:\Users\Revanth\AppData\Local\Temp\ccSEzD1d.s 			page 91


 3104 007e 0428     		cmp	r0, #4
 3105 0080 09DD     		ble	.L197
 591:L6470.c       ****         LED2_Write(0xFF);
 3106              		.loc 1 591 0
 3107 0082 1048     		ldr	r0, .L200+12
 3108 0084 FFF7FEFF 		bl	Write_Debug_UART_Char
 3109              	.LVL379:
 592:L6470.c       ****         errorZ = 1;
 3110              		.loc 1 592 0
 3111 0088 FF20     		movs	r0, #255
 3112 008a FFF7FEFF 		bl	LED2_Write
 3113              	.LVL380:
 593:L6470.c       ****      }
 3114              		.loc 1 593 0
 3115 008e 0122     		movs	r2, #1
 3116 0090 0B4B     		ldr	r3, .L200+8
 3117 0092 DA63     		str	r2, [r3, #60]
 3118 0094 0CE0     		b	.L196
 3119              	.L197:
 596:L6470.c       ****      {
 3120              		.loc 1 596 0
 3121 0096 B0F57A6F 		cmp	r0, #4000
 3122 009a 03DD     		ble	.L198
 598:L6470.c       ****      }
 3123              		.loc 1 598 0
 3124 009c 0A48     		ldr	r0, .L200+16
 3125 009e FFF7FEFF 		bl	Write_Debug_UART_Char
 3126              	.LVL381:
 3127 00a2 05E0     		b	.L196
 3128              	.L198:
 603:L6470.c       ****        errorZ = 0;
 3129              		.loc 1 603 0
 3130 00a4 0948     		ldr	r0, .L200+20
 3131 00a6 FFF7FEFF 		bl	Write_Debug_UART_Char
 3132              	.LVL382:
 604:L6470.c       ****         
 3133              		.loc 1 604 0
 3134 00aa 0022     		movs	r2, #0
 3135 00ac 044B     		ldr	r3, .L200+8
 3136 00ae DA63     		str	r2, [r3, #60]
 3137              	.L196:
 611:L6470.c       **** 
 3138              		.loc 1 611 0
 3139 00b0 034B     		ldr	r3, .L200+8
 3140 00b2 D86B     		ldr	r0, [r3, #60]
 3141 00b4 F8BD     		pop	{r3, r4, r5, r6, r7, pc}
 3142              	.LVL383:
 3143              	.L201:
 3144 00b6 00BF     		.align	3
 3145              	.L200:
 3146 00b8 9A999999 		.word	-1717986918
 3147 00bc 99990940 		.word	1074370969
 3148 00c0 00000000 		.word	.LANCHOR0
 3149 00c4 88030000 		.word	.LC29
 3150 00c8 A4030000 		.word	.LC30
 3151 00cc D4030000 		.word	.LC31
 3152              		.cfi_endproc
ARM GAS  C:\Users\Revanth\AppData\Local\Temp\ccSEzD1d.s 			page 92


 3153              	.LFE74:
 3154              		.size	Step_correction_z, .-Step_correction_z
 3155              		.section	.text.goTo_Z,"ax",%progbits
 3156              		.align	2
 3157              		.global	goTo_Z
 3158              		.thumb
 3159              		.thumb_func
 3160              		.type	goTo_Z, %function
 3161              	goTo_Z:
 3162              	.LFB73:
 527:L6470.c       ****     Enable_Encoder_Z(-Buffer_Z_QuadPosition);
 3163              		.loc 1 527 0
 3164              		.cfi_startproc
 3165              		@ args = 0, pretend = 0, frame = 0
 3166              		@ frame_needed = 0, uses_anonymous_args = 0
 3167              	.LVL384:
 3168 0000 38B5     		push	{r3, r4, r5, lr}
 3169              		.cfi_def_cfa_offset 16
 3170              		.cfi_offset 3, -16
 3171              		.cfi_offset 4, -12
 3172              		.cfi_offset 5, -8
 3173              		.cfi_offset 14, -4
 3174 0002 0446     		mov	r4, r0
 528:L6470.c       ****     if(if_all_homing_done())
 3175              		.loc 1 528 0
 3176 0004 184B     		ldr	r3, .L206
 3177 0006 5869     		ldr	r0, [r3, #20]
 3178              	.LVL385:
 3179 0008 4042     		negs	r0, r0
 3180 000a FFF7FEFF 		bl	Enable_Encoder_Z
 3181              	.LVL386:
 529:L6470.c       ****     {
 3182              		.loc 1 529 0
 3183 000e FFF7FEFF 		bl	if_all_homing_done
 3184              	.LVL387:
 3185 0012 00B3     		cbz	r0, .L203
 531:L6470.c       ****         Read_All_Optical_Encoder();
 3186              		.loc 1 531 0
 3187 0014 144D     		ldr	r5, .L206
 3188 0016 0023     		movs	r3, #0
 3189 0018 6B63     		str	r3, [r5, #52]
 532:L6470.c       ****         //Z_last_position = Z_QuadPosition;
 3190              		.loc 1 532 0
 3191 001a FFF7FEFF 		bl	Read_All_Optical_Encoder
 3192              	.LVL388:
 534:L6470.c       ****         GotoPos(Position_Z_Requested, TMC5160_nCS_MotorZ); // If provided value is position and not
 3193              		.loc 1 534 0
 3194 001e 1348     		ldr	r0, .L206+4
 3195 0020 FFF7FEFF 		bl	Write_Debug_UART_Char
 3196              	.LVL389:
 535:L6470.c       ****         WaitTillPositionReached (TMC5160_nCS_MotorZ);
 3197              		.loc 1 535 0
 3198 0024 0221     		movs	r1, #2
 3199 0026 2046     		mov	r0, r4
 3200 0028 FFF7FEFF 		bl	GotoPos
 3201              	.LVL390:
 536:L6470.c       ****         CyDelayUs(50);
ARM GAS  C:\Users\Revanth\AppData\Local\Temp\ccSEzD1d.s 			page 93


 3202              		.loc 1 536 0
 3203 002c 0220     		movs	r0, #2
 3204 002e FFF7FEFF 		bl	WaitTillPositionReached
 3205              	.LVL391:
 537:L6470.c       ****         //GotoPos(Position_X_Move, TMC5160_nCS_MotorX); // If provided value is steps to move and n
 3206              		.loc 1 537 0
 3207 0032 3220     		movs	r0, #50
 3208 0034 FFF7FEFF 		bl	CyDelayUs
 3209              	.LVL392:
 539:L6470.c       ****         Write_Debug_UART_Char("  \r\n");
 3210              		.loc 1 539 0
 3211 0038 2046     		mov	r0, r4
 3212 003a FFF7FEFF 		bl	Write_Debug_UART_Int
 3213              	.LVL393:
 540:L6470.c       ****         Step_correction_z(Position_Z_Requested);
 3214              		.loc 1 540 0
 3215 003e 0C48     		ldr	r0, .L206+8
 3216 0040 FFF7FEFF 		bl	Write_Debug_UART_Char
 3217              	.LVL394:
 541:L6470.c       ****         Read_All_Optical_Encoder();
 3218              		.loc 1 541 0
 3219 0044 2046     		mov	r0, r4
 3220 0046 FFF7FEFF 		bl	Step_correction_z
 3221              	.LVL395:
 542:L6470.c       ****         Buffer_Z_QuadPosition = Z_QuadPosition;
 3222              		.loc 1 542 0
 3223 004a FFF7FEFF 		bl	Read_All_Optical_Encoder
 3224              	.LVL396:
 543:L6470.c       ****         return errorZ;
 3225              		.loc 1 543 0
 3226 004e EB68     		ldr	r3, [r5, #12]
 3227 0050 6B61     		str	r3, [r5, #20]
 544:L6470.c       ****     }
 3228              		.loc 1 544 0
 3229 0052 E86B     		ldr	r0, [r5, #60]
 3230 0054 38BD     		pop	{r3, r4, r5, pc}
 3231              	.LVL397:
 3232              	.L203:
 548:L6470.c       ****         Error = All_Homing_Not_Done_Yet;
 3233              		.loc 1 548 0
 3234 0056 0748     		ldr	r0, .L206+12
 3235 0058 FFF7FEFF 		bl	Write_Debug_UART_Char
 3236              	.LVL398:
 549:L6470.c       ****         return Error;
 3237              		.loc 1 549 0
 3238 005c 4FF62920 		movw	r0, #64041
 3239 0060 014B     		ldr	r3, .L206
 3240 0062 5863     		str	r0, [r3, #52]
 553:L6470.c       **** 
 3241              		.loc 1 553 0
 3242 0064 38BD     		pop	{r3, r4, r5, pc}
 3243              	.LVL399:
 3244              	.L207:
 3245 0066 00BF     		.align	2
 3246              	.L206:
 3247 0068 00000000 		.word	.LANCHOR0
 3248 006c E8030000 		.word	.LC32
ARM GAS  C:\Users\Revanth\AppData\Local\Temp\ccSEzD1d.s 			page 94


 3249 0070 10030000 		.word	.LC24
 3250 0074 18030000 		.word	.LC25
 3251              		.cfi_endproc
 3252              	.LFE73:
 3253              		.size	goTo_Z, .-goTo_Z
 3254              		.section	.text.Step_correction_t,"ax",%progbits
 3255              		.align	2
 3256              		.global	Step_correction_t
 3257              		.thumb
 3258              		.thumb_func
 3259              		.type	Step_correction_t, %function
 3260              	Step_correction_t:
 3261              	.LFB76:
 644:L6470.c       ****     uint8_t temp=0;
 3262              		.loc 1 644 0
 3263              		.cfi_startproc
 3264              		@ args = 0, pretend = 0, frame = 0
 3265              		@ frame_needed = 0, uses_anonymous_args = 0
 3266              	.LVL400:
 3267 0000 F8B5     		push	{r3, r4, r5, r6, r7, lr}
 3268              		.cfi_def_cfa_offset 24
 3269              		.cfi_offset 3, -24
 3270              		.cfi_offset 4, -20
 3271              		.cfi_offset 5, -16
 3272              		.cfi_offset 6, -12
 3273              		.cfi_offset 7, -8
 3274              		.cfi_offset 14, -4
 3275 0002 0746     		mov	r7, r0
 3276              	.LVL401:
 650:L6470.c       ****     
 3277              		.loc 1 650 0
 3278 0004 FFF7FEFF 		bl	__aeabi_i2d
 3279              	.LVL402:
 3280 0008 29A3     		adr	r3, .L216
 3281 000a D3E90023 		ldrd	r2, [r3]
 3282 000e FFF7FEFF 		bl	__aeabi_ddiv
 3283              	.LVL403:
 3284 0012 FFF7FEFF 		bl	__aeabi_d2iz
 3285              	.LVL404:
 3286 0016 0646     		mov	r6, r0
 3287              	.LVL405:
 652:L6470.c       ****     {
 3288              		.loc 1 652 0
 3289 0018 0025     		movs	r5, #0
 3290 001a 24E0     		b	.L209
 3291              	.LVL406:
 3292              	.L211:
 654:L6470.c       ****     //diff_encoder_value = (X_QuadPosition - X_last_position);
 3293              		.loc 1 654 0
 3294 001c FFF7FEFF 		bl	Read_All_Optical_Encoder
 3295              	.LVL407:
 656:L6470.c       ****     new_step= encoder_error_value*3.2;
 3296              		.loc 1 656 0
 3297 0020 254B     		ldr	r3, .L216+8
 3298 0022 1C69     		ldr	r4, [r3, #16]
 3299 0024 341B     		subs	r4, r6, r4
 3300              	.LVL408:
ARM GAS  C:\Users\Revanth\AppData\Local\Temp\ccSEzD1d.s 			page 95


 657:L6470.c       ****     
 3301              		.loc 1 657 0
 3302 0026 2046     		mov	r0, r4
 3303 0028 FFF7FEFF 		bl	__aeabi_i2d
 3304              	.LVL409:
 3305 002c 20A3     		adr	r3, .L216
 3306 002e D3E90023 		ldrd	r2, [r3]
 3307 0032 FFF7FEFF 		bl	__aeabi_dmul
 3308              	.LVL410:
 3309 0036 FFF7FEFF 		bl	__aeabi_d2iz
 3310              	.LVL411:
 659:L6470.c       ****     {
 3311              		.loc 1 659 0
 3312 003a 002C     		cmp	r4, #0
 3313 003c B8BF     		it	lt
 3314 003e 6442     		rsblt	r4, r4, #0
 3315              	.LVL412:
 3316 0040 042C     		cmp	r4, #4
 3317 0042 0EDD     		ble	.L210
 3318              	.LVL413:
 662:L6470.c       ****       WaitTillPositionReached (TMC5160_nCS_MotorT);
 3319              		.loc 1 662 0
 3320 0044 0321     		movs	r1, #3
 3321 0046 3844     		add	r0, r0, r7
 3322              	.LVL414:
 3323 0048 FFF7FEFF 		bl	GotoPos
 3324              	.LVL415:
 663:L6470.c       ****       CyDelayUs(50);
 3325              		.loc 1 663 0
 3326 004c 0320     		movs	r0, #3
 3327 004e FFF7FEFF 		bl	WaitTillPositionReached
 3328              	.LVL416:
 664:L6470.c       ****       Write_32bitSPI_DATA (0x21  , steps, TMC5160_nCS_MotorT );
 3329              		.loc 1 664 0
 3330 0052 3220     		movs	r0, #50
 3331 0054 FFF7FEFF 		bl	CyDelayUs
 3332              	.LVL417:
 665:L6470.c       ****     }
 3333              		.loc 1 665 0
 3334 0058 0322     		movs	r2, #3
 3335 005a 3946     		mov	r1, r7
 3336 005c 2120     		movs	r0, #33
 3337 005e FFF7FEFF 		bl	Write_32bitSPI_DATA
 3338              	.LVL418:
 3339              	.L210:
 652:L6470.c       ****     {
 3340              		.loc 1 652 0 discriminator 2
 3341 0062 0135     		adds	r5, r5, #1
 3342              	.LVL419:
 3343 0064 EDB2     		uxtb	r5, r5
 3344              	.LVL420:
 3345              	.L209:
 652:L6470.c       ****     {
 3346              		.loc 1 652 0 is_stmt 0 discriminator 1
 3347 0066 032D     		cmp	r5, #3
 3348 0068 D8D9     		bls	.L211
 670:L6470.c       ****     encoder_error_value = Encoder_Position_T_Requested - T_QuadPosition;
ARM GAS  C:\Users\Revanth\AppData\Local\Temp\ccSEzD1d.s 			page 96


 3349              		.loc 1 670 0 is_stmt 1
 3350 006a FFF7FEFF 		bl	Read_All_Optical_Encoder
 3351              	.LVL421:
 671:L6470.c       ****     
 3352              		.loc 1 671 0
 3353 006e 124B     		ldr	r3, .L216+8
 3354 0070 1869     		ldr	r0, [r3, #16]
 3355 0072 301A     		subs	r0, r6, r0
 3356              	.LVL422:
 673:L6470.c       ****     {
 3357              		.loc 1 673 0
 3358 0074 032D     		cmp	r5, #3
 3359 0076 18D9     		bls	.L212
 675:L6470.c       ****      {
 3360              		.loc 1 675 0
 3361 0078 0028     		cmp	r0, #0
 3362 007a B8BF     		it	lt
 3363 007c 4042     		rsblt	r0, r0, #0
 3364              	.LVL423:
 3365 007e 0428     		cmp	r0, #4
 3366 0080 06DD     		ble	.L213
 677:L6470.c       ****         Error = 1;
 3367              		.loc 1 677 0
 3368 0082 0E48     		ldr	r0, .L216+12
 3369 0084 FFF7FEFF 		bl	Write_Debug_UART_Char
 3370              	.LVL424:
 678:L6470.c       ****      }
 3371              		.loc 1 678 0
 3372 0088 0122     		movs	r2, #1
 3373 008a 0B4B     		ldr	r3, .L216+8
 3374 008c 5A63     		str	r2, [r3, #52]
 3375 008e 0CE0     		b	.L212
 3376              	.L213:
 681:L6470.c       ****      {
 3377              		.loc 1 681 0
 3378 0090 B0F57A6F 		cmp	r0, #4000
 3379 0094 03DD     		ble	.L214
 683:L6470.c       ****      }
 3380              		.loc 1 683 0
 3381 0096 0A48     		ldr	r0, .L216+16
 3382 0098 FFF7FEFF 		bl	Write_Debug_UART_Char
 3383              	.LVL425:
 3384 009c 05E0     		b	.L212
 3385              	.L214:
 688:L6470.c       ****         Error = 0;
 3386              		.loc 1 688 0
 3387 009e 0948     		ldr	r0, .L216+20
 3388 00a0 FFF7FEFF 		bl	Write_Debug_UART_Char
 3389              	.LVL426:
 689:L6470.c       ****         
 3390              		.loc 1 689 0
 3391 00a4 0022     		movs	r2, #0
 3392 00a6 044B     		ldr	r3, .L216+8
 3393 00a8 5A63     		str	r2, [r3, #52]
 3394              	.L212:
 696:L6470.c       **** 
 3395              		.loc 1 696 0
ARM GAS  C:\Users\Revanth\AppData\Local\Temp\ccSEzD1d.s 			page 97


 3396 00aa 034B     		ldr	r3, .L216+8
 3397 00ac 586B     		ldr	r0, [r3, #52]
 3398 00ae F8BD     		pop	{r3, r4, r5, r6, r7, pc}
 3399              	.LVL427:
 3400              	.L217:
 3401              		.align	3
 3402              	.L216:
 3403 00b0 9A999999 		.word	-1717986918
 3404 00b4 99990940 		.word	1074370969
 3405 00b8 00000000 		.word	.LANCHOR0
 3406 00bc 04040000 		.word	.LC33
 3407 00c0 20040000 		.word	.LC34
 3408 00c4 50040000 		.word	.LC35
 3409              		.cfi_endproc
 3410              	.LFE76:
 3411              		.size	Step_correction_t, .-Step_correction_t
 3412              		.section	.text.goTo_T,"ax",%progbits
 3413              		.align	2
 3414              		.global	goTo_T
 3415              		.thumb
 3416              		.thumb_func
 3417              		.type	goTo_T, %function
 3418              	goTo_T:
 3419              	.LFB75:
 616:L6470.c       ****     Enable_Encoder_T(-Buffer_T_QuadPosition);
 3420              		.loc 1 616 0
 3421              		.cfi_startproc
 3422              		@ args = 0, pretend = 0, frame = 0
 3423              		@ frame_needed = 0, uses_anonymous_args = 0
 3424              	.LVL428:
 3425 0000 38B5     		push	{r3, r4, r5, lr}
 3426              		.cfi_def_cfa_offset 16
 3427              		.cfi_offset 3, -16
 3428              		.cfi_offset 4, -12
 3429              		.cfi_offset 5, -8
 3430              		.cfi_offset 14, -4
 3431 0002 0446     		mov	r4, r0
 617:L6470.c       ****     if(if_all_homing_done())
 3432              		.loc 1 617 0
 3433 0004 184B     		ldr	r3, .L222
 3434 0006 9869     		ldr	r0, [r3, #24]
 3435              	.LVL429:
 3436 0008 4042     		negs	r0, r0
 3437 000a FFF7FEFF 		bl	Enable_Encoder_T
 3438              	.LVL430:
 618:L6470.c       ****     {
 3439              		.loc 1 618 0
 3440 000e FFF7FEFF 		bl	if_all_homing_done
 3441              	.LVL431:
 3442 0012 00B3     		cbz	r0, .L219
 620:L6470.c       ****         Read_All_Optical_Encoder();        
 3443              		.loc 1 620 0
 3444 0014 144D     		ldr	r5, .L222
 3445 0016 0023     		movs	r3, #0
 3446 0018 6B63     		str	r3, [r5, #52]
 621:L6470.c       ****         Write_Debug_UART_Char("GotoT Command Recived--->");
 3447              		.loc 1 621 0
ARM GAS  C:\Users\Revanth\AppData\Local\Temp\ccSEzD1d.s 			page 98


 3448 001a FFF7FEFF 		bl	Read_All_Optical_Encoder
 3449              	.LVL432:
 622:L6470.c       ****         GotoPos(Position_T_Requested, TMC5160_nCS_MotorT); // If provided value is position and not
 3450              		.loc 1 622 0
 3451 001e 1348     		ldr	r0, .L222+4
 3452 0020 FFF7FEFF 		bl	Write_Debug_UART_Char
 3453              	.LVL433:
 623:L6470.c       ****         WaitTillPositionReached (TMC5160_nCS_MotorT);
 3454              		.loc 1 623 0
 3455 0024 0321     		movs	r1, #3
 3456 0026 2046     		mov	r0, r4
 3457 0028 FFF7FEFF 		bl	GotoPos
 3458              	.LVL434:
 624:L6470.c       ****         CyDelayUs(50);
 3459              		.loc 1 624 0
 3460 002c 0320     		movs	r0, #3
 3461 002e FFF7FEFF 		bl	WaitTillPositionReached
 3462              	.LVL435:
 625:L6470.c       ****         //GotoPos(Position_X_Move, TMC5160_nCS_MotorX); // If provided value is steps to move and n
 3463              		.loc 1 625 0
 3464 0032 3220     		movs	r0, #50
 3465 0034 FFF7FEFF 		bl	CyDelayUs
 3466              	.LVL436:
 627:L6470.c       ****         Write_Debug_UART_Char("  \r\n");
 3467              		.loc 1 627 0
 3468 0038 2046     		mov	r0, r4
 3469 003a FFF7FEFF 		bl	Write_Debug_UART_Int
 3470              	.LVL437:
 628:L6470.c       ****         Step_correction_t(Position_T_Requested);
 3471              		.loc 1 628 0
 3472 003e 0C48     		ldr	r0, .L222+8
 3473 0040 FFF7FEFF 		bl	Write_Debug_UART_Char
 3474              	.LVL438:
 629:L6470.c       ****         Read_All_Optical_Encoder();
 3475              		.loc 1 629 0
 3476 0044 2046     		mov	r0, r4
 3477 0046 FFF7FEFF 		bl	Step_correction_t
 3478              	.LVL439:
 630:L6470.c       ****         Buffer_T_QuadPosition = T_QuadPosition;
 3479              		.loc 1 630 0
 3480 004a FFF7FEFF 		bl	Read_All_Optical_Encoder
 3481              	.LVL440:
 631:L6470.c       ****         return Error;
 3482              		.loc 1 631 0
 3483 004e 2B69     		ldr	r3, [r5, #16]
 3484 0050 AB61     		str	r3, [r5, #24]
 632:L6470.c       ****     }
 3485              		.loc 1 632 0
 3486 0052 686B     		ldr	r0, [r5, #52]
 3487 0054 38BD     		pop	{r3, r4, r5, pc}
 3488              	.LVL441:
 3489              	.L219:
 636:L6470.c       ****         Error = All_Homing_Not_Done_Yet;
 3490              		.loc 1 636 0
 3491 0056 0748     		ldr	r0, .L222+12
 3492 0058 FFF7FEFF 		bl	Write_Debug_UART_Char
 3493              	.LVL442:
ARM GAS  C:\Users\Revanth\AppData\Local\Temp\ccSEzD1d.s 			page 99


 637:L6470.c       ****         return Error;
 3494              		.loc 1 637 0
 3495 005c 4FF62920 		movw	r0, #64041
 3496 0060 014B     		ldr	r3, .L222
 3497 0062 5863     		str	r0, [r3, #52]
 641:L6470.c       **** 
 3498              		.loc 1 641 0
 3499 0064 38BD     		pop	{r3, r4, r5, pc}
 3500              	.LVL443:
 3501              	.L223:
 3502 0066 00BF     		.align	2
 3503              	.L222:
 3504 0068 00000000 		.word	.LANCHOR0
 3505 006c 64040000 		.word	.LC36
 3506 0070 10030000 		.word	.LC24
 3507 0074 18030000 		.word	.LC25
 3508              		.cfi_endproc
 3509              	.LFE75:
 3510              		.size	goTo_T, .-goTo_T
 3511              		.section	.text.goTo_XYZ,"ax",%progbits
 3512              		.align	2
 3513              		.global	goTo_XYZ
 3514              		.thumb
 3515              		.thumb_func
 3516              		.type	goTo_XYZ, %function
 3517              	goTo_XYZ:
 3518              	.LFB77:
 703:L6470.c       ****     Read_All_Optical_Encoder();
 3519              		.loc 1 703 0
 3520              		.cfi_startproc
 3521              		@ args = 0, pretend = 0, frame = 0
 3522              		@ frame_needed = 0, uses_anonymous_args = 0
 3523              	.LVL444:
 3524 0000 F8B5     		push	{r3, r4, r5, r6, r7, lr}
 3525              		.cfi_def_cfa_offset 24
 3526              		.cfi_offset 3, -24
 3527              		.cfi_offset 4, -20
 3528              		.cfi_offset 5, -16
 3529              		.cfi_offset 6, -12
 3530              		.cfi_offset 7, -8
 3531              		.cfi_offset 14, -4
 3532 0002 0546     		mov	r5, r0
 3533 0004 0F46     		mov	r7, r1
 3534 0006 1646     		mov	r6, r2
 704:L6470.c       ****     //X_last_position = X_QuadPosition;
 3535              		.loc 1 704 0
 3536 0008 FFF7FEFF 		bl	Read_All_Optical_Encoder
 3537              	.LVL445:
 706:L6470.c       ****     GotoPos(Position_X_Requested, TMC5160_nCS_MotorX); // If provided value is position and not the
 3538              		.loc 1 706 0
 3539 000c 1B48     		ldr	r0, .L226
 3540 000e FFF7FEFF 		bl	Write_Debug_UART_Char
 3541              	.LVL446:
 707:L6470.c       ****     GotoPos(Position_Y_Requested, TMC5160_nCS_MotorY);
 3542              		.loc 1 707 0
 3543 0012 0021     		movs	r1, #0
 3544 0014 2846     		mov	r0, r5
ARM GAS  C:\Users\Revanth\AppData\Local\Temp\ccSEzD1d.s 			page 100


 3545 0016 FFF7FEFF 		bl	GotoPos
 3546              	.LVL447:
 708:L6470.c       ****     Enable_Encoder_Z(-Buffer_Z_QuadPosition);
 3547              		.loc 1 708 0
 3548 001a 0121     		movs	r1, #1
 3549 001c 3846     		mov	r0, r7
 3550 001e FFF7FEFF 		bl	GotoPos
 3551              	.LVL448:
 709:L6470.c       ****     GotoPos(Position_Z_Requested, TMC5160_nCS_MotorZ);
 3552              		.loc 1 709 0
 3553 0022 174C     		ldr	r4, .L226+4
 3554 0024 6069     		ldr	r0, [r4, #20]
 3555 0026 4042     		negs	r0, r0
 3556 0028 FFF7FEFF 		bl	Enable_Encoder_Z
 3557              	.LVL449:
 710:L6470.c       ****     
 3558              		.loc 1 710 0
 3559 002c 0221     		movs	r1, #2
 3560 002e 3046     		mov	r0, r6
 3561 0030 FFF7FEFF 		bl	GotoPos
 3562              	.LVL450:
 712:L6470.c       ****     WaitTillPositionReached (TMC5160_nCS_MotorY);
 3563              		.loc 1 712 0
 3564 0034 0020     		movs	r0, #0
 3565 0036 FFF7FEFF 		bl	WaitTillPositionReached
 3566              	.LVL451:
 713:L6470.c       ****     WaitTillPositionReached (TMC5160_nCS_MotorZ);
 3567              		.loc 1 713 0
 3568 003a 0120     		movs	r0, #1
 3569 003c FFF7FEFF 		bl	WaitTillPositionReached
 3570              	.LVL452:
 714:L6470.c       ****     
 3571              		.loc 1 714 0
 3572 0040 0220     		movs	r0, #2
 3573 0042 FFF7FEFF 		bl	WaitTillPositionReached
 3574              	.LVL453:
 716:L6470.c       ****     Step_correction_y(Position_Y_Requested);
 3575              		.loc 1 716 0
 3576 0046 2846     		mov	r0, r5
 3577 0048 FFF7FEFF 		bl	Step_correction_x
 3578              	.LVL454:
 717:L6470.c       ****     Step_correction_z(Position_Z_Requested);
 3579              		.loc 1 717 0
 3580 004c 3846     		mov	r0, r7
 3581 004e FFF7FEFF 		bl	Step_correction_y
 3582              	.LVL455:
 718:L6470.c       ****     
 3583              		.loc 1 718 0
 3584 0052 3046     		mov	r0, r6
 3585 0054 FFF7FEFF 		bl	Step_correction_z
 3586              	.LVL456:
 720:L6470.c       ****     Buffer_Z_QuadPosition = Z_QuadPosition;
 3587              		.loc 1 720 0
 3588 0058 FFF7FEFF 		bl	Read_All_Optical_Encoder
 3589              	.LVL457:
 721:L6470.c       ****     
 3590              		.loc 1 721 0
ARM GAS  C:\Users\Revanth\AppData\Local\Temp\ccSEzD1d.s 			page 101


 3591 005c E368     		ldr	r3, [r4, #12]
 3592 005e 6361     		str	r3, [r4, #20]
 723:L6470.c       ****     //GotoPos(Position_X_Move, TMC5160_nCS_MotorX); // If provided value is steps to move and not t
 3593              		.loc 1 723 0
 3594 0060 3220     		movs	r0, #50
 3595 0062 FFF7FEFF 		bl	CyDelayUs
 3596              	.LVL458:
 725:L6470.c       ****     Write_Debug_UART_Char("  \r\n");
 3597              		.loc 1 725 0
 3598 0066 2846     		mov	r0, r5
 3599 0068 FFF7FEFF 		bl	Write_Debug_UART_Int
 3600              	.LVL459:
 726:L6470.c       ****     Step_correction_x(Position_X_Requested);
 3601              		.loc 1 726 0
 3602 006c 0548     		ldr	r0, .L226+8
 3603 006e FFF7FEFF 		bl	Write_Debug_UART_Char
 3604              	.LVL460:
 727:L6470.c       ****     return Error;  
 3605              		.loc 1 727 0
 3606 0072 2846     		mov	r0, r5
 3607 0074 FFF7FEFF 		bl	Step_correction_x
 3608              	.LVL461:
 730:L6470.c       **** 
 3609              		.loc 1 730 0
 3610 0078 606B     		ldr	r0, [r4, #52]
 3611 007a F8BD     		pop	{r3, r4, r5, r6, r7, pc}
 3612              	.LVL462:
 3613              	.L227:
 3614              		.align	2
 3615              	.L226:
 3616 007c F4020000 		.word	.LC23
 3617 0080 00000000 		.word	.LANCHOR0
 3618 0084 10030000 		.word	.LC24
 3619              		.cfi_endproc
 3620              	.LFE77:
 3621              		.size	goTo_XYZ, .-goTo_XYZ
 3622              		.section	.text.update_max_velocity,"ax",%progbits
 3623              		.align	2
 3624              		.global	update_max_velocity
 3625              		.thumb
 3626              		.thumb_func
 3627              		.type	update_max_velocity, %function
 3628              	update_max_velocity:
 3629              	.LFB107:
1683:L6470.c       **** 
1684:L6470.c       **** int update_max_velocity(int velocity, uint8_t Motor)
1685:L6470.c       **** {
 3630              		.loc 1 1685 0
 3631              		.cfi_startproc
 3632              		@ args = 0, pretend = 0, frame = 0
 3633              		@ frame_needed = 0, uses_anonymous_args = 0
 3634              	.LVL463:
 3635 0000 08B5     		push	{r3, lr}
 3636              		.cfi_def_cfa_offset 8
 3637              		.cfi_offset 3, -8
 3638              		.cfi_offset 14, -4
1686:L6470.c       ****     Write_32bitSPI_DATA (0x27  , (int) velocity, Motor); 
ARM GAS  C:\Users\Revanth\AppData\Local\Temp\ccSEzD1d.s 			page 102


 3639              		.loc 1 1686 0
 3640 0002 0A46     		mov	r2, r1
 3641 0004 0146     		mov	r1, r0
 3642              	.LVL464:
 3643 0006 2720     		movs	r0, #39
 3644              	.LVL465:
 3645 0008 FFF7FEFF 		bl	Write_32bitSPI_DATA
 3646              	.LVL466:
1687:L6470.c       ****     return 0;
1688:L6470.c       **** }
 3647              		.loc 1 1688 0
 3648 000c 0020     		movs	r0, #0
 3649 000e 08BD     		pop	{r3, pc}
 3650              		.cfi_endproc
 3651              	.LFE107:
 3652              		.size	update_max_velocity, .-update_max_velocity
 3653              		.section	.text.homeX,"ax",%progbits
 3654              		.align	2
 3655              		.global	homeX
 3656              		.thumb
 3657              		.thumb_func
 3658              		.type	homeX, %function
 3659              	homeX:
 3660              	.LFB65:
 103:L6470.c       **** update_max_velocity(51200, Motor);
 3661              		.loc 1 103 0
 3662              		.cfi_startproc
 3663              		@ args = 0, pretend = 0, frame = 0
 3664              		@ frame_needed = 0, uses_anonymous_args = 0
 3665              	.LVL467:
 3666 0000 70B5     		push	{r4, r5, r6, lr}
 3667              		.cfi_def_cfa_offset 16
 3668              		.cfi_offset 4, -16
 3669              		.cfi_offset 5, -12
 3670              		.cfi_offset 6, -8
 3671              		.cfi_offset 14, -4
 3672 0002 0446     		mov	r4, r0
 104:L6470.c       **** Write_32bitSPI_DATA (0x20  , (int) 0x00000002, Motor );
 3673              		.loc 1 104 0
 3674 0004 0146     		mov	r1, r0
 3675 0006 4FF44840 		mov	r0, #51200
 3676              	.LVL468:
 3677 000a FFF7FEFF 		bl	update_max_velocity
 3678              	.LVL469:
 105:L6470.c       **** CyDelayUs(200);
 3679              		.loc 1 105 0
 3680 000e 2246     		mov	r2, r4
 3681 0010 0221     		movs	r1, #2
 3682 0012 2020     		movs	r0, #32
 3683 0014 FFF7FEFF 		bl	Write_32bitSPI_DATA
 3684              	.LVL470:
 106:L6470.c       **** Read_32bitSPI_DATA(0x04, Motor, &status_y);
 3685              		.loc 1 106 0
 3686 0018 C820     		movs	r0, #200
 3687 001a FFF7FEFF 		bl	CyDelayUs
 3688              	.LVL471:
 107:L6470.c       **** CyDelayUs(500);
ARM GAS  C:\Users\Revanth\AppData\Local\Temp\ccSEzD1d.s 			page 103


 3689              		.loc 1 107 0
 3690 001e 514D     		ldr	r5, .L238
 3691 0020 2A46     		mov	r2, r5
 3692 0022 2146     		mov	r1, r4
 3693 0024 0420     		movs	r0, #4
 3694 0026 FFF7FEFF 		bl	Read_32bitSPI_DATA
 3695              	.LVL472:
 108:L6470.c       **** Read_32bitSPI_DATA(0x04, Motor, &status_y);
 3696              		.loc 1 108 0
 3697 002a 4FF4FA70 		mov	r0, #500
 3698 002e FFF7FEFF 		bl	CyDelayUs
 3699              	.LVL473:
 109:L6470.c       **** while ( (status_y & 0x40) == 0x00)
 3700              		.loc 1 109 0
 3701 0032 2A46     		mov	r2, r5
 3702 0034 2146     		mov	r1, r4
 3703 0036 0420     		movs	r0, #4
 3704 0038 FFF7FEFF 		bl	Read_32bitSPI_DATA
 3705              	.LVL474:
 110:L6470.c       **** {
 3706              		.loc 1 110 0
 3707 003c 07E0     		b	.L231
 3708              	.L232:
 112:L6470.c       ****    CyDelayUs(100);
 3709              		.loc 1 112 0
 3710 003e 494A     		ldr	r2, .L238
 3711 0040 2146     		mov	r1, r4
 3712 0042 0420     		movs	r0, #4
 3713 0044 FFF7FEFF 		bl	Read_32bitSPI_DATA
 3714              	.LVL475:
 113:L6470.c       **** }
 3715              		.loc 1 113 0
 3716 0048 6420     		movs	r0, #100
 3717 004a FFF7FEFF 		bl	CyDelayUs
 3718              	.LVL476:
 3719              	.L231:
 110:L6470.c       **** {
 3720              		.loc 1 110 0
 3721 004e 454B     		ldr	r3, .L238
 3722 0050 1B78     		ldrb	r3, [r3]	@ zero_extendqisi2
 3723 0052 13F0400F 		tst	r3, #64
 3724 0056 F2D0     		beq	.L232
 115:L6470.c       **** CyDelayUs(10);
 3725              		.loc 1 115 0
 3726 0058 2246     		mov	r2, r4
 3727 005a 0021     		movs	r1, #0
 3728 005c 2120     		movs	r0, #33
 3729 005e FFF7FEFF 		bl	Write_32bitSPI_DATA
 3730              	.LVL477:
 116:L6470.c       **** GotoPos(((256*200)*2), Motor);
 3731              		.loc 1 116 0
 3732 0062 0A20     		movs	r0, #10
 3733 0064 FFF7FEFF 		bl	CyDelayUs
 3734              	.LVL478:
 117:L6470.c       **** CyDelayUs(500);
 3735              		.loc 1 117 0
 3736 0068 2146     		mov	r1, r4
ARM GAS  C:\Users\Revanth\AppData\Local\Temp\ccSEzD1d.s 			page 104


 3737 006a 4FF4C830 		mov	r0, #102400
 3738 006e FFF7FEFF 		bl	GotoPos
 3739              	.LVL479:
 118:L6470.c       **** Read_32bitSPI_DATA(0x04, Motor, &status_x);
 3740              		.loc 1 118 0
 3741 0072 4FF4FA70 		mov	r0, #500
 3742 0076 FFF7FEFF 		bl	CyDelayUs
 3743              	.LVL480:
 119:L6470.c       **** CyDelayUs(500);
 3744              		.loc 1 119 0
 3745 007a 3B4D     		ldr	r5, .L238+4
 3746 007c 2A46     		mov	r2, r5
 3747 007e 2146     		mov	r1, r4
 3748 0080 0420     		movs	r0, #4
 3749 0082 FFF7FEFF 		bl	Read_32bitSPI_DATA
 3750              	.LVL481:
 120:L6470.c       **** Read_32bitSPI_DATA(0x04, Motor, &status_x);
 3751              		.loc 1 120 0
 3752 0086 4FF4FA70 		mov	r0, #500
 3753 008a FFF7FEFF 		bl	CyDelayUs
 3754              	.LVL482:
 121:L6470.c       **** while ( (status_x & 0x20) == 0x00)
 3755              		.loc 1 121 0
 3756 008e 2A46     		mov	r2, r5
 3757 0090 2146     		mov	r1, r4
 3758 0092 0420     		movs	r0, #4
 3759 0094 FFF7FEFF 		bl	Read_32bitSPI_DATA
 3760              	.LVL483:
 122:L6470.c       **** {
 3761              		.loc 1 122 0
 3762 0098 07E0     		b	.L233
 3763              	.L234:
 124:L6470.c       ****     CyDelayUs(100);
 3764              		.loc 1 124 0
 3765 009a 334A     		ldr	r2, .L238+4
 3766 009c 2146     		mov	r1, r4
 3767 009e 0420     		movs	r0, #4
 3768 00a0 FFF7FEFF 		bl	Read_32bitSPI_DATA
 3769              	.LVL484:
 125:L6470.c       ****    
 3770              		.loc 1 125 0
 3771 00a4 6420     		movs	r0, #100
 3772 00a6 FFF7FEFF 		bl	CyDelayUs
 3773              	.LVL485:
 3774              	.L233:
 122:L6470.c       **** {
 3775              		.loc 1 122 0
 3776 00aa 2F4B     		ldr	r3, .L238+4
 3777 00ac 1B78     		ldrb	r3, [r3]	@ zero_extendqisi2
 3778 00ae 13F0200F 		tst	r3, #32
 3779 00b2 F2D0     		beq	.L234
 128:L6470.c       **** Write_32bitSPI_DATA (0x20  , (int) 0x00000002, Motor );
 3780              		.loc 1 128 0
 3781 00b4 2146     		mov	r1, r4
 3782 00b6 4FF44840 		mov	r0, #51200
 3783 00ba FFF7FEFF 		bl	update_max_velocity
 3784              	.LVL486:
ARM GAS  C:\Users\Revanth\AppData\Local\Temp\ccSEzD1d.s 			page 105


 129:L6470.c       **** CyDelayUs(200);
 3785              		.loc 1 129 0
 3786 00be 2246     		mov	r2, r4
 3787 00c0 0221     		movs	r1, #2
 3788 00c2 2020     		movs	r0, #32
 3789 00c4 FFF7FEFF 		bl	Write_32bitSPI_DATA
 3790              	.LVL487:
 130:L6470.c       **** Read_32bitSPI_DATA(0x04, Motor, &status_y);
 3791              		.loc 1 130 0
 3792 00c8 C820     		movs	r0, #200
 3793 00ca FFF7FEFF 		bl	CyDelayUs
 3794              	.LVL488:
 131:L6470.c       **** CyDelayUs(500);
 3795              		.loc 1 131 0
 3796 00ce 254D     		ldr	r5, .L238
 3797 00d0 2A46     		mov	r2, r5
 3798 00d2 2146     		mov	r1, r4
 3799 00d4 0420     		movs	r0, #4
 3800 00d6 FFF7FEFF 		bl	Read_32bitSPI_DATA
 3801              	.LVL489:
 132:L6470.c       **** Read_32bitSPI_DATA(0x04, Motor, &status_y);
 3802              		.loc 1 132 0
 3803 00da 4FF4FA70 		mov	r0, #500
 3804 00de FFF7FEFF 		bl	CyDelayUs
 3805              	.LVL490:
 133:L6470.c       **** while ( (status_y & 0x40) == 0x00)
 3806              		.loc 1 133 0
 3807 00e2 2A46     		mov	r2, r5
 3808 00e4 2146     		mov	r1, r4
 3809 00e6 0420     		movs	r0, #4
 3810 00e8 FFF7FEFF 		bl	Read_32bitSPI_DATA
 3811              	.LVL491:
 134:L6470.c       **** {
 3812              		.loc 1 134 0
 3813 00ec 07E0     		b	.L235
 3814              	.L236:
 136:L6470.c       ****    CyDelayUs(100);
 3815              		.loc 1 136 0
 3816 00ee 1D4A     		ldr	r2, .L238
 3817 00f0 2146     		mov	r1, r4
 3818 00f2 0420     		movs	r0, #4
 3819 00f4 FFF7FEFF 		bl	Read_32bitSPI_DATA
 3820              	.LVL492:
 137:L6470.c       **** }
 3821              		.loc 1 137 0
 3822 00f8 6420     		movs	r0, #100
 3823 00fa FFF7FEFF 		bl	CyDelayUs
 3824              	.LVL493:
 3825              	.L235:
 134:L6470.c       **** {
 3826              		.loc 1 134 0
 3827 00fe 194B     		ldr	r3, .L238
 3828 0100 1B78     		ldrb	r3, [r3]	@ zero_extendqisi2
 3829 0102 13F0400F 		tst	r3, #64
 3830 0106 F2D0     		beq	.L236
 140:L6470.c       **** //X_last_position = 0;
 3831              		.loc 1 140 0
ARM GAS  C:\Users\Revanth\AppData\Local\Temp\ccSEzD1d.s 			page 106


 3832 0108 0022     		movs	r2, #0
 3833 010a 1146     		mov	r1, r2
 3834 010c 2120     		movs	r0, #33
 3835 010e FFF7FEFF 		bl	Write_32bitSPI_DATA
 3836              	.LVL494:
 142:L6470.c       **** CyDelayUs(100);
 3837              		.loc 1 142 0
 3838 0112 0020     		movs	r0, #0
 3839 0114 FFF7FEFF 		bl	QuadDec_X_SetCounter
 3840              	.LVL495:
 143:L6470.c       **** goTo_X((256*200)*1);
 3841              		.loc 1 143 0
 3842 0118 6420     		movs	r0, #100
 3843 011a FFF7FEFF 		bl	CyDelayUs
 3844              	.LVL496:
 144:L6470.c       **** HomeX_done = false;
 3845              		.loc 1 144 0
 3846 011e 4FF44840 		mov	r0, #51200
 3847 0122 FFF7FEFF 		bl	goTo_X
 3848              	.LVL497:
 145:L6470.c       **** CyDelayUs(100);
 3849              		.loc 1 145 0
 3850 0126 114E     		ldr	r6, .L238+8
 3851 0128 0025     		movs	r5, #0
 3852 012a 7577     		strb	r5, [r6, #29]
 146:L6470.c       **** Write_32bitSPI_DATA (0x21  , (int) 0x0000000, Motor); 
 3853              		.loc 1 146 0
 3854 012c 6420     		movs	r0, #100
 3855 012e FFF7FEFF 		bl	CyDelayUs
 3856              	.LVL498:
 147:L6470.c       **** Write_32bitSPI_DATA (0x2D  , 0x00000000, Motor );
 3857              		.loc 1 147 0
 3858 0132 2246     		mov	r2, r4
 3859 0134 2946     		mov	r1, r5
 3860 0136 2120     		movs	r0, #33
 3861 0138 FFF7FEFF 		bl	Write_32bitSPI_DATA
 3862              	.LVL499:
 148:L6470.c       **** update_max_velocity(0x0007A5C3, Motor);
 3863              		.loc 1 148 0
 3864 013c 2246     		mov	r2, r4
 3865 013e 2946     		mov	r1, r5
 3866 0140 2D20     		movs	r0, #45
 3867 0142 FFF7FEFF 		bl	Write_32bitSPI_DATA
 3868              	.LVL500:
 149:L6470.c       **** 
 3869              		.loc 1 149 0
 3870 0146 2146     		mov	r1, r4
 3871 0148 0948     		ldr	r0, .L238+12
 3872 014a FFF7FEFF 		bl	update_max_velocity
 3873              	.LVL501:
 152:L6470.c       **** X_QuadPosition =0 ;
 3874              		.loc 1 152 0
 3875 014e 2846     		mov	r0, r5
 3876 0150 FFF7FEFF 		bl	QuadDec_X_SetCounter
 3877              	.LVL502:
 153:L6470.c       **** HomeX_done = true;
 3878              		.loc 1 153 0
ARM GAS  C:\Users\Revanth\AppData\Local\Temp\ccSEzD1d.s 			page 107


 3879 0154 074B     		ldr	r3, .L238+16
 3880 0156 5D60     		str	r5, [r3, #4]
 154:L6470.c       **** Write_Debug_UART_Char("HomeX executed  \r\n");
 3881              		.loc 1 154 0
 3882 0158 0123     		movs	r3, #1
 3883 015a 7377     		strb	r3, [r6, #29]
 155:L6470.c       **** ////
 3884              		.loc 1 155 0
 3885 015c 0648     		ldr	r0, .L238+20
 3886 015e FFF7FEFF 		bl	Write_Debug_UART_Char
 3887              	.LVL503:
 3888 0162 70BD     		pop	{r4, r5, r6, pc}
 3889              	.L239:
 3890              		.align	2
 3891              	.L238:
 3892 0164 00000000 		.word	status_y
 3893 0168 00000000 		.word	status_x
 3894 016c 00000000 		.word	.LANCHOR1
 3895 0170 C3A50700 		.word	501187
 3896 0174 00000000 		.word	.LANCHOR0
 3897 0178 80040000 		.word	.LC37
 3898              		.cfi_endproc
 3899              	.LFE65:
 3900              		.size	homeX, .-homeX
 3901              		.section	.text.homeY,"ax",%progbits
 3902              		.align	2
 3903              		.global	homeY
 3904              		.thumb
 3905              		.thumb_func
 3906              		.type	homeY, %function
 3907              	homeY:
 3908              	.LFB66:
 164:L6470.c       **** update_max_velocity(51200, Motor);
 3909              		.loc 1 164 0
 3910              		.cfi_startproc
 3911              		@ args = 0, pretend = 0, frame = 0
 3912              		@ frame_needed = 0, uses_anonymous_args = 0
 3913              	.LVL504:
 3914 0000 70B5     		push	{r4, r5, r6, lr}
 3915              		.cfi_def_cfa_offset 16
 3916              		.cfi_offset 4, -16
 3917              		.cfi_offset 5, -12
 3918              		.cfi_offset 6, -8
 3919              		.cfi_offset 14, -4
 3920 0002 0446     		mov	r4, r0
 165:L6470.c       **** Write_32bitSPI_DATA (0x20  , (int) 0x00000002, Motor );
 3921              		.loc 1 165 0
 3922 0004 0146     		mov	r1, r0
 3923 0006 4FF44840 		mov	r0, #51200
 3924              	.LVL505:
 3925 000a FFF7FEFF 		bl	update_max_velocity
 3926              	.LVL506:
 166:L6470.c       **** CyDelayUs(50);
 3927              		.loc 1 166 0
 3928 000e 2246     		mov	r2, r4
 3929 0010 0221     		movs	r1, #2
 3930 0012 2020     		movs	r0, #32
ARM GAS  C:\Users\Revanth\AppData\Local\Temp\ccSEzD1d.s 			page 108


 3931 0014 FFF7FEFF 		bl	Write_32bitSPI_DATA
 3932              	.LVL507:
 167:L6470.c       **** Read_32bitSPI_DATA(0x04, Motor, &status_y);
 3933              		.loc 1 167 0
 3934 0018 3220     		movs	r0, #50
 3935 001a FFF7FEFF 		bl	CyDelayUs
 3936              	.LVL508:
 168:L6470.c       **** CyDelayUs(500);
 3937              		.loc 1 168 0
 3938 001e 514D     		ldr	r5, .L248
 3939 0020 2A46     		mov	r2, r5
 3940 0022 2146     		mov	r1, r4
 3941 0024 0420     		movs	r0, #4
 3942 0026 FFF7FEFF 		bl	Read_32bitSPI_DATA
 3943              	.LVL509:
 169:L6470.c       **** Read_32bitSPI_DATA(0x04, Motor, &status_y);
 3944              		.loc 1 169 0
 3945 002a 4FF4FA70 		mov	r0, #500
 3946 002e FFF7FEFF 		bl	CyDelayUs
 3947              	.LVL510:
 170:L6470.c       **** while ( (status_y & 0x40) == 0x00)
 3948              		.loc 1 170 0
 3949 0032 2A46     		mov	r2, r5
 3950 0034 2146     		mov	r1, r4
 3951 0036 0420     		movs	r0, #4
 3952 0038 FFF7FEFF 		bl	Read_32bitSPI_DATA
 3953              	.LVL511:
 171:L6470.c       **** {
 3954              		.loc 1 171 0
 3955 003c 07E0     		b	.L241
 3956              	.L242:
 173:L6470.c       ****    CyDelayUs(100);
 3957              		.loc 1 173 0
 3958 003e 494A     		ldr	r2, .L248
 3959 0040 2146     		mov	r1, r4
 3960 0042 0420     		movs	r0, #4
 3961 0044 FFF7FEFF 		bl	Read_32bitSPI_DATA
 3962              	.LVL512:
 174:L6470.c       **** }
 3963              		.loc 1 174 0
 3964 0048 6420     		movs	r0, #100
 3965 004a FFF7FEFF 		bl	CyDelayUs
 3966              	.LVL513:
 3967              	.L241:
 171:L6470.c       **** {
 3968              		.loc 1 171 0
 3969 004e 454B     		ldr	r3, .L248
 3970 0050 1B78     		ldrb	r3, [r3]	@ zero_extendqisi2
 3971 0052 13F0400F 		tst	r3, #64
 3972 0056 F2D0     		beq	.L242
 176:L6470.c       **** CyDelayUs(10);
 3973              		.loc 1 176 0
 3974 0058 2246     		mov	r2, r4
 3975 005a 0021     		movs	r1, #0
 3976 005c 2120     		movs	r0, #33
 3977 005e FFF7FEFF 		bl	Write_32bitSPI_DATA
 3978              	.LVL514:
ARM GAS  C:\Users\Revanth\AppData\Local\Temp\ccSEzD1d.s 			page 109


 177:L6470.c       **** GotoPos(((256*200)*1), Motor);
 3979              		.loc 1 177 0
 3980 0062 0A20     		movs	r0, #10
 3981 0064 FFF7FEFF 		bl	CyDelayUs
 3982              	.LVL515:
 178:L6470.c       **** CyDelayUs(500);
 3983              		.loc 1 178 0
 3984 0068 2146     		mov	r1, r4
 3985 006a 4FF44840 		mov	r0, #51200
 3986 006e FFF7FEFF 		bl	GotoPos
 3987              	.LVL516:
 179:L6470.c       **** Read_32bitSPI_DATA(0x04, Motor, &status_y);
 3988              		.loc 1 179 0
 3989 0072 4FF4FA70 		mov	r0, #500
 3990 0076 FFF7FEFF 		bl	CyDelayUs
 3991              	.LVL517:
 180:L6470.c       **** CyDelayUs(500);
 3992              		.loc 1 180 0
 3993 007a 3A4D     		ldr	r5, .L248
 3994 007c 2A46     		mov	r2, r5
 3995 007e 2146     		mov	r1, r4
 3996 0080 0420     		movs	r0, #4
 3997 0082 FFF7FEFF 		bl	Read_32bitSPI_DATA
 3998              	.LVL518:
 181:L6470.c       **** Read_32bitSPI_DATA(0x04, Motor, &status_y);
 3999              		.loc 1 181 0
 4000 0086 4FF4FA70 		mov	r0, #500
 4001 008a FFF7FEFF 		bl	CyDelayUs
 4002              	.LVL519:
 182:L6470.c       **** while ( (status_y & 0x20) == 0x00)
 4003              		.loc 1 182 0
 4004 008e 2A46     		mov	r2, r5
 4005 0090 2146     		mov	r1, r4
 4006 0092 0420     		movs	r0, #4
 4007 0094 FFF7FEFF 		bl	Read_32bitSPI_DATA
 4008              	.LVL520:
 183:L6470.c       **** {
 4009              		.loc 1 183 0
 4010 0098 07E0     		b	.L243
 4011              	.L244:
 185:L6470.c       ****     CyDelayUs(100);
 4012              		.loc 1 185 0
 4013 009a 324A     		ldr	r2, .L248
 4014 009c 2146     		mov	r1, r4
 4015 009e 0420     		movs	r0, #4
 4016 00a0 FFF7FEFF 		bl	Read_32bitSPI_DATA
 4017              	.LVL521:
 186:L6470.c       ****    
 4018              		.loc 1 186 0
 4019 00a4 6420     		movs	r0, #100
 4020 00a6 FFF7FEFF 		bl	CyDelayUs
 4021              	.LVL522:
 4022              	.L243:
 183:L6470.c       **** {
 4023              		.loc 1 183 0
 4024 00aa 2E4B     		ldr	r3, .L248
 4025 00ac 1B78     		ldrb	r3, [r3]	@ zero_extendqisi2
ARM GAS  C:\Users\Revanth\AppData\Local\Temp\ccSEzD1d.s 			page 110


 4026 00ae 13F0200F 		tst	r3, #32
 4027 00b2 F2D0     		beq	.L244
 189:L6470.c       **** Write_32bitSPI_DATA (0x20  , (int) 0x00000002, Motor );
 4028              		.loc 1 189 0
 4029 00b4 2146     		mov	r1, r4
 4030 00b6 4FF44840 		mov	r0, #51200
 4031 00ba FFF7FEFF 		bl	update_max_velocity
 4032              	.LVL523:
 190:L6470.c       **** CyDelayUs(200);
 4033              		.loc 1 190 0
 4034 00be 2246     		mov	r2, r4
 4035 00c0 0221     		movs	r1, #2
 4036 00c2 2020     		movs	r0, #32
 4037 00c4 FFF7FEFF 		bl	Write_32bitSPI_DATA
 4038              	.LVL524:
 191:L6470.c       **** Read_32bitSPI_DATA(0x04, Motor, &status_y);
 4039              		.loc 1 191 0
 4040 00c8 C820     		movs	r0, #200
 4041 00ca FFF7FEFF 		bl	CyDelayUs
 4042              	.LVL525:
 192:L6470.c       **** CyDelayUs(500);
 4043              		.loc 1 192 0
 4044 00ce 254D     		ldr	r5, .L248
 4045 00d0 2A46     		mov	r2, r5
 4046 00d2 2146     		mov	r1, r4
 4047 00d4 0420     		movs	r0, #4
 4048 00d6 FFF7FEFF 		bl	Read_32bitSPI_DATA
 4049              	.LVL526:
 193:L6470.c       **** Read_32bitSPI_DATA(0x04, Motor, &status_y);
 4050              		.loc 1 193 0
 4051 00da 4FF4FA70 		mov	r0, #500
 4052 00de FFF7FEFF 		bl	CyDelayUs
 4053              	.LVL527:
 194:L6470.c       **** while ( (status_y & 0x40) == 0x00)
 4054              		.loc 1 194 0
 4055 00e2 2A46     		mov	r2, r5
 4056 00e4 2146     		mov	r1, r4
 4057 00e6 0420     		movs	r0, #4
 4058 00e8 FFF7FEFF 		bl	Read_32bitSPI_DATA
 4059              	.LVL528:
 195:L6470.c       **** {
 4060              		.loc 1 195 0
 4061 00ec 07E0     		b	.L245
 4062              	.L246:
 197:L6470.c       ****    CyDelayUs(100);
 4063              		.loc 1 197 0
 4064 00ee 1D4A     		ldr	r2, .L248
 4065 00f0 2146     		mov	r1, r4
 4066 00f2 0420     		movs	r0, #4
 4067 00f4 FFF7FEFF 		bl	Read_32bitSPI_DATA
 4068              	.LVL529:
 198:L6470.c       **** }
 4069              		.loc 1 198 0
 4070 00f8 6420     		movs	r0, #100
 4071 00fa FFF7FEFF 		bl	CyDelayUs
 4072              	.LVL530:
 4073              	.L245:
ARM GAS  C:\Users\Revanth\AppData\Local\Temp\ccSEzD1d.s 			page 111


 195:L6470.c       **** {
 4074              		.loc 1 195 0
 4075 00fe 194B     		ldr	r3, .L248
 4076 0100 1B78     		ldrb	r3, [r3]	@ zero_extendqisi2
 4077 0102 13F0400F 		tst	r3, #64
 4078 0106 F2D0     		beq	.L246
 201:L6470.c       **** //Y_last_position = 0;
 4079              		.loc 1 201 0
 4080 0108 2246     		mov	r2, r4
 4081 010a 0021     		movs	r1, #0
 4082 010c 2120     		movs	r0, #33
 4083 010e FFF7FEFF 		bl	Write_32bitSPI_DATA
 4084              	.LVL531:
 203:L6470.c       **** CyDelayUs(100);
 4085              		.loc 1 203 0
 4086 0112 0020     		movs	r0, #0
 4087 0114 FFF7FEFF 		bl	QuadDec_Y_SetCounter
 4088              	.LVL532:
 204:L6470.c       **** goTo_Y((256*200)*1);
 4089              		.loc 1 204 0
 4090 0118 6420     		movs	r0, #100
 4091 011a FFF7FEFF 		bl	CyDelayUs
 4092              	.LVL533:
 205:L6470.c       **** HomeY_done = false;
 4093              		.loc 1 205 0
 4094 011e 4FF44840 		mov	r0, #51200
 4095 0122 FFF7FEFF 		bl	goTo_Y
 4096              	.LVL534:
 206:L6470.c       **** CyDelayUs(100);
 4097              		.loc 1 206 0
 4098 0126 104E     		ldr	r6, .L248+4
 4099 0128 0025     		movs	r5, #0
 4100 012a 3577     		strb	r5, [r6, #28]
 207:L6470.c       **** Write_32bitSPI_DATA (0x21  , (int) 0x0000000, Motor); 
 4101              		.loc 1 207 0
 4102 012c 6420     		movs	r0, #100
 4103 012e FFF7FEFF 		bl	CyDelayUs
 4104              	.LVL535:
 208:L6470.c       **** Write_32bitSPI_DATA (0x2D  , 0x00000000, Motor );
 4105              		.loc 1 208 0
 4106 0132 2246     		mov	r2, r4
 4107 0134 2946     		mov	r1, r5
 4108 0136 2120     		movs	r0, #33
 4109 0138 FFF7FEFF 		bl	Write_32bitSPI_DATA
 4110              	.LVL536:
 209:L6470.c       **** update_max_velocity(0x0007A5C3, Motor);
 4111              		.loc 1 209 0
 4112 013c 2246     		mov	r2, r4
 4113 013e 2946     		mov	r1, r5
 4114 0140 2D20     		movs	r0, #45
 4115 0142 FFF7FEFF 		bl	Write_32bitSPI_DATA
 4116              	.LVL537:
 210:L6470.c       **** 
 4117              		.loc 1 210 0
 4118 0146 2146     		mov	r1, r4
 4119 0148 0848     		ldr	r0, .L248+8
 4120 014a FFF7FEFF 		bl	update_max_velocity
ARM GAS  C:\Users\Revanth\AppData\Local\Temp\ccSEzD1d.s 			page 112


 4121              	.LVL538:
 213:L6470.c       **** X_QuadPosition =0 ;
 4122              		.loc 1 213 0
 4123 014e 2846     		mov	r0, r5
 4124 0150 FFF7FEFF 		bl	QuadDec_Y_SetCounter
 4125              	.LVL539:
 214:L6470.c       **** HomeY_done = true;
 4126              		.loc 1 214 0
 4127 0154 064B     		ldr	r3, .L248+12
 4128 0156 5D60     		str	r5, [r3, #4]
 215:L6470.c       **** Write_Debug_UART_Char("HomeY executed  \r\n");
 4129              		.loc 1 215 0
 4130 0158 0123     		movs	r3, #1
 4131 015a 3377     		strb	r3, [r6, #28]
 216:L6470.c       **** 
 4132              		.loc 1 216 0
 4133 015c 0548     		ldr	r0, .L248+16
 4134 015e FFF7FEFF 		bl	Write_Debug_UART_Char
 4135              	.LVL540:
 4136 0162 70BD     		pop	{r4, r5, r6, pc}
 4137              	.L249:
 4138              		.align	2
 4139              	.L248:
 4140 0164 00000000 		.word	status_y
 4141 0168 00000000 		.word	.LANCHOR1
 4142 016c C3A50700 		.word	501187
 4143 0170 00000000 		.word	.LANCHOR0
 4144 0174 94040000 		.word	.LC38
 4145              		.cfi_endproc
 4146              	.LFE66:
 4147              		.size	homeY, .-homeY
 4148              		.section	.text.homeZ,"ax",%progbits
 4149              		.align	2
 4150              		.global	homeZ
 4151              		.thumb
 4152              		.thumb_func
 4153              		.type	homeZ, %function
 4154              	homeZ:
 4155              	.LFB67:
 225:L6470.c       **** update_max_velocity(102400, Motor);
 4156              		.loc 1 225 0
 4157              		.cfi_startproc
 4158              		@ args = 0, pretend = 0, frame = 0
 4159              		@ frame_needed = 0, uses_anonymous_args = 0
 4160              	.LVL541:
 4161 0000 F8B5     		push	{r3, r4, r5, r6, r7, lr}
 4162              		.cfi_def_cfa_offset 24
 4163              		.cfi_offset 3, -24
 4164              		.cfi_offset 4, -20
 4165              		.cfi_offset 5, -16
 4166              		.cfi_offset 6, -12
 4167              		.cfi_offset 7, -8
 4168              		.cfi_offset 14, -4
 4169 0002 0446     		mov	r4, r0
 226:L6470.c       **** Enable_Encoder_Z(-Buffer_Z_QuadPosition);
 4170              		.loc 1 226 0
 4171 0004 0146     		mov	r1, r0
ARM GAS  C:\Users\Revanth\AppData\Local\Temp\ccSEzD1d.s 			page 113


 4172 0006 4FF4C830 		mov	r0, #102400
 4173              	.LVL542:
 4174 000a FFF7FEFF 		bl	update_max_velocity
 4175              	.LVL543:
 227:L6470.c       **** Write_32bitSPI_DATA (0x20  , (int) 0x00000002, Motor );
 4176              		.loc 1 227 0
 4177 000e 5B4B     		ldr	r3, .L258
 4178 0010 5869     		ldr	r0, [r3, #20]
 4179 0012 4042     		negs	r0, r0
 4180 0014 FFF7FEFF 		bl	Enable_Encoder_Z
 4181              	.LVL544:
 228:L6470.c       **** CyDelayUs(50);
 4182              		.loc 1 228 0
 4183 0018 2246     		mov	r2, r4
 4184 001a 0221     		movs	r1, #2
 4185 001c 2020     		movs	r0, #32
 4186 001e FFF7FEFF 		bl	Write_32bitSPI_DATA
 4187              	.LVL545:
 229:L6470.c       **** Read_32bitSPI_DATA(0x04, Motor, &status_z);
 4188              		.loc 1 229 0
 4189 0022 3220     		movs	r0, #50
 4190 0024 FFF7FEFF 		bl	CyDelayUs
 4191              	.LVL546:
 230:L6470.c       **** CyDelayUs(500);
 4192              		.loc 1 230 0
 4193 0028 554D     		ldr	r5, .L258+4
 4194 002a 2A46     		mov	r2, r5
 4195 002c 2146     		mov	r1, r4
 4196 002e 0420     		movs	r0, #4
 4197 0030 FFF7FEFF 		bl	Read_32bitSPI_DATA
 4198              	.LVL547:
 231:L6470.c       **** Read_32bitSPI_DATA(0x04, Motor, &status_z);
 4199              		.loc 1 231 0
 4200 0034 4FF4FA70 		mov	r0, #500
 4201 0038 FFF7FEFF 		bl	CyDelayUs
 4202              	.LVL548:
 232:L6470.c       **** while ( (status_z & 0x40) == 0x00)
 4203              		.loc 1 232 0
 4204 003c 2A46     		mov	r2, r5
 4205 003e 2146     		mov	r1, r4
 4206 0040 0420     		movs	r0, #4
 4207 0042 FFF7FEFF 		bl	Read_32bitSPI_DATA
 4208              	.LVL549:
 233:L6470.c       **** {
 4209              		.loc 1 233 0
 4210 0046 07E0     		b	.L251
 4211              	.L252:
 235:L6470.c       ****    CyDelayUs(100);
 4212              		.loc 1 235 0
 4213 0048 4D4A     		ldr	r2, .L258+4
 4214 004a 2146     		mov	r1, r4
 4215 004c 0420     		movs	r0, #4
 4216 004e FFF7FEFF 		bl	Read_32bitSPI_DATA
 4217              	.LVL550:
 236:L6470.c       **** }
 4218              		.loc 1 236 0
 4219 0052 6420     		movs	r0, #100
ARM GAS  C:\Users\Revanth\AppData\Local\Temp\ccSEzD1d.s 			page 114


 4220 0054 FFF7FEFF 		bl	CyDelayUs
 4221              	.LVL551:
 4222              	.L251:
 233:L6470.c       **** {
 4223              		.loc 1 233 0
 4224 0058 494B     		ldr	r3, .L258+4
 4225 005a 1B78     		ldrb	r3, [r3]	@ zero_extendqisi2
 4226 005c 13F0400F 		tst	r3, #64
 4227 0060 F2D0     		beq	.L252
 238:L6470.c       **** //Z_last_position = 0;
 4228              		.loc 1 238 0
 4229 0062 2246     		mov	r2, r4
 4230 0064 0021     		movs	r1, #0
 4231 0066 2120     		movs	r0, #33
 4232 0068 FFF7FEFF 		bl	Write_32bitSPI_DATA
 4233              	.LVL552:
 240:L6470.c       **** Buffer_Z_QuadPosition=0;
 4234              		.loc 1 240 0
 4235 006c 0020     		movs	r0, #0
 4236 006e FFF7FEFF 		bl	Enable_Encoder_Z
 4237              	.LVL553:
 241:L6470.c       **** CyDelayUs(10);
 4238              		.loc 1 241 0
 4239 0072 0022     		movs	r2, #0
 4240 0074 414B     		ldr	r3, .L258
 4241 0076 5A61     		str	r2, [r3, #20]
 242:L6470.c       **** GotoPos(((256*200)*3), Motor);
 4242              		.loc 1 242 0
 4243 0078 0A20     		movs	r0, #10
 4244 007a FFF7FEFF 		bl	CyDelayUs
 4245              	.LVL554:
 243:L6470.c       **** CyDelayUs(500);
 4246              		.loc 1 243 0
 4247 007e 2146     		mov	r1, r4
 4248 0080 4FF41630 		mov	r0, #153600
 4249 0084 FFF7FEFF 		bl	GotoPos
 4250              	.LVL555:
 244:L6470.c       **** Read_32bitSPI_DATA(0x04, Motor, &status_z);
 4251              		.loc 1 244 0
 4252 0088 4FF4FA70 		mov	r0, #500
 4253 008c FFF7FEFF 		bl	CyDelayUs
 4254              	.LVL556:
 245:L6470.c       **** CyDelayUs(500);
 4255              		.loc 1 245 0
 4256 0090 3B4D     		ldr	r5, .L258+4
 4257 0092 2A46     		mov	r2, r5
 4258 0094 2146     		mov	r1, r4
 4259 0096 0420     		movs	r0, #4
 4260 0098 FFF7FEFF 		bl	Read_32bitSPI_DATA
 4261              	.LVL557:
 246:L6470.c       **** Read_32bitSPI_DATA(0x04, Motor, &status_z);
 4262              		.loc 1 246 0
 4263 009c 4FF4FA70 		mov	r0, #500
 4264 00a0 FFF7FEFF 		bl	CyDelayUs
 4265              	.LVL558:
 247:L6470.c       **** while ( (status_z & 0x20) == 0x00)
 4266              		.loc 1 247 0
ARM GAS  C:\Users\Revanth\AppData\Local\Temp\ccSEzD1d.s 			page 115


 4267 00a4 2A46     		mov	r2, r5
 4268 00a6 2146     		mov	r1, r4
 4269 00a8 0420     		movs	r0, #4
 4270 00aa FFF7FEFF 		bl	Read_32bitSPI_DATA
 4271              	.LVL559:
 248:L6470.c       **** {
 4272              		.loc 1 248 0
 4273 00ae 07E0     		b	.L253
 4274              	.L254:
 250:L6470.c       ****     CyDelayUs(100);
 4275              		.loc 1 250 0
 4276 00b0 334A     		ldr	r2, .L258+4
 4277 00b2 2146     		mov	r1, r4
 4278 00b4 0420     		movs	r0, #4
 4279 00b6 FFF7FEFF 		bl	Read_32bitSPI_DATA
 4280              	.LVL560:
 251:L6470.c       ****    
 4281              		.loc 1 251 0
 4282 00ba 6420     		movs	r0, #100
 4283 00bc FFF7FEFF 		bl	CyDelayUs
 4284              	.LVL561:
 4285              	.L253:
 248:L6470.c       **** {
 4286              		.loc 1 248 0
 4287 00c0 2F4B     		ldr	r3, .L258+4
 4288 00c2 1B78     		ldrb	r3, [r3]	@ zero_extendqisi2
 4289 00c4 13F0200F 		tst	r3, #32
 4290 00c8 F2D0     		beq	.L254
 254:L6470.c       **** Write_32bitSPI_DATA (0x20  , (int) 0x00000002, Motor );
 4291              		.loc 1 254 0
 4292 00ca 2146     		mov	r1, r4
 4293 00cc 4FF4C830 		mov	r0, #102400
 4294 00d0 FFF7FEFF 		bl	update_max_velocity
 4295              	.LVL562:
 255:L6470.c       **** CyDelayUs(200);
 4296              		.loc 1 255 0
 4297 00d4 2246     		mov	r2, r4
 4298 00d6 0221     		movs	r1, #2
 4299 00d8 2020     		movs	r0, #32
 4300 00da FFF7FEFF 		bl	Write_32bitSPI_DATA
 4301              	.LVL563:
 256:L6470.c       **** Read_32bitSPI_DATA(0x04, Motor, &status_y);
 4302              		.loc 1 256 0
 4303 00de C820     		movs	r0, #200
 4304 00e0 FFF7FEFF 		bl	CyDelayUs
 4305              	.LVL564:
 257:L6470.c       **** CyDelayUs(500);
 4306              		.loc 1 257 0
 4307 00e4 274D     		ldr	r5, .L258+8
 4308 00e6 2A46     		mov	r2, r5
 4309 00e8 2146     		mov	r1, r4
 4310 00ea 0420     		movs	r0, #4
 4311 00ec FFF7FEFF 		bl	Read_32bitSPI_DATA
 4312              	.LVL565:
 258:L6470.c       **** Read_32bitSPI_DATA(0x04, Motor, &status_y);
 4313              		.loc 1 258 0
 4314 00f0 4FF4FA70 		mov	r0, #500
ARM GAS  C:\Users\Revanth\AppData\Local\Temp\ccSEzD1d.s 			page 116


 4315 00f4 FFF7FEFF 		bl	CyDelayUs
 4316              	.LVL566:
 259:L6470.c       **** while ( (status_y & 0x40) == 0x00)
 4317              		.loc 1 259 0
 4318 00f8 2A46     		mov	r2, r5
 4319 00fa 2146     		mov	r1, r4
 4320 00fc 0420     		movs	r0, #4
 4321 00fe FFF7FEFF 		bl	Read_32bitSPI_DATA
 4322              	.LVL567:
 260:L6470.c       **** {
 4323              		.loc 1 260 0
 4324 0102 07E0     		b	.L255
 4325              	.L256:
 262:L6470.c       ****    CyDelayUs(100);
 4326              		.loc 1 262 0
 4327 0104 1F4A     		ldr	r2, .L258+8
 4328 0106 2146     		mov	r1, r4
 4329 0108 0420     		movs	r0, #4
 4330 010a FFF7FEFF 		bl	Read_32bitSPI_DATA
 4331              	.LVL568:
 263:L6470.c       **** }
 4332              		.loc 1 263 0
 4333 010e 6420     		movs	r0, #100
 4334 0110 FFF7FEFF 		bl	CyDelayUs
 4335              	.LVL569:
 4336              	.L255:
 260:L6470.c       **** {
 4337              		.loc 1 260 0
 4338 0114 1B4B     		ldr	r3, .L258+8
 4339 0116 1B78     		ldrb	r3, [r3]	@ zero_extendqisi2
 4340 0118 13F0400F 		tst	r3, #64
 4341 011c F2D0     		beq	.L256
 266:L6470.c       **** //Z_last_position = 0;
 4342              		.loc 1 266 0
 4343 011e 2246     		mov	r2, r4
 4344 0120 0021     		movs	r1, #0
 4345 0122 2120     		movs	r0, #33
 4346 0124 FFF7FEFF 		bl	Write_32bitSPI_DATA
 4347              	.LVL570:
 268:L6470.c       **** Buffer_Z_QuadPosition=0;
 4348              		.loc 1 268 0
 4349 0128 0020     		movs	r0, #0
 4350 012a FFF7FEFF 		bl	Enable_Encoder_Z
 4351              	.LVL571:
 269:L6470.c       **** CyDelayUs(100);
 4352              		.loc 1 269 0
 4353 012e 134F     		ldr	r7, .L258
 4354 0130 0025     		movs	r5, #0
 4355 0132 7D61     		str	r5, [r7, #20]
 270:L6470.c       **** goTo_Z((256*200)*3);
 4356              		.loc 1 270 0
 4357 0134 6420     		movs	r0, #100
 4358 0136 FFF7FEFF 		bl	CyDelayUs
 4359              	.LVL572:
 271:L6470.c       **** HomeZ_done = false;
 4360              		.loc 1 271 0
 4361 013a 4FF41630 		mov	r0, #153600
ARM GAS  C:\Users\Revanth\AppData\Local\Temp\ccSEzD1d.s 			page 117


 4362 013e FFF7FEFF 		bl	goTo_Z
 4363              	.LVL573:
 272:L6470.c       **** CyDelayUs(100);
 4364              		.loc 1 272 0
 4365 0142 114E     		ldr	r6, .L258+12
 4366 0144 B577     		strb	r5, [r6, #30]
 273:L6470.c       **** Write_32bitSPI_DATA (0x21  , (int) 0x0000000, Motor); 
 4367              		.loc 1 273 0
 4368 0146 6420     		movs	r0, #100
 4369 0148 FFF7FEFF 		bl	CyDelayUs
 4370              	.LVL574:
 274:L6470.c       **** Write_32bitSPI_DATA (0x2D  , 0x00000000, Motor );
 4371              		.loc 1 274 0
 4372 014c 2246     		mov	r2, r4
 4373 014e 2946     		mov	r1, r5
 4374 0150 2120     		movs	r0, #33
 4375 0152 FFF7FEFF 		bl	Write_32bitSPI_DATA
 4376              	.LVL575:
 275:L6470.c       **** update_max_velocity(0x0007A5C3, Motor);
 4377              		.loc 1 275 0
 4378 0156 2246     		mov	r2, r4
 4379 0158 2946     		mov	r1, r5
 4380 015a 2D20     		movs	r0, #45
 4381 015c FFF7FEFF 		bl	Write_32bitSPI_DATA
 4382              	.LVL576:
 276:L6470.c       **** 
 4383              		.loc 1 276 0
 4384 0160 2146     		mov	r1, r4
 4385 0162 0A48     		ldr	r0, .L258+16
 4386 0164 FFF7FEFF 		bl	update_max_velocity
 4387              	.LVL577:
 279:L6470.c       **** Buffer_Z_QuadPosition=0;
 4388              		.loc 1 279 0
 4389 0168 2846     		mov	r0, r5
 4390 016a FFF7FEFF 		bl	Enable_Encoder_Z
 4391              	.LVL578:
 280:L6470.c       **** HomeZ_done = true;
 4392              		.loc 1 280 0
 4393 016e 7D61     		str	r5, [r7, #20]
 281:L6470.c       **** Write_Debug_UART_Char("HomeZ executed  \r\n");
 4394              		.loc 1 281 0
 4395 0170 0123     		movs	r3, #1
 4396 0172 B377     		strb	r3, [r6, #30]
 282:L6470.c       **** 
 4397              		.loc 1 282 0
 4398 0174 0648     		ldr	r0, .L258+20
 4399 0176 FFF7FEFF 		bl	Write_Debug_UART_Char
 4400              	.LVL579:
 4401 017a F8BD     		pop	{r3, r4, r5, r6, r7, pc}
 4402              	.L259:
 4403              		.align	2
 4404              	.L258:
 4405 017c 00000000 		.word	.LANCHOR0
 4406 0180 00000000 		.word	status_z
 4407 0184 00000000 		.word	status_y
 4408 0188 00000000 		.word	.LANCHOR1
 4409 018c C3A50700 		.word	501187
ARM GAS  C:\Users\Revanth\AppData\Local\Temp\ccSEzD1d.s 			page 118


 4410 0190 A8040000 		.word	.LC39
 4411              		.cfi_endproc
 4412              	.LFE67:
 4413              		.size	homeZ, .-homeZ
 4414              		.section	.text.homeT,"ax",%progbits
 4415              		.align	2
 4416              		.global	homeT
 4417              		.thumb
 4418              		.thumb_func
 4419              		.type	homeT, %function
 4420              	homeT:
 4421              	.LFB68:
 291:L6470.c       **** update_max_velocity(51200, Motor);
 4422              		.loc 1 291 0
 4423              		.cfi_startproc
 4424              		@ args = 0, pretend = 0, frame = 0
 4425              		@ frame_needed = 0, uses_anonymous_args = 0
 4426              	.LVL580:
 4427 0000 F8B5     		push	{r3, r4, r5, r6, r7, lr}
 4428              		.cfi_def_cfa_offset 24
 4429              		.cfi_offset 3, -24
 4430              		.cfi_offset 4, -20
 4431              		.cfi_offset 5, -16
 4432              		.cfi_offset 6, -12
 4433              		.cfi_offset 7, -8
 4434              		.cfi_offset 14, -4
 4435 0002 0446     		mov	r4, r0
 292:L6470.c       **** Enable_Encoder_T(-Buffer_T_QuadPosition);
 4436              		.loc 1 292 0
 4437 0004 0146     		mov	r1, r0
 4438 0006 4FF44840 		mov	r0, #51200
 4439              	.LVL581:
 4440 000a FFF7FEFF 		bl	update_max_velocity
 4441              	.LVL582:
 293:L6470.c       **** Write_32bitSPI_DATA (0x20  , (int) 0x00000002, Motor );
 4442              		.loc 1 293 0
 4443 000e 584B     		ldr	r3, .L268
 4444 0010 9869     		ldr	r0, [r3, #24]
 4445 0012 4042     		negs	r0, r0
 4446 0014 FFF7FEFF 		bl	Enable_Encoder_T
 4447              	.LVL583:
 294:L6470.c       **** CyDelayUs(50);
 4448              		.loc 1 294 0
 4449 0018 2246     		mov	r2, r4
 4450 001a 0221     		movs	r1, #2
 4451 001c 2020     		movs	r0, #32
 4452 001e FFF7FEFF 		bl	Write_32bitSPI_DATA
 4453              	.LVL584:
 295:L6470.c       **** Read_32bitSPI_DATA(0x04, Motor, &status_z);
 4454              		.loc 1 295 0
 4455 0022 3220     		movs	r0, #50
 4456 0024 FFF7FEFF 		bl	CyDelayUs
 4457              	.LVL585:
 296:L6470.c       **** CyDelayUs(500);
 4458              		.loc 1 296 0
 4459 0028 524D     		ldr	r5, .L268+4
 4460 002a 2A46     		mov	r2, r5
ARM GAS  C:\Users\Revanth\AppData\Local\Temp\ccSEzD1d.s 			page 119


 4461 002c 2146     		mov	r1, r4
 4462 002e 0420     		movs	r0, #4
 4463 0030 FFF7FEFF 		bl	Read_32bitSPI_DATA
 4464              	.LVL586:
 297:L6470.c       **** Read_32bitSPI_DATA(0x04, Motor, &status_z);
 4465              		.loc 1 297 0
 4466 0034 4FF4FA70 		mov	r0, #500
 4467 0038 FFF7FEFF 		bl	CyDelayUs
 4468              	.LVL587:
 298:L6470.c       **** while ( (status_z & 0x40) == 0x00)
 4469              		.loc 1 298 0
 4470 003c 2A46     		mov	r2, r5
 4471 003e 2146     		mov	r1, r4
 4472 0040 0420     		movs	r0, #4
 4473 0042 FFF7FEFF 		bl	Read_32bitSPI_DATA
 4474              	.LVL588:
 299:L6470.c       **** {
 4475              		.loc 1 299 0
 4476 0046 07E0     		b	.L261
 4477              	.L262:
 301:L6470.c       ****    CyDelayUs(100);
 4478              		.loc 1 301 0
 4479 0048 4A4A     		ldr	r2, .L268+4
 4480 004a 2146     		mov	r1, r4
 4481 004c 0420     		movs	r0, #4
 4482 004e FFF7FEFF 		bl	Read_32bitSPI_DATA
 4483              	.LVL589:
 302:L6470.c       **** }
 4484              		.loc 1 302 0
 4485 0052 6420     		movs	r0, #100
 4486 0054 FFF7FEFF 		bl	CyDelayUs
 4487              	.LVL590:
 4488              	.L261:
 299:L6470.c       **** {
 4489              		.loc 1 299 0
 4490 0058 464B     		ldr	r3, .L268+4
 4491 005a 1B78     		ldrb	r3, [r3]	@ zero_extendqisi2
 4492 005c 13F0400F 		tst	r3, #64
 4493 0060 F2D0     		beq	.L262
 304:L6470.c       **** CyDelayUs(10);
 4494              		.loc 1 304 0
 4495 0062 2246     		mov	r2, r4
 4496 0064 0021     		movs	r1, #0
 4497 0066 2120     		movs	r0, #33
 4498 0068 FFF7FEFF 		bl	Write_32bitSPI_DATA
 4499              	.LVL591:
 305:L6470.c       **** GotoPos(((256*200)*2), Motor);
 4500              		.loc 1 305 0
 4501 006c 0A20     		movs	r0, #10
 4502 006e FFF7FEFF 		bl	CyDelayUs
 4503              	.LVL592:
 306:L6470.c       **** CyDelayUs(500);
 4504              		.loc 1 306 0
 4505 0072 2146     		mov	r1, r4
 4506 0074 4FF4C830 		mov	r0, #102400
 4507 0078 FFF7FEFF 		bl	GotoPos
 4508              	.LVL593:
ARM GAS  C:\Users\Revanth\AppData\Local\Temp\ccSEzD1d.s 			page 120


 307:L6470.c       **** Read_32bitSPI_DATA(0x04, Motor, &status_z);
 4509              		.loc 1 307 0
 4510 007c 4FF4FA70 		mov	r0, #500
 4511 0080 FFF7FEFF 		bl	CyDelayUs
 4512              	.LVL594:
 308:L6470.c       **** CyDelayUs(500);
 4513              		.loc 1 308 0
 4514 0084 3B4D     		ldr	r5, .L268+4
 4515 0086 2A46     		mov	r2, r5
 4516 0088 2146     		mov	r1, r4
 4517 008a 0420     		movs	r0, #4
 4518 008c FFF7FEFF 		bl	Read_32bitSPI_DATA
 4519              	.LVL595:
 309:L6470.c       **** Read_32bitSPI_DATA(0x04, Motor, &status_z);
 4520              		.loc 1 309 0
 4521 0090 4FF4FA70 		mov	r0, #500
 4522 0094 FFF7FEFF 		bl	CyDelayUs
 4523              	.LVL596:
 310:L6470.c       **** while ( (status_z & 0x20) == 0x00)
 4524              		.loc 1 310 0
 4525 0098 2A46     		mov	r2, r5
 4526 009a 2146     		mov	r1, r4
 4527 009c 0420     		movs	r0, #4
 4528 009e FFF7FEFF 		bl	Read_32bitSPI_DATA
 4529              	.LVL597:
 311:L6470.c       **** {
 4530              		.loc 1 311 0
 4531 00a2 07E0     		b	.L263
 4532              	.L264:
 313:L6470.c       ****     CyDelayUs(100);
 4533              		.loc 1 313 0
 4534 00a4 334A     		ldr	r2, .L268+4
 4535 00a6 2146     		mov	r1, r4
 4536 00a8 0420     		movs	r0, #4
 4537 00aa FFF7FEFF 		bl	Read_32bitSPI_DATA
 4538              	.LVL598:
 314:L6470.c       ****    
 4539              		.loc 1 314 0
 4540 00ae 6420     		movs	r0, #100
 4541 00b0 FFF7FEFF 		bl	CyDelayUs
 4542              	.LVL599:
 4543              	.L263:
 311:L6470.c       **** {
 4544              		.loc 1 311 0
 4545 00b4 2F4B     		ldr	r3, .L268+4
 4546 00b6 1B78     		ldrb	r3, [r3]	@ zero_extendqisi2
 4547 00b8 13F0200F 		tst	r3, #32
 4548 00bc F2D0     		beq	.L264
 317:L6470.c       **** Write_32bitSPI_DATA (0x20  , (int) 0x00000002, Motor );
 4549              		.loc 1 317 0
 4550 00be 2146     		mov	r1, r4
 4551 00c0 4FF44840 		mov	r0, #51200
 4552 00c4 FFF7FEFF 		bl	update_max_velocity
 4553              	.LVL600:
 318:L6470.c       **** CyDelayUs(200);
 4554              		.loc 1 318 0
 4555 00c8 2246     		mov	r2, r4
ARM GAS  C:\Users\Revanth\AppData\Local\Temp\ccSEzD1d.s 			page 121


 4556 00ca 0221     		movs	r1, #2
 4557 00cc 2020     		movs	r0, #32
 4558 00ce FFF7FEFF 		bl	Write_32bitSPI_DATA
 4559              	.LVL601:
 319:L6470.c       **** Read_32bitSPI_DATA(0x04, Motor, &status_y);
 4560              		.loc 1 319 0
 4561 00d2 C820     		movs	r0, #200
 4562 00d4 FFF7FEFF 		bl	CyDelayUs
 4563              	.LVL602:
 320:L6470.c       **** CyDelayUs(500);
 4564              		.loc 1 320 0
 4565 00d8 274D     		ldr	r5, .L268+8
 4566 00da 2A46     		mov	r2, r5
 4567 00dc 2146     		mov	r1, r4
 4568 00de 0420     		movs	r0, #4
 4569 00e0 FFF7FEFF 		bl	Read_32bitSPI_DATA
 4570              	.LVL603:
 321:L6470.c       **** Read_32bitSPI_DATA(0x04, Motor, &status_y);
 4571              		.loc 1 321 0
 4572 00e4 4FF4FA70 		mov	r0, #500
 4573 00e8 FFF7FEFF 		bl	CyDelayUs
 4574              	.LVL604:
 322:L6470.c       **** while ( (status_y & 0x40) == 0x00)
 4575              		.loc 1 322 0
 4576 00ec 2A46     		mov	r2, r5
 4577 00ee 2146     		mov	r1, r4
 4578 00f0 0420     		movs	r0, #4
 4579 00f2 FFF7FEFF 		bl	Read_32bitSPI_DATA
 4580              	.LVL605:
 323:L6470.c       **** {
 4581              		.loc 1 323 0
 4582 00f6 07E0     		b	.L265
 4583              	.L266:
 325:L6470.c       ****    CyDelayUs(100);
 4584              		.loc 1 325 0
 4585 00f8 1F4A     		ldr	r2, .L268+8
 4586 00fa 2146     		mov	r1, r4
 4587 00fc 0420     		movs	r0, #4
 4588 00fe FFF7FEFF 		bl	Read_32bitSPI_DATA
 4589              	.LVL606:
 326:L6470.c       **** }
 4590              		.loc 1 326 0
 4591 0102 6420     		movs	r0, #100
 4592 0104 FFF7FEFF 		bl	CyDelayUs
 4593              	.LVL607:
 4594              	.L265:
 323:L6470.c       **** {
 4595              		.loc 1 323 0
 4596 0108 1B4B     		ldr	r3, .L268+8
 4597 010a 1B78     		ldrb	r3, [r3]	@ zero_extendqisi2
 4598 010c 13F0400F 		tst	r3, #64
 4599 0110 F2D0     		beq	.L266
 329:L6470.c       **** //T_last_position = 0;
 4600              		.loc 1 329 0
 4601 0112 2246     		mov	r2, r4
 4602 0114 0021     		movs	r1, #0
 4603 0116 2120     		movs	r0, #33
ARM GAS  C:\Users\Revanth\AppData\Local\Temp\ccSEzD1d.s 			page 122


 4604 0118 FFF7FEFF 		bl	Write_32bitSPI_DATA
 4605              	.LVL608:
 331:L6470.c       **** Buffer_T_QuadPosition=0;
 4606              		.loc 1 331 0
 4607 011c 0020     		movs	r0, #0
 4608 011e FFF7FEFF 		bl	Enable_Encoder_T
 4609              	.LVL609:
 332:L6470.c       **** CyDelayUs(100);
 4610              		.loc 1 332 0
 4611 0122 134F     		ldr	r7, .L268
 4612 0124 0025     		movs	r5, #0
 4613 0126 BD61     		str	r5, [r7, #24]
 333:L6470.c       **** goTo_T((256*200)*1);
 4614              		.loc 1 333 0
 4615 0128 6420     		movs	r0, #100
 4616 012a FFF7FEFF 		bl	CyDelayUs
 4617              	.LVL610:
 334:L6470.c       **** HomeT_done = false;
 4618              		.loc 1 334 0
 4619 012e 4FF44840 		mov	r0, #51200
 4620 0132 FFF7FEFF 		bl	goTo_T
 4621              	.LVL611:
 335:L6470.c       **** CyDelayUs(100);
 4622              		.loc 1 335 0
 4623 0136 114E     		ldr	r6, .L268+12
 4624 0138 F577     		strb	r5, [r6, #31]
 336:L6470.c       **** Write_32bitSPI_DATA (0x21  , (int) 0x0000000, Motor); 
 4625              		.loc 1 336 0
 4626 013a 6420     		movs	r0, #100
 4627 013c FFF7FEFF 		bl	CyDelayUs
 4628              	.LVL612:
 337:L6470.c       **** Write_32bitSPI_DATA (0x2D  , 0x00000000, Motor );
 4629              		.loc 1 337 0
 4630 0140 2246     		mov	r2, r4
 4631 0142 2946     		mov	r1, r5
 4632 0144 2120     		movs	r0, #33
 4633 0146 FFF7FEFF 		bl	Write_32bitSPI_DATA
 4634              	.LVL613:
 338:L6470.c       **** update_max_velocity(0x0007A5C3, Motor);
 4635              		.loc 1 338 0
 4636 014a 2246     		mov	r2, r4
 4637 014c 2946     		mov	r1, r5
 4638 014e 2D20     		movs	r0, #45
 4639 0150 FFF7FEFF 		bl	Write_32bitSPI_DATA
 4640              	.LVL614:
 339:L6470.c       **** 
 4641              		.loc 1 339 0
 4642 0154 2146     		mov	r1, r4
 4643 0156 0A48     		ldr	r0, .L268+16
 4644 0158 FFF7FEFF 		bl	update_max_velocity
 4645              	.LVL615:
 342:L6470.c       **** Buffer_T_QuadPosition=0;
 4646              		.loc 1 342 0
 4647 015c 2846     		mov	r0, r5
 4648 015e FFF7FEFF 		bl	Enable_Encoder_T
 4649              	.LVL616:
 343:L6470.c       **** HomeT_done = true;
ARM GAS  C:\Users\Revanth\AppData\Local\Temp\ccSEzD1d.s 			page 123


 4650              		.loc 1 343 0
 4651 0162 BD61     		str	r5, [r7, #24]
 344:L6470.c       **** Write_Debug_UART_Char("HomeT executed  \r\n");
 4652              		.loc 1 344 0
 4653 0164 0123     		movs	r3, #1
 4654 0166 F377     		strb	r3, [r6, #31]
 345:L6470.c       **** }
 4655              		.loc 1 345 0
 4656 0168 0648     		ldr	r0, .L268+20
 4657 016a FFF7FEFF 		bl	Write_Debug_UART_Char
 4658              	.LVL617:
 4659 016e F8BD     		pop	{r3, r4, r5, r6, r7, pc}
 4660              	.L269:
 4661              		.align	2
 4662              	.L268:
 4663 0170 00000000 		.word	.LANCHOR0
 4664 0174 00000000 		.word	status_z
 4665 0178 00000000 		.word	status_y
 4666 017c 00000000 		.word	.LANCHOR1
 4667 0180 C3A50700 		.word	501187
 4668 0184 BC040000 		.word	.LC40
 4669              		.cfi_endproc
 4670              	.LFE68:
 4671              		.size	homeT, .-homeT
 4672              		.section	.text.update_max_accelaration,"ax",%progbits
 4673              		.align	2
 4674              		.global	update_max_accelaration
 4675              		.thumb
 4676              		.thumb_func
 4677              		.type	update_max_accelaration, %function
 4678              	update_max_accelaration:
 4679              	.LFB108:
1689:L6470.c       **** 
1690:L6470.c       **** int update_max_accelaration(int accelaration, uint8_t Motor)
1691:L6470.c       **** {
 4680              		.loc 1 1691 0
 4681              		.cfi_startproc
 4682              		@ args = 0, pretend = 0, frame = 0
 4683              		@ frame_needed = 0, uses_anonymous_args = 0
 4684              	.LVL618:
 4685 0000 08B5     		push	{r3, lr}
 4686              		.cfi_def_cfa_offset 8
 4687              		.cfi_offset 3, -8
 4688              		.cfi_offset 14, -4
1692:L6470.c       ****     Write_32bitSPI_DATA (0x26  , (int) accelaration, Motor); 
 4689              		.loc 1 1692 0
 4690 0002 0A46     		mov	r2, r1
 4691 0004 0146     		mov	r1, r0
 4692              	.LVL619:
 4693 0006 2620     		movs	r0, #38
 4694              	.LVL620:
 4695 0008 FFF7FEFF 		bl	Write_32bitSPI_DATA
 4696              	.LVL621:
1693:L6470.c       ****     return 0;
1694:L6470.c       **** }
 4697              		.loc 1 1694 0
 4698 000c 0020     		movs	r0, #0
ARM GAS  C:\Users\Revanth\AppData\Local\Temp\ccSEzD1d.s 			page 124


 4699 000e 08BD     		pop	{r3, pc}
 4700              		.cfi_endproc
 4701              	.LFE108:
 4702              		.size	update_max_accelaration, .-update_max_accelaration
 4703              		.section	.text.run_pump,"ax",%progbits
 4704              		.align	2
 4705              		.global	run_pump
 4706              		.thumb
 4707              		.thumb_func
 4708              		.type	run_pump, %function
 4709              	run_pump:
 4710              	.LFB109:
1695:L6470.c       **** 
1696:L6470.c       **** int run_pump (int time_ms, uint8_t direction)
1697:L6470.c       **** {
 4711              		.loc 1 1697 0
 4712              		.cfi_startproc
 4713              		@ args = 0, pretend = 0, frame = 0
 4714              		@ frame_needed = 0, uses_anonymous_args = 0
 4715              	.LVL622:
 4716 0000 38B5     		push	{r3, r4, r5, lr}
 4717              		.cfi_def_cfa_offset 16
 4718              		.cfi_offset 3, -16
 4719              		.cfi_offset 4, -12
 4720              		.cfi_offset 5, -8
 4721              		.cfi_offset 14, -4
 4722 0002 0546     		mov	r5, r0
 4723 0004 0C46     		mov	r4, r1
1698:L6470.c       ****     update_max_velocity(0x700FF0, TMC5160_nCS_MotorO);
 4724              		.loc 1 1698 0
 4725 0006 0421     		movs	r1, #4
 4726              	.LVL623:
 4727 0008 0C48     		ldr	r0, .L276
 4728              	.LVL624:
 4729 000a FFF7FEFF 		bl	update_max_velocity
 4730              	.LVL625:
1699:L6470.c       ****     if( (direction == 0x00) || (direction == 0x01))
 4731              		.loc 1 1699 0
 4732 000e 012C     		cmp	r4, #1
 4733 0010 0BD8     		bhi	.L273
1700:L6470.c       ****     {
1701:L6470.c       ****     if(direction == 0x00)
 4734              		.loc 1 1701 0
 4735 0012 2CB9     		cbnz	r4, .L274
1702:L6470.c       ****     {
1703:L6470.c       ****         Write_32bitSPI_DATA (0x20  , (int) 0x00000001, TMC5160_nCS_MotorO );
 4736              		.loc 1 1703 0
 4737 0014 0422     		movs	r2, #4
 4738 0016 0121     		movs	r1, #1
 4739 0018 2020     		movs	r0, #32
 4740 001a FFF7FEFF 		bl	Write_32bitSPI_DATA
 4741              	.LVL626:
 4742 001e 04E0     		b	.L273
 4743              	.L274:
1704:L6470.c       ****     }
1705:L6470.c       ****     else
1706:L6470.c       ****     {
ARM GAS  C:\Users\Revanth\AppData\Local\Temp\ccSEzD1d.s 			page 125


1707:L6470.c       ****         Write_32bitSPI_DATA (0x20  , (int) 0x00000002, TMC5160_nCS_MotorO );
 4744              		.loc 1 1707 0
 4745 0020 0422     		movs	r2, #4
 4746 0022 0221     		movs	r1, #2
 4747 0024 2020     		movs	r0, #32
 4748 0026 FFF7FEFF 		bl	Write_32bitSPI_DATA
 4749              	.LVL627:
 4750              	.L273:
1708:L6470.c       ****     }
1709:L6470.c       ****     }
1710:L6470.c       ****     CyDelay(time_ms);
 4751              		.loc 1 1710 0
 4752 002a 2846     		mov	r0, r5
 4753 002c FFF7FEFF 		bl	CyDelay
 4754              	.LVL628:
1711:L6470.c       ****     update_max_velocity(0x00, TMC5160_nCS_MotorO);
 4755              		.loc 1 1711 0
 4756 0030 0421     		movs	r1, #4
 4757 0032 0020     		movs	r0, #0
 4758 0034 FFF7FEFF 		bl	update_max_velocity
 4759              	.LVL629:
1712:L6470.c       ****     return 0;
1713:L6470.c       **** }
 4760              		.loc 1 1713 0
 4761 0038 0020     		movs	r0, #0
 4762 003a 38BD     		pop	{r3, r4, r5, pc}
 4763              	.LVL630:
 4764              	.L277:
 4765              		.align	2
 4766              	.L276:
 4767 003c F00F7000 		.word	7344112
 4768              		.cfi_endproc
 4769              	.LFE109:
 4770              		.size	run_pump, .-run_pump
 4771              		.section	.text.Process_USB_Data,"ax",%progbits
 4772              		.align	2
 4773              		.global	Process_USB_Data
 4774              		.thumb
 4775              		.thumb_func
 4776              		.type	Process_USB_Data, %function
 4777              	Process_USB_Data:
 4778              	.LFB90:
 893:L6470.c       ****     //Pin_USB_RX_TX_Indicator_LED_Write(1); /* turn ON LED as a indicator to start process the comm
 4779              		.loc 1 893 0
 4780              		.cfi_startproc
 4781              		@ args = 0, pretend = 0, frame = 0
 4782              		@ frame_needed = 0, uses_anonymous_args = 0
 4783 0000 10B5     		push	{r4, lr}
 4784              		.cfi_def_cfa_offset 8
 4785              		.cfi_offset 4, -8
 4786              		.cfi_offset 14, -4
 895:L6470.c       ****     command = ((unsigned int)USB_received[1] << 8) + USB_received[0];   /* Reading USB data. */
 4787              		.loc 1 895 0
 4788 0002 0022     		movs	r2, #0
 4789 0004 774B     		ldr	r3, .L295
 4790 0006 5A63     		str	r2, [r3, #52]
 896:L6470.c       ****     /*Compare USB data and execute the command*/
ARM GAS  C:\Users\Revanth\AppData\Local\Temp\ccSEzD1d.s 			page 126


 4791              		.loc 1 896 0
 4792 0008 774A     		ldr	r2, .L295+4
 4793 000a 5178     		ldrb	r1, [r2, #1]	@ zero_extendqisi2
 4794 000c 1378     		ldrb	r3, [r2]	@ zero_extendqisi2
 4795 000e 03EB0123 		add	r3, r3, r1, lsl #8
 4796 0012 764A     		ldr	r2, .L295+8
 4797 0014 1360     		str	r3, [r2]
 899:L6470.c       ****     {
 4798              		.loc 1 899 0
 4799 0016 7A2B     		cmp	r3, #122
 4800 0018 0AD1     		bne	.L279
 901:L6470.c       ****         homeX(TMC5160_nCS_MotorX);   
 4801              		.loc 1 901 0
 4802 001a 0020     		movs	r0, #0
 4803 001c FFF7FEFF 		bl	goTo_X
 4804              	.LVL631:
 902:L6470.c       ****         Send_Feedback_to_USB(Error);
 4805              		.loc 1 902 0
 4806 0020 0020     		movs	r0, #0
 4807 0022 FFF7FEFF 		bl	homeX
 4808              	.LVL632:
 903:L6470.c       ****     }
 4809              		.loc 1 903 0
 4810 0026 6F4B     		ldr	r3, .L295
 4811 0028 586B     		ldr	r0, [r3, #52]
 4812 002a FFF7FEFF 		bl	Send_Feedback_to_USB
 4813              	.LVL633:
 4814 002e 10BD     		pop	{r4, pc}
 4815              	.L279:
 905:L6470.c       ****     {
 4816              		.loc 1 905 0
 4817 0030 7B2B     		cmp	r3, #123
 4818 0032 0AD1     		bne	.L281
 907:L6470.c       ****         homeY(TMC5160_nCS_MotorY);
 4819              		.loc 1 907 0
 4820 0034 0020     		movs	r0, #0
 4821 0036 FFF7FEFF 		bl	goTo_Y
 4822              	.LVL634:
 908:L6470.c       ****         Send_Feedback_to_USB(Error);
 4823              		.loc 1 908 0
 4824 003a 0120     		movs	r0, #1
 4825 003c FFF7FEFF 		bl	homeY
 4826              	.LVL635:
 909:L6470.c       ****     }
 4827              		.loc 1 909 0
 4828 0040 684B     		ldr	r3, .L295
 4829 0042 586B     		ldr	r0, [r3, #52]
 4830 0044 FFF7FEFF 		bl	Send_Feedback_to_USB
 4831              	.LVL636:
 4832 0048 10BD     		pop	{r4, pc}
 4833              	.L281:
 911:L6470.c       ****     {
 4834              		.loc 1 911 0
 4835 004a 7C2B     		cmp	r3, #124
 4836 004c 0AD1     		bne	.L282
 913:L6470.c       ****         homeZ(TMC5160_nCS_MotorZ);
 4837              		.loc 1 913 0
ARM GAS  C:\Users\Revanth\AppData\Local\Temp\ccSEzD1d.s 			page 127


 4838 004e 0020     		movs	r0, #0
 4839 0050 FFF7FEFF 		bl	goTo_Z
 4840              	.LVL637:
 914:L6470.c       ****         Send_Feedback_to_USB(Error);
 4841              		.loc 1 914 0
 4842 0054 0220     		movs	r0, #2
 4843 0056 FFF7FEFF 		bl	homeZ
 4844              	.LVL638:
 915:L6470.c       ****     }
 4845              		.loc 1 915 0
 4846 005a 624B     		ldr	r3, .L295
 4847 005c 586B     		ldr	r0, [r3, #52]
 4848 005e FFF7FEFF 		bl	Send_Feedback_to_USB
 4849              	.LVL639:
 4850 0062 10BD     		pop	{r4, pc}
 4851              	.L282:
 917:L6470.c       ****     {
 4852              		.loc 1 917 0
 4853 0064 7D2B     		cmp	r3, #125
 4854 0066 0AD1     		bne	.L283
 919:L6470.c       ****         homeT(TMC5160_nCS_MotorT);
 4855              		.loc 1 919 0
 4856 0068 0020     		movs	r0, #0
 4857 006a FFF7FEFF 		bl	goTo_T
 4858              	.LVL640:
 920:L6470.c       ****         Send_Feedback_to_USB(Error);
 4859              		.loc 1 920 0
 4860 006e 0320     		movs	r0, #3
 4861 0070 FFF7FEFF 		bl	homeT
 4862              	.LVL641:
 921:L6470.c       ****     }
 4863              		.loc 1 921 0
 4864 0074 5B4B     		ldr	r3, .L295
 4865 0076 586B     		ldr	r0, [r3, #52]
 4866 0078 FFF7FEFF 		bl	Send_Feedback_to_USB
 4867              	.LVL642:
 4868 007c 10BD     		pop	{r4, pc}
 4869              	.L283:
 923:L6470.c       ****     {
 4870              		.loc 1 923 0
 4871 007e B3F5F46F 		cmp	r3, #1952
 4872 0082 12D1     		bne	.L284
 925:L6470.c       ****         Error = goTo_X(Position_X_Requested);
 4873              		.loc 1 925 0
 4874 0084 584A     		ldr	r2, .L295+4
 4875 0086 5179     		ldrb	r1, [r2, #5]	@ zero_extendqisi2
 4876 0088 1379     		ldrb	r3, [r2, #4]	@ zero_extendqisi2
 4877 008a 1B04     		lsls	r3, r3, #16
 4878 008c 03EB0163 		add	r3, r3, r1, lsl #24
 4879 0090 D078     		ldrb	r0, [r2, #3]	@ zero_extendqisi2
 4880 0092 03EB0023 		add	r3, r3, r0, lsl #8
 4881 0096 9078     		ldrb	r0, [r2, #2]	@ zero_extendqisi2
 4882 0098 1844     		add	r0, r0, r3
 4883 009a 524C     		ldr	r4, .L295
 4884 009c 6064     		str	r0, [r4, #68]
 926:L6470.c       ****         Send_Feedback_to_USB(Error);
 4885              		.loc 1 926 0
ARM GAS  C:\Users\Revanth\AppData\Local\Temp\ccSEzD1d.s 			page 128


 4886 009e FFF7FEFF 		bl	goTo_X
 4887              	.LVL643:
 4888 00a2 6063     		str	r0, [r4, #52]
 927:L6470.c       ****     }
 4889              		.loc 1 927 0
 4890 00a4 FFF7FEFF 		bl	Send_Feedback_to_USB
 4891              	.LVL644:
 4892 00a8 10BD     		pop	{r4, pc}
 4893              	.L284:
 929:L6470.c       ****     {
 4894              		.loc 1 929 0
 4895 00aa B3F5F66F 		cmp	r3, #1968
 4896 00ae 12D1     		bne	.L285
 931:L6470.c       ****         Error = goTo_Y(Position_Y_Requested);
 4897              		.loc 1 931 0
 4898 00b0 4D4A     		ldr	r2, .L295+4
 4899 00b2 5179     		ldrb	r1, [r2, #5]	@ zero_extendqisi2
 4900 00b4 1379     		ldrb	r3, [r2, #4]	@ zero_extendqisi2
 4901 00b6 1B04     		lsls	r3, r3, #16
 4902 00b8 03EB0163 		add	r3, r3, r1, lsl #24
 4903 00bc D078     		ldrb	r0, [r2, #3]	@ zero_extendqisi2
 4904 00be 03EB0023 		add	r3, r3, r0, lsl #8
 4905 00c2 9078     		ldrb	r0, [r2, #2]	@ zero_extendqisi2
 4906 00c4 1844     		add	r0, r0, r3
 4907 00c6 474C     		ldr	r4, .L295
 4908 00c8 A064     		str	r0, [r4, #72]
 932:L6470.c       ****         Send_Feedback_to_USB(Error);
 4909              		.loc 1 932 0
 4910 00ca FFF7FEFF 		bl	goTo_Y
 4911              	.LVL645:
 4912 00ce 6063     		str	r0, [r4, #52]
 933:L6470.c       ****     }
 4913              		.loc 1 933 0
 4914 00d0 FFF7FEFF 		bl	Send_Feedback_to_USB
 4915              	.LVL646:
 4916 00d4 10BD     		pop	{r4, pc}
 4917              	.L285:
 935:L6470.c       ****     {
 4918              		.loc 1 935 0
 4919 00d6 B3F5FA6F 		cmp	r3, #2000
 4920 00da 12D1     		bne	.L286
 937:L6470.c       ****         Error = goTo_Z(Position_Z_Requested);
 4921              		.loc 1 937 0
 4922 00dc 424A     		ldr	r2, .L295+4
 4923 00de 5179     		ldrb	r1, [r2, #5]	@ zero_extendqisi2
 4924 00e0 1379     		ldrb	r3, [r2, #4]	@ zero_extendqisi2
 4925 00e2 1B04     		lsls	r3, r3, #16
 4926 00e4 03EB0163 		add	r3, r3, r1, lsl #24
 4927 00e8 D078     		ldrb	r0, [r2, #3]	@ zero_extendqisi2
 4928 00ea 03EB0023 		add	r3, r3, r0, lsl #8
 4929 00ee 9078     		ldrb	r0, [r2, #2]	@ zero_extendqisi2
 4930 00f0 1844     		add	r0, r0, r3
 4931 00f2 3C4C     		ldr	r4, .L295
 4932 00f4 E064     		str	r0, [r4, #76]
 938:L6470.c       ****         Send_Feedback_to_USB(Error);
 4933              		.loc 1 938 0
 4934 00f6 FFF7FEFF 		bl	goTo_Z
ARM GAS  C:\Users\Revanth\AppData\Local\Temp\ccSEzD1d.s 			page 129


 4935              	.LVL647:
 4936 00fa 6063     		str	r0, [r4, #52]
 939:L6470.c       ****     }
 4937              		.loc 1 939 0
 4938 00fc FFF7FEFF 		bl	Send_Feedback_to_USB
 4939              	.LVL648:
 4940 0100 10BD     		pop	{r4, pc}
 4941              	.L286:
 941:L6470.c       ****     {
 4942              		.loc 1 941 0
 4943 0102 B3F5FC6F 		cmp	r3, #2016
 4944 0106 12D1     		bne	.L287
 943:L6470.c       ****         Error = goTo_T(Position_T_Requested);
 4945              		.loc 1 943 0
 4946 0108 374A     		ldr	r2, .L295+4
 4947 010a 5179     		ldrb	r1, [r2, #5]	@ zero_extendqisi2
 4948 010c 1379     		ldrb	r3, [r2, #4]	@ zero_extendqisi2
 4949 010e 1B04     		lsls	r3, r3, #16
 4950 0110 03EB0163 		add	r3, r3, r1, lsl #24
 4951 0114 D078     		ldrb	r0, [r2, #3]	@ zero_extendqisi2
 4952 0116 03EB0023 		add	r3, r3, r0, lsl #8
 4953 011a 9078     		ldrb	r0, [r2, #2]	@ zero_extendqisi2
 4954 011c 1844     		add	r0, r0, r3
 4955 011e 314C     		ldr	r4, .L295
 4956 0120 2065     		str	r0, [r4, #80]
 944:L6470.c       ****         Send_Feedback_to_USB(Error);
 4957              		.loc 1 944 0
 4958 0122 FFF7FEFF 		bl	goTo_T
 4959              	.LVL649:
 4960 0126 6063     		str	r0, [r4, #52]
 945:L6470.c       ****     }
 4961              		.loc 1 945 0
 4962 0128 FFF7FEFF 		bl	Send_Feedback_to_USB
 4963              	.LVL650:
 4964 012c 10BD     		pop	{r4, pc}
 4965              	.L287:
 947:L6470.c       ****     {
 4966              		.loc 1 947 0
 4967 012e 7E2B     		cmp	r3, #126
 4968 0130 0ED1     		bne	.L288
 4969              	.LVL651:
 4970              	.LBB4:
 951:L6470.c       ****         direction = USB_received[6];
 4971              		.loc 1 951 0
 4972 0132 2D4A     		ldr	r2, .L295+4
 4973 0134 5079     		ldrb	r0, [r2, #5]	@ zero_extendqisi2
 4974 0136 1379     		ldrb	r3, [r2, #4]	@ zero_extendqisi2
 4975 0138 1B04     		lsls	r3, r3, #16
 4976 013a 03EB0063 		add	r3, r3, r0, lsl #24
 4977 013e D078     		ldrb	r0, [r2, #3]	@ zero_extendqisi2
 4978 0140 03EB0023 		add	r3, r3, r0, lsl #8
 4979 0144 9078     		ldrb	r0, [r2, #2]	@ zero_extendqisi2
 4980              	.LVL652:
 953:L6470.c       ****     }
 4981              		.loc 1 953 0
 4982 0146 9179     		ldrb	r1, [r2, #6]	@ zero_extendqisi2
 4983 0148 1844     		add	r0, r0, r3
ARM GAS  C:\Users\Revanth\AppData\Local\Temp\ccSEzD1d.s 			page 130


 4984              	.LVL653:
 4985 014a FFF7FEFF 		bl	run_pump
 4986              	.LVL654:
 4987              	.LBE4:
 4988 014e 10BD     		pop	{r4, pc}
 4989              	.L288:
 955:L6470.c       ****     { 
 4990              		.loc 1 955 0
 4991 0150 B3F5F44F 		cmp	r3, #31232
 4992 0154 09D1     		bne	.L289
 957:L6470.c       ****         CyDelay(100);
 4993              		.loc 1 957 0
 4994 0156 FFF7FEFF 		bl	set_CondenserLED
 4995              	.LVL655:
 958:L6470.c       ****         Send_Feedback_to_USB(Error);  
 4996              		.loc 1 958 0
 4997 015a 6420     		movs	r0, #100
 4998 015c FFF7FEFF 		bl	CyDelay
 4999              	.LVL656:
 959:L6470.c       ****     }
 5000              		.loc 1 959 0
 5001 0160 204B     		ldr	r3, .L295
 5002 0162 586B     		ldr	r0, [r3, #52]
 5003 0164 FFF7FEFF 		bl	Send_Feedback_to_USB
 5004              	.LVL657:
 5005 0168 10BD     		pop	{r4, pc}
 5006              	.L289:
 961:L6470.c       ****     {
 5007              		.loc 1 961 0
 5008 016a FF2B     		cmp	r3, #255
 5009 016c 13D1     		bne	.L290
 963:L6470.c       ****         Write_Debug_UART_Char("\r\n");
 5010              		.loc 1 963 0
 5011 016e 2048     		ldr	r0, .L295+12
 5012 0170 FFF7FEFF 		bl	Write_Debug_UART_Char
 5013              	.LVL658:
 964:L6470.c       ****         CyDelay(500);
 5014              		.loc 1 964 0
 5015 0174 1F48     		ldr	r0, .L295+16
 5016 0176 FFF7FEFF 		bl	Write_Debug_UART_Char
 5017              	.LVL659:
 965:L6470.c       ****         Send_Feedback_to_USB(0);
 5018              		.loc 1 965 0
 5019 017a 4FF4FA70 		mov	r0, #500
 5020 017e FFF7FEFF 		bl	CyDelay
 5021              	.LVL660:
 966:L6470.c       ****         CyDelay(500);
 5022              		.loc 1 966 0
 5023 0182 0020     		movs	r0, #0
 5024 0184 FFF7FEFF 		bl	Send_Feedback_to_USB
 5025              	.LVL661:
 967:L6470.c       ****         CySoftwareReset();
 5026              		.loc 1 967 0
 5027 0188 4FF4FA70 		mov	r0, #500
 5028 018c FFF7FEFF 		bl	CyDelay
 5029              	.LVL662:
 968:L6470.c       ****     }
ARM GAS  C:\Users\Revanth\AppData\Local\Temp\ccSEzD1d.s 			page 131


 5030              		.loc 1 968 0
 5031 0190 FFF7FEFF 		bl	CySoftwareReset
 5032              	.LVL663:
 5033 0194 10BD     		pop	{r4, pc}
 5034              	.L290:
 970:L6470.c       ****     {
 5035              		.loc 1 970 0
 5036 0196 B3F5F64F 		cmp	r3, #31488
 5037 019a 03D1     		bne	.L291
 973:L6470.c       ****     }
 5038              		.loc 1 973 0
 5039 019c 0020     		movs	r0, #0
 5040 019e FFF7FEFF 		bl	Send_Feedback_to_USB
 5041              	.LVL664:
 5042 01a2 10BD     		pop	{r4, pc}
 5043              	.L291:
 975:L6470.c       ****     {
 5044              		.loc 1 975 0
 5045 01a4 B3F5F84F 		cmp	r3, #31744
 5046 01a8 03D1     		bne	.L292
 978:L6470.c       ****     }
 5047              		.loc 1 978 0
 5048 01aa 0020     		movs	r0, #0
 5049 01ac FFF7FEFF 		bl	Send_Feedback_to_USB
 5050              	.LVL665:
 5051 01b0 10BD     		pop	{r4, pc}
 5052              	.L292:
 980:L6470.c       ****     {
 5053              		.loc 1 980 0
 5054 01b2 FE2B     		cmp	r3, #254
 5055 01b4 09D1     		bne	.L293
 982:L6470.c       ****         CyDelay(10);
 5056              		.loc 1 982 0
 5057 01b6 1048     		ldr	r0, .L295+20
 5058 01b8 FFF7FEFF 		bl	Write_Debug_UART_Char
 5059              	.LVL666:
 983:L6470.c       ****         Send_Feedback_to_USB(0);
 5060              		.loc 1 983 0
 5061 01bc 0A20     		movs	r0, #10
 5062 01be FFF7FEFF 		bl	CyDelay
 5063              	.LVL667:
 984:L6470.c       ****     }
 5064              		.loc 1 984 0
 5065 01c2 0020     		movs	r0, #0
 5066 01c4 FFF7FEFF 		bl	Send_Feedback_to_USB
 5067              	.LVL668:
 5068 01c8 10BD     		pop	{r4, pc}
 5069              	.L293:
 988:L6470.c       ****         Write_Debug_UART_Char("Wrong Command Received*********** \r\n");
 5070              		.loc 1 988 0
 5071 01ca 1324     		movs	r4, #19
 5072 01cc 054B     		ldr	r3, .L295
 5073 01ce 5C63     		str	r4, [r3, #52]
 989:L6470.c       ****         UART_print_all_values();
 5074              		.loc 1 989 0
 5075 01d0 0A48     		ldr	r0, .L295+24
 5076 01d2 FFF7FEFF 		bl	Write_Debug_UART_Char
ARM GAS  C:\Users\Revanth\AppData\Local\Temp\ccSEzD1d.s 			page 132


 5077              	.LVL669:
 990:L6470.c       ****         Send_Feedback_to_USB(19);
 5078              		.loc 1 990 0
 5079 01d6 FFF7FEFF 		bl	UART_print_all_values
 5080              	.LVL670:
 991:L6470.c       ****     }
 5081              		.loc 1 991 0
 5082 01da 2046     		mov	r0, r4
 5083 01dc FFF7FEFF 		bl	Send_Feedback_to_USB
 5084              	.LVL671:
 5085 01e0 10BD     		pop	{r4, pc}
 5086              	.L296:
 5087 01e2 00BF     		.align	2
 5088              	.L295:
 5089 01e4 00000000 		.word	.LANCHOR0
 5090 01e8 00000000 		.word	USB_received
 5091 01ec 00000000 		.word	command
 5092 01f0 D0040000 		.word	.LC41
 5093 01f4 B8000000 		.word	.LC8
 5094 01f8 F0040000 		.word	.LC42
 5095 01fc 10050000 		.word	.LC43
 5096              		.cfi_endproc
 5097              	.LFE90:
 5098              		.size	Process_USB_Data, .-Process_USB_Data
 5099              		.global	spi_read_value
 5100              		.global	PWM_barcode_comare_value
 5101              		.global	PWM_comare_value
 5102              		.global	Buffer_T_QuadPosition
 5103              		.global	Buffer_Z_QuadPosition
 5104              		.global	EncoderTZSelect
 5105              		.global	HomeT_done
 5106              		.global	HomeZ_done
 5107              		.global	HomeY_done
 5108              		.global	HomeX_done
 5109              		.global	step_correction_loop_z
 5110              		.global	step_correction_loop_y
 5111              		.global	step_correction_loop_x
 5112              		.global	Motor_Speed_Z
 5113              		.global	Motor_Speed_Y
 5114              		.global	Motor_Speed_X
 5115              		.global	No_of_Z_Cycle
 5116              		.global	No_of_Y_Cycle
 5117              		.global	No_of_X_Cycle
 5118              		.global	Z_Rectification
 5119              		.global	T_QuadPosition
 5120              		.global	Z_QuadPosition
 5121              		.global	Y_QuadPosition
 5122              		.global	X_QuadPosition
 5123              		.global	fact_t
 5124              		.global	fact_z
 5125              		.global	pitch_factor_T
 5126              		.global	pitch_factor_Z
 5127              		.global	pitch_factor_XY
 5128              		.global	new_pitch
 5129              		.global	old_pitch
 5130              		.global	sub_step_multiplier
 5131              		.global	new_cpr
ARM GAS  C:\Users\Revanth\AppData\Local\Temp\ccSEzD1d.s 			page 133


 5132              		.global	old_cpr
 5133              		.global	Position_Z_Move
 5134              		.global	Position_Y_Move
 5135              		.global	Position_X_Move
 5136              		.global	Position_T_Requested
 5137              		.global	Position_Z_Requested
 5138              		.global	Position_X_Requested
 5139              		.global	Position_Y_Requested
 5140              		.global	Input_position_T
 5141              		.global	Input_position_Z
 5142              		.global	Input_position_Y
 5143              		.global	Input_position_X
 5144              		.global	errorT
 5145              		.global	errorZ
 5146              		.global	errorY
 5147              		.global	errorX
 5148              		.global	Error
 5149              		.comm	command,4,4
 5150              		.global	Time_Out_Error
 5151              		.comm	USB_transmit,58,4
 5152              		.comm	USB_received,64,4
 5153              		.comm	count,2,2
 5154              		.comm	Is_Slide_On_Gripper,1,1
 5155              		.data
 5156              		.align	2
 5157              		.set	.LANCHOR1,. + 0
 5158              		.type	Str_Last_One.9150, %object
 5159              		.size	Str_Last_One.9150, 13
 5160              	Str_Last_One.9150:
 5161 0000 53686F6E 		.ascii	"ShonitV2.2\015\012\000"
 5161      69745632 
 5161      2E320D0A 
 5161      00
 5162 000d 000000   		.space	3
 5163              		.type	Motor_Speed_X, %object
 5164              		.size	Motor_Speed_X, 4
 5165              	Motor_Speed_X:
 5166 0010 5E010000 		.word	350
 5167              		.type	Motor_Speed_Y, %object
 5168              		.size	Motor_Speed_Y, 4
 5169              	Motor_Speed_Y:
 5170 0014 2C010000 		.word	300
 5171              		.type	Motor_Speed_Z, %object
 5172              		.size	Motor_Speed_Z, 4
 5173              	Motor_Speed_Z:
 5174 0018 FA000000 		.word	250
 5175              		.type	HomeY_done, %object
 5176              		.size	HomeY_done, 1
 5177              	HomeY_done:
 5178 001c 01       		.byte	1
 5179              		.type	HomeX_done, %object
 5180              		.size	HomeX_done, 1
 5181              	HomeX_done:
 5182 001d 01       		.byte	1
 5183              		.type	HomeZ_done, %object
 5184              		.size	HomeZ_done, 1
 5185              	HomeZ_done:
ARM GAS  C:\Users\Revanth\AppData\Local\Temp\ccSEzD1d.s 			page 134


 5186 001e 01       		.byte	1
 5187              		.type	HomeT_done, %object
 5188              		.size	HomeT_done, 1
 5189              	HomeT_done:
 5190 001f 01       		.byte	1
 5191              		.type	step_correction_loop_z, %object
 5192              		.size	step_correction_loop_z, 4
 5193              	step_correction_loop_z:
 5194 0020 04000000 		.word	4
 5195              		.type	step_correction_loop_y, %object
 5196              		.size	step_correction_loop_y, 4
 5197              	step_correction_loop_y:
 5198 0024 04000000 		.word	4
 5199              		.type	step_correction_loop_x, %object
 5200              		.size	step_correction_loop_x, 4
 5201              	step_correction_loop_x:
 5202 0028 04000000 		.word	4
 5203              		.type	Z_Rectification, %object
 5204              		.size	Z_Rectification, 4
 5205              	Z_Rectification:
 5206 002c 5C8F223F 		.word	1059229532
 5207              		.type	pitch_factor_T, %object
 5208              		.size	pitch_factor_T, 4
 5209              	pitch_factor_T:
 5210 0030 5C8F2240 		.word	1076006748
 5211              		.type	pitch_factor_Z, %object
 5212              		.size	pitch_factor_Z, 4
 5213              	pitch_factor_Z:
 5214 0034 5C8F2240 		.word	1076006748
 5215              		.type	new_pitch, %object
 5216              		.size	new_pitch, 4
 5217              	new_pitch:
 5218 0038 08000000 		.word	8
 5219              		.type	old_pitch, %object
 5220              		.size	old_pitch, 4
 5221              	old_pitch:
 5222 003c 04000000 		.word	4
 5223              		.type	new_cpr, %object
 5224              		.size	new_cpr, 4
 5225              	new_cpr:
 5226 0040 A00F0000 		.word	4000
 5227              		.type	old_cpr, %object
 5228              		.size	old_cpr, 4
 5229              	old_cpr:
 5230 0044 803E0000 		.word	16000
 5231              		.type	Time_Out_Error, %object
 5232              		.size	Time_Out_Error, 1
 5233              	Time_Out_Error:
 5234 0048 01       		.byte	1
 5235              		.section	.rodata.str1.4,"aMS",%progbits,1
 5236              		.align	2
 5237              	.LC0:
 5238 0000 42656570 		.ascii	"Beeped Once  \015\012\000"
 5238      6564204F 
 5238      6E636520 
 5238      200D0A00 
 5239              	.LC1:
ARM GAS  C:\Users\Revanth\AppData\Local\Temp\ccSEzD1d.s 			page 135


 5240 0010 42656570 		.ascii	"Beeped Twice  \015\012\000"
 5240      65642054 
 5240      77696365 
 5240      20200D0A 
 5240      00
 5241 0021 000000   		.space	3
 5242              	.LC2:
 5243 0024 42656570 		.ascii	"Beeped Long  \015\012\000"
 5243      6564204C 
 5243      6F6E6720 
 5243      200D0A00 
 5244              	.LC3:
 5245 0034 46656564 		.ascii	"Feedback Sent to Motherboard  \015\012\000"
 5245      6261636B 
 5245      2053656E 
 5245      7420746F 
 5245      204D6F74 
 5246 0055 000000   		.space	3
 5247              	.LC4:
 5248 0058 55534220 		.ascii	"USB not Connected***********  \015\012\000"
 5248      6E6F7420 
 5248      436F6E6E 
 5248      65637465 
 5248      642A2A2A 
 5249 0079 000000   		.space	3
 5250              	.LC5:
 5251 007c 55534220 		.ascii	"USB Connected  \015\012\000"
 5251      436F6E6E 
 5251      65637465 
 5251      6420200D 
 5251      0A00
 5252 008e 0000     		.space	2
 5253              	.LC6:
 5254 0090 25642C20 		.ascii	"%d, \000"
 5254      00
 5255 0095 000000   		.space	3
 5256              	.LC7:
 5257 0098 4C454420 		.ascii	"LED Barcode Value Recived--->\000"
 5257      42617263 
 5257      6F646520 
 5257      56616C75 
 5257      65205265 
 5258 00b6 0000     		.space	2
 5259              	.LC8:
 5260 00b8 0D0A00   		.ascii	"\015\012\000"
 5261 00bb 00       		.space	1
 5262              	.LC9:
 5263 00bc 53657420 		.ascii	"Set Barcode LED Command Executed  \015\012\000"
 5263      42617263 
 5263      6F646520 
 5263      4C454420 
 5263      436F6D6D 
 5264 00e1 000000   		.space	3
 5265              	.LC10:
 5266 00e4 204C4544 		.ascii	" LED Value Recived--->\000"
 5266      2056616C 
 5266      75652052 
ARM GAS  C:\Users\Revanth\AppData\Local\Temp\ccSEzD1d.s 			page 136


 5266      65636976 
 5266      65642D2D 
 5267 00fb 00       		.space	1
 5268              	.LC11:
 5269 00fc 53657420 		.ascii	"Set LED Command Executed  \015\012\000"
 5269      4C454420 
 5269      436F6D6D 
 5269      616E6420 
 5269      45786563 
 5270 0119 000000   		.space	3
 5271              	.LC12:
 5272 011c 2D2D2D2D 		.ascii	"--------------------------------------------------\000"
 5272      2D2D2D2D 
 5272      2D2D2D2D 
 5272      2D2D2D2D 
 5272      2D2D2D2D 
 5273 014f 00       		.space	1
 5274              	.LC13:
 5275 0150 0A00     		.ascii	"\012\000"
 5276 0152 0000     		.space	2
 5277              	.LC14:
 5278 0154 595F486F 		.ascii	"Y_Homing_Not_Done_Yet***********[x12]  \015\012\000"
 5278      6D696E67 
 5278      5F4E6F74 
 5278      5F446F6E 
 5278      655F5965 
 5279 017e 0000     		.space	2
 5280              	.LC15:
 5281 0180 585F486F 		.ascii	"X_Homing_Not_Done_Yet***********  \015\012\000"
 5281      6D696E67 
 5281      5F4E6F74 
 5281      5F446F6E 
 5281      655F5965 
 5282 01a5 000000   		.space	3
 5283              	.LC16:
 5284 01a8 5A5F486F 		.ascii	"Z_Homing_Not_Done_Yet***********  \015\012\000"
 5284      6D696E67 
 5284      5F4E6F74 
 5284      5F446F6E 
 5284      655F5965 
 5285 01cd 000000   		.space	3
 5286              	.LC17:
 5287 01d0 55534220 		.ascii	"USB Unpluged PCB resetting ***********  \015\012\000"
 5287      556E706C 
 5287      75676564 
 5287      20504342 
 5287      20726573 
 5288 01fb 00       		.space	1
 5289              	.LC18:
 5290 01fc 4E6F2056 		.ascii	"No Valid Driver nCS asserted/de-asserted for SPI Re"
 5290      616C6964 
 5290      20447269 
 5290      76657220 
 5290      6E435320 
 5291 022f 61642F57 		.ascii	"ad/Write  \015\012\000"
 5291      72697465 
 5291      20200D0A 
ARM GAS  C:\Users\Revanth\AppData\Local\Temp\ccSEzD1d.s 			page 137


 5291      00
 5292              	.LC19:
 5293 023c 496E7661 		.ascii	"Invalid GPIO Level Value, Unable to assert/de-asser"
 5293      6C696420 
 5293      4750494F 
 5293      204C6576 
 5293      656C2056 
 5294 026f 74206E43 		.ascii	"t nCSN Pin for SPI Read/Write  \015\012\000"
 5294      534E2050 
 5294      696E2066 
 5294      6F722053 
 5294      50492052 
 5295 0291 000000   		.space	3
 5296              	.LC20:
 5297 0294 4661696C 		.ascii	"Fail to reach X position \015\012\000"
 5297      20746F20 
 5297      72656163 
 5297      68205820 
 5297      706F7369 
 5298              	.LC21:
 5299 02b0 5820456E 		.ascii	"X Encoder or X Motor Might Not be Working \015\012\000"
 5299      636F6465 
 5299      72206F72 
 5299      2058204D 
 5299      6F746F72 
 5300 02dd 000000   		.space	3
 5301              	.LC22:
 5302 02e0 5820706F 		.ascii	"X position Reached\000"
 5302      73697469 
 5302      6F6E2052 
 5302      65616368 
 5302      656400
 5303 02f3 00       		.space	1
 5304              	.LC23:
 5305 02f4 476F746F 		.ascii	"GotoX Command Recived--->\000"
 5305      5820436F 
 5305      6D6D616E 
 5305      64205265 
 5305      63697665 
 5306 030e 0000     		.space	2
 5307              	.LC24:
 5308 0310 20200D0A 		.ascii	"  \015\012\000"
 5308      00
 5309 0315 000000   		.space	3
 5310              	.LC25:
 5311 0318 486F6D69 		.ascii	"Homing Not Done\000"
 5311      6E67204E 
 5311      6F742044 
 5311      6F6E6500 
 5312              	.LC26:
 5313 0328 4661696C 		.ascii	"Fail to reach Y position \015\012\000"
 5313      20746F20 
 5313      72656163 
 5313      68205920 
 5313      706F7369 
 5314              	.LC27:
 5315 0344 5920456E 		.ascii	"Y Encoder or Y Motor Might Not be Working \015\012\000"
ARM GAS  C:\Users\Revanth\AppData\Local\Temp\ccSEzD1d.s 			page 138


 5315      636F6465 
 5315      72206F72 
 5315      2059204D 
 5315      6F746F72 
 5316 0371 000000   		.space	3
 5317              	.LC28:
 5318 0374 5920706F 		.ascii	"Y position Reached\000"
 5318      73697469 
 5318      6F6E2052 
 5318      65616368 
 5318      656400
 5319 0387 00       		.space	1
 5320              	.LC29:
 5321 0388 4661696C 		.ascii	"Fail to reach Z position \015\012\000"
 5321      20746F20 
 5321      72656163 
 5321      68205A20 
 5321      706F7369 
 5322              	.LC30:
 5323 03a4 5A20456E 		.ascii	"Z Encoder or Z Motor Might Not be Working \015\012\000"
 5323      636F6465 
 5323      72206F72 
 5323      205A204D 
 5323      6F746F72 
 5324 03d1 000000   		.space	3
 5325              	.LC31:
 5326 03d4 5A20706F 		.ascii	"Z position Reached\000"
 5326      73697469 
 5326      6F6E2052 
 5326      65616368 
 5326      656400
 5327 03e7 00       		.space	1
 5328              	.LC32:
 5329 03e8 476F746F 		.ascii	"GotoZ Command Recived--->\000"
 5329      5A20436F 
 5329      6D6D616E 
 5329      64205265 
 5329      63697665 
 5330 0402 0000     		.space	2
 5331              	.LC33:
 5332 0404 4661696C 		.ascii	"Fail to reach T position \015\012\000"
 5332      20746F20 
 5332      72656163 
 5332      68205420 
 5332      706F7369 
 5333              	.LC34:
 5334 0420 5420456E 		.ascii	"T Encoder or T Motor Might Not be Working \015\012\000"
 5334      636F6465 
 5334      72206F72 
 5334      2054204D 
 5334      6F746F72 
 5335 044d 000000   		.space	3
 5336              	.LC35:
 5337 0450 5420706F 		.ascii	"T position Reached\000"
 5337      73697469 
 5337      6F6E2052 
 5337      65616368 
ARM GAS  C:\Users\Revanth\AppData\Local\Temp\ccSEzD1d.s 			page 139


 5337      656400
 5338 0463 00       		.space	1
 5339              	.LC36:
 5340 0464 476F746F 		.ascii	"GotoT Command Recived--->\000"
 5340      5420436F 
 5340      6D6D616E 
 5340      64205265 
 5340      63697665 
 5341 047e 0000     		.space	2
 5342              	.LC37:
 5343 0480 486F6D65 		.ascii	"HomeX executed  \015\012\000"
 5343      58206578 
 5343      65637574 
 5343      65642020 
 5343      0D0A00
 5344 0493 00       		.space	1
 5345              	.LC38:
 5346 0494 486F6D65 		.ascii	"HomeY executed  \015\012\000"
 5346      59206578 
 5346      65637574 
 5346      65642020 
 5346      0D0A00
 5347 04a7 00       		.space	1
 5348              	.LC39:
 5349 04a8 486F6D65 		.ascii	"HomeZ executed  \015\012\000"
 5349      5A206578 
 5349      65637574 
 5349      65642020 
 5349      0D0A00
 5350 04bb 00       		.space	1
 5351              	.LC40:
 5352 04bc 486F6D65 		.ascii	"HomeT executed  \015\012\000"
 5352      54206578 
 5352      65637574 
 5352      65642020 
 5352      0D0A00
 5353 04cf 00       		.space	1
 5354              	.LC41:
 5355 04d0 50434220 		.ascii	"PCB Reset Command Recived  \015\012\000"
 5355      52657365 
 5355      7420436F 
 5355      6D6D616E 
 5355      64205265 
 5356 04ee 0000     		.space	2
 5357              	.LC42:
 5358 04f0 47657420 		.ascii	"Get Status Command Recived  \015\012\000"
 5358      53746174 
 5358      75732043 
 5358      6F6D6D61 
 5358      6E642052 
 5359 050f 00       		.space	1
 5360              	.LC43:
 5361 0510 57726F6E 		.ascii	"Wrong Command Received*********** \015\012\000"
 5361      6720436F 
 5361      6D6D616E 
 5361      64205265 
 5361      63656976 
ARM GAS  C:\Users\Revanth\AppData\Local\Temp\ccSEzD1d.s 			page 140


 5362              		.bss
 5363              		.align	2
 5364              		.set	.LANCHOR0,. + 0
 5365              		.type	EncoderTZSelect, %object
 5366              		.size	EncoderTZSelect, 4
 5367              	EncoderTZSelect:
 5368 0000 00000000 		.space	4
 5369              		.type	X_QuadPosition, %object
 5370              		.size	X_QuadPosition, 4
 5371              	X_QuadPosition:
 5372 0004 00000000 		.space	4
 5373              		.type	Y_QuadPosition, %object
 5374              		.size	Y_QuadPosition, 4
 5375              	Y_QuadPosition:
 5376 0008 00000000 		.space	4
 5377              		.type	Z_QuadPosition, %object
 5378              		.size	Z_QuadPosition, 4
 5379              	Z_QuadPosition:
 5380 000c 00000000 		.space	4
 5381              		.type	T_QuadPosition, %object
 5382              		.size	T_QuadPosition, 4
 5383              	T_QuadPosition:
 5384 0010 00000000 		.space	4
 5385              		.type	Buffer_Z_QuadPosition, %object
 5386              		.size	Buffer_Z_QuadPosition, 4
 5387              	Buffer_Z_QuadPosition:
 5388 0014 00000000 		.space	4
 5389              		.type	Buffer_T_QuadPosition, %object
 5390              		.size	Buffer_T_QuadPosition, 4
 5391              	Buffer_T_QuadPosition:
 5392 0018 00000000 		.space	4
 5393              		.type	No_of_X_Cycle, %object
 5394              		.size	No_of_X_Cycle, 4
 5395              	No_of_X_Cycle:
 5396 001c 00000000 		.space	4
 5397              		.type	No_of_Y_Cycle, %object
 5398              		.size	No_of_Y_Cycle, 4
 5399              	No_of_Y_Cycle:
 5400 0020 00000000 		.space	4
 5401              		.type	No_of_Z_Cycle, %object
 5402              		.size	No_of_Z_Cycle, 4
 5403              	No_of_Z_Cycle:
 5404 0024 00000000 		.space	4
 5405              		.type	PWM_barcode_comare_value, %object
 5406              		.size	PWM_barcode_comare_value, 4
 5407              	PWM_barcode_comare_value:
 5408 0028 00000000 		.space	4
 5409              		.type	PWM_comare_value, %object
 5410              		.size	PWM_comare_value, 4
 5411              	PWM_comare_value:
 5412 002c 00000000 		.space	4
 5413              		.type	errorY, %object
 5414              		.size	errorY, 4
 5415              	errorY:
 5416 0030 00000000 		.space	4
 5417              		.type	Error, %object
 5418              		.size	Error, 4
ARM GAS  C:\Users\Revanth\AppData\Local\Temp\ccSEzD1d.s 			page 141


 5419              	Error:
 5420 0034 00000000 		.space	4
 5421              		.type	errorX, %object
 5422              		.size	errorX, 4
 5423              	errorX:
 5424 0038 00000000 		.space	4
 5425              		.type	errorZ, %object
 5426              		.size	errorZ, 4
 5427              	errorZ:
 5428 003c 00000000 		.space	4
 5429              		.type	dont_Execute_1st_Time.9133, %object
 5430              		.size	dont_Execute_1st_Time.9133, 1
 5431              	dont_Execute_1st_Time.9133:
 5432 0040 00       		.space	1
 5433 0041 000000   		.space	3
 5434              		.type	Position_X_Requested, %object
 5435              		.size	Position_X_Requested, 4
 5436              	Position_X_Requested:
 5437 0044 00000000 		.space	4
 5438              		.type	Position_Y_Requested, %object
 5439              		.size	Position_Y_Requested, 4
 5440              	Position_Y_Requested:
 5441 0048 00000000 		.space	4
 5442              		.type	Position_Z_Requested, %object
 5443              		.size	Position_Z_Requested, 4
 5444              	Position_Z_Requested:
 5445 004c 00000000 		.space	4
 5446              		.type	Position_T_Requested, %object
 5447              		.size	Position_T_Requested, 4
 5448              	Position_T_Requested:
 5449 0050 00000000 		.space	4
 5450              		.type	spi_read_value, %object
 5451              		.size	spi_read_value, 4
 5452              	spi_read_value:
 5453 0054 00000000 		.space	4
 5454              		.type	fact_t, %object
 5455              		.size	fact_t, 4
 5456              	fact_t:
 5457 0058 00000000 		.space	4
 5458              		.type	fact_z, %object
 5459              		.size	fact_z, 4
 5460              	fact_z:
 5461 005c 00000000 		.space	4
 5462              		.type	pitch_factor_XY, %object
 5463              		.size	pitch_factor_XY, 4
 5464              	pitch_factor_XY:
 5465 0060 00000000 		.space	4
 5466              		.type	sub_step_multiplier, %object
 5467              		.size	sub_step_multiplier, 4
 5468              	sub_step_multiplier:
 5469 0064 00000000 		.space	4
 5470              		.type	Position_Z_Move, %object
 5471              		.size	Position_Z_Move, 4
 5472              	Position_Z_Move:
 5473 0068 00000000 		.space	4
 5474              		.type	Position_Y_Move, %object
 5475              		.size	Position_Y_Move, 4
ARM GAS  C:\Users\Revanth\AppData\Local\Temp\ccSEzD1d.s 			page 142


 5476              	Position_Y_Move:
 5477 006c 00000000 		.space	4
 5478              		.type	Position_X_Move, %object
 5479              		.size	Position_X_Move, 4
 5480              	Position_X_Move:
 5481 0070 00000000 		.space	4
 5482              		.type	Input_position_T, %object
 5483              		.size	Input_position_T, 4
 5484              	Input_position_T:
 5485 0074 00000000 		.space	4
 5486              		.type	Input_position_Z, %object
 5487              		.size	Input_position_Z, 4
 5488              	Input_position_Z:
 5489 0078 00000000 		.space	4
 5490              		.type	Input_position_Y, %object
 5491              		.size	Input_position_Y, 4
 5492              	Input_position_Y:
 5493 007c 00000000 		.space	4
 5494              		.type	Input_position_X, %object
 5495              		.size	Input_position_X, 4
 5496              	Input_position_X:
 5497 0080 00000000 		.space	4
 5498              		.type	errorT, %object
 5499              		.size	errorT, 4
 5500              	errorT:
 5501 0084 00000000 		.space	4
 5502              		.text
 5503              	.Letext0:
 5504              		.file 2 "c:\\program files (x86)\\cypress\\psoc creator\\4.4\\psoc creator\\import\\gnu\\arm\\5.4.
 5505              		.file 3 "c:\\program files (x86)\\cypress\\psoc creator\\4.4\\psoc creator\\import\\gnu\\arm\\5.4.
 5506              		.file 4 "Generated_Source\\PSoC5/cytypes.h"
 5507              		.file 5 "Generated_Source\\PSoC5/core_cm3.h"
 5508              		.file 6 "variables.h"
 5509              		.file 7 "Generated_Source\\PSoC5/PWM_CondenserLED.h"
 5510              		.file 8 "Generated_Source\\PSoC5/PWM_BarcodeCondenser_LED.h"
 5511              		.file 9 "Generated_Source\\PSoC5/PWM_Buzzer.h"
 5512              		.file 10 "Generated_Source\\PSoC5/CyLib.h"
 5513              		.file 11 "Generated_Source\\PSoC5/Pin_Backlight.h"
 5514              		.file 12 "Generated_Source\\PSoC5/QuadDec_TZ.h"
 5515              		.file 13 "Generated_Source\\PSoC5/Encoder_T_Z_Select.h"
 5516              		.file 14 "Generated_Source\\PSoC5/QuadDec_Y.h"
 5517              		.file 15 "Generated_Source\\PSoC5/QuadDec_X.h"
 5518              		.file 16 "Generated_Source\\PSoC5/USB_cdc.h"
 5519              		.file 17 "c:\\program files (x86)\\cypress\\psoc creator\\4.4\\psoc creator\\import\\gnu\\arm\\5.4
 5520              		.file 18 "Generated_Source\\PSoC5/UART_PCB_LOG.h"
 5521              		.file 19 "Generated_Source\\PSoC5/USB.h"
 5522              		.file 20 "c:\\program files (x86)\\cypress\\psoc creator\\4.4\\psoc creator\\import\\gnu\\arm\\5.4
 5523              		.file 21 "Generated_Source\\PSoC5/SPIM.h"
 5524              		.file 22 "Generated_Source\\PSoC5/Pin_CSMotorX.h"
 5525              		.file 23 "Generated_Source\\PSoC5/Pin_CSMotorY.h"
 5526              		.file 24 "Generated_Source\\PSoC5/Pin_CSMotorZ.h"
 5527              		.file 25 "Generated_Source\\PSoC5/Pin_CSMotorT.h"
 5528              		.file 26 "Generated_Source\\PSoC5/Pin_CSMotorO.h"
 5529              		.file 27 "Generated_Source\\PSoC5/LED3.h"
 5530              		.file 28 "Generated_Source\\PSoC5/LED2.h"
 5531              		.section	.debug_info,"",%progbits
 5532              	.Ldebug_info0:
ARM GAS  C:\Users\Revanth\AppData\Local\Temp\ccSEzD1d.s 			page 143


 5533 0000 69390000 		.4byte	0x3969
 5534 0004 0400     		.2byte	0x4
 5535 0006 00000000 		.4byte	.Ldebug_abbrev0
 5536 000a 04       		.byte	0x4
 5537 000b 01       		.uleb128 0x1
 5538 000c C1080000 		.4byte	.LASF195
 5539 0010 0C       		.byte	0xc
 5540 0011 45000000 		.4byte	.LASF196
 5541 0015 91030000 		.4byte	.LASF197
 5542 0019 00000000 		.4byte	.Ldebug_ranges0+0
 5543 001d 00000000 		.4byte	0
 5544 0021 00000000 		.4byte	.Ldebug_line0
 5545 0025 02       		.uleb128 0x2
 5546 0026 01       		.byte	0x1
 5547 0027 06       		.byte	0x6
 5548 0028 7F010000 		.4byte	.LASF0
 5549 002c 03       		.uleb128 0x3
 5550 002d 4D000000 		.4byte	.LASF4
 5551 0031 02       		.byte	0x2
 5552 0032 1D       		.byte	0x1d
 5553 0033 37000000 		.4byte	0x37
 5554 0037 02       		.uleb128 0x2
 5555 0038 01       		.byte	0x1
 5556 0039 08       		.byte	0x8
 5557 003a FD070000 		.4byte	.LASF1
 5558 003e 02       		.uleb128 0x2
 5559 003f 02       		.byte	0x2
 5560 0040 05       		.byte	0x5
 5561 0041 50080000 		.4byte	.LASF2
 5562 0045 02       		.uleb128 0x2
 5563 0046 02       		.byte	0x2
 5564 0047 07       		.byte	0x7
 5565 0048 0A050000 		.4byte	.LASF3
 5566 004c 03       		.uleb128 0x3
 5567 004d 2F0A0000 		.4byte	.LASF5
 5568 0051 02       		.byte	0x2
 5569 0052 3F       		.byte	0x3f
 5570 0053 57000000 		.4byte	0x57
 5571 0057 02       		.uleb128 0x2
 5572 0058 04       		.byte	0x4
 5573 0059 05       		.byte	0x5
 5574 005a 32020000 		.4byte	.LASF6
 5575 005e 03       		.uleb128 0x3
 5576 005f 52030000 		.4byte	.LASF7
 5577 0063 02       		.byte	0x2
 5578 0064 41       		.byte	0x41
 5579 0065 69000000 		.4byte	0x69
 5580 0069 02       		.uleb128 0x2
 5581 006a 04       		.byte	0x4
 5582 006b 07       		.byte	0x7
 5583 006c B0040000 		.4byte	.LASF8
 5584 0070 02       		.uleb128 0x2
 5585 0071 08       		.byte	0x8
 5586 0072 05       		.byte	0x5
 5587 0073 C6020000 		.4byte	.LASF9
 5588 0077 02       		.uleb128 0x2
 5589 0078 08       		.byte	0x8
ARM GAS  C:\Users\Revanth\AppData\Local\Temp\ccSEzD1d.s 			page 144


 5590 0079 07       		.byte	0x7
 5591 007a DA000000 		.4byte	.LASF10
 5592 007e 04       		.uleb128 0x4
 5593 007f 04       		.byte	0x4
 5594 0080 05       		.byte	0x5
 5595 0081 696E7400 		.ascii	"int\000"
 5596 0085 02       		.uleb128 0x2
 5597 0086 04       		.byte	0x4
 5598 0087 07       		.byte	0x7
 5599 0088 3F040000 		.4byte	.LASF11
 5600 008c 03       		.uleb128 0x3
 5601 008d 670B0000 		.4byte	.LASF12
 5602 0091 03       		.byte	0x3
 5603 0092 18       		.byte	0x18
 5604 0093 2C000000 		.4byte	0x2c
 5605 0097 03       		.uleb128 0x3
 5606 0098 F5070000 		.4byte	.LASF13
 5607 009c 03       		.byte	0x3
 5608 009d 2C       		.byte	0x2c
 5609 009e 4C000000 		.4byte	0x4c
 5610 00a2 03       		.uleb128 0x3
 5611 00a3 8C090000 		.4byte	.LASF14
 5612 00a7 03       		.byte	0x3
 5613 00a8 30       		.byte	0x30
 5614 00a9 5E000000 		.4byte	0x5e
 5615 00ad 02       		.uleb128 0x2
 5616 00ae 08       		.byte	0x8
 5617 00af 04       		.byte	0x4
 5618 00b0 A0060000 		.4byte	.LASF15
 5619 00b4 02       		.uleb128 0x2
 5620 00b5 04       		.byte	0x4
 5621 00b6 07       		.byte	0x7
 5622 00b7 8D060000 		.4byte	.LASF16
 5623 00bb 05       		.uleb128 0x5
 5624 00bc 04       		.byte	0x4
 5625 00bd C1000000 		.4byte	0xc1
 5626 00c1 02       		.uleb128 0x2
 5627 00c2 01       		.byte	0x1
 5628 00c3 08       		.byte	0x8
 5629 00c4 B7090000 		.4byte	.LASF17
 5630 00c8 02       		.uleb128 0x2
 5631 00c9 08       		.byte	0x8
 5632 00ca 04       		.byte	0x4
 5633 00cb EB020000 		.4byte	.LASF18
 5634 00cf 02       		.uleb128 0x2
 5635 00d0 04       		.byte	0x4
 5636 00d1 04       		.byte	0x4
 5637 00d2 B1090000 		.4byte	.LASF19
 5638 00d6 06       		.uleb128 0x6
 5639 00d7 AF020000 		.4byte	.LASF20
 5640 00db 04       		.byte	0x4
 5641 00dc E401     		.2byte	0x1e4
 5642 00de 37000000 		.4byte	0x37
 5643 00e2 06       		.uleb128 0x6
 5644 00e3 06000000 		.4byte	.LASF21
 5645 00e7 04       		.byte	0x4
 5646 00e8 E501     		.2byte	0x1e5
ARM GAS  C:\Users\Revanth\AppData\Local\Temp\ccSEzD1d.s 			page 145


 5647 00ea 45000000 		.4byte	0x45
 5648 00ee 06       		.uleb128 0x6
 5649 00ef 44050000 		.4byte	.LASF22
 5650 00f3 04       		.byte	0x4
 5651 00f4 E701     		.2byte	0x1e7
 5652 00f6 25000000 		.4byte	0x25
 5653 00fa 06       		.uleb128 0x6
 5654 00fb C7010000 		.4byte	.LASF23
 5655 00ff 04       		.byte	0x4
 5656 0100 E901     		.2byte	0x1e9
 5657 0102 57000000 		.4byte	0x57
 5658 0106 07       		.uleb128 0x7
 5659 0107 1E010000 		.4byte	.LASF29
 5660 010b 01       		.byte	0x1
 5661 010c FC02     		.2byte	0x2fc
 5662 010e 00000000 		.4byte	.LFB79
 5663 0112 4A000000 		.4byte	.LFE79-.LFB79
 5664 0116 01       		.uleb128 0x1
 5665 0117 9C       		.byte	0x9c
 5666 0118 E6010000 		.4byte	0x1e6
 5667 011c 08       		.uleb128 0x8
 5668 011d 06000000 		.4byte	.LVL0
 5669 0121 B0370000 		.4byte	0x37b0
 5670 0125 09       		.uleb128 0x9
 5671 0126 0C000000 		.4byte	.LVL1
 5672 012a BB370000 		.4byte	0x37bb
 5673 012e 38010000 		.4byte	0x138
 5674 0132 0A       		.uleb128 0xa
 5675 0133 01       		.uleb128 0x1
 5676 0134 50       		.byte	0x50
 5677 0135 01       		.uleb128 0x1
 5678 0136 32       		.byte	0x32
 5679 0137 00       		.byte	0
 5680 0138 08       		.uleb128 0x8
 5681 0139 10000000 		.4byte	.LVL2
 5682 013d C6370000 		.4byte	0x37c6
 5683 0141 09       		.uleb128 0x9
 5684 0142 16000000 		.4byte	.LVL3
 5685 0146 D1370000 		.4byte	0x37d1
 5686 014a 54010000 		.4byte	0x154
 5687 014e 0A       		.uleb128 0xa
 5688 014f 01       		.uleb128 0x1
 5689 0150 50       		.byte	0x50
 5690 0151 01       		.uleb128 0x1
 5691 0152 32       		.byte	0x32
 5692 0153 00       		.byte	0
 5693 0154 08       		.uleb128 0x8
 5694 0155 1A000000 		.4byte	.LVL4
 5695 0159 DC370000 		.4byte	0x37dc
 5696 015d 09       		.uleb128 0x9
 5697 015e 22000000 		.4byte	.LVL5
 5698 0162 E7370000 		.4byte	0x37e7
 5699 0166 72010000 		.4byte	0x172
 5700 016a 0A       		.uleb128 0xa
 5701 016b 01       		.uleb128 0x1
 5702 016c 50       		.byte	0x50
 5703 016d 03       		.uleb128 0x3
ARM GAS  C:\Users\Revanth\AppData\Local\Temp\ccSEzD1d.s 			page 146


 5704 016e 0A       		.byte	0xa
 5705 016f C409     		.2byte	0x9c4
 5706 0171 00       		.byte	0
 5707 0172 09       		.uleb128 0x9
 5708 0173 28000000 		.4byte	.LVL6
 5709 0177 F2370000 		.4byte	0x37f2
 5710 017b 86010000 		.4byte	0x186
 5711 017f 0A       		.uleb128 0xa
 5712 0180 01       		.uleb128 0x1
 5713 0181 50       		.byte	0x50
 5714 0182 02       		.uleb128 0x2
 5715 0183 08       		.byte	0x8
 5716 0184 C8       		.byte	0xc8
 5717 0185 00       		.byte	0
 5718 0186 09       		.uleb128 0x9
 5719 0187 2E000000 		.4byte	.LVL7
 5720 018b E7370000 		.4byte	0x37e7
 5721 018f 99010000 		.4byte	0x199
 5722 0193 0A       		.uleb128 0xa
 5723 0194 01       		.uleb128 0x1
 5724 0195 50       		.byte	0x50
 5725 0196 01       		.uleb128 0x1
 5726 0197 30       		.byte	0x30
 5727 0198 00       		.byte	0
 5728 0199 09       		.uleb128 0x9
 5729 019a 34000000 		.4byte	.LVL8
 5730 019e F2370000 		.4byte	0x37f2
 5731 01a2 AD010000 		.4byte	0x1ad
 5732 01a6 0A       		.uleb128 0xa
 5733 01a7 01       		.uleb128 0x1
 5734 01a8 50       		.byte	0x50
 5735 01a9 02       		.uleb128 0x2
 5736 01aa 08       		.byte	0x8
 5737 01ab C8       		.byte	0xc8
 5738 01ac 00       		.byte	0
 5739 01ad 09       		.uleb128 0x9
 5740 01ae 3C000000 		.4byte	.LVL9
 5741 01b2 E7370000 		.4byte	0x37e7
 5742 01b6 C2010000 		.4byte	0x1c2
 5743 01ba 0A       		.uleb128 0xa
 5744 01bb 01       		.uleb128 0x1
 5745 01bc 50       		.byte	0x50
 5746 01bd 03       		.uleb128 0x3
 5747 01be 0A       		.byte	0xa
 5748 01bf C409     		.2byte	0x9c4
 5749 01c1 00       		.byte	0
 5750 01c2 09       		.uleb128 0x9
 5751 01c3 42000000 		.4byte	.LVL10
 5752 01c7 F2370000 		.4byte	0x37f2
 5753 01cb D6010000 		.4byte	0x1d6
 5754 01cf 0A       		.uleb128 0xa
 5755 01d0 01       		.uleb128 0x1
 5756 01d1 50       		.byte	0x50
 5757 01d2 02       		.uleb128 0x2
 5758 01d3 08       		.byte	0x8
 5759 01d4 C8       		.byte	0xc8
 5760 01d5 00       		.byte	0
ARM GAS  C:\Users\Revanth\AppData\Local\Temp\ccSEzD1d.s 			page 147


 5761 01d6 0B       		.uleb128 0xb
 5762 01d7 48000000 		.4byte	.LVL11
 5763 01db E7370000 		.4byte	0x37e7
 5764 01df 0A       		.uleb128 0xa
 5765 01e0 01       		.uleb128 0x1
 5766 01e1 50       		.byte	0x50
 5767 01e2 01       		.uleb128 0x1
 5768 01e3 30       		.byte	0x30
 5769 01e4 00       		.byte	0
 5770 01e5 00       		.byte	0
 5771 01e6 0C       		.uleb128 0xc
 5772 01e7 0C060000 		.4byte	.LASF24
 5773 01eb 01       		.byte	0x1
 5774 01ec 4603     		.2byte	0x346
 5775 01ee 00000000 		.4byte	.LFB85
 5776 01f2 08000000 		.4byte	.LFE85-.LFB85
 5777 01f6 01       		.uleb128 0x1
 5778 01f7 9C       		.byte	0x9c
 5779 01f8 16020000 		.4byte	0x216
 5780 01fc 0D       		.uleb128 0xd
 5781 01fd 1D040000 		.4byte	.LASF26
 5782 0201 01       		.byte	0x1
 5783 0202 4603     		.2byte	0x346
 5784 0204 8C000000 		.4byte	0x8c
 5785 0208 00000000 		.4byte	.LLST0
 5786 020c 08       		.uleb128 0x8
 5787 020d 06000000 		.4byte	.LVL13
 5788 0211 FD370000 		.4byte	0x37fd
 5789 0215 00       		.byte	0
 5790 0216 0C       		.uleb128 0xc
 5791 0217 56060000 		.4byte	.LASF25
 5792 021b 01       		.byte	0x1
 5793 021c 5B03     		.2byte	0x35b
 5794 021e 00000000 		.4byte	.LFB87
 5795 0222 18000000 		.4byte	.LFE87-.LFB87
 5796 0226 01       		.uleb128 0x1
 5797 0227 9C       		.byte	0x9c
 5798 0228 62020000 		.4byte	0x262
 5799 022c 0D       		.uleb128 0xd
 5800 022d 2C0C0000 		.4byte	.LASF27
 5801 0231 01       		.byte	0x1
 5802 0232 5B03     		.2byte	0x35b
 5803 0234 7E000000 		.4byte	0x7e
 5804 0238 21000000 		.4byte	.LLST1
 5805 023c 09       		.uleb128 0x9
 5806 023d 0C000000 		.4byte	.LVL15
 5807 0241 08380000 		.4byte	0x3808
 5808 0245 51020000 		.4byte	0x251
 5809 0249 0A       		.uleb128 0xa
 5810 024a 01       		.uleb128 0x1
 5811 024b 50       		.byte	0x50
 5812 024c 03       		.uleb128 0x3
 5813 024d F3       		.byte	0xf3
 5814 024e 01       		.uleb128 0x1
 5815 024f 50       		.byte	0x50
 5816 0250 00       		.byte	0
 5817 0251 0B       		.uleb128 0xb
ARM GAS  C:\Users\Revanth\AppData\Local\Temp\ccSEzD1d.s 			page 148


 5818 0252 12000000 		.4byte	.LVL16
 5819 0256 13380000 		.4byte	0x3813
 5820 025a 0A       		.uleb128 0xa
 5821 025b 01       		.uleb128 0x1
 5822 025c 50       		.byte	0x50
 5823 025d 02       		.uleb128 0x2
 5824 025e 74       		.byte	0x74
 5825 025f 00       		.sleb128 0
 5826 0260 00       		.byte	0
 5827 0261 00       		.byte	0
 5828 0262 0C       		.uleb128 0xc
 5829 0263 7C060000 		.4byte	.LASF28
 5830 0267 01       		.byte	0x1
 5831 0268 6203     		.2byte	0x362
 5832 026a 00000000 		.4byte	.LFB88
 5833 026e 18000000 		.4byte	.LFE88-.LFB88
 5834 0272 01       		.uleb128 0x1
 5835 0273 9C       		.byte	0x9c
 5836 0274 AE020000 		.4byte	0x2ae
 5837 0278 0D       		.uleb128 0xd
 5838 0279 2C0C0000 		.4byte	.LASF27
 5839 027d 01       		.byte	0x1
 5840 027e 6203     		.2byte	0x362
 5841 0280 7E000000 		.4byte	0x7e
 5842 0284 42000000 		.4byte	.LLST2
 5843 0288 09       		.uleb128 0x9
 5844 0289 0C000000 		.4byte	.LVL18
 5845 028d 08380000 		.4byte	0x3808
 5846 0291 9D020000 		.4byte	0x29d
 5847 0295 0A       		.uleb128 0xa
 5848 0296 01       		.uleb128 0x1
 5849 0297 50       		.byte	0x50
 5850 0298 03       		.uleb128 0x3
 5851 0299 F3       		.byte	0xf3
 5852 029a 01       		.uleb128 0x1
 5853 029b 50       		.byte	0x50
 5854 029c 00       		.byte	0
 5855 029d 0B       		.uleb128 0xb
 5856 029e 12000000 		.4byte	.LVL19
 5857 02a2 13380000 		.4byte	0x3813
 5858 02a6 0A       		.uleb128 0xa
 5859 02a7 01       		.uleb128 0x1
 5860 02a8 50       		.byte	0x50
 5861 02a9 02       		.uleb128 0x2
 5862 02aa 74       		.byte	0x74
 5863 02ab 00       		.sleb128 0
 5864 02ac 00       		.byte	0
 5865 02ad 00       		.byte	0
 5866 02ae 07       		.uleb128 0x7
 5867 02af 8D050000 		.4byte	.LASF30
 5868 02b3 01       		.byte	0x1
 5869 02b4 4C03     		.2byte	0x34c
 5870 02b6 00000000 		.4byte	.LFB86
 5871 02ba 2C000000 		.4byte	.LFE86-.LFB86
 5872 02be 01       		.uleb128 0x1
 5873 02bf 9C       		.byte	0x9c
 5874 02c0 04030000 		.4byte	0x304
ARM GAS  C:\Users\Revanth\AppData\Local\Temp\ccSEzD1d.s 			page 149


 5875 02c4 08       		.uleb128 0x8
 5876 02c5 12000000 		.4byte	.LVL20
 5877 02c9 1E380000 		.4byte	0x381e
 5878 02cd 08       		.uleb128 0x8
 5879 02ce 16000000 		.4byte	.LVL21
 5880 02d2 29380000 		.4byte	0x3829
 5881 02d6 08       		.uleb128 0x8
 5882 02d7 1A000000 		.4byte	.LVL22
 5883 02db 34380000 		.4byte	0x3834
 5884 02df 09       		.uleb128 0x9
 5885 02e0 20000000 		.4byte	.LVL23
 5886 02e4 62020000 		.4byte	0x262
 5887 02e8 F3020000 		.4byte	0x2f3
 5888 02ec 0A       		.uleb128 0xa
 5889 02ed 01       		.uleb128 0x1
 5890 02ee 50       		.byte	0x50
 5891 02ef 02       		.uleb128 0x2
 5892 02f0 74       		.byte	0x74
 5893 02f1 00       		.sleb128 0
 5894 02f2 00       		.byte	0
 5895 02f3 0B       		.uleb128 0xb
 5896 02f4 26000000 		.4byte	.LVL24
 5897 02f8 16020000 		.4byte	0x216
 5898 02fc 0A       		.uleb128 0xa
 5899 02fd 01       		.uleb128 0x1
 5900 02fe 50       		.byte	0x50
 5901 02ff 02       		.uleb128 0x2
 5902 0300 74       		.byte	0x74
 5903 0301 00       		.sleb128 0
 5904 0302 00       		.byte	0
 5905 0303 00       		.byte	0
 5906 0304 07       		.uleb128 0x7
 5907 0305 99010000 		.4byte	.LASF31
 5908 0309 01       		.byte	0x1
 5909 030a 6903     		.2byte	0x369
 5910 030c 00000000 		.4byte	.LFB89
 5911 0310 44000000 		.4byte	.LFE89-.LFB89
 5912 0314 01       		.uleb128 0x1
 5913 0315 9C       		.byte	0x9c
 5914 0316 3F030000 		.4byte	0x33f
 5915 031a 08       		.uleb128 0x8
 5916 031b 0C000000 		.4byte	.LVL25
 5917 031f 3F380000 		.4byte	0x383f
 5918 0323 08       		.uleb128 0x8
 5919 0324 28000000 		.4byte	.LVL26
 5920 0328 3F380000 		.4byte	0x383f
 5921 032c 08       		.uleb128 0x8
 5922 032d 30000000 		.4byte	.LVL27
 5923 0331 4A380000 		.4byte	0x384a
 5924 0335 08       		.uleb128 0x8
 5925 0336 3A000000 		.4byte	.LVL28
 5926 033a 55380000 		.4byte	0x3855
 5927 033e 00       		.byte	0
 5928 033f 0E       		.uleb128 0xe
 5929 0340 5A050000 		.4byte	.LASF198
 5930 0344 01       		.byte	0x1
 5931 0345 ED04     		.2byte	0x4ed
ARM GAS  C:\Users\Revanth\AppData\Local\Temp\ccSEzD1d.s 			page 150


 5932 0347 00000000 		.4byte	.LFB92
 5933 034b 02000000 		.4byte	.LFE92-.LFB92
 5934 034f 01       		.uleb128 0x1
 5935 0350 9C       		.byte	0x9c
 5936 0351 07       		.uleb128 0x7
 5937 0352 1E060000 		.4byte	.LASF32
 5938 0356 01       		.byte	0x1
 5939 0357 1005     		.2byte	0x510
 5940 0359 00000000 		.4byte	.LFB95
 5941 035d 18000000 		.4byte	.LFE95-.LFB95
 5942 0361 01       		.uleb128 0x1
 5943 0362 9C       		.byte	0x9c
 5944 0363 76030000 		.4byte	0x376
 5945 0367 0F       		.uleb128 0xf
 5946 0368 6900     		.ascii	"i\000"
 5947 036a 01       		.byte	0x1
 5948 036b 1205     		.2byte	0x512
 5949 036d 7E000000 		.4byte	0x7e
 5950 0371 63000000 		.4byte	.LLST3
 5951 0375 00       		.byte	0
 5952 0376 07       		.uleb128 0x7
 5953 0377 500B0000 		.4byte	.LASF33
 5954 037b 01       		.byte	0x1
 5955 037c 1605     		.2byte	0x516
 5956 037e 00000000 		.4byte	.LFB96
 5957 0382 18000000 		.4byte	.LFE96-.LFB96
 5958 0386 01       		.uleb128 0x1
 5959 0387 9C       		.byte	0x9c
 5960 0388 BB030000 		.4byte	0x3bb
 5961 038c 0F       		.uleb128 0xf
 5962 038d 6900     		.ascii	"i\000"
 5963 038f 01       		.byte	0x1
 5964 0390 1805     		.2byte	0x518
 5965 0392 7E000000 		.4byte	0x7e
 5966 0396 82000000 		.4byte	.LLST4
 5967 039a 10       		.uleb128 0x10
 5968 039b 1A0B0000 		.4byte	.LASF34
 5969 039f 01       		.byte	0x1
 5970 03a0 1905     		.2byte	0x519
 5971 03a2 BB030000 		.4byte	0x3bb
 5972 03a6 03       		.uleb128 0x3
 5973 03a7 91       		.byte	0x91
 5974 03a8 B87F     		.sleb128 -72
 5975 03aa 0B       		.uleb128 0xb
 5976 03ab 0E000000 		.4byte	.LVL34
 5977 03af 60380000 		.4byte	0x3860
 5978 03b3 0A       		.uleb128 0xa
 5979 03b4 01       		.uleb128 0x1
 5980 03b5 50       		.byte	0x50
 5981 03b6 02       		.uleb128 0x2
 5982 03b7 7D       		.byte	0x7d
 5983 03b8 00       		.sleb128 0
 5984 03b9 00       		.byte	0
 5985 03ba 00       		.byte	0
 5986 03bb 11       		.uleb128 0x11
 5987 03bc D6000000 		.4byte	0xd6
 5988 03c0 CB030000 		.4byte	0x3cb
ARM GAS  C:\Users\Revanth\AppData\Local\Temp\ccSEzD1d.s 			page 151


 5989 03c4 12       		.uleb128 0x12
 5990 03c5 B4000000 		.4byte	0xb4
 5991 03c9 3F       		.byte	0x3f
 5992 03ca 00       		.byte	0
 5993 03cb 0C       		.uleb128 0xc
 5994 03cc 690A0000 		.4byte	.LASF35
 5995 03d0 01       		.byte	0x1
 5996 03d1 1F05     		.2byte	0x51f
 5997 03d3 00000000 		.4byte	.LFB97
 5998 03d7 2C000000 		.4byte	.LFE97-.LFB97
 5999 03db 01       		.uleb128 0x1
 6000 03dc 9C       		.byte	0x9c
 6001 03dd 75040000 		.4byte	0x475
 6002 03e1 13       		.uleb128 0x13
 6003 03e2 53747200 		.ascii	"Str\000"
 6004 03e6 01       		.byte	0x1
 6005 03e7 1F05     		.2byte	0x51f
 6006 03e9 BB000000 		.4byte	0xbb
 6007 03ed A1000000 		.4byte	.LLST5
 6008 03f1 14       		.uleb128 0x14
 6009 03f2 04000000 		.4byte	.LBB2
 6010 03f6 28000000 		.4byte	.LBE2-.LBB2
 6011 03fa 10       		.uleb128 0x10
 6012 03fb F1000000 		.4byte	.LASF36
 6013 03ff 01       		.byte	0x1
 6014 0400 2305     		.2byte	0x523
 6015 0402 75040000 		.4byte	0x475
 6016 0406 05       		.uleb128 0x5
 6017 0407 03       		.byte	0x3
 6018 0408 00000000 		.4byte	Str_Last_One.9150
 6019 040c 09       		.uleb128 0x9
 6020 040d 0E000000 		.4byte	.LVL38
 6021 0411 6B380000 		.4byte	0x386b
 6022 0415 2E040000 		.4byte	0x42e
 6023 0419 0A       		.uleb128 0xa
 6024 041a 01       		.uleb128 0x1
 6025 041b 50       		.byte	0x50
 6026 041c 05       		.uleb128 0x5
 6027 041d 03       		.byte	0x3
 6028 041e 00000000 		.4byte	.LANCHOR1
 6029 0422 0A       		.uleb128 0xa
 6030 0423 01       		.uleb128 0x1
 6031 0424 51       		.byte	0x51
 6032 0425 02       		.uleb128 0x2
 6033 0426 74       		.byte	0x74
 6034 0427 00       		.sleb128 0
 6035 0428 0A       		.uleb128 0xa
 6036 0429 01       		.uleb128 0x1
 6037 042a 52       		.byte	0x52
 6038 042b 01       		.uleb128 0x1
 6039 042c 3A       		.byte	0x3a
 6040 042d 00       		.byte	0
 6041 042e 09       		.uleb128 0x9
 6042 042f 16000000 		.4byte	.LVL39
 6043 0433 76380000 		.4byte	0x3876
 6044 0437 42040000 		.4byte	0x442
 6045 043b 0A       		.uleb128 0xa
ARM GAS  C:\Users\Revanth\AppData\Local\Temp\ccSEzD1d.s 			page 152


 6046 043c 01       		.uleb128 0x1
 6047 043d 50       		.byte	0x50
 6048 043e 02       		.uleb128 0x2
 6049 043f 74       		.byte	0x74
 6050 0440 00       		.sleb128 0
 6051 0441 00       		.byte	0
 6052 0442 09       		.uleb128 0x9
 6053 0443 1C000000 		.4byte	.LVL40
 6054 0447 81380000 		.4byte	0x3881
 6055 044b 55040000 		.4byte	0x455
 6056 044f 0A       		.uleb128 0xa
 6057 0450 01       		.uleb128 0x1
 6058 0451 50       		.byte	0x50
 6059 0452 01       		.uleb128 0x1
 6060 0453 31       		.byte	0x31
 6061 0454 00       		.byte	0
 6062 0455 0B       		.uleb128 0xb
 6063 0456 26000000 		.4byte	.LVL41
 6064 045a 8C380000 		.4byte	0x388c
 6065 045e 0A       		.uleb128 0xa
 6066 045f 01       		.uleb128 0x1
 6067 0460 50       		.byte	0x50
 6068 0461 05       		.uleb128 0x5
 6069 0462 03       		.byte	0x3
 6070 0463 00000000 		.4byte	.LANCHOR1
 6071 0467 0A       		.uleb128 0xa
 6072 0468 01       		.uleb128 0x1
 6073 0469 51       		.byte	0x51
 6074 046a 02       		.uleb128 0x2
 6075 046b 74       		.byte	0x74
 6076 046c 00       		.sleb128 0
 6077 046d 0A       		.uleb128 0xa
 6078 046e 01       		.uleb128 0x1
 6079 046f 52       		.byte	0x52
 6080 0470 01       		.uleb128 0x1
 6081 0471 3A       		.byte	0x3a
 6082 0472 00       		.byte	0
 6083 0473 00       		.byte	0
 6084 0474 00       		.byte	0
 6085 0475 11       		.uleb128 0x11
 6086 0476 C1000000 		.4byte	0xc1
 6087 047a 85040000 		.4byte	0x485
 6088 047e 12       		.uleb128 0x12
 6089 047f B4000000 		.4byte	0xb4
 6090 0483 0C       		.byte	0xc
 6091 0484 00       		.byte	0
 6092 0485 15       		.uleb128 0x15
 6093 0486 96060000 		.4byte	.LASF37
 6094 048a 01       		.byte	0x1
 6095 048b 2303     		.2byte	0x323
 6096 048d 7E000000 		.4byte	0x7e
 6097 0491 00000000 		.4byte	.LFB82
 6098 0495 24000000 		.4byte	.LFE82-.LFB82
 6099 0499 01       		.uleb128 0x1
 6100 049a 9C       		.byte	0x9c
 6101 049b EF040000 		.4byte	0x4ef
 6102 049f 09       		.uleb128 0x9
ARM GAS  C:\Users\Revanth\AppData\Local\Temp\ccSEzD1d.s 			page 153


 6103 04a0 0A000000 		.4byte	.LVL43
 6104 04a4 E7370000 		.4byte	0x37e7
 6105 04a8 B4040000 		.4byte	0x4b4
 6106 04ac 0A       		.uleb128 0xa
 6107 04ad 01       		.uleb128 0x1
 6108 04ae 50       		.byte	0x50
 6109 04af 03       		.uleb128 0x3
 6110 04b0 0A       		.byte	0xa
 6111 04b1 C409     		.2byte	0x9c4
 6112 04b3 00       		.byte	0
 6113 04b4 09       		.uleb128 0x9
 6114 04b5 10000000 		.4byte	.LVL44
 6115 04b9 F2370000 		.4byte	0x37f2
 6116 04bd C8040000 		.4byte	0x4c8
 6117 04c1 0A       		.uleb128 0xa
 6118 04c2 01       		.uleb128 0x1
 6119 04c3 50       		.byte	0x50
 6120 04c4 02       		.uleb128 0x2
 6121 04c5 08       		.byte	0x8
 6122 04c6 C8       		.byte	0xc8
 6123 04c7 00       		.byte	0
 6124 04c8 09       		.uleb128 0x9
 6125 04c9 16000000 		.4byte	.LVL45
 6126 04cd E7370000 		.4byte	0x37e7
 6127 04d1 DB040000 		.4byte	0x4db
 6128 04d5 0A       		.uleb128 0xa
 6129 04d6 01       		.uleb128 0x1
 6130 04d7 50       		.byte	0x50
 6131 04d8 01       		.uleb128 0x1
 6132 04d9 30       		.byte	0x30
 6133 04da 00       		.byte	0
 6134 04db 0B       		.uleb128 0xb
 6135 04dc 1C000000 		.4byte	.LVL46
 6136 04e0 CB030000 		.4byte	0x3cb
 6137 04e4 0A       		.uleb128 0xa
 6138 04e5 01       		.uleb128 0x1
 6139 04e6 50       		.byte	0x50
 6140 04e7 05       		.uleb128 0x5
 6141 04e8 03       		.byte	0x3
 6142 04e9 00000000 		.4byte	.LC0
 6143 04ed 00       		.byte	0
 6144 04ee 00       		.byte	0
 6145 04ef 15       		.uleb128 0x15
 6146 04f0 B2050000 		.4byte	.LASF38
 6147 04f4 01       		.byte	0x1
 6148 04f5 2C03     		.2byte	0x32c
 6149 04f7 7E000000 		.4byte	0x7e
 6150 04fb 00000000 		.4byte	.LFB83
 6151 04ff 40000000 		.4byte	.LFE83-.LFB83
 6152 0503 01       		.uleb128 0x1
 6153 0504 9C       		.byte	0x9c
 6154 0505 A9050000 		.4byte	0x5a9
 6155 0509 09       		.uleb128 0x9
 6156 050a 0A000000 		.4byte	.LVL47
 6157 050e E7370000 		.4byte	0x37e7
 6158 0512 1E050000 		.4byte	0x51e
 6159 0516 0A       		.uleb128 0xa
ARM GAS  C:\Users\Revanth\AppData\Local\Temp\ccSEzD1d.s 			page 154


 6160 0517 01       		.uleb128 0x1
 6161 0518 50       		.byte	0x50
 6162 0519 03       		.uleb128 0x3
 6163 051a 0A       		.byte	0xa
 6164 051b C409     		.2byte	0x9c4
 6165 051d 00       		.byte	0
 6166 051e 09       		.uleb128 0x9
 6167 051f 10000000 		.4byte	.LVL48
 6168 0523 F2370000 		.4byte	0x37f2
 6169 0527 32050000 		.4byte	0x532
 6170 052b 0A       		.uleb128 0xa
 6171 052c 01       		.uleb128 0x1
 6172 052d 50       		.byte	0x50
 6173 052e 02       		.uleb128 0x2
 6174 052f 08       		.byte	0x8
 6175 0530 C8       		.byte	0xc8
 6176 0531 00       		.byte	0
 6177 0532 09       		.uleb128 0x9
 6178 0533 16000000 		.4byte	.LVL49
 6179 0537 E7370000 		.4byte	0x37e7
 6180 053b 45050000 		.4byte	0x545
 6181 053f 0A       		.uleb128 0xa
 6182 0540 01       		.uleb128 0x1
 6183 0541 50       		.byte	0x50
 6184 0542 01       		.uleb128 0x1
 6185 0543 30       		.byte	0x30
 6186 0544 00       		.byte	0
 6187 0545 09       		.uleb128 0x9
 6188 0546 1C000000 		.4byte	.LVL50
 6189 054a F2370000 		.4byte	0x37f2
 6190 054e 59050000 		.4byte	0x559
 6191 0552 0A       		.uleb128 0xa
 6192 0553 01       		.uleb128 0x1
 6193 0554 50       		.byte	0x50
 6194 0555 02       		.uleb128 0x2
 6195 0556 08       		.byte	0x8
 6196 0557 C8       		.byte	0xc8
 6197 0558 00       		.byte	0
 6198 0559 09       		.uleb128 0x9
 6199 055a 24000000 		.4byte	.LVL51
 6200 055e E7370000 		.4byte	0x37e7
 6201 0562 6E050000 		.4byte	0x56e
 6202 0566 0A       		.uleb128 0xa
 6203 0567 01       		.uleb128 0x1
 6204 0568 50       		.byte	0x50
 6205 0569 03       		.uleb128 0x3
 6206 056a 0A       		.byte	0xa
 6207 056b C409     		.2byte	0x9c4
 6208 056d 00       		.byte	0
 6209 056e 09       		.uleb128 0x9
 6210 056f 2A000000 		.4byte	.LVL52
 6211 0573 F2370000 		.4byte	0x37f2
 6212 0577 82050000 		.4byte	0x582
 6213 057b 0A       		.uleb128 0xa
 6214 057c 01       		.uleb128 0x1
 6215 057d 50       		.byte	0x50
 6216 057e 02       		.uleb128 0x2
ARM GAS  C:\Users\Revanth\AppData\Local\Temp\ccSEzD1d.s 			page 155


 6217 057f 08       		.byte	0x8
 6218 0580 C8       		.byte	0xc8
 6219 0581 00       		.byte	0
 6220 0582 09       		.uleb128 0x9
 6221 0583 30000000 		.4byte	.LVL53
 6222 0587 E7370000 		.4byte	0x37e7
 6223 058b 95050000 		.4byte	0x595
 6224 058f 0A       		.uleb128 0xa
 6225 0590 01       		.uleb128 0x1
 6226 0591 50       		.byte	0x50
 6227 0592 01       		.uleb128 0x1
 6228 0593 30       		.byte	0x30
 6229 0594 00       		.byte	0
 6230 0595 0B       		.uleb128 0xb
 6231 0596 36000000 		.4byte	.LVL54
 6232 059a CB030000 		.4byte	0x3cb
 6233 059e 0A       		.uleb128 0xa
 6234 059f 01       		.uleb128 0x1
 6235 05a0 50       		.byte	0x50
 6236 05a1 05       		.uleb128 0x5
 6237 05a2 03       		.byte	0x3
 6238 05a3 10000000 		.4byte	.LC1
 6239 05a7 00       		.byte	0
 6240 05a8 00       		.byte	0
 6241 05a9 15       		.uleb128 0x15
 6242 05aa E1060000 		.4byte	.LASF39
 6243 05ae 01       		.byte	0x1
 6244 05af 3903     		.2byte	0x339
 6245 05b1 7E000000 		.4byte	0x7e
 6246 05b5 00000000 		.4byte	.LFB84
 6247 05b9 2C000000 		.4byte	.LFE84-.LFB84
 6248 05bd 01       		.uleb128 0x1
 6249 05be 9C       		.byte	0x9c
 6250 05bf 28060000 		.4byte	0x628
 6251 05c3 09       		.uleb128 0x9
 6252 05c4 0A000000 		.4byte	.LVL55
 6253 05c8 E7370000 		.4byte	0x37e7
 6254 05cc D8050000 		.4byte	0x5d8
 6255 05d0 0A       		.uleb128 0xa
 6256 05d1 01       		.uleb128 0x1
 6257 05d2 50       		.byte	0x50
 6258 05d3 03       		.uleb128 0x3
 6259 05d4 0A       		.byte	0xa
 6260 05d5 C409     		.2byte	0x9c4
 6261 05d7 00       		.byte	0
 6262 05d8 09       		.uleb128 0x9
 6263 05d9 12000000 		.4byte	.LVL56
 6264 05dd F2370000 		.4byte	0x37f2
 6265 05e1 ED050000 		.4byte	0x5ed
 6266 05e5 0A       		.uleb128 0xa
 6267 05e6 01       		.uleb128 0x1
 6268 05e7 50       		.byte	0x50
 6269 05e8 03       		.uleb128 0x3
 6270 05e9 0A       		.byte	0xa
 6271 05ea D007     		.2byte	0x7d0
 6272 05ec 00       		.byte	0
 6273 05ed 09       		.uleb128 0x9
ARM GAS  C:\Users\Revanth\AppData\Local\Temp\ccSEzD1d.s 			page 156


 6274 05ee 18000000 		.4byte	.LVL57
 6275 05f2 E7370000 		.4byte	0x37e7
 6276 05f6 00060000 		.4byte	0x600
 6277 05fa 0A       		.uleb128 0xa
 6278 05fb 01       		.uleb128 0x1
 6279 05fc 50       		.byte	0x50
 6280 05fd 01       		.uleb128 0x1
 6281 05fe 30       		.byte	0x30
 6282 05ff 00       		.byte	0
 6283 0600 09       		.uleb128 0x9
 6284 0601 1E000000 		.4byte	.LVL58
 6285 0605 F2370000 		.4byte	0x37f2
 6286 0609 14060000 		.4byte	0x614
 6287 060d 0A       		.uleb128 0xa
 6288 060e 01       		.uleb128 0x1
 6289 060f 50       		.byte	0x50
 6290 0610 02       		.uleb128 0x2
 6291 0611 08       		.byte	0x8
 6292 0612 C8       		.byte	0xc8
 6293 0613 00       		.byte	0
 6294 0614 0B       		.uleb128 0xb
 6295 0615 24000000 		.4byte	.LVL59
 6296 0619 CB030000 		.4byte	0x3cb
 6297 061d 0A       		.uleb128 0xa
 6298 061e 01       		.uleb128 0x1
 6299 061f 50       		.byte	0x50
 6300 0620 05       		.uleb128 0x5
 6301 0621 03       		.byte	0x3
 6302 0622 24000000 		.4byte	.LC2
 6303 0626 00       		.byte	0
 6304 0627 00       		.byte	0
 6305 0628 0C       		.uleb128 0xc
 6306 0629 8A080000 		.4byte	.LASF40
 6307 062d 01       		.byte	0x1
 6308 062e E303     		.2byte	0x3e3
 6309 0630 00000000 		.4byte	.LFB91
 6310 0634 AC020000 		.4byte	.LFE91-.LFB91
 6311 0638 01       		.uleb128 0x1
 6312 0639 9C       		.byte	0x9c
 6313 063a 85060000 		.4byte	0x685
 6314 063e 0D       		.uleb128 0xd
 6315 063f 50060000 		.4byte	.LASF41
 6316 0643 01       		.byte	0x1
 6317 0644 E303     		.2byte	0x3e3
 6318 0646 7E000000 		.4byte	0x7e
 6319 064a D8000000 		.4byte	.LLST6
 6320 064e 08       		.uleb128 0x8
 6321 064f 08000000 		.4byte	.LVL61
 6322 0653 04030000 		.4byte	0x304
 6323 0657 09       		.uleb128 0x9
 6324 0658 8E020000 		.4byte	.LVL64
 6325 065c CB030000 		.4byte	0x3cb
 6326 0660 6E060000 		.4byte	0x66e
 6327 0664 0A       		.uleb128 0xa
 6328 0665 01       		.uleb128 0x1
 6329 0666 50       		.byte	0x50
 6330 0667 05       		.uleb128 0x5
ARM GAS  C:\Users\Revanth\AppData\Local\Temp\ccSEzD1d.s 			page 157


 6331 0668 03       		.byte	0x3
 6332 0669 34000000 		.4byte	.LC3
 6333 066d 00       		.byte	0
 6334 066e 0B       		.uleb128 0xb
 6335 066f 96020000 		.4byte	.LVL65
 6336 0673 97380000 		.4byte	0x3897
 6337 0677 0A       		.uleb128 0xa
 6338 0678 01       		.uleb128 0x1
 6339 0679 50       		.byte	0x50
 6340 067a 02       		.uleb128 0x2
 6341 067b 74       		.byte	0x74
 6342 067c 00       		.sleb128 0
 6343 067d 0A       		.uleb128 0xa
 6344 067e 01       		.uleb128 0x1
 6345 067f 51       		.byte	0x51
 6346 0680 02       		.uleb128 0x2
 6347 0681 08       		.byte	0x8
 6348 0682 2E       		.byte	0x2e
 6349 0683 00       		.byte	0
 6350 0684 00       		.byte	0
 6351 0685 07       		.uleb128 0x7
 6352 0686 41080000 		.4byte	.LASF42
 6353 068a 01       		.byte	0x1
 6354 068b F104     		.2byte	0x4f1
 6355 068d 00000000 		.4byte	.LFB93
 6356 0691 38000000 		.4byte	.LFE93-.LFB93
 6357 0695 01       		.uleb128 0x1
 6358 0696 9C       		.byte	0x9c
 6359 0697 10070000 		.4byte	0x710
 6360 069b 09       		.uleb128 0x9
 6361 069c 0A000000 		.4byte	.LVL66
 6362 06a0 A2380000 		.4byte	0x38a2
 6363 06a4 B3060000 		.4byte	0x6b3
 6364 06a8 0A       		.uleb128 0xa
 6365 06a9 01       		.uleb128 0x1
 6366 06aa 50       		.byte	0x50
 6367 06ab 01       		.uleb128 0x1
 6368 06ac 30       		.byte	0x30
 6369 06ad 0A       		.uleb128 0xa
 6370 06ae 01       		.uleb128 0x1
 6371 06af 51       		.byte	0x51
 6372 06b0 01       		.uleb128 0x1
 6373 06b1 31       		.byte	0x31
 6374 06b2 00       		.byte	0
 6375 06b3 09       		.uleb128 0x9
 6376 06b4 12000000 		.4byte	.LVL67
 6377 06b8 CB030000 		.4byte	0x3cb
 6378 06bc CA060000 		.4byte	0x6ca
 6379 06c0 0A       		.uleb128 0xa
 6380 06c1 01       		.uleb128 0x1
 6381 06c2 50       		.byte	0x50
 6382 06c3 05       		.uleb128 0x5
 6383 06c4 03       		.byte	0x3
 6384 06c5 58000000 		.4byte	.LC4
 6385 06c9 00       		.byte	0
 6386 06ca 09       		.uleb128 0x9
 6387 06cb 18000000 		.4byte	.LVL68
ARM GAS  C:\Users\Revanth\AppData\Local\Temp\ccSEzD1d.s 			page 158


 6388 06cf 81380000 		.4byte	0x3881
 6389 06d3 DD060000 		.4byte	0x6dd
 6390 06d7 0A       		.uleb128 0xa
 6391 06d8 01       		.uleb128 0x1
 6392 06d9 50       		.byte	0x50
 6393 06da 01       		.uleb128 0x1
 6394 06db 31       		.byte	0x31
 6395 06dc 00       		.byte	0
 6396 06dd 08       		.uleb128 0x8
 6397 06de 1C000000 		.4byte	.LVL69
 6398 06e2 AE380000 		.4byte	0x38ae
 6399 06e6 08       		.uleb128 0x8
 6400 06e7 24000000 		.4byte	.LVL70
 6401 06eb BA380000 		.4byte	0x38ba
 6402 06ef 09       		.uleb128 0x9
 6403 06f0 2A000000 		.4byte	.LVL71
 6404 06f4 CB030000 		.4byte	0x3cb
 6405 06f8 06070000 		.4byte	0x706
 6406 06fc 0A       		.uleb128 0xa
 6407 06fd 01       		.uleb128 0x1
 6408 06fe 50       		.byte	0x50
 6409 06ff 05       		.uleb128 0x5
 6410 0700 03       		.byte	0x3
 6411 0701 7C000000 		.4byte	.LC5
 6412 0705 00       		.byte	0
 6413 0706 08       		.uleb128 0x8
 6414 0707 2E000000 		.4byte	.LVL72
 6415 070b C5380000 		.4byte	0x38c5
 6416 070f 00       		.byte	0
 6417 0710 0C       		.uleb128 0xc
 6418 0711 F60B0000 		.4byte	.LASF43
 6419 0715 01       		.byte	0x1
 6420 0716 2C05     		.2byte	0x52c
 6421 0718 00000000 		.4byte	.LFB98
 6422 071c 24000000 		.4byte	.LFE98-.LFB98
 6423 0720 01       		.uleb128 0x1
 6424 0721 9C       		.byte	0x9c
 6425 0722 97070000 		.4byte	0x797
 6426 0726 13       		.uleb128 0x13
 6427 0727 6E756D00 		.ascii	"num\000"
 6428 072b 01       		.byte	0x1
 6429 072c 2C05     		.2byte	0x52c
 6430 072e FA000000 		.4byte	0xfa
 6431 0732 11010000 		.4byte	.LLST7
 6432 0736 14       		.uleb128 0x14
 6433 0737 04000000 		.4byte	.LBB3
 6434 073b 16000000 		.4byte	.LBE3-.LBB3
 6435 073f 10       		.uleb128 0x10
 6436 0740 EA010000 		.4byte	.LASF44
 6437 0744 01       		.byte	0x1
 6438 0745 3005     		.2byte	0x530
 6439 0747 97070000 		.4byte	0x797
 6440 074b 02       		.uleb128 0x2
 6441 074c 91       		.byte	0x91
 6442 074d 64       		.sleb128 -28
 6443 074e 09       		.uleb128 0x9
 6444 074f 0E000000 		.4byte	.LVL75
ARM GAS  C:\Users\Revanth\AppData\Local\Temp\ccSEzD1d.s 			page 159


 6445 0753 D1380000 		.4byte	0x38d1
 6446 0757 72070000 		.4byte	0x772
 6447 075b 0A       		.uleb128 0xa
 6448 075c 01       		.uleb128 0x1
 6449 075d 50       		.byte	0x50
 6450 075e 02       		.uleb128 0x2
 6451 075f 91       		.byte	0x91
 6452 0760 64       		.sleb128 -28
 6453 0761 0A       		.uleb128 0xa
 6454 0762 01       		.uleb128 0x1
 6455 0763 51       		.byte	0x51
 6456 0764 05       		.uleb128 0x5
 6457 0765 03       		.byte	0x3
 6458 0766 90000000 		.4byte	.LC6
 6459 076a 0A       		.uleb128 0xa
 6460 076b 01       		.uleb128 0x1
 6461 076c 52       		.byte	0x52
 6462 076d 03       		.uleb128 0x3
 6463 076e F3       		.byte	0xf3
 6464 076f 01       		.uleb128 0x1
 6465 0770 50       		.byte	0x50
 6466 0771 00       		.byte	0
 6467 0772 09       		.uleb128 0x9
 6468 0773 14000000 		.4byte	.LVL76
 6469 0777 76380000 		.4byte	0x3876
 6470 077b 86070000 		.4byte	0x786
 6471 077f 0A       		.uleb128 0xa
 6472 0780 01       		.uleb128 0x1
 6473 0781 50       		.byte	0x50
 6474 0782 02       		.uleb128 0x2
 6475 0783 91       		.byte	0x91
 6476 0784 64       		.sleb128 -28
 6477 0785 00       		.byte	0
 6478 0786 0B       		.uleb128 0xb
 6479 0787 1A000000 		.4byte	.LVL77
 6480 078b 81380000 		.4byte	0x3881
 6481 078f 0A       		.uleb128 0xa
 6482 0790 01       		.uleb128 0x1
 6483 0791 50       		.byte	0x50
 6484 0792 01       		.uleb128 0x1
 6485 0793 31       		.byte	0x31
 6486 0794 00       		.byte	0
 6487 0795 00       		.byte	0
 6488 0796 00       		.byte	0
 6489 0797 11       		.uleb128 0x11
 6490 0798 C1000000 		.4byte	0xc1
 6491 079c A7070000 		.4byte	0x7a7
 6492 07a0 12       		.uleb128 0x12
 6493 07a1 B4000000 		.4byte	0xb4
 6494 07a5 13       		.byte	0x13
 6495 07a6 00       		.byte	0
 6496 07a7 16       		.uleb128 0x16
 6497 07a8 91040000 		.4byte	.LASF45
 6498 07ac 01       		.byte	0x1
 6499 07ad 0D03     		.2byte	0x30d
 6500 07af 7E000000 		.4byte	0x7e
 6501 07b3 00000000 		.4byte	.LFB80
ARM GAS  C:\Users\Revanth\AppData\Local\Temp\ccSEzD1d.s 			page 160


 6502 07b7 70000000 		.4byte	.LFE80-.LFB80
 6503 07bb 01       		.uleb128 0x1
 6504 07bc 9C       		.byte	0x9c
 6505 07bd 15080000 		.4byte	0x815
 6506 07c1 08       		.uleb128 0x8
 6507 07c2 30000000 		.4byte	.LVL82
 6508 07c6 D1370000 		.4byte	0x37d1
 6509 07ca 09       		.uleb128 0x9
 6510 07cb 36000000 		.4byte	.LVL83
 6511 07cf CB030000 		.4byte	0x3cb
 6512 07d3 E1070000 		.4byte	0x7e1
 6513 07d7 0A       		.uleb128 0xa
 6514 07d8 01       		.uleb128 0x1
 6515 07d9 50       		.byte	0x50
 6516 07da 05       		.uleb128 0x5
 6517 07db 03       		.byte	0x3
 6518 07dc 98000000 		.4byte	.LC7
 6519 07e0 00       		.byte	0
 6520 07e1 08       		.uleb128 0x8
 6521 07e2 3C000000 		.4byte	.LVL84
 6522 07e6 10070000 		.4byte	0x710
 6523 07ea 09       		.uleb128 0x9
 6524 07eb 42000000 		.4byte	.LVL85
 6525 07ef CB030000 		.4byte	0x3cb
 6526 07f3 01080000 		.4byte	0x801
 6527 07f7 0A       		.uleb128 0xa
 6528 07f8 01       		.uleb128 0x1
 6529 07f9 50       		.byte	0x50
 6530 07fa 05       		.uleb128 0x5
 6531 07fb 03       		.byte	0x3
 6532 07fc B8000000 		.4byte	.LC8
 6533 0800 00       		.byte	0
 6534 0801 0B       		.uleb128 0xb
 6535 0802 48000000 		.4byte	.LVL86
 6536 0806 CB030000 		.4byte	0x3cb
 6537 080a 0A       		.uleb128 0xa
 6538 080b 01       		.uleb128 0x1
 6539 080c 50       		.byte	0x50
 6540 080d 05       		.uleb128 0x5
 6541 080e 03       		.byte	0x3
 6542 080f BC000000 		.4byte	.LC9
 6543 0813 00       		.byte	0
 6544 0814 00       		.byte	0
 6545 0815 16       		.uleb128 0x16
 6546 0816 79080000 		.4byte	.LASF46
 6547 081a 01       		.byte	0x1
 6548 081b 1803     		.2byte	0x318
 6549 081d 7E000000 		.4byte	0x7e
 6550 0821 00000000 		.4byte	.LFB81
 6551 0825 70000000 		.4byte	.LFE81-.LFB81
 6552 0829 01       		.uleb128 0x1
 6553 082a 9C       		.byte	0x9c
 6554 082b 83080000 		.4byte	0x883
 6555 082f 08       		.uleb128 0x8
 6556 0830 30000000 		.4byte	.LVL91
 6557 0834 BB370000 		.4byte	0x37bb
 6558 0838 09       		.uleb128 0x9
ARM GAS  C:\Users\Revanth\AppData\Local\Temp\ccSEzD1d.s 			page 161


 6559 0839 36000000 		.4byte	.LVL92
 6560 083d CB030000 		.4byte	0x3cb
 6561 0841 4F080000 		.4byte	0x84f
 6562 0845 0A       		.uleb128 0xa
 6563 0846 01       		.uleb128 0x1
 6564 0847 50       		.byte	0x50
 6565 0848 05       		.uleb128 0x5
 6566 0849 03       		.byte	0x3
 6567 084a E4000000 		.4byte	.LC10
 6568 084e 00       		.byte	0
 6569 084f 08       		.uleb128 0x8
 6570 0850 3C000000 		.4byte	.LVL93
 6571 0854 10070000 		.4byte	0x710
 6572 0858 09       		.uleb128 0x9
 6573 0859 42000000 		.4byte	.LVL94
 6574 085d CB030000 		.4byte	0x3cb
 6575 0861 6F080000 		.4byte	0x86f
 6576 0865 0A       		.uleb128 0xa
 6577 0866 01       		.uleb128 0x1
 6578 0867 50       		.byte	0x50
 6579 0868 05       		.uleb128 0x5
 6580 0869 03       		.byte	0x3
 6581 086a B8000000 		.4byte	.LC8
 6582 086e 00       		.byte	0
 6583 086f 0B       		.uleb128 0xb
 6584 0870 48000000 		.4byte	.LVL95
 6585 0874 CB030000 		.4byte	0x3cb
 6586 0878 0A       		.uleb128 0xa
 6587 0879 01       		.uleb128 0x1
 6588 087a 50       		.byte	0x50
 6589 087b 05       		.uleb128 0x5
 6590 087c 03       		.byte	0x3
 6591 087d FC000000 		.4byte	.LC11
 6592 0881 00       		.byte	0
 6593 0882 00       		.byte	0
 6594 0883 07       		.uleb128 0x7
 6595 0884 1D050000 		.4byte	.LASF47
 6596 0888 01       		.byte	0x1
 6597 0889 3605     		.2byte	0x536
 6598 088b 00000000 		.4byte	.LFB99
 6599 088f 24000000 		.4byte	.LFE99-.LFB99
 6600 0893 01       		.uleb128 0x1
 6601 0894 9C       		.byte	0x9c
 6602 0895 DB080000 		.4byte	0x8db
 6603 0899 09       		.uleb128 0x9
 6604 089a 08000000 		.4byte	.LVL96
 6605 089e CB030000 		.4byte	0x3cb
 6606 08a2 B0080000 		.4byte	0x8b0
 6607 08a6 0A       		.uleb128 0xa
 6608 08a7 01       		.uleb128 0x1
 6609 08a8 50       		.byte	0x50
 6610 08a9 05       		.uleb128 0x5
 6611 08aa 03       		.byte	0x3
 6612 08ab B8000000 		.4byte	.LC8
 6613 08af 00       		.byte	0
 6614 08b0 09       		.uleb128 0x9
 6615 08b1 0E000000 		.4byte	.LVL97
ARM GAS  C:\Users\Revanth\AppData\Local\Temp\ccSEzD1d.s 			page 162


 6616 08b5 CB030000 		.4byte	0x3cb
 6617 08b9 C7080000 		.4byte	0x8c7
 6618 08bd 0A       		.uleb128 0xa
 6619 08be 01       		.uleb128 0x1
 6620 08bf 50       		.byte	0x50
 6621 08c0 05       		.uleb128 0x5
 6622 08c1 03       		.byte	0x3
 6623 08c2 1C010000 		.4byte	.LC12
 6624 08c6 00       		.byte	0
 6625 08c7 0B       		.uleb128 0xb
 6626 08c8 14000000 		.4byte	.LVL98
 6627 08cc CB030000 		.4byte	0x3cb
 6628 08d0 0A       		.uleb128 0xa
 6629 08d1 01       		.uleb128 0x1
 6630 08d2 50       		.byte	0x50
 6631 08d3 05       		.uleb128 0x5
 6632 08d4 03       		.byte	0x3
 6633 08d5 50010000 		.4byte	.LC13
 6634 08d9 00       		.byte	0
 6635 08da 00       		.byte	0
 6636 08db 15       		.uleb128 0x15
 6637 08dc 320B0000 		.4byte	.LASF48
 6638 08e0 01       		.byte	0x1
 6639 08e1 DD02     		.2byte	0x2dd
 6640 08e3 56090000 		.4byte	0x956
 6641 08e7 00000000 		.4byte	.LFB78
 6642 08eb 78000000 		.4byte	.LFE78-.LFB78
 6643 08ef 01       		.uleb128 0x1
 6644 08f0 9C       		.byte	0x9c
 6645 08f1 56090000 		.4byte	0x956
 6646 08f5 09       		.uleb128 0x9
 6647 08f6 1A000000 		.4byte	.LVL99
 6648 08fa CB030000 		.4byte	0x3cb
 6649 08fe 0C090000 		.4byte	0x90c
 6650 0902 0A       		.uleb128 0xa
 6651 0903 01       		.uleb128 0x1
 6652 0904 50       		.byte	0x50
 6653 0905 05       		.uleb128 0x5
 6654 0906 03       		.byte	0x3
 6655 0907 54010000 		.4byte	.LC14
 6656 090b 00       		.byte	0
 6657 090c 08       		.uleb128 0x8
 6658 090d 1E000000 		.4byte	.LVL100
 6659 0911 83080000 		.4byte	0x883
 6660 0915 09       		.uleb128 0x9
 6661 0916 38000000 		.4byte	.LVL101
 6662 091a CB030000 		.4byte	0x3cb
 6663 091e 2C090000 		.4byte	0x92c
 6664 0922 0A       		.uleb128 0xa
 6665 0923 01       		.uleb128 0x1
 6666 0924 50       		.byte	0x50
 6667 0925 05       		.uleb128 0x5
 6668 0926 03       		.byte	0x3
 6669 0927 80010000 		.4byte	.LC15
 6670 092b 00       		.byte	0
 6671 092c 08       		.uleb128 0x8
 6672 092d 3C000000 		.4byte	.LVL102
ARM GAS  C:\Users\Revanth\AppData\Local\Temp\ccSEzD1d.s 			page 163


 6673 0931 83080000 		.4byte	0x883
 6674 0935 09       		.uleb128 0x9
 6675 0936 56000000 		.4byte	.LVL103
 6676 093a CB030000 		.4byte	0x3cb
 6677 093e 4C090000 		.4byte	0x94c
 6678 0942 0A       		.uleb128 0xa
 6679 0943 01       		.uleb128 0x1
 6680 0944 50       		.byte	0x50
 6681 0945 05       		.uleb128 0x5
 6682 0946 03       		.byte	0x3
 6683 0947 A8010000 		.4byte	.LC16
 6684 094b 00       		.byte	0
 6685 094c 08       		.uleb128 0x8
 6686 094d 5A000000 		.4byte	.LVL104
 6687 0951 83080000 		.4byte	0x883
 6688 0955 00       		.byte	0
 6689 0956 02       		.uleb128 0x2
 6690 0957 01       		.byte	0x1
 6691 0958 02       		.byte	0x2
 6692 0959 EF070000 		.4byte	.LASF49
 6693 095d 07       		.uleb128 0x7
 6694 095e 87000000 		.4byte	.LASF50
 6695 0962 01       		.byte	0x1
 6696 0963 FD04     		.2byte	0x4fd
 6697 0965 00000000 		.4byte	.LFB94
 6698 0969 3C000000 		.4byte	.LFE94-.LFB94
 6699 096d 01       		.uleb128 0x1
 6700 096e 9C       		.byte	0x9c
 6701 096f D0090000 		.4byte	0x9d0
 6702 0973 10       		.uleb128 0x10
 6703 0974 73040000 		.4byte	.LASF51
 6704 0978 01       		.byte	0x1
 6705 0979 FF04     		.2byte	0x4ff
 6706 097b 56090000 		.4byte	0x956
 6707 097f 05       		.uleb128 0x5
 6708 0980 03       		.byte	0x3
 6709 0981 40000000 		.4byte	dont_Execute_1st_Time.9133
 6710 0985 08       		.uleb128 0x8
 6711 0986 06000000 		.4byte	.LVL105
 6712 098a DC380000 		.4byte	0x38dc
 6713 098e 08       		.uleb128 0x8
 6714 098f 0C000000 		.4byte	.LVL106
 6715 0993 EF040000 		.4byte	0x4ef
 6716 0997 08       		.uleb128 0x8
 6717 0998 10000000 		.4byte	.LVL107
 6718 099c AE380000 		.4byte	0x38ae
 6719 09a0 09       		.uleb128 0x9
 6720 09a1 20000000 		.4byte	.LVL108
 6721 09a5 CB030000 		.4byte	0x3cb
 6722 09a9 B7090000 		.4byte	0x9b7
 6723 09ad 0A       		.uleb128 0xa
 6724 09ae 01       		.uleb128 0x1
 6725 09af 50       		.byte	0x50
 6726 09b0 05       		.uleb128 0x5
 6727 09b1 03       		.byte	0x3
 6728 09b2 D0010000 		.4byte	.LC17
 6729 09b6 00       		.byte	0
ARM GAS  C:\Users\Revanth\AppData\Local\Temp\ccSEzD1d.s 			page 164


 6730 09b7 08       		.uleb128 0x8
 6731 09b8 24000000 		.4byte	.LVL109
 6732 09bc 83080000 		.4byte	0x883
 6733 09c0 0B       		.uleb128 0xb
 6734 09c1 2A000000 		.4byte	.LVL110
 6735 09c5 F2370000 		.4byte	0x37f2
 6736 09c9 0A       		.uleb128 0xa
 6737 09ca 01       		.uleb128 0x1
 6738 09cb 50       		.byte	0x50
 6739 09cc 01       		.uleb128 0x1
 6740 09cd 31       		.byte	0x31
 6741 09ce 00       		.byte	0
 6742 09cf 00       		.byte	0
 6743 09d0 17       		.uleb128 0x17
 6744 09d1 2A030000 		.4byte	.LASF56
 6745 09d5 01       		.byte	0x1
 6746 09d6 4305     		.2byte	0x543
 6747 09d8 8C000000 		.4byte	0x8c
 6748 09dc 00000000 		.4byte	.LFB100
 6749 09e0 10000000 		.4byte	.LFE100-.LFB100
 6750 09e4 01       		.uleb128 0x1
 6751 09e5 9C       		.byte	0x9c
 6752 09e6 130A0000 		.4byte	0xa13
 6753 09ea 0D       		.uleb128 0xd
 6754 09eb 05050000 		.4byte	.LASF52
 6755 09ef 01       		.byte	0x1
 6756 09f0 4305     		.2byte	0x543
 6757 09f2 8C000000 		.4byte	0x8c
 6758 09f6 3D010000 		.4byte	.LLST8
 6759 09fa 08       		.uleb128 0x8
 6760 09fb 06000000 		.4byte	.LVL112
 6761 09ff E8380000 		.4byte	0x38e8
 6762 0a03 0B       		.uleb128 0xb
 6763 0a04 0C000000 		.4byte	.LVL113
 6764 0a08 81380000 		.4byte	0x3881
 6765 0a0c 0A       		.uleb128 0xa
 6766 0a0d 01       		.uleb128 0x1
 6767 0a0e 50       		.byte	0x50
 6768 0a0f 01       		.uleb128 0x1
 6769 0a10 3A       		.byte	0x3a
 6770 0a11 00       		.byte	0
 6771 0a12 00       		.byte	0
 6772 0a13 0C       		.uleb128 0xc
 6773 0a14 5D040000 		.4byte	.LASF53
 6774 0a18 01       		.byte	0x1
 6775 0a19 6905     		.2byte	0x569
 6776 0a1b 00000000 		.4byte	.LFB101
 6777 0a1f 98000000 		.4byte	.LFE101-.LFB101
 6778 0a23 01       		.uleb128 0x1
 6779 0a24 9C       		.byte	0x9c
 6780 0a25 960B0000 		.4byte	0xb96
 6781 0a29 0D       		.uleb128 0xd
 6782 0a2a 4A060000 		.4byte	.LASF54
 6783 0a2e 01       		.byte	0x1
 6784 0a2f 6905     		.2byte	0x569
 6785 0a31 8C000000 		.4byte	0x8c
 6786 0a35 5E010000 		.4byte	.LLST9
ARM GAS  C:\Users\Revanth\AppData\Local\Temp\ccSEzD1d.s 			page 165


 6787 0a39 0D       		.uleb128 0xd
 6788 0a3a 2C0B0000 		.4byte	.LASF55
 6789 0a3e 01       		.byte	0x1
 6790 0a3f 6905     		.2byte	0x569
 6791 0a41 8C000000 		.4byte	0x8c
 6792 0a45 15020000 		.4byte	.LLST10
 6793 0a49 09       		.uleb128 0x9
 6794 0a4a 20000000 		.4byte	.LVL116
 6795 0a4e 81380000 		.4byte	0x3881
 6796 0a52 5C0A0000 		.4byte	0xa5c
 6797 0a56 0A       		.uleb128 0xa
 6798 0a57 01       		.uleb128 0x1
 6799 0a58 50       		.byte	0x50
 6800 0a59 01       		.uleb128 0x1
 6801 0a5a 3A       		.byte	0x3a
 6802 0a5b 00       		.byte	0
 6803 0a5c 09       		.uleb128 0x9
 6804 0a5d 26000000 		.4byte	.LVL117
 6805 0a61 F3380000 		.4byte	0x38f3
 6806 0a65 700A0000 		.4byte	0xa70
 6807 0a69 0A       		.uleb128 0xa
 6808 0a6a 01       		.uleb128 0x1
 6809 0a6b 50       		.byte	0x50
 6810 0a6c 02       		.uleb128 0x2
 6811 0a6d 74       		.byte	0x74
 6812 0a6e 00       		.sleb128 0
 6813 0a6f 00       		.byte	0
 6814 0a70 09       		.uleb128 0x9
 6815 0a71 2C000000 		.4byte	.LVL118
 6816 0a75 81380000 		.4byte	0x3881
 6817 0a79 830A0000 		.4byte	0xa83
 6818 0a7d 0A       		.uleb128 0xa
 6819 0a7e 01       		.uleb128 0x1
 6820 0a7f 50       		.byte	0x50
 6821 0a80 01       		.uleb128 0x1
 6822 0a81 3A       		.byte	0x3a
 6823 0a82 00       		.byte	0
 6824 0a83 09       		.uleb128 0x9
 6825 0a84 34000000 		.4byte	.LVL121
 6826 0a88 81380000 		.4byte	0x3881
 6827 0a8c 960A0000 		.4byte	0xa96
 6828 0a90 0A       		.uleb128 0xa
 6829 0a91 01       		.uleb128 0x1
 6830 0a92 50       		.byte	0x50
 6831 0a93 01       		.uleb128 0x1
 6832 0a94 3A       		.byte	0x3a
 6833 0a95 00       		.byte	0
 6834 0a96 09       		.uleb128 0x9
 6835 0a97 3A000000 		.4byte	.LVL122
 6836 0a9b FE380000 		.4byte	0x38fe
 6837 0a9f AA0A0000 		.4byte	0xaaa
 6838 0aa3 0A       		.uleb128 0xa
 6839 0aa4 01       		.uleb128 0x1
 6840 0aa5 50       		.byte	0x50
 6841 0aa6 02       		.uleb128 0x2
 6842 0aa7 74       		.byte	0x74
 6843 0aa8 00       		.sleb128 0
ARM GAS  C:\Users\Revanth\AppData\Local\Temp\ccSEzD1d.s 			page 166


 6844 0aa9 00       		.byte	0
 6845 0aaa 09       		.uleb128 0x9
 6846 0aab 40000000 		.4byte	.LVL123
 6847 0aaf 81380000 		.4byte	0x3881
 6848 0ab3 BD0A0000 		.4byte	0xabd
 6849 0ab7 0A       		.uleb128 0xa
 6850 0ab8 01       		.uleb128 0x1
 6851 0ab9 50       		.byte	0x50
 6852 0aba 01       		.uleb128 0x1
 6853 0abb 3A       		.byte	0x3a
 6854 0abc 00       		.byte	0
 6855 0abd 09       		.uleb128 0x9
 6856 0abe 48000000 		.4byte	.LVL126
 6857 0ac2 81380000 		.4byte	0x3881
 6858 0ac6 D00A0000 		.4byte	0xad0
 6859 0aca 0A       		.uleb128 0xa
 6860 0acb 01       		.uleb128 0x1
 6861 0acc 50       		.byte	0x50
 6862 0acd 01       		.uleb128 0x1
 6863 0ace 3A       		.byte	0x3a
 6864 0acf 00       		.byte	0
 6865 0ad0 09       		.uleb128 0x9
 6866 0ad1 4E000000 		.4byte	.LVL127
 6867 0ad5 09390000 		.4byte	0x3909
 6868 0ad9 E40A0000 		.4byte	0xae4
 6869 0add 0A       		.uleb128 0xa
 6870 0ade 01       		.uleb128 0x1
 6871 0adf 50       		.byte	0x50
 6872 0ae0 02       		.uleb128 0x2
 6873 0ae1 74       		.byte	0x74
 6874 0ae2 00       		.sleb128 0
 6875 0ae3 00       		.byte	0
 6876 0ae4 09       		.uleb128 0x9
 6877 0ae5 54000000 		.4byte	.LVL128
 6878 0ae9 81380000 		.4byte	0x3881
 6879 0aed F70A0000 		.4byte	0xaf7
 6880 0af1 0A       		.uleb128 0xa
 6881 0af2 01       		.uleb128 0x1
 6882 0af3 50       		.byte	0x50
 6883 0af4 01       		.uleb128 0x1
 6884 0af5 3A       		.byte	0x3a
 6885 0af6 00       		.byte	0
 6886 0af7 09       		.uleb128 0x9
 6887 0af8 5C000000 		.4byte	.LVL131
 6888 0afc 81380000 		.4byte	0x3881
 6889 0b00 0A0B0000 		.4byte	0xb0a
 6890 0b04 0A       		.uleb128 0xa
 6891 0b05 01       		.uleb128 0x1
 6892 0b06 50       		.byte	0x50
 6893 0b07 01       		.uleb128 0x1
 6894 0b08 3A       		.byte	0x3a
 6895 0b09 00       		.byte	0
 6896 0b0a 09       		.uleb128 0x9
 6897 0b0b 62000000 		.4byte	.LVL132
 6898 0b0f 14390000 		.4byte	0x3914
 6899 0b13 1E0B0000 		.4byte	0xb1e
 6900 0b17 0A       		.uleb128 0xa
ARM GAS  C:\Users\Revanth\AppData\Local\Temp\ccSEzD1d.s 			page 167


 6901 0b18 01       		.uleb128 0x1
 6902 0b19 50       		.byte	0x50
 6903 0b1a 02       		.uleb128 0x2
 6904 0b1b 74       		.byte	0x74
 6905 0b1c 00       		.sleb128 0
 6906 0b1d 00       		.byte	0
 6907 0b1e 09       		.uleb128 0x9
 6908 0b1f 68000000 		.4byte	.LVL133
 6909 0b23 81380000 		.4byte	0x3881
 6910 0b27 310B0000 		.4byte	0xb31
 6911 0b2b 0A       		.uleb128 0xa
 6912 0b2c 01       		.uleb128 0x1
 6913 0b2d 50       		.byte	0x50
 6914 0b2e 01       		.uleb128 0x1
 6915 0b2f 3A       		.byte	0x3a
 6916 0b30 00       		.byte	0
 6917 0b31 09       		.uleb128 0x9
 6918 0b32 70000000 		.4byte	.LVL136
 6919 0b36 81380000 		.4byte	0x3881
 6920 0b3a 440B0000 		.4byte	0xb44
 6921 0b3e 0A       		.uleb128 0xa
 6922 0b3f 01       		.uleb128 0x1
 6923 0b40 50       		.byte	0x50
 6924 0b41 01       		.uleb128 0x1
 6925 0b42 3A       		.byte	0x3a
 6926 0b43 00       		.byte	0
 6927 0b44 09       		.uleb128 0x9
 6928 0b45 76000000 		.4byte	.LVL137
 6929 0b49 1F390000 		.4byte	0x391f
 6930 0b4d 580B0000 		.4byte	0xb58
 6931 0b51 0A       		.uleb128 0xa
 6932 0b52 01       		.uleb128 0x1
 6933 0b53 50       		.byte	0x50
 6934 0b54 02       		.uleb128 0x2
 6935 0b55 74       		.byte	0x74
 6936 0b56 00       		.sleb128 0
 6937 0b57 00       		.byte	0
 6938 0b58 09       		.uleb128 0x9
 6939 0b59 7C000000 		.4byte	.LVL138
 6940 0b5d 81380000 		.4byte	0x3881
 6941 0b61 6B0B0000 		.4byte	0xb6b
 6942 0b65 0A       		.uleb128 0xa
 6943 0b66 01       		.uleb128 0x1
 6944 0b67 50       		.byte	0x50
 6945 0b68 01       		.uleb128 0x1
 6946 0b69 3A       		.byte	0x3a
 6947 0b6a 00       		.byte	0
 6948 0b6b 09       		.uleb128 0x9
 6949 0b6c 84000000 		.4byte	.LVL141
 6950 0b70 CB030000 		.4byte	0x3cb
 6951 0b74 820B0000 		.4byte	0xb82
 6952 0b78 0A       		.uleb128 0xa
 6953 0b79 01       		.uleb128 0x1
 6954 0b7a 50       		.byte	0x50
 6955 0b7b 05       		.uleb128 0x5
 6956 0b7c 03       		.byte	0x3
 6957 0b7d FC010000 		.4byte	.LC18
ARM GAS  C:\Users\Revanth\AppData\Local\Temp\ccSEzD1d.s 			page 168


 6958 0b81 00       		.byte	0
 6959 0b82 0B       		.uleb128 0xb
 6960 0b83 8C000000 		.4byte	.LVL144
 6961 0b87 CB030000 		.4byte	0x3cb
 6962 0b8b 0A       		.uleb128 0xa
 6963 0b8c 01       		.uleb128 0x1
 6964 0b8d 50       		.byte	0x50
 6965 0b8e 05       		.uleb128 0x5
 6966 0b8f 03       		.byte	0x3
 6967 0b90 3C020000 		.4byte	.LC19
 6968 0b94 00       		.byte	0
 6969 0b95 00       		.byte	0
 6970 0b96 17       		.uleb128 0x17
 6971 0b97 2C040000 		.4byte	.LASF57
 6972 0b9b 01       		.byte	0x1
 6973 0b9c C805     		.2byte	0x5c8
 6974 0b9e 7E000000 		.4byte	0x7e
 6975 0ba2 00000000 		.4byte	.LFB102
 6976 0ba6 EC000000 		.4byte	.LFE102-.LFB102
 6977 0baa 01       		.uleb128 0x1
 6978 0bab 9C       		.byte	0x9c
 6979 0bac 260E0000 		.4byte	0xe26
 6980 0bb0 0D       		.uleb128 0xd
 6981 0bb1 55010000 		.4byte	.LASF58
 6982 0bb5 01       		.byte	0x1
 6983 0bb6 C805     		.2byte	0x5c8
 6984 0bb8 8C000000 		.4byte	0x8c
 6985 0bbc CC020000 		.4byte	.LLST11
 6986 0bc0 0D       		.uleb128 0xd
 6987 0bc1 4A060000 		.4byte	.LASF54
 6988 0bc5 01       		.byte	0x1
 6989 0bc6 C805     		.2byte	0x5c8
 6990 0bc8 8C000000 		.4byte	0x8c
 6991 0bcc ED020000 		.4byte	.LLST12
 6992 0bd0 0D       		.uleb128 0xd
 6993 0bd1 D4040000 		.4byte	.LASF59
 6994 0bd5 01       		.byte	0x1
 6995 0bd6 C805     		.2byte	0x5c8
 6996 0bd8 260E0000 		.4byte	0xe26
 6997 0bdc 0E030000 		.4byte	.LLST13
 6998 0be0 18       		.uleb128 0x18
 6999 0be1 040B0000 		.4byte	.LASF60
 7000 0be5 01       		.byte	0x1
 7001 0be6 CA05     		.2byte	0x5ca
 7002 0be8 A2000000 		.4byte	0xa2
 7003 0bec 2C030000 		.4byte	.LLST14
 7004 0bf0 09       		.uleb128 0x9
 7005 0bf1 10000000 		.4byte	.LVL149
 7006 0bf5 130A0000 		.4byte	0xa13
 7007 0bf9 090C0000 		.4byte	0xc09
 7008 0bfd 0A       		.uleb128 0xa
 7009 0bfe 01       		.uleb128 0x1
 7010 0bff 50       		.byte	0x50
 7011 0c00 02       		.uleb128 0x2
 7012 0c01 75       		.byte	0x75
 7013 0c02 00       		.sleb128 0
 7014 0c03 0A       		.uleb128 0xa
ARM GAS  C:\Users\Revanth\AppData\Local\Temp\ccSEzD1d.s 			page 169


 7015 0c04 01       		.uleb128 0x1
 7016 0c05 51       		.byte	0x51
 7017 0c06 01       		.uleb128 0x1
 7018 0c07 30       		.byte	0x30
 7019 0c08 00       		.byte	0
 7020 0c09 09       		.uleb128 0x9
 7021 0c0a 1A000000 		.4byte	.LVL150
 7022 0c0e D0090000 		.4byte	0x9d0
 7023 0c12 1D0C0000 		.4byte	0xc1d
 7024 0c16 0A       		.uleb128 0xa
 7025 0c17 01       		.uleb128 0x1
 7026 0c18 50       		.byte	0x50
 7027 0c19 02       		.uleb128 0x2
 7028 0c1a 76       		.byte	0x76
 7029 0c1b 00       		.sleb128 0
 7030 0c1c 00       		.byte	0
 7031 0c1d 09       		.uleb128 0x9
 7032 0c1e 20000000 		.4byte	.LVL151
 7033 0c22 D0090000 		.4byte	0x9d0
 7034 0c26 300C0000 		.4byte	0xc30
 7035 0c2a 0A       		.uleb128 0xa
 7036 0c2b 01       		.uleb128 0x1
 7037 0c2c 50       		.byte	0x50
 7038 0c2d 01       		.uleb128 0x1
 7039 0c2e 30       		.byte	0x30
 7040 0c2f 00       		.byte	0
 7041 0c30 09       		.uleb128 0x9
 7042 0c31 26000000 		.4byte	.LVL152
 7043 0c35 D0090000 		.4byte	0x9d0
 7044 0c39 430C0000 		.4byte	0xc43
 7045 0c3d 0A       		.uleb128 0xa
 7046 0c3e 01       		.uleb128 0x1
 7047 0c3f 50       		.byte	0x50
 7048 0c40 01       		.uleb128 0x1
 7049 0c41 30       		.byte	0x30
 7050 0c42 00       		.byte	0
 7051 0c43 09       		.uleb128 0x9
 7052 0c44 2C000000 		.4byte	.LVL153
 7053 0c48 D0090000 		.4byte	0x9d0
 7054 0c4c 560C0000 		.4byte	0xc56
 7055 0c50 0A       		.uleb128 0xa
 7056 0c51 01       		.uleb128 0x1
 7057 0c52 50       		.byte	0x50
 7058 0c53 01       		.uleb128 0x1
 7059 0c54 30       		.byte	0x30
 7060 0c55 00       		.byte	0
 7061 0c56 09       		.uleb128 0x9
 7062 0c57 32000000 		.4byte	.LVL154
 7063 0c5b D0090000 		.4byte	0x9d0
 7064 0c5f 690C0000 		.4byte	0xc69
 7065 0c63 0A       		.uleb128 0xa
 7066 0c64 01       		.uleb128 0x1
 7067 0c65 50       		.byte	0x50
 7068 0c66 01       		.uleb128 0x1
 7069 0c67 30       		.byte	0x30
 7070 0c68 00       		.byte	0
 7071 0c69 09       		.uleb128 0x9
ARM GAS  C:\Users\Revanth\AppData\Local\Temp\ccSEzD1d.s 			page 170


 7072 0c6a 3A000000 		.4byte	.LVL155
 7073 0c6e 130A0000 		.4byte	0xa13
 7074 0c72 830C0000 		.4byte	0xc83
 7075 0c76 0A       		.uleb128 0xa
 7076 0c77 01       		.uleb128 0x1
 7077 0c78 50       		.byte	0x50
 7078 0c79 02       		.uleb128 0x2
 7079 0c7a 75       		.byte	0x75
 7080 0c7b 00       		.sleb128 0
 7081 0c7c 0A       		.uleb128 0xa
 7082 0c7d 01       		.uleb128 0x1
 7083 0c7e 51       		.byte	0x51
 7084 0c7f 02       		.uleb128 0x2
 7085 0c80 09       		.byte	0x9
 7086 0c81 FF       		.byte	0xff
 7087 0c82 00       		.byte	0
 7088 0c83 09       		.uleb128 0x9
 7089 0c84 40000000 		.4byte	.LVL156
 7090 0c88 F2370000 		.4byte	0x37f2
 7091 0c8c 960C0000 		.4byte	0xc96
 7092 0c90 0A       		.uleb128 0xa
 7093 0c91 01       		.uleb128 0x1
 7094 0c92 50       		.byte	0x50
 7095 0c93 01       		.uleb128 0x1
 7096 0c94 31       		.byte	0x31
 7097 0c95 00       		.byte	0
 7098 0c96 09       		.uleb128 0x9
 7099 0c97 48000000 		.4byte	.LVL157
 7100 0c9b 130A0000 		.4byte	0xa13
 7101 0c9f AF0C0000 		.4byte	0xcaf
 7102 0ca3 0A       		.uleb128 0xa
 7103 0ca4 01       		.uleb128 0x1
 7104 0ca5 50       		.byte	0x50
 7105 0ca6 02       		.uleb128 0x2
 7106 0ca7 75       		.byte	0x75
 7107 0ca8 00       		.sleb128 0
 7108 0ca9 0A       		.uleb128 0xa
 7109 0caa 01       		.uleb128 0x1
 7110 0cab 51       		.byte	0x51
 7111 0cac 01       		.uleb128 0x1
 7112 0cad 30       		.byte	0x30
 7113 0cae 00       		.byte	0
 7114 0caf 09       		.uleb128 0x9
 7115 0cb0 4E000000 		.4byte	.LVL158
 7116 0cb4 D0090000 		.4byte	0x9d0
 7117 0cb8 C30C0000 		.4byte	0xcc3
 7118 0cbc 0A       		.uleb128 0xa
 7119 0cbd 01       		.uleb128 0x1
 7120 0cbe 50       		.byte	0x50
 7121 0cbf 02       		.uleb128 0x2
 7122 0cc0 76       		.byte	0x76
 7123 0cc1 00       		.sleb128 0
 7124 0cc2 00       		.byte	0
 7125 0cc3 08       		.uleb128 0x8
 7126 0cc4 52000000 		.4byte	.LVL159
 7127 0cc8 2A390000 		.4byte	0x392a
 7128 0ccc 09       		.uleb128 0x9
ARM GAS  C:\Users\Revanth\AppData\Local\Temp\ccSEzD1d.s 			page 171


 7129 0ccd 5A000000 		.4byte	.LVL160
 7130 0cd1 D0090000 		.4byte	0x9d0
 7131 0cd5 DF0C0000 		.4byte	0xcdf
 7132 0cd9 0A       		.uleb128 0xa
 7133 0cda 01       		.uleb128 0x1
 7134 0cdb 50       		.byte	0x50
 7135 0cdc 01       		.uleb128 0x1
 7136 0cdd 30       		.byte	0x30
 7137 0cde 00       		.byte	0
 7138 0cdf 08       		.uleb128 0x8
 7139 0ce0 5E000000 		.4byte	.LVL161
 7140 0ce4 2A390000 		.4byte	0x392a
 7141 0ce8 09       		.uleb128 0x9
 7142 0ce9 66000000 		.4byte	.LVL163
 7143 0ced D0090000 		.4byte	0x9d0
 7144 0cf1 FB0C0000 		.4byte	0xcfb
 7145 0cf5 0A       		.uleb128 0xa
 7146 0cf6 01       		.uleb128 0x1
 7147 0cf7 50       		.byte	0x50
 7148 0cf8 01       		.uleb128 0x1
 7149 0cf9 30       		.byte	0x30
 7150 0cfa 00       		.byte	0
 7151 0cfb 08       		.uleb128 0x8
 7152 0cfc 6A000000 		.4byte	.LVL164
 7153 0d00 2A390000 		.4byte	0x392a
 7154 0d04 09       		.uleb128 0x9
 7155 0d05 74000000 		.4byte	.LVL166
 7156 0d09 D0090000 		.4byte	0x9d0
 7157 0d0d 170D0000 		.4byte	0xd17
 7158 0d11 0A       		.uleb128 0xa
 7159 0d12 01       		.uleb128 0x1
 7160 0d13 50       		.byte	0x50
 7161 0d14 01       		.uleb128 0x1
 7162 0d15 30       		.byte	0x30
 7163 0d16 00       		.byte	0
 7164 0d17 08       		.uleb128 0x8
 7165 0d18 78000000 		.4byte	.LVL167
 7166 0d1c 2A390000 		.4byte	0x392a
 7167 0d20 09       		.uleb128 0x9
 7168 0d21 82000000 		.4byte	.LVL169
 7169 0d25 D0090000 		.4byte	0x9d0
 7170 0d29 330D0000 		.4byte	0xd33
 7171 0d2d 0A       		.uleb128 0xa
 7172 0d2e 01       		.uleb128 0x1
 7173 0d2f 50       		.byte	0x50
 7174 0d30 01       		.uleb128 0x1
 7175 0d31 30       		.byte	0x30
 7176 0d32 00       		.byte	0
 7177 0d33 08       		.uleb128 0x8
 7178 0d34 86000000 		.4byte	.LVL170
 7179 0d38 2A390000 		.4byte	0x392a
 7180 0d3c 09       		.uleb128 0x9
 7181 0d3d 90000000 		.4byte	.LVL172
 7182 0d41 130A0000 		.4byte	0xa13
 7183 0d45 560D0000 		.4byte	0xd56
 7184 0d49 0A       		.uleb128 0xa
 7185 0d4a 01       		.uleb128 0x1
ARM GAS  C:\Users\Revanth\AppData\Local\Temp\ccSEzD1d.s 			page 172


 7186 0d4b 50       		.byte	0x50
 7187 0d4c 02       		.uleb128 0x2
 7188 0d4d 75       		.byte	0x75
 7189 0d4e 00       		.sleb128 0
 7190 0d4f 0A       		.uleb128 0xa
 7191 0d50 01       		.uleb128 0x1
 7192 0d51 51       		.byte	0x51
 7193 0d52 02       		.uleb128 0x2
 7194 0d53 09       		.byte	0x9
 7195 0d54 FF       		.byte	0xff
 7196 0d55 00       		.byte	0
 7197 0d56 09       		.uleb128 0x9
 7198 0d57 96000000 		.4byte	.LVL173
 7199 0d5b F2370000 		.4byte	0x37f2
 7200 0d5f 690D0000 		.4byte	0xd69
 7201 0d63 0A       		.uleb128 0xa
 7202 0d64 01       		.uleb128 0x1
 7203 0d65 50       		.byte	0x50
 7204 0d66 01       		.uleb128 0x1
 7205 0d67 31       		.byte	0x31
 7206 0d68 00       		.byte	0
 7207 0d69 09       		.uleb128 0x9
 7208 0d6a 9E000000 		.4byte	.LVL174
 7209 0d6e 130A0000 		.4byte	0xa13
 7210 0d72 820D0000 		.4byte	0xd82
 7211 0d76 0A       		.uleb128 0xa
 7212 0d77 01       		.uleb128 0x1
 7213 0d78 50       		.byte	0x50
 7214 0d79 02       		.uleb128 0x2
 7215 0d7a 75       		.byte	0x75
 7216 0d7b 00       		.sleb128 0
 7217 0d7c 0A       		.uleb128 0xa
 7218 0d7d 01       		.uleb128 0x1
 7219 0d7e 51       		.byte	0x51
 7220 0d7f 01       		.uleb128 0x1
 7221 0d80 30       		.byte	0x30
 7222 0d81 00       		.byte	0
 7223 0d82 09       		.uleb128 0x9
 7224 0d83 A4000000 		.4byte	.LVL175
 7225 0d87 D0090000 		.4byte	0x9d0
 7226 0d8b 960D0000 		.4byte	0xd96
 7227 0d8f 0A       		.uleb128 0xa
 7228 0d90 01       		.uleb128 0x1
 7229 0d91 50       		.byte	0x50
 7230 0d92 02       		.uleb128 0x2
 7231 0d93 76       		.byte	0x76
 7232 0d94 00       		.sleb128 0
 7233 0d95 00       		.byte	0
 7234 0d96 08       		.uleb128 0x8
 7235 0d97 A8000000 		.4byte	.LVL176
 7236 0d9b 2A390000 		.4byte	0x392a
 7237 0d9f 09       		.uleb128 0x9
 7238 0da0 B0000000 		.4byte	.LVL177
 7239 0da4 D0090000 		.4byte	0x9d0
 7240 0da8 B20D0000 		.4byte	0xdb2
 7241 0dac 0A       		.uleb128 0xa
 7242 0dad 01       		.uleb128 0x1
ARM GAS  C:\Users\Revanth\AppData\Local\Temp\ccSEzD1d.s 			page 173


 7243 0dae 50       		.byte	0x50
 7244 0daf 01       		.uleb128 0x1
 7245 0db0 30       		.byte	0x30
 7246 0db1 00       		.byte	0
 7247 0db2 08       		.uleb128 0x8
 7248 0db3 B4000000 		.4byte	.LVL178
 7249 0db7 2A390000 		.4byte	0x392a
 7250 0dbb 09       		.uleb128 0x9
 7251 0dbc BE000000 		.4byte	.LVL180
 7252 0dc0 D0090000 		.4byte	0x9d0
 7253 0dc4 CE0D0000 		.4byte	0xdce
 7254 0dc8 0A       		.uleb128 0xa
 7255 0dc9 01       		.uleb128 0x1
 7256 0dca 50       		.byte	0x50
 7257 0dcb 01       		.uleb128 0x1
 7258 0dcc 30       		.byte	0x30
 7259 0dcd 00       		.byte	0
 7260 0dce 08       		.uleb128 0x8
 7261 0dcf C2000000 		.4byte	.LVL181
 7262 0dd3 2A390000 		.4byte	0x392a
 7263 0dd7 09       		.uleb128 0x9
 7264 0dd8 CC000000 		.4byte	.LVL183
 7265 0ddc D0090000 		.4byte	0x9d0
 7266 0de0 EA0D0000 		.4byte	0xdea
 7267 0de4 0A       		.uleb128 0xa
 7268 0de5 01       		.uleb128 0x1
 7269 0de6 50       		.byte	0x50
 7270 0de7 01       		.uleb128 0x1
 7271 0de8 30       		.byte	0x30
 7272 0de9 00       		.byte	0
 7273 0dea 08       		.uleb128 0x8
 7274 0deb D0000000 		.4byte	.LVL184
 7275 0def 2A390000 		.4byte	0x392a
 7276 0df3 09       		.uleb128 0x9
 7277 0df4 DA000000 		.4byte	.LVL186
 7278 0df8 D0090000 		.4byte	0x9d0
 7279 0dfc 060E0000 		.4byte	0xe06
 7280 0e00 0A       		.uleb128 0xa
 7281 0e01 01       		.uleb128 0x1
 7282 0e02 50       		.byte	0x50
 7283 0e03 01       		.uleb128 0x1
 7284 0e04 30       		.byte	0x30
 7285 0e05 00       		.byte	0
 7286 0e06 08       		.uleb128 0x8
 7287 0e07 DE000000 		.4byte	.LVL187
 7288 0e0b 2A390000 		.4byte	0x392a
 7289 0e0f 0B       		.uleb128 0xb
 7290 0e10 E8000000 		.4byte	.LVL189
 7291 0e14 130A0000 		.4byte	0xa13
 7292 0e18 0A       		.uleb128 0xa
 7293 0e19 01       		.uleb128 0x1
 7294 0e1a 50       		.byte	0x50
 7295 0e1b 02       		.uleb128 0x2
 7296 0e1c 75       		.byte	0x75
 7297 0e1d 00       		.sleb128 0
 7298 0e1e 0A       		.uleb128 0xa
 7299 0e1f 01       		.uleb128 0x1
ARM GAS  C:\Users\Revanth\AppData\Local\Temp\ccSEzD1d.s 			page 174


 7300 0e20 51       		.byte	0x51
 7301 0e21 02       		.uleb128 0x2
 7302 0e22 09       		.byte	0x9
 7303 0e23 FF       		.byte	0xff
 7304 0e24 00       		.byte	0
 7305 0e25 00       		.byte	0
 7306 0e26 05       		.uleb128 0x5
 7307 0e27 04       		.byte	0x4
 7308 0e28 8C000000 		.4byte	0x8c
 7309 0e2c 0C       		.uleb128 0xc
 7310 0e2d 6B010000 		.4byte	.LASF61
 7311 0e31 01       		.byte	0x1
 7312 0e32 2506     		.2byte	0x625
 7313 0e34 00000000 		.4byte	.LFB103
 7314 0e38 3E000000 		.4byte	.LFE103-.LFB103
 7315 0e3c 01       		.uleb128 0x1
 7316 0e3d 9C       		.byte	0x9c
 7317 0e3e 170F0000 		.4byte	0xf17
 7318 0e42 0D       		.uleb128 0xd
 7319 0e43 55010000 		.4byte	.LASF58
 7320 0e47 01       		.byte	0x1
 7321 0e48 2506     		.2byte	0x625
 7322 0e4a 8C000000 		.4byte	0x8c
 7323 0e4e 4B030000 		.4byte	.LLST15
 7324 0e52 0D       		.uleb128 0xd
 7325 0e53 05050000 		.4byte	.LASF52
 7326 0e57 01       		.byte	0x1
 7327 0e58 2506     		.2byte	0x625
 7328 0e5a 7E000000 		.4byte	0x7e
 7329 0e5e 6C030000 		.4byte	.LLST16
 7330 0e62 0D       		.uleb128 0xd
 7331 0e63 4A060000 		.4byte	.LASF54
 7332 0e67 01       		.byte	0x1
 7333 0e68 2506     		.2byte	0x625
 7334 0e6a 8C000000 		.4byte	0x8c
 7335 0e6e 8A030000 		.4byte	.LLST17
 7336 0e72 09       		.uleb128 0x9
 7337 0e73 10000000 		.4byte	.LVL193
 7338 0e77 130A0000 		.4byte	0xa13
 7339 0e7b 8B0E0000 		.4byte	0xe8b
 7340 0e7f 0A       		.uleb128 0xa
 7341 0e80 01       		.uleb128 0x1
 7342 0e81 50       		.byte	0x50
 7343 0e82 02       		.uleb128 0x2
 7344 0e83 75       		.byte	0x75
 7345 0e84 00       		.sleb128 0
 7346 0e85 0A       		.uleb128 0xa
 7347 0e86 01       		.uleb128 0x1
 7348 0e87 51       		.byte	0x51
 7349 0e88 01       		.uleb128 0x1
 7350 0e89 30       		.byte	0x30
 7351 0e8a 00       		.byte	0
 7352 0e8b 09       		.uleb128 0x9
 7353 0e8c 18000000 		.4byte	.LVL194
 7354 0e90 D0090000 		.4byte	0x9d0
 7355 0e94 A20E0000 		.4byte	0xea2
 7356 0e98 0A       		.uleb128 0xa
ARM GAS  C:\Users\Revanth\AppData\Local\Temp\ccSEzD1d.s 			page 175


 7357 0e99 01       		.uleb128 0x1
 7358 0e9a 50       		.byte	0x50
 7359 0e9b 05       		.uleb128 0x5
 7360 0e9c 76       		.byte	0x76
 7361 0e9d 00       		.sleb128 0
 7362 0e9e 08       		.byte	0x8
 7363 0e9f 80       		.byte	0x80
 7364 0ea0 21       		.byte	0x21
 7365 0ea1 00       		.byte	0
 7366 0ea2 09       		.uleb128 0x9
 7367 0ea3 1E000000 		.4byte	.LVL195
 7368 0ea7 D0090000 		.4byte	0x9d0
 7369 0eab B80E0000 		.4byte	0xeb8
 7370 0eaf 0A       		.uleb128 0xa
 7371 0eb0 01       		.uleb128 0x1
 7372 0eb1 50       		.byte	0x50
 7373 0eb2 04       		.uleb128 0x4
 7374 0eb3 74       		.byte	0x74
 7375 0eb4 00       		.sleb128 0
 7376 0eb5 48       		.byte	0x48
 7377 0eb6 25       		.byte	0x25
 7378 0eb7 00       		.byte	0
 7379 0eb8 09       		.uleb128 0x9
 7380 0eb9 26000000 		.4byte	.LVL196
 7381 0ebd D0090000 		.4byte	0x9d0
 7382 0ec1 D20E0000 		.4byte	0xed2
 7383 0ec5 0A       		.uleb128 0xa
 7384 0ec6 01       		.uleb128 0x1
 7385 0ec7 50       		.byte	0x50
 7386 0ec8 08       		.uleb128 0x8
 7387 0ec9 74       		.byte	0x74
 7388 0eca 00       		.sleb128 0
 7389 0ecb 09       		.byte	0x9
 7390 0ecc EC       		.byte	0xec
 7391 0ecd 24       		.byte	0x24
 7392 0ece 09       		.byte	0x9
 7393 0ecf FC       		.byte	0xfc
 7394 0ed0 25       		.byte	0x25
 7395 0ed1 00       		.byte	0
 7396 0ed2 09       		.uleb128 0x9
 7397 0ed3 2E000000 		.4byte	.LVL197
 7398 0ed7 D0090000 		.4byte	0x9d0
 7399 0edb EC0E0000 		.4byte	0xeec
 7400 0edf 0A       		.uleb128 0xa
 7401 0ee0 01       		.uleb128 0x1
 7402 0ee1 50       		.byte	0x50
 7403 0ee2 08       		.uleb128 0x8
 7404 0ee3 74       		.byte	0x74
 7405 0ee4 00       		.sleb128 0
 7406 0ee5 09       		.byte	0x9
 7407 0ee6 F4       		.byte	0xf4
 7408 0ee7 24       		.byte	0x24
 7409 0ee8 09       		.byte	0x9
 7410 0ee9 FC       		.byte	0xfc
 7411 0eea 25       		.byte	0x25
 7412 0eeb 00       		.byte	0
 7413 0eec 09       		.uleb128 0x9
ARM GAS  C:\Users\Revanth\AppData\Local\Temp\ccSEzD1d.s 			page 176


 7414 0eed 34000000 		.4byte	.LVL198
 7415 0ef1 D0090000 		.4byte	0x9d0
 7416 0ef5 000F0000 		.4byte	0xf00
 7417 0ef9 0A       		.uleb128 0xa
 7418 0efa 01       		.uleb128 0x1
 7419 0efb 50       		.byte	0x50
 7420 0efc 02       		.uleb128 0x2
 7421 0efd 74       		.byte	0x74
 7422 0efe 00       		.sleb128 0
 7423 0eff 00       		.byte	0
 7424 0f00 0B       		.uleb128 0xb
 7425 0f01 3C000000 		.4byte	.LVL199
 7426 0f05 130A0000 		.4byte	0xa13
 7427 0f09 0A       		.uleb128 0xa
 7428 0f0a 01       		.uleb128 0x1
 7429 0f0b 50       		.byte	0x50
 7430 0f0c 02       		.uleb128 0x2
 7431 0f0d 75       		.byte	0x75
 7432 0f0e 00       		.sleb128 0
 7433 0f0f 0A       		.uleb128 0xa
 7434 0f10 01       		.uleb128 0x1
 7435 0f11 51       		.byte	0x51
 7436 0f12 02       		.uleb128 0x2
 7437 0f13 09       		.byte	0x9
 7438 0f14 FF       		.byte	0xff
 7439 0f15 00       		.byte	0
 7440 0f16 00       		.byte	0
 7441 0f17 19       		.uleb128 0x19
 7442 0f18 95090000 		.4byte	.LASF62
 7443 0f1c 01       		.byte	0x1
 7444 0f1d 5A       		.byte	0x5a
 7445 0f1e 00000000 		.4byte	.LFB64
 7446 0f22 26000000 		.4byte	.LFE64-.LFB64
 7447 0f26 01       		.uleb128 0x1
 7448 0f27 9C       		.byte	0x9c
 7449 0f28 A50F0000 		.4byte	0xfa5
 7450 0f2c 1A       		.uleb128 0x1a
 7451 0f2d 506F7300 		.ascii	"Pos\000"
 7452 0f31 01       		.byte	0x1
 7453 0f32 5A       		.byte	0x5a
 7454 0f33 7E000000 		.4byte	0x7e
 7455 0f37 AB030000 		.4byte	.LLST18
 7456 0f3b 1B       		.uleb128 0x1b
 7457 0f3c 4A060000 		.4byte	.LASF54
 7458 0f40 01       		.byte	0x1
 7459 0f41 5A       		.byte	0x5a
 7460 0f42 8C000000 		.4byte	0x8c
 7461 0f46 C9030000 		.4byte	.LLST19
 7462 0f4a 09       		.uleb128 0x9
 7463 0f4b 10000000 		.4byte	.LVL203
 7464 0f4f 2C0E0000 		.4byte	0xe2c
 7465 0f53 690F0000 		.4byte	0xf69
 7466 0f57 0A       		.uleb128 0xa
 7467 0f58 01       		.uleb128 0x1
 7468 0f59 50       		.byte	0x50
 7469 0f5a 02       		.uleb128 0x2
 7470 0f5b 08       		.byte	0x8
ARM GAS  C:\Users\Revanth\AppData\Local\Temp\ccSEzD1d.s 			page 177


 7471 0f5c 20       		.byte	0x20
 7472 0f5d 0A       		.uleb128 0xa
 7473 0f5e 01       		.uleb128 0x1
 7474 0f5f 51       		.byte	0x51
 7475 0f60 01       		.uleb128 0x1
 7476 0f61 30       		.byte	0x30
 7477 0f62 0A       		.uleb128 0xa
 7478 0f63 01       		.uleb128 0x1
 7479 0f64 52       		.byte	0x52
 7480 0f65 02       		.uleb128 0x2
 7481 0f66 74       		.byte	0x74
 7482 0f67 00       		.sleb128 0
 7483 0f68 00       		.byte	0
 7484 0f69 09       		.uleb128 0x9
 7485 0f6a 1A000000 		.4byte	.LVL204
 7486 0f6e 2C0E0000 		.4byte	0xe2c
 7487 0f72 880F0000 		.4byte	0xf88
 7488 0f76 0A       		.uleb128 0xa
 7489 0f77 01       		.uleb128 0x1
 7490 0f78 50       		.byte	0x50
 7491 0f79 01       		.uleb128 0x1
 7492 0f7a 35       		.byte	0x35
 7493 0f7b 0A       		.uleb128 0xa
 7494 0f7c 01       		.uleb128 0x1
 7495 0f7d 51       		.byte	0x51
 7496 0f7e 02       		.uleb128 0x2
 7497 0f7f 75       		.byte	0x75
 7498 0f80 00       		.sleb128 0
 7499 0f81 0A       		.uleb128 0xa
 7500 0f82 01       		.uleb128 0x1
 7501 0f83 52       		.byte	0x52
 7502 0f84 02       		.uleb128 0x2
 7503 0f85 74       		.byte	0x74
 7504 0f86 00       		.sleb128 0
 7505 0f87 00       		.byte	0
 7506 0f88 0B       		.uleb128 0xb
 7507 0f89 24000000 		.4byte	.LVL205
 7508 0f8d 2C0E0000 		.4byte	0xe2c
 7509 0f91 0A       		.uleb128 0xa
 7510 0f92 01       		.uleb128 0x1
 7511 0f93 50       		.byte	0x50
 7512 0f94 02       		.uleb128 0x2
 7513 0f95 08       		.byte	0x8
 7514 0f96 2D       		.byte	0x2d
 7515 0f97 0A       		.uleb128 0xa
 7516 0f98 01       		.uleb128 0x1
 7517 0f99 51       		.byte	0x51
 7518 0f9a 02       		.uleb128 0x2
 7519 0f9b 75       		.byte	0x75
 7520 0f9c 00       		.sleb128 0
 7521 0f9d 0A       		.uleb128 0xa
 7522 0f9e 01       		.uleb128 0x1
 7523 0f9f 52       		.byte	0x52
 7524 0fa0 02       		.uleb128 0x2
 7525 0fa1 74       		.byte	0x74
 7526 0fa2 00       		.sleb128 0
 7527 0fa3 00       		.byte	0
ARM GAS  C:\Users\Revanth\AppData\Local\Temp\ccSEzD1d.s 			page 178


 7528 0fa4 00       		.byte	0
 7529 0fa5 0C       		.uleb128 0xc
 7530 0fa6 5A010000 		.4byte	.LASF63
 7531 0faa 01       		.byte	0x1
 7532 0fab 3506     		.2byte	0x635
 7533 0fad 00000000 		.4byte	.LFB104
 7534 0fb1 14020000 		.4byte	.LFE104-.LFB104
 7535 0fb5 01       		.uleb128 0x1
 7536 0fb6 9C       		.byte	0x9c
 7537 0fb7 7B150000 		.4byte	0x157b
 7538 0fbb 0D       		.uleb128 0xd
 7539 0fbc 4A060000 		.4byte	.LASF54
 7540 0fc0 01       		.byte	0x1
 7541 0fc1 3506     		.2byte	0x635
 7542 0fc3 8C000000 		.4byte	0x8c
 7543 0fc7 EA030000 		.4byte	.LLST20
 7544 0fcb 09       		.uleb128 0x9
 7545 0fcc 0E000000 		.4byte	.LVL208
 7546 0fd0 2C0E0000 		.4byte	0xe2c
 7547 0fd4 E90F0000 		.4byte	0xfe9
 7548 0fd8 0A       		.uleb128 0xa
 7549 0fd9 01       		.uleb128 0x1
 7550 0fda 50       		.byte	0x50
 7551 0fdb 01       		.uleb128 0x1
 7552 0fdc 31       		.byte	0x31
 7553 0fdd 0A       		.uleb128 0xa
 7554 0fde 01       		.uleb128 0x1
 7555 0fdf 51       		.byte	0x51
 7556 0fe0 01       		.uleb128 0x1
 7557 0fe1 35       		.byte	0x35
 7558 0fe2 0A       		.uleb128 0xa
 7559 0fe3 01       		.uleb128 0x1
 7560 0fe4 52       		.byte	0x52
 7561 0fe5 02       		.uleb128 0x2
 7562 0fe6 74       		.byte	0x74
 7563 0fe7 00       		.sleb128 0
 7564 0fe8 00       		.byte	0
 7565 0fe9 09       		.uleb128 0x9
 7566 0fea 18000000 		.4byte	.LVL209
 7567 0fee 2C0E0000 		.4byte	0xe2c
 7568 0ff2 07100000 		.4byte	0x1007
 7569 0ff6 0A       		.uleb128 0xa
 7570 0ff7 01       		.uleb128 0x1
 7571 0ff8 50       		.byte	0x50
 7572 0ff9 01       		.uleb128 0x1
 7573 0ffa 30       		.byte	0x30
 7574 0ffb 0A       		.uleb128 0xa
 7575 0ffc 01       		.uleb128 0x1
 7576 0ffd 51       		.byte	0x51
 7577 0ffe 01       		.uleb128 0x1
 7578 0fff 38       		.byte	0x38
 7579 1000 0A       		.uleb128 0xa
 7580 1001 01       		.uleb128 0x1
 7581 1002 52       		.byte	0x52
 7582 1003 02       		.uleb128 0x2
 7583 1004 74       		.byte	0x74
 7584 1005 00       		.sleb128 0
ARM GAS  C:\Users\Revanth\AppData\Local\Temp\ccSEzD1d.s 			page 179


 7585 1006 00       		.byte	0
 7586 1007 09       		.uleb128 0x9
 7587 1008 22000000 		.4byte	.LVL210
 7588 100c 2C0E0000 		.4byte	0xe2c
 7589 1010 25100000 		.4byte	0x1025
 7590 1014 0A       		.uleb128 0xa
 7591 1015 01       		.uleb128 0x1
 7592 1016 50       		.byte	0x50
 7593 1017 01       		.uleb128 0x1
 7594 1018 33       		.byte	0x33
 7595 1019 0A       		.uleb128 0xa
 7596 101a 01       		.uleb128 0x1
 7597 101b 51       		.byte	0x51
 7598 101c 01       		.uleb128 0x1
 7599 101d 30       		.byte	0x30
 7600 101e 0A       		.uleb128 0xa
 7601 101f 01       		.uleb128 0x1
 7602 1020 52       		.byte	0x52
 7603 1021 02       		.uleb128 0x2
 7604 1022 74       		.byte	0x74
 7605 1023 00       		.sleb128 0
 7606 1024 00       		.byte	0
 7607 1025 09       		.uleb128 0x9
 7608 1026 2C000000 		.4byte	.LVL211
 7609 102a 2C0E0000 		.4byte	0xe2c
 7610 102e 43100000 		.4byte	0x1043
 7611 1032 0A       		.uleb128 0xa
 7612 1033 01       		.uleb128 0x1
 7613 1034 50       		.byte	0x50
 7614 1035 01       		.uleb128 0x1
 7615 1036 35       		.byte	0x35
 7616 1037 0A       		.uleb128 0xa
 7617 1038 01       		.uleb128 0x1
 7618 1039 51       		.byte	0x51
 7619 103a 01       		.uleb128 0x1
 7620 103b 30       		.byte	0x30
 7621 103c 0A       		.uleb128 0xa
 7622 103d 01       		.uleb128 0x1
 7623 103e 52       		.byte	0x52
 7624 103f 02       		.uleb128 0x2
 7625 1040 74       		.byte	0x74
 7626 1041 00       		.sleb128 0
 7627 1042 00       		.byte	0
 7628 1043 09       		.uleb128 0x9
 7629 1044 36000000 		.4byte	.LVL212
 7630 1048 2C0E0000 		.4byte	0xe2c
 7631 104c 61100000 		.4byte	0x1061
 7632 1050 0A       		.uleb128 0xa
 7633 1051 01       		.uleb128 0x1
 7634 1052 50       		.byte	0x50
 7635 1053 01       		.uleb128 0x1
 7636 1054 36       		.byte	0x36
 7637 1055 0A       		.uleb128 0xa
 7638 1056 01       		.uleb128 0x1
 7639 1057 51       		.byte	0x51
 7640 1058 01       		.uleb128 0x1
 7641 1059 30       		.byte	0x30
ARM GAS  C:\Users\Revanth\AppData\Local\Temp\ccSEzD1d.s 			page 180


 7642 105a 0A       		.uleb128 0xa
 7643 105b 01       		.uleb128 0x1
 7644 105c 52       		.byte	0x52
 7645 105d 02       		.uleb128 0x2
 7646 105e 74       		.byte	0x74
 7647 105f 00       		.sleb128 0
 7648 1060 00       		.byte	0
 7649 1061 09       		.uleb128 0x9
 7650 1062 40000000 		.4byte	.LVL213
 7651 1066 2C0E0000 		.4byte	0xe2c
 7652 106a 7F100000 		.4byte	0x107f
 7653 106e 0A       		.uleb128 0xa
 7654 106f 01       		.uleb128 0x1
 7655 1070 50       		.byte	0x50
 7656 1071 01       		.uleb128 0x1
 7657 1072 38       		.byte	0x38
 7658 1073 0A       		.uleb128 0xa
 7659 1074 01       		.uleb128 0x1
 7660 1075 51       		.byte	0x51
 7661 1076 01       		.uleb128 0x1
 7662 1077 3F       		.byte	0x3f
 7663 1078 0A       		.uleb128 0xa
 7664 1079 01       		.uleb128 0x1
 7665 107a 52       		.byte	0x52
 7666 107b 02       		.uleb128 0x2
 7667 107c 74       		.byte	0x74
 7668 107d 00       		.sleb128 0
 7669 107e 00       		.byte	0
 7670 107f 09       		.uleb128 0x9
 7671 1080 4A000000 		.4byte	.LVL214
 7672 1084 2C0E0000 		.4byte	0xe2c
 7673 1088 A1100000 		.4byte	0x10a1
 7674 108c 0A       		.uleb128 0xa
 7675 108d 01       		.uleb128 0x1
 7676 108e 50       		.byte	0x50
 7677 108f 01       		.uleb128 0x1
 7678 1090 39       		.byte	0x39
 7679 1091 0A       		.uleb128 0xa
 7680 1092 01       		.uleb128 0x1
 7681 1093 51       		.byte	0x51
 7682 1094 05       		.uleb128 0x5
 7683 1095 0C       		.byte	0xc
 7684 1096 06060100 		.4byte	0x10606
 7685 109a 0A       		.uleb128 0xa
 7686 109b 01       		.uleb128 0x1
 7687 109c 52       		.byte	0x52
 7688 109d 02       		.uleb128 0x2
 7689 109e 74       		.byte	0x74
 7690 109f 00       		.sleb128 0
 7691 10a0 00       		.byte	0
 7692 10a1 09       		.uleb128 0x9
 7693 10a2 54000000 		.4byte	.LVL215
 7694 10a6 2C0E0000 		.4byte	0xe2c
 7695 10aa C3100000 		.4byte	0x10c3
 7696 10ae 0A       		.uleb128 0xa
 7697 10af 01       		.uleb128 0x1
 7698 10b0 50       		.byte	0x50
ARM GAS  C:\Users\Revanth\AppData\Local\Temp\ccSEzD1d.s 			page 181


 7699 10b1 01       		.uleb128 0x1
 7700 10b2 3A       		.byte	0x3a
 7701 10b3 0A       		.uleb128 0xa
 7702 10b4 01       		.uleb128 0x1
 7703 10b5 51       		.byte	0x51
 7704 10b6 05       		.uleb128 0x5
 7705 10b7 0C       		.byte	0xc
 7706 10b8 1F040800 		.4byte	0x8041f
 7707 10bc 0A       		.uleb128 0xa
 7708 10bd 01       		.uleb128 0x1
 7709 10be 52       		.byte	0x52
 7710 10bf 02       		.uleb128 0x2
 7711 10c0 74       		.byte	0x74
 7712 10c1 00       		.sleb128 0
 7713 10c2 00       		.byte	0
 7714 10c3 09       		.uleb128 0x9
 7715 10c4 5E000000 		.4byte	.LVL216
 7716 10c8 2C0E0000 		.4byte	0xe2c
 7717 10cc E1100000 		.4byte	0x10e1
 7718 10d0 0A       		.uleb128 0xa
 7719 10d1 01       		.uleb128 0x1
 7720 10d2 50       		.byte	0x50
 7721 10d3 01       		.uleb128 0x1
 7722 10d4 3B       		.byte	0x3b
 7723 10d5 0A       		.uleb128 0xa
 7724 10d6 01       		.uleb128 0x1
 7725 10d7 51       		.byte	0x51
 7726 10d8 01       		.uleb128 0x1
 7727 10d9 30       		.byte	0x30
 7728 10da 0A       		.uleb128 0xa
 7729 10db 01       		.uleb128 0x1
 7730 10dc 52       		.byte	0x52
 7731 10dd 02       		.uleb128 0x2
 7732 10de 74       		.byte	0x74
 7733 10df 00       		.sleb128 0
 7734 10e0 00       		.byte	0
 7735 10e1 09       		.uleb128 0x9
 7736 10e2 68000000 		.4byte	.LVL217
 7737 10e6 2C0E0000 		.4byte	0xe2c
 7738 10ea 03110000 		.4byte	0x1103
 7739 10ee 0A       		.uleb128 0xa
 7740 10ef 01       		.uleb128 0x1
 7741 10f0 50       		.byte	0x50
 7742 10f1 01       		.uleb128 0x1
 7743 10f2 40       		.byte	0x40
 7744 10f3 0A       		.uleb128 0xa
 7745 10f4 01       		.uleb128 0x1
 7746 10f5 51       		.byte	0x51
 7747 10f6 05       		.uleb128 0x5
 7748 10f7 0C       		.byte	0xc
 7749 10f8 01030700 		.4byte	0x70301
 7750 10fc 0A       		.uleb128 0xa
 7751 10fd 01       		.uleb128 0x1
 7752 10fe 52       		.byte	0x52
 7753 10ff 02       		.uleb128 0x2
 7754 1100 74       		.byte	0x74
 7755 1101 00       		.sleb128 0
ARM GAS  C:\Users\Revanth\AppData\Local\Temp\ccSEzD1d.s 			page 182


 7756 1102 00       		.byte	0
 7757 1103 09       		.uleb128 0x9
 7758 1104 72000000 		.4byte	.LVL218
 7759 1108 2C0E0000 		.4byte	0xe2c
 7760 110c 21110000 		.4byte	0x1121
 7761 1110 0A       		.uleb128 0xa
 7762 1111 01       		.uleb128 0x1
 7763 1112 50       		.byte	0x50
 7764 1113 01       		.uleb128 0x1
 7765 1114 41       		.byte	0x41
 7766 1115 0A       		.uleb128 0xa
 7767 1116 01       		.uleb128 0x1
 7768 1117 51       		.byte	0x51
 7769 1118 01       		.uleb128 0x1
 7770 1119 3A       		.byte	0x3a
 7771 111a 0A       		.uleb128 0xa
 7772 111b 01       		.uleb128 0x1
 7773 111c 52       		.byte	0x52
 7774 111d 02       		.uleb128 0x2
 7775 111e 74       		.byte	0x74
 7776 111f 00       		.sleb128 0
 7777 1120 00       		.byte	0
 7778 1121 09       		.uleb128 0x9
 7779 1122 7C000000 		.4byte	.LVL219
 7780 1126 2C0E0000 		.4byte	0xe2c
 7781 112a 3F110000 		.4byte	0x113f
 7782 112e 0A       		.uleb128 0xa
 7783 112f 01       		.uleb128 0x1
 7784 1130 50       		.byte	0x50
 7785 1131 01       		.uleb128 0x1
 7786 1132 43       		.byte	0x43
 7787 1133 0A       		.uleb128 0xa
 7788 1134 01       		.uleb128 0x1
 7789 1135 51       		.byte	0x51
 7790 1136 01       		.uleb128 0x1
 7791 1137 30       		.byte	0x30
 7792 1138 0A       		.uleb128 0xa
 7793 1139 01       		.uleb128 0x1
 7794 113a 52       		.byte	0x52
 7795 113b 02       		.uleb128 0x2
 7796 113c 74       		.byte	0x74
 7797 113d 00       		.sleb128 0
 7798 113e 00       		.byte	0
 7799 113f 09       		.uleb128 0x9
 7800 1140 86000000 		.4byte	.LVL220
 7801 1144 2C0E0000 		.4byte	0xe2c
 7802 1148 5D110000 		.4byte	0x115d
 7803 114c 0A       		.uleb128 0xa
 7804 114d 01       		.uleb128 0x1
 7805 114e 50       		.byte	0x50
 7806 114f 01       		.uleb128 0x1
 7807 1150 44       		.byte	0x44
 7808 1151 0A       		.uleb128 0xa
 7809 1152 01       		.uleb128 0x1
 7810 1153 51       		.byte	0x51
 7811 1154 01       		.uleb128 0x1
 7812 1155 30       		.byte	0x30
ARM GAS  C:\Users\Revanth\AppData\Local\Temp\ccSEzD1d.s 			page 183


 7813 1156 0A       		.uleb128 0xa
 7814 1157 01       		.uleb128 0x1
 7815 1158 52       		.byte	0x52
 7816 1159 02       		.uleb128 0x2
 7817 115a 74       		.byte	0x74
 7818 115b 00       		.sleb128 0
 7819 115c 00       		.byte	0
 7820 115d 09       		.uleb128 0x9
 7821 115e 90000000 		.4byte	.LVL221
 7822 1162 2C0E0000 		.4byte	0xe2c
 7823 1166 7B110000 		.4byte	0x117b
 7824 116a 0A       		.uleb128 0xa
 7825 116b 01       		.uleb128 0x1
 7826 116c 50       		.byte	0x50
 7827 116d 01       		.uleb128 0x1
 7828 116e 45       		.byte	0x45
 7829 116f 0A       		.uleb128 0xa
 7830 1170 01       		.uleb128 0x1
 7831 1171 51       		.byte	0x51
 7832 1172 01       		.uleb128 0x1
 7833 1173 30       		.byte	0x30
 7834 1174 0A       		.uleb128 0xa
 7835 1175 01       		.uleb128 0x1
 7836 1176 52       		.byte	0x52
 7837 1177 02       		.uleb128 0x2
 7838 1178 74       		.byte	0x74
 7839 1179 00       		.sleb128 0
 7840 117a 00       		.byte	0
 7841 117b 09       		.uleb128 0x9
 7842 117c 9A000000 		.4byte	.LVL222
 7843 1180 2C0E0000 		.4byte	0xe2c
 7844 1184 9A110000 		.4byte	0x119a
 7845 1188 0A       		.uleb128 0xa
 7846 1189 01       		.uleb128 0x1
 7847 118a 50       		.byte	0x50
 7848 118b 02       		.uleb128 0x2
 7849 118c 08       		.byte	0x8
 7850 118d 21       		.byte	0x21
 7851 118e 0A       		.uleb128 0xa
 7852 118f 01       		.uleb128 0x1
 7853 1190 51       		.byte	0x51
 7854 1191 01       		.uleb128 0x1
 7855 1192 30       		.byte	0x30
 7856 1193 0A       		.uleb128 0xa
 7857 1194 01       		.uleb128 0x1
 7858 1195 52       		.byte	0x52
 7859 1196 02       		.uleb128 0x2
 7860 1197 74       		.byte	0x74
 7861 1198 00       		.sleb128 0
 7862 1199 00       		.byte	0
 7863 119a 09       		.uleb128 0x9
 7864 119b A6000000 		.4byte	.LVL223
 7865 119f 2C0E0000 		.4byte	0xe2c
 7866 11a3 BB110000 		.4byte	0x11bb
 7867 11a7 0A       		.uleb128 0xa
 7868 11a8 01       		.uleb128 0x1
 7869 11a9 50       		.byte	0x50
ARM GAS  C:\Users\Revanth\AppData\Local\Temp\ccSEzD1d.s 			page 184


 7870 11aa 02       		.uleb128 0x2
 7871 11ab 08       		.byte	0x8
 7872 11ac 23       		.byte	0x23
 7873 11ad 0A       		.uleb128 0xa
 7874 11ae 01       		.uleb128 0x1
 7875 11af 51       		.byte	0x51
 7876 11b0 03       		.uleb128 0x3
 7877 11b1 0A       		.byte	0xa
 7878 11b2 384A     		.2byte	0x4a38
 7879 11b4 0A       		.uleb128 0xa
 7880 11b5 01       		.uleb128 0x1
 7881 11b6 52       		.byte	0x52
 7882 11b7 02       		.uleb128 0x2
 7883 11b8 74       		.byte	0x74
 7884 11b9 00       		.sleb128 0
 7885 11ba 00       		.byte	0
 7886 11bb 09       		.uleb128 0x9
 7887 11bc B0000000 		.4byte	.LVL224
 7888 11c0 2C0E0000 		.4byte	0xe2c
 7889 11c4 DA110000 		.4byte	0x11da
 7890 11c8 0A       		.uleb128 0xa
 7891 11c9 01       		.uleb128 0x1
 7892 11ca 50       		.byte	0x50
 7893 11cb 02       		.uleb128 0x2
 7894 11cc 08       		.byte	0x8
 7895 11cd 2C       		.byte	0x2c
 7896 11ce 0A       		.uleb128 0xa
 7897 11cf 01       		.uleb128 0x1
 7898 11d0 51       		.byte	0x51
 7899 11d1 01       		.uleb128 0x1
 7900 11d2 30       		.byte	0x30
 7901 11d3 0A       		.uleb128 0xa
 7902 11d4 01       		.uleb128 0x1
 7903 11d5 52       		.byte	0x52
 7904 11d6 02       		.uleb128 0x2
 7905 11d7 74       		.byte	0x74
 7906 11d8 00       		.sleb128 0
 7907 11d9 00       		.byte	0
 7908 11da 09       		.uleb128 0x9
 7909 11db BA000000 		.4byte	.LVL225
 7910 11df 2C0E0000 		.4byte	0xe2c
 7911 11e3 F9110000 		.4byte	0x11f9
 7912 11e7 0A       		.uleb128 0xa
 7913 11e8 01       		.uleb128 0x1
 7914 11e9 50       		.byte	0x50
 7915 11ea 02       		.uleb128 0x2
 7916 11eb 08       		.byte	0x8
 7917 11ec 33       		.byte	0x33
 7918 11ed 0A       		.uleb128 0xa
 7919 11ee 01       		.uleb128 0x1
 7920 11ef 51       		.byte	0x51
 7921 11f0 01       		.uleb128 0x1
 7922 11f1 30       		.byte	0x30
 7923 11f2 0A       		.uleb128 0xa
 7924 11f3 01       		.uleb128 0x1
 7925 11f4 52       		.byte	0x52
 7926 11f5 02       		.uleb128 0x2
ARM GAS  C:\Users\Revanth\AppData\Local\Temp\ccSEzD1d.s 			page 185


 7927 11f6 74       		.byte	0x74
 7928 11f7 00       		.sleb128 0
 7929 11f8 00       		.byte	0
 7930 11f9 09       		.uleb128 0x9
 7931 11fa C6000000 		.4byte	.LVL226
 7932 11fe 2C0E0000 		.4byte	0xe2c
 7933 1202 1A120000 		.4byte	0x121a
 7934 1206 0A       		.uleb128 0xa
 7935 1207 01       		.uleb128 0x1
 7936 1208 50       		.byte	0x50
 7937 1209 02       		.uleb128 0x2
 7938 120a 08       		.byte	0x8
 7939 120b 34       		.byte	0x34
 7940 120c 0A       		.uleb128 0xa
 7941 120d 01       		.uleb128 0x1
 7942 120e 51       		.byte	0x51
 7943 120f 03       		.uleb128 0x3
 7944 1210 0A       		.byte	0xa
 7945 1211 AF02     		.2byte	0x2af
 7946 1213 0A       		.uleb128 0xa
 7947 1214 01       		.uleb128 0x1
 7948 1215 52       		.byte	0x52
 7949 1216 02       		.uleb128 0x2
 7950 1217 74       		.byte	0x74
 7951 1218 00       		.sleb128 0
 7952 1219 00       		.byte	0
 7953 121a 09       		.uleb128 0x9
 7954 121b D0000000 		.4byte	.LVL227
 7955 121f 2C0E0000 		.4byte	0xe2c
 7956 1223 39120000 		.4byte	0x1239
 7957 1227 0A       		.uleb128 0xa
 7958 1228 01       		.uleb128 0x1
 7959 1229 50       		.byte	0x50
 7960 122a 02       		.uleb128 0x2
 7961 122b 08       		.byte	0x8
 7962 122c 38       		.byte	0x38
 7963 122d 0A       		.uleb128 0xa
 7964 122e 01       		.uleb128 0x1
 7965 122f 51       		.byte	0x51
 7966 1230 01       		.uleb128 0x1
 7967 1231 30       		.byte	0x30
 7968 1232 0A       		.uleb128 0xa
 7969 1233 01       		.uleb128 0x1
 7970 1234 52       		.byte	0x52
 7971 1235 02       		.uleb128 0x2
 7972 1236 74       		.byte	0x74
 7973 1237 00       		.sleb128 0
 7974 1238 00       		.byte	0
 7975 1239 09       		.uleb128 0x9
 7976 123a DA000000 		.4byte	.LVL228
 7977 123e 2C0E0000 		.4byte	0xe2c
 7978 1242 58120000 		.4byte	0x1258
 7979 1246 0A       		.uleb128 0xa
 7980 1247 01       		.uleb128 0x1
 7981 1248 50       		.byte	0x50
 7982 1249 02       		.uleb128 0x2
 7983 124a 08       		.byte	0x8
ARM GAS  C:\Users\Revanth\AppData\Local\Temp\ccSEzD1d.s 			page 186


 7984 124b 39       		.byte	0x39
 7985 124c 0A       		.uleb128 0xa
 7986 124d 01       		.uleb128 0x1
 7987 124e 51       		.byte	0x51
 7988 124f 01       		.uleb128 0x1
 7989 1250 30       		.byte	0x30
 7990 1251 0A       		.uleb128 0xa
 7991 1252 01       		.uleb128 0x1
 7992 1253 52       		.byte	0x52
 7993 1254 02       		.uleb128 0x2
 7994 1255 74       		.byte	0x74
 7995 1256 00       		.sleb128 0
 7996 1257 00       		.byte	0
 7997 1258 09       		.uleb128 0x9
 7998 1259 E6000000 		.4byte	.LVL229
 7999 125d 2C0E0000 		.4byte	0xe2c
 8000 1261 79120000 		.4byte	0x1279
 8001 1265 0A       		.uleb128 0xa
 8002 1266 01       		.uleb128 0x1
 8003 1267 50       		.byte	0x50
 8004 1268 02       		.uleb128 0x2
 8005 1269 08       		.byte	0x8
 8006 126a 3A       		.byte	0x3a
 8007 126b 0A       		.uleb128 0xa
 8008 126c 01       		.uleb128 0x1
 8009 126d 51       		.byte	0x51
 8010 126e 03       		.uleb128 0x3
 8011 126f 40       		.byte	0x40
 8012 1270 3C       		.byte	0x3c
 8013 1271 24       		.byte	0x24
 8014 1272 0A       		.uleb128 0xa
 8015 1273 01       		.uleb128 0x1
 8016 1274 52       		.byte	0x52
 8017 1275 02       		.uleb128 0x2
 8018 1276 74       		.byte	0x74
 8019 1277 00       		.sleb128 0
 8020 1278 00       		.byte	0
 8021 1279 09       		.uleb128 0x9
 8022 127a F0000000 		.4byte	.LVL230
 8023 127e 2C0E0000 		.4byte	0xe2c
 8024 1282 98120000 		.4byte	0x1298
 8025 1286 0A       		.uleb128 0xa
 8026 1287 01       		.uleb128 0x1
 8027 1288 50       		.byte	0x50
 8028 1289 02       		.uleb128 0x2
 8029 128a 08       		.byte	0x8
 8030 128b 3D       		.byte	0x3d
 8031 128c 0A       		.uleb128 0xa
 8032 128d 01       		.uleb128 0x1
 8033 128e 51       		.byte	0x51
 8034 128f 01       		.uleb128 0x1
 8035 1290 30       		.byte	0x30
 8036 1291 0A       		.uleb128 0xa
 8037 1292 01       		.uleb128 0x1
 8038 1293 52       		.byte	0x52
 8039 1294 02       		.uleb128 0x2
 8040 1295 74       		.byte	0x74
ARM GAS  C:\Users\Revanth\AppData\Local\Temp\ccSEzD1d.s 			page 187


 8041 1296 00       		.sleb128 0
 8042 1297 00       		.byte	0
 8043 1298 09       		.uleb128 0x9
 8044 1299 FA000000 		.4byte	.LVL231
 8045 129d 2C0E0000 		.4byte	0xe2c
 8046 12a1 BC120000 		.4byte	0x12bc
 8047 12a5 0A       		.uleb128 0xa
 8048 12a6 01       		.uleb128 0x1
 8049 12a7 50       		.byte	0x50
 8050 12a8 02       		.uleb128 0x2
 8051 12a9 08       		.byte	0x8
 8052 12aa 60       		.byte	0x60
 8053 12ab 0A       		.uleb128 0xa
 8054 12ac 01       		.uleb128 0x1
 8055 12ad 51       		.byte	0x51
 8056 12ae 06       		.uleb128 0x6
 8057 12af 11       		.byte	0x11
 8058 12b0 D4EAAAD5 		.sleb128 -1431653036
 8058      7A
 8059 12b5 0A       		.uleb128 0xa
 8060 12b6 01       		.uleb128 0x1
 8061 12b7 52       		.byte	0x52
 8062 12b8 02       		.uleb128 0x2
 8063 12b9 74       		.byte	0x74
 8064 12ba 00       		.sleb128 0
 8065 12bb 00       		.byte	0
 8066 12bc 09       		.uleb128 0x9
 8067 12bd 04010000 		.4byte	.LVL232
 8068 12c1 2C0E0000 		.4byte	0xe2c
 8069 12c5 DF120000 		.4byte	0x12df
 8070 12c9 0A       		.uleb128 0xa
 8071 12ca 01       		.uleb128 0x1
 8072 12cb 50       		.byte	0x50
 8073 12cc 02       		.uleb128 0x2
 8074 12cd 08       		.byte	0x8
 8075 12ce 61       		.byte	0x61
 8076 12cf 0A       		.uleb128 0xa
 8077 12d0 01       		.uleb128 0x1
 8078 12d1 51       		.byte	0x51
 8079 12d2 05       		.uleb128 0x5
 8080 12d3 0C       		.byte	0xc
 8081 12d4 AA54954A 		.4byte	0x4a9554aa
 8082 12d8 0A       		.uleb128 0xa
 8083 12d9 01       		.uleb128 0x1
 8084 12da 52       		.byte	0x52
 8085 12db 02       		.uleb128 0x2
 8086 12dc 74       		.byte	0x74
 8087 12dd 00       		.sleb128 0
 8088 12de 00       		.byte	0
 8089 12df 09       		.uleb128 0x9
 8090 12e0 0E010000 		.4byte	.LVL233
 8091 12e4 2C0E0000 		.4byte	0xe2c
 8092 12e8 02130000 		.4byte	0x1302
 8093 12ec 0A       		.uleb128 0xa
 8094 12ed 01       		.uleb128 0x1
 8095 12ee 50       		.byte	0x50
 8096 12ef 02       		.uleb128 0x2
ARM GAS  C:\Users\Revanth\AppData\Local\Temp\ccSEzD1d.s 			page 188


 8097 12f0 08       		.byte	0x8
 8098 12f1 62       		.byte	0x62
 8099 12f2 0A       		.uleb128 0xa
 8100 12f3 01       		.uleb128 0x1
 8101 12f4 51       		.byte	0x51
 8102 12f5 05       		.uleb128 0x5
 8103 12f6 0C       		.byte	0xc
 8104 12f7 29294924 		.4byte	0x24492929
 8105 12fb 0A       		.uleb128 0xa
 8106 12fc 01       		.uleb128 0x1
 8107 12fd 52       		.byte	0x52
 8108 12fe 02       		.uleb128 0x2
 8109 12ff 74       		.byte	0x74
 8110 1300 00       		.sleb128 0
 8111 1301 00       		.byte	0
 8112 1302 09       		.uleb128 0x9
 8113 1303 18010000 		.4byte	.LVL234
 8114 1307 2C0E0000 		.4byte	0xe2c
 8115 130b 21130000 		.4byte	0x1321
 8116 130f 0A       		.uleb128 0xa
 8117 1310 01       		.uleb128 0x1
 8118 1311 50       		.byte	0x50
 8119 1312 02       		.uleb128 0x2
 8120 1313 08       		.byte	0x8
 8121 1314 63       		.byte	0x63
 8122 1315 0A       		.uleb128 0xa
 8123 1316 01       		.uleb128 0x1
 8124 1317 51       		.byte	0x51
 8125 1318 01       		.uleb128 0x1
 8126 1319 38       		.byte	0x38
 8127 131a 0A       		.uleb128 0xa
 8128 131b 01       		.uleb128 0x1
 8129 131c 52       		.byte	0x52
 8130 131d 02       		.uleb128 0x2
 8131 131e 74       		.byte	0x74
 8132 131f 00       		.sleb128 0
 8133 1320 00       		.byte	0
 8134 1321 09       		.uleb128 0x9
 8135 1322 24010000 		.4byte	.LVL235
 8136 1326 2C0E0000 		.4byte	0xe2c
 8137 132a 44130000 		.4byte	0x1344
 8138 132e 0A       		.uleb128 0xa
 8139 132f 01       		.uleb128 0x1
 8140 1330 50       		.byte	0x50
 8141 1331 02       		.uleb128 0x2
 8142 1332 08       		.byte	0x8
 8143 1333 64       		.byte	0x64
 8144 1334 0A       		.uleb128 0xa
 8145 1335 01       		.uleb128 0x1
 8146 1336 51       		.byte	0x51
 8147 1337 05       		.uleb128 0x5
 8148 1338 11       		.byte	0x11
 8149 1339 FFFFFF5F 		.sleb128 -67108865
 8150 133d 0A       		.uleb128 0xa
 8151 133e 01       		.uleb128 0x1
 8152 133f 52       		.byte	0x52
 8153 1340 02       		.uleb128 0x2
ARM GAS  C:\Users\Revanth\AppData\Local\Temp\ccSEzD1d.s 			page 189


 8154 1341 74       		.byte	0x74
 8155 1342 00       		.sleb128 0
 8156 1343 00       		.byte	0
 8157 1344 09       		.uleb128 0x9
 8158 1345 2E010000 		.4byte	.LVL236
 8159 1349 2C0E0000 		.4byte	0xe2c
 8160 134d 68130000 		.4byte	0x1368
 8161 1351 0A       		.uleb128 0xa
 8162 1352 01       		.uleb128 0x1
 8163 1353 50       		.byte	0x50
 8164 1354 02       		.uleb128 0x2
 8165 1355 08       		.byte	0x8
 8166 1356 65       		.byte	0x65
 8167 1357 0A       		.uleb128 0xa
 8168 1358 01       		.uleb128 0x1
 8169 1359 51       		.byte	0x51
 8170 135a 06       		.uleb128 0x6
 8171 135b 11       		.byte	0x11
 8172 135c FDEEEDAD 		.sleb128 -1246005379
 8172      7B
 8173 1361 0A       		.uleb128 0xa
 8174 1362 01       		.uleb128 0x1
 8175 1363 52       		.byte	0x52
 8176 1364 02       		.uleb128 0x2
 8177 1365 74       		.byte	0x74
 8178 1366 00       		.sleb128 0
 8179 1367 00       		.byte	0
 8180 1368 09       		.uleb128 0x9
 8181 1369 38010000 		.4byte	.LVL237
 8182 136d 2C0E0000 		.4byte	0xe2c
 8183 1371 8B130000 		.4byte	0x138b
 8184 1375 0A       		.uleb128 0xa
 8185 1376 01       		.uleb128 0x1
 8186 1377 50       		.byte	0x50
 8187 1378 02       		.uleb128 0x2
 8188 1379 08       		.byte	0x8
 8189 137a 66       		.byte	0x66
 8190 137b 0A       		.uleb128 0xa
 8191 137c 01       		.uleb128 0x1
 8192 137d 51       		.byte	0x51
 8193 137e 05       		.uleb128 0x5
 8194 137f 0C       		.byte	0xc
 8195 1380 56552949 		.4byte	0x49295556
 8196 1384 0A       		.uleb128 0xa
 8197 1385 01       		.uleb128 0x1
 8198 1386 52       		.byte	0x52
 8199 1387 02       		.uleb128 0x2
 8200 1388 74       		.byte	0x74
 8201 1389 00       		.sleb128 0
 8202 138a 00       		.byte	0
 8203 138b 09       		.uleb128 0x9
 8204 138c 42010000 		.4byte	.LVL238
 8205 1390 2C0E0000 		.4byte	0xe2c
 8206 1394 AE130000 		.4byte	0x13ae
 8207 1398 0A       		.uleb128 0xa
 8208 1399 01       		.uleb128 0x1
 8209 139a 50       		.byte	0x50
ARM GAS  C:\Users\Revanth\AppData\Local\Temp\ccSEzD1d.s 			page 190


 8210 139b 02       		.uleb128 0x2
 8211 139c 08       		.byte	0x8
 8212 139d 67       		.byte	0x67
 8213 139e 0A       		.uleb128 0xa
 8214 139f 01       		.uleb128 0x1
 8215 13a0 51       		.byte	0x51
 8216 13a1 05       		.uleb128 0x5
 8217 13a2 0C       		.byte	0xc
 8218 13a3 22424000 		.4byte	0x404222
 8219 13a7 0A       		.uleb128 0xa
 8220 13a8 01       		.uleb128 0x1
 8221 13a9 52       		.byte	0x52
 8222 13aa 02       		.uleb128 0x2
 8223 13ab 74       		.byte	0x74
 8224 13ac 00       		.sleb128 0
 8225 13ad 00       		.byte	0
 8226 13ae 09       		.uleb128 0x9
 8227 13af 4C010000 		.4byte	.LVL239
 8228 13b3 2C0E0000 		.4byte	0xe2c
 8229 13b7 CF130000 		.4byte	0x13cf
 8230 13bb 0A       		.uleb128 0xa
 8231 13bc 01       		.uleb128 0x1
 8232 13bd 50       		.byte	0x50
 8233 13be 02       		.uleb128 0x2
 8234 13bf 08       		.byte	0x8
 8235 13c0 68       		.byte	0x68
 8236 13c1 0A       		.uleb128 0xa
 8237 13c2 01       		.uleb128 0x1
 8238 13c3 51       		.byte	0x51
 8239 13c4 03       		.uleb128 0x3
 8240 13c5 0B       		.byte	0xb
 8241 13c6 5680     		.2byte	0x8056
 8242 13c8 0A       		.uleb128 0xa
 8243 13c9 01       		.uleb128 0x1
 8244 13ca 52       		.byte	0x52
 8245 13cb 02       		.uleb128 0x2
 8246 13cc 74       		.byte	0x74
 8247 13cd 00       		.sleb128 0
 8248 13ce 00       		.byte	0
 8249 13cf 09       		.uleb128 0x9
 8250 13d0 58010000 		.4byte	.LVL240
 8251 13d4 2C0E0000 		.4byte	0xe2c
 8252 13d8 F1130000 		.4byte	0x13f1
 8253 13dc 0A       		.uleb128 0xa
 8254 13dd 01       		.uleb128 0x1
 8255 13de 50       		.byte	0x50
 8256 13df 02       		.uleb128 0x2
 8257 13e0 08       		.byte	0x8
 8258 13e1 69       		.byte	0x69
 8259 13e2 0A       		.uleb128 0xa
 8260 13e3 01       		.uleb128 0x1
 8261 13e4 51       		.byte	0x51
 8262 13e5 04       		.uleb128 0x4
 8263 13e6 08       		.byte	0x8
 8264 13e7 F7       		.byte	0xf7
 8265 13e8 40       		.byte	0x40
 8266 13e9 24       		.byte	0x24
ARM GAS  C:\Users\Revanth\AppData\Local\Temp\ccSEzD1d.s 			page 191


 8267 13ea 0A       		.uleb128 0xa
 8268 13eb 01       		.uleb128 0x1
 8269 13ec 52       		.byte	0x52
 8270 13ed 02       		.uleb128 0x2
 8271 13ee 74       		.byte	0x74
 8272 13ef 00       		.sleb128 0
 8273 13f0 00       		.byte	0
 8274 13f1 09       		.uleb128 0x9
 8275 13f2 62010000 		.4byte	.LVL241
 8276 13f6 2C0E0000 		.4byte	0xe2c
 8277 13fa 14140000 		.4byte	0x1414
 8278 13fe 0A       		.uleb128 0xa
 8279 13ff 01       		.uleb128 0x1
 8280 1400 50       		.byte	0x50
 8281 1401 02       		.uleb128 0x2
 8282 1402 08       		.byte	0x8
 8283 1403 6C       		.byte	0x6c
 8284 1404 0A       		.uleb128 0xa
 8285 1405 01       		.uleb128 0x1
 8286 1406 51       		.byte	0x51
 8287 1407 05       		.uleb128 0x5
 8288 1408 0C       		.byte	0xc
 8289 1409 53014100 		.4byte	0x410153
 8290 140d 0A       		.uleb128 0xa
 8291 140e 01       		.uleb128 0x1
 8292 140f 52       		.byte	0x52
 8293 1410 02       		.uleb128 0x2
 8294 1411 74       		.byte	0x74
 8295 1412 00       		.sleb128 0
 8296 1413 00       		.byte	0
 8297 1414 09       		.uleb128 0x9
 8298 1415 6C010000 		.4byte	.LVL242
 8299 1419 2C0E0000 		.4byte	0xe2c
 8300 141d 33140000 		.4byte	0x1433
 8301 1421 0A       		.uleb128 0xa
 8302 1422 01       		.uleb128 0x1
 8303 1423 50       		.byte	0x50
 8304 1424 02       		.uleb128 0x2
 8305 1425 08       		.byte	0x8
 8306 1426 6D       		.byte	0x6d
 8307 1427 0A       		.uleb128 0xa
 8308 1428 01       		.uleb128 0x1
 8309 1429 51       		.byte	0x51
 8310 142a 01       		.uleb128 0x1
 8311 142b 30       		.byte	0x30
 8312 142c 0A       		.uleb128 0xa
 8313 142d 01       		.uleb128 0x1
 8314 142e 52       		.byte	0x52
 8315 142f 02       		.uleb128 0x2
 8316 1430 74       		.byte	0x74
 8317 1431 00       		.sleb128 0
 8318 1432 00       		.byte	0
 8319 1433 09       		.uleb128 0x9
 8320 1434 76010000 		.4byte	.LVL243
 8321 1438 2C0E0000 		.4byte	0xe2c
 8322 143c 52140000 		.4byte	0x1452
 8323 1440 0A       		.uleb128 0xa
ARM GAS  C:\Users\Revanth\AppData\Local\Temp\ccSEzD1d.s 			page 192


 8324 1441 01       		.uleb128 0x1
 8325 1442 50       		.byte	0x50
 8326 1443 02       		.uleb128 0x2
 8327 1444 08       		.byte	0x8
 8328 1445 6E       		.byte	0x6e
 8329 1446 0A       		.uleb128 0xa
 8330 1447 01       		.uleb128 0x1
 8331 1448 51       		.byte	0x51
 8332 1449 01       		.uleb128 0x1
 8333 144a 30       		.byte	0x30
 8334 144b 0A       		.uleb128 0xa
 8335 144c 01       		.uleb128 0x1
 8336 144d 52       		.byte	0x52
 8337 144e 02       		.uleb128 0x2
 8338 144f 74       		.byte	0x74
 8339 1450 00       		.sleb128 0
 8340 1451 00       		.byte	0
 8341 1452 09       		.uleb128 0x9
 8342 1453 80010000 		.4byte	.LVL244
 8343 1457 2C0E0000 		.4byte	0xe2c
 8344 145b 76140000 		.4byte	0x1476
 8345 145f 0A       		.uleb128 0xa
 8346 1460 01       		.uleb128 0x1
 8347 1461 50       		.byte	0x50
 8348 1462 02       		.uleb128 0x2
 8349 1463 08       		.byte	0x8
 8350 1464 70       		.byte	0x70
 8351 1465 0A       		.uleb128 0xa
 8352 1466 01       		.uleb128 0x1
 8353 1467 51       		.byte	0x51
 8354 1468 06       		.uleb128 0x6
 8355 1469 11       		.byte	0x11
 8356 146a 9E80B0A0 		.sleb128 -1005846498
 8356      7C
 8357 146f 0A       		.uleb128 0xa
 8358 1470 01       		.uleb128 0x1
 8359 1471 52       		.byte	0x52
 8360 1472 02       		.uleb128 0x2
 8361 1473 74       		.byte	0x74
 8362 1474 00       		.sleb128 0
 8363 1475 00       		.byte	0
 8364 1476 09       		.uleb128 0x9
 8365 1477 8C010000 		.4byte	.LVL245
 8366 147b 2C0E0000 		.4byte	0xe2c
 8367 147f 97140000 		.4byte	0x1497
 8368 1483 0A       		.uleb128 0xa
 8369 1484 01       		.uleb128 0x1
 8370 1485 50       		.byte	0x50
 8371 1486 02       		.uleb128 0x2
 8372 1487 08       		.byte	0x8
 8373 1488 24       		.byte	0x24
 8374 1489 0A       		.uleb128 0xa
 8375 148a 01       		.uleb128 0x1
 8376 148b 51       		.byte	0x51
 8377 148c 03       		.uleb128 0x3
 8378 148d 0A       		.byte	0xa
 8379 148e 771C     		.2byte	0x1c77
ARM GAS  C:\Users\Revanth\AppData\Local\Temp\ccSEzD1d.s 			page 193


 8380 1490 0A       		.uleb128 0xa
 8381 1491 01       		.uleb128 0x1
 8382 1492 52       		.byte	0x52
 8383 1493 02       		.uleb128 0x2
 8384 1494 74       		.byte	0x74
 8385 1495 00       		.sleb128 0
 8386 1496 00       		.byte	0
 8387 1497 09       		.uleb128 0x9
 8388 1498 98010000 		.4byte	.LVL246
 8389 149c 2C0E0000 		.4byte	0xe2c
 8390 14a0 B8140000 		.4byte	0x14b8
 8391 14a4 0A       		.uleb128 0xa
 8392 14a5 01       		.uleb128 0x1
 8393 14a6 50       		.byte	0x50
 8394 14a7 02       		.uleb128 0x2
 8395 14a8 08       		.byte	0x8
 8396 14a9 25       		.byte	0x25
 8397 14aa 0A       		.uleb128 0xa
 8398 14ab 01       		.uleb128 0x1
 8399 14ac 51       		.byte	0x51
 8400 14ad 03       		.uleb128 0x3
 8401 14ae 0A       		.byte	0xa
 8402 14af 384A     		.2byte	0x4a38
 8403 14b1 0A       		.uleb128 0xa
 8404 14b2 01       		.uleb128 0x1
 8405 14b3 52       		.byte	0x52
 8406 14b4 02       		.uleb128 0x2
 8407 14b5 74       		.byte	0x74
 8408 14b6 00       		.sleb128 0
 8409 14b7 00       		.byte	0
 8410 14b8 09       		.uleb128 0x9
 8411 14b9 A4010000 		.4byte	.LVL247
 8412 14bd 2C0E0000 		.4byte	0xe2c
 8413 14c1 D9140000 		.4byte	0x14d9
 8414 14c5 0A       		.uleb128 0xa
 8415 14c6 01       		.uleb128 0x1
 8416 14c7 50       		.byte	0x50
 8417 14c8 02       		.uleb128 0x2
 8418 14c9 08       		.byte	0x8
 8419 14ca 26       		.byte	0x26
 8420 14cb 0A       		.uleb128 0xa
 8421 14cc 01       		.uleb128 0x1
 8422 14cd 51       		.byte	0x51
 8423 14ce 03       		.uleb128 0x3
 8424 14cf 0A       		.byte	0xa
 8425 14d0 CF5A     		.2byte	0x5acf
 8426 14d2 0A       		.uleb128 0xa
 8427 14d3 01       		.uleb128 0x1
 8428 14d4 52       		.byte	0x52
 8429 14d5 02       		.uleb128 0x2
 8430 14d6 74       		.byte	0x74
 8431 14d7 00       		.sleb128 0
 8432 14d8 00       		.byte	0
 8433 14d9 09       		.uleb128 0x9
 8434 14da AE010000 		.4byte	.LVL248
 8435 14de 2C0E0000 		.4byte	0xe2c
 8436 14e2 FC140000 		.4byte	0x14fc
ARM GAS  C:\Users\Revanth\AppData\Local\Temp\ccSEzD1d.s 			page 194


 8437 14e6 0A       		.uleb128 0xa
 8438 14e7 01       		.uleb128 0x1
 8439 14e8 50       		.byte	0x50
 8440 14e9 02       		.uleb128 0x2
 8441 14ea 08       		.byte	0x8
 8442 14eb 27       		.byte	0x27
 8443 14ec 0A       		.uleb128 0xa
 8444 14ed 01       		.uleb128 0x1
 8445 14ee 51       		.byte	0x51
 8446 14ef 05       		.uleb128 0x5
 8447 14f0 0C       		.byte	0xc
 8448 14f1 C3A50700 		.4byte	0x7a5c3
 8449 14f5 0A       		.uleb128 0xa
 8450 14f6 01       		.uleb128 0x1
 8451 14f7 52       		.byte	0x52
 8452 14f8 02       		.uleb128 0x2
 8453 14f9 74       		.byte	0x74
 8454 14fa 00       		.sleb128 0
 8455 14fb 00       		.byte	0
 8456 14fc 09       		.uleb128 0x9
 8457 14fd BA010000 		.4byte	.LVL249
 8458 1501 2C0E0000 		.4byte	0xe2c
 8459 1505 1D150000 		.4byte	0x151d
 8460 1509 0A       		.uleb128 0xa
 8461 150a 01       		.uleb128 0x1
 8462 150b 50       		.byte	0x50
 8463 150c 02       		.uleb128 0x2
 8464 150d 08       		.byte	0x8
 8465 150e 28       		.byte	0x28
 8466 150f 0A       		.uleb128 0xa
 8467 1510 01       		.uleb128 0x1
 8468 1511 51       		.byte	0x51
 8469 1512 03       		.uleb128 0x3
 8470 1513 0A       		.byte	0xa
 8471 1514 FFFF     		.2byte	0xffff
 8472 1516 0A       		.uleb128 0xa
 8473 1517 01       		.uleb128 0x1
 8474 1518 52       		.byte	0x52
 8475 1519 02       		.uleb128 0x2
 8476 151a 74       		.byte	0x74
 8477 151b 00       		.sleb128 0
 8478 151c 00       		.byte	0
 8479 151d 09       		.uleb128 0x9
 8480 151e C6010000 		.4byte	.LVL250
 8481 1522 2C0E0000 		.4byte	0xe2c
 8482 1526 3E150000 		.4byte	0x153e
 8483 152a 0A       		.uleb128 0xa
 8484 152b 01       		.uleb128 0x1
 8485 152c 50       		.byte	0x50
 8486 152d 02       		.uleb128 0x2
 8487 152e 08       		.byte	0x8
 8488 152f 2A       		.byte	0x2a
 8489 1530 0A       		.uleb128 0xa
 8490 1531 01       		.uleb128 0x1
 8491 1532 51       		.byte	0x51
 8492 1533 03       		.uleb128 0x3
 8493 1534 0A       		.byte	0xa
ARM GAS  C:\Users\Revanth\AppData\Local\Temp\ccSEzD1d.s 			page 195


 8494 1535 FFFF     		.2byte	0xffff
 8495 1537 0A       		.uleb128 0xa
 8496 1538 01       		.uleb128 0x1
 8497 1539 52       		.byte	0x52
 8498 153a 02       		.uleb128 0x2
 8499 153b 74       		.byte	0x74
 8500 153c 00       		.sleb128 0
 8501 153d 00       		.byte	0
 8502 153e 09       		.uleb128 0x9
 8503 153f D2010000 		.4byte	.LVL251
 8504 1543 2C0E0000 		.4byte	0xe2c
 8505 1547 5F150000 		.4byte	0x155f
 8506 154b 0A       		.uleb128 0xa
 8507 154c 01       		.uleb128 0x1
 8508 154d 50       		.byte	0x50
 8509 154e 02       		.uleb128 0x2
 8510 154f 08       		.byte	0x8
 8511 1550 2B       		.byte	0x2b
 8512 1551 0A       		.uleb128 0xa
 8513 1552 01       		.uleb128 0x1
 8514 1553 51       		.byte	0x51
 8515 1554 03       		.uleb128 0x3
 8516 1555 0A       		.byte	0xa
 8517 1556 384A     		.2byte	0x4a38
 8518 1558 0A       		.uleb128 0xa
 8519 1559 01       		.uleb128 0x1
 8520 155a 52       		.byte	0x52
 8521 155b 02       		.uleb128 0x2
 8522 155c 74       		.byte	0x74
 8523 155d 00       		.sleb128 0
 8524 155e 00       		.byte	0
 8525 155f 0B       		.uleb128 0xb
 8526 1560 DC010000 		.4byte	.LVL252
 8527 1564 2C0E0000 		.4byte	0xe2c
 8528 1568 0A       		.uleb128 0xa
 8529 1569 01       		.uleb128 0x1
 8530 156a 50       		.byte	0x50
 8531 156b 02       		.uleb128 0x2
 8532 156c 08       		.byte	0x8
 8533 156d 20       		.byte	0x20
 8534 156e 0A       		.uleb128 0xa
 8535 156f 01       		.uleb128 0x1
 8536 1570 51       		.byte	0x51
 8537 1571 01       		.uleb128 0x1
 8538 1572 30       		.byte	0x30
 8539 1573 0A       		.uleb128 0xa
 8540 1574 01       		.uleb128 0x1
 8541 1575 52       		.byte	0x52
 8542 1576 02       		.uleb128 0x2
 8543 1577 74       		.byte	0x74
 8544 1578 00       		.sleb128 0
 8545 1579 00       		.byte	0
 8546 157a 00       		.byte	0
 8547 157b 17       		.uleb128 0x17
 8548 157c 67070000 		.4byte	.LASF64
 8549 1580 01       		.byte	0x1
 8550 1581 6E06     		.2byte	0x66e
ARM GAS  C:\Users\Revanth\AppData\Local\Temp\ccSEzD1d.s 			page 196


 8551 1583 56090000 		.4byte	0x956
 8552 1587 00000000 		.4byte	.LFB105
 8553 158b 3C000000 		.4byte	.LFE105-.LFB105
 8554 158f 01       		.uleb128 0x1
 8555 1590 9C       		.byte	0x9c
 8556 1591 17160000 		.4byte	0x1617
 8557 1595 0D       		.uleb128 0xd
 8558 1596 4A060000 		.4byte	.LASF54
 8559 159a 01       		.byte	0x1
 8560 159b 6E06     		.2byte	0x66e
 8561 159d 8C000000 		.4byte	0x8c
 8562 15a1 0B040000 		.4byte	.LLST21
 8563 15a5 10       		.uleb128 0x10
 8564 15a6 130B0000 		.4byte	.LASF65
 8565 15aa 01       		.byte	0x1
 8566 15ab 7006     		.2byte	0x670
 8567 15ad 56090000 		.4byte	0x956
 8568 15b1 01       		.uleb128 0x1
 8569 15b2 50       		.byte	0x50
 8570 15b3 09       		.uleb128 0x9
 8571 15b4 0C000000 		.4byte	.LVL255
 8572 15b8 81380000 		.4byte	0x3881
 8573 15bc C8150000 		.4byte	0x15c8
 8574 15c0 0A       		.uleb128 0xa
 8575 15c1 01       		.uleb128 0x1
 8576 15c2 50       		.byte	0x50
 8577 15c3 03       		.uleb128 0x3
 8578 15c4 0A       		.byte	0xa
 8579 15c5 F401     		.2byte	0x1f4
 8580 15c7 00       		.byte	0
 8581 15c8 09       		.uleb128 0x9
 8582 15c9 18000000 		.4byte	.LVL256
 8583 15cd 960B0000 		.4byte	0xb96
 8584 15d1 E7150000 		.4byte	0x15e7
 8585 15d5 0A       		.uleb128 0xa
 8586 15d6 01       		.uleb128 0x1
 8587 15d7 50       		.byte	0x50
 8588 15d8 01       		.uleb128 0x1
 8589 15d9 34       		.byte	0x34
 8590 15da 0A       		.uleb128 0xa
 8591 15db 01       		.uleb128 0x1
 8592 15dc 51       		.byte	0x51
 8593 15dd 02       		.uleb128 0x2
 8594 15de 75       		.byte	0x75
 8595 15df 00       		.sleb128 0
 8596 15e0 0A       		.uleb128 0xa
 8597 15e1 01       		.uleb128 0x1
 8598 15e2 52       		.byte	0x52
 8599 15e3 02       		.uleb128 0x2
 8600 15e4 74       		.byte	0x74
 8601 15e5 00       		.sleb128 0
 8602 15e6 00       		.byte	0
 8603 15e7 09       		.uleb128 0x9
 8604 15e8 1E000000 		.4byte	.LVL257
 8605 15ec 81380000 		.4byte	0x3881
 8606 15f0 FB150000 		.4byte	0x15fb
 8607 15f4 0A       		.uleb128 0xa
ARM GAS  C:\Users\Revanth\AppData\Local\Temp\ccSEzD1d.s 			page 197


 8608 15f5 01       		.uleb128 0x1
 8609 15f6 50       		.byte	0x50
 8610 15f7 02       		.uleb128 0x2
 8611 15f8 08       		.byte	0x8
 8612 15f9 64       		.byte	0x64
 8613 15fa 00       		.byte	0
 8614 15fb 0B       		.uleb128 0xb
 8615 15fc 28000000 		.4byte	.LVL258
 8616 1600 960B0000 		.4byte	0xb96
 8617 1604 0A       		.uleb128 0xa
 8618 1605 01       		.uleb128 0x1
 8619 1606 50       		.byte	0x50
 8620 1607 01       		.uleb128 0x1
 8621 1608 34       		.byte	0x34
 8622 1609 0A       		.uleb128 0xa
 8623 160a 01       		.uleb128 0x1
 8624 160b 51       		.byte	0x51
 8625 160c 02       		.uleb128 0x2
 8626 160d 75       		.byte	0x75
 8627 160e 00       		.sleb128 0
 8628 160f 0A       		.uleb128 0xa
 8629 1610 01       		.uleb128 0x1
 8630 1611 52       		.byte	0x52
 8631 1612 02       		.uleb128 0x2
 8632 1613 74       		.byte	0x74
 8633 1614 00       		.sleb128 0
 8634 1615 00       		.byte	0
 8635 1616 00       		.byte	0
 8636 1617 17       		.uleb128 0x17
 8637 1618 08070000 		.4byte	.LASF66
 8638 161c 01       		.byte	0x1
 8639 161d 8206     		.2byte	0x682
 8640 161f 7E000000 		.4byte	0x7e
 8641 1623 00000000 		.4byte	.LFB106
 8642 1627 54000000 		.4byte	.LFE106-.LFB106
 8643 162b 01       		.uleb128 0x1
 8644 162c 9C       		.byte	0x9c
 8645 162d F5160000 		.4byte	0x16f5
 8646 1631 0D       		.uleb128 0xd
 8647 1632 4A060000 		.4byte	.LASF54
 8648 1636 01       		.byte	0x1
 8649 1637 8206     		.2byte	0x682
 8650 1639 8C000000 		.4byte	0x8c
 8651 163d 2C040000 		.4byte	.LLST22
 8652 1641 10       		.uleb128 0x10
 8653 1642 39000000 		.4byte	.LASF67
 8654 1646 01       		.byte	0x1
 8655 1647 8406     		.2byte	0x684
 8656 1649 8C000000 		.4byte	0x8c
 8657 164d 02       		.uleb128 0x2
 8658 164e 91       		.byte	0x91
 8659 164f 6F       		.sleb128 -17
 8660 1650 1C       		.uleb128 0x1c
 8661 1651 130B0000 		.4byte	.LASF65
 8662 1655 01       		.byte	0x1
 8663 1656 8506     		.2byte	0x685
 8664 1658 56090000 		.4byte	0x956
ARM GAS  C:\Users\Revanth\AppData\Local\Temp\ccSEzD1d.s 			page 198


 8665 165c 00       		.byte	0
 8666 165d 09       		.uleb128 0x9
 8667 165e 16000000 		.4byte	.LVL263
 8668 1662 81380000 		.4byte	0x3881
 8669 1666 72160000 		.4byte	0x1672
 8670 166a 0A       		.uleb128 0xa
 8671 166b 01       		.uleb128 0x1
 8672 166c 50       		.byte	0x50
 8673 166d 03       		.uleb128 0x3
 8674 166e 0A       		.byte	0xa
 8675 166f F401     		.2byte	0x1f4
 8676 1671 00       		.byte	0
 8677 1672 09       		.uleb128 0x9
 8678 1673 20000000 		.4byte	.LVL264
 8679 1677 960B0000 		.4byte	0xb96
 8680 167b 91160000 		.4byte	0x1691
 8681 167f 0A       		.uleb128 0xa
 8682 1680 01       		.uleb128 0x1
 8683 1681 50       		.byte	0x50
 8684 1682 01       		.uleb128 0x1
 8685 1683 34       		.byte	0x34
 8686 1684 0A       		.uleb128 0xa
 8687 1685 01       		.uleb128 0x1
 8688 1686 51       		.byte	0x51
 8689 1687 02       		.uleb128 0x2
 8690 1688 74       		.byte	0x74
 8691 1689 00       		.sleb128 0
 8692 168a 0A       		.uleb128 0xa
 8693 168b 01       		.uleb128 0x1
 8694 168c 52       		.byte	0x52
 8695 168d 02       		.uleb128 0x2
 8696 168e 75       		.byte	0x75
 8697 168f 00       		.sleb128 0
 8698 1690 00       		.byte	0
 8699 1691 09       		.uleb128 0x9
 8700 1692 26000000 		.4byte	.LVL265
 8701 1696 81380000 		.4byte	0x3881
 8702 169a A5160000 		.4byte	0x16a5
 8703 169e 0A       		.uleb128 0xa
 8704 169f 01       		.uleb128 0x1
 8705 16a0 50       		.byte	0x50
 8706 16a1 02       		.uleb128 0x2
 8707 16a2 08       		.byte	0x8
 8708 16a3 64       		.byte	0x64
 8709 16a4 00       		.byte	0
 8710 16a5 09       		.uleb128 0x9
 8711 16a6 30000000 		.4byte	.LVL266
 8712 16aa 960B0000 		.4byte	0xb96
 8713 16ae C4160000 		.4byte	0x16c4
 8714 16b2 0A       		.uleb128 0xa
 8715 16b3 01       		.uleb128 0x1
 8716 16b4 50       		.byte	0x50
 8717 16b5 01       		.uleb128 0x1
 8718 16b6 34       		.byte	0x34
 8719 16b7 0A       		.uleb128 0xa
 8720 16b8 01       		.uleb128 0x1
 8721 16b9 51       		.byte	0x51
ARM GAS  C:\Users\Revanth\AppData\Local\Temp\ccSEzD1d.s 			page 199


 8722 16ba 02       		.uleb128 0x2
 8723 16bb 74       		.byte	0x74
 8724 16bc 00       		.sleb128 0
 8725 16bd 0A       		.uleb128 0xa
 8726 16be 01       		.uleb128 0x1
 8727 16bf 52       		.byte	0x52
 8728 16c0 02       		.uleb128 0x2
 8729 16c1 75       		.byte	0x75
 8730 16c2 00       		.sleb128 0
 8731 16c3 00       		.byte	0
 8732 16c4 09       		.uleb128 0x9
 8733 16c5 3E000000 		.4byte	.LVL267
 8734 16c9 960B0000 		.4byte	0xb96
 8735 16cd E4160000 		.4byte	0x16e4
 8736 16d1 0A       		.uleb128 0xa
 8737 16d2 01       		.uleb128 0x1
 8738 16d3 50       		.byte	0x50
 8739 16d4 02       		.uleb128 0x2
 8740 16d5 08       		.byte	0x8
 8741 16d6 21       		.byte	0x21
 8742 16d7 0A       		.uleb128 0xa
 8743 16d8 01       		.uleb128 0x1
 8744 16d9 51       		.byte	0x51
 8745 16da 02       		.uleb128 0x2
 8746 16db 74       		.byte	0x74
 8747 16dc 00       		.sleb128 0
 8748 16dd 0A       		.uleb128 0xa
 8749 16de 01       		.uleb128 0x1
 8750 16df 52       		.byte	0x52
 8751 16e0 02       		.uleb128 0x2
 8752 16e1 91       		.byte	0x91
 8753 16e2 6F       		.sleb128 -17
 8754 16e3 00       		.byte	0
 8755 16e4 0B       		.uleb128 0xb
 8756 16e5 44000000 		.4byte	.LVL268
 8757 16e9 81380000 		.4byte	0x3881
 8758 16ed 0A       		.uleb128 0xa
 8759 16ee 01       		.uleb128 0x1
 8760 16ef 50       		.byte	0x50
 8761 16f0 02       		.uleb128 0x2
 8762 16f1 08       		.byte	0x8
 8763 16f2 64       		.byte	0x64
 8764 16f3 00       		.byte	0
 8765 16f4 00       		.byte	0
 8766 16f5 1D       		.uleb128 0x1d
 8767 16f6 C00B0000 		.4byte	.LASF68
 8768 16fa 01       		.byte	0x1
 8769 16fb 7C01     		.2byte	0x17c
 8770 16fd 7E000000 		.4byte	0x7e
 8771 1701 00000000 		.4byte	.LFB70
 8772 1705 E8000000 		.4byte	.LFE70-.LFB70
 8773 1709 01       		.uleb128 0x1
 8774 170a 9C       		.byte	0x9c
 8775 170b 54180000 		.4byte	0x1854
 8776 170f 0D       		.uleb128 0xd
 8777 1710 2C0C0000 		.4byte	.LASF27
 8778 1714 01       		.byte	0x1
ARM GAS  C:\Users\Revanth\AppData\Local\Temp\ccSEzD1d.s 			page 200


 8779 1715 7C01     		.2byte	0x17c
 8780 1717 FA000000 		.4byte	0xfa
 8781 171b 4D040000 		.4byte	.LLST23
 8782 171f 18       		.uleb128 0x18
 8783 1720 420A0000 		.4byte	.LASF69
 8784 1724 01       		.byte	0x1
 8785 1725 7E01     		.2byte	0x17e
 8786 1727 FA000000 		.4byte	0xfa
 8787 172b 79040000 		.4byte	.LLST24
 8788 172f 18       		.uleb128 0x18
 8789 1730 9F000000 		.4byte	.LASF70
 8790 1734 01       		.byte	0x1
 8791 1735 7F01     		.2byte	0x17f
 8792 1737 8C000000 		.4byte	0x8c
 8793 173b A3040000 		.4byte	.LLST25
 8794 173f 18       		.uleb128 0x18
 8795 1740 390A0000 		.4byte	.LASF71
 8796 1744 01       		.byte	0x1
 8797 1745 8001     		.2byte	0x180
 8798 1747 FA000000 		.4byte	0xfa
 8799 174b CD040000 		.4byte	.LLST26
 8800 174f 18       		.uleb128 0x18
 8801 1750 CC090000 		.4byte	.LASF72
 8802 1754 01       		.byte	0x1
 8803 1755 8201     		.2byte	0x182
 8804 1757 FA000000 		.4byte	0xfa
 8805 175b 07050000 		.4byte	.LLST27
 8806 175f 08       		.uleb128 0x8
 8807 1760 20000000 		.4byte	.LVL276
 8808 1764 04030000 		.4byte	0x304
 8809 1768 09       		.uleb128 0x9
 8810 1769 4C000000 		.4byte	.LVL284
 8811 176d 170F0000 		.4byte	0xf17
 8812 1771 7B170000 		.4byte	0x177b
 8813 1775 0A       		.uleb128 0xa
 8814 1776 01       		.uleb128 0x1
 8815 1777 51       		.byte	0x51
 8816 1778 01       		.uleb128 0x1
 8817 1779 30       		.byte	0x30
 8818 177a 00       		.byte	0
 8819 177b 09       		.uleb128 0x9
 8820 177c 52000000 		.4byte	.LVL285
 8821 1780 17160000 		.4byte	0x1617
 8822 1784 8E170000 		.4byte	0x178e
 8823 1788 0A       		.uleb128 0xa
 8824 1789 01       		.uleb128 0x1
 8825 178a 50       		.byte	0x50
 8826 178b 01       		.uleb128 0x1
 8827 178c 30       		.byte	0x30
 8828 178d 00       		.byte	0
 8829 178e 09       		.uleb128 0x9
 8830 178f 58000000 		.4byte	.LVL286
 8831 1793 81380000 		.4byte	0x3881
 8832 1797 A2170000 		.4byte	0x17a2
 8833 179b 0A       		.uleb128 0xa
 8834 179c 01       		.uleb128 0x1
 8835 179d 50       		.byte	0x50
ARM GAS  C:\Users\Revanth\AppData\Local\Temp\ccSEzD1d.s 			page 201


 8836 179e 02       		.uleb128 0x2
 8837 179f 08       		.byte	0x8
 8838 17a0 32       		.byte	0x32
 8839 17a1 00       		.byte	0
 8840 17a2 09       		.uleb128 0x9
 8841 17a3 62000000 		.4byte	.LVL287
 8842 17a7 2C0E0000 		.4byte	0xe2c
 8843 17ab C1170000 		.4byte	0x17c1
 8844 17af 0A       		.uleb128 0xa
 8845 17b0 01       		.uleb128 0x1
 8846 17b1 50       		.byte	0x50
 8847 17b2 02       		.uleb128 0x2
 8848 17b3 08       		.byte	0x8
 8849 17b4 21       		.byte	0x21
 8850 17b5 0A       		.uleb128 0xa
 8851 17b6 01       		.uleb128 0x1
 8852 17b7 51       		.byte	0x51
 8853 17b8 02       		.uleb128 0x2
 8854 17b9 77       		.byte	0x77
 8855 17ba 00       		.sleb128 0
 8856 17bb 0A       		.uleb128 0xa
 8857 17bc 01       		.uleb128 0x1
 8858 17bd 52       		.byte	0x52
 8859 17be 01       		.uleb128 0x1
 8860 17bf 30       		.byte	0x30
 8861 17c0 00       		.byte	0
 8862 17c1 08       		.uleb128 0x8
 8863 17c2 6E000000 		.4byte	.LVL290
 8864 17c6 04030000 		.4byte	0x304
 8865 17ca 09       		.uleb128 0x9
 8866 17cb 88000000 		.4byte	.LVL293
 8867 17cf CB030000 		.4byte	0x3cb
 8868 17d3 E1170000 		.4byte	0x17e1
 8869 17d7 0A       		.uleb128 0xa
 8870 17d8 01       		.uleb128 0x1
 8871 17d9 50       		.byte	0x50
 8872 17da 05       		.uleb128 0x5
 8873 17db 03       		.byte	0x3
 8874 17dc 94020000 		.4byte	.LC20
 8875 17e0 00       		.byte	0
 8876 17e1 09       		.uleb128 0x9
 8877 17e2 8E000000 		.4byte	.LVL294
 8878 17e6 35390000 		.4byte	0x3935
 8879 17ea F5170000 		.4byte	0x17f5
 8880 17ee 0A       		.uleb128 0xa
 8881 17ef 01       		.uleb128 0x1
 8882 17f0 50       		.byte	0x50
 8883 17f1 02       		.uleb128 0x2
 8884 17f2 09       		.byte	0x9
 8885 17f3 FF       		.byte	0xff
 8886 17f4 00       		.byte	0
 8887 17f5 09       		.uleb128 0x9
 8888 17f6 A2000000 		.4byte	.LVL295
 8889 17fa CB030000 		.4byte	0x3cb
 8890 17fe 0C180000 		.4byte	0x180c
 8891 1802 0A       		.uleb128 0xa
 8892 1803 01       		.uleb128 0x1
ARM GAS  C:\Users\Revanth\AppData\Local\Temp\ccSEzD1d.s 			page 202


 8893 1804 50       		.byte	0x50
 8894 1805 05       		.uleb128 0x5
 8895 1806 03       		.byte	0x3
 8896 1807 B0020000 		.4byte	.LC21
 8897 180b 00       		.byte	0
 8898 180c 09       		.uleb128 0x9
 8899 180d B0000000 		.4byte	.LVL296
 8900 1811 CB030000 		.4byte	0x3cb
 8901 1815 23180000 		.4byte	0x1823
 8902 1819 0A       		.uleb128 0xa
 8903 181a 01       		.uleb128 0x1
 8904 181b 50       		.byte	0x50
 8905 181c 05       		.uleb128 0x5
 8906 181d 03       		.byte	0x3
 8907 181e E0020000 		.4byte	.LC22
 8908 1822 00       		.byte	0
 8909 1823 09       		.uleb128 0x9
 8910 1824 BE000000 		.4byte	.LVL297
 8911 1828 2C0E0000 		.4byte	0xe2c
 8912 182c 42180000 		.4byte	0x1842
 8913 1830 0A       		.uleb128 0xa
 8914 1831 01       		.uleb128 0x1
 8915 1832 50       		.byte	0x50
 8916 1833 02       		.uleb128 0x2
 8917 1834 08       		.byte	0x8
 8918 1835 21       		.byte	0x21
 8919 1836 0A       		.uleb128 0xa
 8920 1837 01       		.uleb128 0x1
 8921 1838 51       		.byte	0x51
 8922 1839 02       		.uleb128 0x2
 8923 183a 77       		.byte	0x77
 8924 183b 00       		.sleb128 0
 8925 183c 0A       		.uleb128 0xa
 8926 183d 01       		.uleb128 0x1
 8927 183e 52       		.byte	0x52
 8928 183f 01       		.uleb128 0x1
 8929 1840 30       		.byte	0x30
 8930 1841 00       		.byte	0
 8931 1842 0B       		.uleb128 0xb
 8932 1843 C6000000 		.4byte	.LVL298
 8933 1847 81380000 		.4byte	0x3881
 8934 184b 0A       		.uleb128 0xa
 8935 184c 01       		.uleb128 0x1
 8936 184d 50       		.byte	0x50
 8937 184e 03       		.uleb128 0x3
 8938 184f 0A       		.byte	0xa
 8939 1850 F401     		.2byte	0x1f4
 8940 1852 00       		.byte	0
 8941 1853 00       		.byte	0
 8942 1854 17       		.uleb128 0x17
 8943 1855 EC050000 		.4byte	.LASF73
 8944 1859 01       		.byte	0x1
 8945 185a 5F01     		.2byte	0x15f
 8946 185c 7E000000 		.4byte	0x7e
 8947 1860 00000000 		.4byte	.LFB69
 8948 1864 64000000 		.4byte	.LFE69-.LFB69
 8949 1868 01       		.uleb128 0x1
ARM GAS  C:\Users\Revanth\AppData\Local\Temp\ccSEzD1d.s 			page 203


 8950 1869 9C       		.byte	0x9c
 8951 186a 3C190000 		.4byte	0x193c
 8952 186e 0D       		.uleb128 0xd
 8953 186f 1A0A0000 		.4byte	.LASF74
 8954 1873 01       		.byte	0x1
 8955 1874 5F01     		.2byte	0x15f
 8956 1876 FA000000 		.4byte	0xfa
 8957 187a 31050000 		.4byte	.LLST28
 8958 187e 08       		.uleb128 0x8
 8959 187f 08000000 		.4byte	.LVL301
 8960 1883 DB080000 		.4byte	0x8db
 8961 1887 08       		.uleb128 0x8
 8962 1888 14000000 		.4byte	.LVL302
 8963 188c 04030000 		.4byte	0x304
 8964 1890 09       		.uleb128 0x9
 8965 1891 1A000000 		.4byte	.LVL303
 8966 1895 CB030000 		.4byte	0x3cb
 8967 1899 A7180000 		.4byte	0x18a7
 8968 189d 0A       		.uleb128 0xa
 8969 189e 01       		.uleb128 0x1
 8970 189f 50       		.byte	0x50
 8971 18a0 05       		.uleb128 0x5
 8972 18a1 03       		.byte	0x3
 8973 18a2 F4020000 		.4byte	.LC23
 8974 18a6 00       		.byte	0
 8975 18a7 09       		.uleb128 0x9
 8976 18a8 22000000 		.4byte	.LVL304
 8977 18ac 170F0000 		.4byte	0xf17
 8978 18b0 C1180000 		.4byte	0x18c1
 8979 18b4 0A       		.uleb128 0xa
 8980 18b5 01       		.uleb128 0x1
 8981 18b6 50       		.byte	0x50
 8982 18b7 02       		.uleb128 0x2
 8983 18b8 74       		.byte	0x74
 8984 18b9 00       		.sleb128 0
 8985 18ba 0A       		.uleb128 0xa
 8986 18bb 01       		.uleb128 0x1
 8987 18bc 51       		.byte	0x51
 8988 18bd 02       		.uleb128 0x2
 8989 18be 75       		.byte	0x75
 8990 18bf 00       		.sleb128 0
 8991 18c0 00       		.byte	0
 8992 18c1 09       		.uleb128 0x9
 8993 18c2 28000000 		.4byte	.LVL305
 8994 18c6 17160000 		.4byte	0x1617
 8995 18ca D5180000 		.4byte	0x18d5
 8996 18ce 0A       		.uleb128 0xa
 8997 18cf 01       		.uleb128 0x1
 8998 18d0 50       		.byte	0x50
 8999 18d1 02       		.uleb128 0x2
 9000 18d2 75       		.byte	0x75
 9001 18d3 00       		.sleb128 0
 9002 18d4 00       		.byte	0
 9003 18d5 09       		.uleb128 0x9
 9004 18d6 2E000000 		.4byte	.LVL306
 9005 18da 81380000 		.4byte	0x3881
 9006 18de E9180000 		.4byte	0x18e9
ARM GAS  C:\Users\Revanth\AppData\Local\Temp\ccSEzD1d.s 			page 204


 9007 18e2 0A       		.uleb128 0xa
 9008 18e3 01       		.uleb128 0x1
 9009 18e4 50       		.byte	0x50
 9010 18e5 02       		.uleb128 0x2
 9011 18e6 08       		.byte	0x8
 9012 18e7 32       		.byte	0x32
 9013 18e8 00       		.byte	0
 9014 18e9 09       		.uleb128 0x9
 9015 18ea 34000000 		.4byte	.LVL307
 9016 18ee 10070000 		.4byte	0x710
 9017 18f2 FD180000 		.4byte	0x18fd
 9018 18f6 0A       		.uleb128 0xa
 9019 18f7 01       		.uleb128 0x1
 9020 18f8 50       		.byte	0x50
 9021 18f9 02       		.uleb128 0x2
 9022 18fa 74       		.byte	0x74
 9023 18fb 00       		.sleb128 0
 9024 18fc 00       		.byte	0
 9025 18fd 09       		.uleb128 0x9
 9026 18fe 3A000000 		.4byte	.LVL308
 9027 1902 CB030000 		.4byte	0x3cb
 9028 1906 14190000 		.4byte	0x1914
 9029 190a 0A       		.uleb128 0xa
 9030 190b 01       		.uleb128 0x1
 9031 190c 50       		.byte	0x50
 9032 190d 05       		.uleb128 0x5
 9033 190e 03       		.byte	0x3
 9034 190f 10030000 		.4byte	.LC24
 9035 1913 00       		.byte	0
 9036 1914 09       		.uleb128 0x9
 9037 1915 40000000 		.4byte	.LVL309
 9038 1919 F5160000 		.4byte	0x16f5
 9039 191d 28190000 		.4byte	0x1928
 9040 1921 0A       		.uleb128 0xa
 9041 1922 01       		.uleb128 0x1
 9042 1923 50       		.byte	0x50
 9043 1924 02       		.uleb128 0x2
 9044 1925 74       		.byte	0x74
 9045 1926 00       		.sleb128 0
 9046 1927 00       		.byte	0
 9047 1928 0B       		.uleb128 0xb
 9048 1929 4A000000 		.4byte	.LVL311
 9049 192d CB030000 		.4byte	0x3cb
 9050 1931 0A       		.uleb128 0xa
 9051 1932 01       		.uleb128 0x1
 9052 1933 50       		.byte	0x50
 9053 1934 05       		.uleb128 0x5
 9054 1935 03       		.byte	0x3
 9055 1936 18030000 		.4byte	.LC25
 9056 193a 00       		.byte	0
 9057 193b 00       		.byte	0
 9058 193c 1D       		.uleb128 0x1d
 9059 193d D20B0000 		.4byte	.LASF75
 9060 1941 01       		.byte	0x1
 9061 1942 D101     		.2byte	0x1d1
 9062 1944 7E000000 		.4byte	0x7e
 9063 1948 00000000 		.4byte	.LFB72
ARM GAS  C:\Users\Revanth\AppData\Local\Temp\ccSEzD1d.s 			page 205


 9064 194c D0000000 		.4byte	.LFE72-.LFB72
 9065 1950 01       		.uleb128 0x1
 9066 1951 9C       		.byte	0x9c
 9067 1952 671A0000 		.4byte	0x1a67
 9068 1956 0D       		.uleb128 0xd
 9069 1957 2C0C0000 		.4byte	.LASF27
 9070 195b 01       		.byte	0x1
 9071 195c D101     		.2byte	0x1d1
 9072 195e FA000000 		.4byte	0xfa
 9073 1962 5D050000 		.4byte	.LLST29
 9074 1966 18       		.uleb128 0x18
 9075 1967 9F000000 		.4byte	.LASF70
 9076 196b 01       		.byte	0x1
 9077 196c D301     		.2byte	0x1d3
 9078 196e 8C000000 		.4byte	0x8c
 9079 1972 89050000 		.4byte	.LLST30
 9080 1976 18       		.uleb128 0x18
 9081 1977 390A0000 		.4byte	.LASF71
 9082 197b 01       		.byte	0x1
 9083 197c D401     		.2byte	0x1d4
 9084 197e FA000000 		.4byte	0xfa
 9085 1982 B3050000 		.4byte	.LLST31
 9086 1986 18       		.uleb128 0x18
 9087 1987 EB060000 		.4byte	.LASF76
 9088 198b 01       		.byte	0x1
 9089 198c D501     		.2byte	0x1d5
 9090 198e FA000000 		.4byte	0xfa
 9091 1992 ED050000 		.4byte	.LLST32
 9092 1996 18       		.uleb128 0x18
 9093 1997 CC090000 		.4byte	.LASF72
 9094 199b 01       		.byte	0x1
 9095 199c D701     		.2byte	0x1d7
 9096 199e FA000000 		.4byte	0xfa
 9097 19a2 17060000 		.4byte	.LLST33
 9098 19a6 08       		.uleb128 0x8
 9099 19a7 20000000 		.4byte	.LVL320
 9100 19ab 04030000 		.4byte	0x304
 9101 19af 09       		.uleb128 0x9
 9102 19b0 4C000000 		.4byte	.LVL328
 9103 19b4 170F0000 		.4byte	0xf17
 9104 19b8 C2190000 		.4byte	0x19c2
 9105 19bc 0A       		.uleb128 0xa
 9106 19bd 01       		.uleb128 0x1
 9107 19be 51       		.byte	0x51
 9108 19bf 01       		.uleb128 0x1
 9109 19c0 31       		.byte	0x31
 9110 19c1 00       		.byte	0
 9111 19c2 09       		.uleb128 0x9
 9112 19c3 52000000 		.4byte	.LVL329
 9113 19c7 17160000 		.4byte	0x1617
 9114 19cb D5190000 		.4byte	0x19d5
 9115 19cf 0A       		.uleb128 0xa
 9116 19d0 01       		.uleb128 0x1
 9117 19d1 50       		.byte	0x50
 9118 19d2 01       		.uleb128 0x1
 9119 19d3 31       		.byte	0x31
 9120 19d4 00       		.byte	0
ARM GAS  C:\Users\Revanth\AppData\Local\Temp\ccSEzD1d.s 			page 206


 9121 19d5 09       		.uleb128 0x9
 9122 19d6 58000000 		.4byte	.LVL330
 9123 19da 81380000 		.4byte	0x3881
 9124 19de E9190000 		.4byte	0x19e9
 9125 19e2 0A       		.uleb128 0xa
 9126 19e3 01       		.uleb128 0x1
 9127 19e4 50       		.byte	0x50
 9128 19e5 02       		.uleb128 0x2
 9129 19e6 08       		.byte	0x8
 9130 19e7 32       		.byte	0x32
 9131 19e8 00       		.byte	0
 9132 19e9 09       		.uleb128 0x9
 9133 19ea 62000000 		.4byte	.LVL331
 9134 19ee 2C0E0000 		.4byte	0xe2c
 9135 19f2 081A0000 		.4byte	0x1a08
 9136 19f6 0A       		.uleb128 0xa
 9137 19f7 01       		.uleb128 0x1
 9138 19f8 50       		.byte	0x50
 9139 19f9 02       		.uleb128 0x2
 9140 19fa 08       		.byte	0x8
 9141 19fb 21       		.byte	0x21
 9142 19fc 0A       		.uleb128 0xa
 9143 19fd 01       		.uleb128 0x1
 9144 19fe 51       		.byte	0x51
 9145 19ff 02       		.uleb128 0x2
 9146 1a00 77       		.byte	0x77
 9147 1a01 00       		.sleb128 0
 9148 1a02 0A       		.uleb128 0xa
 9149 1a03 01       		.uleb128 0x1
 9150 1a04 52       		.byte	0x52
 9151 1a05 01       		.uleb128 0x1
 9152 1a06 31       		.byte	0x31
 9153 1a07 00       		.byte	0
 9154 1a08 08       		.uleb128 0x8
 9155 1a09 6E000000 		.4byte	.LVL334
 9156 1a0d 04030000 		.4byte	0x304
 9157 1a11 09       		.uleb128 0x9
 9158 1a12 88000000 		.4byte	.LVL337
 9159 1a16 CB030000 		.4byte	0x3cb
 9160 1a1a 281A0000 		.4byte	0x1a28
 9161 1a1e 0A       		.uleb128 0xa
 9162 1a1f 01       		.uleb128 0x1
 9163 1a20 50       		.byte	0x50
 9164 1a21 05       		.uleb128 0x5
 9165 1a22 03       		.byte	0x3
 9166 1a23 28030000 		.4byte	.LC26
 9167 1a27 00       		.byte	0
 9168 1a28 09       		.uleb128 0x9
 9169 1a29 8E000000 		.4byte	.LVL338
 9170 1a2d 35390000 		.4byte	0x3935
 9171 1a31 3C1A0000 		.4byte	0x1a3c
 9172 1a35 0A       		.uleb128 0xa
 9173 1a36 01       		.uleb128 0x1
 9174 1a37 50       		.byte	0x50
 9175 1a38 02       		.uleb128 0x2
 9176 1a39 09       		.byte	0x9
 9177 1a3a FF       		.byte	0xff
ARM GAS  C:\Users\Revanth\AppData\Local\Temp\ccSEzD1d.s 			page 207


 9178 1a3b 00       		.byte	0
 9179 1a3c 09       		.uleb128 0x9
 9180 1a3d A2000000 		.4byte	.LVL339
 9181 1a41 CB030000 		.4byte	0x3cb
 9182 1a45 531A0000 		.4byte	0x1a53
 9183 1a49 0A       		.uleb128 0xa
 9184 1a4a 01       		.uleb128 0x1
 9185 1a4b 50       		.byte	0x50
 9186 1a4c 05       		.uleb128 0x5
 9187 1a4d 03       		.byte	0x3
 9188 1a4e 44030000 		.4byte	.LC27
 9189 1a52 00       		.byte	0
 9190 1a53 0B       		.uleb128 0xb
 9191 1a54 AA000000 		.4byte	.LVL340
 9192 1a58 CB030000 		.4byte	0x3cb
 9193 1a5c 0A       		.uleb128 0xa
 9194 1a5d 01       		.uleb128 0x1
 9195 1a5e 50       		.byte	0x50
 9196 1a5f 05       		.uleb128 0x5
 9197 1a60 03       		.byte	0x3
 9198 1a61 74030000 		.4byte	.LC28
 9199 1a65 00       		.byte	0
 9200 1a66 00       		.byte	0
 9201 1a67 17       		.uleb128 0x17
 9202 1a68 F3050000 		.4byte	.LASF77
 9203 1a6c 01       		.byte	0x1
 9204 1a6d B701     		.2byte	0x1b7
 9205 1a6f 7E000000 		.4byte	0x7e
 9206 1a73 00000000 		.4byte	.LFB71
 9207 1a77 64000000 		.4byte	.LFE71-.LFB71
 9208 1a7b 01       		.uleb128 0x1
 9209 1a7c 9C       		.byte	0x9c
 9210 1a7d 4D1B0000 		.4byte	0x1b4d
 9211 1a81 0D       		.uleb128 0xd
 9212 1a82 F2020000 		.4byte	.LASF78
 9213 1a86 01       		.byte	0x1
 9214 1a87 B701     		.2byte	0x1b7
 9215 1a89 FA000000 		.4byte	0xfa
 9216 1a8d 41060000 		.4byte	.LLST34
 9217 1a91 08       		.uleb128 0x8
 9218 1a92 08000000 		.4byte	.LVL343
 9219 1a96 DB080000 		.4byte	0x8db
 9220 1a9a 08       		.uleb128 0x8
 9221 1a9b 14000000 		.4byte	.LVL344
 9222 1a9f 04030000 		.4byte	0x304
 9223 1aa3 09       		.uleb128 0x9
 9224 1aa4 1A000000 		.4byte	.LVL345
 9225 1aa8 CB030000 		.4byte	0x3cb
 9226 1aac BA1A0000 		.4byte	0x1aba
 9227 1ab0 0A       		.uleb128 0xa
 9228 1ab1 01       		.uleb128 0x1
 9229 1ab2 50       		.byte	0x50
 9230 1ab3 05       		.uleb128 0x5
 9231 1ab4 03       		.byte	0x3
 9232 1ab5 F4020000 		.4byte	.LC23
 9233 1ab9 00       		.byte	0
 9234 1aba 09       		.uleb128 0x9
ARM GAS  C:\Users\Revanth\AppData\Local\Temp\ccSEzD1d.s 			page 208


 9235 1abb 22000000 		.4byte	.LVL346
 9236 1abf 170F0000 		.4byte	0xf17
 9237 1ac3 D31A0000 		.4byte	0x1ad3
 9238 1ac7 0A       		.uleb128 0xa
 9239 1ac8 01       		.uleb128 0x1
 9240 1ac9 50       		.byte	0x50
 9241 1aca 02       		.uleb128 0x2
 9242 1acb 74       		.byte	0x74
 9243 1acc 00       		.sleb128 0
 9244 1acd 0A       		.uleb128 0xa
 9245 1ace 01       		.uleb128 0x1
 9246 1acf 51       		.byte	0x51
 9247 1ad0 01       		.uleb128 0x1
 9248 1ad1 31       		.byte	0x31
 9249 1ad2 00       		.byte	0
 9250 1ad3 09       		.uleb128 0x9
 9251 1ad4 28000000 		.4byte	.LVL347
 9252 1ad8 17160000 		.4byte	0x1617
 9253 1adc E61A0000 		.4byte	0x1ae6
 9254 1ae0 0A       		.uleb128 0xa
 9255 1ae1 01       		.uleb128 0x1
 9256 1ae2 50       		.byte	0x50
 9257 1ae3 01       		.uleb128 0x1
 9258 1ae4 31       		.byte	0x31
 9259 1ae5 00       		.byte	0
 9260 1ae6 09       		.uleb128 0x9
 9261 1ae7 2E000000 		.4byte	.LVL348
 9262 1aeb 81380000 		.4byte	0x3881
 9263 1aef FA1A0000 		.4byte	0x1afa
 9264 1af3 0A       		.uleb128 0xa
 9265 1af4 01       		.uleb128 0x1
 9266 1af5 50       		.byte	0x50
 9267 1af6 02       		.uleb128 0x2
 9268 1af7 08       		.byte	0x8
 9269 1af8 32       		.byte	0x32
 9270 1af9 00       		.byte	0
 9271 1afa 09       		.uleb128 0x9
 9272 1afb 34000000 		.4byte	.LVL349
 9273 1aff 10070000 		.4byte	0x710
 9274 1b03 0E1B0000 		.4byte	0x1b0e
 9275 1b07 0A       		.uleb128 0xa
 9276 1b08 01       		.uleb128 0x1
 9277 1b09 50       		.byte	0x50
 9278 1b0a 02       		.uleb128 0x2
 9279 1b0b 74       		.byte	0x74
 9280 1b0c 00       		.sleb128 0
 9281 1b0d 00       		.byte	0
 9282 1b0e 09       		.uleb128 0x9
 9283 1b0f 3A000000 		.4byte	.LVL350
 9284 1b13 CB030000 		.4byte	0x3cb
 9285 1b17 251B0000 		.4byte	0x1b25
 9286 1b1b 0A       		.uleb128 0xa
 9287 1b1c 01       		.uleb128 0x1
 9288 1b1d 50       		.byte	0x50
 9289 1b1e 05       		.uleb128 0x5
 9290 1b1f 03       		.byte	0x3
 9291 1b20 10030000 		.4byte	.LC24
ARM GAS  C:\Users\Revanth\AppData\Local\Temp\ccSEzD1d.s 			page 209


 9292 1b24 00       		.byte	0
 9293 1b25 09       		.uleb128 0x9
 9294 1b26 40000000 		.4byte	.LVL351
 9295 1b2a 3C190000 		.4byte	0x193c
 9296 1b2e 391B0000 		.4byte	0x1b39
 9297 1b32 0A       		.uleb128 0xa
 9298 1b33 01       		.uleb128 0x1
 9299 1b34 50       		.byte	0x50
 9300 1b35 02       		.uleb128 0x2
 9301 1b36 74       		.byte	0x74
 9302 1b37 00       		.sleb128 0
 9303 1b38 00       		.byte	0
 9304 1b39 0B       		.uleb128 0xb
 9305 1b3a 4A000000 		.4byte	.LVL353
 9306 1b3e CB030000 		.4byte	0x3cb
 9307 1b42 0A       		.uleb128 0xa
 9308 1b43 01       		.uleb128 0x1
 9309 1b44 50       		.byte	0x50
 9310 1b45 05       		.uleb128 0x5
 9311 1b46 03       		.byte	0x3
 9312 1b47 18030000 		.4byte	.LC25
 9313 1b4b 00       		.byte	0
 9314 1b4c 00       		.byte	0
 9315 1b4d 1D       		.uleb128 0x1d
 9316 1b4e E40B0000 		.4byte	.LASF79
 9317 1b52 01       		.byte	0x1
 9318 1b53 2B02     		.2byte	0x22b
 9319 1b55 7E000000 		.4byte	0x7e
 9320 1b59 00000000 		.4byte	.LFB74
 9321 1b5d D0000000 		.4byte	.LFE74-.LFB74
 9322 1b61 01       		.uleb128 0x1
 9323 1b62 9C       		.byte	0x9c
 9324 1b63 781C0000 		.4byte	0x1c78
 9325 1b67 0D       		.uleb128 0xd
 9326 1b68 2C0C0000 		.4byte	.LASF27
 9327 1b6c 01       		.byte	0x1
 9328 1b6d 2B02     		.2byte	0x22b
 9329 1b6f FA000000 		.4byte	0xfa
 9330 1b73 6D060000 		.4byte	.LLST35
 9331 1b77 18       		.uleb128 0x18
 9332 1b78 9F000000 		.4byte	.LASF70
 9333 1b7c 01       		.byte	0x1
 9334 1b7d 2D02     		.2byte	0x22d
 9335 1b7f 8C000000 		.4byte	0x8c
 9336 1b83 99060000 		.4byte	.LLST36
 9337 1b87 18       		.uleb128 0x18
 9338 1b88 390A0000 		.4byte	.LASF71
 9339 1b8c 01       		.byte	0x1
 9340 1b8d 2E02     		.2byte	0x22e
 9341 1b8f FA000000 		.4byte	0xfa
 9342 1b93 C3060000 		.4byte	.LLST37
 9343 1b97 18       		.uleb128 0x18
 9344 1b98 0B080000 		.4byte	.LASF80
 9345 1b9c 01       		.byte	0x1
 9346 1b9d 2F02     		.2byte	0x22f
 9347 1b9f FA000000 		.4byte	0xfa
 9348 1ba3 FD060000 		.4byte	.LLST38
ARM GAS  C:\Users\Revanth\AppData\Local\Temp\ccSEzD1d.s 			page 210


 9349 1ba7 18       		.uleb128 0x18
 9350 1ba8 CC090000 		.4byte	.LASF72
 9351 1bac 01       		.byte	0x1
 9352 1bad 3102     		.2byte	0x231
 9353 1baf FA000000 		.4byte	0xfa
 9354 1bb3 27070000 		.4byte	.LLST39
 9355 1bb7 08       		.uleb128 0x8
 9356 1bb8 20000000 		.4byte	.LVL362
 9357 1bbc 04030000 		.4byte	0x304
 9358 1bc0 09       		.uleb128 0x9
 9359 1bc1 4C000000 		.4byte	.LVL370
 9360 1bc5 170F0000 		.4byte	0xf17
 9361 1bc9 D31B0000 		.4byte	0x1bd3
 9362 1bcd 0A       		.uleb128 0xa
 9363 1bce 01       		.uleb128 0x1
 9364 1bcf 51       		.byte	0x51
 9365 1bd0 01       		.uleb128 0x1
 9366 1bd1 32       		.byte	0x32
 9367 1bd2 00       		.byte	0
 9368 1bd3 09       		.uleb128 0x9
 9369 1bd4 52000000 		.4byte	.LVL371
 9370 1bd8 17160000 		.4byte	0x1617
 9371 1bdc E61B0000 		.4byte	0x1be6
 9372 1be0 0A       		.uleb128 0xa
 9373 1be1 01       		.uleb128 0x1
 9374 1be2 50       		.byte	0x50
 9375 1be3 01       		.uleb128 0x1
 9376 1be4 32       		.byte	0x32
 9377 1be5 00       		.byte	0
 9378 1be6 09       		.uleb128 0x9
 9379 1be7 58000000 		.4byte	.LVL372
 9380 1beb 81380000 		.4byte	0x3881
 9381 1bef FA1B0000 		.4byte	0x1bfa
 9382 1bf3 0A       		.uleb128 0xa
 9383 1bf4 01       		.uleb128 0x1
 9384 1bf5 50       		.byte	0x50
 9385 1bf6 02       		.uleb128 0x2
 9386 1bf7 08       		.byte	0x8
 9387 1bf8 32       		.byte	0x32
 9388 1bf9 00       		.byte	0
 9389 1bfa 09       		.uleb128 0x9
 9390 1bfb 62000000 		.4byte	.LVL373
 9391 1bff 2C0E0000 		.4byte	0xe2c
 9392 1c03 191C0000 		.4byte	0x1c19
 9393 1c07 0A       		.uleb128 0xa
 9394 1c08 01       		.uleb128 0x1
 9395 1c09 50       		.byte	0x50
 9396 1c0a 02       		.uleb128 0x2
 9397 1c0b 08       		.byte	0x8
 9398 1c0c 21       		.byte	0x21
 9399 1c0d 0A       		.uleb128 0xa
 9400 1c0e 01       		.uleb128 0x1
 9401 1c0f 51       		.byte	0x51
 9402 1c10 02       		.uleb128 0x2
 9403 1c11 77       		.byte	0x77
 9404 1c12 00       		.sleb128 0
 9405 1c13 0A       		.uleb128 0xa
ARM GAS  C:\Users\Revanth\AppData\Local\Temp\ccSEzD1d.s 			page 211


 9406 1c14 01       		.uleb128 0x1
 9407 1c15 52       		.byte	0x52
 9408 1c16 01       		.uleb128 0x1
 9409 1c17 32       		.byte	0x32
 9410 1c18 00       		.byte	0
 9411 1c19 08       		.uleb128 0x8
 9412 1c1a 6E000000 		.4byte	.LVL376
 9413 1c1e 04030000 		.4byte	0x304
 9414 1c22 09       		.uleb128 0x9
 9415 1c23 88000000 		.4byte	.LVL379
 9416 1c27 CB030000 		.4byte	0x3cb
 9417 1c2b 391C0000 		.4byte	0x1c39
 9418 1c2f 0A       		.uleb128 0xa
 9419 1c30 01       		.uleb128 0x1
 9420 1c31 50       		.byte	0x50
 9421 1c32 05       		.uleb128 0x5
 9422 1c33 03       		.byte	0x3
 9423 1c34 88030000 		.4byte	.LC29
 9424 1c38 00       		.byte	0
 9425 1c39 09       		.uleb128 0x9
 9426 1c3a 8E000000 		.4byte	.LVL380
 9427 1c3e 40390000 		.4byte	0x3940
 9428 1c42 4D1C0000 		.4byte	0x1c4d
 9429 1c46 0A       		.uleb128 0xa
 9430 1c47 01       		.uleb128 0x1
 9431 1c48 50       		.byte	0x50
 9432 1c49 02       		.uleb128 0x2
 9433 1c4a 09       		.byte	0x9
 9434 1c4b FF       		.byte	0xff
 9435 1c4c 00       		.byte	0
 9436 1c4d 09       		.uleb128 0x9
 9437 1c4e A2000000 		.4byte	.LVL381
 9438 1c52 CB030000 		.4byte	0x3cb
 9439 1c56 641C0000 		.4byte	0x1c64
 9440 1c5a 0A       		.uleb128 0xa
 9441 1c5b 01       		.uleb128 0x1
 9442 1c5c 50       		.byte	0x50
 9443 1c5d 05       		.uleb128 0x5
 9444 1c5e 03       		.byte	0x3
 9445 1c5f A4030000 		.4byte	.LC30
 9446 1c63 00       		.byte	0
 9447 1c64 0B       		.uleb128 0xb
 9448 1c65 AA000000 		.4byte	.LVL382
 9449 1c69 CB030000 		.4byte	0x3cb
 9450 1c6d 0A       		.uleb128 0xa
 9451 1c6e 01       		.uleb128 0x1
 9452 1c6f 50       		.byte	0x50
 9453 1c70 05       		.uleb128 0x5
 9454 1c71 03       		.byte	0x3
 9455 1c72 D4030000 		.4byte	.LC31
 9456 1c76 00       		.byte	0
 9457 1c77 00       		.byte	0
 9458 1c78 17       		.uleb128 0x17
 9459 1c79 FA050000 		.4byte	.LASF81
 9460 1c7d 01       		.byte	0x1
 9461 1c7e 0E02     		.2byte	0x20e
 9462 1c80 7E000000 		.4byte	0x7e
ARM GAS  C:\Users\Revanth\AppData\Local\Temp\ccSEzD1d.s 			page 212


 9463 1c84 00000000 		.4byte	.LFB73
 9464 1c88 78000000 		.4byte	.LFE73-.LFB73
 9465 1c8c 01       		.uleb128 0x1
 9466 1c8d 9C       		.byte	0x9c
 9467 1c8e 701D0000 		.4byte	0x1d70
 9468 1c92 0D       		.uleb128 0xd
 9469 1c93 550C0000 		.4byte	.LASF82
 9470 1c97 01       		.byte	0x1
 9471 1c98 0E02     		.2byte	0x20e
 9472 1c9a FA000000 		.4byte	0xfa
 9473 1c9e 51070000 		.4byte	.LLST40
 9474 1ca2 08       		.uleb128 0x8
 9475 1ca3 0E000000 		.4byte	.LVL386
 9476 1ca7 62020000 		.4byte	0x262
 9477 1cab 08       		.uleb128 0x8
 9478 1cac 12000000 		.4byte	.LVL387
 9479 1cb0 DB080000 		.4byte	0x8db
 9480 1cb4 08       		.uleb128 0x8
 9481 1cb5 1E000000 		.4byte	.LVL388
 9482 1cb9 04030000 		.4byte	0x304
 9483 1cbd 09       		.uleb128 0x9
 9484 1cbe 24000000 		.4byte	.LVL389
 9485 1cc2 CB030000 		.4byte	0x3cb
 9486 1cc6 D41C0000 		.4byte	0x1cd4
 9487 1cca 0A       		.uleb128 0xa
 9488 1ccb 01       		.uleb128 0x1
 9489 1ccc 50       		.byte	0x50
 9490 1ccd 05       		.uleb128 0x5
 9491 1cce 03       		.byte	0x3
 9492 1ccf E8030000 		.4byte	.LC32
 9493 1cd3 00       		.byte	0
 9494 1cd4 09       		.uleb128 0x9
 9495 1cd5 2C000000 		.4byte	.LVL390
 9496 1cd9 170F0000 		.4byte	0xf17
 9497 1cdd ED1C0000 		.4byte	0x1ced
 9498 1ce1 0A       		.uleb128 0xa
 9499 1ce2 01       		.uleb128 0x1
 9500 1ce3 50       		.byte	0x50
 9501 1ce4 02       		.uleb128 0x2
 9502 1ce5 74       		.byte	0x74
 9503 1ce6 00       		.sleb128 0
 9504 1ce7 0A       		.uleb128 0xa
 9505 1ce8 01       		.uleb128 0x1
 9506 1ce9 51       		.byte	0x51
 9507 1cea 01       		.uleb128 0x1
 9508 1ceb 32       		.byte	0x32
 9509 1cec 00       		.byte	0
 9510 1ced 09       		.uleb128 0x9
 9511 1cee 32000000 		.4byte	.LVL391
 9512 1cf2 17160000 		.4byte	0x1617
 9513 1cf6 001D0000 		.4byte	0x1d00
 9514 1cfa 0A       		.uleb128 0xa
 9515 1cfb 01       		.uleb128 0x1
 9516 1cfc 50       		.byte	0x50
 9517 1cfd 01       		.uleb128 0x1
 9518 1cfe 32       		.byte	0x32
 9519 1cff 00       		.byte	0
ARM GAS  C:\Users\Revanth\AppData\Local\Temp\ccSEzD1d.s 			page 213


 9520 1d00 09       		.uleb128 0x9
 9521 1d01 38000000 		.4byte	.LVL392
 9522 1d05 81380000 		.4byte	0x3881
 9523 1d09 141D0000 		.4byte	0x1d14
 9524 1d0d 0A       		.uleb128 0xa
 9525 1d0e 01       		.uleb128 0x1
 9526 1d0f 50       		.byte	0x50
 9527 1d10 02       		.uleb128 0x2
 9528 1d11 08       		.byte	0x8
 9529 1d12 32       		.byte	0x32
 9530 1d13 00       		.byte	0
 9531 1d14 09       		.uleb128 0x9
 9532 1d15 3E000000 		.4byte	.LVL393
 9533 1d19 10070000 		.4byte	0x710
 9534 1d1d 281D0000 		.4byte	0x1d28
 9535 1d21 0A       		.uleb128 0xa
 9536 1d22 01       		.uleb128 0x1
 9537 1d23 50       		.byte	0x50
 9538 1d24 02       		.uleb128 0x2
 9539 1d25 74       		.byte	0x74
 9540 1d26 00       		.sleb128 0
 9541 1d27 00       		.byte	0
 9542 1d28 09       		.uleb128 0x9
 9543 1d29 44000000 		.4byte	.LVL394
 9544 1d2d CB030000 		.4byte	0x3cb
 9545 1d31 3F1D0000 		.4byte	0x1d3f
 9546 1d35 0A       		.uleb128 0xa
 9547 1d36 01       		.uleb128 0x1
 9548 1d37 50       		.byte	0x50
 9549 1d38 05       		.uleb128 0x5
 9550 1d39 03       		.byte	0x3
 9551 1d3a 10030000 		.4byte	.LC24
 9552 1d3e 00       		.byte	0
 9553 1d3f 09       		.uleb128 0x9
 9554 1d40 4A000000 		.4byte	.LVL395
 9555 1d44 4D1B0000 		.4byte	0x1b4d
 9556 1d48 531D0000 		.4byte	0x1d53
 9557 1d4c 0A       		.uleb128 0xa
 9558 1d4d 01       		.uleb128 0x1
 9559 1d4e 50       		.byte	0x50
 9560 1d4f 02       		.uleb128 0x2
 9561 1d50 74       		.byte	0x74
 9562 1d51 00       		.sleb128 0
 9563 1d52 00       		.byte	0
 9564 1d53 08       		.uleb128 0x8
 9565 1d54 4E000000 		.4byte	.LVL396
 9566 1d58 04030000 		.4byte	0x304
 9567 1d5c 0B       		.uleb128 0xb
 9568 1d5d 5C000000 		.4byte	.LVL398
 9569 1d61 CB030000 		.4byte	0x3cb
 9570 1d65 0A       		.uleb128 0xa
 9571 1d66 01       		.uleb128 0x1
 9572 1d67 50       		.byte	0x50
 9573 1d68 05       		.uleb128 0x5
 9574 1d69 03       		.byte	0x3
 9575 1d6a 18030000 		.4byte	.LC25
 9576 1d6e 00       		.byte	0
ARM GAS  C:\Users\Revanth\AppData\Local\Temp\ccSEzD1d.s 			page 214


 9577 1d6f 00       		.byte	0
 9578 1d70 1D       		.uleb128 0x1d
 9579 1d71 BD050000 		.4byte	.LASF83
 9580 1d75 01       		.byte	0x1
 9581 1d76 8302     		.2byte	0x283
 9582 1d78 7E000000 		.4byte	0x7e
 9583 1d7c 00000000 		.4byte	.LFB76
 9584 1d80 C8000000 		.4byte	.LFE76-.LFB76
 9585 1d84 01       		.uleb128 0x1
 9586 1d85 9C       		.byte	0x9c
 9587 1d86 871E0000 		.4byte	0x1e87
 9588 1d8a 0D       		.uleb128 0xd
 9589 1d8b 2C0C0000 		.4byte	.LASF27
 9590 1d8f 01       		.byte	0x1
 9591 1d90 8302     		.2byte	0x283
 9592 1d92 FA000000 		.4byte	0xfa
 9593 1d96 7D070000 		.4byte	.LLST41
 9594 1d9a 18       		.uleb128 0x18
 9595 1d9b 9F000000 		.4byte	.LASF70
 9596 1d9f 01       		.byte	0x1
 9597 1da0 8502     		.2byte	0x285
 9598 1da2 8C000000 		.4byte	0x8c
 9599 1da6 A9070000 		.4byte	.LLST42
 9600 1daa 18       		.uleb128 0x18
 9601 1dab 390A0000 		.4byte	.LASF71
 9602 1daf 01       		.byte	0x1
 9603 1db0 8602     		.2byte	0x286
 9604 1db2 FA000000 		.4byte	0xfa
 9605 1db6 D3070000 		.4byte	.LLST43
 9606 1dba 18       		.uleb128 0x18
 9607 1dbb 6F090000 		.4byte	.LASF84
 9608 1dbf 01       		.byte	0x1
 9609 1dc0 8702     		.2byte	0x287
 9610 1dc2 FA000000 		.4byte	0xfa
 9611 1dc6 0D080000 		.4byte	.LLST44
 9612 1dca 18       		.uleb128 0x18
 9613 1dcb CC090000 		.4byte	.LASF72
 9614 1dcf 01       		.byte	0x1
 9615 1dd0 8902     		.2byte	0x289
 9616 1dd2 FA000000 		.4byte	0xfa
 9617 1dd6 37080000 		.4byte	.LLST45
 9618 1dda 08       		.uleb128 0x8
 9619 1ddb 20000000 		.4byte	.LVL407
 9620 1ddf 04030000 		.4byte	0x304
 9621 1de3 09       		.uleb128 0x9
 9622 1de4 4C000000 		.4byte	.LVL415
 9623 1de8 170F0000 		.4byte	0xf17
 9624 1dec F61D0000 		.4byte	0x1df6
 9625 1df0 0A       		.uleb128 0xa
 9626 1df1 01       		.uleb128 0x1
 9627 1df2 51       		.byte	0x51
 9628 1df3 01       		.uleb128 0x1
 9629 1df4 33       		.byte	0x33
 9630 1df5 00       		.byte	0
 9631 1df6 09       		.uleb128 0x9
 9632 1df7 52000000 		.4byte	.LVL416
 9633 1dfb 17160000 		.4byte	0x1617
ARM GAS  C:\Users\Revanth\AppData\Local\Temp\ccSEzD1d.s 			page 215


 9634 1dff 091E0000 		.4byte	0x1e09
 9635 1e03 0A       		.uleb128 0xa
 9636 1e04 01       		.uleb128 0x1
 9637 1e05 50       		.byte	0x50
 9638 1e06 01       		.uleb128 0x1
 9639 1e07 33       		.byte	0x33
 9640 1e08 00       		.byte	0
 9641 1e09 09       		.uleb128 0x9
 9642 1e0a 58000000 		.4byte	.LVL417
 9643 1e0e 81380000 		.4byte	0x3881
 9644 1e12 1D1E0000 		.4byte	0x1e1d
 9645 1e16 0A       		.uleb128 0xa
 9646 1e17 01       		.uleb128 0x1
 9647 1e18 50       		.byte	0x50
 9648 1e19 02       		.uleb128 0x2
 9649 1e1a 08       		.byte	0x8
 9650 1e1b 32       		.byte	0x32
 9651 1e1c 00       		.byte	0
 9652 1e1d 09       		.uleb128 0x9
 9653 1e1e 62000000 		.4byte	.LVL418
 9654 1e22 2C0E0000 		.4byte	0xe2c
 9655 1e26 3C1E0000 		.4byte	0x1e3c
 9656 1e2a 0A       		.uleb128 0xa
 9657 1e2b 01       		.uleb128 0x1
 9658 1e2c 50       		.byte	0x50
 9659 1e2d 02       		.uleb128 0x2
 9660 1e2e 08       		.byte	0x8
 9661 1e2f 21       		.byte	0x21
 9662 1e30 0A       		.uleb128 0xa
 9663 1e31 01       		.uleb128 0x1
 9664 1e32 51       		.byte	0x51
 9665 1e33 02       		.uleb128 0x2
 9666 1e34 77       		.byte	0x77
 9667 1e35 00       		.sleb128 0
 9668 1e36 0A       		.uleb128 0xa
 9669 1e37 01       		.uleb128 0x1
 9670 1e38 52       		.byte	0x52
 9671 1e39 01       		.uleb128 0x1
 9672 1e3a 33       		.byte	0x33
 9673 1e3b 00       		.byte	0
 9674 1e3c 08       		.uleb128 0x8
 9675 1e3d 6E000000 		.4byte	.LVL421
 9676 1e41 04030000 		.4byte	0x304
 9677 1e45 09       		.uleb128 0x9
 9678 1e46 88000000 		.4byte	.LVL424
 9679 1e4a CB030000 		.4byte	0x3cb
 9680 1e4e 5C1E0000 		.4byte	0x1e5c
 9681 1e52 0A       		.uleb128 0xa
 9682 1e53 01       		.uleb128 0x1
 9683 1e54 50       		.byte	0x50
 9684 1e55 05       		.uleb128 0x5
 9685 1e56 03       		.byte	0x3
 9686 1e57 04040000 		.4byte	.LC33
 9687 1e5b 00       		.byte	0
 9688 1e5c 09       		.uleb128 0x9
 9689 1e5d 9C000000 		.4byte	.LVL425
 9690 1e61 CB030000 		.4byte	0x3cb
ARM GAS  C:\Users\Revanth\AppData\Local\Temp\ccSEzD1d.s 			page 216


 9691 1e65 731E0000 		.4byte	0x1e73
 9692 1e69 0A       		.uleb128 0xa
 9693 1e6a 01       		.uleb128 0x1
 9694 1e6b 50       		.byte	0x50
 9695 1e6c 05       		.uleb128 0x5
 9696 1e6d 03       		.byte	0x3
 9697 1e6e 20040000 		.4byte	.LC34
 9698 1e72 00       		.byte	0
 9699 1e73 0B       		.uleb128 0xb
 9700 1e74 A4000000 		.4byte	.LVL426
 9701 1e78 CB030000 		.4byte	0x3cb
 9702 1e7c 0A       		.uleb128 0xa
 9703 1e7d 01       		.uleb128 0x1
 9704 1e7e 50       		.byte	0x50
 9705 1e7f 05       		.uleb128 0x5
 9706 1e80 03       		.byte	0x3
 9707 1e81 50040000 		.4byte	.LC35
 9708 1e85 00       		.byte	0
 9709 1e86 00       		.byte	0
 9710 1e87 17       		.uleb128 0x17
 9711 1e88 E5050000 		.4byte	.LASF85
 9712 1e8c 01       		.byte	0x1
 9713 1e8d 6702     		.2byte	0x267
 9714 1e8f 7E000000 		.4byte	0x7e
 9715 1e93 00000000 		.4byte	.LFB75
 9716 1e97 78000000 		.4byte	.LFE75-.LFB75
 9717 1e9b 01       		.uleb128 0x1
 9718 1e9c 9C       		.byte	0x9c
 9719 1e9d 7F1F0000 		.4byte	0x1f7f
 9720 1ea1 0D       		.uleb128 0xd
 9721 1ea2 AC080000 		.4byte	.LASF86
 9722 1ea6 01       		.byte	0x1
 9723 1ea7 6702     		.2byte	0x267
 9724 1ea9 FA000000 		.4byte	0xfa
 9725 1ead 61080000 		.4byte	.LLST46
 9726 1eb1 08       		.uleb128 0x8
 9727 1eb2 0E000000 		.4byte	.LVL430
 9728 1eb6 16020000 		.4byte	0x216
 9729 1eba 08       		.uleb128 0x8
 9730 1ebb 12000000 		.4byte	.LVL431
 9731 1ebf DB080000 		.4byte	0x8db
 9732 1ec3 08       		.uleb128 0x8
 9733 1ec4 1E000000 		.4byte	.LVL432
 9734 1ec8 04030000 		.4byte	0x304
 9735 1ecc 09       		.uleb128 0x9
 9736 1ecd 24000000 		.4byte	.LVL433
 9737 1ed1 CB030000 		.4byte	0x3cb
 9738 1ed5 E31E0000 		.4byte	0x1ee3
 9739 1ed9 0A       		.uleb128 0xa
 9740 1eda 01       		.uleb128 0x1
 9741 1edb 50       		.byte	0x50
 9742 1edc 05       		.uleb128 0x5
 9743 1edd 03       		.byte	0x3
 9744 1ede 64040000 		.4byte	.LC36
 9745 1ee2 00       		.byte	0
 9746 1ee3 09       		.uleb128 0x9
 9747 1ee4 2C000000 		.4byte	.LVL434
ARM GAS  C:\Users\Revanth\AppData\Local\Temp\ccSEzD1d.s 			page 217


 9748 1ee8 170F0000 		.4byte	0xf17
 9749 1eec FC1E0000 		.4byte	0x1efc
 9750 1ef0 0A       		.uleb128 0xa
 9751 1ef1 01       		.uleb128 0x1
 9752 1ef2 50       		.byte	0x50
 9753 1ef3 02       		.uleb128 0x2
 9754 1ef4 74       		.byte	0x74
 9755 1ef5 00       		.sleb128 0
 9756 1ef6 0A       		.uleb128 0xa
 9757 1ef7 01       		.uleb128 0x1
 9758 1ef8 51       		.byte	0x51
 9759 1ef9 01       		.uleb128 0x1
 9760 1efa 33       		.byte	0x33
 9761 1efb 00       		.byte	0
 9762 1efc 09       		.uleb128 0x9
 9763 1efd 32000000 		.4byte	.LVL435
 9764 1f01 17160000 		.4byte	0x1617
 9765 1f05 0F1F0000 		.4byte	0x1f0f
 9766 1f09 0A       		.uleb128 0xa
 9767 1f0a 01       		.uleb128 0x1
 9768 1f0b 50       		.byte	0x50
 9769 1f0c 01       		.uleb128 0x1
 9770 1f0d 33       		.byte	0x33
 9771 1f0e 00       		.byte	0
 9772 1f0f 09       		.uleb128 0x9
 9773 1f10 38000000 		.4byte	.LVL436
 9774 1f14 81380000 		.4byte	0x3881
 9775 1f18 231F0000 		.4byte	0x1f23
 9776 1f1c 0A       		.uleb128 0xa
 9777 1f1d 01       		.uleb128 0x1
 9778 1f1e 50       		.byte	0x50
 9779 1f1f 02       		.uleb128 0x2
 9780 1f20 08       		.byte	0x8
 9781 1f21 32       		.byte	0x32
 9782 1f22 00       		.byte	0
 9783 1f23 09       		.uleb128 0x9
 9784 1f24 3E000000 		.4byte	.LVL437
 9785 1f28 10070000 		.4byte	0x710
 9786 1f2c 371F0000 		.4byte	0x1f37
 9787 1f30 0A       		.uleb128 0xa
 9788 1f31 01       		.uleb128 0x1
 9789 1f32 50       		.byte	0x50
 9790 1f33 02       		.uleb128 0x2
 9791 1f34 74       		.byte	0x74
 9792 1f35 00       		.sleb128 0
 9793 1f36 00       		.byte	0
 9794 1f37 09       		.uleb128 0x9
 9795 1f38 44000000 		.4byte	.LVL438
 9796 1f3c CB030000 		.4byte	0x3cb
 9797 1f40 4E1F0000 		.4byte	0x1f4e
 9798 1f44 0A       		.uleb128 0xa
 9799 1f45 01       		.uleb128 0x1
 9800 1f46 50       		.byte	0x50
 9801 1f47 05       		.uleb128 0x5
 9802 1f48 03       		.byte	0x3
 9803 1f49 10030000 		.4byte	.LC24
 9804 1f4d 00       		.byte	0
ARM GAS  C:\Users\Revanth\AppData\Local\Temp\ccSEzD1d.s 			page 218


 9805 1f4e 09       		.uleb128 0x9
 9806 1f4f 4A000000 		.4byte	.LVL439
 9807 1f53 701D0000 		.4byte	0x1d70
 9808 1f57 621F0000 		.4byte	0x1f62
 9809 1f5b 0A       		.uleb128 0xa
 9810 1f5c 01       		.uleb128 0x1
 9811 1f5d 50       		.byte	0x50
 9812 1f5e 02       		.uleb128 0x2
 9813 1f5f 74       		.byte	0x74
 9814 1f60 00       		.sleb128 0
 9815 1f61 00       		.byte	0
 9816 1f62 08       		.uleb128 0x8
 9817 1f63 4E000000 		.4byte	.LVL440
 9818 1f67 04030000 		.4byte	0x304
 9819 1f6b 0B       		.uleb128 0xb
 9820 1f6c 5C000000 		.4byte	.LVL442
 9821 1f70 CB030000 		.4byte	0x3cb
 9822 1f74 0A       		.uleb128 0xa
 9823 1f75 01       		.uleb128 0x1
 9824 1f76 50       		.byte	0x50
 9825 1f77 05       		.uleb128 0x5
 9826 1f78 03       		.byte	0x3
 9827 1f79 18030000 		.4byte	.LC25
 9828 1f7d 00       		.byte	0
 9829 1f7e 00       		.byte	0
 9830 1f7f 17       		.uleb128 0x17
 9831 1f80 CD010000 		.4byte	.LASF87
 9832 1f84 01       		.byte	0x1
 9833 1f85 BE02     		.2byte	0x2be
 9834 1f87 7E000000 		.4byte	0x7e
 9835 1f8b 00000000 		.4byte	.LFB77
 9836 1f8f 88000000 		.4byte	.LFE77-.LFB77
 9837 1f93 01       		.uleb128 0x1
 9838 1f94 9C       		.byte	0x9c
 9839 1f95 0B210000 		.4byte	0x210b
 9840 1f99 0D       		.uleb128 0xd
 9841 1f9a 1A0A0000 		.4byte	.LASF74
 9842 1f9e 01       		.byte	0x1
 9843 1f9f BE02     		.2byte	0x2be
 9844 1fa1 FA000000 		.4byte	0xfa
 9845 1fa5 8D080000 		.4byte	.LLST47
 9846 1fa9 0D       		.uleb128 0xd
 9847 1faa F2020000 		.4byte	.LASF78
 9848 1fae 01       		.byte	0x1
 9849 1faf BE02     		.2byte	0x2be
 9850 1fb1 FA000000 		.4byte	0xfa
 9851 1fb5 B9080000 		.4byte	.LLST48
 9852 1fb9 0D       		.uleb128 0xd
 9853 1fba 550C0000 		.4byte	.LASF82
 9854 1fbe 01       		.byte	0x1
 9855 1fbf BE02     		.2byte	0x2be
 9856 1fc1 FA000000 		.4byte	0xfa
 9857 1fc5 E5080000 		.4byte	.LLST49
 9858 1fc9 08       		.uleb128 0x8
 9859 1fca 0C000000 		.4byte	.LVL445
 9860 1fce 04030000 		.4byte	0x304
 9861 1fd2 09       		.uleb128 0x9
ARM GAS  C:\Users\Revanth\AppData\Local\Temp\ccSEzD1d.s 			page 219


 9862 1fd3 12000000 		.4byte	.LVL446
 9863 1fd7 CB030000 		.4byte	0x3cb
 9864 1fdb E91F0000 		.4byte	0x1fe9
 9865 1fdf 0A       		.uleb128 0xa
 9866 1fe0 01       		.uleb128 0x1
 9867 1fe1 50       		.byte	0x50
 9868 1fe2 05       		.uleb128 0x5
 9869 1fe3 03       		.byte	0x3
 9870 1fe4 F4020000 		.4byte	.LC23
 9871 1fe8 00       		.byte	0
 9872 1fe9 09       		.uleb128 0x9
 9873 1fea 1A000000 		.4byte	.LVL447
 9874 1fee 170F0000 		.4byte	0xf17
 9875 1ff2 02200000 		.4byte	0x2002
 9876 1ff6 0A       		.uleb128 0xa
 9877 1ff7 01       		.uleb128 0x1
 9878 1ff8 50       		.byte	0x50
 9879 1ff9 02       		.uleb128 0x2
 9880 1ffa 75       		.byte	0x75
 9881 1ffb 00       		.sleb128 0
 9882 1ffc 0A       		.uleb128 0xa
 9883 1ffd 01       		.uleb128 0x1
 9884 1ffe 51       		.byte	0x51
 9885 1fff 01       		.uleb128 0x1
 9886 2000 30       		.byte	0x30
 9887 2001 00       		.byte	0
 9888 2002 09       		.uleb128 0x9
 9889 2003 22000000 		.4byte	.LVL448
 9890 2007 170F0000 		.4byte	0xf17
 9891 200b 1B200000 		.4byte	0x201b
 9892 200f 0A       		.uleb128 0xa
 9893 2010 01       		.uleb128 0x1
 9894 2011 50       		.byte	0x50
 9895 2012 02       		.uleb128 0x2
 9896 2013 77       		.byte	0x77
 9897 2014 00       		.sleb128 0
 9898 2015 0A       		.uleb128 0xa
 9899 2016 01       		.uleb128 0x1
 9900 2017 51       		.byte	0x51
 9901 2018 01       		.uleb128 0x1
 9902 2019 31       		.byte	0x31
 9903 201a 00       		.byte	0
 9904 201b 08       		.uleb128 0x8
 9905 201c 2C000000 		.4byte	.LVL449
 9906 2020 62020000 		.4byte	0x262
 9907 2024 09       		.uleb128 0x9
 9908 2025 34000000 		.4byte	.LVL450
 9909 2029 170F0000 		.4byte	0xf17
 9910 202d 3D200000 		.4byte	0x203d
 9911 2031 0A       		.uleb128 0xa
 9912 2032 01       		.uleb128 0x1
 9913 2033 50       		.byte	0x50
 9914 2034 02       		.uleb128 0x2
 9915 2035 76       		.byte	0x76
 9916 2036 00       		.sleb128 0
 9917 2037 0A       		.uleb128 0xa
 9918 2038 01       		.uleb128 0x1
ARM GAS  C:\Users\Revanth\AppData\Local\Temp\ccSEzD1d.s 			page 220


 9919 2039 51       		.byte	0x51
 9920 203a 01       		.uleb128 0x1
 9921 203b 32       		.byte	0x32
 9922 203c 00       		.byte	0
 9923 203d 09       		.uleb128 0x9
 9924 203e 3A000000 		.4byte	.LVL451
 9925 2042 17160000 		.4byte	0x1617
 9926 2046 50200000 		.4byte	0x2050
 9927 204a 0A       		.uleb128 0xa
 9928 204b 01       		.uleb128 0x1
 9929 204c 50       		.byte	0x50
 9930 204d 01       		.uleb128 0x1
 9931 204e 30       		.byte	0x30
 9932 204f 00       		.byte	0
 9933 2050 09       		.uleb128 0x9
 9934 2051 40000000 		.4byte	.LVL452
 9935 2055 17160000 		.4byte	0x1617
 9936 2059 63200000 		.4byte	0x2063
 9937 205d 0A       		.uleb128 0xa
 9938 205e 01       		.uleb128 0x1
 9939 205f 50       		.byte	0x50
 9940 2060 01       		.uleb128 0x1
 9941 2061 31       		.byte	0x31
 9942 2062 00       		.byte	0
 9943 2063 09       		.uleb128 0x9
 9944 2064 46000000 		.4byte	.LVL453
 9945 2068 17160000 		.4byte	0x1617
 9946 206c 76200000 		.4byte	0x2076
 9947 2070 0A       		.uleb128 0xa
 9948 2071 01       		.uleb128 0x1
 9949 2072 50       		.byte	0x50
 9950 2073 01       		.uleb128 0x1
 9951 2074 32       		.byte	0x32
 9952 2075 00       		.byte	0
 9953 2076 09       		.uleb128 0x9
 9954 2077 4C000000 		.4byte	.LVL454
 9955 207b F5160000 		.4byte	0x16f5
 9956 207f 8A200000 		.4byte	0x208a
 9957 2083 0A       		.uleb128 0xa
 9958 2084 01       		.uleb128 0x1
 9959 2085 50       		.byte	0x50
 9960 2086 02       		.uleb128 0x2
 9961 2087 75       		.byte	0x75
 9962 2088 00       		.sleb128 0
 9963 2089 00       		.byte	0
 9964 208a 09       		.uleb128 0x9
 9965 208b 52000000 		.4byte	.LVL455
 9966 208f 3C190000 		.4byte	0x193c
 9967 2093 9E200000 		.4byte	0x209e
 9968 2097 0A       		.uleb128 0xa
 9969 2098 01       		.uleb128 0x1
 9970 2099 50       		.byte	0x50
 9971 209a 02       		.uleb128 0x2
 9972 209b 77       		.byte	0x77
 9973 209c 00       		.sleb128 0
 9974 209d 00       		.byte	0
 9975 209e 09       		.uleb128 0x9
ARM GAS  C:\Users\Revanth\AppData\Local\Temp\ccSEzD1d.s 			page 221


 9976 209f 58000000 		.4byte	.LVL456
 9977 20a3 4D1B0000 		.4byte	0x1b4d
 9978 20a7 B2200000 		.4byte	0x20b2
 9979 20ab 0A       		.uleb128 0xa
 9980 20ac 01       		.uleb128 0x1
 9981 20ad 50       		.byte	0x50
 9982 20ae 02       		.uleb128 0x2
 9983 20af 76       		.byte	0x76
 9984 20b0 00       		.sleb128 0
 9985 20b1 00       		.byte	0
 9986 20b2 08       		.uleb128 0x8
 9987 20b3 5C000000 		.4byte	.LVL457
 9988 20b7 04030000 		.4byte	0x304
 9989 20bb 09       		.uleb128 0x9
 9990 20bc 66000000 		.4byte	.LVL458
 9991 20c0 81380000 		.4byte	0x3881
 9992 20c4 CF200000 		.4byte	0x20cf
 9993 20c8 0A       		.uleb128 0xa
 9994 20c9 01       		.uleb128 0x1
 9995 20ca 50       		.byte	0x50
 9996 20cb 02       		.uleb128 0x2
 9997 20cc 08       		.byte	0x8
 9998 20cd 32       		.byte	0x32
 9999 20ce 00       		.byte	0
 10000 20cf 09       		.uleb128 0x9
 10001 20d0 6C000000 		.4byte	.LVL459
 10002 20d4 10070000 		.4byte	0x710
 10003 20d8 E3200000 		.4byte	0x20e3
 10004 20dc 0A       		.uleb128 0xa
 10005 20dd 01       		.uleb128 0x1
 10006 20de 50       		.byte	0x50
 10007 20df 02       		.uleb128 0x2
 10008 20e0 75       		.byte	0x75
 10009 20e1 00       		.sleb128 0
 10010 20e2 00       		.byte	0
 10011 20e3 09       		.uleb128 0x9
 10012 20e4 72000000 		.4byte	.LVL460
 10013 20e8 CB030000 		.4byte	0x3cb
 10014 20ec FA200000 		.4byte	0x20fa
 10015 20f0 0A       		.uleb128 0xa
 10016 20f1 01       		.uleb128 0x1
 10017 20f2 50       		.byte	0x50
 10018 20f3 05       		.uleb128 0x5
 10019 20f4 03       		.byte	0x3
 10020 20f5 10030000 		.4byte	.LC24
 10021 20f9 00       		.byte	0
 10022 20fa 0B       		.uleb128 0xb
 10023 20fb 78000000 		.4byte	.LVL461
 10024 20ff F5160000 		.4byte	0x16f5
 10025 2103 0A       		.uleb128 0xa
 10026 2104 01       		.uleb128 0x1
 10027 2105 50       		.byte	0x50
 10028 2106 02       		.uleb128 0x2
 10029 2107 75       		.byte	0x75
 10030 2108 00       		.sleb128 0
 10031 2109 00       		.byte	0
 10032 210a 00       		.byte	0
ARM GAS  C:\Users\Revanth\AppData\Local\Temp\ccSEzD1d.s 			page 222


 10033 210b 17       		.uleb128 0x17
 10034 210c D6010000 		.4byte	.LASF88
 10035 2110 01       		.byte	0x1
 10036 2111 9406     		.2byte	0x694
 10037 2113 7E000000 		.4byte	0x7e
 10038 2117 00000000 		.4byte	.LFB107
 10039 211b 10000000 		.4byte	.LFE107-.LFB107
 10040 211f 01       		.uleb128 0x1
 10041 2120 9C       		.byte	0x9c
 10042 2121 5D210000 		.4byte	0x215d
 10043 2125 0D       		.uleb128 0xd
 10044 2126 23040000 		.4byte	.LASF89
 10045 212a 01       		.byte	0x1
 10046 212b 9406     		.2byte	0x694
 10047 212d 7E000000 		.4byte	0x7e
 10048 2131 11090000 		.4byte	.LLST50
 10049 2135 0D       		.uleb128 0xd
 10050 2136 4A060000 		.4byte	.LASF54
 10051 213a 01       		.byte	0x1
 10052 213b 9406     		.2byte	0x694
 10053 213d 8C000000 		.4byte	0x8c
 10054 2141 3D090000 		.4byte	.LLST51
 10055 2145 0B       		.uleb128 0xb
 10056 2146 0C000000 		.4byte	.LVL466
 10057 214a 2C0E0000 		.4byte	0xe2c
 10058 214e 0A       		.uleb128 0xa
 10059 214f 01       		.uleb128 0x1
 10060 2150 50       		.byte	0x50
 10061 2151 02       		.uleb128 0x2
 10062 2152 08       		.byte	0x8
 10063 2153 27       		.byte	0x27
 10064 2154 0A       		.uleb128 0xa
 10065 2155 01       		.uleb128 0x1
 10066 2156 51       		.byte	0x51
 10067 2157 03       		.uleb128 0x3
 10068 2158 F3       		.byte	0xf3
 10069 2159 01       		.uleb128 0x1
 10070 215a 50       		.byte	0x50
 10071 215b 00       		.byte	0
 10072 215c 00       		.byte	0
 10073 215d 19       		.uleb128 0x19
 10074 215e C2040000 		.4byte	.LASF90
 10075 2162 01       		.byte	0x1
 10076 2163 66       		.byte	0x66
 10077 2164 00000000 		.4byte	.LFB65
 10078 2168 7C010000 		.4byte	.LFE65-.LFB65
 10079 216c 01       		.uleb128 0x1
 10080 216d 9C       		.byte	0x9c
 10081 216e 04250000 		.4byte	0x2504
 10082 2172 1B       		.uleb128 0x1b
 10083 2173 4A060000 		.4byte	.LASF54
 10084 2177 01       		.byte	0x1
 10085 2178 66       		.byte	0x66
 10086 2179 8C000000 		.4byte	0x8c
 10087 217d 5E090000 		.4byte	.LLST52
 10088 2181 09       		.uleb128 0x9
 10089 2182 0E000000 		.4byte	.LVL469
ARM GAS  C:\Users\Revanth\AppData\Local\Temp\ccSEzD1d.s 			page 223


 10090 2186 0B210000 		.4byte	0x210b
 10091 218a 9C210000 		.4byte	0x219c
 10092 218e 0A       		.uleb128 0xa
 10093 218f 01       		.uleb128 0x1
 10094 2190 50       		.byte	0x50
 10095 2191 03       		.uleb128 0x3
 10096 2192 0A       		.byte	0xa
 10097 2193 00C8     		.2byte	0xc800
 10098 2195 0A       		.uleb128 0xa
 10099 2196 01       		.uleb128 0x1
 10100 2197 51       		.byte	0x51
 10101 2198 02       		.uleb128 0x2
 10102 2199 74       		.byte	0x74
 10103 219a 00       		.sleb128 0
 10104 219b 00       		.byte	0
 10105 219c 09       		.uleb128 0x9
 10106 219d 18000000 		.4byte	.LVL470
 10107 21a1 2C0E0000 		.4byte	0xe2c
 10108 21a5 BB210000 		.4byte	0x21bb
 10109 21a9 0A       		.uleb128 0xa
 10110 21aa 01       		.uleb128 0x1
 10111 21ab 50       		.byte	0x50
 10112 21ac 02       		.uleb128 0x2
 10113 21ad 08       		.byte	0x8
 10114 21ae 20       		.byte	0x20
 10115 21af 0A       		.uleb128 0xa
 10116 21b0 01       		.uleb128 0x1
 10117 21b1 51       		.byte	0x51
 10118 21b2 01       		.uleb128 0x1
 10119 21b3 32       		.byte	0x32
 10120 21b4 0A       		.uleb128 0xa
 10121 21b5 01       		.uleb128 0x1
 10122 21b6 52       		.byte	0x52
 10123 21b7 02       		.uleb128 0x2
 10124 21b8 74       		.byte	0x74
 10125 21b9 00       		.sleb128 0
 10126 21ba 00       		.byte	0
 10127 21bb 09       		.uleb128 0x9
 10128 21bc 1E000000 		.4byte	.LVL471
 10129 21c0 81380000 		.4byte	0x3881
 10130 21c4 CF210000 		.4byte	0x21cf
 10131 21c8 0A       		.uleb128 0xa
 10132 21c9 01       		.uleb128 0x1
 10133 21ca 50       		.byte	0x50
 10134 21cb 02       		.uleb128 0x2
 10135 21cc 08       		.byte	0x8
 10136 21cd C8       		.byte	0xc8
 10137 21ce 00       		.byte	0
 10138 21cf 09       		.uleb128 0x9
 10139 21d0 2A000000 		.4byte	.LVL472
 10140 21d4 960B0000 		.4byte	0xb96
 10141 21d8 EE210000 		.4byte	0x21ee
 10142 21dc 0A       		.uleb128 0xa
 10143 21dd 01       		.uleb128 0x1
 10144 21de 50       		.byte	0x50
 10145 21df 01       		.uleb128 0x1
 10146 21e0 34       		.byte	0x34
ARM GAS  C:\Users\Revanth\AppData\Local\Temp\ccSEzD1d.s 			page 224


 10147 21e1 0A       		.uleb128 0xa
 10148 21e2 01       		.uleb128 0x1
 10149 21e3 51       		.byte	0x51
 10150 21e4 02       		.uleb128 0x2
 10151 21e5 74       		.byte	0x74
 10152 21e6 00       		.sleb128 0
 10153 21e7 0A       		.uleb128 0xa
 10154 21e8 01       		.uleb128 0x1
 10155 21e9 52       		.byte	0x52
 10156 21ea 02       		.uleb128 0x2
 10157 21eb 75       		.byte	0x75
 10158 21ec 00       		.sleb128 0
 10159 21ed 00       		.byte	0
 10160 21ee 09       		.uleb128 0x9
 10161 21ef 32000000 		.4byte	.LVL473
 10162 21f3 81380000 		.4byte	0x3881
 10163 21f7 03220000 		.4byte	0x2203
 10164 21fb 0A       		.uleb128 0xa
 10165 21fc 01       		.uleb128 0x1
 10166 21fd 50       		.byte	0x50
 10167 21fe 03       		.uleb128 0x3
 10168 21ff 0A       		.byte	0xa
 10169 2200 F401     		.2byte	0x1f4
 10170 2202 00       		.byte	0
 10171 2203 09       		.uleb128 0x9
 10172 2204 3C000000 		.4byte	.LVL474
 10173 2208 960B0000 		.4byte	0xb96
 10174 220c 22220000 		.4byte	0x2222
 10175 2210 0A       		.uleb128 0xa
 10176 2211 01       		.uleb128 0x1
 10177 2212 50       		.byte	0x50
 10178 2213 01       		.uleb128 0x1
 10179 2214 34       		.byte	0x34
 10180 2215 0A       		.uleb128 0xa
 10181 2216 01       		.uleb128 0x1
 10182 2217 51       		.byte	0x51
 10183 2218 02       		.uleb128 0x2
 10184 2219 74       		.byte	0x74
 10185 221a 00       		.sleb128 0
 10186 221b 0A       		.uleb128 0xa
 10187 221c 01       		.uleb128 0x1
 10188 221d 52       		.byte	0x52
 10189 221e 02       		.uleb128 0x2
 10190 221f 75       		.byte	0x75
 10191 2220 00       		.sleb128 0
 10192 2221 00       		.byte	0
 10193 2222 09       		.uleb128 0x9
 10194 2223 48000000 		.4byte	.LVL475
 10195 2227 960B0000 		.4byte	0xb96
 10196 222b 41220000 		.4byte	0x2241
 10197 222f 0A       		.uleb128 0xa
 10198 2230 01       		.uleb128 0x1
 10199 2231 50       		.byte	0x50
 10200 2232 01       		.uleb128 0x1
 10201 2233 34       		.byte	0x34
 10202 2234 0A       		.uleb128 0xa
 10203 2235 01       		.uleb128 0x1
ARM GAS  C:\Users\Revanth\AppData\Local\Temp\ccSEzD1d.s 			page 225


 10204 2236 51       		.byte	0x51
 10205 2237 02       		.uleb128 0x2
 10206 2238 74       		.byte	0x74
 10207 2239 00       		.sleb128 0
 10208 223a 0A       		.uleb128 0xa
 10209 223b 01       		.uleb128 0x1
 10210 223c 52       		.byte	0x52
 10211 223d 02       		.uleb128 0x2
 10212 223e 75       		.byte	0x75
 10213 223f 00       		.sleb128 0
 10214 2240 00       		.byte	0
 10215 2241 09       		.uleb128 0x9
 10216 2242 4E000000 		.4byte	.LVL476
 10217 2246 81380000 		.4byte	0x3881
 10218 224a 55220000 		.4byte	0x2255
 10219 224e 0A       		.uleb128 0xa
 10220 224f 01       		.uleb128 0x1
 10221 2250 50       		.byte	0x50
 10222 2251 02       		.uleb128 0x2
 10223 2252 08       		.byte	0x8
 10224 2253 64       		.byte	0x64
 10225 2254 00       		.byte	0
 10226 2255 09       		.uleb128 0x9
 10227 2256 62000000 		.4byte	.LVL477
 10228 225a 2C0E0000 		.4byte	0xe2c
 10229 225e 74220000 		.4byte	0x2274
 10230 2262 0A       		.uleb128 0xa
 10231 2263 01       		.uleb128 0x1
 10232 2264 50       		.byte	0x50
 10233 2265 02       		.uleb128 0x2
 10234 2266 08       		.byte	0x8
 10235 2267 21       		.byte	0x21
 10236 2268 0A       		.uleb128 0xa
 10237 2269 01       		.uleb128 0x1
 10238 226a 51       		.byte	0x51
 10239 226b 01       		.uleb128 0x1
 10240 226c 30       		.byte	0x30
 10241 226d 0A       		.uleb128 0xa
 10242 226e 01       		.uleb128 0x1
 10243 226f 52       		.byte	0x52
 10244 2270 02       		.uleb128 0x2
 10245 2271 74       		.byte	0x74
 10246 2272 00       		.sleb128 0
 10247 2273 00       		.byte	0
 10248 2274 09       		.uleb128 0x9
 10249 2275 68000000 		.4byte	.LVL478
 10250 2279 81380000 		.4byte	0x3881
 10251 227d 87220000 		.4byte	0x2287
 10252 2281 0A       		.uleb128 0xa
 10253 2282 01       		.uleb128 0x1
 10254 2283 50       		.byte	0x50
 10255 2284 01       		.uleb128 0x1
 10256 2285 3A       		.byte	0x3a
 10257 2286 00       		.byte	0
 10258 2287 09       		.uleb128 0x9
 10259 2288 72000000 		.4byte	.LVL479
 10260 228c 170F0000 		.4byte	0xf17
ARM GAS  C:\Users\Revanth\AppData\Local\Temp\ccSEzD1d.s 			page 226


 10261 2290 A2220000 		.4byte	0x22a2
 10262 2294 0A       		.uleb128 0xa
 10263 2295 01       		.uleb128 0x1
 10264 2296 50       		.byte	0x50
 10265 2297 03       		.uleb128 0x3
 10266 2298 49       		.byte	0x49
 10267 2299 3C       		.byte	0x3c
 10268 229a 24       		.byte	0x24
 10269 229b 0A       		.uleb128 0xa
 10270 229c 01       		.uleb128 0x1
 10271 229d 51       		.byte	0x51
 10272 229e 02       		.uleb128 0x2
 10273 229f 74       		.byte	0x74
 10274 22a0 00       		.sleb128 0
 10275 22a1 00       		.byte	0
 10276 22a2 09       		.uleb128 0x9
 10277 22a3 7A000000 		.4byte	.LVL480
 10278 22a7 81380000 		.4byte	0x3881
 10279 22ab B7220000 		.4byte	0x22b7
 10280 22af 0A       		.uleb128 0xa
 10281 22b0 01       		.uleb128 0x1
 10282 22b1 50       		.byte	0x50
 10283 22b2 03       		.uleb128 0x3
 10284 22b3 0A       		.byte	0xa
 10285 22b4 F401     		.2byte	0x1f4
 10286 22b6 00       		.byte	0
 10287 22b7 09       		.uleb128 0x9
 10288 22b8 86000000 		.4byte	.LVL481
 10289 22bc 960B0000 		.4byte	0xb96
 10290 22c0 D6220000 		.4byte	0x22d6
 10291 22c4 0A       		.uleb128 0xa
 10292 22c5 01       		.uleb128 0x1
 10293 22c6 50       		.byte	0x50
 10294 22c7 01       		.uleb128 0x1
 10295 22c8 34       		.byte	0x34
 10296 22c9 0A       		.uleb128 0xa
 10297 22ca 01       		.uleb128 0x1
 10298 22cb 51       		.byte	0x51
 10299 22cc 02       		.uleb128 0x2
 10300 22cd 74       		.byte	0x74
 10301 22ce 00       		.sleb128 0
 10302 22cf 0A       		.uleb128 0xa
 10303 22d0 01       		.uleb128 0x1
 10304 22d1 52       		.byte	0x52
 10305 22d2 02       		.uleb128 0x2
 10306 22d3 75       		.byte	0x75
 10307 22d4 00       		.sleb128 0
 10308 22d5 00       		.byte	0
 10309 22d6 09       		.uleb128 0x9
 10310 22d7 8E000000 		.4byte	.LVL482
 10311 22db 81380000 		.4byte	0x3881
 10312 22df EB220000 		.4byte	0x22eb
 10313 22e3 0A       		.uleb128 0xa
 10314 22e4 01       		.uleb128 0x1
 10315 22e5 50       		.byte	0x50
 10316 22e6 03       		.uleb128 0x3
 10317 22e7 0A       		.byte	0xa
ARM GAS  C:\Users\Revanth\AppData\Local\Temp\ccSEzD1d.s 			page 227


 10318 22e8 F401     		.2byte	0x1f4
 10319 22ea 00       		.byte	0
 10320 22eb 09       		.uleb128 0x9
 10321 22ec 98000000 		.4byte	.LVL483
 10322 22f0 960B0000 		.4byte	0xb96
 10323 22f4 0A230000 		.4byte	0x230a
 10324 22f8 0A       		.uleb128 0xa
 10325 22f9 01       		.uleb128 0x1
 10326 22fa 50       		.byte	0x50
 10327 22fb 01       		.uleb128 0x1
 10328 22fc 34       		.byte	0x34
 10329 22fd 0A       		.uleb128 0xa
 10330 22fe 01       		.uleb128 0x1
 10331 22ff 51       		.byte	0x51
 10332 2300 02       		.uleb128 0x2
 10333 2301 74       		.byte	0x74
 10334 2302 00       		.sleb128 0
 10335 2303 0A       		.uleb128 0xa
 10336 2304 01       		.uleb128 0x1
 10337 2305 52       		.byte	0x52
 10338 2306 02       		.uleb128 0x2
 10339 2307 75       		.byte	0x75
 10340 2308 00       		.sleb128 0
 10341 2309 00       		.byte	0
 10342 230a 09       		.uleb128 0x9
 10343 230b A4000000 		.4byte	.LVL484
 10344 230f 960B0000 		.4byte	0xb96
 10345 2313 29230000 		.4byte	0x2329
 10346 2317 0A       		.uleb128 0xa
 10347 2318 01       		.uleb128 0x1
 10348 2319 50       		.byte	0x50
 10349 231a 01       		.uleb128 0x1
 10350 231b 34       		.byte	0x34
 10351 231c 0A       		.uleb128 0xa
 10352 231d 01       		.uleb128 0x1
 10353 231e 51       		.byte	0x51
 10354 231f 02       		.uleb128 0x2
 10355 2320 74       		.byte	0x74
 10356 2321 00       		.sleb128 0
 10357 2322 0A       		.uleb128 0xa
 10358 2323 01       		.uleb128 0x1
 10359 2324 52       		.byte	0x52
 10360 2325 02       		.uleb128 0x2
 10361 2326 75       		.byte	0x75
 10362 2327 00       		.sleb128 0
 10363 2328 00       		.byte	0
 10364 2329 09       		.uleb128 0x9
 10365 232a AA000000 		.4byte	.LVL485
 10366 232e 81380000 		.4byte	0x3881
 10367 2332 3D230000 		.4byte	0x233d
 10368 2336 0A       		.uleb128 0xa
 10369 2337 01       		.uleb128 0x1
 10370 2338 50       		.byte	0x50
 10371 2339 02       		.uleb128 0x2
 10372 233a 08       		.byte	0x8
 10373 233b 64       		.byte	0x64
 10374 233c 00       		.byte	0
ARM GAS  C:\Users\Revanth\AppData\Local\Temp\ccSEzD1d.s 			page 228


 10375 233d 09       		.uleb128 0x9
 10376 233e BE000000 		.4byte	.LVL486
 10377 2342 0B210000 		.4byte	0x210b
 10378 2346 58230000 		.4byte	0x2358
 10379 234a 0A       		.uleb128 0xa
 10380 234b 01       		.uleb128 0x1
 10381 234c 50       		.byte	0x50
 10382 234d 03       		.uleb128 0x3
 10383 234e 0A       		.byte	0xa
 10384 234f 00C8     		.2byte	0xc800
 10385 2351 0A       		.uleb128 0xa
 10386 2352 01       		.uleb128 0x1
 10387 2353 51       		.byte	0x51
 10388 2354 02       		.uleb128 0x2
 10389 2355 74       		.byte	0x74
 10390 2356 00       		.sleb128 0
 10391 2357 00       		.byte	0
 10392 2358 09       		.uleb128 0x9
 10393 2359 C8000000 		.4byte	.LVL487
 10394 235d 2C0E0000 		.4byte	0xe2c
 10395 2361 77230000 		.4byte	0x2377
 10396 2365 0A       		.uleb128 0xa
 10397 2366 01       		.uleb128 0x1
 10398 2367 50       		.byte	0x50
 10399 2368 02       		.uleb128 0x2
 10400 2369 08       		.byte	0x8
 10401 236a 20       		.byte	0x20
 10402 236b 0A       		.uleb128 0xa
 10403 236c 01       		.uleb128 0x1
 10404 236d 51       		.byte	0x51
 10405 236e 01       		.uleb128 0x1
 10406 236f 32       		.byte	0x32
 10407 2370 0A       		.uleb128 0xa
 10408 2371 01       		.uleb128 0x1
 10409 2372 52       		.byte	0x52
 10410 2373 02       		.uleb128 0x2
 10411 2374 74       		.byte	0x74
 10412 2375 00       		.sleb128 0
 10413 2376 00       		.byte	0
 10414 2377 09       		.uleb128 0x9
 10415 2378 CE000000 		.4byte	.LVL488
 10416 237c 81380000 		.4byte	0x3881
 10417 2380 8B230000 		.4byte	0x238b
 10418 2384 0A       		.uleb128 0xa
 10419 2385 01       		.uleb128 0x1
 10420 2386 50       		.byte	0x50
 10421 2387 02       		.uleb128 0x2
 10422 2388 08       		.byte	0x8
 10423 2389 C8       		.byte	0xc8
 10424 238a 00       		.byte	0
 10425 238b 09       		.uleb128 0x9
 10426 238c DA000000 		.4byte	.LVL489
 10427 2390 960B0000 		.4byte	0xb96
 10428 2394 AA230000 		.4byte	0x23aa
 10429 2398 0A       		.uleb128 0xa
 10430 2399 01       		.uleb128 0x1
 10431 239a 50       		.byte	0x50
ARM GAS  C:\Users\Revanth\AppData\Local\Temp\ccSEzD1d.s 			page 229


 10432 239b 01       		.uleb128 0x1
 10433 239c 34       		.byte	0x34
 10434 239d 0A       		.uleb128 0xa
 10435 239e 01       		.uleb128 0x1
 10436 239f 51       		.byte	0x51
 10437 23a0 02       		.uleb128 0x2
 10438 23a1 74       		.byte	0x74
 10439 23a2 00       		.sleb128 0
 10440 23a3 0A       		.uleb128 0xa
 10441 23a4 01       		.uleb128 0x1
 10442 23a5 52       		.byte	0x52
 10443 23a6 02       		.uleb128 0x2
 10444 23a7 75       		.byte	0x75
 10445 23a8 00       		.sleb128 0
 10446 23a9 00       		.byte	0
 10447 23aa 09       		.uleb128 0x9
 10448 23ab E2000000 		.4byte	.LVL490
 10449 23af 81380000 		.4byte	0x3881
 10450 23b3 BF230000 		.4byte	0x23bf
 10451 23b7 0A       		.uleb128 0xa
 10452 23b8 01       		.uleb128 0x1
 10453 23b9 50       		.byte	0x50
 10454 23ba 03       		.uleb128 0x3
 10455 23bb 0A       		.byte	0xa
 10456 23bc F401     		.2byte	0x1f4
 10457 23be 00       		.byte	0
 10458 23bf 09       		.uleb128 0x9
 10459 23c0 EC000000 		.4byte	.LVL491
 10460 23c4 960B0000 		.4byte	0xb96
 10461 23c8 DE230000 		.4byte	0x23de
 10462 23cc 0A       		.uleb128 0xa
 10463 23cd 01       		.uleb128 0x1
 10464 23ce 50       		.byte	0x50
 10465 23cf 01       		.uleb128 0x1
 10466 23d0 34       		.byte	0x34
 10467 23d1 0A       		.uleb128 0xa
 10468 23d2 01       		.uleb128 0x1
 10469 23d3 51       		.byte	0x51
 10470 23d4 02       		.uleb128 0x2
 10471 23d5 74       		.byte	0x74
 10472 23d6 00       		.sleb128 0
 10473 23d7 0A       		.uleb128 0xa
 10474 23d8 01       		.uleb128 0x1
 10475 23d9 52       		.byte	0x52
 10476 23da 02       		.uleb128 0x2
 10477 23db 75       		.byte	0x75
 10478 23dc 00       		.sleb128 0
 10479 23dd 00       		.byte	0
 10480 23de 09       		.uleb128 0x9
 10481 23df F8000000 		.4byte	.LVL492
 10482 23e3 960B0000 		.4byte	0xb96
 10483 23e7 FD230000 		.4byte	0x23fd
 10484 23eb 0A       		.uleb128 0xa
 10485 23ec 01       		.uleb128 0x1
 10486 23ed 50       		.byte	0x50
 10487 23ee 01       		.uleb128 0x1
 10488 23ef 34       		.byte	0x34
ARM GAS  C:\Users\Revanth\AppData\Local\Temp\ccSEzD1d.s 			page 230


 10489 23f0 0A       		.uleb128 0xa
 10490 23f1 01       		.uleb128 0x1
 10491 23f2 51       		.byte	0x51
 10492 23f3 02       		.uleb128 0x2
 10493 23f4 74       		.byte	0x74
 10494 23f5 00       		.sleb128 0
 10495 23f6 0A       		.uleb128 0xa
 10496 23f7 01       		.uleb128 0x1
 10497 23f8 52       		.byte	0x52
 10498 23f9 02       		.uleb128 0x2
 10499 23fa 75       		.byte	0x75
 10500 23fb 00       		.sleb128 0
 10501 23fc 00       		.byte	0
 10502 23fd 09       		.uleb128 0x9
 10503 23fe FE000000 		.4byte	.LVL493
 10504 2402 81380000 		.4byte	0x3881
 10505 2406 11240000 		.4byte	0x2411
 10506 240a 0A       		.uleb128 0xa
 10507 240b 01       		.uleb128 0x1
 10508 240c 50       		.byte	0x50
 10509 240d 02       		.uleb128 0x2
 10510 240e 08       		.byte	0x8
 10511 240f 64       		.byte	0x64
 10512 2410 00       		.byte	0
 10513 2411 09       		.uleb128 0x9
 10514 2412 12010000 		.4byte	.LVL494
 10515 2416 2C0E0000 		.4byte	0xe2c
 10516 241a 2F240000 		.4byte	0x242f
 10517 241e 0A       		.uleb128 0xa
 10518 241f 01       		.uleb128 0x1
 10519 2420 50       		.byte	0x50
 10520 2421 02       		.uleb128 0x2
 10521 2422 08       		.byte	0x8
 10522 2423 21       		.byte	0x21
 10523 2424 0A       		.uleb128 0xa
 10524 2425 01       		.uleb128 0x1
 10525 2426 51       		.byte	0x51
 10526 2427 01       		.uleb128 0x1
 10527 2428 30       		.byte	0x30
 10528 2429 0A       		.uleb128 0xa
 10529 242a 01       		.uleb128 0x1
 10530 242b 52       		.byte	0x52
 10531 242c 01       		.uleb128 0x1
 10532 242d 30       		.byte	0x30
 10533 242e 00       		.byte	0
 10534 242f 09       		.uleb128 0x9
 10535 2430 18010000 		.4byte	.LVL495
 10536 2434 4B390000 		.4byte	0x394b
 10537 2438 42240000 		.4byte	0x2442
 10538 243c 0A       		.uleb128 0xa
 10539 243d 01       		.uleb128 0x1
 10540 243e 50       		.byte	0x50
 10541 243f 01       		.uleb128 0x1
 10542 2440 30       		.byte	0x30
 10543 2441 00       		.byte	0
 10544 2442 09       		.uleb128 0x9
 10545 2443 1E010000 		.4byte	.LVL496
ARM GAS  C:\Users\Revanth\AppData\Local\Temp\ccSEzD1d.s 			page 231


 10546 2447 81380000 		.4byte	0x3881
 10547 244b 56240000 		.4byte	0x2456
 10548 244f 0A       		.uleb128 0xa
 10549 2450 01       		.uleb128 0x1
 10550 2451 50       		.byte	0x50
 10551 2452 02       		.uleb128 0x2
 10552 2453 08       		.byte	0x8
 10553 2454 64       		.byte	0x64
 10554 2455 00       		.byte	0
 10555 2456 09       		.uleb128 0x9
 10556 2457 26010000 		.4byte	.LVL497
 10557 245b 54180000 		.4byte	0x1854
 10558 245f 6B240000 		.4byte	0x246b
 10559 2463 0A       		.uleb128 0xa
 10560 2464 01       		.uleb128 0x1
 10561 2465 50       		.byte	0x50
 10562 2466 03       		.uleb128 0x3
 10563 2467 0A       		.byte	0xa
 10564 2468 00C8     		.2byte	0xc800
 10565 246a 00       		.byte	0
 10566 246b 09       		.uleb128 0x9
 10567 246c 32010000 		.4byte	.LVL498
 10568 2470 81380000 		.4byte	0x3881
 10569 2474 7F240000 		.4byte	0x247f
 10570 2478 0A       		.uleb128 0xa
 10571 2479 01       		.uleb128 0x1
 10572 247a 50       		.byte	0x50
 10573 247b 02       		.uleb128 0x2
 10574 247c 08       		.byte	0x8
 10575 247d 64       		.byte	0x64
 10576 247e 00       		.byte	0
 10577 247f 09       		.uleb128 0x9
 10578 2480 3C010000 		.4byte	.LVL499
 10579 2484 2C0E0000 		.4byte	0xe2c
 10580 2488 9F240000 		.4byte	0x249f
 10581 248c 0A       		.uleb128 0xa
 10582 248d 01       		.uleb128 0x1
 10583 248e 50       		.byte	0x50
 10584 248f 02       		.uleb128 0x2
 10585 2490 08       		.byte	0x8
 10586 2491 21       		.byte	0x21
 10587 2492 0A       		.uleb128 0xa
 10588 2493 01       		.uleb128 0x1
 10589 2494 51       		.byte	0x51
 10590 2495 02       		.uleb128 0x2
 10591 2496 75       		.byte	0x75
 10592 2497 00       		.sleb128 0
 10593 2498 0A       		.uleb128 0xa
 10594 2499 01       		.uleb128 0x1
 10595 249a 52       		.byte	0x52
 10596 249b 02       		.uleb128 0x2
 10597 249c 74       		.byte	0x74
 10598 249d 00       		.sleb128 0
 10599 249e 00       		.byte	0
 10600 249f 09       		.uleb128 0x9
 10601 24a0 46010000 		.4byte	.LVL500
 10602 24a4 2C0E0000 		.4byte	0xe2c
ARM GAS  C:\Users\Revanth\AppData\Local\Temp\ccSEzD1d.s 			page 232


 10603 24a8 BF240000 		.4byte	0x24bf
 10604 24ac 0A       		.uleb128 0xa
 10605 24ad 01       		.uleb128 0x1
 10606 24ae 50       		.byte	0x50
 10607 24af 02       		.uleb128 0x2
 10608 24b0 08       		.byte	0x8
 10609 24b1 2D       		.byte	0x2d
 10610 24b2 0A       		.uleb128 0xa
 10611 24b3 01       		.uleb128 0x1
 10612 24b4 51       		.byte	0x51
 10613 24b5 02       		.uleb128 0x2
 10614 24b6 75       		.byte	0x75
 10615 24b7 00       		.sleb128 0
 10616 24b8 0A       		.uleb128 0xa
 10617 24b9 01       		.uleb128 0x1
 10618 24ba 52       		.byte	0x52
 10619 24bb 02       		.uleb128 0x2
 10620 24bc 74       		.byte	0x74
 10621 24bd 00       		.sleb128 0
 10622 24be 00       		.byte	0
 10623 24bf 09       		.uleb128 0x9
 10624 24c0 4E010000 		.4byte	.LVL501
 10625 24c4 0B210000 		.4byte	0x210b
 10626 24c8 DC240000 		.4byte	0x24dc
 10627 24cc 0A       		.uleb128 0xa
 10628 24cd 01       		.uleb128 0x1
 10629 24ce 50       		.byte	0x50
 10630 24cf 05       		.uleb128 0x5
 10631 24d0 0C       		.byte	0xc
 10632 24d1 C3A50700 		.4byte	0x7a5c3
 10633 24d5 0A       		.uleb128 0xa
 10634 24d6 01       		.uleb128 0x1
 10635 24d7 51       		.byte	0x51
 10636 24d8 02       		.uleb128 0x2
 10637 24d9 74       		.byte	0x74
 10638 24da 00       		.sleb128 0
 10639 24db 00       		.byte	0
 10640 24dc 09       		.uleb128 0x9
 10641 24dd 54010000 		.4byte	.LVL502
 10642 24e1 4B390000 		.4byte	0x394b
 10643 24e5 F0240000 		.4byte	0x24f0
 10644 24e9 0A       		.uleb128 0xa
 10645 24ea 01       		.uleb128 0x1
 10646 24eb 50       		.byte	0x50
 10647 24ec 02       		.uleb128 0x2
 10648 24ed 75       		.byte	0x75
 10649 24ee 00       		.sleb128 0
 10650 24ef 00       		.byte	0
 10651 24f0 0B       		.uleb128 0xb
 10652 24f1 62010000 		.4byte	.LVL503
 10653 24f5 CB030000 		.4byte	0x3cb
 10654 24f9 0A       		.uleb128 0xa
 10655 24fa 01       		.uleb128 0x1
 10656 24fb 50       		.byte	0x50
 10657 24fc 05       		.uleb128 0x5
 10658 24fd 03       		.byte	0x3
 10659 24fe 80040000 		.4byte	.LC37
ARM GAS  C:\Users\Revanth\AppData\Local\Temp\ccSEzD1d.s 			page 233


 10660 2502 00       		.byte	0
 10661 2503 00       		.byte	0
 10662 2504 19       		.uleb128 0x19
 10663 2505 C8040000 		.4byte	.LASF91
 10664 2509 01       		.byte	0x1
 10665 250a A3       		.byte	0xa3
 10666 250b 00000000 		.4byte	.LFB66
 10667 250f 78010000 		.4byte	.LFE66-.LFB66
 10668 2513 01       		.uleb128 0x1
 10669 2514 9C       		.byte	0x9c
 10670 2515 AC280000 		.4byte	0x28ac
 10671 2519 1B       		.uleb128 0x1b
 10672 251a 4A060000 		.4byte	.LASF54
 10673 251e 01       		.byte	0x1
 10674 251f A3       		.byte	0xa3
 10675 2520 8C000000 		.4byte	0x8c
 10676 2524 7F090000 		.4byte	.LLST53
 10677 2528 09       		.uleb128 0x9
 10678 2529 0E000000 		.4byte	.LVL506
 10679 252d 0B210000 		.4byte	0x210b
 10680 2531 43250000 		.4byte	0x2543
 10681 2535 0A       		.uleb128 0xa
 10682 2536 01       		.uleb128 0x1
 10683 2537 50       		.byte	0x50
 10684 2538 03       		.uleb128 0x3
 10685 2539 0A       		.byte	0xa
 10686 253a 00C8     		.2byte	0xc800
 10687 253c 0A       		.uleb128 0xa
 10688 253d 01       		.uleb128 0x1
 10689 253e 51       		.byte	0x51
 10690 253f 02       		.uleb128 0x2
 10691 2540 74       		.byte	0x74
 10692 2541 00       		.sleb128 0
 10693 2542 00       		.byte	0
 10694 2543 09       		.uleb128 0x9
 10695 2544 18000000 		.4byte	.LVL507
 10696 2548 2C0E0000 		.4byte	0xe2c
 10697 254c 62250000 		.4byte	0x2562
 10698 2550 0A       		.uleb128 0xa
 10699 2551 01       		.uleb128 0x1
 10700 2552 50       		.byte	0x50
 10701 2553 02       		.uleb128 0x2
 10702 2554 08       		.byte	0x8
 10703 2555 20       		.byte	0x20
 10704 2556 0A       		.uleb128 0xa
 10705 2557 01       		.uleb128 0x1
 10706 2558 51       		.byte	0x51
 10707 2559 01       		.uleb128 0x1
 10708 255a 32       		.byte	0x32
 10709 255b 0A       		.uleb128 0xa
 10710 255c 01       		.uleb128 0x1
 10711 255d 52       		.byte	0x52
 10712 255e 02       		.uleb128 0x2
 10713 255f 74       		.byte	0x74
 10714 2560 00       		.sleb128 0
 10715 2561 00       		.byte	0
 10716 2562 09       		.uleb128 0x9
ARM GAS  C:\Users\Revanth\AppData\Local\Temp\ccSEzD1d.s 			page 234


 10717 2563 1E000000 		.4byte	.LVL508
 10718 2567 81380000 		.4byte	0x3881
 10719 256b 76250000 		.4byte	0x2576
 10720 256f 0A       		.uleb128 0xa
 10721 2570 01       		.uleb128 0x1
 10722 2571 50       		.byte	0x50
 10723 2572 02       		.uleb128 0x2
 10724 2573 08       		.byte	0x8
 10725 2574 32       		.byte	0x32
 10726 2575 00       		.byte	0
 10727 2576 09       		.uleb128 0x9
 10728 2577 2A000000 		.4byte	.LVL509
 10729 257b 960B0000 		.4byte	0xb96
 10730 257f 95250000 		.4byte	0x2595
 10731 2583 0A       		.uleb128 0xa
 10732 2584 01       		.uleb128 0x1
 10733 2585 50       		.byte	0x50
 10734 2586 01       		.uleb128 0x1
 10735 2587 34       		.byte	0x34
 10736 2588 0A       		.uleb128 0xa
 10737 2589 01       		.uleb128 0x1
 10738 258a 51       		.byte	0x51
 10739 258b 02       		.uleb128 0x2
 10740 258c 74       		.byte	0x74
 10741 258d 00       		.sleb128 0
 10742 258e 0A       		.uleb128 0xa
 10743 258f 01       		.uleb128 0x1
 10744 2590 52       		.byte	0x52
 10745 2591 02       		.uleb128 0x2
 10746 2592 75       		.byte	0x75
 10747 2593 00       		.sleb128 0
 10748 2594 00       		.byte	0
 10749 2595 09       		.uleb128 0x9
 10750 2596 32000000 		.4byte	.LVL510
 10751 259a 81380000 		.4byte	0x3881
 10752 259e AA250000 		.4byte	0x25aa
 10753 25a2 0A       		.uleb128 0xa
 10754 25a3 01       		.uleb128 0x1
 10755 25a4 50       		.byte	0x50
 10756 25a5 03       		.uleb128 0x3
 10757 25a6 0A       		.byte	0xa
 10758 25a7 F401     		.2byte	0x1f4
 10759 25a9 00       		.byte	0
 10760 25aa 09       		.uleb128 0x9
 10761 25ab 3C000000 		.4byte	.LVL511
 10762 25af 960B0000 		.4byte	0xb96
 10763 25b3 C9250000 		.4byte	0x25c9
 10764 25b7 0A       		.uleb128 0xa
 10765 25b8 01       		.uleb128 0x1
 10766 25b9 50       		.byte	0x50
 10767 25ba 01       		.uleb128 0x1
 10768 25bb 34       		.byte	0x34
 10769 25bc 0A       		.uleb128 0xa
 10770 25bd 01       		.uleb128 0x1
 10771 25be 51       		.byte	0x51
 10772 25bf 02       		.uleb128 0x2
 10773 25c0 74       		.byte	0x74
ARM GAS  C:\Users\Revanth\AppData\Local\Temp\ccSEzD1d.s 			page 235


 10774 25c1 00       		.sleb128 0
 10775 25c2 0A       		.uleb128 0xa
 10776 25c3 01       		.uleb128 0x1
 10777 25c4 52       		.byte	0x52
 10778 25c5 02       		.uleb128 0x2
 10779 25c6 75       		.byte	0x75
 10780 25c7 00       		.sleb128 0
 10781 25c8 00       		.byte	0
 10782 25c9 09       		.uleb128 0x9
 10783 25ca 48000000 		.4byte	.LVL512
 10784 25ce 960B0000 		.4byte	0xb96
 10785 25d2 E8250000 		.4byte	0x25e8
 10786 25d6 0A       		.uleb128 0xa
 10787 25d7 01       		.uleb128 0x1
 10788 25d8 50       		.byte	0x50
 10789 25d9 01       		.uleb128 0x1
 10790 25da 34       		.byte	0x34
 10791 25db 0A       		.uleb128 0xa
 10792 25dc 01       		.uleb128 0x1
 10793 25dd 51       		.byte	0x51
 10794 25de 02       		.uleb128 0x2
 10795 25df 74       		.byte	0x74
 10796 25e0 00       		.sleb128 0
 10797 25e1 0A       		.uleb128 0xa
 10798 25e2 01       		.uleb128 0x1
 10799 25e3 52       		.byte	0x52
 10800 25e4 02       		.uleb128 0x2
 10801 25e5 75       		.byte	0x75
 10802 25e6 00       		.sleb128 0
 10803 25e7 00       		.byte	0
 10804 25e8 09       		.uleb128 0x9
 10805 25e9 4E000000 		.4byte	.LVL513
 10806 25ed 81380000 		.4byte	0x3881
 10807 25f1 FC250000 		.4byte	0x25fc
 10808 25f5 0A       		.uleb128 0xa
 10809 25f6 01       		.uleb128 0x1
 10810 25f7 50       		.byte	0x50
 10811 25f8 02       		.uleb128 0x2
 10812 25f9 08       		.byte	0x8
 10813 25fa 64       		.byte	0x64
 10814 25fb 00       		.byte	0
 10815 25fc 09       		.uleb128 0x9
 10816 25fd 62000000 		.4byte	.LVL514
 10817 2601 2C0E0000 		.4byte	0xe2c
 10818 2605 1B260000 		.4byte	0x261b
 10819 2609 0A       		.uleb128 0xa
 10820 260a 01       		.uleb128 0x1
 10821 260b 50       		.byte	0x50
 10822 260c 02       		.uleb128 0x2
 10823 260d 08       		.byte	0x8
 10824 260e 21       		.byte	0x21
 10825 260f 0A       		.uleb128 0xa
 10826 2610 01       		.uleb128 0x1
 10827 2611 51       		.byte	0x51
 10828 2612 01       		.uleb128 0x1
 10829 2613 30       		.byte	0x30
 10830 2614 0A       		.uleb128 0xa
ARM GAS  C:\Users\Revanth\AppData\Local\Temp\ccSEzD1d.s 			page 236


 10831 2615 01       		.uleb128 0x1
 10832 2616 52       		.byte	0x52
 10833 2617 02       		.uleb128 0x2
 10834 2618 74       		.byte	0x74
 10835 2619 00       		.sleb128 0
 10836 261a 00       		.byte	0
 10837 261b 09       		.uleb128 0x9
 10838 261c 68000000 		.4byte	.LVL515
 10839 2620 81380000 		.4byte	0x3881
 10840 2624 2E260000 		.4byte	0x262e
 10841 2628 0A       		.uleb128 0xa
 10842 2629 01       		.uleb128 0x1
 10843 262a 50       		.byte	0x50
 10844 262b 01       		.uleb128 0x1
 10845 262c 3A       		.byte	0x3a
 10846 262d 00       		.byte	0
 10847 262e 09       		.uleb128 0x9
 10848 262f 72000000 		.4byte	.LVL516
 10849 2633 170F0000 		.4byte	0xf17
 10850 2637 49260000 		.4byte	0x2649
 10851 263b 0A       		.uleb128 0xa
 10852 263c 01       		.uleb128 0x1
 10853 263d 50       		.byte	0x50
 10854 263e 03       		.uleb128 0x3
 10855 263f 0A       		.byte	0xa
 10856 2640 00C8     		.2byte	0xc800
 10857 2642 0A       		.uleb128 0xa
 10858 2643 01       		.uleb128 0x1
 10859 2644 51       		.byte	0x51
 10860 2645 02       		.uleb128 0x2
 10861 2646 74       		.byte	0x74
 10862 2647 00       		.sleb128 0
 10863 2648 00       		.byte	0
 10864 2649 09       		.uleb128 0x9
 10865 264a 7A000000 		.4byte	.LVL517
 10866 264e 81380000 		.4byte	0x3881
 10867 2652 5E260000 		.4byte	0x265e
 10868 2656 0A       		.uleb128 0xa
 10869 2657 01       		.uleb128 0x1
 10870 2658 50       		.byte	0x50
 10871 2659 03       		.uleb128 0x3
 10872 265a 0A       		.byte	0xa
 10873 265b F401     		.2byte	0x1f4
 10874 265d 00       		.byte	0
 10875 265e 09       		.uleb128 0x9
 10876 265f 86000000 		.4byte	.LVL518
 10877 2663 960B0000 		.4byte	0xb96
 10878 2667 7D260000 		.4byte	0x267d
 10879 266b 0A       		.uleb128 0xa
 10880 266c 01       		.uleb128 0x1
 10881 266d 50       		.byte	0x50
 10882 266e 01       		.uleb128 0x1
 10883 266f 34       		.byte	0x34
 10884 2670 0A       		.uleb128 0xa
 10885 2671 01       		.uleb128 0x1
 10886 2672 51       		.byte	0x51
 10887 2673 02       		.uleb128 0x2
ARM GAS  C:\Users\Revanth\AppData\Local\Temp\ccSEzD1d.s 			page 237


 10888 2674 74       		.byte	0x74
 10889 2675 00       		.sleb128 0
 10890 2676 0A       		.uleb128 0xa
 10891 2677 01       		.uleb128 0x1
 10892 2678 52       		.byte	0x52
 10893 2679 02       		.uleb128 0x2
 10894 267a 75       		.byte	0x75
 10895 267b 00       		.sleb128 0
 10896 267c 00       		.byte	0
 10897 267d 09       		.uleb128 0x9
 10898 267e 8E000000 		.4byte	.LVL519
 10899 2682 81380000 		.4byte	0x3881
 10900 2686 92260000 		.4byte	0x2692
 10901 268a 0A       		.uleb128 0xa
 10902 268b 01       		.uleb128 0x1
 10903 268c 50       		.byte	0x50
 10904 268d 03       		.uleb128 0x3
 10905 268e 0A       		.byte	0xa
 10906 268f F401     		.2byte	0x1f4
 10907 2691 00       		.byte	0
 10908 2692 09       		.uleb128 0x9
 10909 2693 98000000 		.4byte	.LVL520
 10910 2697 960B0000 		.4byte	0xb96
 10911 269b B1260000 		.4byte	0x26b1
 10912 269f 0A       		.uleb128 0xa
 10913 26a0 01       		.uleb128 0x1
 10914 26a1 50       		.byte	0x50
 10915 26a2 01       		.uleb128 0x1
 10916 26a3 34       		.byte	0x34
 10917 26a4 0A       		.uleb128 0xa
 10918 26a5 01       		.uleb128 0x1
 10919 26a6 51       		.byte	0x51
 10920 26a7 02       		.uleb128 0x2
 10921 26a8 74       		.byte	0x74
 10922 26a9 00       		.sleb128 0
 10923 26aa 0A       		.uleb128 0xa
 10924 26ab 01       		.uleb128 0x1
 10925 26ac 52       		.byte	0x52
 10926 26ad 02       		.uleb128 0x2
 10927 26ae 75       		.byte	0x75
 10928 26af 00       		.sleb128 0
 10929 26b0 00       		.byte	0
 10930 26b1 09       		.uleb128 0x9
 10931 26b2 A4000000 		.4byte	.LVL521
 10932 26b6 960B0000 		.4byte	0xb96
 10933 26ba D0260000 		.4byte	0x26d0
 10934 26be 0A       		.uleb128 0xa
 10935 26bf 01       		.uleb128 0x1
 10936 26c0 50       		.byte	0x50
 10937 26c1 01       		.uleb128 0x1
 10938 26c2 34       		.byte	0x34
 10939 26c3 0A       		.uleb128 0xa
 10940 26c4 01       		.uleb128 0x1
 10941 26c5 51       		.byte	0x51
 10942 26c6 02       		.uleb128 0x2
 10943 26c7 74       		.byte	0x74
 10944 26c8 00       		.sleb128 0
ARM GAS  C:\Users\Revanth\AppData\Local\Temp\ccSEzD1d.s 			page 238


 10945 26c9 0A       		.uleb128 0xa
 10946 26ca 01       		.uleb128 0x1
 10947 26cb 52       		.byte	0x52
 10948 26cc 02       		.uleb128 0x2
 10949 26cd 75       		.byte	0x75
 10950 26ce 00       		.sleb128 0
 10951 26cf 00       		.byte	0
 10952 26d0 09       		.uleb128 0x9
 10953 26d1 AA000000 		.4byte	.LVL522
 10954 26d5 81380000 		.4byte	0x3881
 10955 26d9 E4260000 		.4byte	0x26e4
 10956 26dd 0A       		.uleb128 0xa
 10957 26de 01       		.uleb128 0x1
 10958 26df 50       		.byte	0x50
 10959 26e0 02       		.uleb128 0x2
 10960 26e1 08       		.byte	0x8
 10961 26e2 64       		.byte	0x64
 10962 26e3 00       		.byte	0
 10963 26e4 09       		.uleb128 0x9
 10964 26e5 BE000000 		.4byte	.LVL523
 10965 26e9 0B210000 		.4byte	0x210b
 10966 26ed FF260000 		.4byte	0x26ff
 10967 26f1 0A       		.uleb128 0xa
 10968 26f2 01       		.uleb128 0x1
 10969 26f3 50       		.byte	0x50
 10970 26f4 03       		.uleb128 0x3
 10971 26f5 0A       		.byte	0xa
 10972 26f6 00C8     		.2byte	0xc800
 10973 26f8 0A       		.uleb128 0xa
 10974 26f9 01       		.uleb128 0x1
 10975 26fa 51       		.byte	0x51
 10976 26fb 02       		.uleb128 0x2
 10977 26fc 74       		.byte	0x74
 10978 26fd 00       		.sleb128 0
 10979 26fe 00       		.byte	0
 10980 26ff 09       		.uleb128 0x9
 10981 2700 C8000000 		.4byte	.LVL524
 10982 2704 2C0E0000 		.4byte	0xe2c
 10983 2708 1E270000 		.4byte	0x271e
 10984 270c 0A       		.uleb128 0xa
 10985 270d 01       		.uleb128 0x1
 10986 270e 50       		.byte	0x50
 10987 270f 02       		.uleb128 0x2
 10988 2710 08       		.byte	0x8
 10989 2711 20       		.byte	0x20
 10990 2712 0A       		.uleb128 0xa
 10991 2713 01       		.uleb128 0x1
 10992 2714 51       		.byte	0x51
 10993 2715 01       		.uleb128 0x1
 10994 2716 32       		.byte	0x32
 10995 2717 0A       		.uleb128 0xa
 10996 2718 01       		.uleb128 0x1
 10997 2719 52       		.byte	0x52
 10998 271a 02       		.uleb128 0x2
 10999 271b 74       		.byte	0x74
 11000 271c 00       		.sleb128 0
 11001 271d 00       		.byte	0
ARM GAS  C:\Users\Revanth\AppData\Local\Temp\ccSEzD1d.s 			page 239


 11002 271e 09       		.uleb128 0x9
 11003 271f CE000000 		.4byte	.LVL525
 11004 2723 81380000 		.4byte	0x3881
 11005 2727 32270000 		.4byte	0x2732
 11006 272b 0A       		.uleb128 0xa
 11007 272c 01       		.uleb128 0x1
 11008 272d 50       		.byte	0x50
 11009 272e 02       		.uleb128 0x2
 11010 272f 08       		.byte	0x8
 11011 2730 C8       		.byte	0xc8
 11012 2731 00       		.byte	0
 11013 2732 09       		.uleb128 0x9
 11014 2733 DA000000 		.4byte	.LVL526
 11015 2737 960B0000 		.4byte	0xb96
 11016 273b 51270000 		.4byte	0x2751
 11017 273f 0A       		.uleb128 0xa
 11018 2740 01       		.uleb128 0x1
 11019 2741 50       		.byte	0x50
 11020 2742 01       		.uleb128 0x1
 11021 2743 34       		.byte	0x34
 11022 2744 0A       		.uleb128 0xa
 11023 2745 01       		.uleb128 0x1
 11024 2746 51       		.byte	0x51
 11025 2747 02       		.uleb128 0x2
 11026 2748 74       		.byte	0x74
 11027 2749 00       		.sleb128 0
 11028 274a 0A       		.uleb128 0xa
 11029 274b 01       		.uleb128 0x1
 11030 274c 52       		.byte	0x52
 11031 274d 02       		.uleb128 0x2
 11032 274e 75       		.byte	0x75
 11033 274f 00       		.sleb128 0
 11034 2750 00       		.byte	0
 11035 2751 09       		.uleb128 0x9
 11036 2752 E2000000 		.4byte	.LVL527
 11037 2756 81380000 		.4byte	0x3881
 11038 275a 66270000 		.4byte	0x2766
 11039 275e 0A       		.uleb128 0xa
 11040 275f 01       		.uleb128 0x1
 11041 2760 50       		.byte	0x50
 11042 2761 03       		.uleb128 0x3
 11043 2762 0A       		.byte	0xa
 11044 2763 F401     		.2byte	0x1f4
 11045 2765 00       		.byte	0
 11046 2766 09       		.uleb128 0x9
 11047 2767 EC000000 		.4byte	.LVL528
 11048 276b 960B0000 		.4byte	0xb96
 11049 276f 85270000 		.4byte	0x2785
 11050 2773 0A       		.uleb128 0xa
 11051 2774 01       		.uleb128 0x1
 11052 2775 50       		.byte	0x50
 11053 2776 01       		.uleb128 0x1
 11054 2777 34       		.byte	0x34
 11055 2778 0A       		.uleb128 0xa
 11056 2779 01       		.uleb128 0x1
 11057 277a 51       		.byte	0x51
 11058 277b 02       		.uleb128 0x2
ARM GAS  C:\Users\Revanth\AppData\Local\Temp\ccSEzD1d.s 			page 240


 11059 277c 74       		.byte	0x74
 11060 277d 00       		.sleb128 0
 11061 277e 0A       		.uleb128 0xa
 11062 277f 01       		.uleb128 0x1
 11063 2780 52       		.byte	0x52
 11064 2781 02       		.uleb128 0x2
 11065 2782 75       		.byte	0x75
 11066 2783 00       		.sleb128 0
 11067 2784 00       		.byte	0
 11068 2785 09       		.uleb128 0x9
 11069 2786 F8000000 		.4byte	.LVL529
 11070 278a 960B0000 		.4byte	0xb96
 11071 278e A4270000 		.4byte	0x27a4
 11072 2792 0A       		.uleb128 0xa
 11073 2793 01       		.uleb128 0x1
 11074 2794 50       		.byte	0x50
 11075 2795 01       		.uleb128 0x1
 11076 2796 34       		.byte	0x34
 11077 2797 0A       		.uleb128 0xa
 11078 2798 01       		.uleb128 0x1
 11079 2799 51       		.byte	0x51
 11080 279a 02       		.uleb128 0x2
 11081 279b 74       		.byte	0x74
 11082 279c 00       		.sleb128 0
 11083 279d 0A       		.uleb128 0xa
 11084 279e 01       		.uleb128 0x1
 11085 279f 52       		.byte	0x52
 11086 27a0 02       		.uleb128 0x2
 11087 27a1 75       		.byte	0x75
 11088 27a2 00       		.sleb128 0
 11089 27a3 00       		.byte	0
 11090 27a4 09       		.uleb128 0x9
 11091 27a5 FE000000 		.4byte	.LVL530
 11092 27a9 81380000 		.4byte	0x3881
 11093 27ad B8270000 		.4byte	0x27b8
 11094 27b1 0A       		.uleb128 0xa
 11095 27b2 01       		.uleb128 0x1
 11096 27b3 50       		.byte	0x50
 11097 27b4 02       		.uleb128 0x2
 11098 27b5 08       		.byte	0x8
 11099 27b6 64       		.byte	0x64
 11100 27b7 00       		.byte	0
 11101 27b8 09       		.uleb128 0x9
 11102 27b9 12010000 		.4byte	.LVL531
 11103 27bd 2C0E0000 		.4byte	0xe2c
 11104 27c1 D7270000 		.4byte	0x27d7
 11105 27c5 0A       		.uleb128 0xa
 11106 27c6 01       		.uleb128 0x1
 11107 27c7 50       		.byte	0x50
 11108 27c8 02       		.uleb128 0x2
 11109 27c9 08       		.byte	0x8
 11110 27ca 21       		.byte	0x21
 11111 27cb 0A       		.uleb128 0xa
 11112 27cc 01       		.uleb128 0x1
 11113 27cd 51       		.byte	0x51
 11114 27ce 01       		.uleb128 0x1
 11115 27cf 30       		.byte	0x30
ARM GAS  C:\Users\Revanth\AppData\Local\Temp\ccSEzD1d.s 			page 241


 11116 27d0 0A       		.uleb128 0xa
 11117 27d1 01       		.uleb128 0x1
 11118 27d2 52       		.byte	0x52
 11119 27d3 02       		.uleb128 0x2
 11120 27d4 74       		.byte	0x74
 11121 27d5 00       		.sleb128 0
 11122 27d6 00       		.byte	0
 11123 27d7 09       		.uleb128 0x9
 11124 27d8 18010000 		.4byte	.LVL532
 11125 27dc 56390000 		.4byte	0x3956
 11126 27e0 EA270000 		.4byte	0x27ea
 11127 27e4 0A       		.uleb128 0xa
 11128 27e5 01       		.uleb128 0x1
 11129 27e6 50       		.byte	0x50
 11130 27e7 01       		.uleb128 0x1
 11131 27e8 30       		.byte	0x30
 11132 27e9 00       		.byte	0
 11133 27ea 09       		.uleb128 0x9
 11134 27eb 1E010000 		.4byte	.LVL533
 11135 27ef 81380000 		.4byte	0x3881
 11136 27f3 FE270000 		.4byte	0x27fe
 11137 27f7 0A       		.uleb128 0xa
 11138 27f8 01       		.uleb128 0x1
 11139 27f9 50       		.byte	0x50
 11140 27fa 02       		.uleb128 0x2
 11141 27fb 08       		.byte	0x8
 11142 27fc 64       		.byte	0x64
 11143 27fd 00       		.byte	0
 11144 27fe 09       		.uleb128 0x9
 11145 27ff 26010000 		.4byte	.LVL534
 11146 2803 671A0000 		.4byte	0x1a67
 11147 2807 13280000 		.4byte	0x2813
 11148 280b 0A       		.uleb128 0xa
 11149 280c 01       		.uleb128 0x1
 11150 280d 50       		.byte	0x50
 11151 280e 03       		.uleb128 0x3
 11152 280f 0A       		.byte	0xa
 11153 2810 00C8     		.2byte	0xc800
 11154 2812 00       		.byte	0
 11155 2813 09       		.uleb128 0x9
 11156 2814 32010000 		.4byte	.LVL535
 11157 2818 81380000 		.4byte	0x3881
 11158 281c 27280000 		.4byte	0x2827
 11159 2820 0A       		.uleb128 0xa
 11160 2821 01       		.uleb128 0x1
 11161 2822 50       		.byte	0x50
 11162 2823 02       		.uleb128 0x2
 11163 2824 08       		.byte	0x8
 11164 2825 64       		.byte	0x64
 11165 2826 00       		.byte	0
 11166 2827 09       		.uleb128 0x9
 11167 2828 3C010000 		.4byte	.LVL536
 11168 282c 2C0E0000 		.4byte	0xe2c
 11169 2830 47280000 		.4byte	0x2847
 11170 2834 0A       		.uleb128 0xa
 11171 2835 01       		.uleb128 0x1
 11172 2836 50       		.byte	0x50
ARM GAS  C:\Users\Revanth\AppData\Local\Temp\ccSEzD1d.s 			page 242


 11173 2837 02       		.uleb128 0x2
 11174 2838 08       		.byte	0x8
 11175 2839 21       		.byte	0x21
 11176 283a 0A       		.uleb128 0xa
 11177 283b 01       		.uleb128 0x1
 11178 283c 51       		.byte	0x51
 11179 283d 02       		.uleb128 0x2
 11180 283e 75       		.byte	0x75
 11181 283f 00       		.sleb128 0
 11182 2840 0A       		.uleb128 0xa
 11183 2841 01       		.uleb128 0x1
 11184 2842 52       		.byte	0x52
 11185 2843 02       		.uleb128 0x2
 11186 2844 74       		.byte	0x74
 11187 2845 00       		.sleb128 0
 11188 2846 00       		.byte	0
 11189 2847 09       		.uleb128 0x9
 11190 2848 46010000 		.4byte	.LVL537
 11191 284c 2C0E0000 		.4byte	0xe2c
 11192 2850 67280000 		.4byte	0x2867
 11193 2854 0A       		.uleb128 0xa
 11194 2855 01       		.uleb128 0x1
 11195 2856 50       		.byte	0x50
 11196 2857 02       		.uleb128 0x2
 11197 2858 08       		.byte	0x8
 11198 2859 2D       		.byte	0x2d
 11199 285a 0A       		.uleb128 0xa
 11200 285b 01       		.uleb128 0x1
 11201 285c 51       		.byte	0x51
 11202 285d 02       		.uleb128 0x2
 11203 285e 75       		.byte	0x75
 11204 285f 00       		.sleb128 0
 11205 2860 0A       		.uleb128 0xa
 11206 2861 01       		.uleb128 0x1
 11207 2862 52       		.byte	0x52
 11208 2863 02       		.uleb128 0x2
 11209 2864 74       		.byte	0x74
 11210 2865 00       		.sleb128 0
 11211 2866 00       		.byte	0
 11212 2867 09       		.uleb128 0x9
 11213 2868 4E010000 		.4byte	.LVL538
 11214 286c 0B210000 		.4byte	0x210b
 11215 2870 84280000 		.4byte	0x2884
 11216 2874 0A       		.uleb128 0xa
 11217 2875 01       		.uleb128 0x1
 11218 2876 50       		.byte	0x50
 11219 2877 05       		.uleb128 0x5
 11220 2878 0C       		.byte	0xc
 11221 2879 C3A50700 		.4byte	0x7a5c3
 11222 287d 0A       		.uleb128 0xa
 11223 287e 01       		.uleb128 0x1
 11224 287f 51       		.byte	0x51
 11225 2880 02       		.uleb128 0x2
 11226 2881 74       		.byte	0x74
 11227 2882 00       		.sleb128 0
 11228 2883 00       		.byte	0
 11229 2884 09       		.uleb128 0x9
ARM GAS  C:\Users\Revanth\AppData\Local\Temp\ccSEzD1d.s 			page 243


 11230 2885 54010000 		.4byte	.LVL539
 11231 2889 56390000 		.4byte	0x3956
 11232 288d 98280000 		.4byte	0x2898
 11233 2891 0A       		.uleb128 0xa
 11234 2892 01       		.uleb128 0x1
 11235 2893 50       		.byte	0x50
 11236 2894 02       		.uleb128 0x2
 11237 2895 75       		.byte	0x75
 11238 2896 00       		.sleb128 0
 11239 2897 00       		.byte	0
 11240 2898 0B       		.uleb128 0xb
 11241 2899 62010000 		.4byte	.LVL540
 11242 289d CB030000 		.4byte	0x3cb
 11243 28a1 0A       		.uleb128 0xa
 11244 28a2 01       		.uleb128 0x1
 11245 28a3 50       		.byte	0x50
 11246 28a4 05       		.uleb128 0x5
 11247 28a5 03       		.byte	0x3
 11248 28a6 94040000 		.4byte	.LC38
 11249 28aa 00       		.byte	0
 11250 28ab 00       		.byte	0
 11251 28ac 19       		.uleb128 0x19
 11252 28ad CE040000 		.4byte	.LASF92
 11253 28b1 01       		.byte	0x1
 11254 28b2 E0       		.byte	0xe0
 11255 28b3 00000000 		.4byte	.LFB67
 11256 28b7 94010000 		.4byte	.LFE67-.LFB67
 11257 28bb 01       		.uleb128 0x1
 11258 28bc 9C       		.byte	0x9c
 11259 28bd 722C0000 		.4byte	0x2c72
 11260 28c1 1B       		.uleb128 0x1b
 11261 28c2 4A060000 		.4byte	.LASF54
 11262 28c6 01       		.byte	0x1
 11263 28c7 E0       		.byte	0xe0
 11264 28c8 8C000000 		.4byte	0x8c
 11265 28cc A0090000 		.4byte	.LLST54
 11266 28d0 09       		.uleb128 0x9
 11267 28d1 0E000000 		.4byte	.LVL543
 11268 28d5 0B210000 		.4byte	0x210b
 11269 28d9 EB280000 		.4byte	0x28eb
 11270 28dd 0A       		.uleb128 0xa
 11271 28de 01       		.uleb128 0x1
 11272 28df 50       		.byte	0x50
 11273 28e0 03       		.uleb128 0x3
 11274 28e1 49       		.byte	0x49
 11275 28e2 3C       		.byte	0x3c
 11276 28e3 24       		.byte	0x24
 11277 28e4 0A       		.uleb128 0xa
 11278 28e5 01       		.uleb128 0x1
 11279 28e6 51       		.byte	0x51
 11280 28e7 02       		.uleb128 0x2
 11281 28e8 74       		.byte	0x74
 11282 28e9 00       		.sleb128 0
 11283 28ea 00       		.byte	0
 11284 28eb 08       		.uleb128 0x8
 11285 28ec 18000000 		.4byte	.LVL544
 11286 28f0 62020000 		.4byte	0x262
ARM GAS  C:\Users\Revanth\AppData\Local\Temp\ccSEzD1d.s 			page 244


 11287 28f4 09       		.uleb128 0x9
 11288 28f5 22000000 		.4byte	.LVL545
 11289 28f9 2C0E0000 		.4byte	0xe2c
 11290 28fd 13290000 		.4byte	0x2913
 11291 2901 0A       		.uleb128 0xa
 11292 2902 01       		.uleb128 0x1
 11293 2903 50       		.byte	0x50
 11294 2904 02       		.uleb128 0x2
 11295 2905 08       		.byte	0x8
 11296 2906 20       		.byte	0x20
 11297 2907 0A       		.uleb128 0xa
 11298 2908 01       		.uleb128 0x1
 11299 2909 51       		.byte	0x51
 11300 290a 01       		.uleb128 0x1
 11301 290b 32       		.byte	0x32
 11302 290c 0A       		.uleb128 0xa
 11303 290d 01       		.uleb128 0x1
 11304 290e 52       		.byte	0x52
 11305 290f 02       		.uleb128 0x2
 11306 2910 74       		.byte	0x74
 11307 2911 00       		.sleb128 0
 11308 2912 00       		.byte	0
 11309 2913 09       		.uleb128 0x9
 11310 2914 28000000 		.4byte	.LVL546
 11311 2918 81380000 		.4byte	0x3881
 11312 291c 27290000 		.4byte	0x2927
 11313 2920 0A       		.uleb128 0xa
 11314 2921 01       		.uleb128 0x1
 11315 2922 50       		.byte	0x50
 11316 2923 02       		.uleb128 0x2
 11317 2924 08       		.byte	0x8
 11318 2925 32       		.byte	0x32
 11319 2926 00       		.byte	0
 11320 2927 09       		.uleb128 0x9
 11321 2928 34000000 		.4byte	.LVL547
 11322 292c 960B0000 		.4byte	0xb96
 11323 2930 46290000 		.4byte	0x2946
 11324 2934 0A       		.uleb128 0xa
 11325 2935 01       		.uleb128 0x1
 11326 2936 50       		.byte	0x50
 11327 2937 01       		.uleb128 0x1
 11328 2938 34       		.byte	0x34
 11329 2939 0A       		.uleb128 0xa
 11330 293a 01       		.uleb128 0x1
 11331 293b 51       		.byte	0x51
 11332 293c 02       		.uleb128 0x2
 11333 293d 74       		.byte	0x74
 11334 293e 00       		.sleb128 0
 11335 293f 0A       		.uleb128 0xa
 11336 2940 01       		.uleb128 0x1
 11337 2941 52       		.byte	0x52
 11338 2942 02       		.uleb128 0x2
 11339 2943 75       		.byte	0x75
 11340 2944 00       		.sleb128 0
 11341 2945 00       		.byte	0
 11342 2946 09       		.uleb128 0x9
 11343 2947 3C000000 		.4byte	.LVL548
ARM GAS  C:\Users\Revanth\AppData\Local\Temp\ccSEzD1d.s 			page 245


 11344 294b 81380000 		.4byte	0x3881
 11345 294f 5B290000 		.4byte	0x295b
 11346 2953 0A       		.uleb128 0xa
 11347 2954 01       		.uleb128 0x1
 11348 2955 50       		.byte	0x50
 11349 2956 03       		.uleb128 0x3
 11350 2957 0A       		.byte	0xa
 11351 2958 F401     		.2byte	0x1f4
 11352 295a 00       		.byte	0
 11353 295b 09       		.uleb128 0x9
 11354 295c 46000000 		.4byte	.LVL549
 11355 2960 960B0000 		.4byte	0xb96
 11356 2964 7A290000 		.4byte	0x297a
 11357 2968 0A       		.uleb128 0xa
 11358 2969 01       		.uleb128 0x1
 11359 296a 50       		.byte	0x50
 11360 296b 01       		.uleb128 0x1
 11361 296c 34       		.byte	0x34
 11362 296d 0A       		.uleb128 0xa
 11363 296e 01       		.uleb128 0x1
 11364 296f 51       		.byte	0x51
 11365 2970 02       		.uleb128 0x2
 11366 2971 74       		.byte	0x74
 11367 2972 00       		.sleb128 0
 11368 2973 0A       		.uleb128 0xa
 11369 2974 01       		.uleb128 0x1
 11370 2975 52       		.byte	0x52
 11371 2976 02       		.uleb128 0x2
 11372 2977 75       		.byte	0x75
 11373 2978 00       		.sleb128 0
 11374 2979 00       		.byte	0
 11375 297a 09       		.uleb128 0x9
 11376 297b 52000000 		.4byte	.LVL550
 11377 297f 960B0000 		.4byte	0xb96
 11378 2983 99290000 		.4byte	0x2999
 11379 2987 0A       		.uleb128 0xa
 11380 2988 01       		.uleb128 0x1
 11381 2989 50       		.byte	0x50
 11382 298a 01       		.uleb128 0x1
 11383 298b 34       		.byte	0x34
 11384 298c 0A       		.uleb128 0xa
 11385 298d 01       		.uleb128 0x1
 11386 298e 51       		.byte	0x51
 11387 298f 02       		.uleb128 0x2
 11388 2990 74       		.byte	0x74
 11389 2991 00       		.sleb128 0
 11390 2992 0A       		.uleb128 0xa
 11391 2993 01       		.uleb128 0x1
 11392 2994 52       		.byte	0x52
 11393 2995 02       		.uleb128 0x2
 11394 2996 75       		.byte	0x75
 11395 2997 00       		.sleb128 0
 11396 2998 00       		.byte	0
 11397 2999 09       		.uleb128 0x9
 11398 299a 58000000 		.4byte	.LVL551
 11399 299e 81380000 		.4byte	0x3881
 11400 29a2 AD290000 		.4byte	0x29ad
ARM GAS  C:\Users\Revanth\AppData\Local\Temp\ccSEzD1d.s 			page 246


 11401 29a6 0A       		.uleb128 0xa
 11402 29a7 01       		.uleb128 0x1
 11403 29a8 50       		.byte	0x50
 11404 29a9 02       		.uleb128 0x2
 11405 29aa 08       		.byte	0x8
 11406 29ab 64       		.byte	0x64
 11407 29ac 00       		.byte	0
 11408 29ad 09       		.uleb128 0x9
 11409 29ae 6C000000 		.4byte	.LVL552
 11410 29b2 2C0E0000 		.4byte	0xe2c
 11411 29b6 CC290000 		.4byte	0x29cc
 11412 29ba 0A       		.uleb128 0xa
 11413 29bb 01       		.uleb128 0x1
 11414 29bc 50       		.byte	0x50
 11415 29bd 02       		.uleb128 0x2
 11416 29be 08       		.byte	0x8
 11417 29bf 21       		.byte	0x21
 11418 29c0 0A       		.uleb128 0xa
 11419 29c1 01       		.uleb128 0x1
 11420 29c2 51       		.byte	0x51
 11421 29c3 01       		.uleb128 0x1
 11422 29c4 30       		.byte	0x30
 11423 29c5 0A       		.uleb128 0xa
 11424 29c6 01       		.uleb128 0x1
 11425 29c7 52       		.byte	0x52
 11426 29c8 02       		.uleb128 0x2
 11427 29c9 74       		.byte	0x74
 11428 29ca 00       		.sleb128 0
 11429 29cb 00       		.byte	0
 11430 29cc 09       		.uleb128 0x9
 11431 29cd 72000000 		.4byte	.LVL553
 11432 29d1 62020000 		.4byte	0x262
 11433 29d5 DF290000 		.4byte	0x29df
 11434 29d9 0A       		.uleb128 0xa
 11435 29da 01       		.uleb128 0x1
 11436 29db 50       		.byte	0x50
 11437 29dc 01       		.uleb128 0x1
 11438 29dd 30       		.byte	0x30
 11439 29de 00       		.byte	0
 11440 29df 09       		.uleb128 0x9
 11441 29e0 7E000000 		.4byte	.LVL554
 11442 29e4 81380000 		.4byte	0x3881
 11443 29e8 F2290000 		.4byte	0x29f2
 11444 29ec 0A       		.uleb128 0xa
 11445 29ed 01       		.uleb128 0x1
 11446 29ee 50       		.byte	0x50
 11447 29ef 01       		.uleb128 0x1
 11448 29f0 3A       		.byte	0x3a
 11449 29f1 00       		.byte	0
 11450 29f2 09       		.uleb128 0x9
 11451 29f3 88000000 		.4byte	.LVL555
 11452 29f7 170F0000 		.4byte	0xf17
 11453 29fb 0E2A0000 		.4byte	0x2a0e
 11454 29ff 0A       		.uleb128 0xa
 11455 2a00 01       		.uleb128 0x1
 11456 2a01 50       		.byte	0x50
 11457 2a02 04       		.uleb128 0x4
ARM GAS  C:\Users\Revanth\AppData\Local\Temp\ccSEzD1d.s 			page 247


 11458 2a03 08       		.byte	0x8
 11459 2a04 96       		.byte	0x96
 11460 2a05 3A       		.byte	0x3a
 11461 2a06 24       		.byte	0x24
 11462 2a07 0A       		.uleb128 0xa
 11463 2a08 01       		.uleb128 0x1
 11464 2a09 51       		.byte	0x51
 11465 2a0a 02       		.uleb128 0x2
 11466 2a0b 74       		.byte	0x74
 11467 2a0c 00       		.sleb128 0
 11468 2a0d 00       		.byte	0
 11469 2a0e 09       		.uleb128 0x9
 11470 2a0f 90000000 		.4byte	.LVL556
 11471 2a13 81380000 		.4byte	0x3881
 11472 2a17 232A0000 		.4byte	0x2a23
 11473 2a1b 0A       		.uleb128 0xa
 11474 2a1c 01       		.uleb128 0x1
 11475 2a1d 50       		.byte	0x50
 11476 2a1e 03       		.uleb128 0x3
 11477 2a1f 0A       		.byte	0xa
 11478 2a20 F401     		.2byte	0x1f4
 11479 2a22 00       		.byte	0
 11480 2a23 09       		.uleb128 0x9
 11481 2a24 9C000000 		.4byte	.LVL557
 11482 2a28 960B0000 		.4byte	0xb96
 11483 2a2c 422A0000 		.4byte	0x2a42
 11484 2a30 0A       		.uleb128 0xa
 11485 2a31 01       		.uleb128 0x1
 11486 2a32 50       		.byte	0x50
 11487 2a33 01       		.uleb128 0x1
 11488 2a34 34       		.byte	0x34
 11489 2a35 0A       		.uleb128 0xa
 11490 2a36 01       		.uleb128 0x1
 11491 2a37 51       		.byte	0x51
 11492 2a38 02       		.uleb128 0x2
 11493 2a39 74       		.byte	0x74
 11494 2a3a 00       		.sleb128 0
 11495 2a3b 0A       		.uleb128 0xa
 11496 2a3c 01       		.uleb128 0x1
 11497 2a3d 52       		.byte	0x52
 11498 2a3e 02       		.uleb128 0x2
 11499 2a3f 75       		.byte	0x75
 11500 2a40 00       		.sleb128 0
 11501 2a41 00       		.byte	0
 11502 2a42 09       		.uleb128 0x9
 11503 2a43 A4000000 		.4byte	.LVL558
 11504 2a47 81380000 		.4byte	0x3881
 11505 2a4b 572A0000 		.4byte	0x2a57
 11506 2a4f 0A       		.uleb128 0xa
 11507 2a50 01       		.uleb128 0x1
 11508 2a51 50       		.byte	0x50
 11509 2a52 03       		.uleb128 0x3
 11510 2a53 0A       		.byte	0xa
 11511 2a54 F401     		.2byte	0x1f4
 11512 2a56 00       		.byte	0
 11513 2a57 09       		.uleb128 0x9
 11514 2a58 AE000000 		.4byte	.LVL559
ARM GAS  C:\Users\Revanth\AppData\Local\Temp\ccSEzD1d.s 			page 248


 11515 2a5c 960B0000 		.4byte	0xb96
 11516 2a60 762A0000 		.4byte	0x2a76
 11517 2a64 0A       		.uleb128 0xa
 11518 2a65 01       		.uleb128 0x1
 11519 2a66 50       		.byte	0x50
 11520 2a67 01       		.uleb128 0x1
 11521 2a68 34       		.byte	0x34
 11522 2a69 0A       		.uleb128 0xa
 11523 2a6a 01       		.uleb128 0x1
 11524 2a6b 51       		.byte	0x51
 11525 2a6c 02       		.uleb128 0x2
 11526 2a6d 74       		.byte	0x74
 11527 2a6e 00       		.sleb128 0
 11528 2a6f 0A       		.uleb128 0xa
 11529 2a70 01       		.uleb128 0x1
 11530 2a71 52       		.byte	0x52
 11531 2a72 02       		.uleb128 0x2
 11532 2a73 75       		.byte	0x75
 11533 2a74 00       		.sleb128 0
 11534 2a75 00       		.byte	0
 11535 2a76 09       		.uleb128 0x9
 11536 2a77 BA000000 		.4byte	.LVL560
 11537 2a7b 960B0000 		.4byte	0xb96
 11538 2a7f 952A0000 		.4byte	0x2a95
 11539 2a83 0A       		.uleb128 0xa
 11540 2a84 01       		.uleb128 0x1
 11541 2a85 50       		.byte	0x50
 11542 2a86 01       		.uleb128 0x1
 11543 2a87 34       		.byte	0x34
 11544 2a88 0A       		.uleb128 0xa
 11545 2a89 01       		.uleb128 0x1
 11546 2a8a 51       		.byte	0x51
 11547 2a8b 02       		.uleb128 0x2
 11548 2a8c 74       		.byte	0x74
 11549 2a8d 00       		.sleb128 0
 11550 2a8e 0A       		.uleb128 0xa
 11551 2a8f 01       		.uleb128 0x1
 11552 2a90 52       		.byte	0x52
 11553 2a91 02       		.uleb128 0x2
 11554 2a92 75       		.byte	0x75
 11555 2a93 00       		.sleb128 0
 11556 2a94 00       		.byte	0
 11557 2a95 09       		.uleb128 0x9
 11558 2a96 C0000000 		.4byte	.LVL561
 11559 2a9a 81380000 		.4byte	0x3881
 11560 2a9e A92A0000 		.4byte	0x2aa9
 11561 2aa2 0A       		.uleb128 0xa
 11562 2aa3 01       		.uleb128 0x1
 11563 2aa4 50       		.byte	0x50
 11564 2aa5 02       		.uleb128 0x2
 11565 2aa6 08       		.byte	0x8
 11566 2aa7 64       		.byte	0x64
 11567 2aa8 00       		.byte	0
 11568 2aa9 09       		.uleb128 0x9
 11569 2aaa D4000000 		.4byte	.LVL562
 11570 2aae 0B210000 		.4byte	0x210b
 11571 2ab2 C42A0000 		.4byte	0x2ac4
ARM GAS  C:\Users\Revanth\AppData\Local\Temp\ccSEzD1d.s 			page 249


 11572 2ab6 0A       		.uleb128 0xa
 11573 2ab7 01       		.uleb128 0x1
 11574 2ab8 50       		.byte	0x50
 11575 2ab9 03       		.uleb128 0x3
 11576 2aba 49       		.byte	0x49
 11577 2abb 3C       		.byte	0x3c
 11578 2abc 24       		.byte	0x24
 11579 2abd 0A       		.uleb128 0xa
 11580 2abe 01       		.uleb128 0x1
 11581 2abf 51       		.byte	0x51
 11582 2ac0 02       		.uleb128 0x2
 11583 2ac1 74       		.byte	0x74
 11584 2ac2 00       		.sleb128 0
 11585 2ac3 00       		.byte	0
 11586 2ac4 09       		.uleb128 0x9
 11587 2ac5 DE000000 		.4byte	.LVL563
 11588 2ac9 2C0E0000 		.4byte	0xe2c
 11589 2acd E32A0000 		.4byte	0x2ae3
 11590 2ad1 0A       		.uleb128 0xa
 11591 2ad2 01       		.uleb128 0x1
 11592 2ad3 50       		.byte	0x50
 11593 2ad4 02       		.uleb128 0x2
 11594 2ad5 08       		.byte	0x8
 11595 2ad6 20       		.byte	0x20
 11596 2ad7 0A       		.uleb128 0xa
 11597 2ad8 01       		.uleb128 0x1
 11598 2ad9 51       		.byte	0x51
 11599 2ada 01       		.uleb128 0x1
 11600 2adb 32       		.byte	0x32
 11601 2adc 0A       		.uleb128 0xa
 11602 2add 01       		.uleb128 0x1
 11603 2ade 52       		.byte	0x52
 11604 2adf 02       		.uleb128 0x2
 11605 2ae0 74       		.byte	0x74
 11606 2ae1 00       		.sleb128 0
 11607 2ae2 00       		.byte	0
 11608 2ae3 09       		.uleb128 0x9
 11609 2ae4 E4000000 		.4byte	.LVL564
 11610 2ae8 81380000 		.4byte	0x3881
 11611 2aec F72A0000 		.4byte	0x2af7
 11612 2af0 0A       		.uleb128 0xa
 11613 2af1 01       		.uleb128 0x1
 11614 2af2 50       		.byte	0x50
 11615 2af3 02       		.uleb128 0x2
 11616 2af4 08       		.byte	0x8
 11617 2af5 C8       		.byte	0xc8
 11618 2af6 00       		.byte	0
 11619 2af7 09       		.uleb128 0x9
 11620 2af8 F0000000 		.4byte	.LVL565
 11621 2afc 960B0000 		.4byte	0xb96
 11622 2b00 162B0000 		.4byte	0x2b16
 11623 2b04 0A       		.uleb128 0xa
 11624 2b05 01       		.uleb128 0x1
 11625 2b06 50       		.byte	0x50
 11626 2b07 01       		.uleb128 0x1
 11627 2b08 34       		.byte	0x34
 11628 2b09 0A       		.uleb128 0xa
ARM GAS  C:\Users\Revanth\AppData\Local\Temp\ccSEzD1d.s 			page 250


 11629 2b0a 01       		.uleb128 0x1
 11630 2b0b 51       		.byte	0x51
 11631 2b0c 02       		.uleb128 0x2
 11632 2b0d 74       		.byte	0x74
 11633 2b0e 00       		.sleb128 0
 11634 2b0f 0A       		.uleb128 0xa
 11635 2b10 01       		.uleb128 0x1
 11636 2b11 52       		.byte	0x52
 11637 2b12 02       		.uleb128 0x2
 11638 2b13 75       		.byte	0x75
 11639 2b14 00       		.sleb128 0
 11640 2b15 00       		.byte	0
 11641 2b16 09       		.uleb128 0x9
 11642 2b17 F8000000 		.4byte	.LVL566
 11643 2b1b 81380000 		.4byte	0x3881
 11644 2b1f 2B2B0000 		.4byte	0x2b2b
 11645 2b23 0A       		.uleb128 0xa
 11646 2b24 01       		.uleb128 0x1
 11647 2b25 50       		.byte	0x50
 11648 2b26 03       		.uleb128 0x3
 11649 2b27 0A       		.byte	0xa
 11650 2b28 F401     		.2byte	0x1f4
 11651 2b2a 00       		.byte	0
 11652 2b2b 09       		.uleb128 0x9
 11653 2b2c 02010000 		.4byte	.LVL567
 11654 2b30 960B0000 		.4byte	0xb96
 11655 2b34 4A2B0000 		.4byte	0x2b4a
 11656 2b38 0A       		.uleb128 0xa
 11657 2b39 01       		.uleb128 0x1
 11658 2b3a 50       		.byte	0x50
 11659 2b3b 01       		.uleb128 0x1
 11660 2b3c 34       		.byte	0x34
 11661 2b3d 0A       		.uleb128 0xa
 11662 2b3e 01       		.uleb128 0x1
 11663 2b3f 51       		.byte	0x51
 11664 2b40 02       		.uleb128 0x2
 11665 2b41 74       		.byte	0x74
 11666 2b42 00       		.sleb128 0
 11667 2b43 0A       		.uleb128 0xa
 11668 2b44 01       		.uleb128 0x1
 11669 2b45 52       		.byte	0x52
 11670 2b46 02       		.uleb128 0x2
 11671 2b47 75       		.byte	0x75
 11672 2b48 00       		.sleb128 0
 11673 2b49 00       		.byte	0
 11674 2b4a 09       		.uleb128 0x9
 11675 2b4b 0E010000 		.4byte	.LVL568
 11676 2b4f 960B0000 		.4byte	0xb96
 11677 2b53 692B0000 		.4byte	0x2b69
 11678 2b57 0A       		.uleb128 0xa
 11679 2b58 01       		.uleb128 0x1
 11680 2b59 50       		.byte	0x50
 11681 2b5a 01       		.uleb128 0x1
 11682 2b5b 34       		.byte	0x34
 11683 2b5c 0A       		.uleb128 0xa
 11684 2b5d 01       		.uleb128 0x1
 11685 2b5e 51       		.byte	0x51
ARM GAS  C:\Users\Revanth\AppData\Local\Temp\ccSEzD1d.s 			page 251


 11686 2b5f 02       		.uleb128 0x2
 11687 2b60 74       		.byte	0x74
 11688 2b61 00       		.sleb128 0
 11689 2b62 0A       		.uleb128 0xa
 11690 2b63 01       		.uleb128 0x1
 11691 2b64 52       		.byte	0x52
 11692 2b65 02       		.uleb128 0x2
 11693 2b66 75       		.byte	0x75
 11694 2b67 00       		.sleb128 0
 11695 2b68 00       		.byte	0
 11696 2b69 09       		.uleb128 0x9
 11697 2b6a 14010000 		.4byte	.LVL569
 11698 2b6e 81380000 		.4byte	0x3881
 11699 2b72 7D2B0000 		.4byte	0x2b7d
 11700 2b76 0A       		.uleb128 0xa
 11701 2b77 01       		.uleb128 0x1
 11702 2b78 50       		.byte	0x50
 11703 2b79 02       		.uleb128 0x2
 11704 2b7a 08       		.byte	0x8
 11705 2b7b 64       		.byte	0x64
 11706 2b7c 00       		.byte	0
 11707 2b7d 09       		.uleb128 0x9
 11708 2b7e 28010000 		.4byte	.LVL570
 11709 2b82 2C0E0000 		.4byte	0xe2c
 11710 2b86 9C2B0000 		.4byte	0x2b9c
 11711 2b8a 0A       		.uleb128 0xa
 11712 2b8b 01       		.uleb128 0x1
 11713 2b8c 50       		.byte	0x50
 11714 2b8d 02       		.uleb128 0x2
 11715 2b8e 08       		.byte	0x8
 11716 2b8f 21       		.byte	0x21
 11717 2b90 0A       		.uleb128 0xa
 11718 2b91 01       		.uleb128 0x1
 11719 2b92 51       		.byte	0x51
 11720 2b93 01       		.uleb128 0x1
 11721 2b94 30       		.byte	0x30
 11722 2b95 0A       		.uleb128 0xa
 11723 2b96 01       		.uleb128 0x1
 11724 2b97 52       		.byte	0x52
 11725 2b98 02       		.uleb128 0x2
 11726 2b99 74       		.byte	0x74
 11727 2b9a 00       		.sleb128 0
 11728 2b9b 00       		.byte	0
 11729 2b9c 09       		.uleb128 0x9
 11730 2b9d 2E010000 		.4byte	.LVL571
 11731 2ba1 62020000 		.4byte	0x262
 11732 2ba5 AF2B0000 		.4byte	0x2baf
 11733 2ba9 0A       		.uleb128 0xa
 11734 2baa 01       		.uleb128 0x1
 11735 2bab 50       		.byte	0x50
 11736 2bac 01       		.uleb128 0x1
 11737 2bad 30       		.byte	0x30
 11738 2bae 00       		.byte	0
 11739 2baf 09       		.uleb128 0x9
 11740 2bb0 3A010000 		.4byte	.LVL572
 11741 2bb4 81380000 		.4byte	0x3881
 11742 2bb8 C32B0000 		.4byte	0x2bc3
ARM GAS  C:\Users\Revanth\AppData\Local\Temp\ccSEzD1d.s 			page 252


 11743 2bbc 0A       		.uleb128 0xa
 11744 2bbd 01       		.uleb128 0x1
 11745 2bbe 50       		.byte	0x50
 11746 2bbf 02       		.uleb128 0x2
 11747 2bc0 08       		.byte	0x8
 11748 2bc1 64       		.byte	0x64
 11749 2bc2 00       		.byte	0
 11750 2bc3 09       		.uleb128 0x9
 11751 2bc4 42010000 		.4byte	.LVL573
 11752 2bc8 781C0000 		.4byte	0x1c78
 11753 2bcc D92B0000 		.4byte	0x2bd9
 11754 2bd0 0A       		.uleb128 0xa
 11755 2bd1 01       		.uleb128 0x1
 11756 2bd2 50       		.byte	0x50
 11757 2bd3 04       		.uleb128 0x4
 11758 2bd4 08       		.byte	0x8
 11759 2bd5 96       		.byte	0x96
 11760 2bd6 3A       		.byte	0x3a
 11761 2bd7 24       		.byte	0x24
 11762 2bd8 00       		.byte	0
 11763 2bd9 09       		.uleb128 0x9
 11764 2bda 4C010000 		.4byte	.LVL574
 11765 2bde 81380000 		.4byte	0x3881
 11766 2be2 ED2B0000 		.4byte	0x2bed
 11767 2be6 0A       		.uleb128 0xa
 11768 2be7 01       		.uleb128 0x1
 11769 2be8 50       		.byte	0x50
 11770 2be9 02       		.uleb128 0x2
 11771 2bea 08       		.byte	0x8
 11772 2beb 64       		.byte	0x64
 11773 2bec 00       		.byte	0
 11774 2bed 09       		.uleb128 0x9
 11775 2bee 56010000 		.4byte	.LVL575
 11776 2bf2 2C0E0000 		.4byte	0xe2c
 11777 2bf6 0D2C0000 		.4byte	0x2c0d
 11778 2bfa 0A       		.uleb128 0xa
 11779 2bfb 01       		.uleb128 0x1
 11780 2bfc 50       		.byte	0x50
 11781 2bfd 02       		.uleb128 0x2
 11782 2bfe 08       		.byte	0x8
 11783 2bff 21       		.byte	0x21
 11784 2c00 0A       		.uleb128 0xa
 11785 2c01 01       		.uleb128 0x1
 11786 2c02 51       		.byte	0x51
 11787 2c03 02       		.uleb128 0x2
 11788 2c04 75       		.byte	0x75
 11789 2c05 00       		.sleb128 0
 11790 2c06 0A       		.uleb128 0xa
 11791 2c07 01       		.uleb128 0x1
 11792 2c08 52       		.byte	0x52
 11793 2c09 02       		.uleb128 0x2
 11794 2c0a 74       		.byte	0x74
 11795 2c0b 00       		.sleb128 0
 11796 2c0c 00       		.byte	0
 11797 2c0d 09       		.uleb128 0x9
 11798 2c0e 60010000 		.4byte	.LVL576
 11799 2c12 2C0E0000 		.4byte	0xe2c
ARM GAS  C:\Users\Revanth\AppData\Local\Temp\ccSEzD1d.s 			page 253


 11800 2c16 2D2C0000 		.4byte	0x2c2d
 11801 2c1a 0A       		.uleb128 0xa
 11802 2c1b 01       		.uleb128 0x1
 11803 2c1c 50       		.byte	0x50
 11804 2c1d 02       		.uleb128 0x2
 11805 2c1e 08       		.byte	0x8
 11806 2c1f 2D       		.byte	0x2d
 11807 2c20 0A       		.uleb128 0xa
 11808 2c21 01       		.uleb128 0x1
 11809 2c22 51       		.byte	0x51
 11810 2c23 02       		.uleb128 0x2
 11811 2c24 75       		.byte	0x75
 11812 2c25 00       		.sleb128 0
 11813 2c26 0A       		.uleb128 0xa
 11814 2c27 01       		.uleb128 0x1
 11815 2c28 52       		.byte	0x52
 11816 2c29 02       		.uleb128 0x2
 11817 2c2a 74       		.byte	0x74
 11818 2c2b 00       		.sleb128 0
 11819 2c2c 00       		.byte	0
 11820 2c2d 09       		.uleb128 0x9
 11821 2c2e 68010000 		.4byte	.LVL577
 11822 2c32 0B210000 		.4byte	0x210b
 11823 2c36 4A2C0000 		.4byte	0x2c4a
 11824 2c3a 0A       		.uleb128 0xa
 11825 2c3b 01       		.uleb128 0x1
 11826 2c3c 50       		.byte	0x50
 11827 2c3d 05       		.uleb128 0x5
 11828 2c3e 0C       		.byte	0xc
 11829 2c3f C3A50700 		.4byte	0x7a5c3
 11830 2c43 0A       		.uleb128 0xa
 11831 2c44 01       		.uleb128 0x1
 11832 2c45 51       		.byte	0x51
 11833 2c46 02       		.uleb128 0x2
 11834 2c47 74       		.byte	0x74
 11835 2c48 00       		.sleb128 0
 11836 2c49 00       		.byte	0
 11837 2c4a 09       		.uleb128 0x9
 11838 2c4b 6E010000 		.4byte	.LVL578
 11839 2c4f 62020000 		.4byte	0x262
 11840 2c53 5E2C0000 		.4byte	0x2c5e
 11841 2c57 0A       		.uleb128 0xa
 11842 2c58 01       		.uleb128 0x1
 11843 2c59 50       		.byte	0x50
 11844 2c5a 02       		.uleb128 0x2
 11845 2c5b 75       		.byte	0x75
 11846 2c5c 00       		.sleb128 0
 11847 2c5d 00       		.byte	0
 11848 2c5e 0B       		.uleb128 0xb
 11849 2c5f 7A010000 		.4byte	.LVL579
 11850 2c63 CB030000 		.4byte	0x3cb
 11851 2c67 0A       		.uleb128 0xa
 11852 2c68 01       		.uleb128 0x1
 11853 2c69 50       		.byte	0x50
 11854 2c6a 05       		.uleb128 0x5
 11855 2c6b 03       		.byte	0x3
 11856 2c6c A8040000 		.4byte	.LC39
ARM GAS  C:\Users\Revanth\AppData\Local\Temp\ccSEzD1d.s 			page 254


 11857 2c70 00       		.byte	0
 11858 2c71 00       		.byte	0
 11859 2c72 0C       		.uleb128 0xc
 11860 2c73 AA040000 		.4byte	.LASF93
 11861 2c77 01       		.byte	0x1
 11862 2c78 2201     		.2byte	0x122
 11863 2c7a 00000000 		.4byte	.LFB68
 11864 2c7e 88010000 		.4byte	.LFE68-.LFB68
 11865 2c82 01       		.uleb128 0x1
 11866 2c83 9C       		.byte	0x9c
 11867 2c84 25300000 		.4byte	0x3025
 11868 2c88 0D       		.uleb128 0xd
 11869 2c89 4A060000 		.4byte	.LASF54
 11870 2c8d 01       		.byte	0x1
 11871 2c8e 2201     		.2byte	0x122
 11872 2c90 8C000000 		.4byte	0x8c
 11873 2c94 C1090000 		.4byte	.LLST55
 11874 2c98 09       		.uleb128 0x9
 11875 2c99 0E000000 		.4byte	.LVL582
 11876 2c9d 0B210000 		.4byte	0x210b
 11877 2ca1 B32C0000 		.4byte	0x2cb3
 11878 2ca5 0A       		.uleb128 0xa
 11879 2ca6 01       		.uleb128 0x1
 11880 2ca7 50       		.byte	0x50
 11881 2ca8 03       		.uleb128 0x3
 11882 2ca9 0A       		.byte	0xa
 11883 2caa 00C8     		.2byte	0xc800
 11884 2cac 0A       		.uleb128 0xa
 11885 2cad 01       		.uleb128 0x1
 11886 2cae 51       		.byte	0x51
 11887 2caf 02       		.uleb128 0x2
 11888 2cb0 74       		.byte	0x74
 11889 2cb1 00       		.sleb128 0
 11890 2cb2 00       		.byte	0
 11891 2cb3 08       		.uleb128 0x8
 11892 2cb4 18000000 		.4byte	.LVL583
 11893 2cb8 16020000 		.4byte	0x216
 11894 2cbc 09       		.uleb128 0x9
 11895 2cbd 22000000 		.4byte	.LVL584
 11896 2cc1 2C0E0000 		.4byte	0xe2c
 11897 2cc5 DB2C0000 		.4byte	0x2cdb
 11898 2cc9 0A       		.uleb128 0xa
 11899 2cca 01       		.uleb128 0x1
 11900 2ccb 50       		.byte	0x50
 11901 2ccc 02       		.uleb128 0x2
 11902 2ccd 08       		.byte	0x8
 11903 2cce 20       		.byte	0x20
 11904 2ccf 0A       		.uleb128 0xa
 11905 2cd0 01       		.uleb128 0x1
 11906 2cd1 51       		.byte	0x51
 11907 2cd2 01       		.uleb128 0x1
 11908 2cd3 32       		.byte	0x32
 11909 2cd4 0A       		.uleb128 0xa
 11910 2cd5 01       		.uleb128 0x1
 11911 2cd6 52       		.byte	0x52
 11912 2cd7 02       		.uleb128 0x2
 11913 2cd8 74       		.byte	0x74
ARM GAS  C:\Users\Revanth\AppData\Local\Temp\ccSEzD1d.s 			page 255


 11914 2cd9 00       		.sleb128 0
 11915 2cda 00       		.byte	0
 11916 2cdb 09       		.uleb128 0x9
 11917 2cdc 28000000 		.4byte	.LVL585
 11918 2ce0 81380000 		.4byte	0x3881
 11919 2ce4 EF2C0000 		.4byte	0x2cef
 11920 2ce8 0A       		.uleb128 0xa
 11921 2ce9 01       		.uleb128 0x1
 11922 2cea 50       		.byte	0x50
 11923 2ceb 02       		.uleb128 0x2
 11924 2cec 08       		.byte	0x8
 11925 2ced 32       		.byte	0x32
 11926 2cee 00       		.byte	0
 11927 2cef 09       		.uleb128 0x9
 11928 2cf0 34000000 		.4byte	.LVL586
 11929 2cf4 960B0000 		.4byte	0xb96
 11930 2cf8 0E2D0000 		.4byte	0x2d0e
 11931 2cfc 0A       		.uleb128 0xa
 11932 2cfd 01       		.uleb128 0x1
 11933 2cfe 50       		.byte	0x50
 11934 2cff 01       		.uleb128 0x1
 11935 2d00 34       		.byte	0x34
 11936 2d01 0A       		.uleb128 0xa
 11937 2d02 01       		.uleb128 0x1
 11938 2d03 51       		.byte	0x51
 11939 2d04 02       		.uleb128 0x2
 11940 2d05 74       		.byte	0x74
 11941 2d06 00       		.sleb128 0
 11942 2d07 0A       		.uleb128 0xa
 11943 2d08 01       		.uleb128 0x1
 11944 2d09 52       		.byte	0x52
 11945 2d0a 02       		.uleb128 0x2
 11946 2d0b 75       		.byte	0x75
 11947 2d0c 00       		.sleb128 0
 11948 2d0d 00       		.byte	0
 11949 2d0e 09       		.uleb128 0x9
 11950 2d0f 3C000000 		.4byte	.LVL587
 11951 2d13 81380000 		.4byte	0x3881
 11952 2d17 232D0000 		.4byte	0x2d23
 11953 2d1b 0A       		.uleb128 0xa
 11954 2d1c 01       		.uleb128 0x1
 11955 2d1d 50       		.byte	0x50
 11956 2d1e 03       		.uleb128 0x3
 11957 2d1f 0A       		.byte	0xa
 11958 2d20 F401     		.2byte	0x1f4
 11959 2d22 00       		.byte	0
 11960 2d23 09       		.uleb128 0x9
 11961 2d24 46000000 		.4byte	.LVL588
 11962 2d28 960B0000 		.4byte	0xb96
 11963 2d2c 422D0000 		.4byte	0x2d42
 11964 2d30 0A       		.uleb128 0xa
 11965 2d31 01       		.uleb128 0x1
 11966 2d32 50       		.byte	0x50
 11967 2d33 01       		.uleb128 0x1
 11968 2d34 34       		.byte	0x34
 11969 2d35 0A       		.uleb128 0xa
 11970 2d36 01       		.uleb128 0x1
ARM GAS  C:\Users\Revanth\AppData\Local\Temp\ccSEzD1d.s 			page 256


 11971 2d37 51       		.byte	0x51
 11972 2d38 02       		.uleb128 0x2
 11973 2d39 74       		.byte	0x74
 11974 2d3a 00       		.sleb128 0
 11975 2d3b 0A       		.uleb128 0xa
 11976 2d3c 01       		.uleb128 0x1
 11977 2d3d 52       		.byte	0x52
 11978 2d3e 02       		.uleb128 0x2
 11979 2d3f 75       		.byte	0x75
 11980 2d40 00       		.sleb128 0
 11981 2d41 00       		.byte	0
 11982 2d42 09       		.uleb128 0x9
 11983 2d43 52000000 		.4byte	.LVL589
 11984 2d47 960B0000 		.4byte	0xb96
 11985 2d4b 612D0000 		.4byte	0x2d61
 11986 2d4f 0A       		.uleb128 0xa
 11987 2d50 01       		.uleb128 0x1
 11988 2d51 50       		.byte	0x50
 11989 2d52 01       		.uleb128 0x1
 11990 2d53 34       		.byte	0x34
 11991 2d54 0A       		.uleb128 0xa
 11992 2d55 01       		.uleb128 0x1
 11993 2d56 51       		.byte	0x51
 11994 2d57 02       		.uleb128 0x2
 11995 2d58 74       		.byte	0x74
 11996 2d59 00       		.sleb128 0
 11997 2d5a 0A       		.uleb128 0xa
 11998 2d5b 01       		.uleb128 0x1
 11999 2d5c 52       		.byte	0x52
 12000 2d5d 02       		.uleb128 0x2
 12001 2d5e 75       		.byte	0x75
 12002 2d5f 00       		.sleb128 0
 12003 2d60 00       		.byte	0
 12004 2d61 09       		.uleb128 0x9
 12005 2d62 58000000 		.4byte	.LVL590
 12006 2d66 81380000 		.4byte	0x3881
 12007 2d6a 752D0000 		.4byte	0x2d75
 12008 2d6e 0A       		.uleb128 0xa
 12009 2d6f 01       		.uleb128 0x1
 12010 2d70 50       		.byte	0x50
 12011 2d71 02       		.uleb128 0x2
 12012 2d72 08       		.byte	0x8
 12013 2d73 64       		.byte	0x64
 12014 2d74 00       		.byte	0
 12015 2d75 09       		.uleb128 0x9
 12016 2d76 6C000000 		.4byte	.LVL591
 12017 2d7a 2C0E0000 		.4byte	0xe2c
 12018 2d7e 942D0000 		.4byte	0x2d94
 12019 2d82 0A       		.uleb128 0xa
 12020 2d83 01       		.uleb128 0x1
 12021 2d84 50       		.byte	0x50
 12022 2d85 02       		.uleb128 0x2
 12023 2d86 08       		.byte	0x8
 12024 2d87 21       		.byte	0x21
 12025 2d88 0A       		.uleb128 0xa
 12026 2d89 01       		.uleb128 0x1
 12027 2d8a 51       		.byte	0x51
ARM GAS  C:\Users\Revanth\AppData\Local\Temp\ccSEzD1d.s 			page 257


 12028 2d8b 01       		.uleb128 0x1
 12029 2d8c 30       		.byte	0x30
 12030 2d8d 0A       		.uleb128 0xa
 12031 2d8e 01       		.uleb128 0x1
 12032 2d8f 52       		.byte	0x52
 12033 2d90 02       		.uleb128 0x2
 12034 2d91 74       		.byte	0x74
 12035 2d92 00       		.sleb128 0
 12036 2d93 00       		.byte	0
 12037 2d94 09       		.uleb128 0x9
 12038 2d95 72000000 		.4byte	.LVL592
 12039 2d99 81380000 		.4byte	0x3881
 12040 2d9d A72D0000 		.4byte	0x2da7
 12041 2da1 0A       		.uleb128 0xa
 12042 2da2 01       		.uleb128 0x1
 12043 2da3 50       		.byte	0x50
 12044 2da4 01       		.uleb128 0x1
 12045 2da5 3A       		.byte	0x3a
 12046 2da6 00       		.byte	0
 12047 2da7 09       		.uleb128 0x9
 12048 2da8 7C000000 		.4byte	.LVL593
 12049 2dac 170F0000 		.4byte	0xf17
 12050 2db0 C22D0000 		.4byte	0x2dc2
 12051 2db4 0A       		.uleb128 0xa
 12052 2db5 01       		.uleb128 0x1
 12053 2db6 50       		.byte	0x50
 12054 2db7 03       		.uleb128 0x3
 12055 2db8 49       		.byte	0x49
 12056 2db9 3C       		.byte	0x3c
 12057 2dba 24       		.byte	0x24
 12058 2dbb 0A       		.uleb128 0xa
 12059 2dbc 01       		.uleb128 0x1
 12060 2dbd 51       		.byte	0x51
 12061 2dbe 02       		.uleb128 0x2
 12062 2dbf 74       		.byte	0x74
 12063 2dc0 00       		.sleb128 0
 12064 2dc1 00       		.byte	0
 12065 2dc2 09       		.uleb128 0x9
 12066 2dc3 84000000 		.4byte	.LVL594
 12067 2dc7 81380000 		.4byte	0x3881
 12068 2dcb D72D0000 		.4byte	0x2dd7
 12069 2dcf 0A       		.uleb128 0xa
 12070 2dd0 01       		.uleb128 0x1
 12071 2dd1 50       		.byte	0x50
 12072 2dd2 03       		.uleb128 0x3
 12073 2dd3 0A       		.byte	0xa
 12074 2dd4 F401     		.2byte	0x1f4
 12075 2dd6 00       		.byte	0
 12076 2dd7 09       		.uleb128 0x9
 12077 2dd8 90000000 		.4byte	.LVL595
 12078 2ddc 960B0000 		.4byte	0xb96
 12079 2de0 F62D0000 		.4byte	0x2df6
 12080 2de4 0A       		.uleb128 0xa
 12081 2de5 01       		.uleb128 0x1
 12082 2de6 50       		.byte	0x50
 12083 2de7 01       		.uleb128 0x1
 12084 2de8 34       		.byte	0x34
ARM GAS  C:\Users\Revanth\AppData\Local\Temp\ccSEzD1d.s 			page 258


 12085 2de9 0A       		.uleb128 0xa
 12086 2dea 01       		.uleb128 0x1
 12087 2deb 51       		.byte	0x51
 12088 2dec 02       		.uleb128 0x2
 12089 2ded 74       		.byte	0x74
 12090 2dee 00       		.sleb128 0
 12091 2def 0A       		.uleb128 0xa
 12092 2df0 01       		.uleb128 0x1
 12093 2df1 52       		.byte	0x52
 12094 2df2 02       		.uleb128 0x2
 12095 2df3 75       		.byte	0x75
 12096 2df4 00       		.sleb128 0
 12097 2df5 00       		.byte	0
 12098 2df6 09       		.uleb128 0x9
 12099 2df7 98000000 		.4byte	.LVL596
 12100 2dfb 81380000 		.4byte	0x3881
 12101 2dff 0B2E0000 		.4byte	0x2e0b
 12102 2e03 0A       		.uleb128 0xa
 12103 2e04 01       		.uleb128 0x1
 12104 2e05 50       		.byte	0x50
 12105 2e06 03       		.uleb128 0x3
 12106 2e07 0A       		.byte	0xa
 12107 2e08 F401     		.2byte	0x1f4
 12108 2e0a 00       		.byte	0
 12109 2e0b 09       		.uleb128 0x9
 12110 2e0c A2000000 		.4byte	.LVL597
 12111 2e10 960B0000 		.4byte	0xb96
 12112 2e14 2A2E0000 		.4byte	0x2e2a
 12113 2e18 0A       		.uleb128 0xa
 12114 2e19 01       		.uleb128 0x1
 12115 2e1a 50       		.byte	0x50
 12116 2e1b 01       		.uleb128 0x1
 12117 2e1c 34       		.byte	0x34
 12118 2e1d 0A       		.uleb128 0xa
 12119 2e1e 01       		.uleb128 0x1
 12120 2e1f 51       		.byte	0x51
 12121 2e20 02       		.uleb128 0x2
 12122 2e21 74       		.byte	0x74
 12123 2e22 00       		.sleb128 0
 12124 2e23 0A       		.uleb128 0xa
 12125 2e24 01       		.uleb128 0x1
 12126 2e25 52       		.byte	0x52
 12127 2e26 02       		.uleb128 0x2
 12128 2e27 75       		.byte	0x75
 12129 2e28 00       		.sleb128 0
 12130 2e29 00       		.byte	0
 12131 2e2a 09       		.uleb128 0x9
 12132 2e2b AE000000 		.4byte	.LVL598
 12133 2e2f 960B0000 		.4byte	0xb96
 12134 2e33 492E0000 		.4byte	0x2e49
 12135 2e37 0A       		.uleb128 0xa
 12136 2e38 01       		.uleb128 0x1
 12137 2e39 50       		.byte	0x50
 12138 2e3a 01       		.uleb128 0x1
 12139 2e3b 34       		.byte	0x34
 12140 2e3c 0A       		.uleb128 0xa
 12141 2e3d 01       		.uleb128 0x1
ARM GAS  C:\Users\Revanth\AppData\Local\Temp\ccSEzD1d.s 			page 259


 12142 2e3e 51       		.byte	0x51
 12143 2e3f 02       		.uleb128 0x2
 12144 2e40 74       		.byte	0x74
 12145 2e41 00       		.sleb128 0
 12146 2e42 0A       		.uleb128 0xa
 12147 2e43 01       		.uleb128 0x1
 12148 2e44 52       		.byte	0x52
 12149 2e45 02       		.uleb128 0x2
 12150 2e46 75       		.byte	0x75
 12151 2e47 00       		.sleb128 0
 12152 2e48 00       		.byte	0
 12153 2e49 09       		.uleb128 0x9
 12154 2e4a B4000000 		.4byte	.LVL599
 12155 2e4e 81380000 		.4byte	0x3881
 12156 2e52 5D2E0000 		.4byte	0x2e5d
 12157 2e56 0A       		.uleb128 0xa
 12158 2e57 01       		.uleb128 0x1
 12159 2e58 50       		.byte	0x50
 12160 2e59 02       		.uleb128 0x2
 12161 2e5a 08       		.byte	0x8
 12162 2e5b 64       		.byte	0x64
 12163 2e5c 00       		.byte	0
 12164 2e5d 09       		.uleb128 0x9
 12165 2e5e C8000000 		.4byte	.LVL600
 12166 2e62 0B210000 		.4byte	0x210b
 12167 2e66 782E0000 		.4byte	0x2e78
 12168 2e6a 0A       		.uleb128 0xa
 12169 2e6b 01       		.uleb128 0x1
 12170 2e6c 50       		.byte	0x50
 12171 2e6d 03       		.uleb128 0x3
 12172 2e6e 0A       		.byte	0xa
 12173 2e6f 00C8     		.2byte	0xc800
 12174 2e71 0A       		.uleb128 0xa
 12175 2e72 01       		.uleb128 0x1
 12176 2e73 51       		.byte	0x51
 12177 2e74 02       		.uleb128 0x2
 12178 2e75 74       		.byte	0x74
 12179 2e76 00       		.sleb128 0
 12180 2e77 00       		.byte	0
 12181 2e78 09       		.uleb128 0x9
 12182 2e79 D2000000 		.4byte	.LVL601
 12183 2e7d 2C0E0000 		.4byte	0xe2c
 12184 2e81 972E0000 		.4byte	0x2e97
 12185 2e85 0A       		.uleb128 0xa
 12186 2e86 01       		.uleb128 0x1
 12187 2e87 50       		.byte	0x50
 12188 2e88 02       		.uleb128 0x2
 12189 2e89 08       		.byte	0x8
 12190 2e8a 20       		.byte	0x20
 12191 2e8b 0A       		.uleb128 0xa
 12192 2e8c 01       		.uleb128 0x1
 12193 2e8d 51       		.byte	0x51
 12194 2e8e 01       		.uleb128 0x1
 12195 2e8f 32       		.byte	0x32
 12196 2e90 0A       		.uleb128 0xa
 12197 2e91 01       		.uleb128 0x1
 12198 2e92 52       		.byte	0x52
ARM GAS  C:\Users\Revanth\AppData\Local\Temp\ccSEzD1d.s 			page 260


 12199 2e93 02       		.uleb128 0x2
 12200 2e94 74       		.byte	0x74
 12201 2e95 00       		.sleb128 0
 12202 2e96 00       		.byte	0
 12203 2e97 09       		.uleb128 0x9
 12204 2e98 D8000000 		.4byte	.LVL602
 12205 2e9c 81380000 		.4byte	0x3881
 12206 2ea0 AB2E0000 		.4byte	0x2eab
 12207 2ea4 0A       		.uleb128 0xa
 12208 2ea5 01       		.uleb128 0x1
 12209 2ea6 50       		.byte	0x50
 12210 2ea7 02       		.uleb128 0x2
 12211 2ea8 08       		.byte	0x8
 12212 2ea9 C8       		.byte	0xc8
 12213 2eaa 00       		.byte	0
 12214 2eab 09       		.uleb128 0x9
 12215 2eac E4000000 		.4byte	.LVL603
 12216 2eb0 960B0000 		.4byte	0xb96
 12217 2eb4 CA2E0000 		.4byte	0x2eca
 12218 2eb8 0A       		.uleb128 0xa
 12219 2eb9 01       		.uleb128 0x1
 12220 2eba 50       		.byte	0x50
 12221 2ebb 01       		.uleb128 0x1
 12222 2ebc 34       		.byte	0x34
 12223 2ebd 0A       		.uleb128 0xa
 12224 2ebe 01       		.uleb128 0x1
 12225 2ebf 51       		.byte	0x51
 12226 2ec0 02       		.uleb128 0x2
 12227 2ec1 74       		.byte	0x74
 12228 2ec2 00       		.sleb128 0
 12229 2ec3 0A       		.uleb128 0xa
 12230 2ec4 01       		.uleb128 0x1
 12231 2ec5 52       		.byte	0x52
 12232 2ec6 02       		.uleb128 0x2
 12233 2ec7 75       		.byte	0x75
 12234 2ec8 00       		.sleb128 0
 12235 2ec9 00       		.byte	0
 12236 2eca 09       		.uleb128 0x9
 12237 2ecb EC000000 		.4byte	.LVL604
 12238 2ecf 81380000 		.4byte	0x3881
 12239 2ed3 DF2E0000 		.4byte	0x2edf
 12240 2ed7 0A       		.uleb128 0xa
 12241 2ed8 01       		.uleb128 0x1
 12242 2ed9 50       		.byte	0x50
 12243 2eda 03       		.uleb128 0x3
 12244 2edb 0A       		.byte	0xa
 12245 2edc F401     		.2byte	0x1f4
 12246 2ede 00       		.byte	0
 12247 2edf 09       		.uleb128 0x9
 12248 2ee0 F6000000 		.4byte	.LVL605
 12249 2ee4 960B0000 		.4byte	0xb96
 12250 2ee8 FE2E0000 		.4byte	0x2efe
 12251 2eec 0A       		.uleb128 0xa
 12252 2eed 01       		.uleb128 0x1
 12253 2eee 50       		.byte	0x50
 12254 2eef 01       		.uleb128 0x1
 12255 2ef0 34       		.byte	0x34
ARM GAS  C:\Users\Revanth\AppData\Local\Temp\ccSEzD1d.s 			page 261


 12256 2ef1 0A       		.uleb128 0xa
 12257 2ef2 01       		.uleb128 0x1
 12258 2ef3 51       		.byte	0x51
 12259 2ef4 02       		.uleb128 0x2
 12260 2ef5 74       		.byte	0x74
 12261 2ef6 00       		.sleb128 0
 12262 2ef7 0A       		.uleb128 0xa
 12263 2ef8 01       		.uleb128 0x1
 12264 2ef9 52       		.byte	0x52
 12265 2efa 02       		.uleb128 0x2
 12266 2efb 75       		.byte	0x75
 12267 2efc 00       		.sleb128 0
 12268 2efd 00       		.byte	0
 12269 2efe 09       		.uleb128 0x9
 12270 2eff 02010000 		.4byte	.LVL606
 12271 2f03 960B0000 		.4byte	0xb96
 12272 2f07 1D2F0000 		.4byte	0x2f1d
 12273 2f0b 0A       		.uleb128 0xa
 12274 2f0c 01       		.uleb128 0x1
 12275 2f0d 50       		.byte	0x50
 12276 2f0e 01       		.uleb128 0x1
 12277 2f0f 34       		.byte	0x34
 12278 2f10 0A       		.uleb128 0xa
 12279 2f11 01       		.uleb128 0x1
 12280 2f12 51       		.byte	0x51
 12281 2f13 02       		.uleb128 0x2
 12282 2f14 74       		.byte	0x74
 12283 2f15 00       		.sleb128 0
 12284 2f16 0A       		.uleb128 0xa
 12285 2f17 01       		.uleb128 0x1
 12286 2f18 52       		.byte	0x52
 12287 2f19 02       		.uleb128 0x2
 12288 2f1a 75       		.byte	0x75
 12289 2f1b 00       		.sleb128 0
 12290 2f1c 00       		.byte	0
 12291 2f1d 09       		.uleb128 0x9
 12292 2f1e 08010000 		.4byte	.LVL607
 12293 2f22 81380000 		.4byte	0x3881
 12294 2f26 312F0000 		.4byte	0x2f31
 12295 2f2a 0A       		.uleb128 0xa
 12296 2f2b 01       		.uleb128 0x1
 12297 2f2c 50       		.byte	0x50
 12298 2f2d 02       		.uleb128 0x2
 12299 2f2e 08       		.byte	0x8
 12300 2f2f 64       		.byte	0x64
 12301 2f30 00       		.byte	0
 12302 2f31 09       		.uleb128 0x9
 12303 2f32 1C010000 		.4byte	.LVL608
 12304 2f36 2C0E0000 		.4byte	0xe2c
 12305 2f3a 502F0000 		.4byte	0x2f50
 12306 2f3e 0A       		.uleb128 0xa
 12307 2f3f 01       		.uleb128 0x1
 12308 2f40 50       		.byte	0x50
 12309 2f41 02       		.uleb128 0x2
 12310 2f42 08       		.byte	0x8
 12311 2f43 21       		.byte	0x21
 12312 2f44 0A       		.uleb128 0xa
ARM GAS  C:\Users\Revanth\AppData\Local\Temp\ccSEzD1d.s 			page 262


 12313 2f45 01       		.uleb128 0x1
 12314 2f46 51       		.byte	0x51
 12315 2f47 01       		.uleb128 0x1
 12316 2f48 30       		.byte	0x30
 12317 2f49 0A       		.uleb128 0xa
 12318 2f4a 01       		.uleb128 0x1
 12319 2f4b 52       		.byte	0x52
 12320 2f4c 02       		.uleb128 0x2
 12321 2f4d 74       		.byte	0x74
 12322 2f4e 00       		.sleb128 0
 12323 2f4f 00       		.byte	0
 12324 2f50 09       		.uleb128 0x9
 12325 2f51 22010000 		.4byte	.LVL609
 12326 2f55 16020000 		.4byte	0x216
 12327 2f59 632F0000 		.4byte	0x2f63
 12328 2f5d 0A       		.uleb128 0xa
 12329 2f5e 01       		.uleb128 0x1
 12330 2f5f 50       		.byte	0x50
 12331 2f60 01       		.uleb128 0x1
 12332 2f61 30       		.byte	0x30
 12333 2f62 00       		.byte	0
 12334 2f63 09       		.uleb128 0x9
 12335 2f64 2E010000 		.4byte	.LVL610
 12336 2f68 81380000 		.4byte	0x3881
 12337 2f6c 772F0000 		.4byte	0x2f77
 12338 2f70 0A       		.uleb128 0xa
 12339 2f71 01       		.uleb128 0x1
 12340 2f72 50       		.byte	0x50
 12341 2f73 02       		.uleb128 0x2
 12342 2f74 08       		.byte	0x8
 12343 2f75 64       		.byte	0x64
 12344 2f76 00       		.byte	0
 12345 2f77 09       		.uleb128 0x9
 12346 2f78 36010000 		.4byte	.LVL611
 12347 2f7c 871E0000 		.4byte	0x1e87
 12348 2f80 8C2F0000 		.4byte	0x2f8c
 12349 2f84 0A       		.uleb128 0xa
 12350 2f85 01       		.uleb128 0x1
 12351 2f86 50       		.byte	0x50
 12352 2f87 03       		.uleb128 0x3
 12353 2f88 0A       		.byte	0xa
 12354 2f89 00C8     		.2byte	0xc800
 12355 2f8b 00       		.byte	0
 12356 2f8c 09       		.uleb128 0x9
 12357 2f8d 40010000 		.4byte	.LVL612
 12358 2f91 81380000 		.4byte	0x3881
 12359 2f95 A02F0000 		.4byte	0x2fa0
 12360 2f99 0A       		.uleb128 0xa
 12361 2f9a 01       		.uleb128 0x1
 12362 2f9b 50       		.byte	0x50
 12363 2f9c 02       		.uleb128 0x2
 12364 2f9d 08       		.byte	0x8
 12365 2f9e 64       		.byte	0x64
 12366 2f9f 00       		.byte	0
 12367 2fa0 09       		.uleb128 0x9
 12368 2fa1 4A010000 		.4byte	.LVL613
 12369 2fa5 2C0E0000 		.4byte	0xe2c
ARM GAS  C:\Users\Revanth\AppData\Local\Temp\ccSEzD1d.s 			page 263


 12370 2fa9 C02F0000 		.4byte	0x2fc0
 12371 2fad 0A       		.uleb128 0xa
 12372 2fae 01       		.uleb128 0x1
 12373 2faf 50       		.byte	0x50
 12374 2fb0 02       		.uleb128 0x2
 12375 2fb1 08       		.byte	0x8
 12376 2fb2 21       		.byte	0x21
 12377 2fb3 0A       		.uleb128 0xa
 12378 2fb4 01       		.uleb128 0x1
 12379 2fb5 51       		.byte	0x51
 12380 2fb6 02       		.uleb128 0x2
 12381 2fb7 75       		.byte	0x75
 12382 2fb8 00       		.sleb128 0
 12383 2fb9 0A       		.uleb128 0xa
 12384 2fba 01       		.uleb128 0x1
 12385 2fbb 52       		.byte	0x52
 12386 2fbc 02       		.uleb128 0x2
 12387 2fbd 74       		.byte	0x74
 12388 2fbe 00       		.sleb128 0
 12389 2fbf 00       		.byte	0
 12390 2fc0 09       		.uleb128 0x9
 12391 2fc1 54010000 		.4byte	.LVL614
 12392 2fc5 2C0E0000 		.4byte	0xe2c
 12393 2fc9 E02F0000 		.4byte	0x2fe0
 12394 2fcd 0A       		.uleb128 0xa
 12395 2fce 01       		.uleb128 0x1
 12396 2fcf 50       		.byte	0x50
 12397 2fd0 02       		.uleb128 0x2
 12398 2fd1 08       		.byte	0x8
 12399 2fd2 2D       		.byte	0x2d
 12400 2fd3 0A       		.uleb128 0xa
 12401 2fd4 01       		.uleb128 0x1
 12402 2fd5 51       		.byte	0x51
 12403 2fd6 02       		.uleb128 0x2
 12404 2fd7 75       		.byte	0x75
 12405 2fd8 00       		.sleb128 0
 12406 2fd9 0A       		.uleb128 0xa
 12407 2fda 01       		.uleb128 0x1
 12408 2fdb 52       		.byte	0x52
 12409 2fdc 02       		.uleb128 0x2
 12410 2fdd 74       		.byte	0x74
 12411 2fde 00       		.sleb128 0
 12412 2fdf 00       		.byte	0
 12413 2fe0 09       		.uleb128 0x9
 12414 2fe1 5C010000 		.4byte	.LVL615
 12415 2fe5 0B210000 		.4byte	0x210b
 12416 2fe9 FD2F0000 		.4byte	0x2ffd
 12417 2fed 0A       		.uleb128 0xa
 12418 2fee 01       		.uleb128 0x1
 12419 2fef 50       		.byte	0x50
 12420 2ff0 05       		.uleb128 0x5
 12421 2ff1 0C       		.byte	0xc
 12422 2ff2 C3A50700 		.4byte	0x7a5c3
 12423 2ff6 0A       		.uleb128 0xa
 12424 2ff7 01       		.uleb128 0x1
 12425 2ff8 51       		.byte	0x51
 12426 2ff9 02       		.uleb128 0x2
ARM GAS  C:\Users\Revanth\AppData\Local\Temp\ccSEzD1d.s 			page 264


 12427 2ffa 74       		.byte	0x74
 12428 2ffb 00       		.sleb128 0
 12429 2ffc 00       		.byte	0
 12430 2ffd 09       		.uleb128 0x9
 12431 2ffe 62010000 		.4byte	.LVL616
 12432 3002 16020000 		.4byte	0x216
 12433 3006 11300000 		.4byte	0x3011
 12434 300a 0A       		.uleb128 0xa
 12435 300b 01       		.uleb128 0x1
 12436 300c 50       		.byte	0x50
 12437 300d 02       		.uleb128 0x2
 12438 300e 75       		.byte	0x75
 12439 300f 00       		.sleb128 0
 12440 3010 00       		.byte	0
 12441 3011 0B       		.uleb128 0xb
 12442 3012 6E010000 		.4byte	.LVL617
 12443 3016 CB030000 		.4byte	0x3cb
 12444 301a 0A       		.uleb128 0xa
 12445 301b 01       		.uleb128 0x1
 12446 301c 50       		.byte	0x50
 12447 301d 05       		.uleb128 0x5
 12448 301e 03       		.byte	0x3
 12449 301f BC040000 		.4byte	.LC40
 12450 3023 00       		.byte	0
 12451 3024 00       		.byte	0
 12452 3025 17       		.uleb128 0x17
 12453 3026 5D030000 		.4byte	.LASF94
 12454 302a 01       		.byte	0x1
 12455 302b 9A06     		.2byte	0x69a
 12456 302d 7E000000 		.4byte	0x7e
 12457 3031 00000000 		.4byte	.LFB108
 12458 3035 10000000 		.4byte	.LFE108-.LFB108
 12459 3039 01       		.uleb128 0x1
 12460 303a 9C       		.byte	0x9c
 12461 303b 77300000 		.4byte	0x3077
 12462 303f 0D       		.uleb128 0xd
 12463 3040 99070000 		.4byte	.LASF95
 12464 3044 01       		.byte	0x1
 12465 3045 9A06     		.2byte	0x69a
 12466 3047 7E000000 		.4byte	0x7e
 12467 304b E2090000 		.4byte	.LLST56
 12468 304f 0D       		.uleb128 0xd
 12469 3050 4A060000 		.4byte	.LASF54
 12470 3054 01       		.byte	0x1
 12471 3055 9A06     		.2byte	0x69a
 12472 3057 8C000000 		.4byte	0x8c
 12473 305b 0E0A0000 		.4byte	.LLST57
 12474 305f 0B       		.uleb128 0xb
 12475 3060 0C000000 		.4byte	.LVL621
 12476 3064 2C0E0000 		.4byte	0xe2c
 12477 3068 0A       		.uleb128 0xa
 12478 3069 01       		.uleb128 0x1
 12479 306a 50       		.byte	0x50
 12480 306b 02       		.uleb128 0x2
 12481 306c 08       		.byte	0x8
 12482 306d 26       		.byte	0x26
 12483 306e 0A       		.uleb128 0xa
ARM GAS  C:\Users\Revanth\AppData\Local\Temp\ccSEzD1d.s 			page 265


 12484 306f 01       		.uleb128 0x1
 12485 3070 51       		.byte	0x51
 12486 3071 03       		.uleb128 0x3
 12487 3072 F3       		.byte	0xf3
 12488 3073 01       		.uleb128 0x1
 12489 3074 50       		.byte	0x50
 12490 3075 00       		.byte	0
 12491 3076 00       		.byte	0
 12492 3077 17       		.uleb128 0x17
 12493 3078 DA070000 		.4byte	.LASF96
 12494 307c 01       		.byte	0x1
 12495 307d A006     		.2byte	0x6a0
 12496 307f 7E000000 		.4byte	0x7e
 12497 3083 00000000 		.4byte	.LFB109
 12498 3087 40000000 		.4byte	.LFE109-.LFB109
 12499 308b 01       		.uleb128 0x1
 12500 308c 9C       		.byte	0x9c
 12501 308d 32310000 		.4byte	0x3132
 12502 3091 0D       		.uleb128 0xd
 12503 3092 4A020000 		.4byte	.LASF97
 12504 3096 01       		.byte	0x1
 12505 3097 A006     		.2byte	0x6a0
 12506 3099 7E000000 		.4byte	0x7e
 12507 309d 2F0A0000 		.4byte	.LLST58
 12508 30a1 0D       		.uleb128 0xd
 12509 30a2 7D000000 		.4byte	.LASF98
 12510 30a6 01       		.byte	0x1
 12511 30a7 A006     		.2byte	0x6a0
 12512 30a9 8C000000 		.4byte	0x8c
 12513 30ad 5B0A0000 		.4byte	.LLST59
 12514 30b1 09       		.uleb128 0x9
 12515 30b2 0E000000 		.4byte	.LVL625
 12516 30b6 0B210000 		.4byte	0x210b
 12517 30ba CD300000 		.4byte	0x30cd
 12518 30be 0A       		.uleb128 0xa
 12519 30bf 01       		.uleb128 0x1
 12520 30c0 50       		.byte	0x50
 12521 30c1 05       		.uleb128 0x5
 12522 30c2 0C       		.byte	0xc
 12523 30c3 F00F7000 		.4byte	0x700ff0
 12524 30c7 0A       		.uleb128 0xa
 12525 30c8 01       		.uleb128 0x1
 12526 30c9 51       		.byte	0x51
 12527 30ca 01       		.uleb128 0x1
 12528 30cb 34       		.byte	0x34
 12529 30cc 00       		.byte	0
 12530 30cd 09       		.uleb128 0x9
 12531 30ce 1E000000 		.4byte	.LVL626
 12532 30d2 2C0E0000 		.4byte	0xe2c
 12533 30d6 EB300000 		.4byte	0x30eb
 12534 30da 0A       		.uleb128 0xa
 12535 30db 01       		.uleb128 0x1
 12536 30dc 50       		.byte	0x50
 12537 30dd 02       		.uleb128 0x2
 12538 30de 08       		.byte	0x8
 12539 30df 20       		.byte	0x20
 12540 30e0 0A       		.uleb128 0xa
ARM GAS  C:\Users\Revanth\AppData\Local\Temp\ccSEzD1d.s 			page 266


 12541 30e1 01       		.uleb128 0x1
 12542 30e2 51       		.byte	0x51
 12543 30e3 01       		.uleb128 0x1
 12544 30e4 31       		.byte	0x31
 12545 30e5 0A       		.uleb128 0xa
 12546 30e6 01       		.uleb128 0x1
 12547 30e7 52       		.byte	0x52
 12548 30e8 01       		.uleb128 0x1
 12549 30e9 34       		.byte	0x34
 12550 30ea 00       		.byte	0
 12551 30eb 09       		.uleb128 0x9
 12552 30ec 2A000000 		.4byte	.LVL627
 12553 30f0 2C0E0000 		.4byte	0xe2c
 12554 30f4 09310000 		.4byte	0x3109
 12555 30f8 0A       		.uleb128 0xa
 12556 30f9 01       		.uleb128 0x1
 12557 30fa 50       		.byte	0x50
 12558 30fb 02       		.uleb128 0x2
 12559 30fc 08       		.byte	0x8
 12560 30fd 20       		.byte	0x20
 12561 30fe 0A       		.uleb128 0xa
 12562 30ff 01       		.uleb128 0x1
 12563 3100 51       		.byte	0x51
 12564 3101 01       		.uleb128 0x1
 12565 3102 32       		.byte	0x32
 12566 3103 0A       		.uleb128 0xa
 12567 3104 01       		.uleb128 0x1
 12568 3105 52       		.byte	0x52
 12569 3106 01       		.uleb128 0x1
 12570 3107 34       		.byte	0x34
 12571 3108 00       		.byte	0
 12572 3109 09       		.uleb128 0x9
 12573 310a 30000000 		.4byte	.LVL628
 12574 310e F2370000 		.4byte	0x37f2
 12575 3112 1D310000 		.4byte	0x311d
 12576 3116 0A       		.uleb128 0xa
 12577 3117 01       		.uleb128 0x1
 12578 3118 50       		.byte	0x50
 12579 3119 02       		.uleb128 0x2
 12580 311a 75       		.byte	0x75
 12581 311b 00       		.sleb128 0
 12582 311c 00       		.byte	0
 12583 311d 0B       		.uleb128 0xb
 12584 311e 38000000 		.4byte	.LVL629
 12585 3122 0B210000 		.4byte	0x210b
 12586 3126 0A       		.uleb128 0xa
 12587 3127 01       		.uleb128 0x1
 12588 3128 50       		.byte	0x50
 12589 3129 01       		.uleb128 0x1
 12590 312a 30       		.byte	0x30
 12591 312b 0A       		.uleb128 0xa
 12592 312c 01       		.uleb128 0x1
 12593 312d 51       		.byte	0x51
 12594 312e 01       		.uleb128 0x1
 12595 312f 34       		.byte	0x34
 12596 3130 00       		.byte	0
 12597 3131 00       		.byte	0
ARM GAS  C:\Users\Revanth\AppData\Local\Temp\ccSEzD1d.s 			page 267


 12598 3132 07       		.uleb128 0x7
 12599 3133 79070000 		.4byte	.LASF99
 12600 3137 01       		.byte	0x1
 12601 3138 7C03     		.2byte	0x37c
 12602 313a 00000000 		.4byte	.LFB90
 12603 313e 00020000 		.4byte	.LFE90-.LFB90
 12604 3142 01       		.uleb128 0x1
 12605 3143 9C       		.byte	0x9c
 12606 3144 B1330000 		.4byte	0x33b1
 12607 3148 1E       		.uleb128 0x1e
 12608 3149 32010000 		.4byte	.LBB4
 12609 314d 1C000000 		.4byte	.LBE4-.LBB4
 12610 3151 7F310000 		.4byte	0x317f
 12611 3155 18       		.uleb128 0x18
 12612 3156 4A020000 		.4byte	.LASF97
 12613 315a 01       		.byte	0x1
 12614 315b B503     		.2byte	0x3b5
 12615 315d 7E000000 		.4byte	0x7e
 12616 3161 7C0A0000 		.4byte	.LLST60
 12617 3165 18       		.uleb128 0x18
 12618 3166 7D000000 		.4byte	.LASF98
 12619 316a 01       		.byte	0x1
 12620 316b B603     		.2byte	0x3b6
 12621 316d 8C000000 		.4byte	0x8c
 12622 3171 AB0A0000 		.4byte	.LLST61
 12623 3175 08       		.uleb128 0x8
 12624 3176 4E010000 		.4byte	.LVL654
 12625 317a 77300000 		.4byte	0x3077
 12626 317e 00       		.byte	0
 12627 317f 09       		.uleb128 0x9
 12628 3180 20000000 		.4byte	.LVL631
 12629 3184 54180000 		.4byte	0x1854
 12630 3188 92310000 		.4byte	0x3192
 12631 318c 0A       		.uleb128 0xa
 12632 318d 01       		.uleb128 0x1
 12633 318e 50       		.byte	0x50
 12634 318f 01       		.uleb128 0x1
 12635 3190 30       		.byte	0x30
 12636 3191 00       		.byte	0
 12637 3192 09       		.uleb128 0x9
 12638 3193 26000000 		.4byte	.LVL632
 12639 3197 5D210000 		.4byte	0x215d
 12640 319b A5310000 		.4byte	0x31a5
 12641 319f 0A       		.uleb128 0xa
 12642 31a0 01       		.uleb128 0x1
 12643 31a1 50       		.byte	0x50
 12644 31a2 01       		.uleb128 0x1
 12645 31a3 30       		.byte	0x30
 12646 31a4 00       		.byte	0
 12647 31a5 08       		.uleb128 0x8
 12648 31a6 2E000000 		.4byte	.LVL633
 12649 31aa 28060000 		.4byte	0x628
 12650 31ae 09       		.uleb128 0x9
 12651 31af 3A000000 		.4byte	.LVL634
 12652 31b3 671A0000 		.4byte	0x1a67
 12653 31b7 C1310000 		.4byte	0x31c1
 12654 31bb 0A       		.uleb128 0xa
ARM GAS  C:\Users\Revanth\AppData\Local\Temp\ccSEzD1d.s 			page 268


 12655 31bc 01       		.uleb128 0x1
 12656 31bd 50       		.byte	0x50
 12657 31be 01       		.uleb128 0x1
 12658 31bf 30       		.byte	0x30
 12659 31c0 00       		.byte	0
 12660 31c1 09       		.uleb128 0x9
 12661 31c2 40000000 		.4byte	.LVL635
 12662 31c6 04250000 		.4byte	0x2504
 12663 31ca D4310000 		.4byte	0x31d4
 12664 31ce 0A       		.uleb128 0xa
 12665 31cf 01       		.uleb128 0x1
 12666 31d0 50       		.byte	0x50
 12667 31d1 01       		.uleb128 0x1
 12668 31d2 31       		.byte	0x31
 12669 31d3 00       		.byte	0
 12670 31d4 08       		.uleb128 0x8
 12671 31d5 48000000 		.4byte	.LVL636
 12672 31d9 28060000 		.4byte	0x628
 12673 31dd 09       		.uleb128 0x9
 12674 31de 54000000 		.4byte	.LVL637
 12675 31e2 781C0000 		.4byte	0x1c78
 12676 31e6 F0310000 		.4byte	0x31f0
 12677 31ea 0A       		.uleb128 0xa
 12678 31eb 01       		.uleb128 0x1
 12679 31ec 50       		.byte	0x50
 12680 31ed 01       		.uleb128 0x1
 12681 31ee 30       		.byte	0x30
 12682 31ef 00       		.byte	0
 12683 31f0 09       		.uleb128 0x9
 12684 31f1 5A000000 		.4byte	.LVL638
 12685 31f5 AC280000 		.4byte	0x28ac
 12686 31f9 03320000 		.4byte	0x3203
 12687 31fd 0A       		.uleb128 0xa
 12688 31fe 01       		.uleb128 0x1
 12689 31ff 50       		.byte	0x50
 12690 3200 01       		.uleb128 0x1
 12691 3201 32       		.byte	0x32
 12692 3202 00       		.byte	0
 12693 3203 08       		.uleb128 0x8
 12694 3204 62000000 		.4byte	.LVL639
 12695 3208 28060000 		.4byte	0x628
 12696 320c 09       		.uleb128 0x9
 12697 320d 6E000000 		.4byte	.LVL640
 12698 3211 871E0000 		.4byte	0x1e87
 12699 3215 1F320000 		.4byte	0x321f
 12700 3219 0A       		.uleb128 0xa
 12701 321a 01       		.uleb128 0x1
 12702 321b 50       		.byte	0x50
 12703 321c 01       		.uleb128 0x1
 12704 321d 30       		.byte	0x30
 12705 321e 00       		.byte	0
 12706 321f 09       		.uleb128 0x9
 12707 3220 74000000 		.4byte	.LVL641
 12708 3224 722C0000 		.4byte	0x2c72
 12709 3228 32320000 		.4byte	0x3232
 12710 322c 0A       		.uleb128 0xa
 12711 322d 01       		.uleb128 0x1
ARM GAS  C:\Users\Revanth\AppData\Local\Temp\ccSEzD1d.s 			page 269


 12712 322e 50       		.byte	0x50
 12713 322f 01       		.uleb128 0x1
 12714 3230 33       		.byte	0x33
 12715 3231 00       		.byte	0
 12716 3232 08       		.uleb128 0x8
 12717 3233 7C000000 		.4byte	.LVL642
 12718 3237 28060000 		.4byte	0x628
 12719 323b 08       		.uleb128 0x8
 12720 323c A2000000 		.4byte	.LVL643
 12721 3240 54180000 		.4byte	0x1854
 12722 3244 08       		.uleb128 0x8
 12723 3245 A8000000 		.4byte	.LVL644
 12724 3249 28060000 		.4byte	0x628
 12725 324d 08       		.uleb128 0x8
 12726 324e CE000000 		.4byte	.LVL645
 12727 3252 671A0000 		.4byte	0x1a67
 12728 3256 08       		.uleb128 0x8
 12729 3257 D4000000 		.4byte	.LVL646
 12730 325b 28060000 		.4byte	0x628
 12731 325f 08       		.uleb128 0x8
 12732 3260 FA000000 		.4byte	.LVL647
 12733 3264 781C0000 		.4byte	0x1c78
 12734 3268 08       		.uleb128 0x8
 12735 3269 00010000 		.4byte	.LVL648
 12736 326d 28060000 		.4byte	0x628
 12737 3271 08       		.uleb128 0x8
 12738 3272 26010000 		.4byte	.LVL649
 12739 3276 871E0000 		.4byte	0x1e87
 12740 327a 08       		.uleb128 0x8
 12741 327b 2C010000 		.4byte	.LVL650
 12742 327f 28060000 		.4byte	0x628
 12743 3283 08       		.uleb128 0x8
 12744 3284 5A010000 		.4byte	.LVL655
 12745 3288 15080000 		.4byte	0x815
 12746 328c 09       		.uleb128 0x9
 12747 328d 60010000 		.4byte	.LVL656
 12748 3291 F2370000 		.4byte	0x37f2
 12749 3295 A0320000 		.4byte	0x32a0
 12750 3299 0A       		.uleb128 0xa
 12751 329a 01       		.uleb128 0x1
 12752 329b 50       		.byte	0x50
 12753 329c 02       		.uleb128 0x2
 12754 329d 08       		.byte	0x8
 12755 329e 64       		.byte	0x64
 12756 329f 00       		.byte	0
 12757 32a0 08       		.uleb128 0x8
 12758 32a1 68010000 		.4byte	.LVL657
 12759 32a5 28060000 		.4byte	0x628
 12760 32a9 09       		.uleb128 0x9
 12761 32aa 74010000 		.4byte	.LVL658
 12762 32ae CB030000 		.4byte	0x3cb
 12763 32b2 C0320000 		.4byte	0x32c0
 12764 32b6 0A       		.uleb128 0xa
 12765 32b7 01       		.uleb128 0x1
 12766 32b8 50       		.byte	0x50
 12767 32b9 05       		.uleb128 0x5
 12768 32ba 03       		.byte	0x3
ARM GAS  C:\Users\Revanth\AppData\Local\Temp\ccSEzD1d.s 			page 270


 12769 32bb D0040000 		.4byte	.LC41
 12770 32bf 00       		.byte	0
 12771 32c0 09       		.uleb128 0x9
 12772 32c1 7A010000 		.4byte	.LVL659
 12773 32c5 CB030000 		.4byte	0x3cb
 12774 32c9 D7320000 		.4byte	0x32d7
 12775 32cd 0A       		.uleb128 0xa
 12776 32ce 01       		.uleb128 0x1
 12777 32cf 50       		.byte	0x50
 12778 32d0 05       		.uleb128 0x5
 12779 32d1 03       		.byte	0x3
 12780 32d2 B8000000 		.4byte	.LC8
 12781 32d6 00       		.byte	0
 12782 32d7 09       		.uleb128 0x9
 12783 32d8 82010000 		.4byte	.LVL660
 12784 32dc F2370000 		.4byte	0x37f2
 12785 32e0 EC320000 		.4byte	0x32ec
 12786 32e4 0A       		.uleb128 0xa
 12787 32e5 01       		.uleb128 0x1
 12788 32e6 50       		.byte	0x50
 12789 32e7 03       		.uleb128 0x3
 12790 32e8 0A       		.byte	0xa
 12791 32e9 F401     		.2byte	0x1f4
 12792 32eb 00       		.byte	0
 12793 32ec 09       		.uleb128 0x9
 12794 32ed 88010000 		.4byte	.LVL661
 12795 32f1 28060000 		.4byte	0x628
 12796 32f5 FF320000 		.4byte	0x32ff
 12797 32f9 0A       		.uleb128 0xa
 12798 32fa 01       		.uleb128 0x1
 12799 32fb 50       		.byte	0x50
 12800 32fc 01       		.uleb128 0x1
 12801 32fd 30       		.byte	0x30
 12802 32fe 00       		.byte	0
 12803 32ff 09       		.uleb128 0x9
 12804 3300 90010000 		.4byte	.LVL662
 12805 3304 F2370000 		.4byte	0x37f2
 12806 3308 14330000 		.4byte	0x3314
 12807 330c 0A       		.uleb128 0xa
 12808 330d 01       		.uleb128 0x1
 12809 330e 50       		.byte	0x50
 12810 330f 03       		.uleb128 0x3
 12811 3310 0A       		.byte	0xa
 12812 3311 F401     		.2byte	0x1f4
 12813 3313 00       		.byte	0
 12814 3314 08       		.uleb128 0x8
 12815 3315 94010000 		.4byte	.LVL663
 12816 3319 61390000 		.4byte	0x3961
 12817 331d 09       		.uleb128 0x9
 12818 331e A2010000 		.4byte	.LVL664
 12819 3322 28060000 		.4byte	0x628
 12820 3326 30330000 		.4byte	0x3330
 12821 332a 0A       		.uleb128 0xa
 12822 332b 01       		.uleb128 0x1
 12823 332c 50       		.byte	0x50
 12824 332d 01       		.uleb128 0x1
 12825 332e 30       		.byte	0x30
ARM GAS  C:\Users\Revanth\AppData\Local\Temp\ccSEzD1d.s 			page 271


 12826 332f 00       		.byte	0
 12827 3330 09       		.uleb128 0x9
 12828 3331 B0010000 		.4byte	.LVL665
 12829 3335 28060000 		.4byte	0x628
 12830 3339 43330000 		.4byte	0x3343
 12831 333d 0A       		.uleb128 0xa
 12832 333e 01       		.uleb128 0x1
 12833 333f 50       		.byte	0x50
 12834 3340 01       		.uleb128 0x1
 12835 3341 30       		.byte	0x30
 12836 3342 00       		.byte	0
 12837 3343 09       		.uleb128 0x9
 12838 3344 BC010000 		.4byte	.LVL666
 12839 3348 CB030000 		.4byte	0x3cb
 12840 334c 5A330000 		.4byte	0x335a
 12841 3350 0A       		.uleb128 0xa
 12842 3351 01       		.uleb128 0x1
 12843 3352 50       		.byte	0x50
 12844 3353 05       		.uleb128 0x5
 12845 3354 03       		.byte	0x3
 12846 3355 F0040000 		.4byte	.LC42
 12847 3359 00       		.byte	0
 12848 335a 09       		.uleb128 0x9
 12849 335b C2010000 		.4byte	.LVL667
 12850 335f F2370000 		.4byte	0x37f2
 12851 3363 6D330000 		.4byte	0x336d
 12852 3367 0A       		.uleb128 0xa
 12853 3368 01       		.uleb128 0x1
 12854 3369 50       		.byte	0x50
 12855 336a 01       		.uleb128 0x1
 12856 336b 3A       		.byte	0x3a
 12857 336c 00       		.byte	0
 12858 336d 09       		.uleb128 0x9
 12859 336e C8010000 		.4byte	.LVL668
 12860 3372 28060000 		.4byte	0x628
 12861 3376 80330000 		.4byte	0x3380
 12862 337a 0A       		.uleb128 0xa
 12863 337b 01       		.uleb128 0x1
 12864 337c 50       		.byte	0x50
 12865 337d 01       		.uleb128 0x1
 12866 337e 30       		.byte	0x30
 12867 337f 00       		.byte	0
 12868 3380 09       		.uleb128 0x9
 12869 3381 D6010000 		.4byte	.LVL669
 12870 3385 CB030000 		.4byte	0x3cb
 12871 3389 97330000 		.4byte	0x3397
 12872 338d 0A       		.uleb128 0xa
 12873 338e 01       		.uleb128 0x1
 12874 338f 50       		.byte	0x50
 12875 3390 05       		.uleb128 0x5
 12876 3391 03       		.byte	0x3
 12877 3392 10050000 		.4byte	.LC43
 12878 3396 00       		.byte	0
 12879 3397 08       		.uleb128 0x8
 12880 3398 DA010000 		.4byte	.LVL670
 12881 339c 83080000 		.4byte	0x883
 12882 33a0 0B       		.uleb128 0xb
ARM GAS  C:\Users\Revanth\AppData\Local\Temp\ccSEzD1d.s 			page 272


 12883 33a1 E0010000 		.4byte	.LVL671
 12884 33a5 28060000 		.4byte	0x628
 12885 33a9 0A       		.uleb128 0xa
 12886 33aa 01       		.uleb128 0x1
 12887 33ab 50       		.byte	0x50
 12888 33ac 02       		.uleb128 0x2
 12889 33ad 74       		.byte	0x74
 12890 33ae 00       		.sleb128 0
 12891 33af 00       		.byte	0
 12892 33b0 00       		.byte	0
 12893 33b1 1F       		.uleb128 0x1f
 12894 33b2 2D010000 		.4byte	.LASF100
 12895 33b6 05       		.byte	0x5
 12896 33b7 1207     		.2byte	0x712
 12897 33b9 BD330000 		.4byte	0x33bd
 12898 33bd 20       		.uleb128 0x20
 12899 33be 97000000 		.4byte	0x97
 12900 33c2 21       		.uleb128 0x21
 12901 33c3 7F0A0000 		.4byte	.LASF101
 12902 33c7 06       		.byte	0x6
 12903 33c8 16       		.byte	0x16
 12904 33c9 56090000 		.4byte	0x956
 12905 33cd 05       		.uleb128 0x5
 12906 33ce 03       		.byte	0x3
 12907 33cf 00000000 		.4byte	Is_Slide_On_Gripper
 12908 33d3 21       		.uleb128 0x21
 12909 33d4 00000000 		.4byte	.LASF102
 12910 33d8 06       		.byte	0x6
 12911 33d9 17       		.byte	0x17
 12912 33da E2000000 		.4byte	0xe2
 12913 33de 05       		.uleb128 0x5
 12914 33df 03       		.byte	0x3
 12915 33e0 00000000 		.4byte	count
 12916 33e4 21       		.uleb128 0x21
 12917 33e5 20070000 		.4byte	.LASF103
 12918 33e9 06       		.byte	0x6
 12919 33ea 18       		.byte	0x18
 12920 33eb BB030000 		.4byte	0x3bb
 12921 33ef 05       		.uleb128 0x5
 12922 33f0 03       		.byte	0x3
 12923 33f1 00000000 		.4byte	USB_received
 12924 33f5 11       		.uleb128 0x11
 12925 33f6 EE000000 		.4byte	0xee
 12926 33fa 05340000 		.4byte	0x3405
 12927 33fe 12       		.uleb128 0x12
 12928 33ff B4000000 		.4byte	0xb4
 12929 3403 39       		.byte	0x39
 12930 3404 00       		.byte	0
 12931 3405 21       		.uleb128 0x21
 12932 3406 9F080000 		.4byte	.LASF104
 12933 340a 06       		.byte	0x6
 12934 340b 19       		.byte	0x19
 12935 340c F5330000 		.4byte	0x33f5
 12936 3410 05       		.uleb128 0x5
 12937 3411 03       		.byte	0x3
 12938 3412 00000000 		.4byte	USB_transmit
 12939 3416 21       		.uleb128 0x21
ARM GAS  C:\Users\Revanth\AppData\Local\Temp\ccSEzD1d.s 			page 273


 12940 3417 3B020000 		.4byte	.LASF105
 12941 341b 01       		.byte	0x1
 12942 341c 14       		.byte	0x14
 12943 341d 56090000 		.4byte	0x956
 12944 3421 05       		.uleb128 0x5
 12945 3422 03       		.byte	0x3
 12946 3423 00000000 		.4byte	Time_Out_Error
 12947 3427 21       		.uleb128 0x21
 12948 3428 89040000 		.4byte	.LASF106
 12949 342c 01       		.byte	0x1
 12950 342d 15       		.byte	0x15
 12951 342e 85000000 		.4byte	0x85
 12952 3432 05       		.uleb128 0x5
 12953 3433 03       		.byte	0x3
 12954 3434 00000000 		.4byte	command
 12955 3438 21       		.uleb128 0x21
 12956 3439 50060000 		.4byte	.LASF41
 12957 343d 01       		.byte	0x1
 12958 343e 18       		.byte	0x18
 12959 343f 7E000000 		.4byte	0x7e
 12960 3443 05       		.uleb128 0x5
 12961 3444 03       		.byte	0x3
 12962 3445 00000000 		.4byte	Error
 12963 3449 21       		.uleb128 0x21
 12964 344a 7C030000 		.4byte	.LASF107
 12965 344e 01       		.byte	0x1
 12966 344f 1B       		.byte	0x1b
 12967 3450 7E000000 		.4byte	0x7e
 12968 3454 05       		.uleb128 0x5
 12969 3455 03       		.byte	0x3
 12970 3456 00000000 		.4byte	errorX
 12971 345a 21       		.uleb128 0x21
 12972 345b 83030000 		.4byte	.LASF108
 12973 345f 01       		.byte	0x1
 12974 3460 1C       		.byte	0x1c
 12975 3461 7E000000 		.4byte	0x7e
 12976 3465 05       		.uleb128 0x5
 12977 3466 03       		.byte	0x3
 12978 3467 00000000 		.4byte	errorY
 12979 346b 21       		.uleb128 0x21
 12980 346c 8A030000 		.4byte	.LASF109
 12981 3470 01       		.byte	0x1
 12982 3471 1D       		.byte	0x1d
 12983 3472 7E000000 		.4byte	0x7e
 12984 3476 05       		.uleb128 0x5
 12985 3477 03       		.byte	0x3
 12986 3478 00000000 		.4byte	errorZ
 12987 347c 21       		.uleb128 0x21
 12988 347d 75030000 		.4byte	.LASF110
 12989 3481 01       		.byte	0x1
 12990 3482 1E       		.byte	0x1e
 12991 3483 7E000000 		.4byte	0x7e
 12992 3487 05       		.uleb128 0x5
 12993 3488 03       		.byte	0x3
 12994 3489 00000000 		.4byte	errorT
 12995 348d 21       		.uleb128 0x21
 12996 348e 9E020000 		.4byte	.LASF111
ARM GAS  C:\Users\Revanth\AppData\Local\Temp\ccSEzD1d.s 			page 274


 12997 3492 01       		.byte	0x1
 12998 3493 20       		.byte	0x20
 12999 3494 FA000000 		.4byte	0xfa
 13000 3498 05       		.uleb128 0x5
 13001 3499 03       		.byte	0x3
 13002 349a 00000000 		.4byte	Input_position_X
 13003 349e 21       		.uleb128 0x21
 13004 349f 33050000 		.4byte	.LASF112
 13005 34a3 01       		.byte	0x1
 13006 34a4 21       		.byte	0x21
 13007 34a5 FA000000 		.4byte	0xfa
 13008 34a9 05       		.uleb128 0x5
 13009 34aa 03       		.byte	0x3
 13010 34ab 00000000 		.4byte	Input_position_Y
 13011 34af 21       		.uleb128 0x21
 13012 34b0 B5020000 		.4byte	.LASF113
 13013 34b4 01       		.byte	0x1
 13014 34b5 22       		.byte	0x22
 13015 34b6 FA000000 		.4byte	0xfa
 13016 34ba 05       		.uleb128 0x5
 13017 34bb 03       		.byte	0x3
 13018 34bc 00000000 		.4byte	Input_position_Z
 13019 34c0 21       		.uleb128 0x21
 13020 34c1 F4040000 		.4byte	.LASF114
 13021 34c5 01       		.byte	0x1
 13022 34c6 23       		.byte	0x23
 13023 34c7 FA000000 		.4byte	0xfa
 13024 34cb 05       		.uleb128 0x5
 13025 34cc 03       		.byte	0x3
 13026 34cd 00000000 		.4byte	Input_position_T
 13027 34d1 21       		.uleb128 0x21
 13028 34d2 F2020000 		.4byte	.LASF78
 13029 34d6 01       		.byte	0x1
 13030 34d7 24       		.byte	0x24
 13031 34d8 FA000000 		.4byte	0xfa
 13032 34dc 05       		.uleb128 0x5
 13033 34dd 03       		.byte	0x3
 13034 34de 00000000 		.4byte	Position_Y_Requested
 13035 34e2 21       		.uleb128 0x21
 13036 34e3 1A0A0000 		.4byte	.LASF74
 13037 34e7 01       		.byte	0x1
 13038 34e8 25       		.byte	0x25
 13039 34e9 FA000000 		.4byte	0xfa
 13040 34ed 05       		.uleb128 0x5
 13041 34ee 03       		.byte	0x3
 13042 34ef 00000000 		.4byte	Position_X_Requested
 13043 34f3 21       		.uleb128 0x21
 13044 34f4 550C0000 		.4byte	.LASF82
 13045 34f8 01       		.byte	0x1
 13046 34f9 26       		.byte	0x26
 13047 34fa FA000000 		.4byte	0xfa
 13048 34fe 05       		.uleb128 0x5
 13049 34ff 03       		.byte	0x3
 13050 3500 00000000 		.4byte	Position_Z_Requested
 13051 3504 21       		.uleb128 0x21
 13052 3505 AC080000 		.4byte	.LASF86
 13053 3509 01       		.byte	0x1
ARM GAS  C:\Users\Revanth\AppData\Local\Temp\ccSEzD1d.s 			page 275


 13054 350a 27       		.byte	0x27
 13055 350b FA000000 		.4byte	0xfa
 13056 350f 05       		.uleb128 0x5
 13057 3510 03       		.byte	0x3
 13058 3511 00000000 		.4byte	Position_T_Requested
 13059 3515 21       		.uleb128 0x21
 13060 3516 320C0000 		.4byte	.LASF115
 13061 351a 01       		.byte	0x1
 13062 351b 2A       		.byte	0x2a
 13063 351c FA000000 		.4byte	0xfa
 13064 3520 05       		.uleb128 0x5
 13065 3521 03       		.byte	0x3
 13066 3522 00000000 		.4byte	Position_X_Move
 13067 3526 21       		.uleb128 0x21
 13068 3527 FE000000 		.4byte	.LASF116
 13069 352b 01       		.byte	0x1
 13070 352c 2B       		.byte	0x2b
 13071 352d FA000000 		.4byte	0xfa
 13072 3531 05       		.uleb128 0x5
 13073 3532 03       		.byte	0x3
 13074 3533 00000000 		.4byte	Position_Y_Move
 13075 3537 21       		.uleb128 0x21
 13076 3538 C2060000 		.4byte	.LASF117
 13077 353c 01       		.byte	0x1
 13078 353d 2C       		.byte	0x2c
 13079 353e FA000000 		.4byte	0xfa
 13080 3542 05       		.uleb128 0x5
 13081 3543 03       		.byte	0x3
 13082 3544 00000000 		.4byte	Position_Z_Move
 13083 3548 21       		.uleb128 0x21
 13084 3549 240C0000 		.4byte	.LASF118
 13085 354d 01       		.byte	0x1
 13086 354e 2F       		.byte	0x2f
 13087 354f 7E000000 		.4byte	0x7e
 13088 3553 05       		.uleb128 0x5
 13089 3554 03       		.byte	0x3
 13090 3555 00000000 		.4byte	old_cpr
 13091 3559 21       		.uleb128 0x21
 13092 355a A40B0000 		.4byte	.LASF119
 13093 355e 01       		.byte	0x1
 13094 355f 30       		.byte	0x30
 13095 3560 7E000000 		.4byte	0x7e
 13096 3564 05       		.uleb128 0x5
 13097 3565 03       		.byte	0x3
 13098 3566 00000000 		.4byte	new_cpr
 13099 356a 21       		.uleb128 0x21
 13100 356b 9D090000 		.4byte	.LASF120
 13101 356f 01       		.byte	0x1
 13102 3570 31       		.byte	0x31
 13103 3571 7E000000 		.4byte	0x7e
 13104 3575 05       		.uleb128 0x5
 13105 3576 03       		.byte	0x3
 13106 3577 00000000 		.4byte	sub_step_multiplier
 13107 357b 21       		.uleb128 0x21
 13108 357c A80A0000 		.4byte	.LASF121
 13109 3580 01       		.byte	0x1
 13110 3581 33       		.byte	0x33
ARM GAS  C:\Users\Revanth\AppData\Local\Temp\ccSEzD1d.s 			page 276


 13111 3582 7E000000 		.4byte	0x7e
 13112 3586 05       		.uleb128 0x5
 13113 3587 03       		.byte	0x3
 13114 3588 00000000 		.4byte	old_pitch
 13115 358c 21       		.uleb128 0x21
 13116 358d 5F0A0000 		.4byte	.LASF122
 13117 3591 01       		.byte	0x1
 13118 3592 34       		.byte	0x34
 13119 3593 7E000000 		.4byte	0x7e
 13120 3597 05       		.uleb128 0x5
 13121 3598 03       		.byte	0x3
 13122 3599 00000000 		.4byte	new_pitch
 13123 359d 21       		.uleb128 0x21
 13124 359e BC090000 		.4byte	.LASF123
 13125 35a2 01       		.byte	0x1
 13126 35a3 35       		.byte	0x35
 13127 35a4 7E000000 		.4byte	0x7e
 13128 35a8 05       		.uleb128 0x5
 13129 35a9 03       		.byte	0x3
 13130 35aa 00000000 		.4byte	pitch_factor_XY
 13131 35ae 21       		.uleb128 0x21
 13132 35af 6F0B0000 		.4byte	.LASF124
 13133 35b3 01       		.byte	0x1
 13134 35b4 36       		.byte	0x36
 13135 35b5 CF000000 		.4byte	0xcf
 13136 35b9 05       		.uleb128 0x5
 13137 35ba 03       		.byte	0x3
 13138 35bb 00000000 		.4byte	pitch_factor_Z
 13139 35bf 21       		.uleb128 0x21
 13140 35c0 7E0B0000 		.4byte	.LASF125
 13141 35c4 01       		.byte	0x1
 13142 35c5 37       		.byte	0x37
 13143 35c6 CF000000 		.4byte	0xcf
 13144 35ca 05       		.uleb128 0x5
 13145 35cb 03       		.byte	0x3
 13146 35cc 00000000 		.4byte	pitch_factor_T
 13147 35d0 21       		.uleb128 0x21
 13148 35d1 32000000 		.4byte	.LASF126
 13149 35d5 01       		.byte	0x1
 13150 35d6 38       		.byte	0x38
 13151 35d7 7E000000 		.4byte	0x7e
 13152 35db 05       		.uleb128 0x5
 13153 35dc 03       		.byte	0x3
 13154 35dd 00000000 		.4byte	fact_z
 13155 35e1 21       		.uleb128 0x21
 13156 35e2 23000000 		.4byte	.LASF127
 13157 35e6 01       		.byte	0x1
 13158 35e7 39       		.byte	0x39
 13159 35e8 7E000000 		.4byte	0x7e
 13160 35ec 05       		.uleb128 0x5
 13161 35ed 03       		.byte	0x3
 13162 35ee 00000000 		.4byte	fact_t
 13163 35f2 21       		.uleb128 0x21
 13164 35f3 CB070000 		.4byte	.LASF128
 13165 35f7 01       		.byte	0x1
 13166 35f8 3B       		.byte	0x3b
 13167 35f9 03360000 		.4byte	0x3603
ARM GAS  C:\Users\Revanth\AppData\Local\Temp\ccSEzD1d.s 			page 277


 13168 35fd 05       		.uleb128 0x5
 13169 35fe 03       		.byte	0x3
 13170 35ff 00000000 		.4byte	X_QuadPosition
 13171 3603 20       		.uleb128 0x20
 13172 3604 FA000000 		.4byte	0xfa
 13173 3608 21       		.uleb128 0x21
 13174 3609 D2060000 		.4byte	.LASF129
 13175 360d 01       		.byte	0x1
 13176 360e 3C       		.byte	0x3c
 13177 360f 03360000 		.4byte	0x3603
 13178 3613 05       		.uleb128 0x5
 13179 3614 03       		.byte	0x3
 13180 3615 00000000 		.4byte	Y_QuadPosition
 13181 3619 21       		.uleb128 0x21
 13182 361a AC000000 		.4byte	.LASF130
 13183 361e 01       		.byte	0x1
 13184 361f 3D       		.byte	0x3d
 13185 3620 03360000 		.4byte	0x3603
 13186 3624 05       		.uleb128 0x5
 13187 3625 03       		.byte	0x3
 13188 3626 00000000 		.4byte	Z_QuadPosition
 13189 362a 21       		.uleb128 0x21
 13190 362b 8A070000 		.4byte	.LASF131
 13191 362f 01       		.byte	0x1
 13192 3630 3E       		.byte	0x3e
 13193 3631 03360000 		.4byte	0x3603
 13194 3635 05       		.uleb128 0x5
 13195 3636 03       		.byte	0x3
 13196 3637 00000000 		.4byte	T_QuadPosition
 13197 363b 21       		.uleb128 0x21
 13198 363c 07030000 		.4byte	.LASF132
 13199 3640 01       		.byte	0x1
 13200 3641 3F       		.byte	0x3f
 13201 3642 CF000000 		.4byte	0xcf
 13202 3646 05       		.uleb128 0x5
 13203 3647 03       		.byte	0x3
 13204 3648 00000000 		.4byte	Z_Rectification
 13205 364c 21       		.uleb128 0x21
 13206 364d 8B010000 		.4byte	.LASF133
 13207 3651 01       		.byte	0x1
 13208 3652 40       		.byte	0x40
 13209 3653 7E000000 		.4byte	0x7e
 13210 3657 05       		.uleb128 0x5
 13211 3658 03       		.byte	0x3
 13212 3659 00000000 		.4byte	No_of_X_Cycle
 13213 365d 21       		.uleb128 0x21
 13214 365e 6B080000 		.4byte	.LASF134
 13215 3662 01       		.byte	0x1
 13216 3663 41       		.byte	0x41
 13217 3664 7E000000 		.4byte	0x7e
 13218 3668 05       		.uleb128 0x5
 13219 3669 03       		.byte	0x3
 13220 366a 00000000 		.4byte	No_of_Y_Cycle
 13221 366e 21       		.uleb128 0x21
 13222 366f F6010000 		.4byte	.LASF135
 13223 3673 01       		.byte	0x1
 13224 3674 42       		.byte	0x42
ARM GAS  C:\Users\Revanth\AppData\Local\Temp\ccSEzD1d.s 			page 278


 13225 3675 7E000000 		.4byte	0x7e
 13226 3679 05       		.uleb128 0x5
 13227 367a 03       		.byte	0x3
 13228 367b 00000000 		.4byte	No_of_Z_Cycle
 13229 367f 21       		.uleb128 0x21
 13230 3680 2D070000 		.4byte	.LASF136
 13231 3684 01       		.byte	0x1
 13232 3685 43       		.byte	0x43
 13233 3686 85000000 		.4byte	0x85
 13234 368a 05       		.uleb128 0x5
 13235 368b 03       		.byte	0x3
 13236 368c 00000000 		.4byte	Motor_Speed_X
 13237 3690 21       		.uleb128 0x21
 13238 3691 3B070000 		.4byte	.LASF137
 13239 3695 01       		.byte	0x1
 13240 3696 44       		.byte	0x44
 13241 3697 85000000 		.4byte	0x85
 13242 369b 05       		.uleb128 0x5
 13243 369c 03       		.byte	0x3
 13244 369d 00000000 		.4byte	Motor_Speed_Y
 13245 36a1 21       		.uleb128 0x21
 13246 36a2 49070000 		.4byte	.LASF138
 13247 36a6 01       		.byte	0x1
 13248 36a7 45       		.byte	0x45
 13249 36a8 85000000 		.4byte	0x85
 13250 36ac 05       		.uleb128 0x5
 13251 36ad 03       		.byte	0x3
 13252 36ae 00000000 		.4byte	Motor_Speed_Z
 13253 36b2 21       		.uleb128 0x21
 13254 36b3 EF030000 		.4byte	.LASF139
 13255 36b7 01       		.byte	0x1
 13256 36b8 46       		.byte	0x46
 13257 36b9 7E000000 		.4byte	0x7e
 13258 36bd 05       		.uleb128 0x5
 13259 36be 03       		.byte	0x3
 13260 36bf 00000000 		.4byte	step_correction_loop_x
 13261 36c3 21       		.uleb128 0x21
 13262 36c4 06040000 		.4byte	.LASF140
 13263 36c8 01       		.byte	0x1
 13264 36c9 47       		.byte	0x47
 13265 36ca 7E000000 		.4byte	0x7e
 13266 36ce 05       		.uleb128 0x5
 13267 36cf 03       		.byte	0x3
 13268 36d0 00000000 		.4byte	step_correction_loop_y
 13269 36d4 21       		.uleb128 0x21
 13270 36d5 8D0B0000 		.4byte	.LASF141
 13271 36d9 01       		.byte	0x1
 13272 36da 48       		.byte	0x48
 13273 36db 7E000000 		.4byte	0x7e
 13274 36df 05       		.uleb128 0x5
 13275 36e0 03       		.byte	0x3
 13276 36e1 00000000 		.4byte	step_correction_loop_z
 13277 36e5 21       		.uleb128 0x21
 13278 36e6 E0090000 		.4byte	.LASF142
 13279 36ea 01       		.byte	0x1
 13280 36eb 49       		.byte	0x49
 13281 36ec 56090000 		.4byte	0x956
ARM GAS  C:\Users\Revanth\AppData\Local\Temp\ccSEzD1d.s 			page 279


 13282 36f0 05       		.uleb128 0x5
 13283 36f1 03       		.byte	0x3
 13284 36f2 00000000 		.4byte	HomeX_done
 13285 36f6 21       		.uleb128 0x21
 13286 36f7 4A010000 		.4byte	.LASF143
 13287 36fb 01       		.byte	0x1
 13288 36fc 4A       		.byte	0x4a
 13289 36fd 56090000 		.4byte	0x956
 13290 3701 05       		.uleb128 0x5
 13291 3702 03       		.byte	0x3
 13292 3703 00000000 		.4byte	HomeY_done
 13293 3707 21       		.uleb128 0x21
 13294 3708 18000000 		.4byte	.LASF144
 13295 370c 01       		.byte	0x1
 13296 370d 4B       		.byte	0x4b
 13297 370e 56090000 		.4byte	0x956
 13298 3712 05       		.uleb128 0x5
 13299 3713 03       		.byte	0x3
 13300 3714 00000000 		.4byte	HomeZ_done
 13301 3718 21       		.uleb128 0x21
 13302 3719 78050000 		.4byte	.LASF145
 13303 371d 01       		.byte	0x1
 13304 371e 4C       		.byte	0x4c
 13305 371f 56090000 		.4byte	0x956
 13306 3723 05       		.uleb128 0x5
 13307 3724 03       		.byte	0x3
 13308 3725 00000000 		.4byte	HomeT_done
 13309 3729 21       		.uleb128 0x21
 13310 372a 04020000 		.4byte	.LASF146
 13311 372e 01       		.byte	0x1
 13312 372f 4D       		.byte	0x4d
 13313 3730 7E000000 		.4byte	0x7e
 13314 3734 05       		.uleb128 0x5
 13315 3735 03       		.byte	0x3
 13316 3736 00000000 		.4byte	EncoderTZSelect
 13317 373a 21       		.uleb128 0x21
 13318 373b 88020000 		.4byte	.LASF147
 13319 373f 01       		.byte	0x1
 13320 3740 4E       		.byte	0x4e
 13321 3741 7E000000 		.4byte	0x7e
 13322 3745 05       		.uleb128 0x5
 13323 3746 03       		.byte	0x3
 13324 3747 00000000 		.4byte	Buffer_Z_QuadPosition
 13325 374b 21       		.uleb128 0x21
 13326 374c CF050000 		.4byte	.LASF148
 13327 3750 01       		.byte	0x1
 13328 3751 4F       		.byte	0x4f
 13329 3752 7E000000 		.4byte	0x7e
 13330 3756 05       		.uleb128 0x5
 13331 3757 03       		.byte	0x3
 13332 3758 00000000 		.4byte	Buffer_T_QuadPosition
 13333 375c 21       		.uleb128 0x21
 13334 375d 30080000 		.4byte	.LASF149
 13335 3761 01       		.byte	0x1
 13336 3762 50       		.byte	0x50
 13337 3763 7E000000 		.4byte	0x7e
 13338 3767 05       		.uleb128 0x5
ARM GAS  C:\Users\Revanth\AppData\Local\Temp\ccSEzD1d.s 			page 280


 13339 3768 03       		.byte	0x3
 13340 3769 00000000 		.4byte	PWM_comare_value
 13341 376d 21       		.uleb128 0x21
 13342 376e 0B0C0000 		.4byte	.LASF150
 13343 3772 01       		.byte	0x1
 13344 3773 51       		.byte	0x51
 13345 3774 7E000000 		.4byte	0x7e
 13346 3778 05       		.uleb128 0x5
 13347 3779 03       		.byte	0x3
 13348 377a 00000000 		.4byte	PWM_barcode_comare_value
 13349 377e 21       		.uleb128 0x21
 13350 377f 4F090000 		.4byte	.LASF151
 13351 3783 01       		.byte	0x1
 13352 3784 52       		.byte	0x52
 13353 3785 7E000000 		.4byte	0x7e
 13354 3789 05       		.uleb128 0x5
 13355 378a 03       		.byte	0x3
 13356 378b 00000000 		.4byte	spi_read_value
 13357 378f 22       		.uleb128 0x22
 13358 3790 52020000 		.4byte	.LASF152
 13359 3794 01       		.byte	0x1
 13360 3795 54       		.byte	0x54
 13361 3796 8C000000 		.4byte	0x8c
 13362 379a 22       		.uleb128 0x22
 13363 379b 5B020000 		.4byte	.LASF153
 13364 379f 01       		.byte	0x1
 13365 37a0 55       		.byte	0x55
 13366 37a1 8C000000 		.4byte	0x8c
 13367 37a5 22       		.uleb128 0x22
 13368 37a6 64020000 		.4byte	.LASF154
 13369 37aa 01       		.byte	0x1
 13370 37ab 56       		.byte	0x56
 13371 37ac 8C000000 		.4byte	0x8c
 13372 37b0 23       		.uleb128 0x23
 13373 37b1 ED0A0000 		.4byte	.LASF155
 13374 37b5 ED0A0000 		.4byte	.LASF155
 13375 37b9 07       		.byte	0x7
 13376 37ba 92       		.byte	0x92
 13377 37bb 23       		.uleb128 0x23
 13378 37bc 14020000 		.4byte	.LASF156
 13379 37c0 14020000 		.4byte	.LASF156
 13380 37c4 07       		.byte	0x7
 13381 37c5 C3       		.byte	0xc3
 13382 37c6 23       		.uleb128 0x23
 13383 37c7 BB000000 		.4byte	.LASF157
 13384 37cb BB000000 		.4byte	.LASF157
 13385 37cf 08       		.byte	0x8
 13386 37d0 92       		.byte	0x92
 13387 37d1 23       		.uleb128 0x23
 13388 37d2 57000000 		.4byte	.LASF158
 13389 37d6 57000000 		.4byte	.LASF158
 13390 37da 08       		.byte	0x8
 13391 37db C3       		.byte	0xc3
 13392 37dc 23       		.uleb128 0x23
 13393 37dd 5E090000 		.4byte	.LASF159
 13394 37e1 5E090000 		.4byte	.LASF159
 13395 37e5 09       		.byte	0x9
ARM GAS  C:\Users\Revanth\AppData\Local\Temp\ccSEzD1d.s 			page 281


 13396 37e6 92       		.byte	0x92
 13397 37e7 23       		.uleb128 0x23
 13398 37e8 32060000 		.4byte	.LASF160
 13399 37ec 32060000 		.4byte	.LASF160
 13400 37f0 09       		.byte	0x9
 13401 37f1 C3       		.byte	0xc3
 13402 37f2 23       		.uleb128 0x23
 13403 37f3 A4000000 		.4byte	.LASF161
 13404 37f7 A4000000 		.4byte	.LASF161
 13405 37fb 0A       		.byte	0xa
 13406 37fc 76       		.byte	0x76
 13407 37fd 23       		.uleb128 0x23
 13408 37fe AC0B0000 		.4byte	.LASF162
 13409 3802 AC0B0000 		.4byte	.LASF162
 13410 3806 0B       		.byte	0xb
 13411 3807 26       		.byte	0x26
 13412 3808 23       		.uleb128 0x23
 13413 3809 AC060000 		.4byte	.LASF163
 13414 380d AC060000 		.4byte	.LASF163
 13415 3811 0C       		.byte	0xc
 13416 3812 4F       		.byte	0x4f
 13417 3813 23       		.uleb128 0x23
 13418 3814 010A0000 		.4byte	.LASF164
 13419 3818 010A0000 		.4byte	.LASF164
 13420 381c 0D       		.byte	0xd
 13421 381d 2F       		.byte	0x2f
 13422 381e 23       		.uleb128 0x23
 13423 381f 49050000 		.4byte	.LASF165
 13424 3823 49050000 		.4byte	.LASF165
 13425 3827 0C       		.byte	0xc
 13426 3828 48       		.byte	0x48
 13427 3829 23       		.uleb128 0x23
 13428 382a 0E010000 		.4byte	.LASF166
 13429 382e 0E010000 		.4byte	.LASF166
 13430 3832 0E       		.byte	0xe
 13431 3833 48       		.byte	0x48
 13432 3834 23       		.uleb128 0x23
 13433 3835 57070000 		.4byte	.LASF167
 13434 3839 57070000 		.4byte	.LASF167
 13435 383d 0F       		.byte	0xf
 13436 383e 48       		.byte	0x48
 13437 383f 23       		.uleb128 0x23
 13438 3840 EB090000 		.4byte	.LASF168
 13439 3844 EB090000 		.4byte	.LASF168
 13440 3848 0C       		.byte	0xc
 13441 3849 4E       		.byte	0x4e
 13442 384a 23       		.uleb128 0x23
 13443 384b 930A0000 		.4byte	.LASF169
 13444 384f 930A0000 		.4byte	.LASF169
 13445 3853 0F       		.byte	0xf
 13446 3854 4E       		.byte	0x4e
 13447 3855 23       		.uleb128 0x23
 13448 3856 B2010000 		.4byte	.LASF170
 13449 385a B2010000 		.4byte	.LASF170
 13450 385e 0E       		.byte	0xe
 13451 385f 4E       		.byte	0x4e
 13452 3860 23       		.uleb128 0x23
ARM GAS  C:\Users\Revanth\AppData\Local\Temp\ccSEzD1d.s 			page 282


 13453 3861 01060000 		.4byte	.LASF171
 13454 3865 01060000 		.4byte	.LASF171
 13455 3869 10       		.byte	0x10
 13456 386a 2B       		.byte	0x2b
 13457 386b 23       		.uleb128 0x23
 13458 386c 28080000 		.4byte	.LASF172
 13459 3870 28080000 		.4byte	.LASF172
 13460 3874 11       		.byte	0x11
 13461 3875 23       		.byte	0x23
 13462 3876 23       		.uleb128 0x23
 13463 3877 3B030000 		.4byte	.LASF173
 13464 387b 3B030000 		.4byte	.LASF173
 13465 387f 12       		.byte	0x12
 13466 3880 8B       		.byte	0x8b
 13467 3881 23       		.uleb128 0x23
 13468 3882 E1020000 		.4byte	.LASF174
 13469 3886 E1020000 		.4byte	.LASF174
 13470 388a 0A       		.byte	0xa
 13471 388b 77       		.byte	0x77
 13472 388c 23       		.uleb128 0x23
 13473 388d 97000000 		.4byte	.LASF175
 13474 3891 97000000 		.4byte	.LASF175
 13475 3895 11       		.byte	0x11
 13476 3896 24       		.byte	0x24
 13477 3897 23       		.uleb128 0x23
 13478 3898 E3070000 		.4byte	.LASF176
 13479 389c E3070000 		.4byte	.LASF176
 13480 38a0 10       		.byte	0x10
 13481 38a1 23       		.byte	0x23
 13482 38a2 24       		.uleb128 0x24
 13483 38a3 83050000 		.4byte	.LASF177
 13484 38a7 83050000 		.4byte	.LASF177
 13485 38ab 13       		.byte	0x13
 13486 38ac 2E01     		.2byte	0x12e
 13487 38ae 24       		.uleb128 0x24
 13488 38af A6070000 		.4byte	.LASF178
 13489 38b3 A6070000 		.4byte	.LASF178
 13490 38b7 13       		.byte	0x13
 13491 38b8 3101     		.2byte	0x131
 13492 38ba 23       		.uleb128 0x23
 13493 38bb D4020000 		.4byte	.LASF179
 13494 38bf D4020000 		.4byte	.LASF179
 13495 38c3 10       		.byte	0x10
 13496 38c4 22       		.byte	0x22
 13497 38c5 24       		.uleb128 0x24
 13498 38c6 5A080000 		.4byte	.LASF180
 13499 38ca 5A080000 		.4byte	.LASF180
 13500 38ce 13       		.byte	0x13
 13501 38cf 4301     		.2byte	0x143
 13502 38d1 23       		.uleb128 0x23
 13503 38d2 2A000000 		.4byte	.LASF181
 13504 38d6 2A000000 		.4byte	.LASF181
 13505 38da 14       		.byte	0x14
 13506 38db E7       		.byte	0xe7
 13507 38dc 24       		.uleb128 0x24
 13508 38dd 6D020000 		.4byte	.LASF182
 13509 38e1 6D020000 		.4byte	.LASF182
ARM GAS  C:\Users\Revanth\AppData\Local\Temp\ccSEzD1d.s 			page 283


 13510 38e5 13       		.byte	0x13
 13511 38e6 3201     		.2byte	0x132
 13512 38e8 23       		.uleb128 0x23
 13513 38e9 4C040000 		.4byte	.LASF183
 13514 38ed 4C040000 		.4byte	.LASF183
 13515 38f1 15       		.byte	0x15
 13516 38f2 5E       		.byte	0x5e
 13517 38f3 23       		.uleb128 0x23
 13518 38f4 B20A0000 		.4byte	.LASF184
 13519 38f8 B20A0000 		.4byte	.LASF184
 13520 38fc 16       		.byte	0x16
 13521 38fd 26       		.byte	0x26
 13522 38fe 23       		.uleb128 0x23
 13523 38ff C50A0000 		.4byte	.LASF185
 13524 3903 C50A0000 		.4byte	.LASF185
 13525 3907 17       		.byte	0x17
 13526 3908 26       		.byte	0x26
 13527 3909 23       		.uleb128 0x23
 13528 390a E1040000 		.4byte	.LASF186
 13529 390e E1040000 		.4byte	.LASF186
 13530 3912 18       		.byte	0x18
 13531 3913 26       		.byte	0x26
 13532 3914 23       		.uleb128 0x23
 13533 3915 420C0000 		.4byte	.LASF187
 13534 3919 420C0000 		.4byte	.LASF187
 13535 391d 19       		.byte	0x19
 13536 391e 26       		.byte	0x26
 13537 391f 23       		.uleb128 0x23
 13538 3920 17030000 		.4byte	.LASF188
 13539 3924 17030000 		.4byte	.LASF188
 13540 3928 1A       		.byte	0x1a
 13541 3929 26       		.byte	0x26
 13542 392a 23       		.uleb128 0x23
 13543 392b BB070000 		.4byte	.LASF189
 13544 392f BB070000 		.4byte	.LASF189
 13545 3933 15       		.byte	0x15
 13546 3934 60       		.byte	0x60
 13547 3935 23       		.uleb128 0x23
 13548 3936 450B0000 		.4byte	.LASF190
 13549 393a 450B0000 		.4byte	.LASF190
 13550 393e 1B       		.byte	0x1b
 13551 393f 26       		.byte	0x26
 13552 3940 23       		.uleb128 0x23
 13553 3941 0D000000 		.4byte	.LASF191
 13554 3945 0D000000 		.4byte	.LASF191
 13555 3949 1C       		.byte	0x1c
 13556 394a 26       		.byte	0x26
 13557 394b 23       		.uleb128 0x23
 13558 394c 67060000 		.4byte	.LASF192
 13559 3950 67060000 		.4byte	.LASF192
 13560 3954 0F       		.byte	0xf
 13561 3955 4F       		.byte	0x4f
 13562 3956 23       		.uleb128 0x23
 13563 3957 D80A0000 		.4byte	.LASF193
 13564 395b D80A0000 		.4byte	.LASF193
 13565 395f 0E       		.byte	0xe
 13566 3960 4F       		.byte	0x4f
ARM GAS  C:\Users\Revanth\AppData\Local\Temp\ccSEzD1d.s 			page 284


 13567 3961 23       		.uleb128 0x23
 13568 3962 3A010000 		.4byte	.LASF194
 13569 3966 3A010000 		.4byte	.LASF194
 13570 396a 0A       		.byte	0xa
 13571 396b 7B       		.byte	0x7b
 13572 396c 00       		.byte	0
 13573              		.section	.debug_abbrev,"",%progbits
 13574              	.Ldebug_abbrev0:
 13575 0000 01       		.uleb128 0x1
 13576 0001 11       		.uleb128 0x11
 13577 0002 01       		.byte	0x1
 13578 0003 25       		.uleb128 0x25
 13579 0004 0E       		.uleb128 0xe
 13580 0005 13       		.uleb128 0x13
 13581 0006 0B       		.uleb128 0xb
 13582 0007 03       		.uleb128 0x3
 13583 0008 0E       		.uleb128 0xe
 13584 0009 1B       		.uleb128 0x1b
 13585 000a 0E       		.uleb128 0xe
 13586 000b 55       		.uleb128 0x55
 13587 000c 17       		.uleb128 0x17
 13588 000d 11       		.uleb128 0x11
 13589 000e 01       		.uleb128 0x1
 13590 000f 10       		.uleb128 0x10
 13591 0010 17       		.uleb128 0x17
 13592 0011 00       		.byte	0
 13593 0012 00       		.byte	0
 13594 0013 02       		.uleb128 0x2
 13595 0014 24       		.uleb128 0x24
 13596 0015 00       		.byte	0
 13597 0016 0B       		.uleb128 0xb
 13598 0017 0B       		.uleb128 0xb
 13599 0018 3E       		.uleb128 0x3e
 13600 0019 0B       		.uleb128 0xb
 13601 001a 03       		.uleb128 0x3
 13602 001b 0E       		.uleb128 0xe
 13603 001c 00       		.byte	0
 13604 001d 00       		.byte	0
 13605 001e 03       		.uleb128 0x3
 13606 001f 16       		.uleb128 0x16
 13607 0020 00       		.byte	0
 13608 0021 03       		.uleb128 0x3
 13609 0022 0E       		.uleb128 0xe
 13610 0023 3A       		.uleb128 0x3a
 13611 0024 0B       		.uleb128 0xb
 13612 0025 3B       		.uleb128 0x3b
 13613 0026 0B       		.uleb128 0xb
 13614 0027 49       		.uleb128 0x49
 13615 0028 13       		.uleb128 0x13
 13616 0029 00       		.byte	0
 13617 002a 00       		.byte	0
 13618 002b 04       		.uleb128 0x4
 13619 002c 24       		.uleb128 0x24
 13620 002d 00       		.byte	0
 13621 002e 0B       		.uleb128 0xb
 13622 002f 0B       		.uleb128 0xb
 13623 0030 3E       		.uleb128 0x3e
ARM GAS  C:\Users\Revanth\AppData\Local\Temp\ccSEzD1d.s 			page 285


 13624 0031 0B       		.uleb128 0xb
 13625 0032 03       		.uleb128 0x3
 13626 0033 08       		.uleb128 0x8
 13627 0034 00       		.byte	0
 13628 0035 00       		.byte	0
 13629 0036 05       		.uleb128 0x5
 13630 0037 0F       		.uleb128 0xf
 13631 0038 00       		.byte	0
 13632 0039 0B       		.uleb128 0xb
 13633 003a 0B       		.uleb128 0xb
 13634 003b 49       		.uleb128 0x49
 13635 003c 13       		.uleb128 0x13
 13636 003d 00       		.byte	0
 13637 003e 00       		.byte	0
 13638 003f 06       		.uleb128 0x6
 13639 0040 16       		.uleb128 0x16
 13640 0041 00       		.byte	0
 13641 0042 03       		.uleb128 0x3
 13642 0043 0E       		.uleb128 0xe
 13643 0044 3A       		.uleb128 0x3a
 13644 0045 0B       		.uleb128 0xb
 13645 0046 3B       		.uleb128 0x3b
 13646 0047 05       		.uleb128 0x5
 13647 0048 49       		.uleb128 0x49
 13648 0049 13       		.uleb128 0x13
 13649 004a 00       		.byte	0
 13650 004b 00       		.byte	0
 13651 004c 07       		.uleb128 0x7
 13652 004d 2E       		.uleb128 0x2e
 13653 004e 01       		.byte	0x1
 13654 004f 3F       		.uleb128 0x3f
 13655 0050 19       		.uleb128 0x19
 13656 0051 03       		.uleb128 0x3
 13657 0052 0E       		.uleb128 0xe
 13658 0053 3A       		.uleb128 0x3a
 13659 0054 0B       		.uleb128 0xb
 13660 0055 3B       		.uleb128 0x3b
 13661 0056 05       		.uleb128 0x5
 13662 0057 11       		.uleb128 0x11
 13663 0058 01       		.uleb128 0x1
 13664 0059 12       		.uleb128 0x12
 13665 005a 06       		.uleb128 0x6
 13666 005b 40       		.uleb128 0x40
 13667 005c 18       		.uleb128 0x18
 13668 005d 9742     		.uleb128 0x2117
 13669 005f 19       		.uleb128 0x19
 13670 0060 01       		.uleb128 0x1
 13671 0061 13       		.uleb128 0x13
 13672 0062 00       		.byte	0
 13673 0063 00       		.byte	0
 13674 0064 08       		.uleb128 0x8
 13675 0065 898201   		.uleb128 0x4109
 13676 0068 00       		.byte	0
 13677 0069 11       		.uleb128 0x11
 13678 006a 01       		.uleb128 0x1
 13679 006b 31       		.uleb128 0x31
 13680 006c 13       		.uleb128 0x13
ARM GAS  C:\Users\Revanth\AppData\Local\Temp\ccSEzD1d.s 			page 286


 13681 006d 00       		.byte	0
 13682 006e 00       		.byte	0
 13683 006f 09       		.uleb128 0x9
 13684 0070 898201   		.uleb128 0x4109
 13685 0073 01       		.byte	0x1
 13686 0074 11       		.uleb128 0x11
 13687 0075 01       		.uleb128 0x1
 13688 0076 31       		.uleb128 0x31
 13689 0077 13       		.uleb128 0x13
 13690 0078 01       		.uleb128 0x1
 13691 0079 13       		.uleb128 0x13
 13692 007a 00       		.byte	0
 13693 007b 00       		.byte	0
 13694 007c 0A       		.uleb128 0xa
 13695 007d 8A8201   		.uleb128 0x410a
 13696 0080 00       		.byte	0
 13697 0081 02       		.uleb128 0x2
 13698 0082 18       		.uleb128 0x18
 13699 0083 9142     		.uleb128 0x2111
 13700 0085 18       		.uleb128 0x18
 13701 0086 00       		.byte	0
 13702 0087 00       		.byte	0
 13703 0088 0B       		.uleb128 0xb
 13704 0089 898201   		.uleb128 0x4109
 13705 008c 01       		.byte	0x1
 13706 008d 11       		.uleb128 0x11
 13707 008e 01       		.uleb128 0x1
 13708 008f 31       		.uleb128 0x31
 13709 0090 13       		.uleb128 0x13
 13710 0091 00       		.byte	0
 13711 0092 00       		.byte	0
 13712 0093 0C       		.uleb128 0xc
 13713 0094 2E       		.uleb128 0x2e
 13714 0095 01       		.byte	0x1
 13715 0096 3F       		.uleb128 0x3f
 13716 0097 19       		.uleb128 0x19
 13717 0098 03       		.uleb128 0x3
 13718 0099 0E       		.uleb128 0xe
 13719 009a 3A       		.uleb128 0x3a
 13720 009b 0B       		.uleb128 0xb
 13721 009c 3B       		.uleb128 0x3b
 13722 009d 05       		.uleb128 0x5
 13723 009e 27       		.uleb128 0x27
 13724 009f 19       		.uleb128 0x19
 13725 00a0 11       		.uleb128 0x11
 13726 00a1 01       		.uleb128 0x1
 13727 00a2 12       		.uleb128 0x12
 13728 00a3 06       		.uleb128 0x6
 13729 00a4 40       		.uleb128 0x40
 13730 00a5 18       		.uleb128 0x18
 13731 00a6 9742     		.uleb128 0x2117
 13732 00a8 19       		.uleb128 0x19
 13733 00a9 01       		.uleb128 0x1
 13734 00aa 13       		.uleb128 0x13
 13735 00ab 00       		.byte	0
 13736 00ac 00       		.byte	0
 13737 00ad 0D       		.uleb128 0xd
ARM GAS  C:\Users\Revanth\AppData\Local\Temp\ccSEzD1d.s 			page 287


 13738 00ae 05       		.uleb128 0x5
 13739 00af 00       		.byte	0
 13740 00b0 03       		.uleb128 0x3
 13741 00b1 0E       		.uleb128 0xe
 13742 00b2 3A       		.uleb128 0x3a
 13743 00b3 0B       		.uleb128 0xb
 13744 00b4 3B       		.uleb128 0x3b
 13745 00b5 05       		.uleb128 0x5
 13746 00b6 49       		.uleb128 0x49
 13747 00b7 13       		.uleb128 0x13
 13748 00b8 02       		.uleb128 0x2
 13749 00b9 17       		.uleb128 0x17
 13750 00ba 00       		.byte	0
 13751 00bb 00       		.byte	0
 13752 00bc 0E       		.uleb128 0xe
 13753 00bd 2E       		.uleb128 0x2e
 13754 00be 00       		.byte	0
 13755 00bf 3F       		.uleb128 0x3f
 13756 00c0 19       		.uleb128 0x19
 13757 00c1 03       		.uleb128 0x3
 13758 00c2 0E       		.uleb128 0xe
 13759 00c3 3A       		.uleb128 0x3a
 13760 00c4 0B       		.uleb128 0xb
 13761 00c5 3B       		.uleb128 0x3b
 13762 00c6 05       		.uleb128 0x5
 13763 00c7 11       		.uleb128 0x11
 13764 00c8 01       		.uleb128 0x1
 13765 00c9 12       		.uleb128 0x12
 13766 00ca 06       		.uleb128 0x6
 13767 00cb 40       		.uleb128 0x40
 13768 00cc 18       		.uleb128 0x18
 13769 00cd 9742     		.uleb128 0x2117
 13770 00cf 19       		.uleb128 0x19
 13771 00d0 00       		.byte	0
 13772 00d1 00       		.byte	0
 13773 00d2 0F       		.uleb128 0xf
 13774 00d3 34       		.uleb128 0x34
 13775 00d4 00       		.byte	0
 13776 00d5 03       		.uleb128 0x3
 13777 00d6 08       		.uleb128 0x8
 13778 00d7 3A       		.uleb128 0x3a
 13779 00d8 0B       		.uleb128 0xb
 13780 00d9 3B       		.uleb128 0x3b
 13781 00da 05       		.uleb128 0x5
 13782 00db 49       		.uleb128 0x49
 13783 00dc 13       		.uleb128 0x13
 13784 00dd 02       		.uleb128 0x2
 13785 00de 17       		.uleb128 0x17
 13786 00df 00       		.byte	0
 13787 00e0 00       		.byte	0
 13788 00e1 10       		.uleb128 0x10
 13789 00e2 34       		.uleb128 0x34
 13790 00e3 00       		.byte	0
 13791 00e4 03       		.uleb128 0x3
 13792 00e5 0E       		.uleb128 0xe
 13793 00e6 3A       		.uleb128 0x3a
 13794 00e7 0B       		.uleb128 0xb
ARM GAS  C:\Users\Revanth\AppData\Local\Temp\ccSEzD1d.s 			page 288


 13795 00e8 3B       		.uleb128 0x3b
 13796 00e9 05       		.uleb128 0x5
 13797 00ea 49       		.uleb128 0x49
 13798 00eb 13       		.uleb128 0x13
 13799 00ec 02       		.uleb128 0x2
 13800 00ed 18       		.uleb128 0x18
 13801 00ee 00       		.byte	0
 13802 00ef 00       		.byte	0
 13803 00f0 11       		.uleb128 0x11
 13804 00f1 01       		.uleb128 0x1
 13805 00f2 01       		.byte	0x1
 13806 00f3 49       		.uleb128 0x49
 13807 00f4 13       		.uleb128 0x13
 13808 00f5 01       		.uleb128 0x1
 13809 00f6 13       		.uleb128 0x13
 13810 00f7 00       		.byte	0
 13811 00f8 00       		.byte	0
 13812 00f9 12       		.uleb128 0x12
 13813 00fa 21       		.uleb128 0x21
 13814 00fb 00       		.byte	0
 13815 00fc 49       		.uleb128 0x49
 13816 00fd 13       		.uleb128 0x13
 13817 00fe 2F       		.uleb128 0x2f
 13818 00ff 0B       		.uleb128 0xb
 13819 0100 00       		.byte	0
 13820 0101 00       		.byte	0
 13821 0102 13       		.uleb128 0x13
 13822 0103 05       		.uleb128 0x5
 13823 0104 00       		.byte	0
 13824 0105 03       		.uleb128 0x3
 13825 0106 08       		.uleb128 0x8
 13826 0107 3A       		.uleb128 0x3a
 13827 0108 0B       		.uleb128 0xb
 13828 0109 3B       		.uleb128 0x3b
 13829 010a 05       		.uleb128 0x5
 13830 010b 49       		.uleb128 0x49
 13831 010c 13       		.uleb128 0x13
 13832 010d 02       		.uleb128 0x2
 13833 010e 17       		.uleb128 0x17
 13834 010f 00       		.byte	0
 13835 0110 00       		.byte	0
 13836 0111 14       		.uleb128 0x14
 13837 0112 0B       		.uleb128 0xb
 13838 0113 01       		.byte	0x1
 13839 0114 11       		.uleb128 0x11
 13840 0115 01       		.uleb128 0x1
 13841 0116 12       		.uleb128 0x12
 13842 0117 06       		.uleb128 0x6
 13843 0118 00       		.byte	0
 13844 0119 00       		.byte	0
 13845 011a 15       		.uleb128 0x15
 13846 011b 2E       		.uleb128 0x2e
 13847 011c 01       		.byte	0x1
 13848 011d 3F       		.uleb128 0x3f
 13849 011e 19       		.uleb128 0x19
 13850 011f 03       		.uleb128 0x3
 13851 0120 0E       		.uleb128 0xe
ARM GAS  C:\Users\Revanth\AppData\Local\Temp\ccSEzD1d.s 			page 289


 13852 0121 3A       		.uleb128 0x3a
 13853 0122 0B       		.uleb128 0xb
 13854 0123 3B       		.uleb128 0x3b
 13855 0124 05       		.uleb128 0x5
 13856 0125 49       		.uleb128 0x49
 13857 0126 13       		.uleb128 0x13
 13858 0127 11       		.uleb128 0x11
 13859 0128 01       		.uleb128 0x1
 13860 0129 12       		.uleb128 0x12
 13861 012a 06       		.uleb128 0x6
 13862 012b 40       		.uleb128 0x40
 13863 012c 18       		.uleb128 0x18
 13864 012d 9742     		.uleb128 0x2117
 13865 012f 19       		.uleb128 0x19
 13866 0130 01       		.uleb128 0x1
 13867 0131 13       		.uleb128 0x13
 13868 0132 00       		.byte	0
 13869 0133 00       		.byte	0
 13870 0134 16       		.uleb128 0x16
 13871 0135 2E       		.uleb128 0x2e
 13872 0136 01       		.byte	0x1
 13873 0137 3F       		.uleb128 0x3f
 13874 0138 19       		.uleb128 0x19
 13875 0139 03       		.uleb128 0x3
 13876 013a 0E       		.uleb128 0xe
 13877 013b 3A       		.uleb128 0x3a
 13878 013c 0B       		.uleb128 0xb
 13879 013d 3B       		.uleb128 0x3b
 13880 013e 05       		.uleb128 0x5
 13881 013f 49       		.uleb128 0x49
 13882 0140 13       		.uleb128 0x13
 13883 0141 11       		.uleb128 0x11
 13884 0142 01       		.uleb128 0x1
 13885 0143 12       		.uleb128 0x12
 13886 0144 06       		.uleb128 0x6
 13887 0145 40       		.uleb128 0x40
 13888 0146 18       		.uleb128 0x18
 13889 0147 9642     		.uleb128 0x2116
 13890 0149 19       		.uleb128 0x19
 13891 014a 01       		.uleb128 0x1
 13892 014b 13       		.uleb128 0x13
 13893 014c 00       		.byte	0
 13894 014d 00       		.byte	0
 13895 014e 17       		.uleb128 0x17
 13896 014f 2E       		.uleb128 0x2e
 13897 0150 01       		.byte	0x1
 13898 0151 3F       		.uleb128 0x3f
 13899 0152 19       		.uleb128 0x19
 13900 0153 03       		.uleb128 0x3
 13901 0154 0E       		.uleb128 0xe
 13902 0155 3A       		.uleb128 0x3a
 13903 0156 0B       		.uleb128 0xb
 13904 0157 3B       		.uleb128 0x3b
 13905 0158 05       		.uleb128 0x5
 13906 0159 27       		.uleb128 0x27
 13907 015a 19       		.uleb128 0x19
 13908 015b 49       		.uleb128 0x49
ARM GAS  C:\Users\Revanth\AppData\Local\Temp\ccSEzD1d.s 			page 290


 13909 015c 13       		.uleb128 0x13
 13910 015d 11       		.uleb128 0x11
 13911 015e 01       		.uleb128 0x1
 13912 015f 12       		.uleb128 0x12
 13913 0160 06       		.uleb128 0x6
 13914 0161 40       		.uleb128 0x40
 13915 0162 18       		.uleb128 0x18
 13916 0163 9742     		.uleb128 0x2117
 13917 0165 19       		.uleb128 0x19
 13918 0166 01       		.uleb128 0x1
 13919 0167 13       		.uleb128 0x13
 13920 0168 00       		.byte	0
 13921 0169 00       		.byte	0
 13922 016a 18       		.uleb128 0x18
 13923 016b 34       		.uleb128 0x34
 13924 016c 00       		.byte	0
 13925 016d 03       		.uleb128 0x3
 13926 016e 0E       		.uleb128 0xe
 13927 016f 3A       		.uleb128 0x3a
 13928 0170 0B       		.uleb128 0xb
 13929 0171 3B       		.uleb128 0x3b
 13930 0172 05       		.uleb128 0x5
 13931 0173 49       		.uleb128 0x49
 13932 0174 13       		.uleb128 0x13
 13933 0175 02       		.uleb128 0x2
 13934 0176 17       		.uleb128 0x17
 13935 0177 00       		.byte	0
 13936 0178 00       		.byte	0
 13937 0179 19       		.uleb128 0x19
 13938 017a 2E       		.uleb128 0x2e
 13939 017b 01       		.byte	0x1
 13940 017c 3F       		.uleb128 0x3f
 13941 017d 19       		.uleb128 0x19
 13942 017e 03       		.uleb128 0x3
 13943 017f 0E       		.uleb128 0xe
 13944 0180 3A       		.uleb128 0x3a
 13945 0181 0B       		.uleb128 0xb
 13946 0182 3B       		.uleb128 0x3b
 13947 0183 0B       		.uleb128 0xb
 13948 0184 27       		.uleb128 0x27
 13949 0185 19       		.uleb128 0x19
 13950 0186 11       		.uleb128 0x11
 13951 0187 01       		.uleb128 0x1
 13952 0188 12       		.uleb128 0x12
 13953 0189 06       		.uleb128 0x6
 13954 018a 40       		.uleb128 0x40
 13955 018b 18       		.uleb128 0x18
 13956 018c 9742     		.uleb128 0x2117
 13957 018e 19       		.uleb128 0x19
 13958 018f 01       		.uleb128 0x1
 13959 0190 13       		.uleb128 0x13
 13960 0191 00       		.byte	0
 13961 0192 00       		.byte	0
 13962 0193 1A       		.uleb128 0x1a
 13963 0194 05       		.uleb128 0x5
 13964 0195 00       		.byte	0
 13965 0196 03       		.uleb128 0x3
ARM GAS  C:\Users\Revanth\AppData\Local\Temp\ccSEzD1d.s 			page 291


 13966 0197 08       		.uleb128 0x8
 13967 0198 3A       		.uleb128 0x3a
 13968 0199 0B       		.uleb128 0xb
 13969 019a 3B       		.uleb128 0x3b
 13970 019b 0B       		.uleb128 0xb
 13971 019c 49       		.uleb128 0x49
 13972 019d 13       		.uleb128 0x13
 13973 019e 02       		.uleb128 0x2
 13974 019f 17       		.uleb128 0x17
 13975 01a0 00       		.byte	0
 13976 01a1 00       		.byte	0
 13977 01a2 1B       		.uleb128 0x1b
 13978 01a3 05       		.uleb128 0x5
 13979 01a4 00       		.byte	0
 13980 01a5 03       		.uleb128 0x3
 13981 01a6 0E       		.uleb128 0xe
 13982 01a7 3A       		.uleb128 0x3a
 13983 01a8 0B       		.uleb128 0xb
 13984 01a9 3B       		.uleb128 0x3b
 13985 01aa 0B       		.uleb128 0xb
 13986 01ab 49       		.uleb128 0x49
 13987 01ac 13       		.uleb128 0x13
 13988 01ad 02       		.uleb128 0x2
 13989 01ae 17       		.uleb128 0x17
 13990 01af 00       		.byte	0
 13991 01b0 00       		.byte	0
 13992 01b1 1C       		.uleb128 0x1c
 13993 01b2 34       		.uleb128 0x34
 13994 01b3 00       		.byte	0
 13995 01b4 03       		.uleb128 0x3
 13996 01b5 0E       		.uleb128 0xe
 13997 01b6 3A       		.uleb128 0x3a
 13998 01b7 0B       		.uleb128 0xb
 13999 01b8 3B       		.uleb128 0x3b
 14000 01b9 05       		.uleb128 0x5
 14001 01ba 49       		.uleb128 0x49
 14002 01bb 13       		.uleb128 0x13
 14003 01bc 1C       		.uleb128 0x1c
 14004 01bd 0B       		.uleb128 0xb
 14005 01be 00       		.byte	0
 14006 01bf 00       		.byte	0
 14007 01c0 1D       		.uleb128 0x1d
 14008 01c1 2E       		.uleb128 0x2e
 14009 01c2 01       		.byte	0x1
 14010 01c3 3F       		.uleb128 0x3f
 14011 01c4 19       		.uleb128 0x19
 14012 01c5 03       		.uleb128 0x3
 14013 01c6 0E       		.uleb128 0xe
 14014 01c7 3A       		.uleb128 0x3a
 14015 01c8 0B       		.uleb128 0xb
 14016 01c9 3B       		.uleb128 0x3b
 14017 01ca 05       		.uleb128 0x5
 14018 01cb 27       		.uleb128 0x27
 14019 01cc 19       		.uleb128 0x19
 14020 01cd 49       		.uleb128 0x49
 14021 01ce 13       		.uleb128 0x13
 14022 01cf 11       		.uleb128 0x11
ARM GAS  C:\Users\Revanth\AppData\Local\Temp\ccSEzD1d.s 			page 292


 14023 01d0 01       		.uleb128 0x1
 14024 01d1 12       		.uleb128 0x12
 14025 01d2 06       		.uleb128 0x6
 14026 01d3 40       		.uleb128 0x40
 14027 01d4 18       		.uleb128 0x18
 14028 01d5 9642     		.uleb128 0x2116
 14029 01d7 19       		.uleb128 0x19
 14030 01d8 01       		.uleb128 0x1
 14031 01d9 13       		.uleb128 0x13
 14032 01da 00       		.byte	0
 14033 01db 00       		.byte	0
 14034 01dc 1E       		.uleb128 0x1e
 14035 01dd 0B       		.uleb128 0xb
 14036 01de 01       		.byte	0x1
 14037 01df 11       		.uleb128 0x11
 14038 01e0 01       		.uleb128 0x1
 14039 01e1 12       		.uleb128 0x12
 14040 01e2 06       		.uleb128 0x6
 14041 01e3 01       		.uleb128 0x1
 14042 01e4 13       		.uleb128 0x13
 14043 01e5 00       		.byte	0
 14044 01e6 00       		.byte	0
 14045 01e7 1F       		.uleb128 0x1f
 14046 01e8 34       		.uleb128 0x34
 14047 01e9 00       		.byte	0
 14048 01ea 03       		.uleb128 0x3
 14049 01eb 0E       		.uleb128 0xe
 14050 01ec 3A       		.uleb128 0x3a
 14051 01ed 0B       		.uleb128 0xb
 14052 01ee 3B       		.uleb128 0x3b
 14053 01ef 05       		.uleb128 0x5
 14054 01f0 49       		.uleb128 0x49
 14055 01f1 13       		.uleb128 0x13
 14056 01f2 3F       		.uleb128 0x3f
 14057 01f3 19       		.uleb128 0x19
 14058 01f4 3C       		.uleb128 0x3c
 14059 01f5 19       		.uleb128 0x19
 14060 01f6 00       		.byte	0
 14061 01f7 00       		.byte	0
 14062 01f8 20       		.uleb128 0x20
 14063 01f9 35       		.uleb128 0x35
 14064 01fa 00       		.byte	0
 14065 01fb 49       		.uleb128 0x49
 14066 01fc 13       		.uleb128 0x13
 14067 01fd 00       		.byte	0
 14068 01fe 00       		.byte	0
 14069 01ff 21       		.uleb128 0x21
 14070 0200 34       		.uleb128 0x34
 14071 0201 00       		.byte	0
 14072 0202 03       		.uleb128 0x3
 14073 0203 0E       		.uleb128 0xe
 14074 0204 3A       		.uleb128 0x3a
 14075 0205 0B       		.uleb128 0xb
 14076 0206 3B       		.uleb128 0x3b
 14077 0207 0B       		.uleb128 0xb
 14078 0208 49       		.uleb128 0x49
 14079 0209 13       		.uleb128 0x13
ARM GAS  C:\Users\Revanth\AppData\Local\Temp\ccSEzD1d.s 			page 293


 14080 020a 3F       		.uleb128 0x3f
 14081 020b 19       		.uleb128 0x19
 14082 020c 02       		.uleb128 0x2
 14083 020d 18       		.uleb128 0x18
 14084 020e 00       		.byte	0
 14085 020f 00       		.byte	0
 14086 0210 22       		.uleb128 0x22
 14087 0211 34       		.uleb128 0x34
 14088 0212 00       		.byte	0
 14089 0213 03       		.uleb128 0x3
 14090 0214 0E       		.uleb128 0xe
 14091 0215 3A       		.uleb128 0x3a
 14092 0216 0B       		.uleb128 0xb
 14093 0217 3B       		.uleb128 0x3b
 14094 0218 0B       		.uleb128 0xb
 14095 0219 49       		.uleb128 0x49
 14096 021a 13       		.uleb128 0x13
 14097 021b 3F       		.uleb128 0x3f
 14098 021c 19       		.uleb128 0x19
 14099 021d 3C       		.uleb128 0x3c
 14100 021e 19       		.uleb128 0x19
 14101 021f 00       		.byte	0
 14102 0220 00       		.byte	0
 14103 0221 23       		.uleb128 0x23
 14104 0222 2E       		.uleb128 0x2e
 14105 0223 00       		.byte	0
 14106 0224 3F       		.uleb128 0x3f
 14107 0225 19       		.uleb128 0x19
 14108 0226 3C       		.uleb128 0x3c
 14109 0227 19       		.uleb128 0x19
 14110 0228 6E       		.uleb128 0x6e
 14111 0229 0E       		.uleb128 0xe
 14112 022a 03       		.uleb128 0x3
 14113 022b 0E       		.uleb128 0xe
 14114 022c 3A       		.uleb128 0x3a
 14115 022d 0B       		.uleb128 0xb
 14116 022e 3B       		.uleb128 0x3b
 14117 022f 0B       		.uleb128 0xb
 14118 0230 00       		.byte	0
 14119 0231 00       		.byte	0
 14120 0232 24       		.uleb128 0x24
 14121 0233 2E       		.uleb128 0x2e
 14122 0234 00       		.byte	0
 14123 0235 3F       		.uleb128 0x3f
 14124 0236 19       		.uleb128 0x19
 14125 0237 3C       		.uleb128 0x3c
 14126 0238 19       		.uleb128 0x19
 14127 0239 6E       		.uleb128 0x6e
 14128 023a 0E       		.uleb128 0xe
 14129 023b 03       		.uleb128 0x3
 14130 023c 0E       		.uleb128 0xe
 14131 023d 3A       		.uleb128 0x3a
 14132 023e 0B       		.uleb128 0xb
 14133 023f 3B       		.uleb128 0x3b
 14134 0240 05       		.uleb128 0x5
 14135 0241 00       		.byte	0
 14136 0242 00       		.byte	0
ARM GAS  C:\Users\Revanth\AppData\Local\Temp\ccSEzD1d.s 			page 294


 14137 0243 00       		.byte	0
 14138              		.section	.debug_loc,"",%progbits
 14139              	.Ldebug_loc0:
 14140              	.LLST0:
 14141 0000 00000000 		.4byte	.LVL12
 14142 0004 05000000 		.4byte	.LVL13-1
 14143 0008 0100     		.2byte	0x1
 14144 000a 50       		.byte	0x50
 14145 000b 05000000 		.4byte	.LVL13-1
 14146 000f 08000000 		.4byte	.LFE85
 14147 0013 0400     		.2byte	0x4
 14148 0015 F3       		.byte	0xf3
 14149 0016 01       		.uleb128 0x1
 14150 0017 50       		.byte	0x50
 14151 0018 9F       		.byte	0x9f
 14152 0019 00000000 		.4byte	0
 14153 001d 00000000 		.4byte	0
 14154              	.LLST1:
 14155 0021 00000000 		.4byte	.LVL14
 14156 0025 0B000000 		.4byte	.LVL15-1
 14157 0029 0100     		.2byte	0x1
 14158 002b 50       		.byte	0x50
 14159 002c 0B000000 		.4byte	.LVL15-1
 14160 0030 18000000 		.4byte	.LFE87
 14161 0034 0400     		.2byte	0x4
 14162 0036 F3       		.byte	0xf3
 14163 0037 01       		.uleb128 0x1
 14164 0038 50       		.byte	0x50
 14165 0039 9F       		.byte	0x9f
 14166 003a 00000000 		.4byte	0
 14167 003e 00000000 		.4byte	0
 14168              	.LLST2:
 14169 0042 00000000 		.4byte	.LVL17
 14170 0046 0B000000 		.4byte	.LVL18-1
 14171 004a 0100     		.2byte	0x1
 14172 004c 50       		.byte	0x50
 14173 004d 0B000000 		.4byte	.LVL18-1
 14174 0051 18000000 		.4byte	.LFE88
 14175 0055 0400     		.2byte	0x4
 14176 0057 F3       		.byte	0xf3
 14177 0058 01       		.uleb128 0x1
 14178 0059 50       		.byte	0x50
 14179 005a 9F       		.byte	0x9f
 14180 005b 00000000 		.4byte	0
 14181 005f 00000000 		.4byte	0
 14182              	.LLST3:
 14183 0063 00000000 		.4byte	.LVL29
 14184 0067 04000000 		.4byte	.LVL30
 14185 006b 0200     		.2byte	0x2
 14186 006d 30       		.byte	0x30
 14187 006e 9F       		.byte	0x9f
 14188 006f 04000000 		.4byte	.LVL30
 14189 0073 18000000 		.4byte	.LFE95
 14190 0077 0100     		.2byte	0x1
 14191 0079 53       		.byte	0x53
 14192 007a 00000000 		.4byte	0
 14193 007e 00000000 		.4byte	0
ARM GAS  C:\Users\Revanth\AppData\Local\Temp\ccSEzD1d.s 			page 295


 14194              	.LLST4:
 14195 0082 04000000 		.4byte	.LVL32
 14196 0086 08000000 		.4byte	.LVL33
 14197 008a 0200     		.2byte	0x2
 14198 008c 30       		.byte	0x30
 14199 008d 9F       		.byte	0x9f
 14200 008e 08000000 		.4byte	.LVL33
 14201 0092 18000000 		.4byte	.LFE96
 14202 0096 0100     		.2byte	0x1
 14203 0098 54       		.byte	0x54
 14204 0099 00000000 		.4byte	0
 14205 009d 00000000 		.4byte	0
 14206              	.LLST5:
 14207 00a1 00000000 		.4byte	.LVL36
 14208 00a5 0A000000 		.4byte	.LVL37
 14209 00a9 0100     		.2byte	0x1
 14210 00ab 50       		.byte	0x50
 14211 00ac 0A000000 		.4byte	.LVL37
 14212 00b0 0D000000 		.4byte	.LVL38-1
 14213 00b4 0100     		.2byte	0x1
 14214 00b6 51       		.byte	0x51
 14215 00b7 0D000000 		.4byte	.LVL38-1
 14216 00bb 28000000 		.4byte	.LVL42
 14217 00bf 0100     		.2byte	0x1
 14218 00c1 54       		.byte	0x54
 14219 00c2 28000000 		.4byte	.LVL42
 14220 00c6 2C000000 		.4byte	.LFE97
 14221 00ca 0400     		.2byte	0x4
 14222 00cc F3       		.byte	0xf3
 14223 00cd 01       		.uleb128 0x1
 14224 00ce 50       		.byte	0x50
 14225 00cf 9F       		.byte	0x9f
 14226 00d0 00000000 		.4byte	0
 14227 00d4 00000000 		.4byte	0
 14228              	.LLST6:
 14229 00d8 00000000 		.4byte	.LVL60
 14230 00dc 07000000 		.4byte	.LVL61-1
 14231 00e0 0100     		.2byte	0x1
 14232 00e2 50       		.byte	0x50
 14233 00e3 07000000 		.4byte	.LVL61-1
 14234 00e7 20000000 		.4byte	.LVL62
 14235 00eb 0100     		.2byte	0x1
 14236 00ed 54       		.byte	0x54
 14237 00ee 20000000 		.4byte	.LVL62
 14238 00f2 C8010000 		.4byte	.LVL63
 14239 00f6 0300     		.2byte	0x3
 14240 00f8 74       		.byte	0x74
 14241 00f9 01       		.sleb128 1
 14242 00fa 9F       		.byte	0x9f
 14243 00fb C8010000 		.4byte	.LVL63
 14244 00ff AC020000 		.4byte	.LFE91
 14245 0103 0400     		.2byte	0x4
 14246 0105 F3       		.byte	0xf3
 14247 0106 01       		.uleb128 0x1
 14248 0107 50       		.byte	0x50
 14249 0108 9F       		.byte	0x9f
 14250 0109 00000000 		.4byte	0
ARM GAS  C:\Users\Revanth\AppData\Local\Temp\ccSEzD1d.s 			page 296


 14251 010d 00000000 		.4byte	0
 14252              	.LLST7:
 14253 0111 00000000 		.4byte	.LVL73
 14254 0115 0A000000 		.4byte	.LVL74
 14255 0119 0100     		.2byte	0x1
 14256 011b 50       		.byte	0x50
 14257 011c 0A000000 		.4byte	.LVL74
 14258 0120 0D000000 		.4byte	.LVL75-1
 14259 0124 0100     		.2byte	0x1
 14260 0126 52       		.byte	0x52
 14261 0127 0D000000 		.4byte	.LVL75-1
 14262 012b 24000000 		.4byte	.LFE98
 14263 012f 0400     		.2byte	0x4
 14264 0131 F3       		.byte	0xf3
 14265 0132 01       		.uleb128 0x1
 14266 0133 50       		.byte	0x50
 14267 0134 9F       		.byte	0x9f
 14268 0135 00000000 		.4byte	0
 14269 0139 00000000 		.4byte	0
 14270              	.LLST8:
 14271 013d 00000000 		.4byte	.LVL111
 14272 0141 05000000 		.4byte	.LVL112-1
 14273 0145 0100     		.2byte	0x1
 14274 0147 50       		.byte	0x50
 14275 0148 05000000 		.4byte	.LVL112-1
 14276 014c 10000000 		.4byte	.LFE100
 14277 0150 0400     		.2byte	0x4
 14278 0152 F3       		.byte	0xf3
 14279 0153 01       		.uleb128 0x1
 14280 0154 50       		.byte	0x50
 14281 0155 9F       		.byte	0x9f
 14282 0156 00000000 		.4byte	0
 14283 015a 00000000 		.4byte	0
 14284              	.LLST9:
 14285 015e 00000000 		.4byte	.LVL114
 14286 0162 1C000000 		.4byte	.LVL115
 14287 0166 0100     		.2byte	0x1
 14288 0168 50       		.byte	0x50
 14289 0169 1C000000 		.4byte	.LVL115
 14290 016d 2E000000 		.4byte	.LVL119
 14291 0171 0400     		.2byte	0x4
 14292 0173 F3       		.byte	0xf3
 14293 0174 01       		.uleb128 0x1
 14294 0175 50       		.byte	0x50
 14295 0176 9F       		.byte	0x9f
 14296 0177 2E000000 		.4byte	.LVL119
 14297 017b 30000000 		.4byte	.LVL120
 14298 017f 0100     		.2byte	0x1
 14299 0181 50       		.byte	0x50
 14300 0182 30000000 		.4byte	.LVL120
 14301 0186 42000000 		.4byte	.LVL124
 14302 018a 0400     		.2byte	0x4
 14303 018c F3       		.byte	0xf3
 14304 018d 01       		.uleb128 0x1
 14305 018e 50       		.byte	0x50
 14306 018f 9F       		.byte	0x9f
 14307 0190 42000000 		.4byte	.LVL124
ARM GAS  C:\Users\Revanth\AppData\Local\Temp\ccSEzD1d.s 			page 297


 14308 0194 44000000 		.4byte	.LVL125
 14309 0198 0100     		.2byte	0x1
 14310 019a 50       		.byte	0x50
 14311 019b 44000000 		.4byte	.LVL125
 14312 019f 56000000 		.4byte	.LVL129
 14313 01a3 0400     		.2byte	0x4
 14314 01a5 F3       		.byte	0xf3
 14315 01a6 01       		.uleb128 0x1
 14316 01a7 50       		.byte	0x50
 14317 01a8 9F       		.byte	0x9f
 14318 01a9 56000000 		.4byte	.LVL129
 14319 01ad 58000000 		.4byte	.LVL130
 14320 01b1 0100     		.2byte	0x1
 14321 01b3 50       		.byte	0x50
 14322 01b4 58000000 		.4byte	.LVL130
 14323 01b8 6A000000 		.4byte	.LVL134
 14324 01bc 0400     		.2byte	0x4
 14325 01be F3       		.byte	0xf3
 14326 01bf 01       		.uleb128 0x1
 14327 01c0 50       		.byte	0x50
 14328 01c1 9F       		.byte	0x9f
 14329 01c2 6A000000 		.4byte	.LVL134
 14330 01c6 6C000000 		.4byte	.LVL135
 14331 01ca 0100     		.2byte	0x1
 14332 01cc 50       		.byte	0x50
 14333 01cd 6C000000 		.4byte	.LVL135
 14334 01d1 7E000000 		.4byte	.LVL139
 14335 01d5 0400     		.2byte	0x4
 14336 01d7 F3       		.byte	0xf3
 14337 01d8 01       		.uleb128 0x1
 14338 01d9 50       		.byte	0x50
 14339 01da 9F       		.byte	0x9f
 14340 01db 7E000000 		.4byte	.LVL139
 14341 01df 80000000 		.4byte	.LVL140
 14342 01e3 0100     		.2byte	0x1
 14343 01e5 50       		.byte	0x50
 14344 01e6 80000000 		.4byte	.LVL140
 14345 01ea 86000000 		.4byte	.LVL142
 14346 01ee 0400     		.2byte	0x4
 14347 01f0 F3       		.byte	0xf3
 14348 01f1 01       		.uleb128 0x1
 14349 01f2 50       		.byte	0x50
 14350 01f3 9F       		.byte	0x9f
 14351 01f4 86000000 		.4byte	.LVL142
 14352 01f8 88000000 		.4byte	.LVL143
 14353 01fc 0100     		.2byte	0x1
 14354 01fe 50       		.byte	0x50
 14355 01ff 88000000 		.4byte	.LVL143
 14356 0203 98000000 		.4byte	.LFE101
 14357 0207 0400     		.2byte	0x4
 14358 0209 F3       		.byte	0xf3
 14359 020a 01       		.uleb128 0x1
 14360 020b 50       		.byte	0x50
 14361 020c 9F       		.byte	0x9f
 14362 020d 00000000 		.4byte	0
 14363 0211 00000000 		.4byte	0
 14364              	.LLST10:
ARM GAS  C:\Users\Revanth\AppData\Local\Temp\ccSEzD1d.s 			page 298


 14365 0215 00000000 		.4byte	.LVL114
 14366 0219 1F000000 		.4byte	.LVL116-1
 14367 021d 0100     		.2byte	0x1
 14368 021f 51       		.byte	0x51
 14369 0220 1F000000 		.4byte	.LVL116-1
 14370 0224 2E000000 		.4byte	.LVL119
 14371 0228 0400     		.2byte	0x4
 14372 022a F3       		.byte	0xf3
 14373 022b 01       		.uleb128 0x1
 14374 022c 51       		.byte	0x51
 14375 022d 9F       		.byte	0x9f
 14376 022e 2E000000 		.4byte	.LVL119
 14377 0232 33000000 		.4byte	.LVL121-1
 14378 0236 0100     		.2byte	0x1
 14379 0238 51       		.byte	0x51
 14380 0239 33000000 		.4byte	.LVL121-1
 14381 023d 42000000 		.4byte	.LVL124
 14382 0241 0400     		.2byte	0x4
 14383 0243 F3       		.byte	0xf3
 14384 0244 01       		.uleb128 0x1
 14385 0245 51       		.byte	0x51
 14386 0246 9F       		.byte	0x9f
 14387 0247 42000000 		.4byte	.LVL124
 14388 024b 47000000 		.4byte	.LVL126-1
 14389 024f 0100     		.2byte	0x1
 14390 0251 51       		.byte	0x51
 14391 0252 47000000 		.4byte	.LVL126-1
 14392 0256 56000000 		.4byte	.LVL129
 14393 025a 0400     		.2byte	0x4
 14394 025c F3       		.byte	0xf3
 14395 025d 01       		.uleb128 0x1
 14396 025e 51       		.byte	0x51
 14397 025f 9F       		.byte	0x9f
 14398 0260 56000000 		.4byte	.LVL129
 14399 0264 5B000000 		.4byte	.LVL131-1
 14400 0268 0100     		.2byte	0x1
 14401 026a 51       		.byte	0x51
 14402 026b 5B000000 		.4byte	.LVL131-1
 14403 026f 6A000000 		.4byte	.LVL134
 14404 0273 0400     		.2byte	0x4
 14405 0275 F3       		.byte	0xf3
 14406 0276 01       		.uleb128 0x1
 14407 0277 51       		.byte	0x51
 14408 0278 9F       		.byte	0x9f
 14409 0279 6A000000 		.4byte	.LVL134
 14410 027d 6F000000 		.4byte	.LVL136-1
 14411 0281 0100     		.2byte	0x1
 14412 0283 51       		.byte	0x51
 14413 0284 6F000000 		.4byte	.LVL136-1
 14414 0288 7E000000 		.4byte	.LVL139
 14415 028c 0400     		.2byte	0x4
 14416 028e F3       		.byte	0xf3
 14417 028f 01       		.uleb128 0x1
 14418 0290 51       		.byte	0x51
 14419 0291 9F       		.byte	0x9f
 14420 0292 7E000000 		.4byte	.LVL139
 14421 0296 83000000 		.4byte	.LVL141-1
ARM GAS  C:\Users\Revanth\AppData\Local\Temp\ccSEzD1d.s 			page 299


 14422 029a 0100     		.2byte	0x1
 14423 029c 51       		.byte	0x51
 14424 029d 83000000 		.4byte	.LVL141-1
 14425 02a1 86000000 		.4byte	.LVL142
 14426 02a5 0400     		.2byte	0x4
 14427 02a7 F3       		.byte	0xf3
 14428 02a8 01       		.uleb128 0x1
 14429 02a9 51       		.byte	0x51
 14430 02aa 9F       		.byte	0x9f
 14431 02ab 86000000 		.4byte	.LVL142
 14432 02af 8B000000 		.4byte	.LVL144-1
 14433 02b3 0100     		.2byte	0x1
 14434 02b5 51       		.byte	0x51
 14435 02b6 8B000000 		.4byte	.LVL144-1
 14436 02ba 98000000 		.4byte	.LFE101
 14437 02be 0400     		.2byte	0x4
 14438 02c0 F3       		.byte	0xf3
 14439 02c1 01       		.uleb128 0x1
 14440 02c2 51       		.byte	0x51
 14441 02c3 9F       		.byte	0x9f
 14442 02c4 00000000 		.4byte	0
 14443 02c8 00000000 		.4byte	0
 14444              	.LLST11:
 14445 02cc 00000000 		.4byte	.LVL145
 14446 02d0 0C000000 		.4byte	.LVL148
 14447 02d4 0100     		.2byte	0x1
 14448 02d6 50       		.byte	0x50
 14449 02d7 0C000000 		.4byte	.LVL148
 14450 02db EC000000 		.4byte	.LFE102
 14451 02df 0400     		.2byte	0x4
 14452 02e1 F3       		.byte	0xf3
 14453 02e2 01       		.uleb128 0x1
 14454 02e3 50       		.byte	0x50
 14455 02e4 9F       		.byte	0x9f
 14456 02e5 00000000 		.4byte	0
 14457 02e9 00000000 		.4byte	0
 14458              	.LLST12:
 14459 02ed 00000000 		.4byte	.LVL145
 14460 02f1 0A000000 		.4byte	.LVL147
 14461 02f5 0100     		.2byte	0x1
 14462 02f7 51       		.byte	0x51
 14463 02f8 0A000000 		.4byte	.LVL147
 14464 02fc EC000000 		.4byte	.LFE102
 14465 0300 0400     		.2byte	0x4
 14466 0302 F3       		.byte	0xf3
 14467 0303 01       		.uleb128 0x1
 14468 0304 51       		.byte	0x51
 14469 0305 9F       		.byte	0x9f
 14470 0306 00000000 		.4byte	0
 14471 030a 00000000 		.4byte	0
 14472              	.LLST13:
 14473 030e 00000000 		.4byte	.LVL145
 14474 0312 0F000000 		.4byte	.LVL149-1
 14475 0316 0100     		.2byte	0x1
 14476 0318 52       		.byte	0x52
 14477 0319 0F000000 		.4byte	.LVL149-1
 14478 031d EC000000 		.4byte	.LFE102
ARM GAS  C:\Users\Revanth\AppData\Local\Temp\ccSEzD1d.s 			page 300


 14479 0321 0100     		.2byte	0x1
 14480 0323 57       		.byte	0x57
 14481 0324 00000000 		.4byte	0
 14482 0328 00000000 		.4byte	0
 14483              	.LLST14:
 14484 032c 08000000 		.4byte	.LVL146
 14485 0330 60000000 		.4byte	.LVL162
 14486 0334 0200     		.2byte	0x2
 14487 0336 30       		.byte	0x30
 14488 0337 9F       		.byte	0x9f
 14489 0338 60000000 		.4byte	.LVL162
 14490 033c EC000000 		.4byte	.LFE102
 14491 0340 0100     		.2byte	0x1
 14492 0342 54       		.byte	0x54
 14493 0343 00000000 		.4byte	0
 14494 0347 00000000 		.4byte	0
 14495              	.LLST15:
 14496 034b 00000000 		.4byte	.LVL190
 14497 034f 0C000000 		.4byte	.LVL192
 14498 0353 0100     		.2byte	0x1
 14499 0355 50       		.byte	0x50
 14500 0356 0C000000 		.4byte	.LVL192
 14501 035a 3E000000 		.4byte	.LFE103
 14502 035e 0400     		.2byte	0x4
 14503 0360 F3       		.byte	0xf3
 14504 0361 01       		.uleb128 0x1
 14505 0362 50       		.byte	0x50
 14506 0363 9F       		.byte	0x9f
 14507 0364 00000000 		.4byte	0
 14508 0368 00000000 		.4byte	0
 14509              	.LLST16:
 14510 036c 00000000 		.4byte	.LVL190
 14511 0370 0A000000 		.4byte	.LVL191
 14512 0374 0100     		.2byte	0x1
 14513 0376 51       		.byte	0x51
 14514 0377 0A000000 		.4byte	.LVL191
 14515 037b 3E000000 		.4byte	.LFE103
 14516 037f 0100     		.2byte	0x1
 14517 0381 54       		.byte	0x54
 14518 0382 00000000 		.4byte	0
 14519 0386 00000000 		.4byte	0
 14520              	.LLST17:
 14521 038a 00000000 		.4byte	.LVL190
 14522 038e 0F000000 		.4byte	.LVL193-1
 14523 0392 0100     		.2byte	0x1
 14524 0394 52       		.byte	0x52
 14525 0395 0F000000 		.4byte	.LVL193-1
 14526 0399 3E000000 		.4byte	.LFE103
 14527 039d 0400     		.2byte	0x4
 14528 039f F3       		.byte	0xf3
 14529 03a0 01       		.uleb128 0x1
 14530 03a1 52       		.byte	0x52
 14531 03a2 9F       		.byte	0x9f
 14532 03a3 00000000 		.4byte	0
 14533 03a7 00000000 		.4byte	0
 14534              	.LLST18:
 14535 03ab 00000000 		.4byte	.LVL200
ARM GAS  C:\Users\Revanth\AppData\Local\Temp\ccSEzD1d.s 			page 301


 14536 03af 0C000000 		.4byte	.LVL202
 14537 03b3 0100     		.2byte	0x1
 14538 03b5 50       		.byte	0x50
 14539 03b6 0C000000 		.4byte	.LVL202
 14540 03ba 26000000 		.4byte	.LFE64
 14541 03be 0100     		.2byte	0x1
 14542 03c0 55       		.byte	0x55
 14543 03c1 00000000 		.4byte	0
 14544 03c5 00000000 		.4byte	0
 14545              	.LLST19:
 14546 03c9 00000000 		.4byte	.LVL200
 14547 03cd 0A000000 		.4byte	.LVL201
 14548 03d1 0100     		.2byte	0x1
 14549 03d3 51       		.byte	0x51
 14550 03d4 0A000000 		.4byte	.LVL201
 14551 03d8 26000000 		.4byte	.LFE64
 14552 03dc 0400     		.2byte	0x4
 14553 03de F3       		.byte	0xf3
 14554 03df 01       		.uleb128 0x1
 14555 03e0 51       		.byte	0x51
 14556 03e1 9F       		.byte	0x9f
 14557 03e2 00000000 		.4byte	0
 14558 03e6 00000000 		.4byte	0
 14559              	.LLST20:
 14560 03ea 00000000 		.4byte	.LVL206
 14561 03ee 0A000000 		.4byte	.LVL207
 14562 03f2 0100     		.2byte	0x1
 14563 03f4 50       		.byte	0x50
 14564 03f5 0A000000 		.4byte	.LVL207
 14565 03f9 14020000 		.4byte	.LFE104
 14566 03fd 0400     		.2byte	0x4
 14567 03ff F3       		.byte	0xf3
 14568 0400 01       		.uleb128 0x1
 14569 0401 50       		.byte	0x50
 14570 0402 9F       		.byte	0x9f
 14571 0403 00000000 		.4byte	0
 14572 0407 00000000 		.4byte	0
 14573              	.LLST21:
 14574 040b 00000000 		.4byte	.LVL253
 14575 040f 08000000 		.4byte	.LVL254
 14576 0413 0100     		.2byte	0x1
 14577 0415 50       		.byte	0x50
 14578 0416 08000000 		.4byte	.LVL254
 14579 041a 3C000000 		.4byte	.LFE105
 14580 041e 0400     		.2byte	0x4
 14581 0420 F3       		.byte	0xf3
 14582 0421 01       		.uleb128 0x1
 14583 0422 50       		.byte	0x50
 14584 0423 9F       		.byte	0x9f
 14585 0424 00000000 		.4byte	0
 14586 0428 00000000 		.4byte	0
 14587              	.LLST22:
 14588 042c 00000000 		.4byte	.LVL260
 14589 0430 12000000 		.4byte	.LVL262
 14590 0434 0100     		.2byte	0x1
 14591 0436 50       		.byte	0x50
 14592 0437 12000000 		.4byte	.LVL262
ARM GAS  C:\Users\Revanth\AppData\Local\Temp\ccSEzD1d.s 			page 302


 14593 043b 54000000 		.4byte	.LFE106
 14594 043f 0400     		.2byte	0x4
 14595 0441 F3       		.byte	0xf3
 14596 0442 01       		.uleb128 0x1
 14597 0443 50       		.byte	0x50
 14598 0444 9F       		.byte	0x9f
 14599 0445 00000000 		.4byte	0
 14600 0449 00000000 		.4byte	0
 14601              	.LLST23:
 14602 044d 00000000 		.4byte	.LVL269
 14603 0451 07000000 		.4byte	.LVL271-1
 14604 0455 0100     		.2byte	0x1
 14605 0457 50       		.byte	0x50
 14606 0458 07000000 		.4byte	.LVL271-1
 14607 045c CC000000 		.4byte	.LVL299
 14608 0460 0100     		.2byte	0x1
 14609 0462 57       		.byte	0x57
 14610 0463 CC000000 		.4byte	.LVL299
 14611 0467 E8000000 		.4byte	.LFE70
 14612 046b 0400     		.2byte	0x4
 14613 046d F3       		.byte	0xf3
 14614 046e 01       		.uleb128 0x1
 14615 046f 50       		.byte	0x50
 14616 0470 9F       		.byte	0x9f
 14617 0471 00000000 		.4byte	0
 14618 0475 00000000 		.4byte	0
 14619              	.LLST24:
 14620 0479 04000000 		.4byte	.LVL270
 14621 047d 18000000 		.4byte	.LVL274
 14622 0481 0200     		.2byte	0x2
 14623 0483 30       		.byte	0x30
 14624 0484 9F       		.byte	0x9f
 14625 0485 18000000 		.4byte	.LVL274
 14626 0489 1C000000 		.4byte	.LVL275
 14627 048d 0100     		.2byte	0x1
 14628 048f 50       		.byte	0x50
 14629 0490 1C000000 		.4byte	.LVL275
 14630 0494 74000000 		.4byte	.LVL291
 14631 0498 0100     		.2byte	0x1
 14632 049a 56       		.byte	0x56
 14633 049b 00000000 		.4byte	0
 14634 049f 00000000 		.4byte	0
 14635              	.LLST25:
 14636 04a3 18000000 		.4byte	.LVL274
 14637 04a7 1C000000 		.4byte	.LVL275
 14638 04ab 0200     		.2byte	0x2
 14639 04ad 30       		.byte	0x30
 14640 04ae 9F       		.byte	0x9f
 14641 04af 1C000000 		.4byte	.LVL275
 14642 04b3 64000000 		.4byte	.LVL288
 14643 04b7 0100     		.2byte	0x1
 14644 04b9 55       		.byte	0x55
 14645 04ba 66000000 		.4byte	.LVL289
 14646 04be CC000000 		.4byte	.LVL299
 14647 04c2 0100     		.2byte	0x1
 14648 04c4 55       		.byte	0x55
 14649 04c5 00000000 		.4byte	0
ARM GAS  C:\Users\Revanth\AppData\Local\Temp\ccSEzD1d.s 			page 303


 14650 04c9 00000000 		.4byte	0
 14651              	.LLST26:
 14652 04cd 04000000 		.4byte	.LVL270
 14653 04d1 1C000000 		.4byte	.LVL275
 14654 04d5 0200     		.2byte	0x2
 14655 04d7 30       		.byte	0x30
 14656 04d8 9F       		.byte	0x9f
 14657 04d9 3A000000 		.4byte	.LVL280
 14658 04dd 44000000 		.4byte	.LVL282
 14659 04e1 0100     		.2byte	0x1
 14660 04e3 50       		.byte	0x50
 14661 04e4 44000000 		.4byte	.LVL282
 14662 04e8 48000000 		.4byte	.LVL283
 14663 04ec 0600     		.2byte	0x6
 14664 04ee 77       		.byte	0x77
 14665 04ef 00       		.sleb128 0
 14666 04f0 70       		.byte	0x70
 14667 04f1 00       		.sleb128 0
 14668 04f2 22       		.byte	0x22
 14669 04f3 9F       		.byte	0x9f
 14670 04f4 48000000 		.4byte	.LVL283
 14671 04f8 4B000000 		.4byte	.LVL284-1
 14672 04fc 0100     		.2byte	0x1
 14673 04fe 50       		.byte	0x50
 14674 04ff 00000000 		.4byte	0
 14675 0503 00000000 		.4byte	0
 14676              	.LLST27:
 14677 0507 04000000 		.4byte	.LVL270
 14678 050b 1C000000 		.4byte	.LVL275
 14679 050f 0200     		.2byte	0x2
 14680 0511 30       		.byte	0x30
 14681 0512 9F       		.byte	0x9f
 14682 0513 26000000 		.4byte	.LVL277
 14683 0517 40000000 		.4byte	.LVL281
 14684 051b 0100     		.2byte	0x1
 14685 051d 54       		.byte	0x54
 14686 051e 74000000 		.4byte	.LVL291
 14687 0522 7E000000 		.4byte	.LVL292
 14688 0526 0100     		.2byte	0x1
 14689 0528 56       		.byte	0x56
 14690 0529 00000000 		.4byte	0
 14691 052d 00000000 		.4byte	0
 14692              	.LLST28:
 14693 0531 00000000 		.4byte	.LVL300
 14694 0535 07000000 		.4byte	.LVL301-1
 14695 0539 0100     		.2byte	0x1
 14696 053b 50       		.byte	0x50
 14697 053c 07000000 		.4byte	.LVL301-1
 14698 0540 54000000 		.4byte	.LVL312
 14699 0544 0100     		.2byte	0x1
 14700 0546 54       		.byte	0x54
 14701 0547 54000000 		.4byte	.LVL312
 14702 054b 64000000 		.4byte	.LFE69
 14703 054f 0400     		.2byte	0x4
 14704 0551 F3       		.byte	0xf3
 14705 0552 01       		.uleb128 0x1
 14706 0553 50       		.byte	0x50
ARM GAS  C:\Users\Revanth\AppData\Local\Temp\ccSEzD1d.s 			page 304


 14707 0554 9F       		.byte	0x9f
 14708 0555 00000000 		.4byte	0
 14709 0559 00000000 		.4byte	0
 14710              	.LLST29:
 14711 055d 00000000 		.4byte	.LVL313
 14712 0561 07000000 		.4byte	.LVL315-1
 14713 0565 0100     		.2byte	0x1
 14714 0567 50       		.byte	0x50
 14715 0568 07000000 		.4byte	.LVL315-1
 14716 056c B6000000 		.4byte	.LVL341
 14717 0570 0100     		.2byte	0x1
 14718 0572 57       		.byte	0x57
 14719 0573 B6000000 		.4byte	.LVL341
 14720 0577 D0000000 		.4byte	.LFE72
 14721 057b 0400     		.2byte	0x4
 14722 057d F3       		.byte	0xf3
 14723 057e 01       		.uleb128 0x1
 14724 057f 50       		.byte	0x50
 14725 0580 9F       		.byte	0x9f
 14726 0581 00000000 		.4byte	0
 14727 0585 00000000 		.4byte	0
 14728              	.LLST30:
 14729 0589 04000000 		.4byte	.LVL314
 14730 058d 1C000000 		.4byte	.LVL319
 14731 0591 0200     		.2byte	0x2
 14732 0593 30       		.byte	0x30
 14733 0594 9F       		.byte	0x9f
 14734 0595 1C000000 		.4byte	.LVL319
 14735 0599 64000000 		.4byte	.LVL332
 14736 059d 0100     		.2byte	0x1
 14737 059f 55       		.byte	0x55
 14738 05a0 66000000 		.4byte	.LVL333
 14739 05a4 B6000000 		.4byte	.LVL341
 14740 05a8 0100     		.2byte	0x1
 14741 05aa 55       		.byte	0x55
 14742 05ab 00000000 		.4byte	0
 14743 05af 00000000 		.4byte	0
 14744              	.LLST31:
 14745 05b3 04000000 		.4byte	.LVL314
 14746 05b7 1C000000 		.4byte	.LVL319
 14747 05bb 0200     		.2byte	0x2
 14748 05bd 30       		.byte	0x30
 14749 05be 9F       		.byte	0x9f
 14750 05bf 3A000000 		.4byte	.LVL324
 14751 05c3 44000000 		.4byte	.LVL326
 14752 05c7 0100     		.2byte	0x1
 14753 05c9 50       		.byte	0x50
 14754 05ca 44000000 		.4byte	.LVL326
 14755 05ce 48000000 		.4byte	.LVL327
 14756 05d2 0600     		.2byte	0x6
 14757 05d4 77       		.byte	0x77
 14758 05d5 00       		.sleb128 0
 14759 05d6 70       		.byte	0x70
 14760 05d7 00       		.sleb128 0
 14761 05d8 22       		.byte	0x22
 14762 05d9 9F       		.byte	0x9f
 14763 05da 48000000 		.4byte	.LVL327
ARM GAS  C:\Users\Revanth\AppData\Local\Temp\ccSEzD1d.s 			page 305


 14764 05de 4B000000 		.4byte	.LVL328-1
 14765 05e2 0100     		.2byte	0x1
 14766 05e4 50       		.byte	0x50
 14767 05e5 00000000 		.4byte	0
 14768 05e9 00000000 		.4byte	0
 14769              	.LLST32:
 14770 05ed 04000000 		.4byte	.LVL314
 14771 05f1 18000000 		.4byte	.LVL318
 14772 05f5 0200     		.2byte	0x2
 14773 05f7 30       		.byte	0x30
 14774 05f8 9F       		.byte	0x9f
 14775 05f9 18000000 		.4byte	.LVL318
 14776 05fd 1C000000 		.4byte	.LVL319
 14777 0601 0100     		.2byte	0x1
 14778 0603 50       		.byte	0x50
 14779 0604 1C000000 		.4byte	.LVL319
 14780 0608 B6000000 		.4byte	.LVL341
 14781 060c 0100     		.2byte	0x1
 14782 060e 56       		.byte	0x56
 14783 060f 00000000 		.4byte	0
 14784 0613 00000000 		.4byte	0
 14785              	.LLST33:
 14786 0617 04000000 		.4byte	.LVL314
 14787 061b 1C000000 		.4byte	.LVL319
 14788 061f 0200     		.2byte	0x2
 14789 0621 30       		.byte	0x30
 14790 0622 9F       		.byte	0x9f
 14791 0623 26000000 		.4byte	.LVL321
 14792 0627 40000000 		.4byte	.LVL325
 14793 062b 0100     		.2byte	0x1
 14794 062d 54       		.byte	0x54
 14795 062e 74000000 		.4byte	.LVL335
 14796 0632 7E000000 		.4byte	.LVL336
 14797 0636 0100     		.2byte	0x1
 14798 0638 50       		.byte	0x50
 14799 0639 00000000 		.4byte	0
 14800 063d 00000000 		.4byte	0
 14801              	.LLST34:
 14802 0641 00000000 		.4byte	.LVL342
 14803 0645 07000000 		.4byte	.LVL343-1
 14804 0649 0100     		.2byte	0x1
 14805 064b 50       		.byte	0x50
 14806 064c 07000000 		.4byte	.LVL343-1
 14807 0650 54000000 		.4byte	.LVL354
 14808 0654 0100     		.2byte	0x1
 14809 0656 54       		.byte	0x54
 14810 0657 54000000 		.4byte	.LVL354
 14811 065b 64000000 		.4byte	.LFE71
 14812 065f 0400     		.2byte	0x4
 14813 0661 F3       		.byte	0xf3
 14814 0662 01       		.uleb128 0x1
 14815 0663 50       		.byte	0x50
 14816 0664 9F       		.byte	0x9f
 14817 0665 00000000 		.4byte	0
 14818 0669 00000000 		.4byte	0
 14819              	.LLST35:
 14820 066d 00000000 		.4byte	.LVL355
ARM GAS  C:\Users\Revanth\AppData\Local\Temp\ccSEzD1d.s 			page 306


 14821 0671 07000000 		.4byte	.LVL357-1
 14822 0675 0100     		.2byte	0x1
 14823 0677 50       		.byte	0x50
 14824 0678 07000000 		.4byte	.LVL357-1
 14825 067c B6000000 		.4byte	.LVL383
 14826 0680 0100     		.2byte	0x1
 14827 0682 57       		.byte	0x57
 14828 0683 B6000000 		.4byte	.LVL383
 14829 0687 D0000000 		.4byte	.LFE74
 14830 068b 0400     		.2byte	0x4
 14831 068d F3       		.byte	0xf3
 14832 068e 01       		.uleb128 0x1
 14833 068f 50       		.byte	0x50
 14834 0690 9F       		.byte	0x9f
 14835 0691 00000000 		.4byte	0
 14836 0695 00000000 		.4byte	0
 14837              	.LLST36:
 14838 0699 04000000 		.4byte	.LVL356
 14839 069d 1C000000 		.4byte	.LVL361
 14840 06a1 0200     		.2byte	0x2
 14841 06a3 30       		.byte	0x30
 14842 06a4 9F       		.byte	0x9f
 14843 06a5 1C000000 		.4byte	.LVL361
 14844 06a9 64000000 		.4byte	.LVL374
 14845 06ad 0100     		.2byte	0x1
 14846 06af 55       		.byte	0x55
 14847 06b0 66000000 		.4byte	.LVL375
 14848 06b4 B6000000 		.4byte	.LVL383
 14849 06b8 0100     		.2byte	0x1
 14850 06ba 55       		.byte	0x55
 14851 06bb 00000000 		.4byte	0
 14852 06bf 00000000 		.4byte	0
 14853              	.LLST37:
 14854 06c3 04000000 		.4byte	.LVL356
 14855 06c7 1C000000 		.4byte	.LVL361
 14856 06cb 0200     		.2byte	0x2
 14857 06cd 30       		.byte	0x30
 14858 06ce 9F       		.byte	0x9f
 14859 06cf 3A000000 		.4byte	.LVL366
 14860 06d3 44000000 		.4byte	.LVL368
 14861 06d7 0100     		.2byte	0x1
 14862 06d9 50       		.byte	0x50
 14863 06da 44000000 		.4byte	.LVL368
 14864 06de 48000000 		.4byte	.LVL369
 14865 06e2 0600     		.2byte	0x6
 14866 06e4 77       		.byte	0x77
 14867 06e5 00       		.sleb128 0
 14868 06e6 70       		.byte	0x70
 14869 06e7 00       		.sleb128 0
 14870 06e8 22       		.byte	0x22
 14871 06e9 9F       		.byte	0x9f
 14872 06ea 48000000 		.4byte	.LVL369
 14873 06ee 4B000000 		.4byte	.LVL370-1
 14874 06f2 0100     		.2byte	0x1
 14875 06f4 50       		.byte	0x50
 14876 06f5 00000000 		.4byte	0
 14877 06f9 00000000 		.4byte	0
ARM GAS  C:\Users\Revanth\AppData\Local\Temp\ccSEzD1d.s 			page 307


 14878              	.LLST38:
 14879 06fd 04000000 		.4byte	.LVL356
 14880 0701 18000000 		.4byte	.LVL360
 14881 0705 0200     		.2byte	0x2
 14882 0707 30       		.byte	0x30
 14883 0708 9F       		.byte	0x9f
 14884 0709 18000000 		.4byte	.LVL360
 14885 070d 1C000000 		.4byte	.LVL361
 14886 0711 0100     		.2byte	0x1
 14887 0713 50       		.byte	0x50
 14888 0714 1C000000 		.4byte	.LVL361
 14889 0718 B6000000 		.4byte	.LVL383
 14890 071c 0100     		.2byte	0x1
 14891 071e 56       		.byte	0x56
 14892 071f 00000000 		.4byte	0
 14893 0723 00000000 		.4byte	0
 14894              	.LLST39:
 14895 0727 04000000 		.4byte	.LVL356
 14896 072b 1C000000 		.4byte	.LVL361
 14897 072f 0200     		.2byte	0x2
 14898 0731 30       		.byte	0x30
 14899 0732 9F       		.byte	0x9f
 14900 0733 26000000 		.4byte	.LVL363
 14901 0737 40000000 		.4byte	.LVL367
 14902 073b 0100     		.2byte	0x1
 14903 073d 54       		.byte	0x54
 14904 073e 74000000 		.4byte	.LVL377
 14905 0742 7E000000 		.4byte	.LVL378
 14906 0746 0100     		.2byte	0x1
 14907 0748 50       		.byte	0x50
 14908 0749 00000000 		.4byte	0
 14909 074d 00000000 		.4byte	0
 14910              	.LLST40:
 14911 0751 00000000 		.4byte	.LVL384
 14912 0755 08000000 		.4byte	.LVL385
 14913 0759 0100     		.2byte	0x1
 14914 075b 50       		.byte	0x50
 14915 075c 08000000 		.4byte	.LVL385
 14916 0760 66000000 		.4byte	.LVL399
 14917 0764 0100     		.2byte	0x1
 14918 0766 54       		.byte	0x54
 14919 0767 66000000 		.4byte	.LVL399
 14920 076b 78000000 		.4byte	.LFE73
 14921 076f 0400     		.2byte	0x4
 14922 0771 F3       		.byte	0xf3
 14923 0772 01       		.uleb128 0x1
 14924 0773 50       		.byte	0x50
 14925 0774 9F       		.byte	0x9f
 14926 0775 00000000 		.4byte	0
 14927 0779 00000000 		.4byte	0
 14928              	.LLST41:
 14929 077d 00000000 		.4byte	.LVL400
 14930 0781 07000000 		.4byte	.LVL402-1
 14931 0785 0100     		.2byte	0x1
 14932 0787 50       		.byte	0x50
 14933 0788 07000000 		.4byte	.LVL402-1
 14934 078c B0000000 		.4byte	.LVL427
ARM GAS  C:\Users\Revanth\AppData\Local\Temp\ccSEzD1d.s 			page 308


 14935 0790 0100     		.2byte	0x1
 14936 0792 57       		.byte	0x57
 14937 0793 B0000000 		.4byte	.LVL427
 14938 0797 C8000000 		.4byte	.LFE76
 14939 079b 0400     		.2byte	0x4
 14940 079d F3       		.byte	0xf3
 14941 079e 01       		.uleb128 0x1
 14942 079f 50       		.byte	0x50
 14943 07a0 9F       		.byte	0x9f
 14944 07a1 00000000 		.4byte	0
 14945 07a5 00000000 		.4byte	0
 14946              	.LLST42:
 14947 07a9 04000000 		.4byte	.LVL401
 14948 07ad 1C000000 		.4byte	.LVL406
 14949 07b1 0200     		.2byte	0x2
 14950 07b3 30       		.byte	0x30
 14951 07b4 9F       		.byte	0x9f
 14952 07b5 1C000000 		.4byte	.LVL406
 14953 07b9 64000000 		.4byte	.LVL419
 14954 07bd 0100     		.2byte	0x1
 14955 07bf 55       		.byte	0x55
 14956 07c0 66000000 		.4byte	.LVL420
 14957 07c4 B0000000 		.4byte	.LVL427
 14958 07c8 0100     		.2byte	0x1
 14959 07ca 55       		.byte	0x55
 14960 07cb 00000000 		.4byte	0
 14961 07cf 00000000 		.4byte	0
 14962              	.LLST43:
 14963 07d3 04000000 		.4byte	.LVL401
 14964 07d7 1C000000 		.4byte	.LVL406
 14965 07db 0200     		.2byte	0x2
 14966 07dd 30       		.byte	0x30
 14967 07de 9F       		.byte	0x9f
 14968 07df 3A000000 		.4byte	.LVL411
 14969 07e3 44000000 		.4byte	.LVL413
 14970 07e7 0100     		.2byte	0x1
 14971 07e9 50       		.byte	0x50
 14972 07ea 44000000 		.4byte	.LVL413
 14973 07ee 48000000 		.4byte	.LVL414
 14974 07f2 0600     		.2byte	0x6
 14975 07f4 77       		.byte	0x77
 14976 07f5 00       		.sleb128 0
 14977 07f6 70       		.byte	0x70
 14978 07f7 00       		.sleb128 0
 14979 07f8 22       		.byte	0x22
 14980 07f9 9F       		.byte	0x9f
 14981 07fa 48000000 		.4byte	.LVL414
 14982 07fe 4B000000 		.4byte	.LVL415-1
 14983 0802 0100     		.2byte	0x1
 14984 0804 50       		.byte	0x50
 14985 0805 00000000 		.4byte	0
 14986 0809 00000000 		.4byte	0
 14987              	.LLST44:
 14988 080d 04000000 		.4byte	.LVL401
 14989 0811 18000000 		.4byte	.LVL405
 14990 0815 0200     		.2byte	0x2
 14991 0817 30       		.byte	0x30
ARM GAS  C:\Users\Revanth\AppData\Local\Temp\ccSEzD1d.s 			page 309


 14992 0818 9F       		.byte	0x9f
 14993 0819 18000000 		.4byte	.LVL405
 14994 081d 1C000000 		.4byte	.LVL406
 14995 0821 0100     		.2byte	0x1
 14996 0823 50       		.byte	0x50
 14997 0824 1C000000 		.4byte	.LVL406
 14998 0828 B0000000 		.4byte	.LVL427
 14999 082c 0100     		.2byte	0x1
 15000 082e 56       		.byte	0x56
 15001 082f 00000000 		.4byte	0
 15002 0833 00000000 		.4byte	0
 15003              	.LLST45:
 15004 0837 04000000 		.4byte	.LVL401
 15005 083b 1C000000 		.4byte	.LVL406
 15006 083f 0200     		.2byte	0x2
 15007 0841 30       		.byte	0x30
 15008 0842 9F       		.byte	0x9f
 15009 0843 26000000 		.4byte	.LVL408
 15010 0847 40000000 		.4byte	.LVL412
 15011 084b 0100     		.2byte	0x1
 15012 084d 54       		.byte	0x54
 15013 084e 74000000 		.4byte	.LVL422
 15014 0852 7E000000 		.4byte	.LVL423
 15015 0856 0100     		.2byte	0x1
 15016 0858 50       		.byte	0x50
 15017 0859 00000000 		.4byte	0
 15018 085d 00000000 		.4byte	0
 15019              	.LLST46:
 15020 0861 00000000 		.4byte	.LVL428
 15021 0865 08000000 		.4byte	.LVL429
 15022 0869 0100     		.2byte	0x1
 15023 086b 50       		.byte	0x50
 15024 086c 08000000 		.4byte	.LVL429
 15025 0870 66000000 		.4byte	.LVL443
 15026 0874 0100     		.2byte	0x1
 15027 0876 54       		.byte	0x54
 15028 0877 66000000 		.4byte	.LVL443
 15029 087b 78000000 		.4byte	.LFE75
 15030 087f 0400     		.2byte	0x4
 15031 0881 F3       		.byte	0xf3
 15032 0882 01       		.uleb128 0x1
 15033 0883 50       		.byte	0x50
 15034 0884 9F       		.byte	0x9f
 15035 0885 00000000 		.4byte	0
 15036 0889 00000000 		.4byte	0
 15037              	.LLST47:
 15038 088d 00000000 		.4byte	.LVL444
 15039 0891 0B000000 		.4byte	.LVL445-1
 15040 0895 0100     		.2byte	0x1
 15041 0897 50       		.byte	0x50
 15042 0898 0B000000 		.4byte	.LVL445-1
 15043 089c 7C000000 		.4byte	.LVL462
 15044 08a0 0100     		.2byte	0x1
 15045 08a2 55       		.byte	0x55
 15046 08a3 7C000000 		.4byte	.LVL462
 15047 08a7 88000000 		.4byte	.LFE77
 15048 08ab 0400     		.2byte	0x4
ARM GAS  C:\Users\Revanth\AppData\Local\Temp\ccSEzD1d.s 			page 310


 15049 08ad F3       		.byte	0xf3
 15050 08ae 01       		.uleb128 0x1
 15051 08af 50       		.byte	0x50
 15052 08b0 9F       		.byte	0x9f
 15053 08b1 00000000 		.4byte	0
 15054 08b5 00000000 		.4byte	0
 15055              	.LLST48:
 15056 08b9 00000000 		.4byte	.LVL444
 15057 08bd 0B000000 		.4byte	.LVL445-1
 15058 08c1 0100     		.2byte	0x1
 15059 08c3 51       		.byte	0x51
 15060 08c4 0B000000 		.4byte	.LVL445-1
 15061 08c8 7C000000 		.4byte	.LVL462
 15062 08cc 0100     		.2byte	0x1
 15063 08ce 57       		.byte	0x57
 15064 08cf 7C000000 		.4byte	.LVL462
 15065 08d3 88000000 		.4byte	.LFE77
 15066 08d7 0400     		.2byte	0x4
 15067 08d9 F3       		.byte	0xf3
 15068 08da 01       		.uleb128 0x1
 15069 08db 51       		.byte	0x51
 15070 08dc 9F       		.byte	0x9f
 15071 08dd 00000000 		.4byte	0
 15072 08e1 00000000 		.4byte	0
 15073              	.LLST49:
 15074 08e5 00000000 		.4byte	.LVL444
 15075 08e9 0B000000 		.4byte	.LVL445-1
 15076 08ed 0100     		.2byte	0x1
 15077 08ef 52       		.byte	0x52
 15078 08f0 0B000000 		.4byte	.LVL445-1
 15079 08f4 7C000000 		.4byte	.LVL462
 15080 08f8 0100     		.2byte	0x1
 15081 08fa 56       		.byte	0x56
 15082 08fb 7C000000 		.4byte	.LVL462
 15083 08ff 88000000 		.4byte	.LFE77
 15084 0903 0400     		.2byte	0x4
 15085 0905 F3       		.byte	0xf3
 15086 0906 01       		.uleb128 0x1
 15087 0907 52       		.byte	0x52
 15088 0908 9F       		.byte	0x9f
 15089 0909 00000000 		.4byte	0
 15090 090d 00000000 		.4byte	0
 15091              	.LLST50:
 15092 0911 00000000 		.4byte	.LVL463
 15093 0915 08000000 		.4byte	.LVL465
 15094 0919 0100     		.2byte	0x1
 15095 091b 50       		.byte	0x50
 15096 091c 08000000 		.4byte	.LVL465
 15097 0920 0B000000 		.4byte	.LVL466-1
 15098 0924 0100     		.2byte	0x1
 15099 0926 51       		.byte	0x51
 15100 0927 0B000000 		.4byte	.LVL466-1
 15101 092b 10000000 		.4byte	.LFE107
 15102 092f 0400     		.2byte	0x4
 15103 0931 F3       		.byte	0xf3
 15104 0932 01       		.uleb128 0x1
 15105 0933 50       		.byte	0x50
ARM GAS  C:\Users\Revanth\AppData\Local\Temp\ccSEzD1d.s 			page 311


 15106 0934 9F       		.byte	0x9f
 15107 0935 00000000 		.4byte	0
 15108 0939 00000000 		.4byte	0
 15109              	.LLST51:
 15110 093d 00000000 		.4byte	.LVL463
 15111 0941 06000000 		.4byte	.LVL464
 15112 0945 0100     		.2byte	0x1
 15113 0947 51       		.byte	0x51
 15114 0948 06000000 		.4byte	.LVL464
 15115 094c 10000000 		.4byte	.LFE107
 15116 0950 0400     		.2byte	0x4
 15117 0952 F3       		.byte	0xf3
 15118 0953 01       		.uleb128 0x1
 15119 0954 51       		.byte	0x51
 15120 0955 9F       		.byte	0x9f
 15121 0956 00000000 		.4byte	0
 15122 095a 00000000 		.4byte	0
 15123              	.LLST52:
 15124 095e 00000000 		.4byte	.LVL467
 15125 0962 0A000000 		.4byte	.LVL468
 15126 0966 0100     		.2byte	0x1
 15127 0968 50       		.byte	0x50
 15128 0969 0A000000 		.4byte	.LVL468
 15129 096d 7C010000 		.4byte	.LFE65
 15130 0971 0400     		.2byte	0x4
 15131 0973 F3       		.byte	0xf3
 15132 0974 01       		.uleb128 0x1
 15133 0975 50       		.byte	0x50
 15134 0976 9F       		.byte	0x9f
 15135 0977 00000000 		.4byte	0
 15136 097b 00000000 		.4byte	0
 15137              	.LLST53:
 15138 097f 00000000 		.4byte	.LVL504
 15139 0983 0A000000 		.4byte	.LVL505
 15140 0987 0100     		.2byte	0x1
 15141 0989 50       		.byte	0x50
 15142 098a 0A000000 		.4byte	.LVL505
 15143 098e 78010000 		.4byte	.LFE66
 15144 0992 0400     		.2byte	0x4
 15145 0994 F3       		.byte	0xf3
 15146 0995 01       		.uleb128 0x1
 15147 0996 50       		.byte	0x50
 15148 0997 9F       		.byte	0x9f
 15149 0998 00000000 		.4byte	0
 15150 099c 00000000 		.4byte	0
 15151              	.LLST54:
 15152 09a0 00000000 		.4byte	.LVL541
 15153 09a4 0A000000 		.4byte	.LVL542
 15154 09a8 0100     		.2byte	0x1
 15155 09aa 50       		.byte	0x50
 15156 09ab 0A000000 		.4byte	.LVL542
 15157 09af 94010000 		.4byte	.LFE67
 15158 09b3 0400     		.2byte	0x4
 15159 09b5 F3       		.byte	0xf3
 15160 09b6 01       		.uleb128 0x1
 15161 09b7 50       		.byte	0x50
 15162 09b8 9F       		.byte	0x9f
ARM GAS  C:\Users\Revanth\AppData\Local\Temp\ccSEzD1d.s 			page 312


 15163 09b9 00000000 		.4byte	0
 15164 09bd 00000000 		.4byte	0
 15165              	.LLST55:
 15166 09c1 00000000 		.4byte	.LVL580
 15167 09c5 0A000000 		.4byte	.LVL581
 15168 09c9 0100     		.2byte	0x1
 15169 09cb 50       		.byte	0x50
 15170 09cc 0A000000 		.4byte	.LVL581
 15171 09d0 88010000 		.4byte	.LFE68
 15172 09d4 0400     		.2byte	0x4
 15173 09d6 F3       		.byte	0xf3
 15174 09d7 01       		.uleb128 0x1
 15175 09d8 50       		.byte	0x50
 15176 09d9 9F       		.byte	0x9f
 15177 09da 00000000 		.4byte	0
 15178 09de 00000000 		.4byte	0
 15179              	.LLST56:
 15180 09e2 00000000 		.4byte	.LVL618
 15181 09e6 08000000 		.4byte	.LVL620
 15182 09ea 0100     		.2byte	0x1
 15183 09ec 50       		.byte	0x50
 15184 09ed 08000000 		.4byte	.LVL620
 15185 09f1 0B000000 		.4byte	.LVL621-1
 15186 09f5 0100     		.2byte	0x1
 15187 09f7 51       		.byte	0x51
 15188 09f8 0B000000 		.4byte	.LVL621-1
 15189 09fc 10000000 		.4byte	.LFE108
 15190 0a00 0400     		.2byte	0x4
 15191 0a02 F3       		.byte	0xf3
 15192 0a03 01       		.uleb128 0x1
 15193 0a04 50       		.byte	0x50
 15194 0a05 9F       		.byte	0x9f
 15195 0a06 00000000 		.4byte	0
 15196 0a0a 00000000 		.4byte	0
 15197              	.LLST57:
 15198 0a0e 00000000 		.4byte	.LVL618
 15199 0a12 06000000 		.4byte	.LVL619
 15200 0a16 0100     		.2byte	0x1
 15201 0a18 51       		.byte	0x51
 15202 0a19 06000000 		.4byte	.LVL619
 15203 0a1d 10000000 		.4byte	.LFE108
 15204 0a21 0400     		.2byte	0x4
 15205 0a23 F3       		.byte	0xf3
 15206 0a24 01       		.uleb128 0x1
 15207 0a25 51       		.byte	0x51
 15208 0a26 9F       		.byte	0x9f
 15209 0a27 00000000 		.4byte	0
 15210 0a2b 00000000 		.4byte	0
 15211              	.LLST58:
 15212 0a2f 00000000 		.4byte	.LVL622
 15213 0a33 0A000000 		.4byte	.LVL624
 15214 0a37 0100     		.2byte	0x1
 15215 0a39 50       		.byte	0x50
 15216 0a3a 0A000000 		.4byte	.LVL624
 15217 0a3e 3C000000 		.4byte	.LVL630
 15218 0a42 0100     		.2byte	0x1
 15219 0a44 55       		.byte	0x55
ARM GAS  C:\Users\Revanth\AppData\Local\Temp\ccSEzD1d.s 			page 313


 15220 0a45 3C000000 		.4byte	.LVL630
 15221 0a49 40000000 		.4byte	.LFE109
 15222 0a4d 0400     		.2byte	0x4
 15223 0a4f F3       		.byte	0xf3
 15224 0a50 01       		.uleb128 0x1
 15225 0a51 50       		.byte	0x50
 15226 0a52 9F       		.byte	0x9f
 15227 0a53 00000000 		.4byte	0
 15228 0a57 00000000 		.4byte	0
 15229              	.LLST59:
 15230 0a5b 00000000 		.4byte	.LVL622
 15231 0a5f 08000000 		.4byte	.LVL623
 15232 0a63 0100     		.2byte	0x1
 15233 0a65 51       		.byte	0x51
 15234 0a66 08000000 		.4byte	.LVL623
 15235 0a6a 40000000 		.4byte	.LFE109
 15236 0a6e 0400     		.2byte	0x4
 15237 0a70 F3       		.byte	0xf3
 15238 0a71 01       		.uleb128 0x1
 15239 0a72 51       		.byte	0x51
 15240 0a73 9F       		.byte	0x9f
 15241 0a74 00000000 		.4byte	0
 15242 0a78 00000000 		.4byte	0
 15243              	.LLST60:
 15244 0a7c 32010000 		.4byte	.LVL651
 15245 0a80 46010000 		.4byte	.LVL652
 15246 0a84 0200     		.2byte	0x2
 15247 0a86 30       		.byte	0x30
 15248 0a87 9F       		.byte	0x9f
 15249 0a88 46010000 		.4byte	.LVL652
 15250 0a8c 4A010000 		.4byte	.LVL653
 15251 0a90 0600     		.2byte	0x6
 15252 0a92 73       		.byte	0x73
 15253 0a93 00       		.sleb128 0
 15254 0a94 70       		.byte	0x70
 15255 0a95 00       		.sleb128 0
 15256 0a96 22       		.byte	0x22
 15257 0a97 9F       		.byte	0x9f
 15258 0a98 4A010000 		.4byte	.LVL653
 15259 0a9c 4D010000 		.4byte	.LVL654-1
 15260 0aa0 0100     		.2byte	0x1
 15261 0aa2 50       		.byte	0x50
 15262 0aa3 00000000 		.4byte	0
 15263 0aa7 00000000 		.4byte	0
 15264              	.LLST61:
 15265 0aab 32010000 		.4byte	.LVL651
 15266 0aaf 46010000 		.4byte	.LVL652
 15267 0ab3 0200     		.2byte	0x2
 15268 0ab5 30       		.byte	0x30
 15269 0ab6 9F       		.byte	0x9f
 15270 0ab7 46010000 		.4byte	.LVL652
 15271 0abb 4D010000 		.4byte	.LVL654-1
 15272 0abf 0500     		.2byte	0x5
 15273 0ac1 03       		.byte	0x3
 15274 0ac2 06000000 		.4byte	USB_received+6
 15275 0ac6 00000000 		.4byte	0
 15276 0aca 00000000 		.4byte	0
ARM GAS  C:\Users\Revanth\AppData\Local\Temp\ccSEzD1d.s 			page 314


 15277              		.section	.debug_aranges,"",%progbits
 15278 0000 84010000 		.4byte	0x184
 15279 0004 0200     		.2byte	0x2
 15280 0006 00000000 		.4byte	.Ldebug_info0
 15281 000a 04       		.byte	0x4
 15282 000b 00       		.byte	0
 15283 000c 0000     		.2byte	0
 15284 000e 0000     		.2byte	0
 15285 0010 00000000 		.4byte	.LFB79
 15286 0014 4A000000 		.4byte	.LFE79-.LFB79
 15287 0018 00000000 		.4byte	.LFB85
 15288 001c 08000000 		.4byte	.LFE85-.LFB85
 15289 0020 00000000 		.4byte	.LFB87
 15290 0024 18000000 		.4byte	.LFE87-.LFB87
 15291 0028 00000000 		.4byte	.LFB88
 15292 002c 18000000 		.4byte	.LFE88-.LFB88
 15293 0030 00000000 		.4byte	.LFB86
 15294 0034 2C000000 		.4byte	.LFE86-.LFB86
 15295 0038 00000000 		.4byte	.LFB89
 15296 003c 44000000 		.4byte	.LFE89-.LFB89
 15297 0040 00000000 		.4byte	.LFB92
 15298 0044 02000000 		.4byte	.LFE92-.LFB92
 15299 0048 00000000 		.4byte	.LFB95
 15300 004c 18000000 		.4byte	.LFE95-.LFB95
 15301 0050 00000000 		.4byte	.LFB96
 15302 0054 18000000 		.4byte	.LFE96-.LFB96
 15303 0058 00000000 		.4byte	.LFB97
 15304 005c 2C000000 		.4byte	.LFE97-.LFB97
 15305 0060 00000000 		.4byte	.LFB82
 15306 0064 24000000 		.4byte	.LFE82-.LFB82
 15307 0068 00000000 		.4byte	.LFB83
 15308 006c 40000000 		.4byte	.LFE83-.LFB83
 15309 0070 00000000 		.4byte	.LFB84
 15310 0074 2C000000 		.4byte	.LFE84-.LFB84
 15311 0078 00000000 		.4byte	.LFB91
 15312 007c AC020000 		.4byte	.LFE91-.LFB91
 15313 0080 00000000 		.4byte	.LFB93
 15314 0084 38000000 		.4byte	.LFE93-.LFB93
 15315 0088 00000000 		.4byte	.LFB98
 15316 008c 24000000 		.4byte	.LFE98-.LFB98
 15317 0090 00000000 		.4byte	.LFB80
 15318 0094 70000000 		.4byte	.LFE80-.LFB80
 15319 0098 00000000 		.4byte	.LFB81
 15320 009c 70000000 		.4byte	.LFE81-.LFB81
 15321 00a0 00000000 		.4byte	.LFB99
 15322 00a4 24000000 		.4byte	.LFE99-.LFB99
 15323 00a8 00000000 		.4byte	.LFB78
 15324 00ac 78000000 		.4byte	.LFE78-.LFB78
 15325 00b0 00000000 		.4byte	.LFB94
 15326 00b4 3C000000 		.4byte	.LFE94-.LFB94
 15327 00b8 00000000 		.4byte	.LFB100
 15328 00bc 10000000 		.4byte	.LFE100-.LFB100
 15329 00c0 00000000 		.4byte	.LFB101
 15330 00c4 98000000 		.4byte	.LFE101-.LFB101
 15331 00c8 00000000 		.4byte	.LFB102
 15332 00cc EC000000 		.4byte	.LFE102-.LFB102
 15333 00d0 00000000 		.4byte	.LFB103
ARM GAS  C:\Users\Revanth\AppData\Local\Temp\ccSEzD1d.s 			page 315


 15334 00d4 3E000000 		.4byte	.LFE103-.LFB103
 15335 00d8 00000000 		.4byte	.LFB64
 15336 00dc 26000000 		.4byte	.LFE64-.LFB64
 15337 00e0 00000000 		.4byte	.LFB104
 15338 00e4 14020000 		.4byte	.LFE104-.LFB104
 15339 00e8 00000000 		.4byte	.LFB105
 15340 00ec 3C000000 		.4byte	.LFE105-.LFB105
 15341 00f0 00000000 		.4byte	.LFB106
 15342 00f4 54000000 		.4byte	.LFE106-.LFB106
 15343 00f8 00000000 		.4byte	.LFB70
 15344 00fc E8000000 		.4byte	.LFE70-.LFB70
 15345 0100 00000000 		.4byte	.LFB69
 15346 0104 64000000 		.4byte	.LFE69-.LFB69
 15347 0108 00000000 		.4byte	.LFB72
 15348 010c D0000000 		.4byte	.LFE72-.LFB72
 15349 0110 00000000 		.4byte	.LFB71
 15350 0114 64000000 		.4byte	.LFE71-.LFB71
 15351 0118 00000000 		.4byte	.LFB74
 15352 011c D0000000 		.4byte	.LFE74-.LFB74
 15353 0120 00000000 		.4byte	.LFB73
 15354 0124 78000000 		.4byte	.LFE73-.LFB73
 15355 0128 00000000 		.4byte	.LFB76
 15356 012c C8000000 		.4byte	.LFE76-.LFB76
 15357 0130 00000000 		.4byte	.LFB75
 15358 0134 78000000 		.4byte	.LFE75-.LFB75
 15359 0138 00000000 		.4byte	.LFB77
 15360 013c 88000000 		.4byte	.LFE77-.LFB77
 15361 0140 00000000 		.4byte	.LFB107
 15362 0144 10000000 		.4byte	.LFE107-.LFB107
 15363 0148 00000000 		.4byte	.LFB65
 15364 014c 7C010000 		.4byte	.LFE65-.LFB65
 15365 0150 00000000 		.4byte	.LFB66
 15366 0154 78010000 		.4byte	.LFE66-.LFB66
 15367 0158 00000000 		.4byte	.LFB67
 15368 015c 94010000 		.4byte	.LFE67-.LFB67
 15369 0160 00000000 		.4byte	.LFB68
 15370 0164 88010000 		.4byte	.LFE68-.LFB68
 15371 0168 00000000 		.4byte	.LFB108
 15372 016c 10000000 		.4byte	.LFE108-.LFB108
 15373 0170 00000000 		.4byte	.LFB109
 15374 0174 40000000 		.4byte	.LFE109-.LFB109
 15375 0178 00000000 		.4byte	.LFB90
 15376 017c 00020000 		.4byte	.LFE90-.LFB90
 15377 0180 00000000 		.4byte	0
 15378 0184 00000000 		.4byte	0
 15379              		.section	.debug_ranges,"",%progbits
 15380              	.Ldebug_ranges0:
 15381 0000 00000000 		.4byte	.LFB79
 15382 0004 4A000000 		.4byte	.LFE79
 15383 0008 00000000 		.4byte	.LFB85
 15384 000c 08000000 		.4byte	.LFE85
 15385 0010 00000000 		.4byte	.LFB87
 15386 0014 18000000 		.4byte	.LFE87
 15387 0018 00000000 		.4byte	.LFB88
 15388 001c 18000000 		.4byte	.LFE88
 15389 0020 00000000 		.4byte	.LFB86
 15390 0024 2C000000 		.4byte	.LFE86
ARM GAS  C:\Users\Revanth\AppData\Local\Temp\ccSEzD1d.s 			page 316


 15391 0028 00000000 		.4byte	.LFB89
 15392 002c 44000000 		.4byte	.LFE89
 15393 0030 00000000 		.4byte	.LFB92
 15394 0034 02000000 		.4byte	.LFE92
 15395 0038 00000000 		.4byte	.LFB95
 15396 003c 18000000 		.4byte	.LFE95
 15397 0040 00000000 		.4byte	.LFB96
 15398 0044 18000000 		.4byte	.LFE96
 15399 0048 00000000 		.4byte	.LFB97
 15400 004c 2C000000 		.4byte	.LFE97
 15401 0050 00000000 		.4byte	.LFB82
 15402 0054 24000000 		.4byte	.LFE82
 15403 0058 00000000 		.4byte	.LFB83
 15404 005c 40000000 		.4byte	.LFE83
 15405 0060 00000000 		.4byte	.LFB84
 15406 0064 2C000000 		.4byte	.LFE84
 15407 0068 00000000 		.4byte	.LFB91
 15408 006c AC020000 		.4byte	.LFE91
 15409 0070 00000000 		.4byte	.LFB93
 15410 0074 38000000 		.4byte	.LFE93
 15411 0078 00000000 		.4byte	.LFB98
 15412 007c 24000000 		.4byte	.LFE98
 15413 0080 00000000 		.4byte	.LFB80
 15414 0084 70000000 		.4byte	.LFE80
 15415 0088 00000000 		.4byte	.LFB81
 15416 008c 70000000 		.4byte	.LFE81
 15417 0090 00000000 		.4byte	.LFB99
 15418 0094 24000000 		.4byte	.LFE99
 15419 0098 00000000 		.4byte	.LFB78
 15420 009c 78000000 		.4byte	.LFE78
 15421 00a0 00000000 		.4byte	.LFB94
 15422 00a4 3C000000 		.4byte	.LFE94
 15423 00a8 00000000 		.4byte	.LFB100
 15424 00ac 10000000 		.4byte	.LFE100
 15425 00b0 00000000 		.4byte	.LFB101
 15426 00b4 98000000 		.4byte	.LFE101
 15427 00b8 00000000 		.4byte	.LFB102
 15428 00bc EC000000 		.4byte	.LFE102
 15429 00c0 00000000 		.4byte	.LFB103
 15430 00c4 3E000000 		.4byte	.LFE103
 15431 00c8 00000000 		.4byte	.LFB64
 15432 00cc 26000000 		.4byte	.LFE64
 15433 00d0 00000000 		.4byte	.LFB104
 15434 00d4 14020000 		.4byte	.LFE104
 15435 00d8 00000000 		.4byte	.LFB105
 15436 00dc 3C000000 		.4byte	.LFE105
 15437 00e0 00000000 		.4byte	.LFB106
 15438 00e4 54000000 		.4byte	.LFE106
 15439 00e8 00000000 		.4byte	.LFB70
 15440 00ec E8000000 		.4byte	.LFE70
 15441 00f0 00000000 		.4byte	.LFB69
 15442 00f4 64000000 		.4byte	.LFE69
 15443 00f8 00000000 		.4byte	.LFB72
 15444 00fc D0000000 		.4byte	.LFE72
 15445 0100 00000000 		.4byte	.LFB71
 15446 0104 64000000 		.4byte	.LFE71
 15447 0108 00000000 		.4byte	.LFB74
ARM GAS  C:\Users\Revanth\AppData\Local\Temp\ccSEzD1d.s 			page 317


 15448 010c D0000000 		.4byte	.LFE74
 15449 0110 00000000 		.4byte	.LFB73
 15450 0114 78000000 		.4byte	.LFE73
 15451 0118 00000000 		.4byte	.LFB76
 15452 011c C8000000 		.4byte	.LFE76
 15453 0120 00000000 		.4byte	.LFB75
 15454 0124 78000000 		.4byte	.LFE75
 15455 0128 00000000 		.4byte	.LFB77
 15456 012c 88000000 		.4byte	.LFE77
 15457 0130 00000000 		.4byte	.LFB107
 15458 0134 10000000 		.4byte	.LFE107
 15459 0138 00000000 		.4byte	.LFB65
 15460 013c 7C010000 		.4byte	.LFE65
 15461 0140 00000000 		.4byte	.LFB66
 15462 0144 78010000 		.4byte	.LFE66
 15463 0148 00000000 		.4byte	.LFB67
 15464 014c 94010000 		.4byte	.LFE67
 15465 0150 00000000 		.4byte	.LFB68
 15466 0154 88010000 		.4byte	.LFE68
 15467 0158 00000000 		.4byte	.LFB108
 15468 015c 10000000 		.4byte	.LFE108
 15469 0160 00000000 		.4byte	.LFB109
 15470 0164 40000000 		.4byte	.LFE109
 15471 0168 00000000 		.4byte	.LFB90
 15472 016c 00020000 		.4byte	.LFE90
 15473 0170 00000000 		.4byte	0
 15474 0174 00000000 		.4byte	0
 15475              		.section	.debug_line,"",%progbits
 15476              	.Ldebug_line0:
 15477 0000 B8090000 		.section	.debug_str,"MS",%progbits,1
 15477      02002303 
 15477      00000201 
 15477      FB0E0D00 
 15477      01010101 
 15478              	.LASF102:
 15479 0000 636F756E 		.ascii	"count\000"
 15479      7400
 15480              	.LASF21:
 15481 0006 75696E74 		.ascii	"uint16\000"
 15481      313600
 15482              	.LASF191:
 15483 000d 4C454432 		.ascii	"LED2_Write\000"
 15483      5F577269 
 15483      746500
 15484              	.LASF144:
 15485 0018 486F6D65 		.ascii	"HomeZ_done\000"
 15485      5A5F646F 
 15485      6E6500
 15486              	.LASF127:
 15487 0023 66616374 		.ascii	"fact_t\000"
 15487      5F7400
 15488              	.LASF181:
 15489 002a 73707269 		.ascii	"sprintf\000"
 15489      6E746600 
 15490              	.LASF126:
 15491 0032 66616374 		.ascii	"fact_z\000"
 15491      5F7A00
ARM GAS  C:\Users\Revanth\AppData\Local\Temp\ccSEzD1d.s 			page 318


 15492              	.LASF67:
 15493 0039 77616974 		.ascii	"wait_status\000"
 15493      5F737461 
 15493      74757300 
 15494              	.LASF196:
 15495 0045 4C363437 		.ascii	"L6470.c\000"
 15495      302E6300 
 15496              	.LASF4:
 15497 004d 5F5F7569 		.ascii	"__uint8_t\000"
 15497      6E74385F 
 15497      7400
 15498              	.LASF158:
 15499 0057 50574D5F 		.ascii	"PWM_BarcodeCondenser_LED_WriteCompare\000"
 15499      42617263 
 15499      6F646543 
 15499      6F6E6465 
 15499      6E736572 
 15500              	.LASF98:
 15501 007d 64697265 		.ascii	"direction\000"
 15501      6374696F 
 15501      6E00
 15502              	.LASF50:
 15503 0087 49735F55 		.ascii	"Is_USB_Unpluged\000"
 15503      53425F55 
 15503      6E706C75 
 15503      67656400 
 15504              	.LASF175:
 15505 0097 7374726E 		.ascii	"strncpy\000"
 15505      63707900 
 15506              	.LASF70:
 15507 009f 74656D70 		.ascii	"temp\000"
 15507      00
 15508              	.LASF161:
 15509 00a4 43794465 		.ascii	"CyDelay\000"
 15509      6C617900 
 15510              	.LASF130:
 15511 00ac 5A5F5175 		.ascii	"Z_QuadPosition\000"
 15511      6164506F 
 15511      73697469 
 15511      6F6E00
 15512              	.LASF157:
 15513 00bb 50574D5F 		.ascii	"PWM_BarcodeCondenser_LED_Start\000"
 15513      42617263 
 15513      6F646543 
 15513      6F6E6465 
 15513      6E736572 
 15514              	.LASF10:
 15515 00da 6C6F6E67 		.ascii	"long long unsigned int\000"
 15515      206C6F6E 
 15515      6720756E 
 15515      7369676E 
 15515      65642069 
 15516              	.LASF36:
 15517 00f1 5374725F 		.ascii	"Str_Last_One\000"
 15517      4C617374 
 15517      5F4F6E65 
 15517      00
ARM GAS  C:\Users\Revanth\AppData\Local\Temp\ccSEzD1d.s 			page 319


 15518              	.LASF116:
 15519 00fe 506F7369 		.ascii	"Position_Y_Move\000"
 15519      74696F6E 
 15519      5F595F4D 
 15519      6F766500 
 15520              	.LASF166:
 15521 010e 51756164 		.ascii	"QuadDec_Y_Start\000"
 15521      4465635F 
 15521      595F5374 
 15521      61727400 
 15522              	.LASF29:
 15523 011e 496E6974 		.ascii	"Initialize_PWM\000"
 15523      69616C69 
 15523      7A655F50 
 15523      574D00
 15524              	.LASF100:
 15525 012d 49544D5F 		.ascii	"ITM_RxBuffer\000"
 15525      52784275 
 15525      66666572 
 15525      00
 15526              	.LASF194:
 15527 013a 4379536F 		.ascii	"CySoftwareReset\000"
 15527      66747761 
 15527      72655265 
 15527      73657400 
 15528              	.LASF143:
 15529 014a 486F6D65 		.ascii	"HomeY_done\000"
 15529      595F646F 
 15529      6E6500
 15530              	.LASF58:
 15531 0155 41444452 		.ascii	"ADDR\000"
 15531      00
 15532              	.LASF63:
 15533 015a 496E6974 		.ascii	"Initialize_Motor\000"
 15533      69616C69 
 15533      7A655F4D 
 15533      6F746F72 
 15533      00
 15534              	.LASF61:
 15535 016b 57726974 		.ascii	"Write_32bitSPI_DATA\000"
 15535      655F3332 
 15535      62697453 
 15535      50495F44 
 15535      41544100 
 15536              	.LASF0:
 15537 017f 7369676E 		.ascii	"signed char\000"
 15537      65642063 
 15537      68617200 
 15538              	.LASF133:
 15539 018b 4E6F5F6F 		.ascii	"No_of_X_Cycle\000"
 15539      665F585F 
 15539      4379636C 
 15539      6500
 15540              	.LASF31:
 15541 0199 52656164 		.ascii	"Read_All_Optical_Encoder\000"
 15541      5F416C6C 
 15541      5F4F7074 
ARM GAS  C:\Users\Revanth\AppData\Local\Temp\ccSEzD1d.s 			page 320


 15541      6963616C 
 15541      5F456E63 
 15542              	.LASF170:
 15543 01b2 51756164 		.ascii	"QuadDec_Y_GetCounter\000"
 15543      4465635F 
 15543      595F4765 
 15543      74436F75 
 15543      6E746572 
 15544              	.LASF23:
 15545 01c7 696E7433 		.ascii	"int32\000"
 15545      3200
 15546              	.LASF87:
 15547 01cd 676F546F 		.ascii	"goTo_XYZ\000"
 15547      5F58595A 
 15547      00
 15548              	.LASF88:
 15549 01d6 75706461 		.ascii	"update_max_velocity\000"
 15549      74655F6D 
 15549      61785F76 
 15549      656C6F63 
 15549      69747900 
 15550              	.LASF44:
 15551 01ea 75617274 		.ascii	"uart_Buffer\000"
 15551      5F427566 
 15551      66657200 
 15552              	.LASF135:
 15553 01f6 4E6F5F6F 		.ascii	"No_of_Z_Cycle\000"
 15553      665F5A5F 
 15553      4379636C 
 15553      6500
 15554              	.LASF146:
 15555 0204 456E636F 		.ascii	"EncoderTZSelect\000"
 15555      64657254 
 15555      5A53656C 
 15555      65637400 
 15556              	.LASF156:
 15557 0214 50574D5F 		.ascii	"PWM_CondenserLED_WriteCompare\000"
 15557      436F6E64 
 15557      656E7365 
 15557      724C4544 
 15557      5F577269 
 15558              	.LASF6:
 15559 0232 6C6F6E67 		.ascii	"long int\000"
 15559      20696E74 
 15559      00
 15560              	.LASF105:
 15561 023b 54696D65 		.ascii	"Time_Out_Error\000"
 15561      5F4F7574 
 15561      5F457272 
 15561      6F7200
 15562              	.LASF97:
 15563 024a 74696D65 		.ascii	"time_ms\000"
 15563      5F6D7300 
 15564              	.LASF152:
 15565 0252 73746174 		.ascii	"status_x\000"
 15565      75735F78 
 15565      00
ARM GAS  C:\Users\Revanth\AppData\Local\Temp\ccSEzD1d.s 			page 321


 15566              	.LASF153:
 15567 025b 73746174 		.ascii	"status_y\000"
 15567      75735F79 
 15567      00
 15568              	.LASF154:
 15569 0264 73746174 		.ascii	"status_z\000"
 15569      75735F7A 
 15569      00
 15570              	.LASF182:
 15571 026d 5553425F 		.ascii	"USB_IsConfigurationChanged\000"
 15571      4973436F 
 15571      6E666967 
 15571      75726174 
 15571      696F6E43 
 15572              	.LASF147:
 15573 0288 42756666 		.ascii	"Buffer_Z_QuadPosition\000"
 15573      65725F5A 
 15573      5F517561 
 15573      64506F73 
 15573      6974696F 
 15574              	.LASF111:
 15575 029e 496E7075 		.ascii	"Input_position_X\000"
 15575      745F706F 
 15575      73697469 
 15575      6F6E5F58 
 15575      00
 15576              	.LASF20:
 15577 02af 75696E74 		.ascii	"uint8\000"
 15577      3800
 15578              	.LASF113:
 15579 02b5 496E7075 		.ascii	"Input_position_Z\000"
 15579      745F706F 
 15579      73697469 
 15579      6F6E5F5A 
 15579      00
 15580              	.LASF9:
 15581 02c6 6C6F6E67 		.ascii	"long long int\000"
 15581      206C6F6E 
 15581      6720696E 
 15581      7400
 15582              	.LASF179:
 15583 02d4 5553425F 		.ascii	"USB_CDC_Init\000"
 15583      4344435F 
 15583      496E6974 
 15583      00
 15584              	.LASF174:
 15585 02e1 43794465 		.ascii	"CyDelayUs\000"
 15585      6C617955 
 15585      7300
 15586              	.LASF18:
 15587 02eb 646F7562 		.ascii	"double\000"
 15587      6C6500
 15588              	.LASF78:
 15589 02f2 506F7369 		.ascii	"Position_Y_Requested\000"
 15589      74696F6E 
 15589      5F595F52 
 15589      65717565 
ARM GAS  C:\Users\Revanth\AppData\Local\Temp\ccSEzD1d.s 			page 322


 15589      73746564 
 15590              	.LASF132:
 15591 0307 5A5F5265 		.ascii	"Z_Rectification\000"
 15591      63746966 
 15591      69636174 
 15591      696F6E00 
 15592              	.LASF188:
 15593 0317 50696E5F 		.ascii	"Pin_CSMotorO_Write\000"
 15593      43534D6F 
 15593      746F724F 
 15593      5F577269 
 15593      746500
 15594              	.LASF56:
 15595 032a 44617461 		.ascii	"Data_To_Transfer\000"
 15595      5F546F5F 
 15595      5472616E 
 15595      73666572 
 15595      00
 15596              	.LASF173:
 15597 033b 55415254 		.ascii	"UART_PCB_LOG_PutString\000"
 15597      5F504342 
 15597      5F4C4F47 
 15597      5F507574 
 15597      53747269 
 15598              	.LASF7:
 15599 0352 5F5F7569 		.ascii	"__uint32_t\000"
 15599      6E743332 
 15599      5F7400
 15600              	.LASF94:
 15601 035d 75706461 		.ascii	"update_max_accelaration\000"
 15601      74655F6D 
 15601      61785F61 
 15601      6363656C 
 15601      61726174 
 15602              	.LASF110:
 15603 0375 6572726F 		.ascii	"errorT\000"
 15603      725400
 15604              	.LASF107:
 15605 037c 6572726F 		.ascii	"errorX\000"
 15605      725800
 15606              	.LASF108:
 15607 0383 6572726F 		.ascii	"errorY\000"
 15607      725900
 15608              	.LASF109:
 15609 038a 6572726F 		.ascii	"errorZ\000"
 15609      725A00
 15610              	.LASF197:
 15611 0391 433A5C55 		.ascii	"C:\\Users\\Revanth\\Documents\\GitHub\\Pscoc5_TMC51"
 15611      73657273 
 15611      5C526576 
 15611      616E7468 
 15611      5C446F63 
 15612 03bf 36305F41 		.ascii	"60_A76_V1_0_0\\Pscoc_TMC5160_V1_0\\Design01.cydsn\000"
 15612      37365F56 
 15612      315F305F 
 15612      305C5073 
 15612      636F635F 
ARM GAS  C:\Users\Revanth\AppData\Local\Temp\ccSEzD1d.s 			page 323


 15613              	.LASF139:
 15614 03ef 73746570 		.ascii	"step_correction_loop_x\000"
 15614      5F636F72 
 15614      72656374 
 15614      696F6E5F 
 15614      6C6F6F70 
 15615              	.LASF140:
 15616 0406 73746570 		.ascii	"step_correction_loop_y\000"
 15616      5F636F72 
 15616      72656374 
 15616      696F6E5F 
 15616      6C6F6F70 
 15617              	.LASF26:
 15618 041d 76616C75 		.ascii	"value\000"
 15618      6500
 15619              	.LASF89:
 15620 0423 76656C6F 		.ascii	"velocity\000"
 15620      63697479 
 15620      00
 15621              	.LASF57:
 15622 042c 52656164 		.ascii	"Read_32bitSPI_DATA\000"
 15622      5F333262 
 15622      69745350 
 15622      495F4441 
 15622      544100
 15623              	.LASF11:
 15624 043f 756E7369 		.ascii	"unsigned int\000"
 15624      676E6564 
 15624      20696E74 
 15624      00
 15625              	.LASF183:
 15626 044c 5350494D 		.ascii	"SPIM_WriteTxData\000"
 15626      5F577269 
 15626      74655478 
 15626      44617461 
 15626      00
 15627              	.LASF53:
 15628 045d 5350495F 		.ascii	"SPI_MOTOR_CHIP_SELECT\000"
 15628      4D4F544F 
 15628      525F4348 
 15628      49505F53 
 15628      454C4543 
 15629              	.LASF51:
 15630 0473 646F6E74 		.ascii	"dont_Execute_1st_Time\000"
 15630      5F457865 
 15630      63757465 
 15630      5F317374 
 15630      5F54696D 
 15631              	.LASF106:
 15632 0489 636F6D6D 		.ascii	"command\000"
 15632      616E6400 
 15633              	.LASF45:
 15634 0491 7365745F 		.ascii	"set_BarcodeCondenser_LED\000"
 15634      42617263 
 15634      6F646543 
 15634      6F6E6465 
 15634      6E736572 
ARM GAS  C:\Users\Revanth\AppData\Local\Temp\ccSEzD1d.s 			page 324


 15635              	.LASF93:
 15636 04aa 686F6D65 		.ascii	"homeT\000"
 15636      5400
 15637              	.LASF8:
 15638 04b0 6C6F6E67 		.ascii	"long unsigned int\000"
 15638      20756E73 
 15638      69676E65 
 15638      6420696E 
 15638      7400
 15639              	.LASF90:
 15640 04c2 686F6D65 		.ascii	"homeX\000"
 15640      5800
 15641              	.LASF91:
 15642 04c8 686F6D65 		.ascii	"homeY\000"
 15642      5900
 15643              	.LASF92:
 15644 04ce 686F6D65 		.ascii	"homeZ\000"
 15644      5A00
 15645              	.LASF59:
 15646 04d4 6D6F746F 		.ascii	"motor_status\000"
 15646      725F7374 
 15646      61747573 
 15646      00
 15647              	.LASF186:
 15648 04e1 50696E5F 		.ascii	"Pin_CSMotorZ_Write\000"
 15648      43534D6F 
 15648      746F725A 
 15648      5F577269 
 15648      746500
 15649              	.LASF114:
 15650 04f4 496E7075 		.ascii	"Input_position_T\000"
 15650      745F706F 
 15650      73697469 
 15650      6F6E5F54 
 15650      00
 15651              	.LASF52:
 15652 0505 64617461 		.ascii	"data\000"
 15652      00
 15653              	.LASF3:
 15654 050a 73686F72 		.ascii	"short unsigned int\000"
 15654      7420756E 
 15654      7369676E 
 15654      65642069 
 15654      6E7400
 15655              	.LASF47:
 15656 051d 55415254 		.ascii	"UART_print_all_values\000"
 15656      5F707269 
 15656      6E745F61 
 15656      6C6C5F76 
 15656      616C7565 
 15657              	.LASF112:
 15658 0533 496E7075 		.ascii	"Input_position_Y\000"
 15658      745F706F 
 15658      73697469 
 15658      6F6E5F59 
 15658      00
 15659              	.LASF22:
ARM GAS  C:\Users\Revanth\AppData\Local\Temp\ccSEzD1d.s 			page 325


 15660 0544 696E7438 		.ascii	"int8\000"
 15660      00
 15661              	.LASF165:
 15662 0549 51756164 		.ascii	"QuadDec_TZ_Start\000"
 15662      4465635F 
 15662      545A5F53 
 15662      74617274 
 15662      00
 15663              	.LASF198:
 15664 055a 5553425F 		.ascii	"USB_Detect_Indication_Via_LED\000"
 15664      44657465 
 15664      63745F49 
 15664      6E646963 
 15664      6174696F 
 15665              	.LASF145:
 15666 0578 486F6D65 		.ascii	"HomeT_done\000"
 15666      545F646F 
 15666      6E6500
 15667              	.LASF177:
 15668 0583 5553425F 		.ascii	"USB_Start\000"
 15668      53746172 
 15668      7400
 15669              	.LASF30:
 15670 058d 496E6974 		.ascii	"Initialize_And_Start_All_Opt_Encoder\000"
 15670      69616C69 
 15670      7A655F41 
 15670      6E645F53 
 15670      74617274 
 15671              	.LASF38:
 15672 05b2 42656570 		.ascii	"Beep_Twice\000"
 15672      5F547769 
 15672      636500
 15673              	.LASF83:
 15674 05bd 53746570 		.ascii	"Step_correction_t\000"
 15674      5F636F72 
 15674      72656374 
 15674      696F6E5F 
 15674      7400
 15675              	.LASF148:
 15676 05cf 42756666 		.ascii	"Buffer_T_QuadPosition\000"
 15676      65725F54 
 15676      5F517561 
 15676      64506F73 
 15676      6974696F 
 15677              	.LASF85:
 15678 05e5 676F546F 		.ascii	"goTo_T\000"
 15678      5F5400
 15679              	.LASF73:
 15680 05ec 676F546F 		.ascii	"goTo_X\000"
 15680      5F5800
 15681              	.LASF77:
 15682 05f3 676F546F 		.ascii	"goTo_Y\000"
 15682      5F5900
 15683              	.LASF81:
 15684 05fa 676F546F 		.ascii	"goTo_Z\000"
 15684      5F5A00
 15685              	.LASF171:
ARM GAS  C:\Users\Revanth\AppData\Local\Temp\ccSEzD1d.s 			page 326


 15686 0601 5553425F 		.ascii	"USB_GetAll\000"
 15686      47657441 
 15686      6C6C00
 15687              	.LASF24:
 15688 060c 5365745F 		.ascii	"Set_Backlight_LED\000"
 15688      4261636B 
 15688      6C696768 
 15688      745F4C45 
 15688      4400
 15689              	.LASF32:
 15690 061e 436C6561 		.ascii	"Clear_USB_RX_Buffer\000"
 15690      725F5553 
 15690      425F5258 
 15690      5F427566 
 15690      66657200 
 15691              	.LASF160:
 15692 0632 50574D5F 		.ascii	"PWM_Buzzer_WriteCompare\000"
 15692      42757A7A 
 15692      65725F57 
 15692      72697465 
 15692      436F6D70 
 15693              	.LASF54:
 15694 064a 4D6F746F 		.ascii	"Motor\000"
 15694      7200
 15695              	.LASF41:
 15696 0650 4572726F 		.ascii	"Error\000"
 15696      7200
 15697              	.LASF25:
 15698 0656 456E6162 		.ascii	"Enable_Encoder_T\000"
 15698      6C655F45 
 15698      6E636F64 
 15698      65725F54 
 15698      00
 15699              	.LASF192:
 15700 0667 51756164 		.ascii	"QuadDec_X_SetCounter\000"
 15700      4465635F 
 15700      585F5365 
 15700      74436F75 
 15700      6E746572 
 15701              	.LASF28:
 15702 067c 456E6162 		.ascii	"Enable_Encoder_Z\000"
 15702      6C655F45 
 15702      6E636F64 
 15702      65725F5A 
 15702      00
 15703              	.LASF16:
 15704 068d 73697A65 		.ascii	"sizetype\000"
 15704      74797065 
 15704      00
 15705              	.LASF37:
 15706 0696 42656570 		.ascii	"Beep_Once\000"
 15706      5F4F6E63 
 15706      6500
 15707              	.LASF15:
 15708 06a0 6C6F6E67 		.ascii	"long double\000"
 15708      20646F75 
 15708      626C6500 
ARM GAS  C:\Users\Revanth\AppData\Local\Temp\ccSEzD1d.s 			page 327


 15709              	.LASF163:
 15710 06ac 51756164 		.ascii	"QuadDec_TZ_SetCounter\000"
 15710      4465635F 
 15710      545A5F53 
 15710      6574436F 
 15710      756E7465 
 15711              	.LASF117:
 15712 06c2 506F7369 		.ascii	"Position_Z_Move\000"
 15712      74696F6E 
 15712      5F5A5F4D 
 15712      6F766500 
 15713              	.LASF129:
 15714 06d2 595F5175 		.ascii	"Y_QuadPosition\000"
 15714      6164506F 
 15714      73697469 
 15714      6F6E00
 15715              	.LASF39:
 15716 06e1 4C6F6E67 		.ascii	"Long_Beep\000"
 15716      5F426565 
 15716      7000
 15717              	.LASF76:
 15718 06eb 456E636F 		.ascii	"Encoder_Position_Y_Requested\000"
 15718      6465725F 
 15718      506F7369 
 15718      74696F6E 
 15718      5F595F52 
 15719              	.LASF66:
 15720 0708 57616974 		.ascii	"WaitTillPositionReached\000"
 15720      54696C6C 
 15720      506F7369 
 15720      74696F6E 
 15720      52656163 
 15721              	.LASF103:
 15722 0720 5553425F 		.ascii	"USB_received\000"
 15722      72656365 
 15722      69766564 
 15722      00
 15723              	.LASF136:
 15724 072d 4D6F746F 		.ascii	"Motor_Speed_X\000"
 15724      725F5370 
 15724      6565645F 
 15724      5800
 15725              	.LASF137:
 15726 073b 4D6F746F 		.ascii	"Motor_Speed_Y\000"
 15726      725F5370 
 15726      6565645F 
 15726      5900
 15727              	.LASF138:
 15728 0749 4D6F746F 		.ascii	"Motor_Speed_Z\000"
 15728      725F5370 
 15728      6565645F 
 15728      5A00
 15729              	.LASF167:
 15730 0757 51756164 		.ascii	"QuadDec_X_Start\000"
 15730      4465635F 
 15730      585F5374 
 15730      61727400 
ARM GAS  C:\Users\Revanth\AppData\Local\Temp\ccSEzD1d.s 			page 328


 15731              	.LASF64:
 15732 0767 4973506F 		.ascii	"IsPositionReached\000"
 15732      73697469 
 15732      6F6E5265 
 15732      61636865 
 15732      6400
 15733              	.LASF99:
 15734 0779 50726F63 		.ascii	"Process_USB_Data\000"
 15734      6573735F 
 15734      5553425F 
 15734      44617461 
 15734      00
 15735              	.LASF131:
 15736 078a 545F5175 		.ascii	"T_QuadPosition\000"
 15736      6164506F 
 15736      73697469 
 15736      6F6E00
 15737              	.LASF95:
 15738 0799 61636365 		.ascii	"accelaration\000"
 15738      6C617261 
 15738      74696F6E 
 15738      00
 15739              	.LASF178:
 15740 07a6 5553425F 		.ascii	"USB_GetConfiguration\000"
 15740      47657443 
 15740      6F6E6669 
 15740      67757261 
 15740      74696F6E 
 15741              	.LASF189:
 15742 07bb 5350494D 		.ascii	"SPIM_ReadRxData\000"
 15742      5F526561 
 15742      64527844 
 15742      61746100 
 15743              	.LASF128:
 15744 07cb 585F5175 		.ascii	"X_QuadPosition\000"
 15744      6164506F 
 15744      73697469 
 15744      6F6E00
 15745              	.LASF96:
 15746 07da 72756E5F 		.ascii	"run_pump\000"
 15746      70756D70 
 15746      00
 15747              	.LASF176:
 15748 07e3 5553425F 		.ascii	"USB_PutData\000"
 15748      50757444 
 15748      61746100 
 15749              	.LASF49:
 15750 07ef 5F426F6F 		.ascii	"_Bool\000"
 15750      6C00
 15751              	.LASF13:
 15752 07f5 696E7433 		.ascii	"int32_t\000"
 15752      325F7400 
 15753              	.LASF1:
 15754 07fd 756E7369 		.ascii	"unsigned char\000"
 15754      676E6564 
 15754      20636861 
 15754      7200
ARM GAS  C:\Users\Revanth\AppData\Local\Temp\ccSEzD1d.s 			page 329


 15755              	.LASF80:
 15756 080b 456E636F 		.ascii	"Encoder_Position_Z_Requested\000"
 15756      6465725F 
 15756      506F7369 
 15756      74696F6E 
 15756      5F5A5F52 
 15757              	.LASF172:
 15758 0828 7374726E 		.ascii	"strncmp\000"
 15758      636D7000 
 15759              	.LASF149:
 15760 0830 50574D5F 		.ascii	"PWM_comare_value\000"
 15760      636F6D61 
 15760      72655F76 
 15760      616C7565 
 15760      00
 15761              	.LASF42:
 15762 0841 496E6974 		.ascii	"Initialize_USB\000"
 15762      69616C69 
 15762      7A655F55 
 15762      534200
 15763              	.LASF2:
 15764 0850 73686F72 		.ascii	"short int\000"
 15764      7420696E 
 15764      7400
 15765              	.LASF180:
 15766 085a 5553425F 		.ascii	"USB_EnableSofInt\000"
 15766      456E6162 
 15766      6C65536F 
 15766      66496E74 
 15766      00
 15767              	.LASF134:
 15768 086b 4E6F5F6F 		.ascii	"No_of_Y_Cycle\000"
 15768      665F595F 
 15768      4379636C 
 15768      6500
 15769              	.LASF46:
 15770 0879 7365745F 		.ascii	"set_CondenserLED\000"
 15770      436F6E64 
 15770      656E7365 
 15770      724C4544 
 15770      00
 15771              	.LASF40:
 15772 088a 53656E64 		.ascii	"Send_Feedback_to_USB\000"
 15772      5F466565 
 15772      64626163 
 15772      6B5F746F 
 15772      5F555342 
 15773              	.LASF104:
 15774 089f 5553425F 		.ascii	"USB_transmit\000"
 15774      7472616E 
 15774      736D6974 
 15774      00
 15775              	.LASF86:
 15776 08ac 506F7369 		.ascii	"Position_T_Requested\000"
 15776      74696F6E 
 15776      5F545F52 
 15776      65717565 
ARM GAS  C:\Users\Revanth\AppData\Local\Temp\ccSEzD1d.s 			page 330


 15776      73746564 
 15777              	.LASF195:
 15778 08c1 474E5520 		.ascii	"GNU C11 5.4.1 20160609 (release) [ARM/embedded-5-br"
 15778      43313120 
 15778      352E342E 
 15778      31203230 
 15778      31363036 
 15779 08f4 616E6368 		.ascii	"anch revision 237715] -mcpu=cortex-m3 -mthumb -g -O"
 15779      20726576 
 15779      6973696F 
 15779      6E203233 
 15779      37373135 
 15780 0927 67202D66 		.ascii	"g -ffunction-sections -ffat-lto-objects\000"
 15780      66756E63 
 15780      74696F6E 
 15780      2D736563 
 15780      74696F6E 
 15781              	.LASF151:
 15782 094f 7370695F 		.ascii	"spi_read_value\000"
 15782      72656164 
 15782      5F76616C 
 15782      756500
 15783              	.LASF159:
 15784 095e 50574D5F 		.ascii	"PWM_Buzzer_Start\000"
 15784      42757A7A 
 15784      65725F53 
 15784      74617274 
 15784      00
 15785              	.LASF84:
 15786 096f 456E636F 		.ascii	"Encoder_Position_T_Requested\000"
 15786      6465725F 
 15786      506F7369 
 15786      74696F6E 
 15786      5F545F52 
 15787              	.LASF14:
 15788 098c 75696E74 		.ascii	"uint32_t\000"
 15788      33325F74 
 15788      00
 15789              	.LASF62:
 15790 0995 476F746F 		.ascii	"GotoPos\000"
 15790      506F7300 
 15791              	.LASF120:
 15792 099d 7375625F 		.ascii	"sub_step_multiplier\000"
 15792      73746570 
 15792      5F6D756C 
 15792      7469706C 
 15792      69657200 
 15793              	.LASF19:
 15794 09b1 666C6F61 		.ascii	"float\000"
 15794      7400
 15795              	.LASF17:
 15796 09b7 63686172 		.ascii	"char\000"
 15796      00
 15797              	.LASF123:
 15798 09bc 70697463 		.ascii	"pitch_factor_XY\000"
 15798      685F6661 
 15798      63746F72 
ARM GAS  C:\Users\Revanth\AppData\Local\Temp\ccSEzD1d.s 			page 331


 15798      5F585900 
 15799              	.LASF72:
 15800 09cc 656E636F 		.ascii	"encoder_error_value\000"
 15800      6465725F 
 15800      6572726F 
 15800      725F7661 
 15800      6C756500 
 15801              	.LASF142:
 15802 09e0 486F6D65 		.ascii	"HomeX_done\000"
 15802      585F646F 
 15802      6E6500
 15803              	.LASF168:
 15804 09eb 51756164 		.ascii	"QuadDec_TZ_GetCounter\000"
 15804      4465635F 
 15804      545A5F47 
 15804      6574436F 
 15804      756E7465 
 15805              	.LASF164:
 15806 0a01 456E636F 		.ascii	"Encoder_T_Z_Select_Write\000"
 15806      6465725F 
 15806      545F5A5F 
 15806      53656C65 
 15806      63745F57 
 15807              	.LASF74:
 15808 0a1a 506F7369 		.ascii	"Position_X_Requested\000"
 15808      74696F6E 
 15808      5F585F52 
 15808      65717565 
 15808      73746564 
 15809              	.LASF5:
 15810 0a2f 5F5F696E 		.ascii	"__int32_t\000"
 15810      7433325F 
 15810      7400
 15811              	.LASF71:
 15812 0a39 6E65775F 		.ascii	"new_step\000"
 15812      73746570 
 15812      00
 15813              	.LASF69:
 15814 0a42 456E636F 		.ascii	"Encoder_Position_X_Requested\000"
 15814      6465725F 
 15814      506F7369 
 15814      74696F6E 
 15814      5F585F52 
 15815              	.LASF122:
 15816 0a5f 6E65775F 		.ascii	"new_pitch\000"
 15816      70697463 
 15816      6800
 15817              	.LASF35:
 15818 0a69 57726974 		.ascii	"Write_Debug_UART_Char\000"
 15818      655F4465 
 15818      6275675F 
 15818      55415254 
 15818      5F436861 
 15819              	.LASF101:
 15820 0a7f 49735F53 		.ascii	"Is_Slide_On_Gripper\000"
 15820      6C696465 
 15820      5F4F6E5F 
ARM GAS  C:\Users\Revanth\AppData\Local\Temp\ccSEzD1d.s 			page 332


 15820      47726970 
 15820      70657200 
 15821              	.LASF169:
 15822 0a93 51756164 		.ascii	"QuadDec_X_GetCounter\000"
 15822      4465635F 
 15822      585F4765 
 15822      74436F75 
 15822      6E746572 
 15823              	.LASF121:
 15824 0aa8 6F6C645F 		.ascii	"old_pitch\000"
 15824      70697463 
 15824      6800
 15825              	.LASF184:
 15826 0ab2 50696E5F 		.ascii	"Pin_CSMotorX_Write\000"
 15826      43534D6F 
 15826      746F7258 
 15826      5F577269 
 15826      746500
 15827              	.LASF185:
 15828 0ac5 50696E5F 		.ascii	"Pin_CSMotorY_Write\000"
 15828      43534D6F 
 15828      746F7259 
 15828      5F577269 
 15828      746500
 15829              	.LASF193:
 15830 0ad8 51756164 		.ascii	"QuadDec_Y_SetCounter\000"
 15830      4465635F 
 15830      595F5365 
 15830      74436F75 
 15830      6E746572 
 15831              	.LASF155:
 15832 0aed 50574D5F 		.ascii	"PWM_CondenserLED_Start\000"
 15832      436F6E64 
 15832      656E7365 
 15832      724C4544 
 15832      5F537461 
 15833              	.LASF60:
 15834 0b04 5350495F 		.ascii	"SPI_DATA_VALUE\000"
 15834      44415441 
 15834      5F56414C 
 15834      554500
 15835              	.LASF65:
 15836 0b13 73746174 		.ascii	"status\000"
 15836      757300
 15837              	.LASF34:
 15838 0b1a 5553425F 		.ascii	"USB_received_temp\000"
 15838      72656365 
 15838      69766564 
 15838      5F74656D 
 15838      7000
 15839              	.LASF55:
 15840 0b2c 56616C75 		.ascii	"Value\000"
 15840      6500
 15841              	.LASF48:
 15842 0b32 69665F61 		.ascii	"if_all_homing_done\000"
 15842      6C6C5F68 
 15842      6F6D696E 
ARM GAS  C:\Users\Revanth\AppData\Local\Temp\ccSEzD1d.s 			page 333


 15842      675F646F 
 15842      6E6500
 15843              	.LASF190:
 15844 0b45 4C454433 		.ascii	"LED3_Write\000"
 15844      5F577269 
 15844      746500
 15845              	.LASF33:
 15846 0b50 436C6561 		.ascii	"Clear_Pending_USB_Data\000"
 15846      725F5065 
 15846      6E64696E 
 15846      675F5553 
 15846      425F4461 
 15847              	.LASF12:
 15848 0b67 75696E74 		.ascii	"uint8_t\000"
 15848      385F7400 
 15849              	.LASF124:
 15850 0b6f 70697463 		.ascii	"pitch_factor_Z\000"
 15850      685F6661 
 15850      63746F72 
 15850      5F5A00
 15851              	.LASF125:
 15852 0b7e 70697463 		.ascii	"pitch_factor_T\000"
 15852      685F6661 
 15852      63746F72 
 15852      5F5400
 15853              	.LASF141:
 15854 0b8d 73746570 		.ascii	"step_correction_loop_z\000"
 15854      5F636F72 
 15854      72656374 
 15854      696F6E5F 
 15854      6C6F6F70 
 15855              	.LASF119:
 15856 0ba4 6E65775F 		.ascii	"new_cpr\000"
 15856      63707200 
 15857              	.LASF162:
 15858 0bac 50696E5F 		.ascii	"Pin_Backlight_Write\000"
 15858      4261636B 
 15858      6C696768 
 15858      745F5772 
 15858      69746500 
 15859              	.LASF68:
 15860 0bc0 53746570 		.ascii	"Step_correction_x\000"
 15860      5F636F72 
 15860      72656374 
 15860      696F6E5F 
 15860      7800
 15861              	.LASF75:
 15862 0bd2 53746570 		.ascii	"Step_correction_y\000"
 15862      5F636F72 
 15862      72656374 
 15862      696F6E5F 
 15862      7900
 15863              	.LASF79:
 15864 0be4 53746570 		.ascii	"Step_correction_z\000"
 15864      5F636F72 
 15864      72656374 
 15864      696F6E5F 
ARM GAS  C:\Users\Revanth\AppData\Local\Temp\ccSEzD1d.s 			page 334


 15864      7A00
 15865              	.LASF43:
 15866 0bf6 57726974 		.ascii	"Write_Debug_UART_Int\000"
 15866      655F4465 
 15866      6275675F 
 15866      55415254 
 15866      5F496E74 
 15867              	.LASF150:
 15868 0c0b 50574D5F 		.ascii	"PWM_barcode_comare_value\000"
 15868      62617263 
 15868      6F64655F 
 15868      636F6D61 
 15868      72655F76 
 15869              	.LASF118:
 15870 0c24 6F6C645F 		.ascii	"old_cpr\000"
 15870      63707200 
 15871              	.LASF27:
 15872 0c2c 73746570 		.ascii	"steps\000"
 15872      7300
 15873              	.LASF115:
 15874 0c32 506F7369 		.ascii	"Position_X_Move\000"
 15874      74696F6E 
 15874      5F585F4D 
 15874      6F766500 
 15875              	.LASF187:
 15876 0c42 50696E5F 		.ascii	"Pin_CSMotorT_Write\000"
 15876      43534D6F 
 15876      746F7254 
 15876      5F577269 
 15876      746500
 15877              	.LASF82:
 15878 0c55 506F7369 		.ascii	"Position_Z_Requested\000"
 15878      74696F6E 
 15878      5F5A5F52 
 15878      65717565 
 15878      73746564 
 15879              		.ident	"GCC: (GNU Tools for ARM Embedded Processors) 5.4.1 20160609 (release) [ARM/embedded-5-bran
