ARM GAS  C:\Users\Revanth\AppData\Local\Temp\ccSEzD1d.s 			page 1


   1              		.syntax unified
   2              		.cpu cortex-m3
   3              		.fpu softvfp
   4              		.eabi_attribute 20, 1
   5              		.eabi_attribute 21, 1
   6              		.eabi_attribute 23, 3
   7              		.eabi_attribute 24, 1
   8              		.eabi_attribute 25, 1
   9              		.eabi_attribute 26, 1
  10              		.eabi_attribute 30, 1
  11              		.eabi_attribute 34, 1
  12              		.eabi_attribute 18, 4
  13              		.thumb
  14              		.syntax unified
  15              		.file	"L6470.c"
  16              		.text
  17              	.Ltext0:
  18              		.cfi_sections	.debug_frame
  19              		.section	.text.Initialize_PWM,"ax",%progbits
  20              		.align	2
  21              		.global	Initialize_PWM
  22              		.thumb
  23              		.thumb_func
  24              		.type	Initialize_PWM, %function
  25              	Initialize_PWM:
  26              	.LFB79:
  27              		.file 1 "L6470.c"
   1:L6470.c       **** 
   2:L6470.c       **** /* ========================================
   3:L6470.c       **** 
   4:L6470.c       ****    Copyright Sigtuple, 2022
   5:L6470.c       ****    All Rights Reserved
   6:L6470.c       ****    UNPUBLISHED, LICENSED SOFTWARE.
   7:L6470.c       **** 
   8:L6470.c       ****    CONFIDENTIAL AND PROPRIETARY INFORMATION
   9:L6470.c       ****    WHICH IS THE PROPERTY OF SIGTUPLE.
  10:L6470.c       **** 
  11:L6470.c       ****    ========================================
  12:L6470.c       **** */
  13:L6470.c       **** #include "L6470.h"
  14:L6470.c       **** #include "variables.h"
  15:L6470.c       **** #include "project.h"
  16:L6470.c       **** #include "math.h"
  17:L6470.c       **** #include "configuration.h"
  18:L6470.c       **** #include <stdlib.h>
  19:L6470.c       **** 
  20:L6470.c       **** bool Time_Out_Error = true;
  21:L6470.c       **** unsigned int command;
  22:L6470.c       **** 
  23:L6470.c       **** 
  24:L6470.c       **** int Error = 0;
  25:L6470.c       **** 
  26:L6470.c       **** 
  27:L6470.c       **** int errorX=0;
  28:L6470.c       **** int errorY=0;
  29:L6470.c       **** int errorZ=0;
  30:L6470.c       **** int errorT=0;
ARM GAS  C:\Users\Revanth\AppData\Local\Temp\ccSEzD1d.s 			page 2


  31:L6470.c       **** 
  32:L6470.c       **** int32 Input_position_X = 0;
  33:L6470.c       **** int32 Input_position_Y = 0;
  34:L6470.c       **** int32 Input_position_Z = 0;
  35:L6470.c       **** int32 Input_position_T = 0;
  36:L6470.c       **** int32 Position_Y_Requested = 0;
  37:L6470.c       **** int32 Position_X_Requested = 0;
  38:L6470.c       **** int32 Position_Z_Requested = 0;
  39:L6470.c       **** int32 Position_T_Requested = 0;
  40:L6470.c       **** 
  41:L6470.c       **** 
  42:L6470.c       **** int32 Position_X_Move = 0;
  43:L6470.c       **** int32 Position_Y_Move = 0;
  44:L6470.c       **** int32 Position_Z_Move = 0;
  45:L6470.c       **** 
  46:L6470.c       **** 
  47:L6470.c       **** int old_cpr = 16000;
  48:L6470.c       **** int new_cpr = 4000;
  49:L6470.c       **** int sub_step_multiplier = 0; 
  50:L6470.c       **** 
  51:L6470.c       **** int old_pitch = 4; //4mm
  52:L6470.c       **** int new_pitch = 8; //8mm
  53:L6470.c       **** int pitch_factor_XY = 0;
  54:L6470.c       **** float pitch_factor_Z = 2.54;
  55:L6470.c       **** float pitch_factor_T = 2.54;
  56:L6470.c       **** int fact_z = 0;
  57:L6470.c       **** int fact_t = 0;
  58:L6470.c       **** 
  59:L6470.c       **** volatile int32 X_QuadPosition = 0;
  60:L6470.c       **** volatile int32 Y_QuadPosition = 0;
  61:L6470.c       **** volatile int32 Z_QuadPosition = 0;
  62:L6470.c       **** volatile int32 T_QuadPosition = 0;
  63:L6470.c       **** float Z_Rectification = 0.635;
  64:L6470.c       **** int No_of_X_Cycle=0;
  65:L6470.c       **** int No_of_Y_Cycle=0;
  66:L6470.c       **** int No_of_Z_Cycle=0;
  67:L6470.c       **** unsigned int Motor_Speed_X = 350;//Default_X_Motor_Speed;
  68:L6470.c       **** unsigned int Motor_Speed_Y = 300;//Default_Y_Motor_Speed;
  69:L6470.c       **** unsigned int Motor_Speed_Z = Default_Z_Motor_Speed;
  70:L6470.c       **** int step_correction_loop_x = No_of_Execution_GoToX;
  71:L6470.c       **** int step_correction_loop_y = No_of_Execution_GoToY;
  72:L6470.c       **** int step_correction_loop_z = No_of_Execution_GoToZ;
  73:L6470.c       **** bool HomeX_done = true;
  74:L6470.c       **** bool HomeY_done = true;
  75:L6470.c       **** bool HomeZ_done = true;
  76:L6470.c       **** bool HomeT_done = true;
  77:L6470.c       **** int EncoderTZSelect = 0;
  78:L6470.c       **** int Buffer_Z_QuadPosition = 0;
  79:L6470.c       **** int Buffer_T_QuadPosition = 0;
  80:L6470.c       **** int PWM_comare_value = 0;
  81:L6470.c       **** int PWM_barcode_comare_value = 0;
  82:L6470.c       **** int spi_read_value =0;
  83:L6470.c       **** extern uint8_t SPI_STATUS_VALUE1;
  84:L6470.c       **** extern uint8_t status_x;
  85:L6470.c       **** extern uint8_t status_y;
  86:L6470.c       **** extern uint8_t status_z;
  87:L6470.c       **** extern uint8_t status_t;
ARM GAS  C:\Users\Revanth\AppData\Local\Temp\ccSEzD1d.s 			page 3


  88:L6470.c       **** 
  89:L6470.c       **** //Motor Movment Functions Start-------------------------------------------------------
  90:L6470.c       **** void GotoPos(int Pos, uint8_t Motor)
  91:L6470.c       **** {
  92:L6470.c       ****     Write_32bitSPI_DATA (0x20  , (int) 0x00000000, Motor );
  93:L6470.c       ****     Write_32bitSPI_DATA (0x05  , Pos, Motor );
  94:L6470.c       ****     Write_32bitSPI_DATA (0x2D  , Pos, Motor );   
  95:L6470.c       **** 
  96:L6470.c       **** }
  97:L6470.c       **** 
  98:L6470.c       **** ///////////////////////////////////////////////////////////////////////////////////////
  99:L6470.c       **** 
 100:L6470.c       **** /////////////////////////////////////Homing X//////////////////////////////////////////
 101:L6470.c       **** 
 102:L6470.c       **** void homeX(uint8_t Motor)
 103:L6470.c       **** {
 104:L6470.c       **** update_max_velocity(51200, Motor);
 105:L6470.c       **** Write_32bitSPI_DATA (0x20  , (int) 0x00000002, Motor );
 106:L6470.c       **** CyDelayUs(200);
 107:L6470.c       **** Read_32bitSPI_DATA(0x04, Motor, &status_y);
 108:L6470.c       **** CyDelayUs(500);
 109:L6470.c       **** Read_32bitSPI_DATA(0x04, Motor, &status_y);
 110:L6470.c       **** while ( (status_y & 0x40) == 0x00)
 111:L6470.c       **** {
 112:L6470.c       ****    Read_32bitSPI_DATA(0x04, Motor, &status_y);
 113:L6470.c       ****    CyDelayUs(100);
 114:L6470.c       **** }
 115:L6470.c       **** Write_32bitSPI_DATA (0x21  , (int) 0x0000000, Motor);
 116:L6470.c       **** CyDelayUs(10);
 117:L6470.c       **** GotoPos(((256*200)*2), Motor);
 118:L6470.c       **** CyDelayUs(500);
 119:L6470.c       **** Read_32bitSPI_DATA(0x04, Motor, &status_x);
 120:L6470.c       **** CyDelayUs(500);
 121:L6470.c       **** Read_32bitSPI_DATA(0x04, Motor, &status_x);
 122:L6470.c       **** while ( (status_x & 0x20) == 0x00)
 123:L6470.c       **** {
 124:L6470.c       ****    Read_32bitSPI_DATA(0x04, Motor, &status_x);
 125:L6470.c       ****     CyDelayUs(100);
 126:L6470.c       ****    
 127:L6470.c       **** }
 128:L6470.c       **** update_max_velocity(51200, Motor);
 129:L6470.c       **** Write_32bitSPI_DATA (0x20  , (int) 0x00000002, Motor );
 130:L6470.c       **** CyDelayUs(200);
 131:L6470.c       **** Read_32bitSPI_DATA(0x04, Motor, &status_y);
 132:L6470.c       **** CyDelayUs(500);
 133:L6470.c       **** Read_32bitSPI_DATA(0x04, Motor, &status_y);
 134:L6470.c       **** while ( (status_y & 0x40) == 0x00)
 135:L6470.c       **** {
 136:L6470.c       ****    Read_32bitSPI_DATA(0x04, Motor, &status_y);
 137:L6470.c       ****    CyDelayUs(100);
 138:L6470.c       **** }
 139:L6470.c       **** 
 140:L6470.c       **** Write_32bitSPI_DATA (0x21  , (int) 0x0000000, TMC5160_nCS_MotorX);
 141:L6470.c       **** //X_last_position = 0;
 142:L6470.c       **** QuadDec_X_SetCounter(0);
 143:L6470.c       **** CyDelayUs(100);
 144:L6470.c       **** goTo_X((256*200)*1);
ARM GAS  C:\Users\Revanth\AppData\Local\Temp\ccSEzD1d.s 			page 4


 145:L6470.c       **** HomeX_done = false;
 146:L6470.c       **** CyDelayUs(100);
 147:L6470.c       **** Write_32bitSPI_DATA (0x21  , (int) 0x0000000, Motor); 
 148:L6470.c       **** Write_32bitSPI_DATA (0x2D  , 0x00000000, Motor );
 149:L6470.c       **** update_max_velocity(0x0007A5C3, Motor);
 150:L6470.c       **** 
 151:L6470.c       **** //X_last_position = 0;
 152:L6470.c       **** QuadDec_X_SetCounter(0);
 153:L6470.c       **** X_QuadPosition =0 ;
 154:L6470.c       **** HomeX_done = true;
 155:L6470.c       **** Write_Debug_UART_Char("HomeX executed  \r\n");
 156:L6470.c       **** ////
 157:L6470.c       **** }
 158:L6470.c       **** 
 159:L6470.c       **** ///////////////////////////////////////////////////////////////////////////////////////
 160:L6470.c       **** 
 161:L6470.c       **** /////////////////////////////////////Homing Y//////////////////////////////////////////
 162:L6470.c       **** 
 163:L6470.c       **** void homeY(uint8_t Motor)
 164:L6470.c       **** {
 165:L6470.c       **** update_max_velocity(51200, Motor);
 166:L6470.c       **** Write_32bitSPI_DATA (0x20  , (int) 0x00000002, Motor );
 167:L6470.c       **** CyDelayUs(50);
 168:L6470.c       **** Read_32bitSPI_DATA(0x04, Motor, &status_y);
 169:L6470.c       **** CyDelayUs(500);
 170:L6470.c       **** Read_32bitSPI_DATA(0x04, Motor, &status_y);
 171:L6470.c       **** while ( (status_y & 0x40) == 0x00)
 172:L6470.c       **** {
 173:L6470.c       ****    Read_32bitSPI_DATA(0x04, Motor, &status_y);
 174:L6470.c       ****    CyDelayUs(100);
 175:L6470.c       **** }
 176:L6470.c       **** Write_32bitSPI_DATA (0x21  , (int) 0x0000000, Motor);
 177:L6470.c       **** CyDelayUs(10);
 178:L6470.c       **** GotoPos(((256*200)*1), Motor);
 179:L6470.c       **** CyDelayUs(500);
 180:L6470.c       **** Read_32bitSPI_DATA(0x04, Motor, &status_y);
 181:L6470.c       **** CyDelayUs(500);
 182:L6470.c       **** Read_32bitSPI_DATA(0x04, Motor, &status_y);
 183:L6470.c       **** while ( (status_y & 0x20) == 0x00)
 184:L6470.c       **** {
 185:L6470.c       ****    Read_32bitSPI_DATA(0x04, Motor, &status_y);
 186:L6470.c       ****     CyDelayUs(100);
 187:L6470.c       ****    
 188:L6470.c       **** }
 189:L6470.c       **** update_max_velocity(51200, Motor);
 190:L6470.c       **** Write_32bitSPI_DATA (0x20  , (int) 0x00000002, Motor );
 191:L6470.c       **** CyDelayUs(200);
 192:L6470.c       **** Read_32bitSPI_DATA(0x04, Motor, &status_y);
 193:L6470.c       **** CyDelayUs(500);
 194:L6470.c       **** Read_32bitSPI_DATA(0x04, Motor, &status_y);
 195:L6470.c       **** while ( (status_y & 0x40) == 0x00)
 196:L6470.c       **** {
 197:L6470.c       ****    Read_32bitSPI_DATA(0x04, Motor, &status_y);
 198:L6470.c       ****    CyDelayUs(100);
 199:L6470.c       **** }
 200:L6470.c       **** 
 201:L6470.c       **** Write_32bitSPI_DATA (0x21  , (int) 0x0000000, Motor);
ARM GAS  C:\Users\Revanth\AppData\Local\Temp\ccSEzD1d.s 			page 5


 202:L6470.c       **** //Y_last_position = 0;
 203:L6470.c       **** QuadDec_Y_SetCounter(0);
 204:L6470.c       **** CyDelayUs(100);
 205:L6470.c       **** goTo_Y((256*200)*1);
 206:L6470.c       **** HomeY_done = false;
 207:L6470.c       **** CyDelayUs(100);
 208:L6470.c       **** Write_32bitSPI_DATA (0x21  , (int) 0x0000000, Motor); 
 209:L6470.c       **** Write_32bitSPI_DATA (0x2D  , 0x00000000, Motor );
 210:L6470.c       **** update_max_velocity(0x0007A5C3, Motor);
 211:L6470.c       **** 
 212:L6470.c       **** //Y_last_position = 0;
 213:L6470.c       **** QuadDec_Y_SetCounter(0);
 214:L6470.c       **** X_QuadPosition =0 ;
 215:L6470.c       **** HomeY_done = true;
 216:L6470.c       **** Write_Debug_UART_Char("HomeY executed  \r\n");
 217:L6470.c       **** 
 218:L6470.c       **** }
 219:L6470.c       **** 
 220:L6470.c       **** ////////////////////////////////////////////////////////////////////////////////////////////
 221:L6470.c       **** 
 222:L6470.c       **** //////////////////////////////////////////Homing Z//////////////////////////////////////////
 223:L6470.c       **** 
 224:L6470.c       **** void homeZ(uint8_t Motor)
 225:L6470.c       **** {
 226:L6470.c       **** update_max_velocity(102400, Motor);
 227:L6470.c       **** Enable_Encoder_Z(-Buffer_Z_QuadPosition);
 228:L6470.c       **** Write_32bitSPI_DATA (0x20  , (int) 0x00000002, Motor );
 229:L6470.c       **** CyDelayUs(50);
 230:L6470.c       **** Read_32bitSPI_DATA(0x04, Motor, &status_z);
 231:L6470.c       **** CyDelayUs(500);
 232:L6470.c       **** Read_32bitSPI_DATA(0x04, Motor, &status_z);
 233:L6470.c       **** while ( (status_z & 0x40) == 0x00)
 234:L6470.c       **** {
 235:L6470.c       ****    Read_32bitSPI_DATA(0x04, Motor, &status_z);
 236:L6470.c       ****    CyDelayUs(100);
 237:L6470.c       **** }
 238:L6470.c       **** Write_32bitSPI_DATA (0x21  , (int) 0x0000000, Motor);
 239:L6470.c       **** //Z_last_position = 0;
 240:L6470.c       **** Enable_Encoder_Z(0);
 241:L6470.c       **** Buffer_Z_QuadPosition=0;
 242:L6470.c       **** CyDelayUs(10);
 243:L6470.c       **** GotoPos(((256*200)*3), Motor);
 244:L6470.c       **** CyDelayUs(500);
 245:L6470.c       **** Read_32bitSPI_DATA(0x04, Motor, &status_z);
 246:L6470.c       **** CyDelayUs(500);
 247:L6470.c       **** Read_32bitSPI_DATA(0x04, Motor, &status_z);
 248:L6470.c       **** while ( (status_z & 0x20) == 0x00)
 249:L6470.c       **** {
 250:L6470.c       ****    Read_32bitSPI_DATA(0x04, Motor, &status_z);
 251:L6470.c       ****     CyDelayUs(100);
 252:L6470.c       ****    
 253:L6470.c       **** }
 254:L6470.c       **** update_max_velocity(102400, Motor);
 255:L6470.c       **** Write_32bitSPI_DATA (0x20  , (int) 0x00000002, Motor );
 256:L6470.c       **** CyDelayUs(200);
 257:L6470.c       **** Read_32bitSPI_DATA(0x04, Motor, &status_y);
 258:L6470.c       **** CyDelayUs(500);
ARM GAS  C:\Users\Revanth\AppData\Local\Temp\ccSEzD1d.s 			page 6


 259:L6470.c       **** Read_32bitSPI_DATA(0x04, Motor, &status_y);
 260:L6470.c       **** while ( (status_y & 0x40) == 0x00)
 261:L6470.c       **** {
 262:L6470.c       ****    Read_32bitSPI_DATA(0x04, Motor, &status_y);
 263:L6470.c       ****    CyDelayUs(100);
 264:L6470.c       **** }
 265:L6470.c       **** 
 266:L6470.c       **** Write_32bitSPI_DATA (0x21  , (int) 0x0000000, Motor);
 267:L6470.c       **** //Z_last_position = 0;
 268:L6470.c       **** Enable_Encoder_Z(0);
 269:L6470.c       **** Buffer_Z_QuadPosition=0;
 270:L6470.c       **** CyDelayUs(100);
 271:L6470.c       **** goTo_Z((256*200)*3);
 272:L6470.c       **** HomeZ_done = false;
 273:L6470.c       **** CyDelayUs(100);
 274:L6470.c       **** Write_32bitSPI_DATA (0x21  , (int) 0x0000000, Motor); 
 275:L6470.c       **** Write_32bitSPI_DATA (0x2D  , 0x00000000, Motor );
 276:L6470.c       **** update_max_velocity(0x0007A5C3, Motor);
 277:L6470.c       **** 
 278:L6470.c       **** //Z_last_position = 0;
 279:L6470.c       **** Enable_Encoder_Z(0);
 280:L6470.c       **** Buffer_Z_QuadPosition=0;
 281:L6470.c       **** HomeZ_done = true;
 282:L6470.c       **** Write_Debug_UART_Char("HomeZ executed  \r\n");
 283:L6470.c       **** 
 284:L6470.c       **** }
 285:L6470.c       **** 
 286:L6470.c       **** ///////////////////////////////////////////////////////////////////////////////////////
 287:L6470.c       **** 
 288:L6470.c       **** /////////////////////////////////////Homing T//////////////////////////////////////////
 289:L6470.c       **** 
 290:L6470.c       **** void homeT(uint8_t Motor)
 291:L6470.c       **** {
 292:L6470.c       **** update_max_velocity(51200, Motor);
 293:L6470.c       **** Enable_Encoder_T(-Buffer_T_QuadPosition);
 294:L6470.c       **** Write_32bitSPI_DATA (0x20  , (int) 0x00000002, Motor );
 295:L6470.c       **** CyDelayUs(50);
 296:L6470.c       **** Read_32bitSPI_DATA(0x04, Motor, &status_z);
 297:L6470.c       **** CyDelayUs(500);
 298:L6470.c       **** Read_32bitSPI_DATA(0x04, Motor, &status_z);
 299:L6470.c       **** while ( (status_z & 0x40) == 0x00)
 300:L6470.c       **** {
 301:L6470.c       ****    Read_32bitSPI_DATA(0x04, Motor, &status_z);
 302:L6470.c       ****    CyDelayUs(100);
 303:L6470.c       **** }
 304:L6470.c       **** Write_32bitSPI_DATA (0x21  , (int) 0x0000000, Motor);
 305:L6470.c       **** CyDelayUs(10);
 306:L6470.c       **** GotoPos(((256*200)*2), Motor);
 307:L6470.c       **** CyDelayUs(500);
 308:L6470.c       **** Read_32bitSPI_DATA(0x04, Motor, &status_z);
 309:L6470.c       **** CyDelayUs(500);
 310:L6470.c       **** Read_32bitSPI_DATA(0x04, Motor, &status_z);
 311:L6470.c       **** while ( (status_z & 0x20) == 0x00)
 312:L6470.c       **** {
 313:L6470.c       ****    Read_32bitSPI_DATA(0x04, Motor, &status_z);
 314:L6470.c       ****     CyDelayUs(100);
 315:L6470.c       ****    
ARM GAS  C:\Users\Revanth\AppData\Local\Temp\ccSEzD1d.s 			page 7


 316:L6470.c       **** }
 317:L6470.c       **** update_max_velocity(51200, Motor);
 318:L6470.c       **** Write_32bitSPI_DATA (0x20  , (int) 0x00000002, Motor );
 319:L6470.c       **** CyDelayUs(200);
 320:L6470.c       **** Read_32bitSPI_DATA(0x04, Motor, &status_y);
 321:L6470.c       **** CyDelayUs(500);
 322:L6470.c       **** Read_32bitSPI_DATA(0x04, Motor, &status_y);
 323:L6470.c       **** while ( (status_y & 0x40) == 0x00)
 324:L6470.c       **** {
 325:L6470.c       ****    Read_32bitSPI_DATA(0x04, Motor, &status_y);
 326:L6470.c       ****    CyDelayUs(100);
 327:L6470.c       **** }
 328:L6470.c       **** 
 329:L6470.c       **** Write_32bitSPI_DATA (0x21  , (int) 0x0000000, Motor);
 330:L6470.c       **** //T_last_position = 0;
 331:L6470.c       **** Enable_Encoder_T(0);
 332:L6470.c       **** Buffer_T_QuadPosition=0;
 333:L6470.c       **** CyDelayUs(100);
 334:L6470.c       **** goTo_T((256*200)*1);
 335:L6470.c       **** HomeT_done = false;
 336:L6470.c       **** CyDelayUs(100);
 337:L6470.c       **** Write_32bitSPI_DATA (0x21  , (int) 0x0000000, Motor); 
 338:L6470.c       **** Write_32bitSPI_DATA (0x2D  , 0x00000000, Motor );
 339:L6470.c       **** update_max_velocity(0x0007A5C3, Motor);
 340:L6470.c       **** 
 341:L6470.c       **** //T_last_position = 0;
 342:L6470.c       **** Enable_Encoder_T(0);
 343:L6470.c       **** Buffer_T_QuadPosition=0;
 344:L6470.c       **** HomeT_done = true;
 345:L6470.c       **** Write_Debug_UART_Char("HomeT executed  \r\n");
 346:L6470.c       **** }
 347:L6470.c       **** 
 348:L6470.c       **** ///////////////////////////////////////////////////////////////////////////////////////////////////
 349:L6470.c       **** /////////////////////////////////////Go to Position in X Axis//////////////////////////////////////
 350:L6470.c       **** 
 351:L6470.c       **** int goTo_X(int32 Position_X_Requested)
 352:L6470.c       **** {
 353:L6470.c       ****     
 354:L6470.c       ****     if(if_all_homing_done())
 355:L6470.c       ****     
 356:L6470.c       ****     {
 357:L6470.c       ****         //Position_X_Move = Position_X_Move + Position_X_Requested;
 358:L6470.c       ****         Error = 0;
 359:L6470.c       ****         Read_All_Optical_Encoder();
 360:L6470.c       ****         //X_last_position = X_QuadPosition;
 361:L6470.c       ****         Write_Debug_UART_Char("GotoX Command Recived--->");
 362:L6470.c       ****         GotoPos(Position_X_Requested, TMC5160_nCS_MotorX); // If provided value is position and not
 363:L6470.c       ****         WaitTillPositionReached (TMC5160_nCS_MotorX);
 364:L6470.c       ****         CyDelayUs(50);
 365:L6470.c       ****         //GotoPos(Position_X_Move, TMC5160_nCS_MotorX); // If provided value is steps to move and n
 366:L6470.c       ****         Write_Debug_UART_Int(Position_X_Requested);
 367:L6470.c       ****         Write_Debug_UART_Char("  \r\n");
 368:L6470.c       ****         Step_correction_x(Position_X_Requested);
 369:L6470.c       ****         return errorX;
 370:L6470.c       ****     }
 371:L6470.c       ****     else
 372:L6470.c       ****     {
ARM GAS  C:\Users\Revanth\AppData\Local\Temp\ccSEzD1d.s 			page 8


 373:L6470.c       ****         Write_Debug_UART_Char("Homing Not Done");
 374:L6470.c       ****         Error = All_Homing_Not_Done_Yet;
 375:L6470.c       ****         return Error;
 376:L6470.c       ****     }
 377:L6470.c       ****     
 378:L6470.c       **** }
 379:L6470.c       **** 
 380:L6470.c       **** int Step_correction_x(int32 steps)
 381:L6470.c       **** {  
 382:L6470.c       ****     int32 Encoder_Position_X_Requested =0;
 383:L6470.c       ****     uint8_t temp;
 384:L6470.c       ****     int32 new_step=0;
 385:L6470.c       ****     //int32 diff_encoder_value=0;
 386:L6470.c       ****     int32 encoder_error_value = 0;
 387:L6470.c       ****     Encoder_Position_X_Requested = steps/3.2;
 388:L6470.c       ****     
 389:L6470.c       ****     for(temp=0; temp<=5; temp++)
 390:L6470.c       ****     {
 391:L6470.c       ****     Read_All_Optical_Encoder();
 392:L6470.c       ****     //diff_encoder_value = (X_QuadPosition - X_last_position);
 393:L6470.c       ****     encoder_error_value = Encoder_Position_X_Requested - X_QuadPosition;
 394:L6470.c       ****     new_step= encoder_error_value*3.2;
 395:L6470.c       ****     
 396:L6470.c       ****     if((abs(encoder_error_value))>=3)
 397:L6470.c       ****     {
 398:L6470.c       ****       new_step = new_step+steps;     
 399:L6470.c       ****       GotoPos(new_step, TMC5160_nCS_MotorX);
 400:L6470.c       ****       WaitTillPositionReached (TMC5160_nCS_MotorX);
 401:L6470.c       ****       CyDelayUs(50);
 402:L6470.c       ****       Write_32bitSPI_DATA (0x21  , steps, TMC5160_nCS_MotorX );
 403:L6470.c       ****     }
 404:L6470.c       ****     }
 405:L6470.c       ****     Read_All_Optical_Encoder();
 406:L6470.c       ****     encoder_error_value = Encoder_Position_X_Requested - X_QuadPosition;
 407:L6470.c       ****     if((temp>5))
 408:L6470.c       ****     {
 409:L6470.c       ****      if(((abs(encoder_error_value))>=5) )
 410:L6470.c       ****      {
 411:L6470.c       ****         Write_Debug_UART_Char("Fail to reach X position \r\n");
 412:L6470.c       ****         LED3_Write(0xFF);
 413:L6470.c       ****         errorX=  1;
 414:L6470.c       ****      }
 415:L6470.c       ****     
 416:L6470.c       ****      else if ( ((abs(encoder_error_value))>4000))
 417:L6470.c       ****      {
 418:L6470.c       ****        Write_Debug_UART_Char("X Encoder or X Motor Might Not be Working \r\n");
 419:L6470.c       ****        errorX=  1;
 420:L6470.c       ****      }
 421:L6470.c       ****     
 422:L6470.c       ****      else
 423:L6470.c       ****      {
 424:L6470.c       ****         Write_Debug_UART_Char("X position Reached");
 425:L6470.c       ****         errorX = 0;
 426:L6470.c       ****         Write_32bitSPI_DATA (0x21  , steps, TMC5160_nCS_MotorX );
 427:L6470.c       ****         CyDelayUs(500);
 428:L6470.c       ****         
 429:L6470.c       ****      }
ARM GAS  C:\Users\Revanth\AppData\Local\Temp\ccSEzD1d.s 			page 9


 430:L6470.c       ****     
 431:L6470.c       ****     }
 432:L6470.c       ****     
 433:L6470.c       ****     return errorX;
 434:L6470.c       **** }
 435:L6470.c       **** 
 436:L6470.c       **** ///////////////////////////////////////////////////////////////////////////////////////////////////
 437:L6470.c       **** /////////////////////////////////////Go to Position in Y Axis//////////////////////////////////////
 438:L6470.c       **** 
 439:L6470.c       **** int goTo_Y(int32 Position_Y_Requested)
 440:L6470.c       **** {   
 441:L6470.c       ****     if(if_all_homing_done())
 442:L6470.c       ****     {
 443:L6470.c       ****         //Position_Y_Move = Position_Y_Move + Position_Y_Requested;
 444:L6470.c       ****         Error = 0;
 445:L6470.c       ****         Read_All_Optical_Encoder();
 446:L6470.c       ****         //Y_last_position = Y_QuadPosition;
 447:L6470.c       ****         Write_Debug_UART_Char("GotoX Command Recived--->");
 448:L6470.c       ****         GotoPos(Position_Y_Requested, TMC5160_nCS_MotorY); // If provided value is position and not
 449:L6470.c       ****         WaitTillPositionReached (TMC5160_nCS_MotorY);
 450:L6470.c       ****         CyDelayUs(50);
 451:L6470.c       ****         //GotoPos(Position_X_Move, TMC5160_nCS_MotorX); // If provided value is steps to move and n
 452:L6470.c       ****         Write_Debug_UART_Int(Position_Y_Requested);
 453:L6470.c       ****         Write_Debug_UART_Char("  \r\n");
 454:L6470.c       ****         Step_correction_y(Position_Y_Requested);
 455:L6470.c       ****         return errorY;
 456:L6470.c       ****     }
 457:L6470.c       ****     else
 458:L6470.c       ****     {
 459:L6470.c       ****         Write_Debug_UART_Char("Homing Not Done");
 460:L6470.c       ****         Error = All_Homing_Not_Done_Yet;
 461:L6470.c       ****         return Error;
 462:L6470.c       ****     }
 463:L6470.c       **** }
 464:L6470.c       **** 
 465:L6470.c       **** int Step_correction_y(int32 steps)
 466:L6470.c       **** {  
 467:L6470.c       ****     uint8_t temp=0;
 468:L6470.c       ****     int32 new_step=0;
 469:L6470.c       ****     int32 Encoder_Position_Y_Requested =0;
 470:L6470.c       ****     //int32 diff_encoder_value=0;
 471:L6470.c       ****     int32 encoder_error_value = 0;
 472:L6470.c       ****     Encoder_Position_Y_Requested = steps/3.2;
 473:L6470.c       ****     
 474:L6470.c       ****     for(temp=0; temp<=3; temp++)
 475:L6470.c       ****     {
 476:L6470.c       ****     Read_All_Optical_Encoder();
 477:L6470.c       ****     //diff_encoder_value = (X_QuadPosition - X_last_position);
 478:L6470.c       ****     encoder_error_value = Encoder_Position_Y_Requested - Y_QuadPosition;
 479:L6470.c       ****     new_step= encoder_error_value*3.2;
 480:L6470.c       ****     
 481:L6470.c       ****     if((abs(encoder_error_value))>=5)
 482:L6470.c       ****     {
 483:L6470.c       ****       new_step = new_step+steps;     
 484:L6470.c       ****       GotoPos(new_step, TMC5160_nCS_MotorY);
 485:L6470.c       ****       WaitTillPositionReached (TMC5160_nCS_MotorY);
 486:L6470.c       ****       CyDelayUs(50);
ARM GAS  C:\Users\Revanth\AppData\Local\Temp\ccSEzD1d.s 			page 10


 487:L6470.c       ****       Write_32bitSPI_DATA (0x21  , steps, TMC5160_nCS_MotorY );
 488:L6470.c       ****     }
 489:L6470.c       ****     
 490:L6470.c       ****     }
 491:L6470.c       ****     
 492:L6470.c       ****     
 493:L6470.c       ****     Read_All_Optical_Encoder();
 494:L6470.c       ****     encoder_error_value = Encoder_Position_Y_Requested - Y_QuadPosition;
 495:L6470.c       ****     
 496:L6470.c       ****     if(temp>=4)
 497:L6470.c       ****     {
 498:L6470.c       ****      if(((abs(encoder_error_value))>=5))
 499:L6470.c       ****      {
 500:L6470.c       ****         Write_Debug_UART_Char("Fail to reach Y position \r\n");
 501:L6470.c       ****         LED3_Write(0xFF);
 502:L6470.c       ****         errorY=  1;
 503:L6470.c       ****      }
 504:L6470.c       ****     
 505:L6470.c       ****      else if ( ((abs(encoder_error_value))>4000))
 506:L6470.c       ****      {
 507:L6470.c       ****        Write_Debug_UART_Char("Y Encoder or Y Motor Might Not be Working \r\n"); 
 508:L6470.c       ****      }
 509:L6470.c       ****     
 510:L6470.c       ****      else
 511:L6470.c       ****      {
 512:L6470.c       ****         Write_Debug_UART_Char("Y position Reached");
 513:L6470.c       ****         errorY = 0;
 514:L6470.c       ****         
 515:L6470.c       ****      }
 516:L6470.c       ****     
 517:L6470.c       ****     }
 518:L6470.c       ****     
 519:L6470.c       ****     return errorY;
 520:L6470.c       **** }
 521:L6470.c       **** 
 522:L6470.c       **** ///////////////////////////////////////////////////////////////////////////////////////////////////
 523:L6470.c       **** /////////////////////////////////////Go to Position in Z Axis//////////////////////////////////////
 524:L6470.c       **** 
 525:L6470.c       **** 
 526:L6470.c       **** int goTo_Z(int32 Position_Z_Requested)
 527:L6470.c       **** {
 528:L6470.c       ****     Enable_Encoder_Z(-Buffer_Z_QuadPosition);
 529:L6470.c       ****     if(if_all_homing_done())
 530:L6470.c       ****     {
 531:L6470.c       ****         Error = 0;
 532:L6470.c       ****         Read_All_Optical_Encoder();
 533:L6470.c       ****         //Z_last_position = Z_QuadPosition;
 534:L6470.c       ****         Write_Debug_UART_Char("GotoZ Command Recived--->");
 535:L6470.c       ****         GotoPos(Position_Z_Requested, TMC5160_nCS_MotorZ); // If provided value is position and not
 536:L6470.c       ****         WaitTillPositionReached (TMC5160_nCS_MotorZ);
 537:L6470.c       ****         CyDelayUs(50);
 538:L6470.c       ****         //GotoPos(Position_X_Move, TMC5160_nCS_MotorX); // If provided value is steps to move and n
 539:L6470.c       ****         Write_Debug_UART_Int(Position_Z_Requested);
 540:L6470.c       ****         Write_Debug_UART_Char("  \r\n");
 541:L6470.c       ****         Step_correction_z(Position_Z_Requested);
 542:L6470.c       ****         Read_All_Optical_Encoder();
 543:L6470.c       ****         Buffer_Z_QuadPosition = Z_QuadPosition;
ARM GAS  C:\Users\Revanth\AppData\Local\Temp\ccSEzD1d.s 			page 11


 544:L6470.c       ****         return errorZ;
 545:L6470.c       ****     }
 546:L6470.c       ****     else
 547:L6470.c       ****     {
 548:L6470.c       ****         Write_Debug_UART_Char("Homing Not Done");
 549:L6470.c       ****         Error = All_Homing_Not_Done_Yet;
 550:L6470.c       ****         return Error;
 551:L6470.c       ****     }
 552:L6470.c       **** 
 553:L6470.c       **** }
 554:L6470.c       **** 
 555:L6470.c       **** int Step_correction_z(int32 steps)
 556:L6470.c       **** {  
 557:L6470.c       ****     uint8_t temp=0;
 558:L6470.c       ****     int32 new_step=0;
 559:L6470.c       ****     int32 Encoder_Position_Z_Requested =0;
 560:L6470.c       ****     //int32 diff_encoder_value=0;
 561:L6470.c       ****     int32 encoder_error_value = 0;
 562:L6470.c       ****     Encoder_Position_Z_Requested = steps/3.2;
 563:L6470.c       ****     
 564:L6470.c       ****     for(temp=0; temp<=3; temp++)
 565:L6470.c       ****     {
 566:L6470.c       ****     
 567:L6470.c       ****     Read_All_Optical_Encoder();
 568:L6470.c       ****     //diff_encoder_value = (X_QuadPosition - X_last_position);
 569:L6470.c       ****     encoder_error_value = Encoder_Position_Z_Requested - Z_QuadPosition;
 570:L6470.c       ****     new_step= encoder_error_value*3.2;
 571:L6470.c       ****     
 572:L6470.c       ****     if((abs(encoder_error_value))>=5)
 573:L6470.c       ****     {
 574:L6470.c       ****       new_step = new_step+steps;     
 575:L6470.c       ****       GotoPos(new_step, TMC5160_nCS_MotorZ);
 576:L6470.c       ****       WaitTillPositionReached (TMC5160_nCS_MotorZ);
 577:L6470.c       ****       CyDelayUs(50);
 578:L6470.c       ****       Write_32bitSPI_DATA (0x21  , steps, TMC5160_nCS_MotorZ );
 579:L6470.c       ****     }
 580:L6470.c       ****     
 581:L6470.c       ****     }
 582:L6470.c       ****     
 583:L6470.c       ****     
 584:L6470.c       ****     Read_All_Optical_Encoder();
 585:L6470.c       ****     encoder_error_value = Encoder_Position_Z_Requested - Z_QuadPosition;
 586:L6470.c       ****     
 587:L6470.c       ****     if(temp>=4)
 588:L6470.c       ****     {
 589:L6470.c       ****      if(((abs(encoder_error_value))>=5)  )
 590:L6470.c       ****      {
 591:L6470.c       ****         Write_Debug_UART_Char("Fail to reach Z position \r\n");
 592:L6470.c       ****         LED2_Write(0xFF);
 593:L6470.c       ****         errorZ = 1;
 594:L6470.c       ****      }
 595:L6470.c       ****     
 596:L6470.c       ****      else if ( ((abs(encoder_error_value))>4000))
 597:L6470.c       ****      {
 598:L6470.c       ****        Write_Debug_UART_Char("Z Encoder or Z Motor Might Not be Working \r\n"); 
 599:L6470.c       ****      }
 600:L6470.c       ****     
ARM GAS  C:\Users\Revanth\AppData\Local\Temp\ccSEzD1d.s 			page 12


 601:L6470.c       ****      else
 602:L6470.c       ****      {
 603:L6470.c       ****         Write_Debug_UART_Char("Z position Reached");
 604:L6470.c       ****        errorZ = 0;
 605:L6470.c       ****         
 606:L6470.c       ****      }
 607:L6470.c       ****     
 608:L6470.c       ****     }
 609:L6470.c       ****     
 610:L6470.c       ****     return errorZ;
 611:L6470.c       **** }
 612:L6470.c       **** 
 613:L6470.c       **** /////////////////////////////////////Go to Position in T Axis//////////////////////////////////////
 614:L6470.c       **** 
 615:L6470.c       **** int goTo_T(int32 Position_T_Requested)
 616:L6470.c       **** {
 617:L6470.c       ****     Enable_Encoder_T(-Buffer_T_QuadPosition);
 618:L6470.c       ****     if(if_all_homing_done())
 619:L6470.c       ****     {
 620:L6470.c       ****         Error = 0;
 621:L6470.c       ****         Read_All_Optical_Encoder();        
 622:L6470.c       ****         Write_Debug_UART_Char("GotoT Command Recived--->");
 623:L6470.c       ****         GotoPos(Position_T_Requested, TMC5160_nCS_MotorT); // If provided value is position and not
 624:L6470.c       ****         WaitTillPositionReached (TMC5160_nCS_MotorT);
 625:L6470.c       ****         CyDelayUs(50);
 626:L6470.c       ****         //GotoPos(Position_X_Move, TMC5160_nCS_MotorX); // If provided value is steps to move and n
 627:L6470.c       ****         Write_Debug_UART_Int(Position_T_Requested);
 628:L6470.c       ****         Write_Debug_UART_Char("  \r\n");
 629:L6470.c       ****         Step_correction_t(Position_T_Requested);
 630:L6470.c       ****         Read_All_Optical_Encoder();
 631:L6470.c       ****         Buffer_T_QuadPosition = T_QuadPosition;
 632:L6470.c       ****         return Error;
 633:L6470.c       ****     }
 634:L6470.c       ****     else
 635:L6470.c       ****     {
 636:L6470.c       ****         Write_Debug_UART_Char("Homing Not Done");
 637:L6470.c       ****         Error = All_Homing_Not_Done_Yet;
 638:L6470.c       ****         return Error;
 639:L6470.c       ****     }
 640:L6470.c       ****     //Buffer_T_QuadPosition = T_QuadPosition;
 641:L6470.c       **** }
 642:L6470.c       **** 
 643:L6470.c       **** int Step_correction_t(int32 steps)
 644:L6470.c       **** {  
 645:L6470.c       ****     uint8_t temp=0;
 646:L6470.c       ****     int32 new_step=0;
 647:L6470.c       ****     int32 Encoder_Position_T_Requested =0;
 648:L6470.c       ****     //int32 diff_encoder_value=0;
 649:L6470.c       ****     int32 encoder_error_value = 0;
 650:L6470.c       ****     Encoder_Position_T_Requested = steps/3.2;
 651:L6470.c       ****     
 652:L6470.c       ****     for(temp=0; temp<=3; temp++)
 653:L6470.c       ****     {
 654:L6470.c       ****     Read_All_Optical_Encoder();
 655:L6470.c       ****     //diff_encoder_value = (X_QuadPosition - X_last_position);
 656:L6470.c       ****     encoder_error_value = Encoder_Position_T_Requested - T_QuadPosition;
 657:L6470.c       ****     new_step= encoder_error_value*3.2;
ARM GAS  C:\Users\Revanth\AppData\Local\Temp\ccSEzD1d.s 			page 13


 658:L6470.c       ****     
 659:L6470.c       ****     if((abs(encoder_error_value))>=5)
 660:L6470.c       ****     {
 661:L6470.c       ****       new_step = new_step+steps;     
 662:L6470.c       ****       GotoPos(new_step, TMC5160_nCS_MotorT);
 663:L6470.c       ****       WaitTillPositionReached (TMC5160_nCS_MotorT);
 664:L6470.c       ****       CyDelayUs(50);
 665:L6470.c       ****       Write_32bitSPI_DATA (0x21  , steps, TMC5160_nCS_MotorT );
 666:L6470.c       ****     }
 667:L6470.c       ****     
 668:L6470.c       ****     }
 669:L6470.c       ****     
 670:L6470.c       ****     Read_All_Optical_Encoder();
 671:L6470.c       ****     encoder_error_value = Encoder_Position_T_Requested - T_QuadPosition;
 672:L6470.c       ****     
 673:L6470.c       ****     if(temp>=4)
 674:L6470.c       ****     {
 675:L6470.c       ****      if(((abs(encoder_error_value))>=5) )
 676:L6470.c       ****      {
 677:L6470.c       ****         Write_Debug_UART_Char("Fail to reach T position \r\n");
 678:L6470.c       ****         Error = 1;
 679:L6470.c       ****      }
 680:L6470.c       ****     
 681:L6470.c       ****      else if ( ((abs(encoder_error_value))>4000))
 682:L6470.c       ****      {
 683:L6470.c       ****        Write_Debug_UART_Char("T Encoder or T Motor Might Not be Working \r\n"); 
 684:L6470.c       ****      }
 685:L6470.c       ****     
 686:L6470.c       ****      else
 687:L6470.c       ****      {
 688:L6470.c       ****         Write_Debug_UART_Char("T position Reached");
 689:L6470.c       ****         Error = 0;
 690:L6470.c       ****         
 691:L6470.c       ****      }
 692:L6470.c       ****     
 693:L6470.c       ****     }
 694:L6470.c       ****     
 695:L6470.c       ****     return Error;
 696:L6470.c       **** }
 697:L6470.c       **** 
 698:L6470.c       **** 
 699:L6470.c       **** ///////////////////////////////////////////////////////////////////////////////////////////////////
 700:L6470.c       **** /////////////////////////////////////Go to Position in XYZ Axis////////////////////////////////////
 701:L6470.c       **** 
 702:L6470.c       **** int goTo_XYZ(int32 Position_X_Requested,int32 Position_Y_Requested,int32 Position_Z_Requested)
 703:L6470.c       **** {
 704:L6470.c       ****     Read_All_Optical_Encoder();
 705:L6470.c       ****     //X_last_position = X_QuadPosition;
 706:L6470.c       ****     Write_Debug_UART_Char("GotoX Command Recived--->");
 707:L6470.c       ****     GotoPos(Position_X_Requested, TMC5160_nCS_MotorX); // If provided value is position and not the
 708:L6470.c       ****     GotoPos(Position_Y_Requested, TMC5160_nCS_MotorY);
 709:L6470.c       ****     Enable_Encoder_Z(-Buffer_Z_QuadPosition);
 710:L6470.c       ****     GotoPos(Position_Z_Requested, TMC5160_nCS_MotorZ);
 711:L6470.c       ****     
 712:L6470.c       ****     WaitTillPositionReached (TMC5160_nCS_MotorX);
 713:L6470.c       ****     WaitTillPositionReached (TMC5160_nCS_MotorY);
 714:L6470.c       ****     WaitTillPositionReached (TMC5160_nCS_MotorZ);
ARM GAS  C:\Users\Revanth\AppData\Local\Temp\ccSEzD1d.s 			page 14


 715:L6470.c       ****     
 716:L6470.c       ****     Step_correction_x(Position_X_Requested);
 717:L6470.c       ****     Step_correction_y(Position_Y_Requested);
 718:L6470.c       ****     Step_correction_z(Position_Z_Requested);
 719:L6470.c       ****     
 720:L6470.c       ****     Read_All_Optical_Encoder();
 721:L6470.c       ****     Buffer_Z_QuadPosition = Z_QuadPosition;
 722:L6470.c       ****     
 723:L6470.c       ****     CyDelayUs(50);
 724:L6470.c       ****     //GotoPos(Position_X_Move, TMC5160_nCS_MotorX); // If provided value is steps to move and not t
 725:L6470.c       ****     Write_Debug_UART_Int(Position_X_Requested);
 726:L6470.c       ****     Write_Debug_UART_Char("  \r\n");
 727:L6470.c       ****     Step_correction_x(Position_X_Requested);
 728:L6470.c       ****     return Error;  
 729:L6470.c       ****         
 730:L6470.c       **** }
 731:L6470.c       **** 
 732:L6470.c       **** 
 733:L6470.c       **** bool if_all_homing_done()
 734:L6470.c       **** {
 735:L6470.c       ****     if((HomeY_done == false)&&(errorY == 0))
 736:L6470.c       ****     {
 737:L6470.c       ****         Error = 12;//Y_Homing_Not_Done_Yet
 738:L6470.c       ****         Write_Debug_UART_Char("Y_Homing_Not_Done_Yet***********[x12]  \r\n");
 739:L6470.c       ****         UART_print_all_values();
 740:L6470.c       ****         return false;
 741:L6470.c       ****     }
 742:L6470.c       ****     else if((HomeX_done == false)&&(errorX == 0))
 743:L6470.c       ****     {
 744:L6470.c       ****         Error = 6;//X_Homing_Not_Done_Yet
 745:L6470.c       ****         Write_Debug_UART_Char("X_Homing_Not_Done_Yet***********  \r\n");
 746:L6470.c       ****         UART_print_all_values();
 747:L6470.c       ****         return false;
 748:L6470.c       ****     }
 749:L6470.c       ****     else if((HomeZ_done == false)&&(errorZ == 0))
 750:L6470.c       ****     {
 751:L6470.c       ****         Error = 18;//Z_Homing_Not_Done_Yet
 752:L6470.c       ****         Write_Debug_UART_Char("Z_Homing_Not_Done_Yet***********  \r\n");
 753:L6470.c       ****         UART_print_all_values();
 754:L6470.c       ****         return false;
 755:L6470.c       ****     } 
 756:L6470.c       ****     else
 757:L6470.c       ****     {
 758:L6470.c       ****         return true;
 759:L6470.c       ****     }
 760:L6470.c       **** }
 761:L6470.c       **** 
 762:L6470.c       **** ///////////////////////////////////////////////////////////////////////////////////////////////////
 763:L6470.c       **** //PWM Functions Start-------------------------------------------------------
 764:L6470.c       **** void Initialize_PWM()
 765:L6470.c       **** {
  28              		.loc 1 765 0
  29              		.cfi_startproc
  30              		@ args = 0, pretend = 0, frame = 0
  31              		@ frame_needed = 0, uses_anonymous_args = 0
  32 0000 08B5     		push	{r3, lr}
  33              		.cfi_def_cfa_offset 8
ARM GAS  C:\Users\Revanth\AppData\Local\Temp\ccSEzD1d.s 			page 15


  34              		.cfi_offset 3, -8
  35              		.cfi_offset 14, -4
 766:L6470.c       ****     PWM_CondenserLED_Start();
  36              		.loc 1 766 0
  37 0002 FFF7FEFF 		bl	PWM_CondenserLED_Start
  38              	.LVL0:
 767:L6470.c       ****     PWM_CondenserLED_WriteCompare(2); 
  39              		.loc 1 767 0
  40 0006 0220     		movs	r0, #2
  41 0008 FFF7FEFF 		bl	PWM_CondenserLED_WriteCompare
  42              	.LVL1:
 768:L6470.c       ****     
 769:L6470.c       ****     PWM_BarcodeCondenser_LED_Start();
  43              		.loc 1 769 0
  44 000c FFF7FEFF 		bl	PWM_BarcodeCondenser_LED_Start
  45              	.LVL2:
 770:L6470.c       ****     PWM_BarcodeCondenser_LED_WriteCompare(2);
  46              		.loc 1 770 0
  47 0010 0220     		movs	r0, #2
  48 0012 FFF7FEFF 		bl	PWM_BarcodeCondenser_LED_WriteCompare
  49              	.LVL3:
 771:L6470.c       ****     
 772:L6470.c       ****     PWM_Buzzer_Start();
  50              		.loc 1 772 0
  51 0016 FFF7FEFF 		bl	PWM_Buzzer_Start
  52              	.LVL4:
 773:L6470.c       ****     PWM_Buzzer_WriteCompare(2500);
  53              		.loc 1 773 0
  54 001a 40F6C410 		movw	r0, #2500
  55 001e FFF7FEFF 		bl	PWM_Buzzer_WriteCompare
  56              	.LVL5:
 774:L6470.c       ****     CyDelay(200);
  57              		.loc 1 774 0
  58 0022 C820     		movs	r0, #200
  59 0024 FFF7FEFF 		bl	CyDelay
  60              	.LVL6:
 775:L6470.c       ****     PWM_Buzzer_WriteCompare(0);
  61              		.loc 1 775 0
  62 0028 0020     		movs	r0, #0
  63 002a FFF7FEFF 		bl	PWM_Buzzer_WriteCompare
  64              	.LVL7:
 776:L6470.c       ****     CyDelay(200);
  65              		.loc 1 776 0
  66 002e C820     		movs	r0, #200
  67 0030 FFF7FEFF 		bl	CyDelay
  68              	.LVL8:
 777:L6470.c       ****     PWM_Buzzer_WriteCompare(2500);
  69              		.loc 1 777 0
  70 0034 40F6C410 		movw	r0, #2500
  71 0038 FFF7FEFF 		bl	PWM_Buzzer_WriteCompare
  72              	.LVL9:
 778:L6470.c       ****     CyDelay(200);
  73              		.loc 1 778 0
  74 003c C820     		movs	r0, #200
  75 003e FFF7FEFF 		bl	CyDelay
  76              	.LVL10:
 779:L6470.c       ****     PWM_Buzzer_WriteCompare(0);
ARM GAS  C:\Users\Revanth\AppData\Local\Temp\ccSEzD1d.s 			page 16


  77              		.loc 1 779 0
  78 0042 0020     		movs	r0, #0
  79 0044 FFF7FEFF 		bl	PWM_Buzzer_WriteCompare
  80              	.LVL11:
  81 0048 08BD     		pop	{r3, pc}
  82              		.cfi_endproc
  83              	.LFE79:
  84              		.size	Initialize_PWM, .-Initialize_PWM
  85 004a 00BF     		.section	.text.Set_Backlight_LED,"ax",%progbits
  86              		.align	2
  87              		.global	Set_Backlight_LED
  88              		.thumb
  89              		.thumb_func
  90              		.type	Set_Backlight_LED, %function
  91              	Set_Backlight_LED:
  92              	.LFB85:
 780:L6470.c       **** }
 781:L6470.c       **** int set_BarcodeCondenser_LED()//Set Barcode Condenser LED light intensity
 782:L6470.c       **** {
 783:L6470.c       ****     PWM_barcode_comare_value = ((unsigned int)USB_received[3] << 8) + USB_received[2];  //Read LED 
 784:L6470.c       ****     PWM_BarcodeCondenser_LED_WriteCompare((PWM_barcode_comare_value*0.6)/10);    //Writing LED valu
 785:L6470.c       ****     Write_Debug_UART_Char("LED Barcode Value Recived--->");
 786:L6470.c       ****     Write_Debug_UART_Int(PWM_barcode_comare_value);
 787:L6470.c       ****     Write_Debug_UART_Char("\r\n");
 788:L6470.c       ****     Write_Debug_UART_Char("Set Barcode LED Command Executed  \r\n");
 789:L6470.c       ****     return 0;
 790:L6470.c       **** }
 791:L6470.c       **** 
 792:L6470.c       **** int set_CondenserLED()//Set Condenser LED light intensity
 793:L6470.c       **** {
 794:L6470.c       ****     PWM_comare_value = ((unsigned int)USB_received[3] << 8) + USB_received[2];  //Read LED intensit
 795:L6470.c       ****     PWM_CondenserLED_WriteCompare((PWM_comare_value*0.6)/10);    //Writing LED value in to PWM maxi
 796:L6470.c       ****     Write_Debug_UART_Char(" LED Value Recived--->");
 797:L6470.c       ****     Write_Debug_UART_Int(PWM_comare_value);
 798:L6470.c       ****     Write_Debug_UART_Char("\r\n");
 799:L6470.c       ****     Write_Debug_UART_Char("Set LED Command Executed  \r\n");
 800:L6470.c       ****     return 0;
 801:L6470.c       **** }
 802:L6470.c       **** 
 803:L6470.c       **** int Beep_Once()//Set Condenser LED light intensity
 804:L6470.c       **** {
 805:L6470.c       ****     PWM_Buzzer_WriteCompare(2500);
 806:L6470.c       ****     CyDelay(200);
 807:L6470.c       ****     PWM_Buzzer_WriteCompare(0);
 808:L6470.c       ****     Write_Debug_UART_Char("Beeped Once  \r\n");
 809:L6470.c       ****     return 0;
 810:L6470.c       **** }
 811:L6470.c       **** 
 812:L6470.c       **** int Beep_Twice()//Set Condenser LED light intensity
 813:L6470.c       **** {
 814:L6470.c       ****     PWM_Buzzer_WriteCompare(2500);
 815:L6470.c       ****     CyDelay(200);
 816:L6470.c       ****     PWM_Buzzer_WriteCompare(0);
 817:L6470.c       ****     CyDelay(200);
 818:L6470.c       ****     PWM_Buzzer_WriteCompare(2500);
 819:L6470.c       ****     CyDelay(200);
 820:L6470.c       ****     PWM_Buzzer_WriteCompare(0);
ARM GAS  C:\Users\Revanth\AppData\Local\Temp\ccSEzD1d.s 			page 17


 821:L6470.c       ****     Write_Debug_UART_Char("Beeped Twice  \r\n");
 822:L6470.c       ****     return 0;
 823:L6470.c       **** }
 824:L6470.c       **** 
 825:L6470.c       **** int Long_Beep()//Set Condenser LED light intensity
 826:L6470.c       **** {
 827:L6470.c       ****     PWM_Buzzer_WriteCompare(2500);
 828:L6470.c       ****     CyDelay(2000);
 829:L6470.c       ****     PWM_Buzzer_WriteCompare(0);
 830:L6470.c       ****     CyDelay(200);
 831:L6470.c       ****     
 832:L6470.c       ****     Write_Debug_UART_Char("Beeped Long  \r\n");
 833:L6470.c       ****     return 0;
 834:L6470.c       **** }
 835:L6470.c       **** 
 836:L6470.c       **** //PWM Functions Stop-------------------------------------------------------
 837:L6470.c       **** 
 838:L6470.c       **** void Set_Backlight_LED(uint8_t value)
 839:L6470.c       **** {
  93              		.loc 1 839 0
  94              		.cfi_startproc
  95              		@ args = 0, pretend = 0, frame = 0
  96              		@ frame_needed = 0, uses_anonymous_args = 0
  97              	.LVL12:
  98 0000 08B5     		push	{r3, lr}
  99              		.cfi_def_cfa_offset 8
 100              		.cfi_offset 3, -8
 101              		.cfi_offset 14, -4
 840:L6470.c       ****     Pin_Backlight_Write(value);
 102              		.loc 1 840 0
 103 0002 FFF7FEFF 		bl	Pin_Backlight_Write
 104              	.LVL13:
 105 0006 08BD     		pop	{r3, pc}
 106              		.cfi_endproc
 107              	.LFE85:
 108              		.size	Set_Backlight_LED, .-Set_Backlight_LED
 109              		.section	.text.Enable_Encoder_T,"ax",%progbits
 110              		.align	2
 111              		.global	Enable_Encoder_T
 112              		.thumb
 113              		.thumb_func
 114              		.type	Enable_Encoder_T, %function
 115              	Enable_Encoder_T:
 116              	.LFB87:
 841:L6470.c       **** }
 842:L6470.c       **** 
 843:L6470.c       **** //Optical Decoder Functions Start-------------------------------------------------------
 844:L6470.c       **** void Initialize_And_Start_All_Opt_Encoder()//Initialize and start Interrupt for XY encoder count an
 845:L6470.c       **** {   
 846:L6470.c       ****     X_QuadPosition = 0;
 847:L6470.c       ****     Y_QuadPosition = 0;
 848:L6470.c       ****     Z_QuadPosition =0 ;
 849:L6470.c       ****     T_QuadPosition=0;
 850:L6470.c       ****     QuadDec_TZ_Start();
 851:L6470.c       ****     QuadDec_Y_Start();
 852:L6470.c       ****     QuadDec_X_Start();
 853:L6470.c       **** 
ARM GAS  C:\Users\Revanth\AppData\Local\Temp\ccSEzD1d.s 			page 18


 854:L6470.c       ****     Enable_Encoder_Z(0);
 855:L6470.c       ****     Enable_Encoder_T(0);
 856:L6470.c       **** }
 857:L6470.c       **** 
 858:L6470.c       **** 
 859:L6470.c       **** void Enable_Encoder_T(int steps)
 860:L6470.c       **** {
 117              		.loc 1 860 0
 118              		.cfi_startproc
 119              		@ args = 0, pretend = 0, frame = 0
 120              		@ frame_needed = 0, uses_anonymous_args = 0
 121              	.LVL14:
 122 0000 10B5     		push	{r4, lr}
 123              		.cfi_def_cfa_offset 8
 124              		.cfi_offset 4, -8
 125              		.cfi_offset 14, -4
 861:L6470.c       ****     EncoderTZSelect = 0; // 0 for T and 1 for Z
 126              		.loc 1 861 0
 127 0002 0024     		movs	r4, #0
 128 0004 034B     		ldr	r3, .L7
 129 0006 1C60     		str	r4, [r3]
 862:L6470.c       ****     QuadDec_TZ_SetCounter(steps);      
 130              		.loc 1 862 0
 131 0008 FFF7FEFF 		bl	QuadDec_TZ_SetCounter
 132              	.LVL15:
 863:L6470.c       ****     Encoder_T_Z_Select_Write(0);
 133              		.loc 1 863 0
 134 000c 2046     		mov	r0, r4
 135 000e FFF7FEFF 		bl	Encoder_T_Z_Select_Write
 136              	.LVL16:
 137 0012 10BD     		pop	{r4, pc}
 138              	.L8:
 139              		.align	2
 140              	.L7:
 141 0014 00000000 		.word	.LANCHOR0
 142              		.cfi_endproc
 143              	.LFE87:
 144              		.size	Enable_Encoder_T, .-Enable_Encoder_T
 145              		.section	.text.Enable_Encoder_Z,"ax",%progbits
 146              		.align	2
 147              		.global	Enable_Encoder_Z
 148              		.thumb
 149              		.thumb_func
 150              		.type	Enable_Encoder_Z, %function
 151              	Enable_Encoder_Z:
 152              	.LFB88:
 864:L6470.c       **** }
 865:L6470.c       **** 
 866:L6470.c       **** void Enable_Encoder_Z(int steps)
 867:L6470.c       **** {
 153              		.loc 1 867 0
 154              		.cfi_startproc
 155              		@ args = 0, pretend = 0, frame = 0
 156              		@ frame_needed = 0, uses_anonymous_args = 0
 157              	.LVL17:
 158 0000 10B5     		push	{r4, lr}
 159              		.cfi_def_cfa_offset 8
ARM GAS  C:\Users\Revanth\AppData\Local\Temp\ccSEzD1d.s 			page 19


 160              		.cfi_offset 4, -8
 161              		.cfi_offset 14, -4
 868:L6470.c       ****     EncoderTZSelect = 1; // 0 for T and 1 for Z
 162              		.loc 1 868 0
 163 0002 0124     		movs	r4, #1
 164 0004 034B     		ldr	r3, .L11
 165 0006 1C60     		str	r4, [r3]
 869:L6470.c       ****     QuadDec_TZ_SetCounter(steps);
 166              		.loc 1 869 0
 167 0008 FFF7FEFF 		bl	QuadDec_TZ_SetCounter
 168              	.LVL18:
 870:L6470.c       ****     Encoder_T_Z_Select_Write(1);
 169              		.loc 1 870 0
 170 000c 2046     		mov	r0, r4
 171 000e FFF7FEFF 		bl	Encoder_T_Z_Select_Write
 172              	.LVL19:
 173 0012 10BD     		pop	{r4, pc}
 174              	.L12:
 175              		.align	2
 176              	.L11:
 177 0014 00000000 		.word	.LANCHOR0
 178              		.cfi_endproc
 179              	.LFE88:
 180              		.size	Enable_Encoder_Z, .-Enable_Encoder_Z
 181              		.section	.text.Initialize_And_Start_All_Opt_Encoder,"ax",%progbits
 182              		.align	2
 183              		.global	Initialize_And_Start_All_Opt_Encoder
 184              		.thumb
 185              		.thumb_func
 186              		.type	Initialize_And_Start_All_Opt_Encoder, %function
 187              	Initialize_And_Start_All_Opt_Encoder:
 188              	.LFB86:
 845:L6470.c       ****     X_QuadPosition = 0;
 189              		.loc 1 845 0
 190              		.cfi_startproc
 191              		@ args = 0, pretend = 0, frame = 0
 192              		@ frame_needed = 0, uses_anonymous_args = 0
 193 0000 10B5     		push	{r4, lr}
 194              		.cfi_def_cfa_offset 8
 195              		.cfi_offset 4, -8
 196              		.cfi_offset 14, -4
 846:L6470.c       ****     Y_QuadPosition = 0;
 197              		.loc 1 846 0
 198 0002 094B     		ldr	r3, .L15
 199 0004 0024     		movs	r4, #0
 200 0006 5C60     		str	r4, [r3, #4]
 847:L6470.c       ****     Z_QuadPosition =0 ;
 201              		.loc 1 847 0
 202 0008 9C60     		str	r4, [r3, #8]
 848:L6470.c       ****     T_QuadPosition=0;
 203              		.loc 1 848 0
 204 000a DC60     		str	r4, [r3, #12]
 849:L6470.c       ****     QuadDec_TZ_Start();
 205              		.loc 1 849 0
 206 000c 1C61     		str	r4, [r3, #16]
 850:L6470.c       ****     QuadDec_Y_Start();
 207              		.loc 1 850 0
ARM GAS  C:\Users\Revanth\AppData\Local\Temp\ccSEzD1d.s 			page 20


 208 000e FFF7FEFF 		bl	QuadDec_TZ_Start
 209              	.LVL20:
 851:L6470.c       ****     QuadDec_X_Start();
 210              		.loc 1 851 0
 211 0012 FFF7FEFF 		bl	QuadDec_Y_Start
 212              	.LVL21:
 852:L6470.c       **** 
 213              		.loc 1 852 0
 214 0016 FFF7FEFF 		bl	QuadDec_X_Start
 215              	.LVL22:
 854:L6470.c       ****     Enable_Encoder_T(0);
 216              		.loc 1 854 0
 217 001a 2046     		mov	r0, r4
 218 001c FFF7FEFF 		bl	Enable_Encoder_Z
 219              	.LVL23:
 855:L6470.c       **** }
 220              		.loc 1 855 0
 221 0020 2046     		mov	r0, r4
 222 0022 FFF7FEFF 		bl	Enable_Encoder_T
 223              	.LVL24:
 224 0026 10BD     		pop	{r4, pc}
 225              	.L16:
 226              		.align	2
 227              	.L15:
 228 0028 00000000 		.word	.LANCHOR0
 229              		.cfi_endproc
 230              	.LFE86:
 231              		.size	Initialize_And_Start_All_Opt_Encoder, .-Initialize_And_Start_All_Opt_Encoder
 232              		.section	.text.Read_All_Optical_Encoder,"ax",%progbits
 233              		.align	2
 234              		.global	Read_All_Optical_Encoder
 235              		.thumb
 236              		.thumb_func
 237              		.type	Read_All_Optical_Encoder, %function
 238              	Read_All_Optical_Encoder:
 239              	.LFB89:
 871:L6470.c       **** }
 872:L6470.c       **** 
 873:L6470.c       **** void Read_All_Optical_Encoder()//Read all optical encoder value and update XYZ value
 874:L6470.c       **** {
 240              		.loc 1 874 0
 241              		.cfi_startproc
 242              		@ args = 0, pretend = 0, frame = 0
 243              		@ frame_needed = 0, uses_anonymous_args = 0
 244 0000 10B5     		push	{r4, lr}
 245              		.cfi_def_cfa_offset 8
 246              		.cfi_offset 4, -8
 247              		.cfi_offset 14, -4
 875:L6470.c       ****     if(EncoderTZSelect == 0)
 248              		.loc 1 875 0
 249 0002 0F4B     		ldr	r3, .L21
 250 0004 1B68     		ldr	r3, [r3]
 251 0006 33B9     		cbnz	r3, .L18
 876:L6470.c       ****     {
 877:L6470.c       ****         T_QuadPosition = -QuadDec_TZ_GetCounter();
 252              		.loc 1 877 0
 253 0008 FFF7FEFF 		bl	QuadDec_TZ_GetCounter
ARM GAS  C:\Users\Revanth\AppData\Local\Temp\ccSEzD1d.s 			page 21


 254              	.LVL25:
 255 000c 4042     		negs	r0, r0
 256 000e 0C4B     		ldr	r3, .L21
 257 0010 1861     		str	r0, [r3, #16]
 878:L6470.c       ****         Z_QuadPosition = Buffer_Z_QuadPosition;
 258              		.loc 1 878 0
 259 0012 5A69     		ldr	r2, [r3, #20]
 260 0014 DA60     		str	r2, [r3, #12]
 261              	.L18:
 879:L6470.c       ****     }
 880:L6470.c       ****     if(EncoderTZSelect == 1)
 262              		.loc 1 880 0
 263 0016 0A4B     		ldr	r3, .L21
 264 0018 1B68     		ldr	r3, [r3]
 265 001a 012B     		cmp	r3, #1
 266 001c 06D1     		bne	.L19
 881:L6470.c       ****     {
 882:L6470.c       ****         T_QuadPosition = Buffer_T_QuadPosition;
 267              		.loc 1 882 0
 268 001e 084C     		ldr	r4, .L21
 269 0020 A369     		ldr	r3, [r4, #24]
 270 0022 2361     		str	r3, [r4, #16]
 883:L6470.c       ****         Z_QuadPosition = -QuadDec_TZ_GetCounter();
 271              		.loc 1 883 0
 272 0024 FFF7FEFF 		bl	QuadDec_TZ_GetCounter
 273              	.LVL26:
 274 0028 4042     		negs	r0, r0
 275 002a E060     		str	r0, [r4, #12]
 276              	.L19:
 884:L6470.c       ****     }
 885:L6470.c       ****     X_QuadPosition = -QuadDec_X_GetCounter();
 277              		.loc 1 885 0
 278 002c FFF7FEFF 		bl	QuadDec_X_GetCounter
 279              	.LVL27:
 280 0030 4042     		negs	r0, r0
 281 0032 034C     		ldr	r4, .L21
 282 0034 6060     		str	r0, [r4, #4]
 886:L6470.c       ****     Y_QuadPosition = -QuadDec_Y_GetCounter();
 283              		.loc 1 886 0
 284 0036 FFF7FEFF 		bl	QuadDec_Y_GetCounter
 285              	.LVL28:
 286 003a 4042     		negs	r0, r0
 287 003c A060     		str	r0, [r4, #8]
 288 003e 10BD     		pop	{r4, pc}
 289              	.L22:
 290              		.align	2
 291              	.L21:
 292 0040 00000000 		.word	.LANCHOR0
 293              		.cfi_endproc
 294              	.LFE89:
 295              		.size	Read_All_Optical_Encoder, .-Read_All_Optical_Encoder
 296              		.section	.text.USB_Detect_Indication_Via_LED,"ax",%progbits
 297              		.align	2
 298              		.global	USB_Detect_Indication_Via_LED
 299              		.thumb
 300              		.thumb_func
 301              		.type	USB_Detect_Indication_Via_LED, %function
ARM GAS  C:\Users\Revanth\AppData\Local\Temp\ccSEzD1d.s 			page 22


 302              	USB_Detect_Indication_Via_LED:
 303              	.LFB92:
 887:L6470.c       **** }    
 888:L6470.c       **** //Optical Decoder Functions Stop-------------------------------------------------------
 889:L6470.c       **** 
 890:L6470.c       **** 
 891:L6470.c       **** //USB Functions Start-------------------------------------------------------
 892:L6470.c       **** void Process_USB_Data()/* Process USB incoming data command. */
 893:L6470.c       **** {
 894:L6470.c       ****     //Pin_USB_RX_TX_Indicator_LED_Write(1); /* turn ON LED as a indicator to start process the comm
 895:L6470.c       ****     Error = 0;
 896:L6470.c       ****     command = ((unsigned int)USB_received[1] << 8) + USB_received[0];   /* Reading USB data. */
 897:L6470.c       ****     /*Compare USB data and execute the command*/
 898:L6470.c       **** 
 899:L6470.c       ****     if (command == HomeX)                                          
 900:L6470.c       ****     {
 901:L6470.c       ****         goTo_X(0);
 902:L6470.c       ****         homeX(TMC5160_nCS_MotorX);   
 903:L6470.c       ****         Send_Feedback_to_USB(Error);
 904:L6470.c       ****     }
 905:L6470.c       ****     else if (command == HomeY)                           
 906:L6470.c       ****     {
 907:L6470.c       ****         goTo_Y(0);
 908:L6470.c       ****         homeY(TMC5160_nCS_MotorY);
 909:L6470.c       ****         Send_Feedback_to_USB(Error);
 910:L6470.c       ****     }
 911:L6470.c       ****     else if (command == HomeZ)                           
 912:L6470.c       ****     {
 913:L6470.c       ****         goTo_Z(0);
 914:L6470.c       ****         homeZ(TMC5160_nCS_MotorZ);
 915:L6470.c       ****         Send_Feedback_to_USB(Error);
 916:L6470.c       ****     }
 917:L6470.c       ****     else if (command == HomeT)                           
 918:L6470.c       ****     {
 919:L6470.c       ****         goTo_T(0);
 920:L6470.c       ****         homeT(TMC5160_nCS_MotorT);
 921:L6470.c       ****         Send_Feedback_to_USB(Error);
 922:L6470.c       ****     }
 923:L6470.c       ****     else if (command == GotoX)                           
 924:L6470.c       ****     {
 925:L6470.c       ****         Position_X_Requested = ((int32)USB_received[5] << 24) + ((int32)USB_received[4] << 16) + ((
 926:L6470.c       ****         Error = goTo_X(Position_X_Requested);
 927:L6470.c       ****         Send_Feedback_to_USB(Error);
 928:L6470.c       ****     }
 929:L6470.c       ****     else if (command == GotoY)          
 930:L6470.c       ****     {
 931:L6470.c       ****         Position_Y_Requested = ((int32)USB_received[5] << 24) + ((int32)USB_received[4] << 16) + ((
 932:L6470.c       ****         Error = goTo_Y(Position_Y_Requested);
 933:L6470.c       ****         Send_Feedback_to_USB(Error);
 934:L6470.c       ****     }
 935:L6470.c       ****     else if (command == GotoZ)        
 936:L6470.c       ****     {
 937:L6470.c       ****         Position_Z_Requested = ((int32)USB_received[5] << 24) + ((int32)USB_received[4] << 16) + ((
 938:L6470.c       ****         Error = goTo_Z(Position_Z_Requested);
 939:L6470.c       ****         Send_Feedback_to_USB(Error);
 940:L6470.c       ****     }
 941:L6470.c       ****     else if (command == GotoT)        
ARM GAS  C:\Users\Revanth\AppData\Local\Temp\ccSEzD1d.s 			page 23


 942:L6470.c       ****     {
 943:L6470.c       ****         Position_T_Requested = ((int32)USB_received[5] << 24) + ((int32)USB_received[4] << 16) + ((
 944:L6470.c       ****         Error = goTo_T(Position_T_Requested);
 945:L6470.c       ****         Send_Feedback_to_USB(Error);
 946:L6470.c       ****     }
 947:L6470.c       ****     else if ( command == Set_OilDispenser )
 948:L6470.c       ****     {
 949:L6470.c       ****         int time_ms=0;
 950:L6470.c       ****         uint8_t direction=0;
 951:L6470.c       ****         time_ms = ((int32)USB_received[5] << 24) + ((int32)USB_received[4] << 16) + ((int32)USB_rec
 952:L6470.c       ****         direction = USB_received[6];
 953:L6470.c       ****         run_pump (time_ms, direction);
 954:L6470.c       ****     }
 955:L6470.c       ****     else if (command == Set_LED_voltage)
 956:L6470.c       ****     { 
 957:L6470.c       ****        set_CondenserLED();
 958:L6470.c       ****         CyDelay(100);
 959:L6470.c       ****         Send_Feedback_to_USB(Error);  
 960:L6470.c       ****     }
 961:L6470.c       ****     else if (command == PCB_Reset)                     
 962:L6470.c       ****     {
 963:L6470.c       ****         Write_Debug_UART_Char("PCB Reset Command Recived  \r\n");
 964:L6470.c       ****         Write_Debug_UART_Char("\r\n");
 965:L6470.c       ****         CyDelay(500);
 966:L6470.c       ****         Send_Feedback_to_USB(0);
 967:L6470.c       ****         CyDelay(500);
 968:L6470.c       ****         CySoftwareReset();
 969:L6470.c       ****     }
 970:L6470.c       ****     else if(command == SetSpeed)  
 971:L6470.c       ****     {
 972:L6470.c       ****         //Set_Speed();
 973:L6470.c       ****         Send_Feedback_to_USB(Error);
 974:L6470.c       ****     }
 975:L6470.c       ****     else if (command == SetNoOfExecution)
 976:L6470.c       ****     {
 977:L6470.c       ****         //set_no_of_execution();
 978:L6470.c       ****         Send_Feedback_to_USB(Error);   
 979:L6470.c       ****     }
 980:L6470.c       ****     else if (command == Get_Status)                          
 981:L6470.c       ****     {
 982:L6470.c       ****         Write_Debug_UART_Char("Get Status Command Recived  \r\n");
 983:L6470.c       ****         CyDelay(10);
 984:L6470.c       ****         Send_Feedback_to_USB(0);
 985:L6470.c       ****     }
 986:L6470.c       ****     else
 987:L6470.c       ****     {
 988:L6470.c       ****         Error = 19;//Wrong_Command_Received
 989:L6470.c       ****         Write_Debug_UART_Char("Wrong Command Received*********** \r\n");
 990:L6470.c       ****         UART_print_all_values();
 991:L6470.c       ****         Send_Feedback_to_USB(19);
 992:L6470.c       ****     }
 993:L6470.c       ****     //Pin_USB_RX_TX_Indicator_LED_Write(0);/* turn OFF LED as a indicator to stop process the comma
 994:L6470.c       **** }
 995:L6470.c       **** void Send_Feedback_to_USB(int Error)//Send Feedback to USB if USB command executed correctely 
 996:L6470.c       **** {
 997:L6470.c       ****      Read_All_Optical_Encoder();
 998:L6470.c       **** 
ARM GAS  C:\Users\Revanth\AppData\Local\Temp\ccSEzD1d.s 			page 24


 999:L6470.c       ****     
1000:L6470.c       ****     
1001:L6470.c       ****         if(Error == 0)
1002:L6470.c       ****         {            
1003:L6470.c       ****             USB_transmit[0] = command;
1004:L6470.c       ****             USB_transmit[1] = (command >> 8);
1005:L6470.c       ****             USB_transmit[2] = No_Error;
1006:L6470.c       ****             USB_transmit[3] = No_Error >> 8;
1007:L6470.c       ****         }
1008:L6470.c       ****         else
1009:L6470.c       ****         {
1010:L6470.c       ****             switch(Error)
1011:L6470.c       ****             {
1012:L6470.c       ****                 case 1:
1013:L6470.c       ****                 {
1014:L6470.c       ****                     USB_transmit[2] = X_Motor_Not_Working;
1015:L6470.c       ****                     USB_transmit[3] = X_Motor_Not_Working >> 8; 
1016:L6470.c       ****                     break;
1017:L6470.c       ****                 }
1018:L6470.c       ****                 case 2:
1019:L6470.c       ****                 {
1020:L6470.c       ****                     USB_transmit[2] = X_Encoder_Not_Working;
1021:L6470.c       ****                     USB_transmit[3] = X_Encoder_Not_Working >> 8; 
1022:L6470.c       ****                     break;
1023:L6470.c       ****                 }
1024:L6470.c       ****                 case 3:
1025:L6470.c       ****                 {
1026:L6470.c       ****                     USB_transmit[2] = X_Switch_Not_Working;
1027:L6470.c       ****                     USB_transmit[3] = X_Switch_Not_Working >> 8; 
1028:L6470.c       ****                     break;
1029:L6470.c       ****                 }
1030:L6470.c       ****                 case 4:
1031:L6470.c       ****                 {
1032:L6470.c       ****                     USB_transmit[2] = X_Motor_Driver_Fault;
1033:L6470.c       ****                     USB_transmit[3] = X_Motor_Driver_Fault >> 8; 
1034:L6470.c       ****                     break;
1035:L6470.c       ****                 }
1036:L6470.c       ****                 case 5:
1037:L6470.c       ****                 {
1038:L6470.c       ****                     USB_transmit[2] = Requested_X_Step_Exceeding_The_Limit;
1039:L6470.c       ****                     USB_transmit[3] = Requested_X_Step_Exceeding_The_Limit >> 8; 
1040:L6470.c       ****                     break;
1041:L6470.c       ****                 }
1042:L6470.c       ****                 case 6:
1043:L6470.c       ****                 {
1044:L6470.c       ****                     USB_transmit[2] = X_Homing_Not_Done_Yet;
1045:L6470.c       ****                     USB_transmit[3] = X_Homing_Not_Done_Yet >> 8; 
1046:L6470.c       ****                     break;
1047:L6470.c       ****                 }
1048:L6470.c       ****                 case 7:
1049:L6470.c       ****                 {
1050:L6470.c       ****                     USB_transmit[2] = X_Motor_Busy ;
1051:L6470.c       ****                     USB_transmit[3] = X_Motor_Busy >> 8; 
1052:L6470.c       ****                     break;
1053:L6470.c       ****                 }
1054:L6470.c       ****                 case 8:
1055:L6470.c       ****                 {
ARM GAS  C:\Users\Revanth\AppData\Local\Temp\ccSEzD1d.s 			page 25


1056:L6470.c       ****                     USB_transmit[2] = Y_Motor_Not_Working;
1057:L6470.c       ****                     USB_transmit[3] = Y_Motor_Not_Working >> 8; 
1058:L6470.c       ****                     break;
1059:L6470.c       ****                 }
1060:L6470.c       ****                 case 9:
1061:L6470.c       ****                 {
1062:L6470.c       ****                     USB_transmit[2] = Y_Encoder_Not_Working;
1063:L6470.c       ****                     USB_transmit[3] = Y_Encoder_Not_Working >> 8; 
1064:L6470.c       ****                     break;
1065:L6470.c       ****                 }
1066:L6470.c       ****                 case 10:
1067:L6470.c       ****                 {
1068:L6470.c       ****                     USB_transmit[2] = Y_Switch_Not_Working;
1069:L6470.c       ****                     USB_transmit[3] = Y_Switch_Not_Working >> 8; 
1070:L6470.c       ****                     break;
1071:L6470.c       ****                 }
1072:L6470.c       ****                 case 11:
1073:L6470.c       ****                 {
1074:L6470.c       ****                     USB_transmit[2] = Y_Motor_Driver_Fault;
1075:L6470.c       ****                     USB_transmit[3] = Y_Motor_Driver_Fault >> 8; 
1076:L6470.c       ****                     break;
1077:L6470.c       ****                 }
1078:L6470.c       ****                 case 12:
1079:L6470.c       ****                 {
1080:L6470.c       ****                     USB_transmit[2] = Requested_Y_Step_Exceeding_The_Limit;
1081:L6470.c       ****                     USB_transmit[3] = Requested_Y_Step_Exceeding_The_Limit >> 8; 
1082:L6470.c       ****                     break;
1083:L6470.c       ****                 }
1084:L6470.c       ****                 case 13:
1085:L6470.c       ****                 {
1086:L6470.c       ****                     USB_transmit[2] = Y_Homing_Not_Done_Yet;
1087:L6470.c       ****                     USB_transmit[3] = Y_Homing_Not_Done_Yet >> 8; 
1088:L6470.c       ****                     break;
1089:L6470.c       ****                 }
1090:L6470.c       ****                 case 14:
1091:L6470.c       ****                 {
1092:L6470.c       ****                     USB_transmit[2] = Y_Motor_Busy;
1093:L6470.c       ****                     USB_transmit[3] = Y_Motor_Busy >> 8; 
1094:L6470.c       ****                     break;
1095:L6470.c       ****                 }
1096:L6470.c       ****                 case 15:
1097:L6470.c       ****                 {
1098:L6470.c       ****                     USB_transmit[2] = Z_Motor_Not_Working ;
1099:L6470.c       ****                     USB_transmit[3] = Z_Motor_Not_Working >> 8; 
1100:L6470.c       ****                     break;
1101:L6470.c       ****                 }
1102:L6470.c       ****                 case 16:
1103:L6470.c       ****                 {
1104:L6470.c       ****                     USB_transmit[2] = Z_Encoder_Not_Working ;
1105:L6470.c       ****                     USB_transmit[3] = Z_Encoder_Not_Working >> 8; 
1106:L6470.c       ****                     break;
1107:L6470.c       ****                 }
1108:L6470.c       ****                 case 17:
1109:L6470.c       ****                 {
1110:L6470.c       ****                     USB_transmit[2] = Z_Switch_Not_Working;
1111:L6470.c       ****                     USB_transmit[3] = Z_Switch_Not_Working >> 8; 
1112:L6470.c       ****                     break;
ARM GAS  C:\Users\Revanth\AppData\Local\Temp\ccSEzD1d.s 			page 26


1113:L6470.c       ****                 }
1114:L6470.c       ****                 case 18:
1115:L6470.c       ****                 {
1116:L6470.c       ****                     USB_transmit[2] = Z_Motor_Driver_Fault;
1117:L6470.c       ****                     USB_transmit[3] = Z_Motor_Driver_Fault >> 8; 
1118:L6470.c       ****                     break;
1119:L6470.c       ****                 }
1120:L6470.c       ****                 case 19:
1121:L6470.c       ****                 {
1122:L6470.c       ****                     USB_transmit[2] = Requested_Z_Step_Exceeding_The_Limit;
1123:L6470.c       ****                     USB_transmit[3] = Requested_Z_Step_Exceeding_The_Limit >> 8; 
1124:L6470.c       ****                     break;
1125:L6470.c       ****                 }
1126:L6470.c       ****                 case 20:
1127:L6470.c       ****                 {
1128:L6470.c       ****                     USB_transmit[2] = Z_Homing_Not_Done_Yet;
1129:L6470.c       ****                     USB_transmit[3] = Z_Homing_Not_Done_Yet >> 8; 
1130:L6470.c       ****                     break;
1131:L6470.c       ****                 }
1132:L6470.c       ****                 case 21:
1133:L6470.c       ****                 {
1134:L6470.c       ****                     USB_transmit[2] = Z_Motor_Busy;
1135:L6470.c       ****                     USB_transmit[3] = Z_Motor_Busy >> 8; 
1136:L6470.c       ****                     break;
1137:L6470.c       ****                 }
1138:L6470.c       ****                 case 22:
1139:L6470.c       ****                 {
1140:L6470.c       ****                     USB_transmit[2] = T_Motor_Not_Working;
1141:L6470.c       ****                     USB_transmit[3] =  T_Motor_Not_Working>> 8; 
1142:L6470.c       ****                     break;
1143:L6470.c       ****                 }
1144:L6470.c       ****                 case 23:
1145:L6470.c       ****                 {
1146:L6470.c       ****                     USB_transmit[2] = T_Encoder_Not_Working;
1147:L6470.c       ****                     USB_transmit[3] =  T_Encoder_Not_Working>> 8; 
1148:L6470.c       ****                     break;
1149:L6470.c       ****                 }
1150:L6470.c       ****                 case 24:
1151:L6470.c       ****                 {
1152:L6470.c       ****                     USB_transmit[2] = T_Switch_Not_Working;
1153:L6470.c       ****                     USB_transmit[3] =  T_Switch_Not_Working>> 8; 
1154:L6470.c       ****                     break;
1155:L6470.c       ****                 }
1156:L6470.c       ****                 
1157:L6470.c       ****                 case 25:
1158:L6470.c       ****                 {
1159:L6470.c       ****                     USB_transmit[2] = T_Motor_Driver_Fault;
1160:L6470.c       ****                     USB_transmit[3] =  T_Motor_Driver_Fault>> 8; 
1161:L6470.c       ****                     break;
1162:L6470.c       ****                 }
1163:L6470.c       ****                 case 26:
1164:L6470.c       ****                 {
1165:L6470.c       ****                     USB_transmit[2] = Requested_T_Step_Exceeding_The_Limit;
1166:L6470.c       ****                     USB_transmit[3] =  Requested_T_Step_Exceeding_The_Limit>> 8; 
1167:L6470.c       ****                     break;
1168:L6470.c       ****                 }
1169:L6470.c       ****                 case 27:
ARM GAS  C:\Users\Revanth\AppData\Local\Temp\ccSEzD1d.s 			page 27


1170:L6470.c       ****                 {
1171:L6470.c       ****                     USB_transmit[2] = T_Homing_Not_Done_Yet;
1172:L6470.c       ****                     USB_transmit[3] =  T_Homing_Not_Done_Yet>> 8; 
1173:L6470.c       ****                     break;
1174:L6470.c       ****                 }
1175:L6470.c       ****                 case 28:
1176:L6470.c       ****                 {
1177:L6470.c       ****                     USB_transmit[2] = T_Motor_Busy;
1178:L6470.c       ****                     USB_transmit[3] = T_Motor_Busy >> 8; 
1179:L6470.c       ****                     break;
1180:L6470.c       ****                 }
1181:L6470.c       ****                 case 29:
1182:L6470.c       ****                 {
1183:L6470.c       ****                     USB_transmit[2] = Wrong_Command_Received;
1184:L6470.c       ****                     USB_transmit[3] = Wrong_Command_Received >> 8; 
1185:L6470.c       ****                     break;
1186:L6470.c       ****                 }
1187:L6470.c       ****                 case 30:
1188:L6470.c       ****                 {
1189:L6470.c       ****                     USB_transmit[2] = PCB_Paused;
1190:L6470.c       ****                     USB_transmit[3] = PCB_Paused >> 8; 
1191:L6470.c       ****                     break;
1192:L6470.c       ****                 }
1193:L6470.c       ****                 case 31:
1194:L6470.c       ****                 {
1195:L6470.c       ****                     USB_transmit[2] = PCB_Busy;
1196:L6470.c       ****                     USB_transmit[3] = PCB_Busy >> 8; 
1197:L6470.c       ****                     break;
1198:L6470.c       ****                 }
1199:L6470.c       ****                 case 32:
1200:L6470.c       ****                 {
1201:L6470.c       ****                     USB_transmit[2] = All_Motors_Homing_Not_Done;
1202:L6470.c       ****                     USB_transmit[3] = All_Motors_Homing_Not_Done >> 8; 
1203:L6470.c       ****                     break;
1204:L6470.c       ****                 }
1205:L6470.c       ****             }
1206:L6470.c       ****         }
1207:L6470.c       ****         USB_transmit[4] = (X_QuadPosition);
1208:L6470.c       ****         USB_transmit[5] = (X_QuadPosition) >> 8;
1209:L6470.c       ****         USB_transmit[6] = (X_QuadPosition) >> 16;
1210:L6470.c       ****         USB_transmit[7] = (X_QuadPosition) >> 24;
1211:L6470.c       ****         USB_transmit[8] = (Y_QuadPosition);
1212:L6470.c       ****         USB_transmit[9] = (Y_QuadPosition) >> 8;
1213:L6470.c       ****         USB_transmit[10] = (Y_QuadPosition) >> 16;
1214:L6470.c       ****         USB_transmit[11] = (Y_QuadPosition) >> 24;
1215:L6470.c       ****         USB_transmit[12] = Z_QuadPosition;
1216:L6470.c       ****         USB_transmit[13] = Z_QuadPosition >> 8;
1217:L6470.c       ****         USB_transmit[14] = Z_QuadPosition >> 16;
1218:L6470.c       ****         USB_transmit[15] = Z_QuadPosition >> 24;
1219:L6470.c       ****         USB_transmit[16] = T_QuadPosition;
1220:L6470.c       ****         USB_transmit[17] = T_QuadPosition >> 8;
1221:L6470.c       ****         USB_transmit[18] = T_QuadPosition >> 16;
1222:L6470.c       ****         USB_transmit[19] = T_QuadPosition >> 24;
1223:L6470.c       **** //        USB_transmit[20] = PWM_Comare_Value_White;
1224:L6470.c       **** //        USB_transmit[21] = PWM_Comare_Value_White >> 8;
1225:L6470.c       ****         USB_transmit[22] = 0;
1226:L6470.c       ****         USB_transmit[23] = 0;
ARM GAS  C:\Users\Revanth\AppData\Local\Temp\ccSEzD1d.s 			page 28


1227:L6470.c       ****         USB_transmit[24] = 0;
1228:L6470.c       ****         USB_transmit[25] = 0;
1229:L6470.c       ****         USB_transmit[26] = 0;
1230:L6470.c       ****         USB_transmit[27] = 0;
1231:L6470.c       ****         USB_transmit[28] = Motor_Speed_X;
1232:L6470.c       ****         USB_transmit[29] = Motor_Speed_X >> 8;
1233:L6470.c       ****         USB_transmit[30] = Motor_Speed_Y;
1234:L6470.c       ****         USB_transmit[31] = Motor_Speed_Y >> 8;
1235:L6470.c       ****         USB_transmit[32] = Motor_Speed_Z;
1236:L6470.c       ****         USB_transmit[33] = Motor_Speed_Z >> 8;
1237:L6470.c       ****         USB_transmit[34] = 0x00;
1238:L6470.c       ****         USB_transmit[35] = 0x00 >> 8;
1239:L6470.c       ****         USB_transmit[36] = 0x00;
1240:L6470.c       ****         USB_transmit[37] = 0x00;
1241:L6470.c       ****         USB_transmit[38] = 0x00;
1242:L6470.c       ****         USB_transmit[39] = Firmware_Version;
1243:L6470.c       ****         USB_transmit[40] = 0;
1244:L6470.c       ****         USB_transmit[41] = 0;
1245:L6470.c       ****         USB_transmit[42] = 0;
1246:L6470.c       ****         USB_transmit[43] = 0;
1247:L6470.c       ****         USB_transmit[44] = 0;
1248:L6470.c       ****         USB_transmit[45] = 0;
1249:L6470.c       ****         
1250:L6470.c       ****         No_of_X_Cycle = 0;
1251:L6470.c       ****         No_of_Y_Cycle = 0;
1252:L6470.c       ****         No_of_Z_Cycle = 0;
1253:L6470.c       ****         //No_of_T_Cycle = 0;
1254:L6470.c       ****         
1255:L6470.c       ****         
1256:L6470.c       ****         
1257:L6470.c       ****         Write_Debug_UART_Char("Feedback Sent to Motherboard  \r\n");
1258:L6470.c       ****         USB_PutData(USB_transmit, 46);  //send data back to usb
1259:L6470.c       ****     
1260:L6470.c       **** }
1261:L6470.c       **** void USB_Detect_Indication_Via_LED()/* LED Indicator for USB detection. */
1262:L6470.c       **** {
 304              		.loc 1 1262 0
 305              		.cfi_startproc
 306              		@ args = 0, pretend = 0, frame = 0
 307              		@ frame_needed = 0, uses_anonymous_args = 0
 308              		@ link register save eliminated.
 309 0000 7047     		bx	lr
 310              		.cfi_endproc
 311              	.LFE92:
 312              		.size	USB_Detect_Indication_Via_LED, .-USB_Detect_Indication_Via_LED
 313 0002 00BF     		.section	.text.Clear_USB_RX_Buffer,"ax",%progbits
 314              		.align	2
 315              		.global	Clear_USB_RX_Buffer
 316              		.thumb
 317              		.thumb_func
 318              		.type	Clear_USB_RX_Buffer, %function
 319              	Clear_USB_RX_Buffer:
 320              	.LFB95:
1263:L6470.c       **** 
1264:L6470.c       **** }
1265:L6470.c       **** void Initialize_USB()/* Start the USB. */
1266:L6470.c       **** {
ARM GAS  C:\Users\Revanth\AppData\Local\Temp\ccSEzD1d.s 			page 29


1267:L6470.c       ****     USB_Start(0, USB_5V_OPERATION);   
1268:L6470.c       ****     while (0 == USB_GetConfiguration()) /* wait untill USB not found. */
1269:L6470.c       ****     {
1270:L6470.c       ****         Write_Debug_UART_Char("USB not Connected***********  \r\n");
1271:L6470.c       ****         CyDelayUs(1);
1272:L6470.c       ****     }
1273:L6470.c       ****     USB_CDC_Init();
1274:L6470.c       ****     Write_Debug_UART_Char("USB Connected  \r\n");
1275:L6470.c       ****     USB_EnableSofInt();  
1276:L6470.c       **** }
1277:L6470.c       **** void Is_USB_Unpluged()/* Check for changes in USB port reset if USB changes. */
1278:L6470.c       **** {
1279:L6470.c       ****    static bool dont_Execute_1st_Time=false;
1280:L6470.c       ****    if(USB_IsConfigurationChanged() != 0)
1281:L6470.c       ****    {
1282:L6470.c       ****     Beep_Twice();
1283:L6470.c       ****        if(USB_GetConfiguration() != 0)
1284:L6470.c       ****        {
1285:L6470.c       ****             if(dont_Execute_1st_Time)/* Ignore for the first time. */
1286:L6470.c       ****             {
1287:L6470.c       ****                 Write_Debug_UART_Char("USB Unpluged PCB resetting ***********  \r\n");
1288:L6470.c       ****                 UART_print_all_values();
1289:L6470.c       ****                 CyDelay(1);
1290:L6470.c       ****                 //CySoftwareReset();
1291:L6470.c       ****             }
1292:L6470.c       ****             dont_Execute_1st_Time = true;
1293:L6470.c       ****        }
1294:L6470.c       ****    }  
1295:L6470.c       **** }
1296:L6470.c       **** void Clear_USB_RX_Buffer()/* Initialize all USB_received 64 bits to 0. */
1297:L6470.c       **** {
 321              		.loc 1 1297 0
 322              		.cfi_startproc
 323              		@ args = 0, pretend = 0, frame = 0
 324              		@ frame_needed = 0, uses_anonymous_args = 0
 325              		@ link register save eliminated.
 326              	.LVL29:
1298:L6470.c       ****     int i =0;
1299:L6470.c       ****     for(i=0;i<65;i++)   //Initializing all bites to 0
 327              		.loc 1 1299 0
 328 0000 0023     		movs	r3, #0
 329 0002 03E0     		b	.L25
 330              	.LVL30:
 331              	.L26:
1300:L6470.c       ****         USB_received[i] = 0;   
 332              		.loc 1 1300 0 discriminator 3
 333 0004 0021     		movs	r1, #0
 334 0006 034A     		ldr	r2, .L27
 335 0008 D154     		strb	r1, [r2, r3]
1299:L6470.c       ****         USB_received[i] = 0;   
 336              		.loc 1 1299 0 discriminator 3
 337 000a 0133     		adds	r3, r3, #1
 338              	.LVL31:
 339              	.L25:
1299:L6470.c       ****         USB_received[i] = 0;   
 340              		.loc 1 1299 0 is_stmt 0 discriminator 1
 341 000c 402B     		cmp	r3, #64
ARM GAS  C:\Users\Revanth\AppData\Local\Temp\ccSEzD1d.s 			page 30


 342 000e F9DD     		ble	.L26
1301:L6470.c       **** }
 343              		.loc 1 1301 0 is_stmt 1
 344 0010 7047     		bx	lr
 345              	.L28:
 346 0012 00BF     		.align	2
 347              	.L27:
 348 0014 00000000 		.word	USB_received
 349              		.cfi_endproc
 350              	.LFE95:
 351              		.size	Clear_USB_RX_Buffer, .-Clear_USB_RX_Buffer
 352              		.section	.text.Clear_Pending_USB_Data,"ax",%progbits
 353              		.align	2
 354              		.global	Clear_Pending_USB_Data
 355              		.thumb
 356              		.thumb_func
 357              		.type	Clear_Pending_USB_Data, %function
 358              	Clear_Pending_USB_Data:
 359              	.LFB96:
1302:L6470.c       **** void Clear_Pending_USB_Data()/* Clear all pending data on usb RX buffer. */
1303:L6470.c       **** {
 360              		.loc 1 1303 0
 361              		.cfi_startproc
 362              		@ args = 0, pretend = 0, frame = 64
 363              		@ frame_needed = 0, uses_anonymous_args = 0
 364 0000 10B5     		push	{r4, lr}
 365              		.cfi_def_cfa_offset 8
 366              		.cfi_offset 4, -8
 367              		.cfi_offset 14, -4
 368 0002 90B0     		sub	sp, sp, #64
 369              		.cfi_def_cfa_offset 72
 370              	.LVL32:
1304:L6470.c       ****     int i;
1305:L6470.c       ****     uint8 USB_received_temp[64];
1306:L6470.c       ****     for(i=0;i<5;i++)
 371              		.loc 1 1306 0
 372 0004 0024     		movs	r4, #0
 373 0006 03E0     		b	.L30
 374              	.LVL33:
 375              	.L31:
1307:L6470.c       ****         {       
1308:L6470.c       ****             USB_GetAll(USB_received_temp);/* read and clear all Pending data. */
 376              		.loc 1 1308 0 discriminator 3
 377 0008 6846     		mov	r0, sp
 378 000a FFF7FEFF 		bl	USB_GetAll
 379              	.LVL34:
1306:L6470.c       ****         {       
 380              		.loc 1 1306 0 discriminator 3
 381 000e 0134     		adds	r4, r4, #1
 382              	.LVL35:
 383              	.L30:
1306:L6470.c       ****         {       
 384              		.loc 1 1306 0 is_stmt 0 discriminator 1
 385 0010 042C     		cmp	r4, #4
 386 0012 F9DD     		ble	.L31
1309:L6470.c       ****         }    
1310:L6470.c       **** }
ARM GAS  C:\Users\Revanth\AppData\Local\Temp\ccSEzD1d.s 			page 31


 387              		.loc 1 1310 0 is_stmt 1
 388 0014 10B0     		add	sp, sp, #64
 389              		.cfi_def_cfa_offset 8
 390              		@ sp needed
 391 0016 10BD     		pop	{r4, pc}
 392              		.cfi_endproc
 393              	.LFE96:
 394              		.size	Clear_Pending_USB_Data, .-Clear_Pending_USB_Data
 395              		.section	.text.Write_Debug_UART_Char,"ax",%progbits
 396              		.align	2
 397              		.global	Write_Debug_UART_Char
 398              		.thumb
 399              		.thumb_func
 400              		.type	Write_Debug_UART_Char, %function
 401              	Write_Debug_UART_Char:
 402              	.LFB97:
1311:L6470.c       **** void Write_Debug_UART_Char(char Str[])
1312:L6470.c       **** {
 403              		.loc 1 1312 0
 404              		.cfi_startproc
 405              		@ args = 0, pretend = 0, frame = 0
 406              		@ frame_needed = 0, uses_anonymous_args = 0
 407              	.LVL36:
 408 0000 10B5     		push	{r4, lr}
 409              		.cfi_def_cfa_offset 8
 410              		.cfi_offset 4, -8
 411              		.cfi_offset 14, -4
 412 0002 0446     		mov	r4, r0
 413              	.LBB2:
1313:L6470.c       ****     //if(Pin_UART_Enable_Read()==0)
1314:L6470.c       ****     {
1315:L6470.c       ****         static char Str_Last_One[] = "ShonitV2.2\r\n";
1316:L6470.c       ****         if((strncmp(Str_Last_One, Str, 10)!=0))
 414              		.loc 1 1316 0
 415 0004 0A22     		movs	r2, #10
 416 0006 0146     		mov	r1, r0
 417 0008 0748     		ldr	r0, .L36
 418              	.LVL37:
 419 000a FFF7FEFF 		bl	strncmp
 420              	.LVL38:
 421 000e 50B1     		cbz	r0, .L33
1317:L6470.c       ****     	{
1318:L6470.c       ****             UART_PCB_LOG_PutString(Str);
 422              		.loc 1 1318 0
 423 0010 2046     		mov	r0, r4
 424 0012 FFF7FEFF 		bl	UART_PCB_LOG_PutString
 425              	.LVL39:
1319:L6470.c       ****             CyDelayUs(1);
 426              		.loc 1 1319 0
 427 0016 0120     		movs	r0, #1
 428 0018 FFF7FEFF 		bl	CyDelayUs
 429              	.LVL40:
1320:L6470.c       ****             strncpy(Str_Last_One, Str, 10); 
 430              		.loc 1 1320 0
 431 001c 0A22     		movs	r2, #10
 432 001e 2146     		mov	r1, r4
 433 0020 0148     		ldr	r0, .L36
ARM GAS  C:\Users\Revanth\AppData\Local\Temp\ccSEzD1d.s 			page 32


 434 0022 FFF7FEFF 		bl	strncpy
 435              	.LVL41:
 436              	.L33:
 437 0026 10BD     		pop	{r4, pc}
 438              	.LVL42:
 439              	.L37:
 440              		.align	2
 441              	.L36:
 442 0028 00000000 		.word	.LANCHOR1
 443              	.LBE2:
 444              		.cfi_endproc
 445              	.LFE97:
 446              		.size	Write_Debug_UART_Char, .-Write_Debug_UART_Char
 447              		.section	.text.Beep_Once,"ax",%progbits
 448              		.align	2
 449              		.global	Beep_Once
 450              		.thumb
 451              		.thumb_func
 452              		.type	Beep_Once, %function
 453              	Beep_Once:
 454              	.LFB82:
 804:L6470.c       ****     PWM_Buzzer_WriteCompare(2500);
 455              		.loc 1 804 0
 456              		.cfi_startproc
 457              		@ args = 0, pretend = 0, frame = 0
 458              		@ frame_needed = 0, uses_anonymous_args = 0
 459 0000 08B5     		push	{r3, lr}
 460              		.cfi_def_cfa_offset 8
 461              		.cfi_offset 3, -8
 462              		.cfi_offset 14, -4
 805:L6470.c       ****     CyDelay(200);
 463              		.loc 1 805 0
 464 0002 40F6C410 		movw	r0, #2500
 465 0006 FFF7FEFF 		bl	PWM_Buzzer_WriteCompare
 466              	.LVL43:
 806:L6470.c       ****     PWM_Buzzer_WriteCompare(0);
 467              		.loc 1 806 0
 468 000a C820     		movs	r0, #200
 469 000c FFF7FEFF 		bl	CyDelay
 470              	.LVL44:
 807:L6470.c       ****     Write_Debug_UART_Char("Beeped Once  \r\n");
 471              		.loc 1 807 0
 472 0010 0020     		movs	r0, #0
 473 0012 FFF7FEFF 		bl	PWM_Buzzer_WriteCompare
 474              	.LVL45:
 808:L6470.c       ****     return 0;
 475              		.loc 1 808 0
 476 0016 0248     		ldr	r0, .L40
 477 0018 FFF7FEFF 		bl	Write_Debug_UART_Char
 478              	.LVL46:
 810:L6470.c       **** 
 479              		.loc 1 810 0
 480 001c 0020     		movs	r0, #0
 481 001e 08BD     		pop	{r3, pc}
 482              	.L41:
 483              		.align	2
 484              	.L40:
ARM GAS  C:\Users\Revanth\AppData\Local\Temp\ccSEzD1d.s 			page 33


 485 0020 00000000 		.word	.LC0
 486              		.cfi_endproc
 487              	.LFE82:
 488              		.size	Beep_Once, .-Beep_Once
 489              		.section	.text.Beep_Twice,"ax",%progbits
 490              		.align	2
 491              		.global	Beep_Twice
 492              		.thumb
 493              		.thumb_func
 494              		.type	Beep_Twice, %function
 495              	Beep_Twice:
 496              	.LFB83:
 813:L6470.c       ****     PWM_Buzzer_WriteCompare(2500);
 497              		.loc 1 813 0
 498              		.cfi_startproc
 499              		@ args = 0, pretend = 0, frame = 0
 500              		@ frame_needed = 0, uses_anonymous_args = 0
 501 0000 08B5     		push	{r3, lr}
 502              		.cfi_def_cfa_offset 8
 503              		.cfi_offset 3, -8
 504              		.cfi_offset 14, -4
 814:L6470.c       ****     CyDelay(200);
 505              		.loc 1 814 0
 506 0002 40F6C410 		movw	r0, #2500
 507 0006 FFF7FEFF 		bl	PWM_Buzzer_WriteCompare
 508              	.LVL47:
 815:L6470.c       ****     PWM_Buzzer_WriteCompare(0);
 509              		.loc 1 815 0
 510 000a C820     		movs	r0, #200
 511 000c FFF7FEFF 		bl	CyDelay
 512              	.LVL48:
 816:L6470.c       ****     CyDelay(200);
 513              		.loc 1 816 0
 514 0010 0020     		movs	r0, #0
 515 0012 FFF7FEFF 		bl	PWM_Buzzer_WriteCompare
 516              	.LVL49:
 817:L6470.c       ****     PWM_Buzzer_WriteCompare(2500);
 517              		.loc 1 817 0
 518 0016 C820     		movs	r0, #200
 519 0018 FFF7FEFF 		bl	CyDelay
 520              	.LVL50:
 818:L6470.c       ****     CyDelay(200);
 521              		.loc 1 818 0
 522 001c 40F6C410 		movw	r0, #2500
 523 0020 FFF7FEFF 		bl	PWM_Buzzer_WriteCompare
 524              	.LVL51:
 819:L6470.c       ****     PWM_Buzzer_WriteCompare(0);
 525              		.loc 1 819 0
 526 0024 C820     		movs	r0, #200
 527 0026 FFF7FEFF 		bl	CyDelay
 528              	.LVL52:
 820:L6470.c       ****     Write_Debug_UART_Char("Beeped Twice  \r\n");
 529              		.loc 1 820 0
 530 002a 0020     		movs	r0, #0
 531 002c FFF7FEFF 		bl	PWM_Buzzer_WriteCompare
 532              	.LVL53:
 821:L6470.c       ****     return 0;
ARM GAS  C:\Users\Revanth\AppData\Local\Temp\ccSEzD1d.s 			page 34


 533              		.loc 1 821 0
 534 0030 0248     		ldr	r0, .L44
 535 0032 FFF7FEFF 		bl	Write_Debug_UART_Char
 536              	.LVL54:
 823:L6470.c       **** 
 537              		.loc 1 823 0
 538 0036 0020     		movs	r0, #0
 539 0038 08BD     		pop	{r3, pc}
 540              	.L45:
 541 003a 00BF     		.align	2
 542              	.L44:
 543 003c 10000000 		.word	.LC1
 544              		.cfi_endproc
 545              	.LFE83:
 546              		.size	Beep_Twice, .-Beep_Twice
 547              		.section	.text.Long_Beep,"ax",%progbits
 548              		.align	2
 549              		.global	Long_Beep
 550              		.thumb
 551              		.thumb_func
 552              		.type	Long_Beep, %function
 553              	Long_Beep:
 554              	.LFB84:
 826:L6470.c       ****     PWM_Buzzer_WriteCompare(2500);
 555              		.loc 1 826 0
 556              		.cfi_startproc
 557              		@ args = 0, pretend = 0, frame = 0
 558              		@ frame_needed = 0, uses_anonymous_args = 0
 559 0000 08B5     		push	{r3, lr}
 560              		.cfi_def_cfa_offset 8
 561              		.cfi_offset 3, -8
 562              		.cfi_offset 14, -4
 827:L6470.c       ****     CyDelay(2000);
 563              		.loc 1 827 0
 564 0002 40F6C410 		movw	r0, #2500
 565 0006 FFF7FEFF 		bl	PWM_Buzzer_WriteCompare
 566              	.LVL55:
 828:L6470.c       ****     PWM_Buzzer_WriteCompare(0);
 567              		.loc 1 828 0
 568 000a 4FF4FA60 		mov	r0, #2000
 569 000e FFF7FEFF 		bl	CyDelay
 570              	.LVL56:
 829:L6470.c       ****     CyDelay(200);
 571              		.loc 1 829 0
 572 0012 0020     		movs	r0, #0
 573 0014 FFF7FEFF 		bl	PWM_Buzzer_WriteCompare
 574              	.LVL57:
 830:L6470.c       ****     
 575              		.loc 1 830 0
 576 0018 C820     		movs	r0, #200
 577 001a FFF7FEFF 		bl	CyDelay
 578              	.LVL58:
 832:L6470.c       ****     return 0;
 579              		.loc 1 832 0
 580 001e 0248     		ldr	r0, .L48
 581 0020 FFF7FEFF 		bl	Write_Debug_UART_Char
 582              	.LVL59:
ARM GAS  C:\Users\Revanth\AppData\Local\Temp\ccSEzD1d.s 			page 35


 834:L6470.c       **** 
 583              		.loc 1 834 0
 584 0024 0020     		movs	r0, #0
 585 0026 08BD     		pop	{r3, pc}
 586              	.L49:
 587              		.align	2
 588              	.L48:
 589 0028 24000000 		.word	.LC2
 590              		.cfi_endproc
 591              	.LFE84:
 592              		.size	Long_Beep, .-Long_Beep
 593              		.section	.text.Send_Feedback_to_USB,"ax",%progbits
 594              		.align	2
 595              		.global	Send_Feedback_to_USB
 596              		.thumb
 597              		.thumb_func
 598              		.type	Send_Feedback_to_USB, %function
 599              	Send_Feedback_to_USB:
 600              	.LFB91:
 996:L6470.c       ****      Read_All_Optical_Encoder();
 601              		.loc 1 996 0
 602              		.cfi_startproc
 603              		@ args = 0, pretend = 0, frame = 0
 604              		@ frame_needed = 0, uses_anonymous_args = 0
 605              	.LVL60:
 606 0000 10B5     		push	{r4, lr}
 607              		.cfi_def_cfa_offset 8
 608              		.cfi_offset 4, -8
 609              		.cfi_offset 14, -4
 610 0002 0446     		mov	r4, r0
 997:L6470.c       **** 
 611              		.loc 1 997 0
 612 0004 FFF7FEFF 		bl	Read_All_Optical_Encoder
 613              	.LVL61:
1001:L6470.c       ****         {            
 614              		.loc 1 1001 0
 615 0008 4CB9     		cbnz	r4, .L51
1003:L6470.c       ****             USB_transmit[1] = (command >> 8);
 616              		.loc 1 1003 0
 617 000a A34B     		ldr	r3, .L87
 618 000c 1A68     		ldr	r2, [r3]
 619 000e A34B     		ldr	r3, .L87+4
 620 0010 1A70     		strb	r2, [r3]
1004:L6470.c       ****             USB_transmit[2] = No_Error;
 621              		.loc 1 1004 0
 622 0012 120A     		lsrs	r2, r2, #8
 623 0014 5A70     		strb	r2, [r3, #1]
1005:L6470.c       ****             USB_transmit[3] = No_Error >> 8;
 624              		.loc 1 1005 0
 625 0016 0022     		movs	r2, #0
 626 0018 9A70     		strb	r2, [r3, #2]
1006:L6470.c       ****         }
 627              		.loc 1 1006 0
 628 001a DA70     		strb	r2, [r3, #3]
 629 001c D4E0     		b	.L52
 630              	.L51:
1010:L6470.c       ****             {
ARM GAS  C:\Users\Revanth\AppData\Local\Temp\ccSEzD1d.s 			page 36


 631              		.loc 1 1010 0
 632 001e 013C     		subs	r4, r4, #1
 633              	.LVL62:
 634 0020 1F2C     		cmp	r4, #31
 635 0022 00F2D180 		bhi	.L52
 636 0026 DFE804F0 		tbb	[pc, r4]
 637              	.L54:
 638 002a 10       		.byte	(.L53-.L54)/2
 639 002b 16       		.byte	(.L55-.L54)/2
 640 002c 1C       		.byte	(.L56-.L54)/2
 641 002d 22       		.byte	(.L57-.L54)/2
 642 002e 28       		.byte	(.L58-.L54)/2
 643 002f 2E       		.byte	(.L59-.L54)/2
 644 0030 34       		.byte	(.L60-.L54)/2
 645 0031 3A       		.byte	(.L61-.L54)/2
 646 0032 40       		.byte	(.L62-.L54)/2
 647 0033 46       		.byte	(.L63-.L54)/2
 648 0034 4C       		.byte	(.L64-.L54)/2
 649 0035 52       		.byte	(.L65-.L54)/2
 650 0036 58       		.byte	(.L66-.L54)/2
 651 0037 5E       		.byte	(.L67-.L54)/2
 652 0038 64       		.byte	(.L68-.L54)/2
 653 0039 6A       		.byte	(.L69-.L54)/2
 654 003a 70       		.byte	(.L70-.L54)/2
 655 003b 76       		.byte	(.L71-.L54)/2
 656 003c 7C       		.byte	(.L72-.L54)/2
 657 003d 82       		.byte	(.L73-.L54)/2
 658 003e 88       		.byte	(.L74-.L54)/2
 659 003f 8E       		.byte	(.L75-.L54)/2
 660 0040 94       		.byte	(.L76-.L54)/2
 661 0041 9A       		.byte	(.L77-.L54)/2
 662 0042 A0       		.byte	(.L78-.L54)/2
 663 0043 A6       		.byte	(.L79-.L54)/2
 664 0044 AC       		.byte	(.L80-.L54)/2
 665 0045 B2       		.byte	(.L81-.L54)/2
 666 0046 B8       		.byte	(.L82-.L54)/2
 667 0047 BE       		.byte	(.L83-.L54)/2
 668 0048 C4       		.byte	(.L84-.L54)/2
 669 0049 CA       		.byte	(.L85-.L54)/2
 670              		.p2align 1
 671              	.L53:
1014:L6470.c       ****                     USB_transmit[3] = X_Motor_Not_Working >> 8; 
 672              		.loc 1 1014 0
 673 004a 944B     		ldr	r3, .L87+4
 674 004c 0122     		movs	r2, #1
 675 004e 9A70     		strb	r2, [r3, #2]
1015:L6470.c       ****                     break;
 676              		.loc 1 1015 0
 677 0050 FA22     		movs	r2, #250
 678 0052 DA70     		strb	r2, [r3, #3]
1016:L6470.c       ****                 }
 679              		.loc 1 1016 0
 680 0054 B8E0     		b	.L52
 681              	.L55:
1020:L6470.c       ****                     USB_transmit[3] = X_Encoder_Not_Working >> 8; 
 682              		.loc 1 1020 0
 683 0056 914B     		ldr	r3, .L87+4
ARM GAS  C:\Users\Revanth\AppData\Local\Temp\ccSEzD1d.s 			page 37


 684 0058 0222     		movs	r2, #2
 685 005a 9A70     		strb	r2, [r3, #2]
1021:L6470.c       ****                     break;
 686              		.loc 1 1021 0
 687 005c FA22     		movs	r2, #250
 688 005e DA70     		strb	r2, [r3, #3]
1022:L6470.c       ****                 }
 689              		.loc 1 1022 0
 690 0060 B2E0     		b	.L52
 691              	.L56:
1026:L6470.c       ****                     USB_transmit[3] = X_Switch_Not_Working >> 8; 
 692              		.loc 1 1026 0
 693 0062 8E4B     		ldr	r3, .L87+4
 694 0064 1722     		movs	r2, #23
 695 0066 9A70     		strb	r2, [r3, #2]
1027:L6470.c       ****                     break;
 696              		.loc 1 1027 0
 697 0068 FA22     		movs	r2, #250
 698 006a DA70     		strb	r2, [r3, #3]
1028:L6470.c       ****                 }
 699              		.loc 1 1028 0
 700 006c ACE0     		b	.L52
 701              	.L57:
1032:L6470.c       ****                     USB_transmit[3] = X_Motor_Driver_Fault >> 8; 
 702              		.loc 1 1032 0
 703 006e 8B4B     		ldr	r3, .L87+4
 704 0070 0722     		movs	r2, #7
 705 0072 9A70     		strb	r2, [r3, #2]
1033:L6470.c       ****                     break;
 706              		.loc 1 1033 0
 707 0074 FA22     		movs	r2, #250
 708 0076 DA70     		strb	r2, [r3, #3]
1034:L6470.c       ****                 }
 709              		.loc 1 1034 0
 710 0078 A6E0     		b	.L52
 711              	.L58:
1038:L6470.c       ****                     USB_transmit[3] = Requested_X_Step_Exceeding_The_Limit >> 8; 
 712              		.loc 1 1038 0
 713 007a 884B     		ldr	r3, .L87+4
 714 007c 1122     		movs	r2, #17
 715 007e 9A70     		strb	r2, [r3, #2]
1039:L6470.c       ****                     break;
 716              		.loc 1 1039 0
 717 0080 FA22     		movs	r2, #250
 718 0082 DA70     		strb	r2, [r3, #3]
1040:L6470.c       ****                 }
 719              		.loc 1 1040 0
 720 0084 A0E0     		b	.L52
 721              	.L59:
1044:L6470.c       ****                     USB_transmit[3] = X_Homing_Not_Done_Yet >> 8; 
 722              		.loc 1 1044 0
 723 0086 854B     		ldr	r3, .L87+4
 724 0088 1D22     		movs	r2, #29
 725 008a 9A70     		strb	r2, [r3, #2]
1045:L6470.c       ****                     break;
 726              		.loc 1 1045 0
 727 008c FA22     		movs	r2, #250
ARM GAS  C:\Users\Revanth\AppData\Local\Temp\ccSEzD1d.s 			page 38


 728 008e DA70     		strb	r2, [r3, #3]
1046:L6470.c       ****                 }
 729              		.loc 1 1046 0
 730 0090 9AE0     		b	.L52
 731              	.L60:
1050:L6470.c       ****                     USB_transmit[3] = X_Motor_Busy >> 8; 
 732              		.loc 1 1050 0
 733 0092 824B     		ldr	r3, .L87+4
 734 0094 2522     		movs	r2, #37
 735 0096 9A70     		strb	r2, [r3, #2]
1051:L6470.c       ****                     break;
 736              		.loc 1 1051 0
 737 0098 FA22     		movs	r2, #250
 738 009a DA70     		strb	r2, [r3, #3]
1052:L6470.c       ****                 }
 739              		.loc 1 1052 0
 740 009c 94E0     		b	.L52
 741              	.L61:
1056:L6470.c       ****                     USB_transmit[3] = Y_Motor_Not_Working >> 8; 
 742              		.loc 1 1056 0
 743 009e 7F4B     		ldr	r3, .L87+4
 744 00a0 0322     		movs	r2, #3
 745 00a2 9A70     		strb	r2, [r3, #2]
1057:L6470.c       ****                     break;
 746              		.loc 1 1057 0
 747 00a4 FA22     		movs	r2, #250
 748 00a6 DA70     		strb	r2, [r3, #3]
1058:L6470.c       ****                 }
 749              		.loc 1 1058 0
 750 00a8 8EE0     		b	.L52
 751              	.L62:
1062:L6470.c       ****                     USB_transmit[3] = Y_Encoder_Not_Working >> 8; 
 752              		.loc 1 1062 0
 753 00aa 7C4B     		ldr	r3, .L87+4
 754 00ac 0422     		movs	r2, #4
 755 00ae 9A70     		strb	r2, [r3, #2]
1063:L6470.c       ****                     break;
 756              		.loc 1 1063 0
 757 00b0 FA22     		movs	r2, #250
 758 00b2 DA70     		strb	r2, [r3, #3]
1064:L6470.c       ****                 }
 759              		.loc 1 1064 0
 760 00b4 88E0     		b	.L52
 761              	.L63:
1068:L6470.c       ****                     USB_transmit[3] = Y_Switch_Not_Working >> 8; 
 762              		.loc 1 1068 0
 763 00b6 794B     		ldr	r3, .L87+4
 764 00b8 1822     		movs	r2, #24
 765 00ba 9A70     		strb	r2, [r3, #2]
1069:L6470.c       ****                     break;
 766              		.loc 1 1069 0
 767 00bc FA22     		movs	r2, #250
 768 00be DA70     		strb	r2, [r3, #3]
1070:L6470.c       ****                 }
 769              		.loc 1 1070 0
 770 00c0 82E0     		b	.L52
 771              	.L64:
ARM GAS  C:\Users\Revanth\AppData\Local\Temp\ccSEzD1d.s 			page 39


1074:L6470.c       ****                     USB_transmit[3] = Y_Motor_Driver_Fault >> 8; 
 772              		.loc 1 1074 0
 773 00c2 764B     		ldr	r3, .L87+4
 774 00c4 0822     		movs	r2, #8
 775 00c6 9A70     		strb	r2, [r3, #2]
1075:L6470.c       ****                     break;
 776              		.loc 1 1075 0
 777 00c8 FA22     		movs	r2, #250
 778 00ca DA70     		strb	r2, [r3, #3]
1076:L6470.c       ****                 }
 779              		.loc 1 1076 0
 780 00cc 7CE0     		b	.L52
 781              	.L65:
1080:L6470.c       ****                     USB_transmit[3] = Requested_Y_Step_Exceeding_The_Limit >> 8; 
 782              		.loc 1 1080 0
 783 00ce 734B     		ldr	r3, .L87+4
 784 00d0 1222     		movs	r2, #18
 785 00d2 9A70     		strb	r2, [r3, #2]
1081:L6470.c       ****                     break;
 786              		.loc 1 1081 0
 787 00d4 FA22     		movs	r2, #250
 788 00d6 DA70     		strb	r2, [r3, #3]
1082:L6470.c       ****                 }
 789              		.loc 1 1082 0
 790 00d8 76E0     		b	.L52
 791              	.L66:
1086:L6470.c       ****                     USB_transmit[3] = Y_Homing_Not_Done_Yet >> 8; 
 792              		.loc 1 1086 0
 793 00da 704B     		ldr	r3, .L87+4
 794 00dc 1E22     		movs	r2, #30
 795 00de 9A70     		strb	r2, [r3, #2]
1087:L6470.c       ****                     break;
 796              		.loc 1 1087 0
 797 00e0 FA22     		movs	r2, #250
 798 00e2 DA70     		strb	r2, [r3, #3]
1088:L6470.c       ****                 }
 799              		.loc 1 1088 0
 800 00e4 70E0     		b	.L52
 801              	.L67:
1092:L6470.c       ****                     USB_transmit[3] = Y_Motor_Busy >> 8; 
 802              		.loc 1 1092 0
 803 00e6 6D4B     		ldr	r3, .L87+4
 804 00e8 2622     		movs	r2, #38
 805 00ea 9A70     		strb	r2, [r3, #2]
1093:L6470.c       ****                     break;
 806              		.loc 1 1093 0
 807 00ec FA22     		movs	r2, #250
 808 00ee DA70     		strb	r2, [r3, #3]
1094:L6470.c       ****                 }
 809              		.loc 1 1094 0
 810 00f0 6AE0     		b	.L52
 811              	.L68:
1098:L6470.c       ****                     USB_transmit[3] = Z_Motor_Not_Working >> 8; 
 812              		.loc 1 1098 0
 813 00f2 6A4B     		ldr	r3, .L87+4
 814 00f4 0522     		movs	r2, #5
 815 00f6 9A70     		strb	r2, [r3, #2]
ARM GAS  C:\Users\Revanth\AppData\Local\Temp\ccSEzD1d.s 			page 40


1099:L6470.c       ****                     break;
 816              		.loc 1 1099 0
 817 00f8 FA22     		movs	r2, #250
 818 00fa DA70     		strb	r2, [r3, #3]
1100:L6470.c       ****                 }
 819              		.loc 1 1100 0
 820 00fc 64E0     		b	.L52
 821              	.L69:
1104:L6470.c       ****                     USB_transmit[3] = Z_Encoder_Not_Working >> 8; 
 822              		.loc 1 1104 0
 823 00fe 674B     		ldr	r3, .L87+4
 824 0100 0622     		movs	r2, #6
 825 0102 9A70     		strb	r2, [r3, #2]
1105:L6470.c       ****                     break;
 826              		.loc 1 1105 0
 827 0104 FA22     		movs	r2, #250
 828 0106 DA70     		strb	r2, [r3, #3]
1106:L6470.c       ****                 }
 829              		.loc 1 1106 0
 830 0108 5EE0     		b	.L52
 831              	.L70:
1110:L6470.c       ****                     USB_transmit[3] = Z_Switch_Not_Working >> 8; 
 832              		.loc 1 1110 0
 833 010a 644B     		ldr	r3, .L87+4
 834 010c 1922     		movs	r2, #25
 835 010e 9A70     		strb	r2, [r3, #2]
1111:L6470.c       ****                     break;
 836              		.loc 1 1111 0
 837 0110 FA22     		movs	r2, #250
 838 0112 DA70     		strb	r2, [r3, #3]
1112:L6470.c       ****                 }
 839              		.loc 1 1112 0
 840 0114 58E0     		b	.L52
 841              	.L71:
1116:L6470.c       ****                     USB_transmit[3] = Z_Motor_Driver_Fault >> 8; 
 842              		.loc 1 1116 0
 843 0116 614B     		ldr	r3, .L87+4
 844 0118 0922     		movs	r2, #9
 845 011a 9A70     		strb	r2, [r3, #2]
1117:L6470.c       ****                     break;
 846              		.loc 1 1117 0
 847 011c FA22     		movs	r2, #250
 848 011e DA70     		strb	r2, [r3, #3]
1118:L6470.c       ****                 }
 849              		.loc 1 1118 0
 850 0120 52E0     		b	.L52
 851              	.L72:
1122:L6470.c       ****                     USB_transmit[3] = Requested_Z_Step_Exceeding_The_Limit >> 8; 
 852              		.loc 1 1122 0
 853 0122 5E4B     		ldr	r3, .L87+4
 854 0124 1322     		movs	r2, #19
 855 0126 9A70     		strb	r2, [r3, #2]
1123:L6470.c       ****                     break;
 856              		.loc 1 1123 0
 857 0128 FA22     		movs	r2, #250
 858 012a DA70     		strb	r2, [r3, #3]
1124:L6470.c       ****                 }
ARM GAS  C:\Users\Revanth\AppData\Local\Temp\ccSEzD1d.s 			page 41


 859              		.loc 1 1124 0
 860 012c 4CE0     		b	.L52
 861              	.L73:
1128:L6470.c       ****                     USB_transmit[3] = Z_Homing_Not_Done_Yet >> 8; 
 862              		.loc 1 1128 0
 863 012e 5B4B     		ldr	r3, .L87+4
 864 0130 1F22     		movs	r2, #31
 865 0132 9A70     		strb	r2, [r3, #2]
1129:L6470.c       ****                     break;
 866              		.loc 1 1129 0
 867 0134 FA22     		movs	r2, #250
 868 0136 DA70     		strb	r2, [r3, #3]
1130:L6470.c       ****                 }
 869              		.loc 1 1130 0
 870 0138 46E0     		b	.L52
 871              	.L74:
1134:L6470.c       ****                     USB_transmit[3] = Z_Motor_Busy >> 8; 
 872              		.loc 1 1134 0
 873 013a 584B     		ldr	r3, .L87+4
 874 013c 2722     		movs	r2, #39
 875 013e 9A70     		strb	r2, [r3, #2]
1135:L6470.c       ****                     break;
 876              		.loc 1 1135 0
 877 0140 FA22     		movs	r2, #250
 878 0142 DA70     		strb	r2, [r3, #3]
1136:L6470.c       ****                 }
 879              		.loc 1 1136 0
 880 0144 40E0     		b	.L52
 881              	.L75:
1140:L6470.c       ****                     USB_transmit[3] =  T_Motor_Not_Working>> 8; 
 882              		.loc 1 1140 0
 883 0146 554B     		ldr	r3, .L87+4
 884 0148 2B22     		movs	r2, #43
 885 014a 9A70     		strb	r2, [r3, #2]
1141:L6470.c       ****                     break;
 886              		.loc 1 1141 0
 887 014c FA22     		movs	r2, #250
 888 014e DA70     		strb	r2, [r3, #3]
1142:L6470.c       ****                 }
 889              		.loc 1 1142 0
 890 0150 3AE0     		b	.L52
 891              	.L76:
1146:L6470.c       ****                     USB_transmit[3] =  T_Encoder_Not_Working>> 8; 
 892              		.loc 1 1146 0
 893 0152 524B     		ldr	r3, .L87+4
 894 0154 2C22     		movs	r2, #44
 895 0156 9A70     		strb	r2, [r3, #2]
1147:L6470.c       ****                     break;
 896              		.loc 1 1147 0
 897 0158 FA22     		movs	r2, #250
 898 015a DA70     		strb	r2, [r3, #3]
1148:L6470.c       ****                 }
 899              		.loc 1 1148 0
 900 015c 34E0     		b	.L52
 901              	.L77:
1152:L6470.c       ****                     USB_transmit[3] =  T_Switch_Not_Working>> 8; 
 902              		.loc 1 1152 0
ARM GAS  C:\Users\Revanth\AppData\Local\Temp\ccSEzD1d.s 			page 42


 903 015e 4F4B     		ldr	r3, .L87+4
 904 0160 2D22     		movs	r2, #45
 905 0162 9A70     		strb	r2, [r3, #2]
1153:L6470.c       ****                     break;
 906              		.loc 1 1153 0
 907 0164 FA22     		movs	r2, #250
 908 0166 DA70     		strb	r2, [r3, #3]
1154:L6470.c       ****                 }
 909              		.loc 1 1154 0
 910 0168 2EE0     		b	.L52
 911              	.L78:
1159:L6470.c       ****                     USB_transmit[3] =  T_Motor_Driver_Fault>> 8; 
 912              		.loc 1 1159 0
 913 016a 4C4B     		ldr	r3, .L87+4
 914 016c 2E22     		movs	r2, #46
 915 016e 9A70     		strb	r2, [r3, #2]
1160:L6470.c       ****                     break;
 916              		.loc 1 1160 0
 917 0170 FA22     		movs	r2, #250
 918 0172 DA70     		strb	r2, [r3, #3]
1161:L6470.c       ****                 }
 919              		.loc 1 1161 0
 920 0174 28E0     		b	.L52
 921              	.L79:
1165:L6470.c       ****                     USB_transmit[3] =  Requested_T_Step_Exceeding_The_Limit>> 8; 
 922              		.loc 1 1165 0
 923 0176 494B     		ldr	r3, .L87+4
 924 0178 2A22     		movs	r2, #42
 925 017a 9A70     		strb	r2, [r3, #2]
1166:L6470.c       ****                     break;
 926              		.loc 1 1166 0
 927 017c FA22     		movs	r2, #250
 928 017e DA70     		strb	r2, [r3, #3]
1167:L6470.c       ****                 }
 929              		.loc 1 1167 0
 930 0180 22E0     		b	.L52
 931              	.L80:
1171:L6470.c       ****                     USB_transmit[3] =  T_Homing_Not_Done_Yet>> 8; 
 932              		.loc 1 1171 0
 933 0182 464B     		ldr	r3, .L87+4
 934 0184 2F22     		movs	r2, #47
 935 0186 9A70     		strb	r2, [r3, #2]
1172:L6470.c       ****                     break;
 936              		.loc 1 1172 0
 937 0188 FA22     		movs	r2, #250
 938 018a DA70     		strb	r2, [r3, #3]
1173:L6470.c       ****                 }
 939              		.loc 1 1173 0
 940 018c 1CE0     		b	.L52
 941              	.L81:
1177:L6470.c       ****                     USB_transmit[3] = T_Motor_Busy >> 8; 
 942              		.loc 1 1177 0
 943 018e 434B     		ldr	r3, .L87+4
 944 0190 2822     		movs	r2, #40
 945 0192 9A70     		strb	r2, [r3, #2]
1178:L6470.c       ****                     break;
 946              		.loc 1 1178 0
ARM GAS  C:\Users\Revanth\AppData\Local\Temp\ccSEzD1d.s 			page 43


 947 0194 FA22     		movs	r2, #250
 948 0196 DA70     		strb	r2, [r3, #3]
1179:L6470.c       ****                 }
 949              		.loc 1 1179 0
 950 0198 16E0     		b	.L52
 951              	.L82:
1183:L6470.c       ****                     USB_transmit[3] = Wrong_Command_Received >> 8; 
 952              		.loc 1 1183 0
 953 019a 404B     		ldr	r3, .L87+4
 954 019c 2222     		movs	r2, #34
 955 019e 9A70     		strb	r2, [r3, #2]
1184:L6470.c       ****                     break;
 956              		.loc 1 1184 0
 957 01a0 FA22     		movs	r2, #250
 958 01a2 DA70     		strb	r2, [r3, #3]
1185:L6470.c       ****                 }
 959              		.loc 1 1185 0
 960 01a4 10E0     		b	.L52
 961              	.L83:
1189:L6470.c       ****                     USB_transmit[3] = PCB_Paused >> 8; 
 962              		.loc 1 1189 0
 963 01a6 3D4B     		ldr	r3, .L87+4
 964 01a8 2322     		movs	r2, #35
 965 01aa 9A70     		strb	r2, [r3, #2]
1190:L6470.c       ****                     break;
 966              		.loc 1 1190 0
 967 01ac FA22     		movs	r2, #250
 968 01ae DA70     		strb	r2, [r3, #3]
1191:L6470.c       ****                 }
 969              		.loc 1 1191 0
 970 01b0 0AE0     		b	.L52
 971              	.L84:
1195:L6470.c       ****                     USB_transmit[3] = PCB_Busy >> 8; 
 972              		.loc 1 1195 0
 973 01b2 3A4B     		ldr	r3, .L87+4
 974 01b4 2422     		movs	r2, #36
 975 01b6 9A70     		strb	r2, [r3, #2]
1196:L6470.c       ****                     break;
 976              		.loc 1 1196 0
 977 01b8 FA22     		movs	r2, #250
 978 01ba DA70     		strb	r2, [r3, #3]
1197:L6470.c       ****                 }
 979              		.loc 1 1197 0
 980 01bc 04E0     		b	.L52
 981              	.L85:
1201:L6470.c       ****                     USB_transmit[3] = All_Motors_Homing_Not_Done >> 8; 
 982              		.loc 1 1201 0
 983 01be 374B     		ldr	r3, .L87+4
 984 01c0 2922     		movs	r2, #41
 985 01c2 9A70     		strb	r2, [r3, #2]
1202:L6470.c       ****                     break;
 986              		.loc 1 1202 0
 987 01c4 FA22     		movs	r2, #250
 988 01c6 DA70     		strb	r2, [r3, #3]
 989              	.LVL63:
 990              	.L52:
1207:L6470.c       ****         USB_transmit[5] = (X_QuadPosition) >> 8;
ARM GAS  C:\Users\Revanth\AppData\Local\Temp\ccSEzD1d.s 			page 44


 991              		.loc 1 1207 0
 992 01c8 354A     		ldr	r2, .L87+8
 993 01ca 5368     		ldr	r3, [r2, #4]
 994 01cc 334C     		ldr	r4, .L87+4
 995 01ce 2371     		strb	r3, [r4, #4]
1208:L6470.c       ****         USB_transmit[6] = (X_QuadPosition) >> 16;
 996              		.loc 1 1208 0
 997 01d0 5368     		ldr	r3, [r2, #4]
 998 01d2 1B12     		asrs	r3, r3, #8
 999 01d4 6371     		strb	r3, [r4, #5]
1209:L6470.c       ****         USB_transmit[7] = (X_QuadPosition) >> 24;
 1000              		.loc 1 1209 0
 1001 01d6 5368     		ldr	r3, [r2, #4]
 1002 01d8 1B14     		asrs	r3, r3, #16
 1003 01da A371     		strb	r3, [r4, #6]
1210:L6470.c       ****         USB_transmit[8] = (Y_QuadPosition);
 1004              		.loc 1 1210 0
 1005 01dc 5368     		ldr	r3, [r2, #4]
 1006 01de 1B16     		asrs	r3, r3, #24
 1007 01e0 E371     		strb	r3, [r4, #7]
1211:L6470.c       ****         USB_transmit[9] = (Y_QuadPosition) >> 8;
 1008              		.loc 1 1211 0
 1009 01e2 9368     		ldr	r3, [r2, #8]
 1010 01e4 2372     		strb	r3, [r4, #8]
1212:L6470.c       ****         USB_transmit[10] = (Y_QuadPosition) >> 16;
 1011              		.loc 1 1212 0
 1012 01e6 9368     		ldr	r3, [r2, #8]
 1013 01e8 1B12     		asrs	r3, r3, #8
 1014 01ea 6372     		strb	r3, [r4, #9]
1213:L6470.c       ****         USB_transmit[11] = (Y_QuadPosition) >> 24;
 1015              		.loc 1 1213 0
 1016 01ec 9368     		ldr	r3, [r2, #8]
 1017 01ee 1B14     		asrs	r3, r3, #16
 1018 01f0 A372     		strb	r3, [r4, #10]
1214:L6470.c       ****         USB_transmit[12] = Z_QuadPosition;
 1019              		.loc 1 1214 0
 1020 01f2 9368     		ldr	r3, [r2, #8]
 1021 01f4 1B16     		asrs	r3, r3, #24
 1022 01f6 E372     		strb	r3, [r4, #11]
1215:L6470.c       ****         USB_transmit[13] = Z_QuadPosition >> 8;
 1023              		.loc 1 1215 0
 1024 01f8 D368     		ldr	r3, [r2, #12]
 1025 01fa 2373     		strb	r3, [r4, #12]
1216:L6470.c       ****         USB_transmit[14] = Z_QuadPosition >> 16;
 1026              		.loc 1 1216 0
 1027 01fc D368     		ldr	r3, [r2, #12]
 1028 01fe 1B12     		asrs	r3, r3, #8
 1029 0200 6373     		strb	r3, [r4, #13]
1217:L6470.c       ****         USB_transmit[15] = Z_QuadPosition >> 24;
 1030              		.loc 1 1217 0
 1031 0202 D368     		ldr	r3, [r2, #12]
 1032 0204 1B14     		asrs	r3, r3, #16
 1033 0206 A373     		strb	r3, [r4, #14]
1218:L6470.c       ****         USB_transmit[16] = T_QuadPosition;
 1034              		.loc 1 1218 0
 1035 0208 D368     		ldr	r3, [r2, #12]
 1036 020a 1B16     		asrs	r3, r3, #24
ARM GAS  C:\Users\Revanth\AppData\Local\Temp\ccSEzD1d.s 			page 45


 1037 020c E373     		strb	r3, [r4, #15]
1219:L6470.c       ****         USB_transmit[17] = T_QuadPosition >> 8;
 1038              		.loc 1 1219 0
 1039 020e 1369     		ldr	r3, [r2, #16]
 1040 0210 2374     		strb	r3, [r4, #16]
1220:L6470.c       ****         USB_transmit[18] = T_QuadPosition >> 16;
 1041              		.loc 1 1220 0
 1042 0212 1369     		ldr	r3, [r2, #16]
 1043 0214 1B12     		asrs	r3, r3, #8
 1044 0216 6374     		strb	r3, [r4, #17]
1221:L6470.c       ****         USB_transmit[19] = T_QuadPosition >> 24;
 1045              		.loc 1 1221 0
 1046 0218 1369     		ldr	r3, [r2, #16]
 1047 021a 1B14     		asrs	r3, r3, #16
 1048 021c A374     		strb	r3, [r4, #18]
1222:L6470.c       **** //        USB_transmit[20] = PWM_Comare_Value_White;
 1049              		.loc 1 1222 0
 1050 021e 1369     		ldr	r3, [r2, #16]
 1051 0220 1B16     		asrs	r3, r3, #24
 1052 0222 E374     		strb	r3, [r4, #19]
1225:L6470.c       ****         USB_transmit[23] = 0;
 1053              		.loc 1 1225 0
 1054 0224 0023     		movs	r3, #0
 1055 0226 A375     		strb	r3, [r4, #22]
1226:L6470.c       ****         USB_transmit[24] = 0;
 1056              		.loc 1 1226 0
 1057 0228 E375     		strb	r3, [r4, #23]
1227:L6470.c       ****         USB_transmit[25] = 0;
 1058              		.loc 1 1227 0
 1059 022a 2376     		strb	r3, [r4, #24]
1228:L6470.c       ****         USB_transmit[26] = 0;
 1060              		.loc 1 1228 0
 1061 022c 6376     		strb	r3, [r4, #25]
1229:L6470.c       ****         USB_transmit[27] = 0;
 1062              		.loc 1 1229 0
 1063 022e A376     		strb	r3, [r4, #26]
1230:L6470.c       ****         USB_transmit[28] = Motor_Speed_X;
 1064              		.loc 1 1230 0
 1065 0230 E376     		strb	r3, [r4, #27]
1231:L6470.c       ****         USB_transmit[29] = Motor_Speed_X >> 8;
 1066              		.loc 1 1231 0
 1067 0232 1C48     		ldr	r0, .L87+12
 1068 0234 0169     		ldr	r1, [r0, #16]
 1069 0236 2177     		strb	r1, [r4, #28]
1232:L6470.c       ****         USB_transmit[30] = Motor_Speed_Y;
 1070              		.loc 1 1232 0
 1071 0238 090A     		lsrs	r1, r1, #8
 1072 023a 6177     		strb	r1, [r4, #29]
1233:L6470.c       ****         USB_transmit[31] = Motor_Speed_Y >> 8;
 1073              		.loc 1 1233 0
 1074 023c 4169     		ldr	r1, [r0, #20]
 1075 023e A177     		strb	r1, [r4, #30]
1234:L6470.c       ****         USB_transmit[32] = Motor_Speed_Z;
 1076              		.loc 1 1234 0
 1077 0240 090A     		lsrs	r1, r1, #8
 1078 0242 E177     		strb	r1, [r4, #31]
1235:L6470.c       ****         USB_transmit[33] = Motor_Speed_Z >> 8;
ARM GAS  C:\Users\Revanth\AppData\Local\Temp\ccSEzD1d.s 			page 46


 1079              		.loc 1 1235 0
 1080 0244 8169     		ldr	r1, [r0, #24]
 1081 0246 84F82010 		strb	r1, [r4, #32]
1236:L6470.c       ****         USB_transmit[34] = 0x00;
 1082              		.loc 1 1236 0
 1083 024a 090A     		lsrs	r1, r1, #8
 1084 024c 84F82110 		strb	r1, [r4, #33]
1237:L6470.c       ****         USB_transmit[35] = 0x00 >> 8;
 1085              		.loc 1 1237 0
 1086 0250 84F82230 		strb	r3, [r4, #34]
1238:L6470.c       ****         USB_transmit[36] = 0x00;
 1087              		.loc 1 1238 0
 1088 0254 84F82330 		strb	r3, [r4, #35]
1239:L6470.c       ****         USB_transmit[37] = 0x00;
 1089              		.loc 1 1239 0
 1090 0258 84F82430 		strb	r3, [r4, #36]
1240:L6470.c       ****         USB_transmit[38] = 0x00;
 1091              		.loc 1 1240 0
 1092 025c 84F82530 		strb	r3, [r4, #37]
1241:L6470.c       ****         USB_transmit[39] = Firmware_Version;
 1093              		.loc 1 1241 0
 1094 0260 84F82630 		strb	r3, [r4, #38]
1242:L6470.c       ****         USB_transmit[40] = 0;
 1095              		.loc 1 1242 0
 1096 0264 1B21     		movs	r1, #27
 1097 0266 84F82710 		strb	r1, [r4, #39]
1243:L6470.c       ****         USB_transmit[41] = 0;
 1098              		.loc 1 1243 0
 1099 026a 84F82830 		strb	r3, [r4, #40]
1244:L6470.c       ****         USB_transmit[42] = 0;
 1100              		.loc 1 1244 0
 1101 026e 84F82930 		strb	r3, [r4, #41]
1245:L6470.c       ****         USB_transmit[43] = 0;
 1102              		.loc 1 1245 0
 1103 0272 84F82A30 		strb	r3, [r4, #42]
1246:L6470.c       ****         USB_transmit[44] = 0;
 1104              		.loc 1 1246 0
 1105 0276 84F82B30 		strb	r3, [r4, #43]
1247:L6470.c       ****         USB_transmit[45] = 0;
 1106              		.loc 1 1247 0
 1107 027a 84F82C30 		strb	r3, [r4, #44]
1248:L6470.c       ****         
 1108              		.loc 1 1248 0
 1109 027e 84F82D30 		strb	r3, [r4, #45]
1250:L6470.c       ****         No_of_Y_Cycle = 0;
 1110              		.loc 1 1250 0
 1111 0282 D361     		str	r3, [r2, #28]
1251:L6470.c       ****         No_of_Z_Cycle = 0;
 1112              		.loc 1 1251 0
 1113 0284 1362     		str	r3, [r2, #32]
1252:L6470.c       ****         //No_of_T_Cycle = 0;
 1114              		.loc 1 1252 0
 1115 0286 5362     		str	r3, [r2, #36]
1257:L6470.c       ****         USB_PutData(USB_transmit, 46);  //send data back to usb
 1116              		.loc 1 1257 0
 1117 0288 0748     		ldr	r0, .L87+16
 1118 028a FFF7FEFF 		bl	Write_Debug_UART_Char
ARM GAS  C:\Users\Revanth\AppData\Local\Temp\ccSEzD1d.s 			page 47


 1119              	.LVL64:
1258:L6470.c       ****     
 1120              		.loc 1 1258 0
 1121 028e 2E21     		movs	r1, #46
 1122 0290 2046     		mov	r0, r4
 1123 0292 FFF7FEFF 		bl	USB_PutData
 1124              	.LVL65:
 1125 0296 10BD     		pop	{r4, pc}
 1126              	.L88:
 1127              		.align	2
 1128              	.L87:
 1129 0298 00000000 		.word	command
 1130 029c 00000000 		.word	USB_transmit
 1131 02a0 00000000 		.word	.LANCHOR0
 1132 02a4 00000000 		.word	.LANCHOR1
 1133 02a8 34000000 		.word	.LC3
 1134              		.cfi_endproc
 1135              	.LFE91:
 1136              		.size	Send_Feedback_to_USB, .-Send_Feedback_to_USB
 1137              		.section	.text.Initialize_USB,"ax",%progbits
 1138              		.align	2
 1139              		.global	Initialize_USB
 1140              		.thumb
 1141              		.thumb_func
 1142              		.type	Initialize_USB, %function
 1143              	Initialize_USB:
 1144              	.LFB93:
1266:L6470.c       ****     USB_Start(0, USB_5V_OPERATION);   
 1145              		.loc 1 1266 0
 1146              		.cfi_startproc
 1147              		@ args = 0, pretend = 0, frame = 0
 1148              		@ frame_needed = 0, uses_anonymous_args = 0
 1149 0000 08B5     		push	{r3, lr}
 1150              		.cfi_def_cfa_offset 8
 1151              		.cfi_offset 3, -8
 1152              		.cfi_offset 14, -4
1267:L6470.c       ****     while (0 == USB_GetConfiguration()) /* wait untill USB not found. */
 1153              		.loc 1 1267 0
 1154 0002 0121     		movs	r1, #1
 1155 0004 0020     		movs	r0, #0
 1156 0006 FFF7FEFF 		bl	USB_Start
 1157              	.LVL66:
1268:L6470.c       ****     {
 1158              		.loc 1 1268 0
 1159 000a 05E0     		b	.L90
 1160              	.L91:
1270:L6470.c       ****         CyDelayUs(1);
 1161              		.loc 1 1270 0
 1162 000c 0848     		ldr	r0, .L93
 1163 000e FFF7FEFF 		bl	Write_Debug_UART_Char
 1164              	.LVL67:
1271:L6470.c       ****     }
 1165              		.loc 1 1271 0
 1166 0012 0120     		movs	r0, #1
 1167 0014 FFF7FEFF 		bl	CyDelayUs
 1168              	.LVL68:
 1169              	.L90:
ARM GAS  C:\Users\Revanth\AppData\Local\Temp\ccSEzD1d.s 			page 48


1268:L6470.c       ****     {
 1170              		.loc 1 1268 0
 1171 0018 FFF7FEFF 		bl	USB_GetConfiguration
 1172              	.LVL69:
 1173 001c 0028     		cmp	r0, #0
 1174 001e F5D0     		beq	.L91
1273:L6470.c       ****     Write_Debug_UART_Char("USB Connected  \r\n");
 1175              		.loc 1 1273 0
 1176 0020 FFF7FEFF 		bl	USB_CDC_Init
 1177              	.LVL70:
1274:L6470.c       ****     USB_EnableSofInt();  
 1178              		.loc 1 1274 0
 1179 0024 0348     		ldr	r0, .L93+4
 1180 0026 FFF7FEFF 		bl	Write_Debug_UART_Char
 1181              	.LVL71:
1275:L6470.c       **** }
 1182              		.loc 1 1275 0
 1183 002a FFF7FEFF 		bl	USB_EnableSofInt
 1184              	.LVL72:
 1185 002e 08BD     		pop	{r3, pc}
 1186              	.L94:
 1187              		.align	2
 1188              	.L93:
 1189 0030 58000000 		.word	.LC4
 1190 0034 7C000000 		.word	.LC5
 1191              		.cfi_endproc
 1192              	.LFE93:
 1193              		.size	Initialize_USB, .-Initialize_USB
 1194              		.section	.text.Write_Debug_UART_Int,"ax",%progbits
 1195              		.align	2
 1196              		.global	Write_Debug_UART_Int
 1197              		.thumb
 1198              		.thumb_func
 1199              		.type	Write_Debug_UART_Int, %function
 1200              	Write_Debug_UART_Int:
 1201              	.LFB98:
1321:L6470.c       ****     	}
1322:L6470.c       ****     }
1323:L6470.c       **** }
1324:L6470.c       **** void Write_Debug_UART_Int(int32 num)
1325:L6470.c       **** {
 1202              		.loc 1 1325 0
 1203              		.cfi_startproc
 1204              		@ args = 0, pretend = 0, frame = 24
 1205              		@ frame_needed = 0, uses_anonymous_args = 0
 1206              	.LVL73:
 1207 0000 00B5     		push	{lr}
 1208              		.cfi_def_cfa_offset 4
 1209              		.cfi_offset 14, -4
 1210 0002 87B0     		sub	sp, sp, #28
 1211              		.cfi_def_cfa_offset 32
 1212              	.LBB3:
1326:L6470.c       ****    // if(Pin_UART_Enable_Read()==0)
1327:L6470.c       ****     {
1328:L6470.c       ****         char uart_Buffer[20];
1329:L6470.c       ****         sprintf(uart_Buffer,"%d, ",(int)num);
 1213              		.loc 1 1329 0
ARM GAS  C:\Users\Revanth\AppData\Local\Temp\ccSEzD1d.s 			page 49


 1214 0004 0246     		mov	r2, r0
 1215 0006 0649     		ldr	r1, .L97
 1216 0008 01A8     		add	r0, sp, #4
 1217              	.LVL74:
 1218 000a FFF7FEFF 		bl	sprintf
 1219              	.LVL75:
1330:L6470.c       ****         UART_PCB_LOG_PutString(uart_Buffer);
 1220              		.loc 1 1330 0
 1221 000e 01A8     		add	r0, sp, #4
 1222 0010 FFF7FEFF 		bl	UART_PCB_LOG_PutString
 1223              	.LVL76:
1331:L6470.c       ****         CyDelayUs(1);
 1224              		.loc 1 1331 0
 1225 0014 0120     		movs	r0, #1
 1226 0016 FFF7FEFF 		bl	CyDelayUs
 1227              	.LVL77:
 1228              	.LBE3:
1332:L6470.c       ****     }
1333:L6470.c       **** }
 1229              		.loc 1 1333 0
 1230 001a 07B0     		add	sp, sp, #28
 1231              		.cfi_def_cfa_offset 4
 1232              		@ sp needed
 1233 001c 5DF804FB 		ldr	pc, [sp], #4
 1234              	.L98:
 1235              		.align	2
 1236              	.L97:
 1237 0020 90000000 		.word	.LC6
 1238              		.cfi_endproc
 1239              	.LFE98:
 1240              		.size	Write_Debug_UART_Int, .-Write_Debug_UART_Int
 1241              		.global	__aeabi_i2d
 1242              		.global	__aeabi_dmul
 1243              		.global	__aeabi_ddiv
 1244              		.global	__aeabi_d2uiz
 1245              		.section	.text.set_BarcodeCondenser_LED,"ax",%progbits
 1246              		.align	2
 1247              		.global	set_BarcodeCondenser_LED
 1248              		.thumb
 1249              		.thumb_func
 1250              		.type	set_BarcodeCondenser_LED, %function
 1251              	set_BarcodeCondenser_LED:
 1252              	.LFB80:
 782:L6470.c       ****     PWM_barcode_comare_value = ((unsigned int)USB_received[3] << 8) + USB_received[2];  //Read LED 
 1253              		.loc 1 782 0
 1254              		.cfi_startproc
 1255              		@ args = 0, pretend = 0, frame = 0
 1256              		@ frame_needed = 0, uses_anonymous_args = 0
 1257 0000 10B5     		push	{r4, lr}
 1258              		.cfi_def_cfa_offset 8
 1259              		.cfi_offset 4, -8
 1260              		.cfi_offset 14, -4
 783:L6470.c       ****     PWM_BarcodeCondenser_LED_WriteCompare((PWM_barcode_comare_value*0.6)/10);    //Writing LED valu
 1261              		.loc 1 783 0
 1262 0002 154B     		ldr	r3, .L101+8
 1263 0004 D878     		ldrb	r0, [r3, #3]	@ zero_extendqisi2
 1264 0006 9B78     		ldrb	r3, [r3, #2]	@ zero_extendqisi2
ARM GAS  C:\Users\Revanth\AppData\Local\Temp\ccSEzD1d.s 			page 50


 1265 0008 03EB0020 		add	r0, r3, r0, lsl #8
 1266 000c 134C     		ldr	r4, .L101+12
 1267 000e A062     		str	r0, [r4, #40]
 784:L6470.c       ****     Write_Debug_UART_Char("LED Barcode Value Recived--->");
 1268              		.loc 1 784 0
 1269 0010 FFF7FEFF 		bl	__aeabi_i2d
 1270              	.LVL78:
 1271 0014 0EA3     		adr	r3, .L101
 1272 0016 D3E90023 		ldrd	r2, [r3]
 1273 001a FFF7FEFF 		bl	__aeabi_dmul
 1274              	.LVL79:
 1275 001e 0022     		movs	r2, #0
 1276 0020 0F4B     		ldr	r3, .L101+16
 1277 0022 FFF7FEFF 		bl	__aeabi_ddiv
 1278              	.LVL80:
 1279 0026 FFF7FEFF 		bl	__aeabi_d2uiz
 1280              	.LVL81:
 1281 002a 80B2     		uxth	r0, r0
 1282 002c FFF7FEFF 		bl	PWM_BarcodeCondenser_LED_WriteCompare
 1283              	.LVL82:
 785:L6470.c       ****     Write_Debug_UART_Int(PWM_barcode_comare_value);
 1284              		.loc 1 785 0
 1285 0030 0C48     		ldr	r0, .L101+20
 1286 0032 FFF7FEFF 		bl	Write_Debug_UART_Char
 1287              	.LVL83:
 786:L6470.c       ****     Write_Debug_UART_Char("\r\n");
 1288              		.loc 1 786 0
 1289 0036 A06A     		ldr	r0, [r4, #40]
 1290 0038 FFF7FEFF 		bl	Write_Debug_UART_Int
 1291              	.LVL84:
 787:L6470.c       ****     Write_Debug_UART_Char("Set Barcode LED Command Executed  \r\n");
 1292              		.loc 1 787 0
 1293 003c 0A48     		ldr	r0, .L101+24
 1294 003e FFF7FEFF 		bl	Write_Debug_UART_Char
 1295              	.LVL85:
 788:L6470.c       ****     return 0;
 1296              		.loc 1 788 0
 1297 0042 0A48     		ldr	r0, .L101+28
 1298 0044 FFF7FEFF 		bl	Write_Debug_UART_Char
 1299              	.LVL86:
 790:L6470.c       **** 
 1300              		.loc 1 790 0
 1301 0048 0020     		movs	r0, #0
 1302 004a 10BD     		pop	{r4, pc}
 1303              	.L102:
 1304 004c AFF30080 		.align	3
 1305              	.L101:
 1306 0050 33333333 		.word	858993459
 1307 0054 3333E33F 		.word	1071854387
 1308 0058 00000000 		.word	USB_received
 1309 005c 00000000 		.word	.LANCHOR0
 1310 0060 00002440 		.word	1076101120
 1311 0064 98000000 		.word	.LC7
 1312 0068 B8000000 		.word	.LC8
 1313 006c BC000000 		.word	.LC9
 1314              		.cfi_endproc
 1315              	.LFE80:
ARM GAS  C:\Users\Revanth\AppData\Local\Temp\ccSEzD1d.s 			page 51


 1316              		.size	set_BarcodeCondenser_LED, .-set_BarcodeCondenser_LED
 1317              		.section	.text.set_CondenserLED,"ax",%progbits
 1318              		.align	2
 1319              		.global	set_CondenserLED
 1320              		.thumb
 1321              		.thumb_func
 1322              		.type	set_CondenserLED, %function
 1323              	set_CondenserLED:
 1324              	.LFB81:
 793:L6470.c       ****     PWM_comare_value = ((unsigned int)USB_received[3] << 8) + USB_received[2];  //Read LED intensit
 1325              		.loc 1 793 0
 1326              		.cfi_startproc
 1327              		@ args = 0, pretend = 0, frame = 0
 1328              		@ frame_needed = 0, uses_anonymous_args = 0
 1329 0000 10B5     		push	{r4, lr}
 1330              		.cfi_def_cfa_offset 8
 1331              		.cfi_offset 4, -8
 1332              		.cfi_offset 14, -4
 794:L6470.c       ****     PWM_CondenserLED_WriteCompare((PWM_comare_value*0.6)/10);    //Writing LED value in to PWM maxi
 1333              		.loc 1 794 0
 1334 0002 154B     		ldr	r3, .L105+8
 1335 0004 D878     		ldrb	r0, [r3, #3]	@ zero_extendqisi2
 1336 0006 9B78     		ldrb	r3, [r3, #2]	@ zero_extendqisi2
 1337 0008 03EB0020 		add	r0, r3, r0, lsl #8
 1338 000c 134C     		ldr	r4, .L105+12
 1339 000e E062     		str	r0, [r4, #44]
 795:L6470.c       ****     Write_Debug_UART_Char(" LED Value Recived--->");
 1340              		.loc 1 795 0
 1341 0010 FFF7FEFF 		bl	__aeabi_i2d
 1342              	.LVL87:
 1343 0014 0EA3     		adr	r3, .L105
 1344 0016 D3E90023 		ldrd	r2, [r3]
 1345 001a FFF7FEFF 		bl	__aeabi_dmul
 1346              	.LVL88:
 1347 001e 0022     		movs	r2, #0
 1348 0020 0F4B     		ldr	r3, .L105+16
 1349 0022 FFF7FEFF 		bl	__aeabi_ddiv
 1350              	.LVL89:
 1351 0026 FFF7FEFF 		bl	__aeabi_d2uiz
 1352              	.LVL90:
 1353 002a 80B2     		uxth	r0, r0
 1354 002c FFF7FEFF 		bl	PWM_CondenserLED_WriteCompare
 1355              	.LVL91:
 796:L6470.c       ****     Write_Debug_UART_Int(PWM_comare_value);
 1356              		.loc 1 796 0
 1357 0030 0C48     		ldr	r0, .L105+20
 1358 0032 FFF7FEFF 		bl	Write_Debug_UART_Char
 1359              	.LVL92:
 797:L6470.c       ****     Write_Debug_UART_Char("\r\n");
 1360              		.loc 1 797 0
 1361 0036 E06A     		ldr	r0, [r4, #44]
 1362 0038 FFF7FEFF 		bl	Write_Debug_UART_Int
 1363              	.LVL93:
 798:L6470.c       ****     Write_Debug_UART_Char("Set LED Command Executed  \r\n");
 1364              		.loc 1 798 0
 1365 003c 0A48     		ldr	r0, .L105+24
 1366 003e FFF7FEFF 		bl	Write_Debug_UART_Char
ARM GAS  C:\Users\Revanth\AppData\Local\Temp\ccSEzD1d.s 			page 52


 1367              	.LVL94:
 799:L6470.c       ****     return 0;
 1368              		.loc 1 799 0
 1369 0042 0A48     		ldr	r0, .L105+28
 1370 0044 FFF7FEFF 		bl	Write_Debug_UART_Char
 1371              	.LVL95:
 801:L6470.c       **** 
 1372              		.loc 1 801 0
 1373 0048 0020     		movs	r0, #0
 1374 004a 10BD     		pop	{r4, pc}
 1375              	.L106:
 1376 004c AFF30080 		.align	3
 1377              	.L105:
 1378 0050 33333333 		.word	858993459
 1379 0054 3333E33F 		.word	1071854387
 1380 0058 00000000 		.word	USB_received
 1381 005c 00000000 		.word	.LANCHOR0
 1382 0060 00002440 		.word	1076101120
 1383 0064 E4000000 		.word	.LC10
 1384 0068 B8000000 		.word	.LC8
 1385 006c FC000000 		.word	.LC11
 1386              		.cfi_endproc
 1387              	.LFE81:
 1388              		.size	set_CondenserLED, .-set_CondenserLED
 1389              		.section	.text.UART_print_all_values,"ax",%progbits
 1390              		.align	2
 1391              		.global	UART_print_all_values
 1392              		.thumb
 1393              		.thumb_func
 1394              		.type	UART_print_all_values, %function
 1395              	UART_print_all_values:
 1396              	.LFB99:
1334:L6470.c       **** void UART_print_all_values()
1335:L6470.c       **** {
 1397              		.loc 1 1335 0
 1398              		.cfi_startproc
 1399              		@ args = 0, pretend = 0, frame = 0
 1400              		@ frame_needed = 0, uses_anonymous_args = 0
 1401 0000 08B5     		push	{r3, lr}
 1402              		.cfi_def_cfa_offset 8
 1403              		.cfi_offset 3, -8
 1404              		.cfi_offset 14, -4
1336:L6470.c       ****     Write_Debug_UART_Char("\r\n");
 1405              		.loc 1 1336 0
 1406 0002 0548     		ldr	r0, .L109
 1407 0004 FFF7FEFF 		bl	Write_Debug_UART_Char
 1408              	.LVL96:
1337:L6470.c       ****     Write_Debug_UART_Char("--------------------------------------------------");
 1409              		.loc 1 1337 0
 1410 0008 0448     		ldr	r0, .L109+4
 1411 000a FFF7FEFF 		bl	Write_Debug_UART_Char
 1412              	.LVL97:
1338:L6470.c       ****     Write_Debug_UART_Char("\n");
 1413              		.loc 1 1338 0
 1414 000e 0448     		ldr	r0, .L109+8
 1415 0010 FFF7FEFF 		bl	Write_Debug_UART_Char
 1416              	.LVL98:
ARM GAS  C:\Users\Revanth\AppData\Local\Temp\ccSEzD1d.s 			page 53


 1417 0014 08BD     		pop	{r3, pc}
 1418              	.L110:
 1419 0016 00BF     		.align	2
 1420              	.L109:
 1421 0018 B8000000 		.word	.LC8
 1422 001c 1C010000 		.word	.LC12
 1423 0020 50010000 		.word	.LC13
 1424              		.cfi_endproc
 1425              	.LFE99:
 1426              		.size	UART_print_all_values, .-UART_print_all_values
 1427              		.section	.text.if_all_homing_done,"ax",%progbits
 1428              		.align	2
 1429              		.global	if_all_homing_done
 1430              		.thumb
 1431              		.thumb_func
 1432              		.type	if_all_homing_done, %function
 1433              	if_all_homing_done:
 1434              	.LFB78:
 734:L6470.c       ****     if((HomeY_done == false)&&(errorY == 0))
 1435              		.loc 1 734 0
 1436              		.cfi_startproc
 1437              		@ args = 0, pretend = 0, frame = 0
 1438              		@ frame_needed = 0, uses_anonymous_args = 0
 1439 0000 10B5     		push	{r4, lr}
 1440              		.cfi_def_cfa_offset 8
 1441              		.cfi_offset 4, -8
 1442              		.cfi_offset 14, -4
 735:L6470.c       ****     {
 1443              		.loc 1 735 0
 1444 0002 184B     		ldr	r3, .L117
 1445 0004 1C7F     		ldrb	r4, [r3, #28]	@ zero_extendqisi2
 1446 0006 5CB9     		cbnz	r4, .L112
 735:L6470.c       ****     {
 1447              		.loc 1 735 0 is_stmt 0 discriminator 1
 1448 0008 174B     		ldr	r3, .L117+4
 1449 000a 1B6B     		ldr	r3, [r3, #48]
 1450 000c 43B9     		cbnz	r3, .L112
 737:L6470.c       ****         Write_Debug_UART_Char("Y_Homing_Not_Done_Yet***********[x12]  \r\n");
 1451              		.loc 1 737 0 is_stmt 1
 1452 000e 0C22     		movs	r2, #12
 1453 0010 154B     		ldr	r3, .L117+4
 1454 0012 5A63     		str	r2, [r3, #52]
 738:L6470.c       ****         UART_print_all_values();
 1455              		.loc 1 738 0
 1456 0014 1548     		ldr	r0, .L117+8
 1457 0016 FFF7FEFF 		bl	Write_Debug_UART_Char
 1458              	.LVL99:
 739:L6470.c       ****         return false;
 1459              		.loc 1 739 0
 1460 001a FFF7FEFF 		bl	UART_print_all_values
 1461              	.LVL100:
 740:L6470.c       ****     }
 1462              		.loc 1 740 0
 1463 001e 1EE0     		b	.L113
 1464              	.L112:
 742:L6470.c       ****     {
 1465              		.loc 1 742 0
ARM GAS  C:\Users\Revanth\AppData\Local\Temp\ccSEzD1d.s 			page 54


 1466 0020 104B     		ldr	r3, .L117
 1467 0022 5C7F     		ldrb	r4, [r3, #29]	@ zero_extendqisi2
 1468 0024 5CB9     		cbnz	r4, .L114
 742:L6470.c       ****     {
 1469              		.loc 1 742 0 is_stmt 0 discriminator 1
 1470 0026 104B     		ldr	r3, .L117+4
 1471 0028 9B6B     		ldr	r3, [r3, #56]
 1472 002a 43B9     		cbnz	r3, .L114
 744:L6470.c       ****         Write_Debug_UART_Char("X_Homing_Not_Done_Yet***********  \r\n");
 1473              		.loc 1 744 0 is_stmt 1
 1474 002c 0622     		movs	r2, #6
 1475 002e 0E4B     		ldr	r3, .L117+4
 1476 0030 5A63     		str	r2, [r3, #52]
 745:L6470.c       ****         UART_print_all_values();
 1477              		.loc 1 745 0
 1478 0032 0F48     		ldr	r0, .L117+12
 1479 0034 FFF7FEFF 		bl	Write_Debug_UART_Char
 1480              	.LVL101:
 746:L6470.c       ****         return false;
 1481              		.loc 1 746 0
 1482 0038 FFF7FEFF 		bl	UART_print_all_values
 1483              	.LVL102:
 747:L6470.c       ****     }
 1484              		.loc 1 747 0
 1485 003c 0FE0     		b	.L113
 1486              	.L114:
 749:L6470.c       ****     {
 1487              		.loc 1 749 0
 1488 003e 094B     		ldr	r3, .L117
 1489 0040 9C7F     		ldrb	r4, [r3, #30]	@ zero_extendqisi2
 1490 0042 64B9     		cbnz	r4, .L113
 749:L6470.c       ****     {
 1491              		.loc 1 749 0 is_stmt 0 discriminator 1
 1492 0044 084B     		ldr	r3, .L117+4
 1493 0046 DB6B     		ldr	r3, [r3, #60]
 1494 0048 43B9     		cbnz	r3, .L115
 751:L6470.c       ****         Write_Debug_UART_Char("Z_Homing_Not_Done_Yet***********  \r\n");
 1495              		.loc 1 751 0 is_stmt 1
 1496 004a 1222     		movs	r2, #18
 1497 004c 064B     		ldr	r3, .L117+4
 1498 004e 5A63     		str	r2, [r3, #52]
 752:L6470.c       ****         UART_print_all_values();
 1499              		.loc 1 752 0
 1500 0050 0848     		ldr	r0, .L117+16
 1501 0052 FFF7FEFF 		bl	Write_Debug_UART_Char
 1502              	.LVL103:
 753:L6470.c       ****         return false;
 1503              		.loc 1 753 0
 1504 0056 FFF7FEFF 		bl	UART_print_all_values
 1505              	.LVL104:
 754:L6470.c       ****     } 
 1506              		.loc 1 754 0
 1507 005a 00E0     		b	.L113
 1508              	.L115:
 758:L6470.c       ****     }
 1509              		.loc 1 758 0
 1510 005c 0124     		movs	r4, #1
ARM GAS  C:\Users\Revanth\AppData\Local\Temp\ccSEzD1d.s 			page 55


 1511              	.L113:
 760:L6470.c       **** 
 1512              		.loc 1 760 0
 1513 005e 2046     		mov	r0, r4
 1514 0060 10BD     		pop	{r4, pc}
 1515              	.L118:
 1516 0062 00BF     		.align	2
 1517              	.L117:
 1518 0064 00000000 		.word	.LANCHOR1
 1519 0068 00000000 		.word	.LANCHOR0
 1520 006c 54010000 		.word	.LC14
 1521 0070 80010000 		.word	.LC15
 1522 0074 A8010000 		.word	.LC16
 1523              		.cfi_endproc
 1524              	.LFE78:
 1525              		.size	if_all_homing_done, .-if_all_homing_done
 1526              		.section	.text.Is_USB_Unpluged,"ax",%progbits
 1527              		.align	2
 1528              		.global	Is_USB_Unpluged
 1529              		.thumb
 1530              		.thumb_func
 1531              		.type	Is_USB_Unpluged, %function
 1532              	Is_USB_Unpluged:
 1533              	.LFB94:
1278:L6470.c       ****    static bool dont_Execute_1st_Time=false;
 1534              		.loc 1 1278 0
 1535              		.cfi_startproc
 1536              		@ args = 0, pretend = 0, frame = 0
 1537              		@ frame_needed = 0, uses_anonymous_args = 0
 1538 0000 08B5     		push	{r3, lr}
 1539              		.cfi_def_cfa_offset 8
 1540              		.cfi_offset 3, -8
 1541              		.cfi_offset 14, -4
1280:L6470.c       ****    {
 1542              		.loc 1 1280 0
 1543 0002 FFF7FEFF 		bl	USB_IsConfigurationChanged
 1544              	.LVL105:
 1545 0006 A0B1     		cbz	r0, .L119
1282:L6470.c       ****        if(USB_GetConfiguration() != 0)
 1546              		.loc 1 1282 0
 1547 0008 FFF7FEFF 		bl	Beep_Twice
 1548              	.LVL106:
1283:L6470.c       ****        {
 1549              		.loc 1 1283 0
 1550 000c FFF7FEFF 		bl	USB_GetConfiguration
 1551              	.LVL107:
 1552 0010 78B1     		cbz	r0, .L119
1285:L6470.c       ****             {
 1553              		.loc 1 1285 0
 1554 0012 084B     		ldr	r3, .L123
 1555 0014 93F84030 		ldrb	r3, [r3, #64]	@ zero_extendqisi2
 1556 0018 3BB1     		cbz	r3, .L121
1287:L6470.c       ****                 UART_print_all_values();
 1557              		.loc 1 1287 0
 1558 001a 0748     		ldr	r0, .L123+4
 1559 001c FFF7FEFF 		bl	Write_Debug_UART_Char
 1560              	.LVL108:
ARM GAS  C:\Users\Revanth\AppData\Local\Temp\ccSEzD1d.s 			page 56


1288:L6470.c       ****                 CyDelay(1);
 1561              		.loc 1 1288 0
 1562 0020 FFF7FEFF 		bl	UART_print_all_values
 1563              	.LVL109:
1289:L6470.c       ****                 //CySoftwareReset();
 1564              		.loc 1 1289 0
 1565 0024 0120     		movs	r0, #1
 1566 0026 FFF7FEFF 		bl	CyDelay
 1567              	.LVL110:
 1568              	.L121:
1292:L6470.c       ****        }
 1569              		.loc 1 1292 0
 1570 002a 0122     		movs	r2, #1
 1571 002c 014B     		ldr	r3, .L123
 1572 002e 83F84020 		strb	r2, [r3, #64]
 1573              	.L119:
 1574 0032 08BD     		pop	{r3, pc}
 1575              	.L124:
 1576              		.align	2
 1577              	.L123:
 1578 0034 00000000 		.word	.LANCHOR0
 1579 0038 D0010000 		.word	.LC17
 1580              		.cfi_endproc
 1581              	.LFE94:
 1582              		.size	Is_USB_Unpluged, .-Is_USB_Unpluged
 1583              		.section	.text.Data_To_Transfer,"ax",%progbits
 1584              		.align	2
 1585              		.global	Data_To_Transfer
 1586              		.thumb
 1587              		.thumb_func
 1588              		.type	Data_To_Transfer, %function
 1589              	Data_To_Transfer:
 1590              	.LFB100:
1339:L6470.c       **** 
1340:L6470.c       **** }
1341:L6470.c       **** //USB Functions Stop-------------------------------------------------------
1342:L6470.c       **** 
1343:L6470.c       **** 
1344:L6470.c       **** //L6470 Motor Driver Functions Stop-------------------------------------------------------
1345:L6470.c       **** 
1346:L6470.c       **** 
1347:L6470.c       **** uint8_t Data_To_Transfer(uint8_t data)
1348:L6470.c       **** {   
 1591              		.loc 1 1348 0
 1592              		.cfi_startproc
 1593              		@ args = 0, pretend = 0, frame = 0
 1594              		@ frame_needed = 0, uses_anonymous_args = 0
 1595              	.LVL111:
 1596 0000 08B5     		push	{r3, lr}
 1597              		.cfi_def_cfa_offset 8
 1598              		.cfi_offset 3, -8
 1599              		.cfi_offset 14, -4
1349:L6470.c       ****     SPIM_WriteTxData(data);
 1600              		.loc 1 1349 0
 1601 0002 FFF7FEFF 		bl	SPIM_WriteTxData
 1602              	.LVL112:
1350:L6470.c       ****     CyDelayUs(10);
ARM GAS  C:\Users\Revanth\AppData\Local\Temp\ccSEzD1d.s 			page 57


 1603              		.loc 1 1350 0
 1604 0006 0A20     		movs	r0, #10
 1605 0008 FFF7FEFF 		bl	CyDelayUs
 1606              	.LVL113:
1351:L6470.c       ****     return 1;
1352:L6470.c       **** }
 1607              		.loc 1 1352 0
 1608 000c 0120     		movs	r0, #1
 1609 000e 08BD     		pop	{r3, pc}
 1610              		.cfi_endproc
 1611              	.LFE100:
 1612              		.size	Data_To_Transfer, .-Data_To_Transfer
 1613              		.section	.text.SPI_MOTOR_CHIP_SELECT,"ax",%progbits
 1614              		.align	2
 1615              		.global	SPI_MOTOR_CHIP_SELECT
 1616              		.thumb
 1617              		.thumb_func
 1618              		.type	SPI_MOTOR_CHIP_SELECT, %function
 1619              	SPI_MOTOR_CHIP_SELECT:
 1620              	.LFB101:
1353:L6470.c       **** 
1354:L6470.c       **** 
1355:L6470.c       **** 
1356:L6470.c       **** /* --------------------------------------------------------------------------------------------
1357:L6470.c       **** Function Name        : SPI_MOTOR_CHIP_SELECT
1358:L6470.c       **** 
1359:L6470.c       **** Prerequist Knowledge : SPI Communication Protocol, SCI Chip Select Pin, GPIO, SWITCH Statement
1360:L6470.c       **** 
1361:L6470.c       **** Function Description : This Function is used to assert or de-assert the chipselect pin of
1362:L6470.c       ****                        selected driver IC.
1363:L6470.c       **** 
1364:L6470.c       **** Return Type & Data   : Void
1365:L6470.c       **** 
1366:L6470.c       **** Numnber of Arguments : 2
1367:L6470.c       **** 
1368:L6470.c       **** -----Argument 1-----
1369:L6470.c       **** Name                 : Motor
1370:L6470.c       **** Tupe                 : uint8_t
1371:L6470.c       **** Description          : This Argument Represents the driver channel
1372:L6470.c       **** Condition            : This Value must range from 0x00 to 0x04 since there are only 5 channels
1373:L6470.c       ****                        available in AS76 System Configuration
1374:L6470.c       **** --------------------
1375:L6470.c       **** 
1376:L6470.c       **** -----Argument 2-----
1377:L6470.c       **** Name                 : Value
1378:L6470.c       **** Tupe                 : uint8_t
1379:L6470.c       **** Description          : This Argument Represents the GPIO Level
1380:L6470.c       **** Condition            : This Value must either 0x00 or 0xFF (Low/High)
1381:L6470.c       **** --------------------
1382:L6470.c       **** 
1383:L6470.c       **** ---------------------------------------------------------------------------------------------*/
1384:L6470.c       **** 
1385:L6470.c       **** void SPI_MOTOR_CHIP_SELECT (uint8_t Motor, uint8_t Value)
1386:L6470.c       **** {
 1621              		.loc 1 1386 0
 1622              		.cfi_startproc
 1623              		@ args = 0, pretend = 0, frame = 0
ARM GAS  C:\Users\Revanth\AppData\Local\Temp\ccSEzD1d.s 			page 58


 1624              		@ frame_needed = 0, uses_anonymous_args = 0
 1625              	.LVL114:
 1626 0000 10B5     		push	{r4, lr}
 1627              		.cfi_def_cfa_offset 8
 1628              		.cfi_offset 4, -8
 1629              		.cfi_offset 14, -4
1387:L6470.c       ****     
1388:L6470.c       **** if ((Value == 0x00) || (Value == 0xFF))  // Condition to check for valid GPIO Value
 1630              		.loc 1 1388 0
 1631 0002 4B1E     		subs	r3, r1, #1
 1632 0004 DBB2     		uxtb	r3, r3
 1633 0006 FD2B     		cmp	r3, #253
 1634 0008 3DD9     		bls	.L128
 1635 000a 0C46     		mov	r4, r1
1389:L6470.c       **** {
1390:L6470.c       ****  switch (Motor) // Condition to select correct motor driver channel
 1636              		.loc 1 1390 0
 1637 000c 0428     		cmp	r0, #4
 1638 000e 36D8     		bhi	.L129
 1639 0010 DFE800F0 		tbb	[pc, r0]
 1640              	.L131:
 1641 0014 03       		.byte	(.L130-.L131)/2
 1642 0015 0D       		.byte	(.L132-.L131)/2
 1643 0016 17       		.byte	(.L133-.L131)/2
 1644 0017 21       		.byte	(.L134-.L131)/2
 1645 0018 2B       		.byte	(.L135-.L131)/2
 1646 0019 00       		.p2align 1
 1647              	.L130:
1391:L6470.c       ****     {
1392:L6470.c       ****     case 0x00:
1393:L6470.c       ****         {
1394:L6470.c       ****           CyDelayUs(10);
 1648              		.loc 1 1394 0
 1649 001a 0A20     		movs	r0, #10
 1650              	.LVL115:
 1651 001c FFF7FEFF 		bl	CyDelayUs
 1652              	.LVL116:
1395:L6470.c       ****           Pin_CSMotorX_Write(Value);
 1653              		.loc 1 1395 0
 1654 0020 2046     		mov	r0, r4
 1655 0022 FFF7FEFF 		bl	Pin_CSMotorX_Write
 1656              	.LVL117:
1396:L6470.c       ****           CyDelayUs(10);
 1657              		.loc 1 1396 0
 1658 0026 0A20     		movs	r0, #10
 1659 0028 FFF7FEFF 		bl	CyDelayUs
 1660              	.LVL118:
1397:L6470.c       ****          // Write_Debug_UART_Char("Motor Channel 1 asserted/de-asserted for SPI Read/Write  \r\n");
1398:L6470.c       ****           break;
 1661              		.loc 1 1398 0
 1662 002c 10BD     		pop	{r4, pc}
 1663              	.LVL119:
 1664              	.L132:
1399:L6470.c       ****         }
1400:L6470.c       ****     case 0x01:
1401:L6470.c       ****         {
1402:L6470.c       ****           CyDelayUs(10);
ARM GAS  C:\Users\Revanth\AppData\Local\Temp\ccSEzD1d.s 			page 59


 1665              		.loc 1 1402 0
 1666 002e 0A20     		movs	r0, #10
 1667              	.LVL120:
 1668 0030 FFF7FEFF 		bl	CyDelayUs
 1669              	.LVL121:
1403:L6470.c       ****           Pin_CSMotorY_Write(Value);
 1670              		.loc 1 1403 0
 1671 0034 2046     		mov	r0, r4
 1672 0036 FFF7FEFF 		bl	Pin_CSMotorY_Write
 1673              	.LVL122:
1404:L6470.c       ****           CyDelayUs(10);
 1674              		.loc 1 1404 0
 1675 003a 0A20     		movs	r0, #10
 1676 003c FFF7FEFF 		bl	CyDelayUs
 1677              	.LVL123:
1405:L6470.c       ****          // Write_Debug_UART_Char("Motor Channel 2 asserted/de-asserted for SPI Read/Write  \r\n");
1406:L6470.c       ****           break;
 1678              		.loc 1 1406 0
 1679 0040 10BD     		pop	{r4, pc}
 1680              	.LVL124:
 1681              	.L133:
1407:L6470.c       ****         }
1408:L6470.c       ****         case 0x02:
1409:L6470.c       ****         {
1410:L6470.c       ****           CyDelayUs(10);
 1682              		.loc 1 1410 0
 1683 0042 0A20     		movs	r0, #10
 1684              	.LVL125:
 1685 0044 FFF7FEFF 		bl	CyDelayUs
 1686              	.LVL126:
1411:L6470.c       ****           Pin_CSMotorZ_Write(Value);
 1687              		.loc 1 1411 0
 1688 0048 2046     		mov	r0, r4
 1689 004a FFF7FEFF 		bl	Pin_CSMotorZ_Write
 1690              	.LVL127:
1412:L6470.c       ****          // Write_Debug_UART_Char("Motor Channel 3 asserted/de-asserted for SPI Read/Write  \r\n");
1413:L6470.c       ****           CyDelayUs(10);
 1691              		.loc 1 1413 0
 1692 004e 0A20     		movs	r0, #10
 1693 0050 FFF7FEFF 		bl	CyDelayUs
 1694              	.LVL128:
1414:L6470.c       ****           break;
 1695              		.loc 1 1414 0
 1696 0054 10BD     		pop	{r4, pc}
 1697              	.LVL129:
 1698              	.L134:
1415:L6470.c       ****         }
1416:L6470.c       ****         case 0x03:
1417:L6470.c       ****         {
1418:L6470.c       ****           CyDelayUs(10);
 1699              		.loc 1 1418 0
 1700 0056 0A20     		movs	r0, #10
 1701              	.LVL130:
 1702 0058 FFF7FEFF 		bl	CyDelayUs
 1703              	.LVL131:
1419:L6470.c       ****           Pin_CSMotorT_Write(Value);
 1704              		.loc 1 1419 0
ARM GAS  C:\Users\Revanth\AppData\Local\Temp\ccSEzD1d.s 			page 60


 1705 005c 2046     		mov	r0, r4
 1706 005e FFF7FEFF 		bl	Pin_CSMotorT_Write
 1707              	.LVL132:
1420:L6470.c       ****         //  Write_Debug_UART_Char("Motor Channel 4 asserted/de-asserted for SPI Read/Write  \r\n");
1421:L6470.c       ****           CyDelayUs(10);
 1708              		.loc 1 1421 0
 1709 0062 0A20     		movs	r0, #10
 1710 0064 FFF7FEFF 		bl	CyDelayUs
 1711              	.LVL133:
1422:L6470.c       ****           break;
 1712              		.loc 1 1422 0
 1713 0068 10BD     		pop	{r4, pc}
 1714              	.LVL134:
 1715              	.L135:
1423:L6470.c       ****         }
1424:L6470.c       ****         case 0x04:
1425:L6470.c       ****         {
1426:L6470.c       ****           CyDelayUs(10);
 1716              		.loc 1 1426 0
 1717 006a 0A20     		movs	r0, #10
 1718              	.LVL135:
 1719 006c FFF7FEFF 		bl	CyDelayUs
 1720              	.LVL136:
1427:L6470.c       ****           Pin_CSMotorO_Write(Value);
 1721              		.loc 1 1427 0
 1722 0070 2046     		mov	r0, r4
 1723 0072 FFF7FEFF 		bl	Pin_CSMotorO_Write
 1724              	.LVL137:
1428:L6470.c       ****         //  Write_Debug_UART_Char("Motor Channel 5 asserted/de-asserted for SPI Read/Write  \r\n");
1429:L6470.c       ****           CyDelayUs(10);
 1725              		.loc 1 1429 0
 1726 0076 0A20     		movs	r0, #10
 1727 0078 FFF7FEFF 		bl	CyDelayUs
 1728              	.LVL138:
1430:L6470.c       ****           break;
 1729              		.loc 1 1430 0
 1730 007c 10BD     		pop	{r4, pc}
 1731              	.LVL139:
 1732              	.L129:
1431:L6470.c       ****         }
1432:L6470.c       ****         
1433:L6470.c       ****         default : // If Invalid motor channel selected print error message
1434:L6470.c       ****         {
1435:L6470.c       ****             Write_Debug_UART_Char("No Valid Driver nCS asserted/de-asserted for SPI Read/Write  \r\
 1733              		.loc 1 1435 0
 1734 007e 0448     		ldr	r0, .L138
 1735              	.LVL140:
 1736 0080 FFF7FEFF 		bl	Write_Debug_UART_Char
 1737              	.LVL141:
 1738 0084 10BD     		pop	{r4, pc}
 1739              	.LVL142:
 1740              	.L128:
1436:L6470.c       ****         }
1437:L6470.c       ****     } 
1438:L6470.c       **** }
1439:L6470.c       **** else // If Invalid GPIO Value given, print error message
1440:L6470.c       **** {
ARM GAS  C:\Users\Revanth\AppData\Local\Temp\ccSEzD1d.s 			page 61


1441:L6470.c       ****    Write_Debug_UART_Char("Invalid GPIO Level Value, Unable to assert/de-assert nCSN Pin for SPI Rea
 1741              		.loc 1 1441 0
 1742 0086 0348     		ldr	r0, .L138+4
 1743              	.LVL143:
 1744 0088 FFF7FEFF 		bl	Write_Debug_UART_Char
 1745              	.LVL144:
 1746 008c 10BD     		pop	{r4, pc}
 1747              	.L139:
 1748 008e 00BF     		.align	2
 1749              	.L138:
 1750 0090 FC010000 		.word	.LC18
 1751 0094 3C020000 		.word	.LC19
 1752              		.cfi_endproc
 1753              	.LFE101:
 1754              		.size	SPI_MOTOR_CHIP_SELECT, .-SPI_MOTOR_CHIP_SELECT
 1755              		.section	.text.Read_32bitSPI_DATA,"ax",%progbits
 1756              		.align	2
 1757              		.global	Read_32bitSPI_DATA
 1758              		.thumb
 1759              		.thumb_func
 1760              		.type	Read_32bitSPI_DATA, %function
 1761              	Read_32bitSPI_DATA:
 1762              	.LFB102:
1442:L6470.c       **** }
1443:L6470.c       **** }
1444:L6470.c       **** 
1445:L6470.c       **** //-------------------------- [] END OF SPI_MOTOR_CHIP_SELECT Function ---------------------------
1446:L6470.c       **** 
1447:L6470.c       **** 
1448:L6470.c       **** /* --------------------------------------------------------------------------------------------
1449:L6470.c       **** Function Name        : Read_32bitSPI_DATA
1450:L6470.c       **** 
1451:L6470.c       **** Prerequist Knowledge : SPI Communication Protocol, TMC5160 SPI Communication Protocol
1452:L6470.c       **** 
1453:L6470.c       **** Function Description : This Function is used to read 32bit data from the driver register
1454:L6470.c       ****                        using 32bit SPI communication protocol specific to TMC5160.
1455:L6470.c       **** 
1456:L6470.c       **** Return Type & Data   :32 bit signed or unsigned integer which was fetched from the register
1457:L6470.c       **** 
1458:L6470.c       **** Numnber of Arguments : 2
1459:L6470.c       **** 
1460:L6470.c       **** -----Argument 1-----
1461:L6470.c       **** Name                 : ADDR
1462:L6470.c       **** Tupe                 : uint8_t
1463:L6470.c       **** Description          : The Address of the TMC5160 Register from which data needs to be read
1464:L6470.c       **** Condition            : Nil
1465:L6470.c       **** --------------------
1466:L6470.c       **** 
1467:L6470.c       **** -----Argument 2-----
1468:L6470.c       **** Name                 : Motor
1469:L6470.c       **** Tupe                 : uint8_t
1470:L6470.c       **** Description          : This Argument Represents the driver channel
1471:L6470.c       **** Condition            : This Value must range from 0x00 to 0x04 since there are only 5 channels
1472:L6470.c       ****                        available in AS76 System Configuration, condition to be checked in 
1473:L6470.c       ****                        SPI_MOTOR_CHIP_SELECT Function                       
1474:L6470.c       **** --------------------
1475:L6470.c       **** 
ARM GAS  C:\Users\Revanth\AppData\Local\Temp\ccSEzD1d.s 			page 62


1476:L6470.c       **** 
1477:L6470.c       **** ---------------------------------------------------------------------------------------------*/
1478:L6470.c       **** 
1479:L6470.c       **** 
1480:L6470.c       **** int Read_32bitSPI_DATA(uint8_t ADDR, uint8_t Motor, uint8_t* motor_status )
1481:L6470.c       **** {
 1763              		.loc 1 1481 0
 1764              		.cfi_startproc
 1765              		@ args = 0, pretend = 0, frame = 0
 1766              		@ frame_needed = 0, uses_anonymous_args = 0
 1767              	.LVL145:
 1768 0000 F8B5     		push	{r3, r4, r5, r6, r7, lr}
 1769              		.cfi_def_cfa_offset 24
 1770              		.cfi_offset 3, -24
 1771              		.cfi_offset 4, -20
 1772              		.cfi_offset 5, -16
 1773              		.cfi_offset 6, -12
 1774              		.cfi_offset 7, -8
 1775              		.cfi_offset 14, -4
 1776 0002 0646     		mov	r6, r0
 1777 0004 0D46     		mov	r5, r1
 1778 0006 1746     		mov	r7, r2
 1779              	.LVL146:
1482:L6470.c       ****                 uint32_t SPI_DATA_VALUE = 0;
1483:L6470.c       ****                
1484:L6470.c       ****                
1485:L6470.c       ****                 SPI_MOTOR_CHIP_SELECT (Motor, 0x00);  
 1780              		.loc 1 1485 0
 1781 0008 0021     		movs	r1, #0
 1782              	.LVL147:
 1783 000a 2846     		mov	r0, r5
 1784              	.LVL148:
 1785 000c FFF7FEFF 		bl	SPI_MOTOR_CHIP_SELECT
 1786              	.LVL149:
1486:L6470.c       ****                 
1487:L6470.c       ****                 Data_To_Transfer(ADDR & 0x7F);                
 1787              		.loc 1 1487 0
 1788 0010 06F07F06 		and	r6, r6, #127
 1789 0014 3046     		mov	r0, r6
 1790 0016 FFF7FEFF 		bl	Data_To_Transfer
 1791              	.LVL150:
1488:L6470.c       ****                 Data_To_Transfer(0x00);                
 1792              		.loc 1 1488 0
 1793 001a 0020     		movs	r0, #0
 1794 001c FFF7FEFF 		bl	Data_To_Transfer
 1795              	.LVL151:
1489:L6470.c       ****                 Data_To_Transfer(0x00);                
 1796              		.loc 1 1489 0
 1797 0020 0020     		movs	r0, #0
 1798 0022 FFF7FEFF 		bl	Data_To_Transfer
 1799              	.LVL152:
1490:L6470.c       ****                 Data_To_Transfer(0x00);                
 1800              		.loc 1 1490 0
 1801 0026 0020     		movs	r0, #0
 1802 0028 FFF7FEFF 		bl	Data_To_Transfer
 1803              	.LVL153:
1491:L6470.c       ****                 Data_To_Transfer(0x00); 
ARM GAS  C:\Users\Revanth\AppData\Local\Temp\ccSEzD1d.s 			page 63


 1804              		.loc 1 1491 0
 1805 002c 0020     		movs	r0, #0
 1806 002e FFF7FEFF 		bl	Data_To_Transfer
 1807              	.LVL154:
1492:L6470.c       ****                 
1493:L6470.c       ****                 SPI_MOTOR_CHIP_SELECT (Motor, 0xFF); 
 1808              		.loc 1 1493 0
 1809 0032 FF21     		movs	r1, #255
 1810 0034 2846     		mov	r0, r5
 1811 0036 FFF7FEFF 		bl	SPI_MOTOR_CHIP_SELECT
 1812              	.LVL155:
1494:L6470.c       ****                 
1495:L6470.c       ****                 CyDelay(1);
 1813              		.loc 1 1495 0
 1814 003a 0120     		movs	r0, #1
 1815 003c FFF7FEFF 		bl	CyDelay
 1816              	.LVL156:
1496:L6470.c       ****                 
1497:L6470.c       ****                 SPI_MOTOR_CHIP_SELECT (Motor, 0x00);
 1817              		.loc 1 1497 0
 1818 0040 0021     		movs	r1, #0
 1819 0042 2846     		mov	r0, r5
 1820 0044 FFF7FEFF 		bl	SPI_MOTOR_CHIP_SELECT
 1821              	.LVL157:
1498:L6470.c       ****                 
1499:L6470.c       ****                 Data_To_Transfer(ADDR & 0x7F);
 1822              		.loc 1 1499 0
 1823 0048 3046     		mov	r0, r6
 1824 004a FFF7FEFF 		bl	Data_To_Transfer
 1825              	.LVL158:
1500:L6470.c       ****                 *motor_status = SPIM_ReadRxData();
 1826              		.loc 1 1500 0
 1827 004e FFF7FEFF 		bl	SPIM_ReadRxData
 1828              	.LVL159:
 1829 0052 3870     		strb	r0, [r7]
1501:L6470.c       ****                 Data_To_Transfer(0x00);
 1830              		.loc 1 1501 0
 1831 0054 0020     		movs	r0, #0
 1832 0056 FFF7FEFF 		bl	Data_To_Transfer
 1833              	.LVL160:
1502:L6470.c       ****                 SPI_DATA_VALUE |= (uint32_t) SPIM_ReadRxData() << 24;
 1834              		.loc 1 1502 0
 1835 005a FFF7FEFF 		bl	SPIM_ReadRxData
 1836              	.LVL161:
 1837 005e 0406     		lsls	r4, r0, #24
 1838              	.LVL162:
1503:L6470.c       ****                 Data_To_Transfer(0x00);
 1839              		.loc 1 1503 0
 1840 0060 0020     		movs	r0, #0
 1841 0062 FFF7FEFF 		bl	Data_To_Transfer
 1842              	.LVL163:
1504:L6470.c       ****                 SPI_DATA_VALUE |= (uint32_t) SPIM_ReadRxData() << 16;
 1843              		.loc 1 1504 0
 1844 0066 FFF7FEFF 		bl	SPIM_ReadRxData
 1845              	.LVL164:
 1846 006a 44EA0044 		orr	r4, r4, r0, lsl #16
 1847              	.LVL165:
ARM GAS  C:\Users\Revanth\AppData\Local\Temp\ccSEzD1d.s 			page 64


1505:L6470.c       ****                 Data_To_Transfer(0x00);
 1848              		.loc 1 1505 0
 1849 006e 0020     		movs	r0, #0
 1850 0070 FFF7FEFF 		bl	Data_To_Transfer
 1851              	.LVL166:
1506:L6470.c       ****                 SPI_DATA_VALUE |= (uint32_t) SPIM_ReadRxData() << 8; 
 1852              		.loc 1 1506 0
 1853 0074 FFF7FEFF 		bl	SPIM_ReadRxData
 1854              	.LVL167:
 1855 0078 44EA0024 		orr	r4, r4, r0, lsl #8
 1856              	.LVL168:
1507:L6470.c       ****                 Data_To_Transfer(0x00); 
 1857              		.loc 1 1507 0
 1858 007c 0020     		movs	r0, #0
 1859 007e FFF7FEFF 		bl	Data_To_Transfer
 1860              	.LVL169:
1508:L6470.c       ****                 SPI_DATA_VALUE |= (uint32_t) SPIM_ReadRxData();
 1861              		.loc 1 1508 0
 1862 0082 FFF7FEFF 		bl	SPIM_ReadRxData
 1863              	.LVL170:
 1864 0086 0443     		orrs	r4, r4, r0
 1865              	.LVL171:
1509:L6470.c       ****                 
1510:L6470.c       ****                 SPI_MOTOR_CHIP_SELECT (Motor, 0xFF);
 1866              		.loc 1 1510 0
 1867 0088 FF21     		movs	r1, #255
 1868 008a 2846     		mov	r0, r5
 1869 008c FFF7FEFF 		bl	SPI_MOTOR_CHIP_SELECT
 1870              	.LVL172:
1511:L6470.c       **** 
1512:L6470.c       ****                 CyDelay(1);
 1871              		.loc 1 1512 0
 1872 0090 0120     		movs	r0, #1
 1873 0092 FFF7FEFF 		bl	CyDelay
 1874              	.LVL173:
1513:L6470.c       ****                 
1514:L6470.c       ****                 SPI_MOTOR_CHIP_SELECT (Motor, 0x00);
 1875              		.loc 1 1514 0
 1876 0096 0021     		movs	r1, #0
 1877 0098 2846     		mov	r0, r5
 1878 009a FFF7FEFF 		bl	SPI_MOTOR_CHIP_SELECT
 1879              	.LVL174:
1515:L6470.c       ****                 
1516:L6470.c       ****                 Data_To_Transfer(ADDR & 0x7F);
 1880              		.loc 1 1516 0
 1881 009e 3046     		mov	r0, r6
 1882 00a0 FFF7FEFF 		bl	Data_To_Transfer
 1883              	.LVL175:
1517:L6470.c       ****                 *motor_status = SPIM_ReadRxData();
 1884              		.loc 1 1517 0
 1885 00a4 FFF7FEFF 		bl	SPIM_ReadRxData
 1886              	.LVL176:
 1887 00a8 3870     		strb	r0, [r7]
1518:L6470.c       ****                 Data_To_Transfer(0x00);
 1888              		.loc 1 1518 0
 1889 00aa 0020     		movs	r0, #0
 1890 00ac FFF7FEFF 		bl	Data_To_Transfer
ARM GAS  C:\Users\Revanth\AppData\Local\Temp\ccSEzD1d.s 			page 65


 1891              	.LVL177:
1519:L6470.c       ****                 SPI_DATA_VALUE |= (uint32_t) SPIM_ReadRxData() << 24;
 1892              		.loc 1 1519 0
 1893 00b0 FFF7FEFF 		bl	SPIM_ReadRxData
 1894              	.LVL178:
 1895 00b4 44EA0064 		orr	r4, r4, r0, lsl #24
 1896              	.LVL179:
1520:L6470.c       ****                 Data_To_Transfer(0x00);
 1897              		.loc 1 1520 0
 1898 00b8 0020     		movs	r0, #0
 1899 00ba FFF7FEFF 		bl	Data_To_Transfer
 1900              	.LVL180:
1521:L6470.c       ****                 SPI_DATA_VALUE |= (uint32_t) SPIM_ReadRxData() << 16;
 1901              		.loc 1 1521 0
 1902 00be FFF7FEFF 		bl	SPIM_ReadRxData
 1903              	.LVL181:
 1904 00c2 44EA0044 		orr	r4, r4, r0, lsl #16
 1905              	.LVL182:
1522:L6470.c       ****                 Data_To_Transfer(0x00);
 1906              		.loc 1 1522 0
 1907 00c6 0020     		movs	r0, #0
 1908 00c8 FFF7FEFF 		bl	Data_To_Transfer
 1909              	.LVL183:
1523:L6470.c       ****                 SPI_DATA_VALUE |= (uint32_t) SPIM_ReadRxData() << 8; 
 1910              		.loc 1 1523 0
 1911 00cc FFF7FEFF 		bl	SPIM_ReadRxData
 1912              	.LVL184:
 1913 00d0 44EA0024 		orr	r4, r4, r0, lsl #8
 1914              	.LVL185:
1524:L6470.c       ****                 Data_To_Transfer(0x00); 
 1915              		.loc 1 1524 0
 1916 00d4 0020     		movs	r0, #0
 1917 00d6 FFF7FEFF 		bl	Data_To_Transfer
 1918              	.LVL186:
1525:L6470.c       ****                 SPI_DATA_VALUE |= (uint32_t) SPIM_ReadRxData();
 1919              		.loc 1 1525 0
 1920 00da FFF7FEFF 		bl	SPIM_ReadRxData
 1921              	.LVL187:
 1922 00de 0443     		orrs	r4, r4, r0
 1923              	.LVL188:
1526:L6470.c       ****                 
1527:L6470.c       ****                 SPI_MOTOR_CHIP_SELECT (Motor, 0xFF);
 1924              		.loc 1 1527 0
 1925 00e0 FF21     		movs	r1, #255
 1926 00e2 2846     		mov	r0, r5
 1927 00e4 FFF7FEFF 		bl	SPI_MOTOR_CHIP_SELECT
 1928              	.LVL189:
1528:L6470.c       ****                 
1529:L6470.c       ****                 
1530:L6470.c       ****                 return SPI_DATA_VALUE;
1531:L6470.c       **** }
 1929              		.loc 1 1531 0
 1930 00e8 2046     		mov	r0, r4
 1931 00ea F8BD     		pop	{r3, r4, r5, r6, r7, pc}
 1932              		.cfi_endproc
 1933              	.LFE102:
 1934              		.size	Read_32bitSPI_DATA, .-Read_32bitSPI_DATA
ARM GAS  C:\Users\Revanth\AppData\Local\Temp\ccSEzD1d.s 			page 66


 1935              		.section	.text.Write_32bitSPI_DATA,"ax",%progbits
 1936              		.align	2
 1937              		.global	Write_32bitSPI_DATA
 1938              		.thumb
 1939              		.thumb_func
 1940              		.type	Write_32bitSPI_DATA, %function
 1941              	Write_32bitSPI_DATA:
 1942              	.LFB103:
1532:L6470.c       **** 
1533:L6470.c       **** //-------------------------- [] END OF Read_32bitSPI_DATA Function ---------------------------
1534:L6470.c       **** 
1535:L6470.c       **** 
1536:L6470.c       **** /* --------------------------------------------------------------------------------------------
1537:L6470.c       **** Function Name        : Write_32bitSPI_DATA
1538:L6470.c       **** 
1539:L6470.c       **** Prerequist Knowledge : SPI Communication Protocol, TMC5160 SPI Communication Protocol
1540:L6470.c       **** 
1541:L6470.c       **** Function Description : This Function is used to write 32bit data to the driver register
1542:L6470.c       ****                        using 32bit SPI communication protocol specific to TMC5160.
1543:L6470.c       **** 
1544:L6470.c       **** Return Type & Data   :Void
1545:L6470.c       **** 
1546:L6470.c       **** Numnber of Arguments : 3
1547:L6470.c       **** 
1548:L6470.c       **** -----Argument 1-----
1549:L6470.c       **** Name                 : ADDR
1550:L6470.c       **** Tupe                 : uint8_t
1551:L6470.c       **** Description          : The Address of the TMC5160 Register to which data needs to be written
1552:L6470.c       **** Condition            : Nil
1553:L6470.c       **** --------------------
1554:L6470.c       **** 
1555:L6470.c       **** -----Argument 2-----
1556:L6470.c       **** Name                 : data
1557:L6470.c       **** Tupe                 : uint8_t
1558:L6470.c       **** Description          : The 32bit data that needs to be written to TMC5160 register
1559:L6470.c       **** Condition            : Nil
1560:L6470.c       **** --------------------
1561:L6470.c       **** 
1562:L6470.c       **** -----Argument 3-----
1563:L6470.c       **** Name                 : Motor
1564:L6470.c       **** Tupe                 : uint8_t
1565:L6470.c       **** Description          : This Argument Represents the driver channel
1566:L6470.c       **** Condition            : This Value must range from 0x00 to 0x04 since there are only 5 channels
1567:L6470.c       ****                        available in AS76 System Configuration, condition to be checked in 
1568:L6470.c       ****                        SPI_MOTOR_CHIP_SELECT Function                       
1569:L6470.c       **** --------------------
1570:L6470.c       **** 
1571:L6470.c       **** ---------------------------------------------------------------------------------------------*/
1572:L6470.c       **** 
1573:L6470.c       **** void Write_32bitSPI_DATA (uint8_t ADDR, int data, uint8_t Motor)
1574:L6470.c       **** {
 1943              		.loc 1 1574 0
 1944              		.cfi_startproc
 1945              		@ args = 0, pretend = 0, frame = 0
 1946              		@ frame_needed = 0, uses_anonymous_args = 0
 1947              	.LVL190:
 1948 0000 70B5     		push	{r4, r5, r6, lr}
ARM GAS  C:\Users\Revanth\AppData\Local\Temp\ccSEzD1d.s 			page 67


 1949              		.cfi_def_cfa_offset 16
 1950              		.cfi_offset 4, -16
 1951              		.cfi_offset 5, -12
 1952              		.cfi_offset 6, -8
 1953              		.cfi_offset 14, -4
 1954 0002 0646     		mov	r6, r0
 1955 0004 0C46     		mov	r4, r1
 1956 0006 1546     		mov	r5, r2
1575:L6470.c       ****  
1576:L6470.c       ****                 SPI_MOTOR_CHIP_SELECT (Motor, 0x00);
 1957              		.loc 1 1576 0
 1958 0008 0021     		movs	r1, #0
 1959              	.LVL191:
 1960 000a 1046     		mov	r0, r2
 1961              	.LVL192:
 1962 000c FFF7FEFF 		bl	SPI_MOTOR_CHIP_SELECT
 1963              	.LVL193:
1577:L6470.c       ****                 Data_To_Transfer(ADDR | 0x80);                
 1964              		.loc 1 1577 0
 1965 0010 46F08000 		orr	r0, r6, #128
 1966 0014 FFF7FEFF 		bl	Data_To_Transfer
 1967              	.LVL194:
1578:L6470.c       ****                 Data_To_Transfer((data & 0xFF000000) >> 24);
 1968              		.loc 1 1578 0
 1969 0018 200E     		lsrs	r0, r4, #24
 1970 001a FFF7FEFF 		bl	Data_To_Transfer
 1971              	.LVL195:
1579:L6470.c       ****                 Data_To_Transfer((data & 0xFF0000) >> 16);
 1972              		.loc 1 1579 0
 1973 001e C4F30740 		ubfx	r0, r4, #16, #8
 1974 0022 FFF7FEFF 		bl	Data_To_Transfer
 1975              	.LVL196:
1580:L6470.c       ****                 Data_To_Transfer((data & 0xFF00) >> 8);
 1976              		.loc 1 1580 0
 1977 0026 C4F30720 		ubfx	r0, r4, #8, #8
 1978 002a FFF7FEFF 		bl	Data_To_Transfer
 1979              	.LVL197:
1581:L6470.c       ****                 Data_To_Transfer(data & 0xFF);     
 1980              		.loc 1 1581 0
 1981 002e E0B2     		uxtb	r0, r4
 1982 0030 FFF7FEFF 		bl	Data_To_Transfer
 1983              	.LVL198:
1582:L6470.c       ****                 SPI_MOTOR_CHIP_SELECT (Motor, 0xFF); 
 1984              		.loc 1 1582 0
 1985 0034 FF21     		movs	r1, #255
 1986 0036 2846     		mov	r0, r5
 1987 0038 FFF7FEFF 		bl	SPI_MOTOR_CHIP_SELECT
 1988              	.LVL199:
 1989 003c 70BD     		pop	{r4, r5, r6, pc}
 1990              		.cfi_endproc
 1991              	.LFE103:
 1992              		.size	Write_32bitSPI_DATA, .-Write_32bitSPI_DATA
 1993 003e 00BF     		.section	.text.GotoPos,"ax",%progbits
 1994              		.align	2
 1995              		.global	GotoPos
 1996              		.thumb
 1997              		.thumb_func
ARM GAS  C:\Users\Revanth\AppData\Local\Temp\ccSEzD1d.s 			page 68


 1998              		.type	GotoPos, %function
 1999              	GotoPos:
 2000              	.LFB64:
  91:L6470.c       ****     Write_32bitSPI_DATA (0x20  , (int) 0x00000000, Motor );
 2001              		.loc 1 91 0
 2002              		.cfi_startproc
 2003              		@ args = 0, pretend = 0, frame = 0
 2004              		@ frame_needed = 0, uses_anonymous_args = 0
 2005              	.LVL200:
 2006 0000 38B5     		push	{r3, r4, r5, lr}
 2007              		.cfi_def_cfa_offset 16
 2008              		.cfi_offset 3, -16
 2009              		.cfi_offset 4, -12
 2010              		.cfi_offset 5, -8
 2011              		.cfi_offset 14, -4
 2012 0002 0546     		mov	r5, r0
 2013 0004 0C46     		mov	r4, r1
  92:L6470.c       ****     Write_32bitSPI_DATA (0x05  , Pos, Motor );
 2014              		.loc 1 92 0
 2015 0006 0A46     		mov	r2, r1
 2016 0008 0021     		movs	r1, #0
 2017              	.LVL201:
 2018 000a 2020     		movs	r0, #32
 2019              	.LVL202:
 2020 000c FFF7FEFF 		bl	Write_32bitSPI_DATA
 2021              	.LVL203:
  93:L6470.c       ****     Write_32bitSPI_DATA (0x2D  , Pos, Motor );   
 2022              		.loc 1 93 0
 2023 0010 2246     		mov	r2, r4
 2024 0012 2946     		mov	r1, r5
 2025 0014 0520     		movs	r0, #5
 2026 0016 FFF7FEFF 		bl	Write_32bitSPI_DATA
 2027              	.LVL204:
  94:L6470.c       **** 
 2028              		.loc 1 94 0
 2029 001a 2246     		mov	r2, r4
 2030 001c 2946     		mov	r1, r5
 2031 001e 2D20     		movs	r0, #45
 2032 0020 FFF7FEFF 		bl	Write_32bitSPI_DATA
 2033              	.LVL205:
 2034 0024 38BD     		pop	{r3, r4, r5, pc}
 2035              		.cfi_endproc
 2036              	.LFE64:
 2037              		.size	GotoPos, .-GotoPos
 2038 0026 00BF     		.section	.text.Initialize_Motor,"ax",%progbits
 2039              		.align	2
 2040              		.global	Initialize_Motor
 2041              		.thumb
 2042              		.thumb_func
 2043              		.type	Initialize_Motor, %function
 2044              	Initialize_Motor:
 2045              	.LFB104:
1583:L6470.c       ****    
1584:L6470.c       ****     
1585:L6470.c       **** }
1586:L6470.c       **** 
1587:L6470.c       **** //-------------------------- [] END OF Write_32bitSPI_DATA Function ---------------------------
ARM GAS  C:\Users\Revanth\AppData\Local\Temp\ccSEzD1d.s 			page 69


1588:L6470.c       **** 
1589:L6470.c       **** void Initialize_Motor(uint8_t Motor)
1590:L6470.c       **** {
 2046              		.loc 1 1590 0
 2047              		.cfi_startproc
 2048              		@ args = 0, pretend = 0, frame = 0
 2049              		@ frame_needed = 0, uses_anonymous_args = 0
 2050              	.LVL206:
 2051 0000 10B5     		push	{r4, lr}
 2052              		.cfi_def_cfa_offset 8
 2053              		.cfi_offset 4, -8
 2054              		.cfi_offset 14, -4
 2055 0002 0446     		mov	r4, r0
1591:L6470.c       ****             Write_32bitSPI_DATA (0x01  , (int) 0x00000005, Motor );
 2056              		.loc 1 1591 0
 2057 0004 0246     		mov	r2, r0
 2058 0006 0521     		movs	r1, #5
 2059 0008 0120     		movs	r0, #1
 2060              	.LVL207:
 2061 000a FFF7FEFF 		bl	Write_32bitSPI_DATA
 2062              	.LVL208:
1592:L6470.c       ****             Write_32bitSPI_DATA (0x00  , (int) 0x00000008, Motor );
 2063              		.loc 1 1592 0
 2064 000e 2246     		mov	r2, r4
 2065 0010 0821     		movs	r1, #8
 2066 0012 0020     		movs	r0, #0
 2067 0014 FFF7FEFF 		bl	Write_32bitSPI_DATA
 2068              	.LVL209:
1593:L6470.c       ****             Write_32bitSPI_DATA (0x03  , (int) 0x00000000, Motor );
 2069              		.loc 1 1593 0
 2070 0018 2246     		mov	r2, r4
 2071 001a 0021     		movs	r1, #0
 2072 001c 0320     		movs	r0, #3
 2073 001e FFF7FEFF 		bl	Write_32bitSPI_DATA
 2074              	.LVL210:
1594:L6470.c       ****             Write_32bitSPI_DATA (0x05  , (int) 0x00000000, Motor );
 2075              		.loc 1 1594 0
 2076 0022 2246     		mov	r2, r4
 2077 0024 0021     		movs	r1, #0
 2078 0026 0520     		movs	r0, #5
 2079 0028 FFF7FEFF 		bl	Write_32bitSPI_DATA
 2080              	.LVL211:
1595:L6470.c       ****             Write_32bitSPI_DATA (0x06  , (int) 0x00000000, Motor );
 2081              		.loc 1 1595 0
 2082 002c 2246     		mov	r2, r4
 2083 002e 0021     		movs	r1, #0
 2084 0030 0620     		movs	r0, #6
 2085 0032 FFF7FEFF 		bl	Write_32bitSPI_DATA
 2086              	.LVL212:
1596:L6470.c       ****             Write_32bitSPI_DATA (0x08  , (int) 0x0000000F, Motor );
 2087              		.loc 1 1596 0
 2088 0036 2246     		mov	r2, r4
 2089 0038 0F21     		movs	r1, #15
 2090 003a 0820     		movs	r0, #8
 2091 003c FFF7FEFF 		bl	Write_32bitSPI_DATA
 2092              	.LVL213:
1597:L6470.c       ****             Write_32bitSPI_DATA (0x09  , (int) 0x00010606, Motor );
ARM GAS  C:\Users\Revanth\AppData\Local\Temp\ccSEzD1d.s 			page 70


 2093              		.loc 1 1597 0
 2094 0040 2246     		mov	r2, r4
 2095 0042 6749     		ldr	r1, .L148
 2096 0044 0920     		movs	r0, #9
 2097 0046 FFF7FEFF 		bl	Write_32bitSPI_DATA
 2098              	.LVL214:
1598:L6470.c       ****             Write_32bitSPI_DATA (0x0A  , (int) 0x0008041F, Motor );
 2099              		.loc 1 1598 0
 2100 004a 2246     		mov	r2, r4
 2101 004c 6549     		ldr	r1, .L148+4
 2102 004e 0A20     		movs	r0, #10
 2103 0050 FFF7FEFF 		bl	Write_32bitSPI_DATA
 2104              	.LVL215:
1599:L6470.c       ****             Write_32bitSPI_DATA (0x0B  , (int) 0x00000000, Motor );
 2105              		.loc 1 1599 0
 2106 0054 2246     		mov	r2, r4
 2107 0056 0021     		movs	r1, #0
 2108 0058 0B20     		movs	r0, #11
 2109 005a FFF7FEFF 		bl	Write_32bitSPI_DATA
 2110              	.LVL216:
1600:L6470.c       ****             Write_32bitSPI_DATA (0x10  , (int) 0x00070301, Motor );
 2111              		.loc 1 1600 0
 2112 005e 2246     		mov	r2, r4
 2113 0060 6149     		ldr	r1, .L148+8
 2114 0062 1020     		movs	r0, #16
 2115 0064 FFF7FEFF 		bl	Write_32bitSPI_DATA
 2116              	.LVL217:
1601:L6470.c       ****             Write_32bitSPI_DATA (0x11  , (int) 0x0000000A, Motor );
 2117              		.loc 1 1601 0
 2118 0068 2246     		mov	r2, r4
 2119 006a 0A21     		movs	r1, #10
 2120 006c 1120     		movs	r0, #17
 2121 006e FFF7FEFF 		bl	Write_32bitSPI_DATA
 2122              	.LVL218:
1602:L6470.c       ****             Write_32bitSPI_DATA (0x13  , (int) 0x00000000, Motor );
 2123              		.loc 1 1602 0
 2124 0072 2246     		mov	r2, r4
 2125 0074 0021     		movs	r1, #0
 2126 0076 1320     		movs	r0, #19
 2127 0078 FFF7FEFF 		bl	Write_32bitSPI_DATA
 2128              	.LVL219:
1603:L6470.c       ****             Write_32bitSPI_DATA (0x14  , (int) 0x00000000, Motor );
 2129              		.loc 1 1603 0
 2130 007c 2246     		mov	r2, r4
 2131 007e 0021     		movs	r1, #0
 2132 0080 1420     		movs	r0, #20
 2133 0082 FFF7FEFF 		bl	Write_32bitSPI_DATA
 2134              	.LVL220:
1604:L6470.c       ****             Write_32bitSPI_DATA (0x15  , (int) 0x00000000, Motor );
 2135              		.loc 1 1604 0
 2136 0086 2246     		mov	r2, r4
 2137 0088 0021     		movs	r1, #0
 2138 008a 1520     		movs	r0, #21
 2139 008c FFF7FEFF 		bl	Write_32bitSPI_DATA
 2140              	.LVL221:
1605:L6470.c       ****             
1606:L6470.c       ****             Write_32bitSPI_DATA (0x21  , (int) 0x00000000, Motor );
ARM GAS  C:\Users\Revanth\AppData\Local\Temp\ccSEzD1d.s 			page 71


 2141              		.loc 1 1606 0
 2142 0090 2246     		mov	r2, r4
 2143 0092 0021     		movs	r1, #0
 2144 0094 2120     		movs	r0, #33
 2145 0096 FFF7FEFF 		bl	Write_32bitSPI_DATA
 2146              	.LVL222:
1607:L6470.c       ****             Write_32bitSPI_DATA (0x23  , (int) 0x00004A38, Motor );
 2147              		.loc 1 1607 0
 2148 009a 2246     		mov	r2, r4
 2149 009c 44F63821 		movw	r1, #19000
 2150 00a0 2320     		movs	r0, #35
 2151 00a2 FFF7FEFF 		bl	Write_32bitSPI_DATA
 2152              	.LVL223:
1608:L6470.c       ****             
1609:L6470.c       ****             Write_32bitSPI_DATA (0x2C  , (int) 0x00000000, Motor );
 2153              		.loc 1 1609 0
 2154 00a6 2246     		mov	r2, r4
 2155 00a8 0021     		movs	r1, #0
 2156 00aa 2C20     		movs	r0, #44
 2157 00ac FFF7FEFF 		bl	Write_32bitSPI_DATA
 2158              	.LVL224:
1610:L6470.c       ****             
1611:L6470.c       ****             Write_32bitSPI_DATA (0x33  , (int) 0x00000000, Motor );
 2159              		.loc 1 1611 0
 2160 00b0 2246     		mov	r2, r4
 2161 00b2 0021     		movs	r1, #0
 2162 00b4 3320     		movs	r0, #51
 2163 00b6 FFF7FEFF 		bl	Write_32bitSPI_DATA
 2164              	.LVL225:
1612:L6470.c       ****             Write_32bitSPI_DATA (0x34  , (int) 0x000002AF, Motor );
 2165              		.loc 1 1612 0
 2166 00ba 2246     		mov	r2, r4
 2167 00bc 40F2AF21 		movw	r1, #687
 2168 00c0 3420     		movs	r0, #52
 2169 00c2 FFF7FEFF 		bl	Write_32bitSPI_DATA
 2170              	.LVL226:
1613:L6470.c       ****             Write_32bitSPI_DATA (0x38  , (int) 0x00000000, Motor );
 2171              		.loc 1 1613 0
 2172 00c6 2246     		mov	r2, r4
 2173 00c8 0021     		movs	r1, #0
 2174 00ca 3820     		movs	r0, #56
 2175 00cc FFF7FEFF 		bl	Write_32bitSPI_DATA
 2176              	.LVL227:
1614:L6470.c       ****             Write_32bitSPI_DATA (0x39  , (int) 0x00000000, Motor );
 2177              		.loc 1 1614 0
 2178 00d0 2246     		mov	r2, r4
 2179 00d2 0021     		movs	r1, #0
 2180 00d4 3920     		movs	r0, #57
 2181 00d6 FFF7FEFF 		bl	Write_32bitSPI_DATA
 2182              	.LVL228:
1615:L6470.c       ****             Write_32bitSPI_DATA (0x3A  , (int) 0x00010000, Motor );
 2183              		.loc 1 1615 0
 2184 00da 2246     		mov	r2, r4
 2185 00dc 4FF48031 		mov	r1, #65536
 2186 00e0 3A20     		movs	r0, #58
 2187 00e2 FFF7FEFF 		bl	Write_32bitSPI_DATA
 2188              	.LVL229:
ARM GAS  C:\Users\Revanth\AppData\Local\Temp\ccSEzD1d.s 			page 72


1616:L6470.c       ****             Write_32bitSPI_DATA (0x3D  , (int) 0x00000000, Motor );
 2189              		.loc 1 1616 0
 2190 00e6 2246     		mov	r2, r4
 2191 00e8 0021     		movs	r1, #0
 2192 00ea 3D20     		movs	r0, #61
 2193 00ec FFF7FEFF 		bl	Write_32bitSPI_DATA
 2194              	.LVL230:
1617:L6470.c       ****             Write_32bitSPI_DATA (0x60  , (int) 0xAAAAB554, Motor );
 2195              		.loc 1 1617 0
 2196 00f0 2246     		mov	r2, r4
 2197 00f2 3E49     		ldr	r1, .L148+12
 2198 00f4 6020     		movs	r0, #96
 2199 00f6 FFF7FEFF 		bl	Write_32bitSPI_DATA
 2200              	.LVL231:
1618:L6470.c       ****             Write_32bitSPI_DATA (0x61  , (int) 0x4A9554AA, Motor );
 2201              		.loc 1 1618 0
 2202 00fa 2246     		mov	r2, r4
 2203 00fc 3C49     		ldr	r1, .L148+16
 2204 00fe 6120     		movs	r0, #97
 2205 0100 FFF7FEFF 		bl	Write_32bitSPI_DATA
 2206              	.LVL232:
1619:L6470.c       ****             Write_32bitSPI_DATA (0x62  , (int) 0x24492929, Motor );
 2207              		.loc 1 1619 0
 2208 0104 2246     		mov	r2, r4
 2209 0106 3B49     		ldr	r1, .L148+20
 2210 0108 6220     		movs	r0, #98
 2211 010a FFF7FEFF 		bl	Write_32bitSPI_DATA
 2212              	.LVL233:
1620:L6470.c       ****             Write_32bitSPI_DATA (0x63  , (int) 0x00000008, Motor );
 2213              		.loc 1 1620 0
 2214 010e 2246     		mov	r2, r4
 2215 0110 0821     		movs	r1, #8
 2216 0112 6320     		movs	r0, #99
 2217 0114 FFF7FEFF 		bl	Write_32bitSPI_DATA
 2218              	.LVL234:
1621:L6470.c       ****             Write_32bitSPI_DATA (0x64  , (int) 0xFBFFFFFF, Motor );
 2219              		.loc 1 1621 0
 2220 0118 2246     		mov	r2, r4
 2221 011a 6FF08061 		mvn	r1, #67108864
 2222 011e 6420     		movs	r0, #100
 2223 0120 FFF7FEFF 		bl	Write_32bitSPI_DATA
 2224              	.LVL235:
1622:L6470.c       ****             Write_32bitSPI_DATA (0x65  , (int) 0xB5BB777D, Motor );
 2225              		.loc 1 1622 0
 2226 0124 2246     		mov	r2, r4
 2227 0126 3449     		ldr	r1, .L148+24
 2228 0128 6520     		movs	r0, #101
 2229 012a FFF7FEFF 		bl	Write_32bitSPI_DATA
 2230              	.LVL236:
1623:L6470.c       ****             Write_32bitSPI_DATA (0x66  , (int) 0x49295556, Motor );
 2231              		.loc 1 1623 0
 2232 012e 2246     		mov	r2, r4
 2233 0130 3249     		ldr	r1, .L148+28
 2234 0132 6620     		movs	r0, #102
 2235 0134 FFF7FEFF 		bl	Write_32bitSPI_DATA
 2236              	.LVL237:
1624:L6470.c       ****             Write_32bitSPI_DATA (0x67  , (int) 0x00404222, Motor );
ARM GAS  C:\Users\Revanth\AppData\Local\Temp\ccSEzD1d.s 			page 73


 2237              		.loc 1 1624 0
 2238 0138 2246     		mov	r2, r4
 2239 013a 3149     		ldr	r1, .L148+32
 2240 013c 6720     		movs	r0, #103
 2241 013e FFF7FEFF 		bl	Write_32bitSPI_DATA
 2242              	.LVL238:
1625:L6470.c       ****             Write_32bitSPI_DATA (0x68  , (int) 0xFFFF8056, Motor );
 2243              		.loc 1 1625 0
 2244 0142 2246     		mov	r2, r4
 2245 0144 2F49     		ldr	r1, .L148+36
 2246 0146 6820     		movs	r0, #104
 2247 0148 FFF7FEFF 		bl	Write_32bitSPI_DATA
 2248              	.LVL239:
1626:L6470.c       ****             Write_32bitSPI_DATA (0x69  , (int) 0x00F70000, Motor );
 2249              		.loc 1 1626 0
 2250 014c 2246     		mov	r2, r4
 2251 014e 4FF47701 		mov	r1, #16187392
 2252 0152 6920     		movs	r0, #105
 2253 0154 FFF7FEFF 		bl	Write_32bitSPI_DATA
 2254              	.LVL240:
1627:L6470.c       ****            
1628:L6470.c       ****             Write_32bitSPI_DATA (0x6C  , (int) 0x00410153, Motor ); 
 2255              		.loc 1 1628 0
 2256 0158 2246     		mov	r2, r4
 2257 015a 2B49     		ldr	r1, .L148+40
 2258 015c 6C20     		movs	r0, #108
 2259 015e FFF7FEFF 		bl	Write_32bitSPI_DATA
 2260              	.LVL241:
1629:L6470.c       ****             Write_32bitSPI_DATA (0x6D  , (int) 0x00000000, Motor );
 2261              		.loc 1 1629 0
 2262 0162 2246     		mov	r2, r4
 2263 0164 0021     		movs	r1, #0
 2264 0166 6D20     		movs	r0, #109
 2265 0168 FFF7FEFF 		bl	Write_32bitSPI_DATA
 2266              	.LVL242:
1630:L6470.c       **** 
1631:L6470.c       ****             Write_32bitSPI_DATA (0x6E  , (int) 0x00000000, Motor );
 2267              		.loc 1 1631 0
 2268 016c 2246     		mov	r2, r4
 2269 016e 0021     		movs	r1, #0
 2270 0170 6E20     		movs	r0, #110
 2271 0172 FFF7FEFF 		bl	Write_32bitSPI_DATA
 2272              	.LVL243:
1632:L6470.c       ****             Write_32bitSPI_DATA (0x70  , (int) 0xC40C001E, Motor ); 
 2273              		.loc 1 1632 0
 2274 0176 2246     		mov	r2, r4
 2275 0178 2449     		ldr	r1, .L148+44
 2276 017a 7020     		movs	r0, #112
 2277 017c FFF7FEFF 		bl	Write_32bitSPI_DATA
 2278              	.LVL244:
1633:L6470.c       ****             
1634:L6470.c       ****             Write_32bitSPI_DATA (0x24  , (int) 0x00001C77, Motor );
 2279              		.loc 1 1634 0
 2280 0180 2246     		mov	r2, r4
 2281 0182 41F67741 		movw	r1, #7287
 2282 0186 2420     		movs	r0, #36
 2283 0188 FFF7FEFF 		bl	Write_32bitSPI_DATA
ARM GAS  C:\Users\Revanth\AppData\Local\Temp\ccSEzD1d.s 			page 74


 2284              	.LVL245:
1635:L6470.c       ****             Write_32bitSPI_DATA (0x25  , (int) 0x00004A38, Motor );
 2285              		.loc 1 1635 0
 2286 018c 2246     		mov	r2, r4
 2287 018e 44F63821 		movw	r1, #19000
 2288 0192 2520     		movs	r0, #37
 2289 0194 FFF7FEFF 		bl	Write_32bitSPI_DATA
 2290              	.LVL246:
1636:L6470.c       ****             Write_32bitSPI_DATA (0x26  , (int) 0x00005ACF, Motor );
 2291              		.loc 1 1636 0
 2292 0198 2246     		mov	r2, r4
 2293 019a 45F6CF21 		movw	r1, #23247
 2294 019e 2620     		movs	r0, #38
 2295 01a0 FFF7FEFF 		bl	Write_32bitSPI_DATA
 2296              	.LVL247:
1637:L6470.c       ****             Write_32bitSPI_DATA (0x27  , (int) 0x0007A5C3, Motor );
 2297              		.loc 1 1637 0
 2298 01a4 2246     		mov	r2, r4
 2299 01a6 1A49     		ldr	r1, .L148+48
 2300 01a8 2720     		movs	r0, #39
 2301 01aa FFF7FEFF 		bl	Write_32bitSPI_DATA
 2302              	.LVL248:
1638:L6470.c       ****             Write_32bitSPI_DATA (0x28  , (int) 0x0000FFFF, Motor );
 2303              		.loc 1 1638 0
 2304 01ae 2246     		mov	r2, r4
 2305 01b0 4FF6FF71 		movw	r1, #65535
 2306 01b4 2820     		movs	r0, #40
 2307 01b6 FFF7FEFF 		bl	Write_32bitSPI_DATA
 2308              	.LVL249:
1639:L6470.c       ****             Write_32bitSPI_DATA (0x2A  , (int) 0x0000FFFF, Motor );
 2309              		.loc 1 1639 0
 2310 01ba 2246     		mov	r2, r4
 2311 01bc 4FF6FF71 		movw	r1, #65535
 2312 01c0 2A20     		movs	r0, #42
 2313 01c2 FFF7FEFF 		bl	Write_32bitSPI_DATA
 2314              	.LVL250:
1640:L6470.c       ****             Write_32bitSPI_DATA (0x2B  , (int) 0x00004A38, Motor );
 2315              		.loc 1 1640 0
 2316 01c6 2246     		mov	r2, r4
 2317 01c8 44F63821 		movw	r1, #19000
 2318 01cc 2B20     		movs	r0, #43
 2319 01ce FFF7FEFF 		bl	Write_32bitSPI_DATA
 2320              	.LVL251:
1641:L6470.c       ****             Write_32bitSPI_DATA (0x20  , (int) 0x00000000, Motor );
 2321              		.loc 1 1641 0
 2322 01d2 2246     		mov	r2, r4
 2323 01d4 0021     		movs	r1, #0
 2324 01d6 2020     		movs	r0, #32
 2325 01d8 FFF7FEFF 		bl	Write_32bitSPI_DATA
 2326              	.LVL252:
 2327 01dc 10BD     		pop	{r4, pc}
 2328              	.L149:
 2329 01de 00BF     		.align	2
 2330              	.L148:
 2331 01e0 06060100 		.word	67078
 2332 01e4 1F040800 		.word	525343
 2333 01e8 01030700 		.word	459521
ARM GAS  C:\Users\Revanth\AppData\Local\Temp\ccSEzD1d.s 			page 75


 2334 01ec 54B5AAAA 		.word	-1431653036
 2335 01f0 AA54954A 		.word	1251300522
 2336 01f4 29294924 		.word	608774441
 2337 01f8 7D77BBB5 		.word	-1246005379
 2338 01fc 56552949 		.word	1227445590
 2339 0200 22424000 		.word	4211234
 2340 0204 5680FFFF 		.word	-32682
 2341 0208 53014100 		.word	4260179
 2342 020c 1E000CC4 		.word	-1005846498
 2343 0210 C3A50700 		.word	501187
 2344              		.cfi_endproc
 2345              	.LFE104:
 2346              		.size	Initialize_Motor, .-Initialize_Motor
 2347              		.section	.text.IsPositionReached,"ax",%progbits
 2348              		.align	2
 2349              		.global	IsPositionReached
 2350              		.thumb
 2351              		.thumb_func
 2352              		.type	IsPositionReached, %function
 2353              	IsPositionReached:
 2354              	.LFB105:
1642:L6470.c       **** }
1643:L6470.c       **** 
1644:L6470.c       **** 
1645:L6470.c       **** 
1646:L6470.c       **** bool IsPositionReached (uint8_t Motor)
1647:L6470.c       **** {
 2355              		.loc 1 1647 0
 2356              		.cfi_startproc
 2357              		@ args = 0, pretend = 0, frame = 0
 2358              		@ frame_needed = 0, uses_anonymous_args = 0
 2359              	.LVL253:
 2360 0000 38B5     		push	{r3, r4, r5, lr}
 2361              		.cfi_def_cfa_offset 16
 2362              		.cfi_offset 3, -16
 2363              		.cfi_offset 4, -12
 2364              		.cfi_offset 5, -8
 2365              		.cfi_offset 14, -4
 2366 0002 0546     		mov	r5, r0
1648:L6470.c       ****          bool status;
1649:L6470.c       ****          CyDelayUs(500);
 2367              		.loc 1 1649 0
 2368 0004 4FF4FA70 		mov	r0, #500
 2369              	.LVL254:
 2370 0008 FFF7FEFF 		bl	CyDelayUs
 2371              	.LVL255:
1650:L6470.c       ****          Read_32bitSPI_DATA(0x04, Motor, &status_x);
 2372              		.loc 1 1650 0
 2373 000c 0A4C     		ldr	r4, .L154
 2374 000e 2246     		mov	r2, r4
 2375 0010 2946     		mov	r1, r5
 2376 0012 0420     		movs	r0, #4
 2377 0014 FFF7FEFF 		bl	Read_32bitSPI_DATA
 2378              	.LVL256:
1651:L6470.c       ****          CyDelayUs(100);
 2379              		.loc 1 1651 0
 2380 0018 6420     		movs	r0, #100
ARM GAS  C:\Users\Revanth\AppData\Local\Temp\ccSEzD1d.s 			page 76


 2381 001a FFF7FEFF 		bl	CyDelayUs
 2382              	.LVL257:
1652:L6470.c       ****          Read_32bitSPI_DATA(0x04, Motor, &status_x);
 2383              		.loc 1 1652 0
 2384 001e 2246     		mov	r2, r4
 2385 0020 2946     		mov	r1, r5
 2386 0022 0420     		movs	r0, #4
 2387 0024 FFF7FEFF 		bl	Read_32bitSPI_DATA
 2388              	.LVL258:
1653:L6470.c       ****          if ( (status_x & 0x20) == 0x00)
 2389              		.loc 1 1653 0
 2390 0028 2378     		ldrb	r3, [r4]	@ zero_extendqisi2
 2391 002a 13F0200F 		tst	r3, #32
 2392 002e 01D1     		bne	.L152
1654:L6470.c       ****             {
1655:L6470.c       ****                  status = false;
 2393              		.loc 1 1655 0
 2394 0030 0020     		movs	r0, #0
 2395 0032 38BD     		pop	{r3, r4, r5, pc}
 2396              	.L152:
1656:L6470.c       ****    
1657:L6470.c       ****             }
1658:L6470.c       ****          else
1659:L6470.c       ****             {
1660:L6470.c       ****                  status = true;
 2397              		.loc 1 1660 0
 2398 0034 0120     		movs	r0, #1
 2399              	.LVL259:
1661:L6470.c       ****             }
1662:L6470.c       ****             
1663:L6470.c       ****          return status;
1664:L6470.c       **** }
 2400              		.loc 1 1664 0
 2401 0036 38BD     		pop	{r3, r4, r5, pc}
 2402              	.L155:
 2403              		.align	2
 2404              	.L154:
 2405 0038 00000000 		.word	status_x
 2406              		.cfi_endproc
 2407              	.LFE105:
 2408              		.size	IsPositionReached, .-IsPositionReached
 2409              		.section	.text.WaitTillPositionReached,"ax",%progbits
 2410              		.align	2
 2411              		.global	WaitTillPositionReached
 2412              		.thumb
 2413              		.thumb_func
 2414              		.type	WaitTillPositionReached, %function
 2415              	WaitTillPositionReached:
 2416              	.LFB106:
1665:L6470.c       **** 
1666:L6470.c       **** int WaitTillPositionReached (uint8_t Motor)
1667:L6470.c       **** {
 2417              		.loc 1 1667 0
 2418              		.cfi_startproc
 2419              		@ args = 0, pretend = 0, frame = 8
 2420              		@ frame_needed = 0, uses_anonymous_args = 0
 2421              	.LVL260:
ARM GAS  C:\Users\Revanth\AppData\Local\Temp\ccSEzD1d.s 			page 77


 2422 0000 30B5     		push	{r4, r5, lr}
 2423              		.cfi_def_cfa_offset 12
 2424              		.cfi_offset 4, -12
 2425              		.cfi_offset 5, -8
 2426              		.cfi_offset 14, -4
 2427 0002 83B0     		sub	sp, sp, #12
 2428              		.cfi_def_cfa_offset 24
 2429 0004 0446     		mov	r4, r0
1668:L6470.c       ****          uint8_t wait_status = 0;
 2430              		.loc 1 1668 0
 2431 0006 02AD     		add	r5, sp, #8
 2432 0008 0023     		movs	r3, #0
 2433 000a 05F8013D 		strb	r3, [r5, #-1]!
 2434              	.LVL261:
1669:L6470.c       ****          bool status = 0;
1670:L6470.c       ****          CyDelayUs(500);
 2435              		.loc 1 1670 0
 2436 000e 4FF4FA70 		mov	r0, #500
 2437              	.LVL262:
 2438 0012 FFF7FEFF 		bl	CyDelayUs
 2439              	.LVL263:
1671:L6470.c       ****          Read_32bitSPI_DATA(0x04, Motor, &wait_status);
 2440              		.loc 1 1671 0
 2441 0016 2A46     		mov	r2, r5
 2442 0018 2146     		mov	r1, r4
 2443 001a 0420     		movs	r0, #4
 2444 001c FFF7FEFF 		bl	Read_32bitSPI_DATA
 2445              	.LVL264:
1672:L6470.c       ****          CyDelayUs(100);
 2446              		.loc 1 1672 0
 2447 0020 6420     		movs	r0, #100
 2448 0022 FFF7FEFF 		bl	CyDelayUs
 2449              	.LVL265:
1673:L6470.c       ****          Read_32bitSPI_DATA(0x04, Motor, &wait_status);
 2450              		.loc 1 1673 0
 2451 0026 2A46     		mov	r2, r5
 2452 0028 2146     		mov	r1, r4
 2453 002a 0420     		movs	r0, #4
 2454 002c FFF7FEFF 		bl	Read_32bitSPI_DATA
 2455              	.LVL266:
1674:L6470.c       ****          while ( (wait_status & 0x20) == 0x00)
 2456              		.loc 1 1674 0
 2457 0030 08E0     		b	.L157
 2458              	.L158:
1675:L6470.c       ****             {
1676:L6470.c       ****                  Read_32bitSPI_DATA(0x21, Motor,  &wait_status);                
 2459              		.loc 1 1676 0
 2460 0032 0DF10702 		add	r2, sp, #7
 2461 0036 2146     		mov	r1, r4
 2462 0038 2120     		movs	r0, #33
 2463 003a FFF7FEFF 		bl	Read_32bitSPI_DATA
 2464              	.LVL267:
1677:L6470.c       ****                  CyDelayUs(100);
 2465              		.loc 1 1677 0
 2466 003e 6420     		movs	r0, #100
 2467 0040 FFF7FEFF 		bl	CyDelayUs
 2468              	.LVL268:
ARM GAS  C:\Users\Revanth\AppData\Local\Temp\ccSEzD1d.s 			page 78


 2469              	.L157:
1674:L6470.c       ****          while ( (wait_status & 0x20) == 0x00)
 2470              		.loc 1 1674 0
 2471 0044 9DF80730 		ldrb	r3, [sp, #7]	@ zero_extendqisi2
 2472 0048 13F0200F 		tst	r3, #32
 2473 004c F1D0     		beq	.L158
1678:L6470.c       ****    
1679:L6470.c       ****             }
1680:L6470.c       ****             
1681:L6470.c       ****          return status;
1682:L6470.c       **** }
 2474              		.loc 1 1682 0
 2475 004e 0020     		movs	r0, #0
 2476 0050 03B0     		add	sp, sp, #12
 2477              		.cfi_def_cfa_offset 12
 2478              		@ sp needed
 2479 0052 30BD     		pop	{r4, r5, pc}
 2480              		.cfi_endproc
 2481              	.LFE106:
 2482              		.size	WaitTillPositionReached, .-WaitTillPositionReached
 2483              		.global	__aeabi_d2iz
 2484              		.section	.text.Step_correction_x,"ax",%progbits
 2485              		.align	2
 2486              		.global	Step_correction_x
 2487              		.thumb
 2488              		.thumb_func
 2489              		.type	Step_correction_x, %function
 2490              	Step_correction_x:
 2491              	.LFB70:
 381:L6470.c       ****     int32 Encoder_Position_X_Requested =0;
 2492              		.loc 1 381 0
 2493              		.cfi_startproc
 2494              		@ args = 0, pretend = 0, frame = 0
 2495              		@ frame_needed = 0, uses_anonymous_args = 0
 2496              	.LVL269:
 2497 0000 F8B5     		push	{r3, r4, r5, r6, r7, lr}
 2498              		.cfi_def_cfa_offset 24
 2499              		.cfi_offset 3, -24
 2500              		.cfi_offset 4, -20
 2501              		.cfi_offset 5, -16
 2502              		.cfi_offset 6, -12
 2503              		.cfi_offset 7, -8
 2504              		.cfi_offset 14, -4
 2505 0002 0746     		mov	r7, r0
 2506              	.LVL270:
 387:L6470.c       ****     
 2507              		.loc 1 387 0
 2508 0004 FFF7FEFF 		bl	__aeabi_i2d
 2509              	.LVL271:
 2510 0008 31A3     		adr	r3, .L168
 2511 000a D3E90023 		ldrd	r2, [r3]
 2512 000e FFF7FEFF 		bl	__aeabi_ddiv
 2513              	.LVL272:
 2514 0012 FFF7FEFF 		bl	__aeabi_d2iz
 2515              	.LVL273:
 2516 0016 0646     		mov	r6, r0
 2517              	.LVL274:
ARM GAS  C:\Users\Revanth\AppData\Local\Temp\ccSEzD1d.s 			page 79


 389:L6470.c       ****     {
 2518              		.loc 1 389 0
 2519 0018 0025     		movs	r5, #0
 2520 001a 24E0     		b	.L161
 2521              	.LVL275:
 2522              	.L163:
 391:L6470.c       ****     //diff_encoder_value = (X_QuadPosition - X_last_position);
 2523              		.loc 1 391 0
 2524 001c FFF7FEFF 		bl	Read_All_Optical_Encoder
 2525              	.LVL276:
 393:L6470.c       ****     new_step= encoder_error_value*3.2;
 2526              		.loc 1 393 0
 2527 0020 2D4B     		ldr	r3, .L168+8
 2528 0022 5C68     		ldr	r4, [r3, #4]
 2529 0024 341B     		subs	r4, r6, r4
 2530              	.LVL277:
 394:L6470.c       ****     
 2531              		.loc 1 394 0
 2532 0026 2046     		mov	r0, r4
 2533 0028 FFF7FEFF 		bl	__aeabi_i2d
 2534              	.LVL278:
 2535 002c 28A3     		adr	r3, .L168
 2536 002e D3E90023 		ldrd	r2, [r3]
 2537 0032 FFF7FEFF 		bl	__aeabi_dmul
 2538              	.LVL279:
 2539 0036 FFF7FEFF 		bl	__aeabi_d2iz
 2540              	.LVL280:
 396:L6470.c       ****     {
 2541              		.loc 1 396 0
 2542 003a 002C     		cmp	r4, #0
 2543 003c B8BF     		it	lt
 2544 003e 6442     		rsblt	r4, r4, #0
 2545              	.LVL281:
 2546 0040 022C     		cmp	r4, #2
 2547 0042 0EDD     		ble	.L162
 2548              	.LVL282:
 399:L6470.c       ****       WaitTillPositionReached (TMC5160_nCS_MotorX);
 2549              		.loc 1 399 0
 2550 0044 0021     		movs	r1, #0
 2551 0046 3844     		add	r0, r0, r7
 2552              	.LVL283:
 2553 0048 FFF7FEFF 		bl	GotoPos
 2554              	.LVL284:
 400:L6470.c       ****       CyDelayUs(50);
 2555              		.loc 1 400 0
 2556 004c 0020     		movs	r0, #0
 2557 004e FFF7FEFF 		bl	WaitTillPositionReached
 2558              	.LVL285:
 401:L6470.c       ****       Write_32bitSPI_DATA (0x21  , steps, TMC5160_nCS_MotorX );
 2559              		.loc 1 401 0
 2560 0052 3220     		movs	r0, #50
 2561 0054 FFF7FEFF 		bl	CyDelayUs
 2562              	.LVL286:
 402:L6470.c       ****     }
 2563              		.loc 1 402 0
 2564 0058 0022     		movs	r2, #0
 2565 005a 3946     		mov	r1, r7
ARM GAS  C:\Users\Revanth\AppData\Local\Temp\ccSEzD1d.s 			page 80


 2566 005c 2120     		movs	r0, #33
 2567 005e FFF7FEFF 		bl	Write_32bitSPI_DATA
 2568              	.LVL287:
 2569              	.L162:
 389:L6470.c       ****     {
 2570              		.loc 1 389 0 discriminator 2
 2571 0062 0135     		adds	r5, r5, #1
 2572              	.LVL288:
 2573 0064 EDB2     		uxtb	r5, r5
 2574              	.LVL289:
 2575              	.L161:
 389:L6470.c       ****     {
 2576              		.loc 1 389 0 is_stmt 0 discriminator 1
 2577 0066 052D     		cmp	r5, #5
 2578 0068 D8D9     		bls	.L163
 405:L6470.c       ****     encoder_error_value = Encoder_Position_X_Requested - X_QuadPosition;
 2579              		.loc 1 405 0 is_stmt 1
 2580 006a FFF7FEFF 		bl	Read_All_Optical_Encoder
 2581              	.LVL290:
 406:L6470.c       ****     if((temp>5))
 2582              		.loc 1 406 0
 2583 006e 1A4B     		ldr	r3, .L168+8
 2584 0070 5B68     		ldr	r3, [r3, #4]
 2585 0072 F61A     		subs	r6, r6, r3
 2586              	.LVL291:
 407:L6470.c       ****     {
 2587              		.loc 1 407 0
 2588 0074 052D     		cmp	r5, #5
 2589 0076 26D9     		bls	.L164
 409:L6470.c       ****      {
 2590              		.loc 1 409 0
 2591 0078 002E     		cmp	r6, #0
 2592 007a B8BF     		it	lt
 2593 007c 7642     		rsblt	r6, r6, #0
 2594              	.LVL292:
 2595 007e 042E     		cmp	r6, #4
 2596 0080 09DD     		ble	.L165
 411:L6470.c       ****         LED3_Write(0xFF);
 2597              		.loc 1 411 0
 2598 0082 1648     		ldr	r0, .L168+12
 2599 0084 FFF7FEFF 		bl	Write_Debug_UART_Char
 2600              	.LVL293:
 412:L6470.c       ****         errorX=  1;
 2601              		.loc 1 412 0
 2602 0088 FF20     		movs	r0, #255
 2603 008a FFF7FEFF 		bl	LED3_Write
 2604              	.LVL294:
 413:L6470.c       ****      }
 2605              		.loc 1 413 0
 2606 008e 0122     		movs	r2, #1
 2607 0090 114B     		ldr	r3, .L168+8
 2608 0092 9A63     		str	r2, [r3, #56]
 2609 0094 17E0     		b	.L164
 2610              	.L165:
 416:L6470.c       ****      {
 2611              		.loc 1 416 0
 2612 0096 B6F57A6F 		cmp	r6, #4000
ARM GAS  C:\Users\Revanth\AppData\Local\Temp\ccSEzD1d.s 			page 81


 2613 009a 06DD     		ble	.L166
 418:L6470.c       ****        errorX=  1;
 2614              		.loc 1 418 0
 2615 009c 1048     		ldr	r0, .L168+16
 2616 009e FFF7FEFF 		bl	Write_Debug_UART_Char
 2617              	.LVL295:
 419:L6470.c       ****      }
 2618              		.loc 1 419 0
 2619 00a2 0122     		movs	r2, #1
 2620 00a4 0C4B     		ldr	r3, .L168+8
 2621 00a6 9A63     		str	r2, [r3, #56]
 2622 00a8 0DE0     		b	.L164
 2623              	.L166:
 424:L6470.c       ****         errorX = 0;
 2624              		.loc 1 424 0
 2625 00aa 0E48     		ldr	r0, .L168+20
 2626 00ac FFF7FEFF 		bl	Write_Debug_UART_Char
 2627              	.LVL296:
 425:L6470.c       ****         Write_32bitSPI_DATA (0x21  , steps, TMC5160_nCS_MotorX );
 2628              		.loc 1 425 0
 2629 00b0 0022     		movs	r2, #0
 2630 00b2 094B     		ldr	r3, .L168+8
 2631 00b4 9A63     		str	r2, [r3, #56]
 426:L6470.c       ****         CyDelayUs(500);
 2632              		.loc 1 426 0
 2633 00b6 3946     		mov	r1, r7
 2634 00b8 2120     		movs	r0, #33
 2635 00ba FFF7FEFF 		bl	Write_32bitSPI_DATA
 2636              	.LVL297:
 427:L6470.c       ****         
 2637              		.loc 1 427 0
 2638 00be 4FF4FA70 		mov	r0, #500
 2639 00c2 FFF7FEFF 		bl	CyDelayUs
 2640              	.LVL298:
 2641              	.L164:
 434:L6470.c       **** 
 2642              		.loc 1 434 0
 2643 00c6 044B     		ldr	r3, .L168+8
 2644 00c8 986B     		ldr	r0, [r3, #56]
 2645 00ca F8BD     		pop	{r3, r4, r5, r6, r7, pc}
 2646              	.LVL299:
 2647              	.L169:
 2648 00cc AFF30080 		.align	3
 2649              	.L168:
 2650 00d0 9A999999 		.word	-1717986918
 2651 00d4 99990940 		.word	1074370969
 2652 00d8 00000000 		.word	.LANCHOR0
 2653 00dc 94020000 		.word	.LC20
 2654 00e0 B0020000 		.word	.LC21
 2655 00e4 E0020000 		.word	.LC22
 2656              		.cfi_endproc
 2657              	.LFE70:
 2658              		.size	Step_correction_x, .-Step_correction_x
 2659              		.section	.text.goTo_X,"ax",%progbits
 2660              		.align	2
 2661              		.global	goTo_X
 2662              		.thumb
ARM GAS  C:\Users\Revanth\AppData\Local\Temp\ccSEzD1d.s 			page 82


 2663              		.thumb_func
 2664              		.type	goTo_X, %function
 2665              	goTo_X:
 2666              	.LFB69:
 352:L6470.c       ****     
 2667              		.loc 1 352 0
 2668              		.cfi_startproc
 2669              		@ args = 0, pretend = 0, frame = 0
 2670              		@ frame_needed = 0, uses_anonymous_args = 0
 2671              	.LVL300:
 2672 0000 70B5     		push	{r4, r5, r6, lr}
 2673              		.cfi_def_cfa_offset 16
 2674              		.cfi_offset 4, -16
 2675              		.cfi_offset 5, -12
 2676              		.cfi_offset 6, -8
 2677              		.cfi_offset 14, -4
 2678 0002 0446     		mov	r4, r0
 354:L6470.c       ****     
 2679              		.loc 1 354 0
 2680 0004 FFF7FEFF 		bl	if_all_homing_done
 2681              	.LVL301:
 2682 0008 E0B1     		cbz	r0, .L171
 358:L6470.c       ****         Read_All_Optical_Encoder();
 2683              		.loc 1 358 0
 2684 000a 124E     		ldr	r6, .L174
 2685 000c 0025     		movs	r5, #0
 2686 000e 7563     		str	r5, [r6, #52]
 359:L6470.c       ****         //X_last_position = X_QuadPosition;
 2687              		.loc 1 359 0
 2688 0010 FFF7FEFF 		bl	Read_All_Optical_Encoder
 2689              	.LVL302:
 361:L6470.c       ****         GotoPos(Position_X_Requested, TMC5160_nCS_MotorX); // If provided value is position and not
 2690              		.loc 1 361 0
 2691 0014 1048     		ldr	r0, .L174+4
 2692 0016 FFF7FEFF 		bl	Write_Debug_UART_Char
 2693              	.LVL303:
 362:L6470.c       ****         WaitTillPositionReached (TMC5160_nCS_MotorX);
 2694              		.loc 1 362 0
 2695 001a 2946     		mov	r1, r5
 2696 001c 2046     		mov	r0, r4
 2697 001e FFF7FEFF 		bl	GotoPos
 2698              	.LVL304:
 363:L6470.c       ****         CyDelayUs(50);
 2699              		.loc 1 363 0
 2700 0022 2846     		mov	r0, r5
 2701 0024 FFF7FEFF 		bl	WaitTillPositionReached
 2702              	.LVL305:
 364:L6470.c       ****         //GotoPos(Position_X_Move, TMC5160_nCS_MotorX); // If provided value is steps to move and n
 2703              		.loc 1 364 0
 2704 0028 3220     		movs	r0, #50
 2705 002a FFF7FEFF 		bl	CyDelayUs
 2706              	.LVL306:
 366:L6470.c       ****         Write_Debug_UART_Char("  \r\n");
 2707              		.loc 1 366 0
 2708 002e 2046     		mov	r0, r4
 2709 0030 FFF7FEFF 		bl	Write_Debug_UART_Int
 2710              	.LVL307:
ARM GAS  C:\Users\Revanth\AppData\Local\Temp\ccSEzD1d.s 			page 83


 367:L6470.c       ****         Step_correction_x(Position_X_Requested);
 2711              		.loc 1 367 0
 2712 0034 0948     		ldr	r0, .L174+8
 2713 0036 FFF7FEFF 		bl	Write_Debug_UART_Char
 2714              	.LVL308:
 368:L6470.c       ****         return errorX;
 2715              		.loc 1 368 0
 2716 003a 2046     		mov	r0, r4
 2717 003c FFF7FEFF 		bl	Step_correction_x
 2718              	.LVL309:
 369:L6470.c       ****     }
 2719              		.loc 1 369 0
 2720 0040 B06B     		ldr	r0, [r6, #56]
 2721 0042 70BD     		pop	{r4, r5, r6, pc}
 2722              	.LVL310:
 2723              	.L171:
 373:L6470.c       ****         Error = All_Homing_Not_Done_Yet;
 2724              		.loc 1 373 0
 2725 0044 0648     		ldr	r0, .L174+12
 2726 0046 FFF7FEFF 		bl	Write_Debug_UART_Char
 2727              	.LVL311:
 374:L6470.c       ****         return Error;
 2728              		.loc 1 374 0
 2729 004a 4FF62920 		movw	r0, #64041
 2730 004e 014B     		ldr	r3, .L174
 2731 0050 5863     		str	r0, [r3, #52]
 378:L6470.c       **** 
 2732              		.loc 1 378 0
 2733 0052 70BD     		pop	{r4, r5, r6, pc}
 2734              	.LVL312:
 2735              	.L175:
 2736              		.align	2
 2737              	.L174:
 2738 0054 00000000 		.word	.LANCHOR0
 2739 0058 F4020000 		.word	.LC23
 2740 005c 10030000 		.word	.LC24
 2741 0060 18030000 		.word	.LC25
 2742              		.cfi_endproc
 2743              	.LFE69:
 2744              		.size	goTo_X, .-goTo_X
 2745              		.section	.text.Step_correction_y,"ax",%progbits
 2746              		.align	2
 2747              		.global	Step_correction_y
 2748              		.thumb
 2749              		.thumb_func
 2750              		.type	Step_correction_y, %function
 2751              	Step_correction_y:
 2752              	.LFB72:
 466:L6470.c       ****     uint8_t temp=0;
 2753              		.loc 1 466 0
 2754              		.cfi_startproc
 2755              		@ args = 0, pretend = 0, frame = 0
 2756              		@ frame_needed = 0, uses_anonymous_args = 0
 2757              	.LVL313:
 2758 0000 F8B5     		push	{r3, r4, r5, r6, r7, lr}
 2759              		.cfi_def_cfa_offset 24
 2760              		.cfi_offset 3, -24
ARM GAS  C:\Users\Revanth\AppData\Local\Temp\ccSEzD1d.s 			page 84


 2761              		.cfi_offset 4, -20
 2762              		.cfi_offset 5, -16
 2763              		.cfi_offset 6, -12
 2764              		.cfi_offset 7, -8
 2765              		.cfi_offset 14, -4
 2766 0002 0746     		mov	r7, r0
 2767              	.LVL314:
 472:L6470.c       ****     
 2768              		.loc 1 472 0
 2769 0004 FFF7FEFF 		bl	__aeabi_i2d
 2770              	.LVL315:
 2771 0008 2BA3     		adr	r3, .L184
 2772 000a D3E90023 		ldrd	r2, [r3]
 2773 000e FFF7FEFF 		bl	__aeabi_ddiv
 2774              	.LVL316:
 2775 0012 FFF7FEFF 		bl	__aeabi_d2iz
 2776              	.LVL317:
 2777 0016 0646     		mov	r6, r0
 2778              	.LVL318:
 474:L6470.c       ****     {
 2779              		.loc 1 474 0
 2780 0018 0025     		movs	r5, #0
 2781 001a 24E0     		b	.L177
 2782              	.LVL319:
 2783              	.L179:
 476:L6470.c       ****     //diff_encoder_value = (X_QuadPosition - X_last_position);
 2784              		.loc 1 476 0
 2785 001c FFF7FEFF 		bl	Read_All_Optical_Encoder
 2786              	.LVL320:
 478:L6470.c       ****     new_step= encoder_error_value*3.2;
 2787              		.loc 1 478 0
 2788 0020 274B     		ldr	r3, .L184+8
 2789 0022 9C68     		ldr	r4, [r3, #8]
 2790 0024 341B     		subs	r4, r6, r4
 2791              	.LVL321:
 479:L6470.c       ****     
 2792              		.loc 1 479 0
 2793 0026 2046     		mov	r0, r4
 2794 0028 FFF7FEFF 		bl	__aeabi_i2d
 2795              	.LVL322:
 2796 002c 22A3     		adr	r3, .L184
 2797 002e D3E90023 		ldrd	r2, [r3]
 2798 0032 FFF7FEFF 		bl	__aeabi_dmul
 2799              	.LVL323:
 2800 0036 FFF7FEFF 		bl	__aeabi_d2iz
 2801              	.LVL324:
 481:L6470.c       ****     {
 2802              		.loc 1 481 0
 2803 003a 002C     		cmp	r4, #0
 2804 003c B8BF     		it	lt
 2805 003e 6442     		rsblt	r4, r4, #0
 2806              	.LVL325:
 2807 0040 042C     		cmp	r4, #4
 2808 0042 0EDD     		ble	.L178
 2809              	.LVL326:
 484:L6470.c       ****       WaitTillPositionReached (TMC5160_nCS_MotorY);
 2810              		.loc 1 484 0
ARM GAS  C:\Users\Revanth\AppData\Local\Temp\ccSEzD1d.s 			page 85


 2811 0044 0121     		movs	r1, #1
 2812 0046 3844     		add	r0, r0, r7
 2813              	.LVL327:
 2814 0048 FFF7FEFF 		bl	GotoPos
 2815              	.LVL328:
 485:L6470.c       ****       CyDelayUs(50);
 2816              		.loc 1 485 0
 2817 004c 0120     		movs	r0, #1
 2818 004e FFF7FEFF 		bl	WaitTillPositionReached
 2819              	.LVL329:
 486:L6470.c       ****       Write_32bitSPI_DATA (0x21  , steps, TMC5160_nCS_MotorY );
 2820              		.loc 1 486 0
 2821 0052 3220     		movs	r0, #50
 2822 0054 FFF7FEFF 		bl	CyDelayUs
 2823              	.LVL330:
 487:L6470.c       ****     }
 2824              		.loc 1 487 0
 2825 0058 0122     		movs	r2, #1
 2826 005a 3946     		mov	r1, r7
 2827 005c 2120     		movs	r0, #33
 2828 005e FFF7FEFF 		bl	Write_32bitSPI_DATA
 2829              	.LVL331:
 2830              	.L178:
 474:L6470.c       ****     {
 2831              		.loc 1 474 0 discriminator 2
 2832 0062 0135     		adds	r5, r5, #1
 2833              	.LVL332:
 2834 0064 EDB2     		uxtb	r5, r5
 2835              	.LVL333:
 2836              	.L177:
 474:L6470.c       ****     {
 2837              		.loc 1 474 0 is_stmt 0 discriminator 1
 2838 0066 032D     		cmp	r5, #3
 2839 0068 D8D9     		bls	.L179
 493:L6470.c       ****     encoder_error_value = Encoder_Position_Y_Requested - Y_QuadPosition;
 2840              		.loc 1 493 0 is_stmt 1
 2841 006a FFF7FEFF 		bl	Read_All_Optical_Encoder
 2842              	.LVL334:
 494:L6470.c       ****     
 2843              		.loc 1 494 0
 2844 006e 144B     		ldr	r3, .L184+8
 2845 0070 9868     		ldr	r0, [r3, #8]
 2846 0072 301A     		subs	r0, r6, r0
 2847              	.LVL335:
 496:L6470.c       ****     {
 2848              		.loc 1 496 0
 2849 0074 032D     		cmp	r5, #3
 2850 0076 1BD9     		bls	.L180
 498:L6470.c       ****      {
 2851              		.loc 1 498 0
 2852 0078 0028     		cmp	r0, #0
 2853 007a B8BF     		it	lt
 2854 007c 4042     		rsblt	r0, r0, #0
 2855              	.LVL336:
 2856 007e 0428     		cmp	r0, #4
 2857 0080 09DD     		ble	.L181
 500:L6470.c       ****         LED3_Write(0xFF);
ARM GAS  C:\Users\Revanth\AppData\Local\Temp\ccSEzD1d.s 			page 86


 2858              		.loc 1 500 0
 2859 0082 1048     		ldr	r0, .L184+12
 2860 0084 FFF7FEFF 		bl	Write_Debug_UART_Char
 2861              	.LVL337:
 501:L6470.c       ****         errorY=  1;
 2862              		.loc 1 501 0
 2863 0088 FF20     		movs	r0, #255
 2864 008a FFF7FEFF 		bl	LED3_Write
 2865              	.LVL338:
 502:L6470.c       ****      }
 2866              		.loc 1 502 0
 2867 008e 0122     		movs	r2, #1
 2868 0090 0B4B     		ldr	r3, .L184+8
 2869 0092 1A63     		str	r2, [r3, #48]
 2870 0094 0CE0     		b	.L180
 2871              	.L181:
 505:L6470.c       ****      {
 2872              		.loc 1 505 0
 2873 0096 B0F57A6F 		cmp	r0, #4000
 2874 009a 03DD     		ble	.L182
 507:L6470.c       ****      }
 2875              		.loc 1 507 0
 2876 009c 0A48     		ldr	r0, .L184+16
 2877 009e FFF7FEFF 		bl	Write_Debug_UART_Char
 2878              	.LVL339:
 2879 00a2 05E0     		b	.L180
 2880              	.L182:
 512:L6470.c       ****         errorY = 0;
 2881              		.loc 1 512 0
 2882 00a4 0948     		ldr	r0, .L184+20
 2883 00a6 FFF7FEFF 		bl	Write_Debug_UART_Char
 2884              	.LVL340:
 513:L6470.c       ****         
 2885              		.loc 1 513 0
 2886 00aa 0022     		movs	r2, #0
 2887 00ac 044B     		ldr	r3, .L184+8
 2888 00ae 1A63     		str	r2, [r3, #48]
 2889              	.L180:
 520:L6470.c       **** 
 2890              		.loc 1 520 0
 2891 00b0 034B     		ldr	r3, .L184+8
 2892 00b2 186B     		ldr	r0, [r3, #48]
 2893 00b4 F8BD     		pop	{r3, r4, r5, r6, r7, pc}
 2894              	.LVL341:
 2895              	.L185:
 2896 00b6 00BF     		.align	3
 2897              	.L184:
 2898 00b8 9A999999 		.word	-1717986918
 2899 00bc 99990940 		.word	1074370969
 2900 00c0 00000000 		.word	.LANCHOR0
 2901 00c4 28030000 		.word	.LC26
 2902 00c8 44030000 		.word	.LC27
 2903 00cc 74030000 		.word	.LC28
 2904              		.cfi_endproc
 2905              	.LFE72:
 2906              		.size	Step_correction_y, .-Step_correction_y
 2907              		.section	.text.goTo_Y,"ax",%progbits
ARM GAS  C:\Users\Revanth\AppData\Local\Temp\ccSEzD1d.s 			page 87


 2908              		.align	2
 2909              		.global	goTo_Y
 2910              		.thumb
 2911              		.thumb_func
 2912              		.type	goTo_Y, %function
 2913              	goTo_Y:
 2914              	.LFB71:
 440:L6470.c       ****     if(if_all_homing_done())
 2915              		.loc 1 440 0
 2916              		.cfi_startproc
 2917              		@ args = 0, pretend = 0, frame = 0
 2918              		@ frame_needed = 0, uses_anonymous_args = 0
 2919              	.LVL342:
 2920 0000 38B5     		push	{r3, r4, r5, lr}
 2921              		.cfi_def_cfa_offset 16
 2922              		.cfi_offset 3, -16
 2923              		.cfi_offset 4, -12
 2924              		.cfi_offset 5, -8
 2925              		.cfi_offset 14, -4
 2926 0002 0446     		mov	r4, r0
 441:L6470.c       ****     {
 2927              		.loc 1 441 0
 2928 0004 FFF7FEFF 		bl	if_all_homing_done
 2929              	.LVL343:
 2930 0008 E0B1     		cbz	r0, .L187
 444:L6470.c       ****         Read_All_Optical_Encoder();
 2931              		.loc 1 444 0
 2932 000a 124D     		ldr	r5, .L190
 2933 000c 0023     		movs	r3, #0
 2934 000e 6B63     		str	r3, [r5, #52]
 445:L6470.c       ****         //Y_last_position = Y_QuadPosition;
 2935              		.loc 1 445 0
 2936 0010 FFF7FEFF 		bl	Read_All_Optical_Encoder
 2937              	.LVL344:
 447:L6470.c       ****         GotoPos(Position_Y_Requested, TMC5160_nCS_MotorY); // If provided value is position and not
 2938              		.loc 1 447 0
 2939 0014 1048     		ldr	r0, .L190+4
 2940 0016 FFF7FEFF 		bl	Write_Debug_UART_Char
 2941              	.LVL345:
 448:L6470.c       ****         WaitTillPositionReached (TMC5160_nCS_MotorY);
 2942              		.loc 1 448 0
 2943 001a 0121     		movs	r1, #1
 2944 001c 2046     		mov	r0, r4
 2945 001e FFF7FEFF 		bl	GotoPos
 2946              	.LVL346:
 449:L6470.c       ****         CyDelayUs(50);
 2947              		.loc 1 449 0
 2948 0022 0120     		movs	r0, #1
 2949 0024 FFF7FEFF 		bl	WaitTillPositionReached
 2950              	.LVL347:
 450:L6470.c       ****         //GotoPos(Position_X_Move, TMC5160_nCS_MotorX); // If provided value is steps to move and n
 2951              		.loc 1 450 0
 2952 0028 3220     		movs	r0, #50
 2953 002a FFF7FEFF 		bl	CyDelayUs
 2954              	.LVL348:
 452:L6470.c       ****         Write_Debug_UART_Char("  \r\n");
 2955              		.loc 1 452 0
ARM GAS  C:\Users\Revanth\AppData\Local\Temp\ccSEzD1d.s 			page 88


 2956 002e 2046     		mov	r0, r4
 2957 0030 FFF7FEFF 		bl	Write_Debug_UART_Int
 2958              	.LVL349:
 453:L6470.c       ****         Step_correction_y(Position_Y_Requested);
 2959              		.loc 1 453 0
 2960 0034 0948     		ldr	r0, .L190+8
 2961 0036 FFF7FEFF 		bl	Write_Debug_UART_Char
 2962              	.LVL350:
 454:L6470.c       ****         return errorY;
 2963              		.loc 1 454 0
 2964 003a 2046     		mov	r0, r4
 2965 003c FFF7FEFF 		bl	Step_correction_y
 2966              	.LVL351:
 455:L6470.c       ****     }
 2967              		.loc 1 455 0
 2968 0040 286B     		ldr	r0, [r5, #48]
 2969 0042 38BD     		pop	{r3, r4, r5, pc}
 2970              	.LVL352:
 2971              	.L187:
 459:L6470.c       ****         Error = All_Homing_Not_Done_Yet;
 2972              		.loc 1 459 0
 2973 0044 0648     		ldr	r0, .L190+12
 2974 0046 FFF7FEFF 		bl	Write_Debug_UART_Char
 2975              	.LVL353:
 460:L6470.c       ****         return Error;
 2976              		.loc 1 460 0
 2977 004a 4FF62920 		movw	r0, #64041
 2978 004e 014B     		ldr	r3, .L190
 2979 0050 5863     		str	r0, [r3, #52]
 463:L6470.c       **** 
 2980              		.loc 1 463 0
 2981 0052 38BD     		pop	{r3, r4, r5, pc}
 2982              	.LVL354:
 2983              	.L191:
 2984              		.align	2
 2985              	.L190:
 2986 0054 00000000 		.word	.LANCHOR0
 2987 0058 F4020000 		.word	.LC23
 2988 005c 10030000 		.word	.LC24
 2989 0060 18030000 		.word	.LC25
 2990              		.cfi_endproc
 2991              	.LFE71:
 2992              		.size	goTo_Y, .-goTo_Y
 2993              		.section	.text.Step_correction_z,"ax",%progbits
 2994              		.align	2
 2995              		.global	Step_correction_z
 2996              		.thumb
 2997              		.thumb_func
 2998              		.type	Step_correction_z, %function
 2999              	Step_correction_z:
 3000              	.LFB74:
 556:L6470.c       ****     uint8_t temp=0;
 3001              		.loc 1 556 0
 3002              		.cfi_startproc
 3003              		@ args = 0, pretend = 0, frame = 0
 3004              		@ frame_needed = 0, uses_anonymous_args = 0
 3005              	.LVL355:
ARM GAS  C:\Users\Revanth\AppData\Local\Temp\ccSEzD1d.s 			page 89


 3006 0000 F8B5     		push	{r3, r4, r5, r6, r7, lr}
 3007              		.cfi_def_cfa_offset 24
 3008              		.cfi_offset 3, -24
 3009              		.cfi_offset 4, -20
 3010              		.cfi_offset 5, -16
 3011              		.cfi_offset 6, -12
 3012              		.cfi_offset 7, -8
 3013              		.cfi_offset 14, -4
 3014 0002 0746     		mov	r7, r0
 3015              	.LVL356:
 562:L6470.c       ****     
 3016              		.loc 1 562 0
 3017 0004 FFF7FEFF 		bl	__aeabi_i2d
 3018              	.LVL357:
 3019 0008 2BA3     		adr	r3, .L200
 3020 000a D3E90023 		ldrd	r2, [r3]
 3021 000e FFF7FEFF 		bl	__aeabi_ddiv
 3022              	.LVL358:
 3023 0012 FFF7FEFF 		bl	__aeabi_d2iz
 3024              	.LVL359:
 3025 0016 0646     		mov	r6, r0
 3026              	.LVL360:
 564:L6470.c       ****     {
 3027              		.loc 1 564 0
 3028 0018 0025     		movs	r5, #0
 3029 001a 24E0     		b	.L193
 3030              	.LVL361:
 3031              	.L195:
 567:L6470.c       ****     //diff_encoder_value = (X_QuadPosition - X_last_position);
 3032              		.loc 1 567 0
 3033 001c FFF7FEFF 		bl	Read_All_Optical_Encoder
 3034              	.LVL362:
 569:L6470.c       ****     new_step= encoder_error_value*3.2;
 3035              		.loc 1 569 0
 3036 0020 274B     		ldr	r3, .L200+8
 3037 0022 DC68     		ldr	r4, [r3, #12]
 3038 0024 341B     		subs	r4, r6, r4
 3039              	.LVL363:
 570:L6470.c       ****     
 3040              		.loc 1 570 0
 3041 0026 2046     		mov	r0, r4
 3042 0028 FFF7FEFF 		bl	__aeabi_i2d
 3043              	.LVL364:
 3044 002c 22A3     		adr	r3, .L200
 3045 002e D3E90023 		ldrd	r2, [r3]
 3046 0032 FFF7FEFF 		bl	__aeabi_dmul
 3047              	.LVL365:
 3048 0036 FFF7FEFF 		bl	__aeabi_d2iz
 3049              	.LVL366:
 572:L6470.c       ****     {
 3050              		.loc 1 572 0
 3051 003a 002C     		cmp	r4, #0
 3052 003c B8BF     		it	lt
 3053 003e 6442     		rsblt	r4, r4, #0
 3054              	.LVL367:
 3055 0040 042C     		cmp	r4, #4
 3056 0042 0EDD     		ble	.L194
ARM GAS  C:\Users\Revanth\AppData\Local\Temp\ccSEzD1d.s 			page 90


 3057              	.LVL368:
 575:L6470.c       ****       WaitTillPositionReached (TMC5160_nCS_MotorZ);
 3058              		.loc 1 575 0
 3059 0044 0221     		movs	r1, #2
 3060 0046 3844     		add	r0, r0, r7
 3061              	.LVL369:
 3062 0048 FFF7FEFF 		bl	GotoPos
 3063              	.LVL370:
 576:L6470.c       ****       CyDelayUs(50);
 3064              		.loc 1 576 0
 3065 004c 0220     		movs	r0, #2
 3066 004e FFF7FEFF 		bl	WaitTillPositionReached
 3067              	.LVL371:
 577:L6470.c       ****       Write_32bitSPI_DATA (0x21  , steps, TMC5160_nCS_MotorZ );
 3068              		.loc 1 577 0
 3069 0052 3220     		movs	r0, #50
 3070 0054 FFF7FEFF 		bl	CyDelayUs
 3071              	.LVL372:
 578:L6470.c       ****     }
 3072              		.loc 1 578 0
 3073 0058 0222     		movs	r2, #2
 3074 005a 3946     		mov	r1, r7
 3075 005c 2120     		movs	r0, #33
 3076 005e FFF7FEFF 		bl	Write_32bitSPI_DATA
 3077              	.LVL373:
 3078              	.L194:
 564:L6470.c       ****     {
 3079              		.loc 1 564 0 discriminator 2
 3080 0062 0135     		adds	r5, r5, #1
 3081              	.LVL374:
 3082 0064 EDB2     		uxtb	r5, r5
 3083              	.LVL375:
 3084              	.L193:
 564:L6470.c       ****     {
 3085              		.loc 1 564 0 is_stmt 0 discriminator 1
 3086 0066 032D     		cmp	r5, #3
 3087 0068 D8D9     		bls	.L195
 584:L6470.c       ****     encoder_error_value = Encoder_Position_Z_Requested - Z_QuadPosition;
 3088              		.loc 1 584 0 is_stmt 1
 3089 006a FFF7FEFF 		bl	Read_All_Optical_Encoder
 3090              	.LVL376:
 585:L6470.c       ****     
 3091              		.loc 1 585 0
 3092 006e 144B     		ldr	r3, .L200+8
 3093 0070 D868     		ldr	r0, [r3, #12]
 3094 0072 301A     		subs	r0, r6, r0
 3095              	.LVL377:
 587:L6470.c       ****     {
 3096              		.loc 1 587 0
 3097 0074 032D     		cmp	r5, #3
 3098 0076 1BD9     		bls	.L196
 589:L6470.c       ****      {
 3099              		.loc 1 589 0
 3100 0078 0028     		cmp	r0, #0
 3101 007a B8BF     		it	lt
 3102 007c 4042     		rsblt	r0, r0, #0
 3103              	.LVL378:
ARM GAS  C:\Users\Revanth\AppData\Local\Temp\ccSEzD1d.s 			page 91


 3104 007e 0428     		cmp	r0, #4
 3105 0080 09DD     		ble	.L197
 591:L6470.c       ****         LED2_Write(0xFF);
 3106              		.loc 1 591 0
 3107 0082 1048     		ldr	r0, .L200+12
 3108 0084 FFF7FEFF 		bl	Write_Debug_UART_Char
 3109              	.LVL379:
 592:L6470.c       ****         errorZ = 1;
 3110              		.loc 1 592 0
 3111 0088 FF20     		movs	r0, #255
 3112 008a FFF7FEFF 		bl	LED2_Write
 3113              	.LVL380:
 593:L6470.c       ****      }
 3114              		.loc 1 593 0
 3115 008e 0122     		movs	r2, #1
 3116 0090 0B4B     		ldr	r3, .L200+8
 3117 0092 DA63     		str	r2, [r3, #60]
 3118 0094 0CE0     		b	.L196
 3119              	.L197:
 596:L6470.c       ****      {
 3120              		.loc 1 596 0
 3121 0096 B0F57A6F 		cmp	r0, #4000
 3122 009a 03DD     		ble	.L198
 598:L6470.c       ****      }
 3123              		.loc 1 598 0
 3124 009c 0A48     		ldr	r0, .L200+16
 3125 009e FFF7FEFF 		bl	Write_Debug_UART_Char
 3126              	.LVL381:
 3127 00a2 05E0     		b	.L196
 3128              	.L198:
 603:L6470.c       ****        errorZ = 0;
 3129              		.loc 1 603 0
 3130 00a4 0948     		ldr	r0, .L200+20
 3131 00a6 FFF7FEFF 		bl	Write_Debug_UART_Char
 3132              	.LVL382:
 604:L6470.c       ****         
 3133              		.loc 1 604 0
 3134 00aa 0022     		movs	r2, #0
 3135 00ac 044B     		ldr	r3, .L200+8
 3136 00ae DA63     		str	r2, [r3, #60]
 3137              	.L196:
 611:L6470.c       **** 
 3138              		.loc 1 611 0
 3139 00b0 034B     		ldr	r3, .L200+8
 3140 00b2 D86B     		ldr	r0, [r3, #60]
 3141 00b4 F8BD     		pop	{r3, r4, r5, r6, r7, pc}
 3142              	.LVL383:
 3143              	.L201:
 3144 00b6 00BF     		.align	3
 3145              	.L200:
 3146 00b8 9A999999 		.word	-1717986918
 3147 00bc 99990940 		.word	1074370969
 3148 00c0 00000000 		.word	.LANCHOR0
 3149 00c4 88030000 		.word	.LC29
 3150 00c8 A4030000 		.word	.LC30
 3151 00cc D4030000 		.word	.LC31
 3152              		.cfi_endproc
ARM GAS  C:\Users\Revanth\AppData\Local\Temp\ccSEzD1d.s 			page 92


 3153              	.LFE74:
 3154              		.size	Step_correction_z, .-Step_correction_z
 3155              		.section	.text.goTo_Z,"ax",%progbits
 3156              		.align	2
 3157              		.global	goTo_Z
 3158              		.thumb
 3159              		.thumb_func
 3160              		.type	goTo_Z, %function
 3161              	goTo_Z:
 3162              	.LFB73:
 527:L6470.c       ****     Enable_Encoder_Z(-Buffer_Z_QuadPosition);
 3163              		.loc 1 527 0
 3164              		.cfi_startproc
 3165              		@ args = 0, pretend = 0, frame = 0
 3166              		@ frame_needed = 0, uses_anonymous_args = 0
 3167              	.LVL384:
 3168 0000 38B5     		push	{r3, r4, r5, lr}
 3169              		.cfi_def_cfa_offset 16
 3170              		.cfi_offset 3, -16
 3171              		.cfi_offset 4, -12
 3172              		.cfi_offset 5, -8
 3173              		.cfi_offset 14, -4
 3174 0002 0446     		mov	r4, r0
 528:L6470.c       ****     if(if_all_homing_done())
 3175              		.loc 1 528 0
 3176 0004 184B     		ldr	r3, .L206
 3177 0006 5869     		ldr	r0, [r3, #20]
 3178              	.LVL385:
 3179 0008 4042     		negs	r0, r0
 3180 000a FFF7FEFF 		bl	Enable_Encoder_Z
 3181              	.LVL386:
 529:L6470.c       ****     {
 3182              		.loc 1 529 0
 3183 000e FFF7FEFF 		bl	if_all_homing_done
 3184              	.LVL387:
 3185 0012 00B3     		cbz	r0, .L203
 531:L6470.c       ****         Read_All_Optical_Encoder();
 3186              		.loc 1 531 0
 3187 0014 144D     		ldr	r5, .L206
 3188 0016 0023     		movs	r3, #0
 3189 0018 6B63     		str	r3, [r5, #52]
 532:L6470.c       ****         //Z_last_position = Z_QuadPosition;
 3190              		.loc 1 532 0
 3191 001a FFF7FEFF 		bl	Read_All_Optical_Encoder
 3192              	.LVL388:
 534:L6470.c       ****         GotoPos(Position_Z_Requested, TMC5160_nCS_MotorZ); // If provided value is position and not
 3193              		.loc 1 534 0
 3194 001e 1348     		ldr	r0, .L206+4
 3195 0020 FFF7FEFF 		bl	Write_Debug_UART_Char
 3196              	.LVL389:
 535:L6470.c       ****         WaitTillPositionReached (TMC5160_nCS_MotorZ);
 3197              		.loc 1 535 0
 3198 0024 0221     		movs	r1, #2
 3199 0026 2046     		mov	r0, r4
 3200 0028 FFF7FEFF 		bl	GotoPos
 3201              	.LVL390:
 536:L6470.c       ****         CyDelayUs(50);
ARM GAS  C:\Users\Revanth\AppData\Local\Temp\ccSEzD1d.s 			page 93


 3202              		.loc 1 536 0
 3203 002c 0220     		movs	r0, #2
 3204 002e FFF7FEFF 		bl	WaitTillPositionReached
 3205              	.LVL391:
 537:L6470.c       ****         //GotoPos(Position_X_Move, TMC5160_nCS_MotorX); // If provided value is steps to move and n
 3206              		.loc 1 537 0
 3207 0032 3220     		movs	r0, #50
 3208 0034 FFF7FEFF 		bl	CyDelayUs
 3209              	.LVL392:
 539:L6470.c       ****         Write_Debug_UART_Char("  \r\n");
 3210              		.loc 1 539 0
 3211 0038 2046     		mov	r0, r4
 3212 003a FFF7FEFF 		bl	Write_Debug_UART_Int
 3213              	.LVL393:
 540:L6470.c       ****         Step_correction_z(Position_Z_Requested);
 3214              		.loc 1 540 0
 3215 003e 0C48     		ldr	r0, .L206+8
 3216 0040 FFF7FEFF 		bl	Write_Debug_UART_Char
 3217              	.LVL394:
 541:L6470.c       ****         Read_All_Optical_Encoder();
 3218              		.loc 1 541 0
 3219 0044 2046     		mov	r0, r4
 3220 0046 FFF7FEFF 		bl	Step_correction_z
 3221              	.LVL395:
 542:L6470.c       ****         Buffer_Z_QuadPosition = Z_QuadPosition;
 3222              		.loc 1 542 0
 3223 004a FFF7FEFF 		bl	Read_All_Optical_Encoder
 3224              	.LVL396:
 543:L6470.c       ****         return errorZ;
 3225              		.loc 1 543 0
 3226 004e EB68     		ldr	r3, [r5, #12]
 3227 0050 6B61     		str	r3, [r5, #20]
 544:L6470.c       ****     }
 3228              		.loc 1 544 0
 3229 0052 E86B     		ldr	r0, [r5, #60]
 3230 0054 38BD     		pop	{r3, r4, r5, pc}
 3231              	.LVL397:
 3232              	.L203:
 548:L6470.c       ****         Error = All_Homing_Not_Done_Yet;
 3233              		.loc 1 548 0
 3234 0056 0748     		ldr	r0, .L206+12
 3235 0058 FFF7FEFF 		bl	Write_Debug_UART_Char
 3236              	.LVL398:
 549:L6470.c       ****         return Error;
 3237              		.loc 1 549 0
 3238 005c 4FF62920 		movw	r0, #64041
 3239 0060 014B     		ldr	r3, .L206
 3240 0062 5863     		str	r0, [r3, #52]
 553:L6470.c       **** 
 3241              		.loc 1 553 0
 3242 0064 38BD     		pop	{r3, r4, r5, pc}
 3243              	.LVL399:
 3244              	.L207:
 3245 0066 00BF     		.align	2
 3246              	.L206:
 3247 0068 00000000 		.word	.LANCHOR0
 3248 006c E8030000 		.word	.LC32
ARM GAS  C:\Users\Revanth\AppData\Local\Temp\ccSEzD1d.s 			page 94


 3249 0070 10030000 		.word	.LC24
 3250 0074 18030000 		.word	.LC25
 3251              		.cfi_endproc
 3252              	.LFE73:
 3253              		.size	goTo_Z, .-goTo_Z
 3254              		.section	.text.Step_correction_t,"ax",%progbits
 3255              		.align	2
 3256              		.global	Step_correction_t
 3257              		.thumb
 3258              		.thumb_func
 3259              		.type	Step_correction_t, %function
 3260              	Step_correction_t:
 3261              	.LFB76:
 644:L6470.c       ****     uint8_t temp=0;
 3262              		.loc 1 644 0
 3263              		.cfi_startproc
 3264              		@ args = 0, pretend = 0, frame = 0
 3265              		@ frame_needed = 0, uses_anonymous_args = 0
 3266              	.LVL400:
 3267 0000 F8B5     		push	{r3, r4, r5, r6, r7, lr}
 3268              		.cfi_def_cfa_offset 24
 3269              		.cfi_offset 3, -24
 3270              		.cfi_offset 4, -20
 3271              		.cfi_offset 5, -16
 3272              		.cfi_offset 6, -12
 3273              		.cfi_offset 7, -8
 3274              		.cfi_offset 14, -4
 3275 0002 0746     		mov	r7, r0
 3276              	.LVL401:
 650:L6470.c       ****     
 3277              		.loc 1 650 0
 3278 0004 FFF7FEFF 		bl	__aeabi_i2d
 3279              	.LVL402:
 3280 0008 29A3     		adr	r3, .L216
 3281 000a D3E90023 		ldrd	r2, [r3]
 3282 000e FFF7FEFF 		bl	__aeabi_ddiv
 3283              	.LVL403:
 3284 0012 FFF7FEFF 		bl	__aeabi_d2iz
 3285              	.LVL404:
 3286 0016 0646     		mov	r6, r0
 3287              	.LVL405:
 652:L6470.c       ****     {
 3288              		.loc 1 652 0
 3289 0018 0025     		movs	r5, #0
 3290 001a 24E0     		b	.L209
 3291              	.LVL406:
 3292              	.L211:
 654:L6470.c       ****     //diff_encoder_value = (X_QuadPosition - X_last_position);
 3293              		.loc 1 654 0
 3294 001c FFF7FEFF 		bl	Read_All_Optical_Encoder
 3295              	.LVL407:
 656:L6470.c       ****     new_step= encoder_error_value*3.2;
 3296              		.loc 1 656 0
 3297 0020 254B     		ldr	r3, .L216+8
 3298 0022 1C69     		ldr	r4, [r3, #16]
 3299 0024 341B     		subs	r4, r6, r4
 3300              	.LVL408:
ARM GAS  C:\Users\Revanth\AppData\Local\Temp\ccSEzD1d.s 			page 95


 657:L6470.c       ****     
 3301              		.loc 1 657 0
 3302 0026 2046     		mov	r0, r4
 3303 0028 FFF7FEFF 		bl	__aeabi_i2d
 3304              	.LVL409:
 3305 002c 20A3     		adr	r3, .L216
 3306 002e D3E90023 		ldrd	r2, [r3]
 3307 0032 FFF7FEFF 		bl	__aeabi_dmul
 3308              	.LVL410:
 3309 0036 FFF7FEFF 		bl	__aeabi_d2iz
 3310              	.LVL411:
 659:L6470.c       ****     {
 3311              		.loc 1 659 0
 3312 003a 002C     		cmp	r4, #0
 3313 003c B8BF     		it	lt
 3314 003e 6442     		rsblt	r4, r4, #0
 3315              	.LVL412:
 3316 0040 042C     		cmp	r4, #4
 3317 0042 0EDD     		ble	.L210
 3318              	.LVL413:
 662:L6470.c       ****       WaitTillPositionReached (TMC5160_nCS_MotorT);
 3319              		.loc 1 662 0
 3320 0044 0321     		movs	r1, #3
 3321 0046 3844     		add	r0, r0, r7
 3322              	.LVL414:
 3323 0048 FFF7FEFF 		bl	GotoPos
 3324              	.LVL415:
 663:L6470.c       ****       CyDelayUs(50);
 3325              		.loc 1 663 0
 3326 004c 0320     		movs	r0, #3
 3327 004e FFF7FEFF 		bl	WaitTillPositionReached
 3328              	.LVL416:
 664:L6470.c       ****       Write_32bitSPI_DATA (0x21  , steps, TMC5160_nCS_MotorT );
 3329              		.loc 1 664 0
 3330 0052 3220     		movs	r0, #50
 3331 0054 FFF7FEFF 		bl	CyDelayUs
 3332              	.LVL417:
 665:L6470.c       ****     }
 3333              		.loc 1 665 0
 3334 0058 0322     		movs	r2, #3
 3335 005a 3946     		mov	r1, r7
 3336 005c 2120     		movs	r0, #33
 3337 005e FFF7FEFF 		bl	Write_32bitSPI_DATA
 3338              	.LVL418:
 3339              	.L210:
 652:L6470.c       ****     {
 3340              		.loc 1 652 0 discriminator 2
 3341 0062 0135     		adds	r5, r5, #1
 3342              	.LVL419:
 3343 0064 EDB2     		uxtb	r5, r5
 3344              	.LVL420:
 3345              	.L209:
 652:L6470.c       ****     {
 3346              		.loc 1 652 0 is_stmt 0 discriminator 1
 3347 0066 032D     		cmp	r5, #3
 3348 0068 D8D9     		bls	.L211
 670:L6470.c       ****     encoder_error_value = Encoder_Position_T_Requested - T_QuadPosition;
ARM GAS  C:\Users\Revanth\AppData\Local\Temp\ccSEzD1d.s 			page 96


 3349              		.loc 1 670 0 is_stmt 1
 3350 006a FFF7FEFF 		bl	Read_All_Optical_Encoder
 3351              	.LVL421:
 671:L6470.c       ****     
 3352              		.loc 1 671 0
 3353 006e 124B     		ldr	r3, .L216+8
 3354 0070 1869     		ldr	r0, [r3, #16]
 3355 0072 301A     		subs	r0, r6, r0
 3356              	.LVL422:
 673:L6470.c       ****     {
 3357              		.loc 1 673 0
 3358 0074 032D     		cmp	r5, #3
 3359 0076 18D9     		bls	.L212
 675:L6470.c       ****      {
 3360              		.loc 1 675 0
 3361 0078 0028     		cmp	r0, #0
 3362 007a B8BF     		it	lt
 3363 007c 4042     		rsblt	r0, r0, #0
 3364              	.LVL423:
 3365 007e 0428     		cmp	r0, #4
 3366 0080 06DD     		ble	.L213
 677:L6470.c       ****         Error = 1;
 3367              		.loc 1 677 0
 3368 0082 0E48     		ldr	r0, .L216+12
 3369 0084 FFF7FEFF 		bl	Write_Debug_UART_Char
 3370              	.LVL424:
 678:L6470.c       ****      }
 3371              		.loc 1 678 0
 3372 0088 0122     		movs	r2, #1
 3373 008a 0B4B     		ldr	r3, .L216+8
 3374 008c 5A63     		str	r2, [r3, #52]
 3375 008e 0CE0     		b	.L212
 3376              	.L213:
 681:L6470.c       ****      {
 3377              		.loc 1 681 0
 3378 0090 B0F57A6F 		cmp	r0, #4000
 3379 0094 03DD     		ble	.L214
 683:L6470.c       ****      }
 3380              		.loc 1 683 0
 3381 0096 0A48     		ldr	r0, .L216+16
 3382 0098 FFF7FEFF 		bl	Write_Debug_UART_Char
 3383              	.LVL425:
 3384 009c 05E0     		b	.L212
 3385              	.L214:
 688:L6470.c       ****         Error = 0;
 3386              		.loc 1 688 0
 3387 009e 0948     		ldr	r0, .L216+20
 3388 00a0 FFF7FEFF 		bl	Write_Debug_UART_Char
 3389              	.LVL426:
 689:L6470.c       ****         
 3390              		.loc 1 689 0
 3391 00a4 0022     		movs	r2, #0
 3392 00a6 044B     		ldr	r3, .L216+8
 3393 00a8 5A63     		str	r2, [r3, #52]
 3394              	.L212:
 696:L6470.c       **** 
 3395              		.loc 1 696 0
ARM GAS  C:\Users\Revanth\AppData\Local\Temp\ccSEzD1d.s 			page 97


 3396 00aa 034B     		ldr	r3, .L216+8
 3397 00ac 586B     		ldr	r0, [r3, #52]
 3398 00ae F8BD     		pop	{r3, r4, r5, r6, r7, pc}
 3399              	.LVL427:
 3400              	.L217:
 3401              		.align	3
 3402              	.L216:
 3403 00b0 9A999999 		.word	-1717986918
 3404 00b4 99990940 		.word	1074370969
 3405 00b8 00000000 		.word	.LANCHOR0
 3406 00bc 04040000 		.word	.LC33
 3407 00c0 20040000 		.word	.LC34
 3408 00c4 50040000 		.word	.LC35
 3409              		.cfi_endproc
 3410              	.LFE76:
 3411              		.size	Step_correction_t, .-Step_correction_t
 3412              		.section	.text.goTo_T,"ax",%progbits
 3413              		.align	2
 3414              		.global	goTo_T
 3415              		.thumb
 3416              		.thumb_func
 3417              		.type	goTo_T, %function
 3418              	goTo_T:
 3419              	.LFB75:
 616:L6470.c       ****     Enable_Encoder_T(-Buffer_T_QuadPosition);
 3420              		.loc 1 616 0
 3421              		.cfi_startproc
 3422              		@ args = 0, pretend = 0, frame = 0
 3423              		@ frame_needed = 0, uses_anonymous_args = 0
 3424              	.LVL428:
 3425 0000 38B5     		push	{r3, r4, r5, lr}
 3426              		.cfi_def_cfa_offset 16
 3427              		.cfi_offset 3, -16
 3428              		.cfi_offset 4, -12
 3429              		.cfi_offset 5, -8
 3430              		.cfi_offset 14, -4
 3431 0002 0446     		mov	r4, r0
 617:L6470.c       ****     if(if_all_homing_done())
 3432              		.loc 1 617 0
 3433 0004 184B     		ldr	r3, .L222
 3434 0006 9869     		ldr	r0, [r3, #24]
 3435              	.LVL429:
 3436 0008 4042     		negs	r0, r0
 3437 000a FFF7FEFF 		bl	Enable_Encoder_T
 3438              	.LVL430:
 618:L6470.c       ****     {
 3439              		.loc 1 618 0
 3440 000e FFF7FEFF 		bl	if_all_homing_done
 3441              	.LVL431:
 3442 0012 00B3     		cbz	r0, .L219
 620:L6470.c       ****         Read_All_Optical_Encoder();        
 3443              		.loc 1 620 0
 3444 0014 144D     		ldr	r5, .L222
 3445 0016 0023     		movs	r3, #0
 3446 0018 6B63     		str	r3, [r5, #52]
 621:L6470.c       ****         Write_Debug_UART_Char("GotoT Command Recived--->");
 3447              		.loc 1 621 0
ARM GAS  C:\Users\Revanth\AppData\Local\Temp\ccSEzD1d.s 			page 98


 3448 001a FFF7FEFF 		bl	Read_All_Optical_Encoder
 3449              	.LVL432:
 622:L6470.c       ****         GotoPos(Position_T_Requested, TMC5160_nCS_MotorT); // If provided value is position and not
 3450              		.loc 1 622 0
 3451 001e 1348     		ldr	r0, .L222+4
 3452 0020 FFF7FEFF 		bl	Write_Debug_UART_Char
 3453              	.LVL433:
 623:L6470.c       ****         WaitTillPositionReached (TMC5160_nCS_MotorT);
 3454              		.loc 1 623 0
 3455 0024 0321     		movs	r1, #3
 3456 0026 2046     		mov	r0, r4
 3457 0028 FFF7FEFF 		bl	GotoPos
 3458              	.LVL434:
 624:L6470.c       ****         CyDelayUs(50);
 3459              		.loc 1 624 0
 3460 002c 0320     		movs	r0, #3
 3461 002e FFF7FEFF 		bl	WaitTillPositionReached
 3462              	.LVL435:
 625:L6470.c       ****         //GotoPos(Position_X_Move, TMC5160_nCS_MotorX); // If provided value is steps to move and n
 3463              		.loc 1 625 0
 3464 0032 3220     		movs	r0, #50
 3465 0034 FFF7FEFF 		bl	CyDelayUs
 3466              	.LVL436:
 627:L6470.c       ****         Write_Debug_UART_Char("  \r\n");
 3467              		.loc 1 627 0
 3468 0038 2046     		mov	r0, r4
 3469 003a FFF7FEFF 		bl	Write_Debug_UART_Int
 3470              	.LVL437:
 628:L6470.c       ****         Step_correction_t(Position_T_Requested);
 3471              		.loc 1 628 0
 3472 003e 0C48     		ldr	r0, .L222+8
 3473 0040 FFF7FEFF 		bl	Write_Debug_UART_Char
 3474              	.LVL438:
 629:L6470.c       ****         Read_All_Optical_Encoder();
 3475              		.loc 1 629 0
 3476 0044 2046     		mov	r0, r4
 3477 0046 FFF7FEFF 		bl	Step_correction_t
 3478              	.LVL439:
 630:L6470.c       ****         Buffer_T_QuadPosition = T_QuadPosition;
 3479              		.loc 1 630 0
 3480 004a FFF7FEFF 		bl	Read_All_Optical_Encoder
 3481              	.LVL440:
 631:L6470.c       ****         return Error;
 3482              		.loc 1 631 0
 3483 004e 2B69     		ldr	r3, [r5, #16]
 3484 0050 AB61     		str	r3, [r5, #24]
 632:L6470.c       ****     }
 3485              		.loc 1 632 0
 3486 0052 686B     		ldr	r0, [r5, #52]
 3487 0054 38BD     		pop	{r3, r4, r5, pc}
 3488              	.LVL441:
 3489              	.L219:
 636:L6470.c       ****         Error = All_Homing_Not_Done_Yet;
 3490              		.loc 1 636 0
 3491 0056 0748     		ldr	r0, .L222+12
 3492 0058 FFF7FEFF 		bl	Write_Debug_UART_Char
