ARM GAS  C:\Users\Revanth\AppData\Local\Temp\ccXFTWEi.s 			page 1


   1              		.syntax unified
   2              		.cpu cortex-m3
   3              		.fpu softvfp
   4              		.eabi_attribute 20, 1
   5              		.eabi_attribute 21, 1
   6              		.eabi_attribute 23, 3
   7              		.eabi_attribute 24, 1
   8              		.eabi_attribute 25, 1
   9              		.eabi_attribute 26, 1
  10              		.eabi_attribute 30, 1
  11              		.eabi_attribute 34, 1
  12              		.eabi_attribute 18, 4
  13              		.thumb
  14              		.syntax unified
  15              		.file	"QuadDec_XY.c"
  16              		.text
  17              	.Ltext0:
  18              		.cfi_sections	.debug_frame
  19              		.section	.text.QuadDec_XY_Init,"ax",%progbits
  20              		.align	2
  21              		.global	QuadDec_XY_Init
  22              		.thumb
  23              		.thumb_func
  24              		.type	QuadDec_XY_Init, %function
  25              	QuadDec_XY_Init:
  26              	.LFB0:
  27              		.file 1 "Generated_Source\\PSoC5\\QuadDec_XY.c"
   1:Generated_Source\PSoC5/QuadDec_XY.c **** /*******************************************************************************
   2:Generated_Source\PSoC5/QuadDec_XY.c **** * File Name: QuadDec_XY.c  
   3:Generated_Source\PSoC5/QuadDec_XY.c **** * Version 3.0
   4:Generated_Source\PSoC5/QuadDec_XY.c **** *
   5:Generated_Source\PSoC5/QuadDec_XY.c **** * Description:
   6:Generated_Source\PSoC5/QuadDec_XY.c **** *  This file provides the source code to the API for the Quadrature Decoder
   7:Generated_Source\PSoC5/QuadDec_XY.c **** *  component.
   8:Generated_Source\PSoC5/QuadDec_XY.c **** *
   9:Generated_Source\PSoC5/QuadDec_XY.c **** * Note:
  10:Generated_Source\PSoC5/QuadDec_XY.c **** *  None.
  11:Generated_Source\PSoC5/QuadDec_XY.c **** *   
  12:Generated_Source\PSoC5/QuadDec_XY.c **** ********************************************************************************
  13:Generated_Source\PSoC5/QuadDec_XY.c **** * Copyright 2008-2014, Cypress Semiconductor Corporation.  All rights reserved.
  14:Generated_Source\PSoC5/QuadDec_XY.c **** * You may use this file only in accordance with the license, terms, conditions, 
  15:Generated_Source\PSoC5/QuadDec_XY.c **** * disclaimers, and limitations in the end user license agreement accompanying 
  16:Generated_Source\PSoC5/QuadDec_XY.c **** * the software package with which this file was provided.
  17:Generated_Source\PSoC5/QuadDec_XY.c **** *******************************************************************************/
  18:Generated_Source\PSoC5/QuadDec_XY.c **** 
  19:Generated_Source\PSoC5/QuadDec_XY.c **** #include "QuadDec_XY.h"
  20:Generated_Source\PSoC5/QuadDec_XY.c **** 
  21:Generated_Source\PSoC5/QuadDec_XY.c **** #if (QuadDec_XY_COUNTER_SIZE == QuadDec_XY_COUNTER_SIZE_32_BIT)
  22:Generated_Source\PSoC5/QuadDec_XY.c ****     #include "QuadDec_XY_PVT.h"
  23:Generated_Source\PSoC5/QuadDec_XY.c **** #endif /* QuadDec_XY_COUNTER_SIZE == QuadDec_XY_COUNTER_SIZE_32_BIT */
  24:Generated_Source\PSoC5/QuadDec_XY.c **** 
  25:Generated_Source\PSoC5/QuadDec_XY.c **** uint8 QuadDec_XY_initVar = 0u;
  26:Generated_Source\PSoC5/QuadDec_XY.c **** 
  27:Generated_Source\PSoC5/QuadDec_XY.c **** 
  28:Generated_Source\PSoC5/QuadDec_XY.c **** /*******************************************************************************
  29:Generated_Source\PSoC5/QuadDec_XY.c **** * Function Name: QuadDec_XY_Init
  30:Generated_Source\PSoC5/QuadDec_XY.c **** ********************************************************************************
ARM GAS  C:\Users\Revanth\AppData\Local\Temp\ccXFTWEi.s 			page 2


  31:Generated_Source\PSoC5/QuadDec_XY.c **** *
  32:Generated_Source\PSoC5/QuadDec_XY.c **** * Summary:
  33:Generated_Source\PSoC5/QuadDec_XY.c **** *  Inits/Restores default QuadDec configuration provided with customizer.
  34:Generated_Source\PSoC5/QuadDec_XY.c **** *
  35:Generated_Source\PSoC5/QuadDec_XY.c **** * Parameters:
  36:Generated_Source\PSoC5/QuadDec_XY.c **** *  None.
  37:Generated_Source\PSoC5/QuadDec_XY.c **** *
  38:Generated_Source\PSoC5/QuadDec_XY.c **** * Return:
  39:Generated_Source\PSoC5/QuadDec_XY.c **** *  None.
  40:Generated_Source\PSoC5/QuadDec_XY.c **** *
  41:Generated_Source\PSoC5/QuadDec_XY.c **** *******************************************************************************/
  42:Generated_Source\PSoC5/QuadDec_XY.c **** void QuadDec_XY_Init(void) 
  43:Generated_Source\PSoC5/QuadDec_XY.c **** {
  28              		.loc 1 43 0
  29              		.cfi_startproc
  30              		@ args = 0, pretend = 0, frame = 0
  31              		@ frame_needed = 0, uses_anonymous_args = 0
  32 0000 10B5     		push	{r4, lr}
  33              		.cfi_def_cfa_offset 8
  34              		.cfi_offset 4, -8
  35              		.cfi_offset 14, -4
  44:Generated_Source\PSoC5/QuadDec_XY.c ****     #if (QuadDec_XY_COUNTER_SIZE == QuadDec_XY_COUNTER_SIZE_32_BIT)
  45:Generated_Source\PSoC5/QuadDec_XY.c ****         /* Disable Interrupt. */
  46:Generated_Source\PSoC5/QuadDec_XY.c ****         CyIntDisable(QuadDec_XY_ISR_NUMBER);
  36              		.loc 1 46 0
  37 0002 0224     		movs	r4, #2
  38 0004 054B     		ldr	r3, .L3
  39 0006 1C60     		str	r4, [r3]
  47:Generated_Source\PSoC5/QuadDec_XY.c ****         /* Set the ISR to point to the QuadDec_XY_isr Interrupt. */
  48:Generated_Source\PSoC5/QuadDec_XY.c ****         (void) CyIntSetVector(QuadDec_XY_ISR_NUMBER, & QuadDec_XY_ISR);
  40              		.loc 1 48 0
  41 0008 0549     		ldr	r1, .L3+4
  42 000a 0120     		movs	r0, #1
  43 000c FFF7FEFF 		bl	CyIntSetVector
  44              	.LVL0:
  49:Generated_Source\PSoC5/QuadDec_XY.c ****         /* Set the priority. */
  50:Generated_Source\PSoC5/QuadDec_XY.c ****         CyIntSetPriority(QuadDec_XY_ISR_NUMBER, QuadDec_XY_ISR_PRIORITY);
  45              		.loc 1 50 0
  46 0010 2146     		mov	r1, r4
  47 0012 0120     		movs	r0, #1
  48 0014 FFF7FEFF 		bl	CyIntSetPriority
  49              	.LVL1:
  50 0018 10BD     		pop	{r4, pc}
  51              	.L4:
  52 001a 00BF     		.align	2
  53              	.L3:
  54 001c 80E100E0 		.word	-536813184
  55 0020 00000000 		.word	QuadDec_XY_ISR
  56              		.cfi_endproc
  57              	.LFE0:
  58              		.size	QuadDec_XY_Init, .-QuadDec_XY_Init
  59              		.section	.text.QuadDec_XY_Stop,"ax",%progbits
  60              		.align	2
  61              		.global	QuadDec_XY_Stop
  62              		.thumb
  63              		.thumb_func
  64              		.type	QuadDec_XY_Stop, %function
ARM GAS  C:\Users\Revanth\AppData\Local\Temp\ccXFTWEi.s 			page 3


  65              	QuadDec_XY_Stop:
  66              	.LFB3:
  51:Generated_Source\PSoC5/QuadDec_XY.c ****     #endif /* QuadDec_XY_COUNTER_SIZE == QuadDec_XY_COUNTER_SIZE_32_BIT */
  52:Generated_Source\PSoC5/QuadDec_XY.c **** }
  53:Generated_Source\PSoC5/QuadDec_XY.c **** 
  54:Generated_Source\PSoC5/QuadDec_XY.c **** 
  55:Generated_Source\PSoC5/QuadDec_XY.c **** /*******************************************************************************
  56:Generated_Source\PSoC5/QuadDec_XY.c **** * Function Name: QuadDec_XY_Enable
  57:Generated_Source\PSoC5/QuadDec_XY.c **** ********************************************************************************
  58:Generated_Source\PSoC5/QuadDec_XY.c **** *
  59:Generated_Source\PSoC5/QuadDec_XY.c **** * Summary:
  60:Generated_Source\PSoC5/QuadDec_XY.c **** *  This function enable interrupts from Component and also enable Component's
  61:Generated_Source\PSoC5/QuadDec_XY.c **** *  ISR in case of 32-bit counter.
  62:Generated_Source\PSoC5/QuadDec_XY.c **** *
  63:Generated_Source\PSoC5/QuadDec_XY.c **** * Parameters:
  64:Generated_Source\PSoC5/QuadDec_XY.c **** *  None.
  65:Generated_Source\PSoC5/QuadDec_XY.c **** *
  66:Generated_Source\PSoC5/QuadDec_XY.c **** * Return:
  67:Generated_Source\PSoC5/QuadDec_XY.c **** *  None.
  68:Generated_Source\PSoC5/QuadDec_XY.c **** *
  69:Generated_Source\PSoC5/QuadDec_XY.c **** *******************************************************************************/
  70:Generated_Source\PSoC5/QuadDec_XY.c **** void QuadDec_XY_Enable(void) 
  71:Generated_Source\PSoC5/QuadDec_XY.c **** {
  72:Generated_Source\PSoC5/QuadDec_XY.c ****     uint8 enableInterrupts;
  73:Generated_Source\PSoC5/QuadDec_XY.c **** 
  74:Generated_Source\PSoC5/QuadDec_XY.c ****     QuadDec_XY_SetInterruptMask(QuadDec_XY_INIT_INT_MASK);
  75:Generated_Source\PSoC5/QuadDec_XY.c **** 
  76:Generated_Source\PSoC5/QuadDec_XY.c ****     /* Clear pending interrupts. */
  77:Generated_Source\PSoC5/QuadDec_XY.c ****     (void) QuadDec_XY_GetEvents();
  78:Generated_Source\PSoC5/QuadDec_XY.c ****     
  79:Generated_Source\PSoC5/QuadDec_XY.c ****     enableInterrupts = CyEnterCriticalSection();
  80:Generated_Source\PSoC5/QuadDec_XY.c **** 
  81:Generated_Source\PSoC5/QuadDec_XY.c ****     /* Enable interrupts from Statusi register */
  82:Generated_Source\PSoC5/QuadDec_XY.c ****     QuadDec_XY_SR_AUX_CONTROL |= QuadDec_XY_INTERRUPTS_ENABLE;
  83:Generated_Source\PSoC5/QuadDec_XY.c **** 
  84:Generated_Source\PSoC5/QuadDec_XY.c ****     CyExitCriticalSection(enableInterrupts);        
  85:Generated_Source\PSoC5/QuadDec_XY.c **** 
  86:Generated_Source\PSoC5/QuadDec_XY.c ****     #if (QuadDec_XY_COUNTER_SIZE == QuadDec_XY_COUNTER_SIZE_32_BIT)
  87:Generated_Source\PSoC5/QuadDec_XY.c ****         /* Enable Component interrupts */
  88:Generated_Source\PSoC5/QuadDec_XY.c ****         CyIntEnable(QuadDec_XY_ISR_NUMBER);
  89:Generated_Source\PSoC5/QuadDec_XY.c ****     #endif /* QuadDec_XY_COUNTER_SIZE == QuadDec_XY_COUNTER_SIZE_32_BIT */
  90:Generated_Source\PSoC5/QuadDec_XY.c **** }
  91:Generated_Source\PSoC5/QuadDec_XY.c **** 
  92:Generated_Source\PSoC5/QuadDec_XY.c **** 
  93:Generated_Source\PSoC5/QuadDec_XY.c **** /*******************************************************************************
  94:Generated_Source\PSoC5/QuadDec_XY.c **** * Function Name: QuadDec_XY_Start
  95:Generated_Source\PSoC5/QuadDec_XY.c **** ********************************************************************************
  96:Generated_Source\PSoC5/QuadDec_XY.c **** *
  97:Generated_Source\PSoC5/QuadDec_XY.c **** * Summary:
  98:Generated_Source\PSoC5/QuadDec_XY.c **** *  Initializes UDBs and other relevant hardware.
  99:Generated_Source\PSoC5/QuadDec_XY.c **** *  Resets counter, enables or disables all relevant interrupts.
 100:Generated_Source\PSoC5/QuadDec_XY.c **** *  Starts monitoring the inputs and counting.
 101:Generated_Source\PSoC5/QuadDec_XY.c **** *
 102:Generated_Source\PSoC5/QuadDec_XY.c **** * Parameters:
 103:Generated_Source\PSoC5/QuadDec_XY.c **** *  None.
 104:Generated_Source\PSoC5/QuadDec_XY.c **** *
 105:Generated_Source\PSoC5/QuadDec_XY.c **** * Return:
ARM GAS  C:\Users\Revanth\AppData\Local\Temp\ccXFTWEi.s 			page 4


 106:Generated_Source\PSoC5/QuadDec_XY.c **** *  None.
 107:Generated_Source\PSoC5/QuadDec_XY.c **** *
 108:Generated_Source\PSoC5/QuadDec_XY.c **** * Global variables:
 109:Generated_Source\PSoC5/QuadDec_XY.c **** *  QuadDec_XY_initVar - used to check initial configuration, modified on
 110:Generated_Source\PSoC5/QuadDec_XY.c **** *  first function call.
 111:Generated_Source\PSoC5/QuadDec_XY.c **** *
 112:Generated_Source\PSoC5/QuadDec_XY.c **** * Reentrant:
 113:Generated_Source\PSoC5/QuadDec_XY.c **** *  No.
 114:Generated_Source\PSoC5/QuadDec_XY.c **** *
 115:Generated_Source\PSoC5/QuadDec_XY.c **** *******************************************************************************/
 116:Generated_Source\PSoC5/QuadDec_XY.c **** void QuadDec_XY_Start(void) 
 117:Generated_Source\PSoC5/QuadDec_XY.c **** {
 118:Generated_Source\PSoC5/QuadDec_XY.c ****     #if (QuadDec_XY_COUNTER_SIZE == QuadDec_XY_COUNTER_SIZE_8_BIT)
 119:Generated_Source\PSoC5/QuadDec_XY.c ****         QuadDec_XY_Cnt8_Start();
 120:Generated_Source\PSoC5/QuadDec_XY.c ****         QuadDec_XY_Cnt8_WriteCounter(QuadDec_XY_COUNTER_INIT_VALUE);
 121:Generated_Source\PSoC5/QuadDec_XY.c ****     #else
 122:Generated_Source\PSoC5/QuadDec_XY.c ****         /* (QuadDec_XY_COUNTER_SIZE == QuadDec_XY_COUNTER_SIZE_16_BIT) || 
 123:Generated_Source\PSoC5/QuadDec_XY.c ****         *  (QuadDec_XY_COUNTER_SIZE == QuadDec_XY_COUNTER_SIZE_32_BIT) 
 124:Generated_Source\PSoC5/QuadDec_XY.c ****         */
 125:Generated_Source\PSoC5/QuadDec_XY.c ****         QuadDec_XY_Cnt16_Start();
 126:Generated_Source\PSoC5/QuadDec_XY.c ****         QuadDec_XY_Cnt16_WriteCounter(QuadDec_XY_COUNTER_INIT_VALUE);
 127:Generated_Source\PSoC5/QuadDec_XY.c ****     #endif /* QuadDec_XY_COUNTER_SIZE == QuadDec_XY_COUNTER_SIZE_8_BIT */
 128:Generated_Source\PSoC5/QuadDec_XY.c ****     
 129:Generated_Source\PSoC5/QuadDec_XY.c ****     #if (QuadDec_XY_COUNTER_SIZE == QuadDec_XY_COUNTER_SIZE_32_BIT)        
 130:Generated_Source\PSoC5/QuadDec_XY.c ****        QuadDec_XY_count32SoftPart = 0;
 131:Generated_Source\PSoC5/QuadDec_XY.c ****     #endif /* QuadDec_XY_COUNTER_SIZE == QuadDec_XY_COUNTER_SIZE_32_BIT */
 132:Generated_Source\PSoC5/QuadDec_XY.c **** 
 133:Generated_Source\PSoC5/QuadDec_XY.c ****     if (QuadDec_XY_initVar == 0u)
 134:Generated_Source\PSoC5/QuadDec_XY.c ****     {
 135:Generated_Source\PSoC5/QuadDec_XY.c ****         QuadDec_XY_Init();
 136:Generated_Source\PSoC5/QuadDec_XY.c ****         QuadDec_XY_initVar = 1u;
 137:Generated_Source\PSoC5/QuadDec_XY.c ****     }
 138:Generated_Source\PSoC5/QuadDec_XY.c **** 
 139:Generated_Source\PSoC5/QuadDec_XY.c ****     QuadDec_XY_Enable();
 140:Generated_Source\PSoC5/QuadDec_XY.c **** }
 141:Generated_Source\PSoC5/QuadDec_XY.c **** 
 142:Generated_Source\PSoC5/QuadDec_XY.c **** 
 143:Generated_Source\PSoC5/QuadDec_XY.c **** /*******************************************************************************
 144:Generated_Source\PSoC5/QuadDec_XY.c **** * Function Name: QuadDec_XY_Stop
 145:Generated_Source\PSoC5/QuadDec_XY.c **** ********************************************************************************
 146:Generated_Source\PSoC5/QuadDec_XY.c **** *
 147:Generated_Source\PSoC5/QuadDec_XY.c **** * Summary:
 148:Generated_Source\PSoC5/QuadDec_XY.c **** *  Turns off UDBs and other relevant hardware.
 149:Generated_Source\PSoC5/QuadDec_XY.c **** *
 150:Generated_Source\PSoC5/QuadDec_XY.c **** * Parameters:
 151:Generated_Source\PSoC5/QuadDec_XY.c **** *  None.
 152:Generated_Source\PSoC5/QuadDec_XY.c **** *
 153:Generated_Source\PSoC5/QuadDec_XY.c **** * Return:
 154:Generated_Source\PSoC5/QuadDec_XY.c **** *  None.
 155:Generated_Source\PSoC5/QuadDec_XY.c **** *
 156:Generated_Source\PSoC5/QuadDec_XY.c **** *******************************************************************************/
 157:Generated_Source\PSoC5/QuadDec_XY.c **** void QuadDec_XY_Stop(void) 
 158:Generated_Source\PSoC5/QuadDec_XY.c **** {
  67              		.loc 1 158 0
  68              		.cfi_startproc
  69              		@ args = 0, pretend = 0, frame = 0
  70              		@ frame_needed = 0, uses_anonymous_args = 0
ARM GAS  C:\Users\Revanth\AppData\Local\Temp\ccXFTWEi.s 			page 5


  71 0000 08B5     		push	{r3, lr}
  72              		.cfi_def_cfa_offset 8
  73              		.cfi_offset 3, -8
  74              		.cfi_offset 14, -4
 159:Generated_Source\PSoC5/QuadDec_XY.c ****     uint8 enableInterrupts;
 160:Generated_Source\PSoC5/QuadDec_XY.c **** 
 161:Generated_Source\PSoC5/QuadDec_XY.c ****     #if (QuadDec_XY_COUNTER_SIZE == QuadDec_XY_COUNTER_SIZE_8_BIT)
 162:Generated_Source\PSoC5/QuadDec_XY.c ****         QuadDec_XY_Cnt8_Stop();
 163:Generated_Source\PSoC5/QuadDec_XY.c ****     #else 
 164:Generated_Source\PSoC5/QuadDec_XY.c ****         /* (QuadDec_XY_COUNTER_SIZE == QuadDec_XY_COUNTER_SIZE_16_BIT) ||
 165:Generated_Source\PSoC5/QuadDec_XY.c ****         *  (QuadDec_XY_COUNTER_SIZE == QuadDec_XY_COUNTER_SIZE_32_BIT)
 166:Generated_Source\PSoC5/QuadDec_XY.c ****         */
 167:Generated_Source\PSoC5/QuadDec_XY.c ****         QuadDec_XY_Cnt16_Stop();    /* counter disable */
  75              		.loc 1 167 0
  76 0002 FFF7FEFF 		bl	QuadDec_XY_Cnt16_Stop
  77              	.LVL2:
 168:Generated_Source\PSoC5/QuadDec_XY.c ****     #endif /* (QuadDec_XY_COUNTER_SIZE == QuadDec_XY_COUNTER_SIZE_8_BIT) */
 169:Generated_Source\PSoC5/QuadDec_XY.c ****  
 170:Generated_Source\PSoC5/QuadDec_XY.c ****     enableInterrupts = CyEnterCriticalSection();
  78              		.loc 1 170 0
  79 0006 FFF7FEFF 		bl	CyEnterCriticalSection
  80              	.LVL3:
 171:Generated_Source\PSoC5/QuadDec_XY.c **** 
 172:Generated_Source\PSoC5/QuadDec_XY.c ****     /* Disable interrupts interrupts from Statusi register */
 173:Generated_Source\PSoC5/QuadDec_XY.c ****     QuadDec_XY_SR_AUX_CONTROL &= (uint8) (~QuadDec_XY_INTERRUPTS_ENABLE);
  81              		.loc 1 173 0
  82 000a 054A     		ldr	r2, .L7
  83 000c 1378     		ldrb	r3, [r2]	@ zero_extendqisi2
  84 000e 03F0EF03 		and	r3, r3, #239
  85 0012 1370     		strb	r3, [r2]
 174:Generated_Source\PSoC5/QuadDec_XY.c **** 
 175:Generated_Source\PSoC5/QuadDec_XY.c ****     CyExitCriticalSection(enableInterrupts);
  86              		.loc 1 175 0
  87 0014 FFF7FEFF 		bl	CyExitCriticalSection
  88              	.LVL4:
 176:Generated_Source\PSoC5/QuadDec_XY.c **** 
 177:Generated_Source\PSoC5/QuadDec_XY.c ****     #if (QuadDec_XY_COUNTER_SIZE == QuadDec_XY_COUNTER_SIZE_32_BIT)
 178:Generated_Source\PSoC5/QuadDec_XY.c ****         CyIntDisable(QuadDec_XY_ISR_NUMBER);    /* interrupt disable */
  89              		.loc 1 178 0
  90 0018 0222     		movs	r2, #2
  91 001a 024B     		ldr	r3, .L7+4
  92 001c 1A60     		str	r2, [r3]
  93 001e 08BD     		pop	{r3, pc}
  94              	.L8:
  95              		.align	2
  96              	.L7:
  97 0020 9E640040 		.word	1073767582
  98 0024 80E100E0 		.word	-536813184
  99              		.cfi_endproc
 100              	.LFE3:
 101              		.size	QuadDec_XY_Stop, .-QuadDec_XY_Stop
 102              		.section	.text.QuadDec_XY_GetCounter,"ax",%progbits
 103              		.align	2
 104              		.global	QuadDec_XY_GetCounter
 105              		.thumb
 106              		.thumb_func
 107              		.type	QuadDec_XY_GetCounter, %function
ARM GAS  C:\Users\Revanth\AppData\Local\Temp\ccXFTWEi.s 			page 6


 108              	QuadDec_XY_GetCounter:
 109              	.LFB4:
 179:Generated_Source\PSoC5/QuadDec_XY.c ****     #endif /* QuadDec_XY_COUNTER_SIZE == QuadDec_XY_COUNTER_SIZE_32_BIT */
 180:Generated_Source\PSoC5/QuadDec_XY.c **** }
 181:Generated_Source\PSoC5/QuadDec_XY.c **** 
 182:Generated_Source\PSoC5/QuadDec_XY.c **** 
 183:Generated_Source\PSoC5/QuadDec_XY.c **** /*******************************************************************************
 184:Generated_Source\PSoC5/QuadDec_XY.c **** * Function Name: QuadDec_XY_GetCounter
 185:Generated_Source\PSoC5/QuadDec_XY.c **** ********************************************************************************
 186:Generated_Source\PSoC5/QuadDec_XY.c **** *
 187:Generated_Source\PSoC5/QuadDec_XY.c **** * Summary:
 188:Generated_Source\PSoC5/QuadDec_XY.c **** *  Reports the current value of the counter.
 189:Generated_Source\PSoC5/QuadDec_XY.c **** *
 190:Generated_Source\PSoC5/QuadDec_XY.c **** * Parameters:
 191:Generated_Source\PSoC5/QuadDec_XY.c **** *  None.
 192:Generated_Source\PSoC5/QuadDec_XY.c **** *
 193:Generated_Source\PSoC5/QuadDec_XY.c **** * Return:
 194:Generated_Source\PSoC5/QuadDec_XY.c **** *  The counter value. Return type is signed and per the counter size setting.
 195:Generated_Source\PSoC5/QuadDec_XY.c **** *  A positive value indicates clockwise movement (B before A).
 196:Generated_Source\PSoC5/QuadDec_XY.c **** *
 197:Generated_Source\PSoC5/QuadDec_XY.c **** * Global variables:
 198:Generated_Source\PSoC5/QuadDec_XY.c **** *  QuadDec_XY_count32SoftPart - used to get hi 16 bit for current value
 199:Generated_Source\PSoC5/QuadDec_XY.c **** *  of the 32-bit counter, when Counter size equal 32-bit.
 200:Generated_Source\PSoC5/QuadDec_XY.c **** *
 201:Generated_Source\PSoC5/QuadDec_XY.c **** *******************************************************************************/
 202:Generated_Source\PSoC5/QuadDec_XY.c **** int32 QuadDec_XY_GetCounter(void) 
 203:Generated_Source\PSoC5/QuadDec_XY.c **** {
 110              		.loc 1 203 0
 111              		.cfi_startproc
 112              		@ args = 0, pretend = 0, frame = 0
 113              		@ frame_needed = 0, uses_anonymous_args = 0
 114 0000 10B5     		push	{r4, lr}
 115              		.cfi_def_cfa_offset 8
 116              		.cfi_offset 4, -8
 117              		.cfi_offset 14, -4
 204:Generated_Source\PSoC5/QuadDec_XY.c ****     int32 count;
 205:Generated_Source\PSoC5/QuadDec_XY.c ****     uint16 tmpCnt;
 206:Generated_Source\PSoC5/QuadDec_XY.c **** 
 207:Generated_Source\PSoC5/QuadDec_XY.c ****     #if (QuadDec_XY_COUNTER_SIZE == QuadDec_XY_COUNTER_SIZE_32_BIT)
 208:Generated_Source\PSoC5/QuadDec_XY.c ****         int16 hwCount;
 209:Generated_Source\PSoC5/QuadDec_XY.c **** 
 210:Generated_Source\PSoC5/QuadDec_XY.c ****         CyIntDisable(QuadDec_XY_ISR_NUMBER);
 118              		.loc 1 210 0
 119 0002 0224     		movs	r4, #2
 120 0004 064B     		ldr	r3, .L11
 121 0006 1C60     		str	r4, [r3]
 211:Generated_Source\PSoC5/QuadDec_XY.c **** 
 212:Generated_Source\PSoC5/QuadDec_XY.c ****         tmpCnt = QuadDec_XY_Cnt16_ReadCounter();
 122              		.loc 1 212 0
 123 0008 FFF7FEFF 		bl	QuadDec_XY_Cnt16_ReadCounter
 124              	.LVL5:
 213:Generated_Source\PSoC5/QuadDec_XY.c ****         hwCount = (int16) ((int32) tmpCnt - (int32) QuadDec_XY_COUNTER_INIT_VALUE);
 125              		.loc 1 213 0
 126 000c A0F50040 		sub	r0, r0, #32768
 127              	.LVL6:
 128 0010 00B2     		sxth	r0, r0
 129              	.LVL7:
ARM GAS  C:\Users\Revanth\AppData\Local\Temp\ccXFTWEi.s 			page 7


 214:Generated_Source\PSoC5/QuadDec_XY.c ****         count = QuadDec_XY_count32SoftPart + hwCount;
 130              		.loc 1 214 0
 131 0012 044B     		ldr	r3, .L11+4
 132 0014 1B68     		ldr	r3, [r3]
 133              	.LVL8:
 215:Generated_Source\PSoC5/QuadDec_XY.c **** 
 216:Generated_Source\PSoC5/QuadDec_XY.c ****         CyIntEnable(QuadDec_XY_ISR_NUMBER);
 134              		.loc 1 216 0
 135 0016 044A     		ldr	r2, .L11+8
 136 0018 1460     		str	r4, [r2]
 217:Generated_Source\PSoC5/QuadDec_XY.c ****     #else 
 218:Generated_Source\PSoC5/QuadDec_XY.c ****         /* (QuadDec_XY_COUNTER_SIZE == QuadDec_XY_COUNTER_SIZE_8_BIT) || 
 219:Generated_Source\PSoC5/QuadDec_XY.c ****         *  (QuadDec_XY_COUNTER_SIZE == QuadDec_XY_COUNTER_SIZE_16_BIT)
 220:Generated_Source\PSoC5/QuadDec_XY.c ****         */
 221:Generated_Source\PSoC5/QuadDec_XY.c ****         #if (QuadDec_XY_COUNTER_SIZE == QuadDec_XY_COUNTER_SIZE_8_BIT)
 222:Generated_Source\PSoC5/QuadDec_XY.c ****             tmpCnt = QuadDec_XY_Cnt8_ReadCounter();
 223:Generated_Source\PSoC5/QuadDec_XY.c ****         #else /* (QuadDec_XY_COUNTER_SIZE == QuadDec_XY_COUNTER_SIZE_16_BIT) */
 224:Generated_Source\PSoC5/QuadDec_XY.c ****             tmpCnt = QuadDec_XY_Cnt16_ReadCounter();
 225:Generated_Source\PSoC5/QuadDec_XY.c ****         #endif  /* QuadDec_XY_COUNTER_SIZE == QuadDec_XY_COUNTER_SIZE_8_BIT */
 226:Generated_Source\PSoC5/QuadDec_XY.c **** 
 227:Generated_Source\PSoC5/QuadDec_XY.c ****         count = (int32) ((int32) tmpCnt -
 228:Generated_Source\PSoC5/QuadDec_XY.c ****                 (int32) QuadDec_XY_COUNTER_INIT_VALUE);
 229:Generated_Source\PSoC5/QuadDec_XY.c **** 
 230:Generated_Source\PSoC5/QuadDec_XY.c ****     #endif /* QuadDec_XY_COUNTER_SIZE == QuadDec_XY_COUNTER_SIZE_32_BIT */ 
 231:Generated_Source\PSoC5/QuadDec_XY.c **** 
 232:Generated_Source\PSoC5/QuadDec_XY.c ****     return (count);
 233:Generated_Source\PSoC5/QuadDec_XY.c **** }
 137              		.loc 1 233 0
 138 001a 1844     		add	r0, r0, r3
 139              	.LVL9:
 140 001c 10BD     		pop	{r4, pc}
 141              	.L12:
 142 001e 00BF     		.align	2
 143              	.L11:
 144 0020 80E100E0 		.word	-536813184
 145 0024 00000000 		.word	QuadDec_XY_count32SoftPart
 146 0028 00E100E0 		.word	-536813312
 147              		.cfi_endproc
 148              	.LFE4:
 149              		.size	QuadDec_XY_GetCounter, .-QuadDec_XY_GetCounter
 150              		.section	.text.QuadDec_XY_SetCounter,"ax",%progbits
 151              		.align	2
 152              		.global	QuadDec_XY_SetCounter
 153              		.thumb
 154              		.thumb_func
 155              		.type	QuadDec_XY_SetCounter, %function
 156              	QuadDec_XY_SetCounter:
 157              	.LFB5:
 234:Generated_Source\PSoC5/QuadDec_XY.c **** 
 235:Generated_Source\PSoC5/QuadDec_XY.c **** 
 236:Generated_Source\PSoC5/QuadDec_XY.c **** /*******************************************************************************
 237:Generated_Source\PSoC5/QuadDec_XY.c **** * Function Name: QuadDec_XY_SetCounter
 238:Generated_Source\PSoC5/QuadDec_XY.c **** ********************************************************************************
 239:Generated_Source\PSoC5/QuadDec_XY.c **** *
 240:Generated_Source\PSoC5/QuadDec_XY.c **** * Summary:
 241:Generated_Source\PSoC5/QuadDec_XY.c **** *  Sets the current value of the counter.
 242:Generated_Source\PSoC5/QuadDec_XY.c **** *
ARM GAS  C:\Users\Revanth\AppData\Local\Temp\ccXFTWEi.s 			page 8


 243:Generated_Source\PSoC5/QuadDec_XY.c **** * Parameters:
 244:Generated_Source\PSoC5/QuadDec_XY.c **** *  value:  The new value. Parameter type is signed and per the counter size
 245:Generated_Source\PSoC5/QuadDec_XY.c **** *  setting.
 246:Generated_Source\PSoC5/QuadDec_XY.c **** *
 247:Generated_Source\PSoC5/QuadDec_XY.c **** * Return:
 248:Generated_Source\PSoC5/QuadDec_XY.c **** *  None.
 249:Generated_Source\PSoC5/QuadDec_XY.c **** *
 250:Generated_Source\PSoC5/QuadDec_XY.c **** * Global variables:
 251:Generated_Source\PSoC5/QuadDec_XY.c **** *  QuadDec_XY_count32SoftPart - modified to set hi 16 bit for current
 252:Generated_Source\PSoC5/QuadDec_XY.c **** *  value of the 32-bit counter, when Counter size equal 32-bit.
 253:Generated_Source\PSoC5/QuadDec_XY.c **** *
 254:Generated_Source\PSoC5/QuadDec_XY.c **** * Reentrant:
 255:Generated_Source\PSoC5/QuadDec_XY.c **** *  No.
 256:Generated_Source\PSoC5/QuadDec_XY.c **** *
 257:Generated_Source\PSoC5/QuadDec_XY.c **** *******************************************************************************/
 258:Generated_Source\PSoC5/QuadDec_XY.c **** void QuadDec_XY_SetCounter(int32 value) 
 259:Generated_Source\PSoC5/QuadDec_XY.c **** {
 158              		.loc 1 259 0
 159              		.cfi_startproc
 160              		@ args = 0, pretend = 0, frame = 0
 161              		@ frame_needed = 0, uses_anonymous_args = 0
 162              	.LVL10:
 163 0000 38B5     		push	{r3, r4, r5, lr}
 164              		.cfi_def_cfa_offset 16
 165              		.cfi_offset 3, -16
 166              		.cfi_offset 4, -12
 167              		.cfi_offset 5, -8
 168              		.cfi_offset 14, -4
 169 0002 0546     		mov	r5, r0
 260:Generated_Source\PSoC5/QuadDec_XY.c ****     #if ((QuadDec_XY_COUNTER_SIZE == QuadDec_XY_COUNTER_SIZE_8_BIT) || \
 261:Generated_Source\PSoC5/QuadDec_XY.c ****          (QuadDec_XY_COUNTER_SIZE == QuadDec_XY_COUNTER_SIZE_16_BIT))
 262:Generated_Source\PSoC5/QuadDec_XY.c ****         uint16 count;
 263:Generated_Source\PSoC5/QuadDec_XY.c ****         
 264:Generated_Source\PSoC5/QuadDec_XY.c ****         if (value >= 0)
 265:Generated_Source\PSoC5/QuadDec_XY.c ****         {
 266:Generated_Source\PSoC5/QuadDec_XY.c ****             count = (uint16) value + QuadDec_XY_COUNTER_INIT_VALUE;
 267:Generated_Source\PSoC5/QuadDec_XY.c ****         }
 268:Generated_Source\PSoC5/QuadDec_XY.c ****         else
 269:Generated_Source\PSoC5/QuadDec_XY.c ****         {
 270:Generated_Source\PSoC5/QuadDec_XY.c ****             count = QuadDec_XY_COUNTER_INIT_VALUE - (uint16)(-value);
 271:Generated_Source\PSoC5/QuadDec_XY.c ****         }
 272:Generated_Source\PSoC5/QuadDec_XY.c ****         #if (QuadDec_XY_COUNTER_SIZE == QuadDec_XY_COUNTER_SIZE_8_BIT)
 273:Generated_Source\PSoC5/QuadDec_XY.c ****             QuadDec_XY_Cnt8_WriteCounter(count);
 274:Generated_Source\PSoC5/QuadDec_XY.c ****         #else /* (QuadDec_XY_COUNTER_SIZE == QuadDec_XY_COUNTER_SIZE_16_BIT) */
 275:Generated_Source\PSoC5/QuadDec_XY.c ****             QuadDec_XY_Cnt16_WriteCounter(count);
 276:Generated_Source\PSoC5/QuadDec_XY.c ****         #endif  /* QuadDec_XY_COUNTER_SIZE == QuadDec_XY_COUNTER_SIZE_8_BIT */
 277:Generated_Source\PSoC5/QuadDec_XY.c ****     #else /* (QuadDec_XY_COUNTER_SIZE == QuadDec_XY_COUNTER_SIZE_32_BIT) */
 278:Generated_Source\PSoC5/QuadDec_XY.c ****         CyIntDisable(QuadDec_XY_ISR_NUMBER);
 170              		.loc 1 278 0
 171 0004 0224     		movs	r4, #2
 172 0006 054B     		ldr	r3, .L15
 173 0008 1C60     		str	r4, [r3]
 279:Generated_Source\PSoC5/QuadDec_XY.c **** 
 280:Generated_Source\PSoC5/QuadDec_XY.c ****         QuadDec_XY_Cnt16_WriteCounter(QuadDec_XY_COUNTER_INIT_VALUE);
 174              		.loc 1 280 0
 175 000a 4FF40040 		mov	r0, #32768
 176              	.LVL11:
ARM GAS  C:\Users\Revanth\AppData\Local\Temp\ccXFTWEi.s 			page 9


 177 000e FFF7FEFF 		bl	QuadDec_XY_Cnt16_WriteCounter
 178              	.LVL12:
 281:Generated_Source\PSoC5/QuadDec_XY.c ****         QuadDec_XY_count32SoftPart = value;
 179              		.loc 1 281 0
 180 0012 034B     		ldr	r3, .L15+4
 181 0014 1D60     		str	r5, [r3]
 282:Generated_Source\PSoC5/QuadDec_XY.c **** 
 283:Generated_Source\PSoC5/QuadDec_XY.c ****         CyIntEnable(QuadDec_XY_ISR_NUMBER);
 182              		.loc 1 283 0
 183 0016 034B     		ldr	r3, .L15+8
 184 0018 1C60     		str	r4, [r3]
 185 001a 38BD     		pop	{r3, r4, r5, pc}
 186              	.LVL13:
 187              	.L16:
 188              		.align	2
 189              	.L15:
 190 001c 80E100E0 		.word	-536813184
 191 0020 00000000 		.word	QuadDec_XY_count32SoftPart
 192 0024 00E100E0 		.word	-536813312
 193              		.cfi_endproc
 194              	.LFE5:
 195              		.size	QuadDec_XY_SetCounter, .-QuadDec_XY_SetCounter
 196              		.section	.text.QuadDec_XY_GetEvents,"ax",%progbits
 197              		.align	2
 198              		.global	QuadDec_XY_GetEvents
 199              		.thumb
 200              		.thumb_func
 201              		.type	QuadDec_XY_GetEvents, %function
 202              	QuadDec_XY_GetEvents:
 203              	.LFB6:
 284:Generated_Source\PSoC5/QuadDec_XY.c ****     #endif  /* (QuadDec_XY_COUNTER_SIZE == QuadDec_XY_COUNTER_SIZE_8_BIT) ||
 285:Generated_Source\PSoC5/QuadDec_XY.c ****              * (QuadDec_XY_COUNTER_SIZE == QuadDec_XY_COUNTER_SIZE_16_BIT)
 286:Generated_Source\PSoC5/QuadDec_XY.c ****              */
 287:Generated_Source\PSoC5/QuadDec_XY.c **** }
 288:Generated_Source\PSoC5/QuadDec_XY.c **** 
 289:Generated_Source\PSoC5/QuadDec_XY.c **** 
 290:Generated_Source\PSoC5/QuadDec_XY.c **** /*******************************************************************************
 291:Generated_Source\PSoC5/QuadDec_XY.c **** * Function Name: QuadDec_XY_GetEvents
 292:Generated_Source\PSoC5/QuadDec_XY.c **** ********************************************************************************
 293:Generated_Source\PSoC5/QuadDec_XY.c **** * 
 294:Generated_Source\PSoC5/QuadDec_XY.c **** * Summary:
 295:Generated_Source\PSoC5/QuadDec_XY.c **** *   Reports the current status of events. This function clears the bits of the 
 296:Generated_Source\PSoC5/QuadDec_XY.c **** *   status register.
 297:Generated_Source\PSoC5/QuadDec_XY.c **** *
 298:Generated_Source\PSoC5/QuadDec_XY.c **** * Parameters:
 299:Generated_Source\PSoC5/QuadDec_XY.c **** *  None.
 300:Generated_Source\PSoC5/QuadDec_XY.c **** *
 301:Generated_Source\PSoC5/QuadDec_XY.c **** * Return:
 302:Generated_Source\PSoC5/QuadDec_XY.c **** *  The events, as bits in an unsigned 8-bit value:
 303:Generated_Source\PSoC5/QuadDec_XY.c **** *    Bit      Description
 304:Generated_Source\PSoC5/QuadDec_XY.c **** *     0        Counter overflow.
 305:Generated_Source\PSoC5/QuadDec_XY.c **** *     1        Counter underflow.
 306:Generated_Source\PSoC5/QuadDec_XY.c **** *     2        Counter reset due to index, if index input is used.
 307:Generated_Source\PSoC5/QuadDec_XY.c **** *     3        Invalid A, B inputs state transition.
 308:Generated_Source\PSoC5/QuadDec_XY.c **** *
 309:Generated_Source\PSoC5/QuadDec_XY.c **** *******************************************************************************/
 310:Generated_Source\PSoC5/QuadDec_XY.c **** uint8 QuadDec_XY_GetEvents(void) 
ARM GAS  C:\Users\Revanth\AppData\Local\Temp\ccXFTWEi.s 			page 10


 311:Generated_Source\PSoC5/QuadDec_XY.c **** {
 204              		.loc 1 311 0
 205              		.cfi_startproc
 206              		@ args = 0, pretend = 0, frame = 0
 207              		@ frame_needed = 0, uses_anonymous_args = 0
 208              		@ link register save eliminated.
 312:Generated_Source\PSoC5/QuadDec_XY.c ****     return (QuadDec_XY_STATUS_REG & QuadDec_XY_INIT_INT_MASK);
 209              		.loc 1 312 0
 210 0000 024B     		ldr	r3, .L18
 211 0002 1878     		ldrb	r0, [r3]	@ zero_extendqisi2
 313:Generated_Source\PSoC5/QuadDec_XY.c **** }
 212              		.loc 1 313 0
 213 0004 00F00F00 		and	r0, r0, #15
 214 0008 7047     		bx	lr
 215              	.L19:
 216 000a 00BF     		.align	2
 217              	.L18:
 218 000c 6E640040 		.word	1073767534
 219              		.cfi_endproc
 220              	.LFE6:
 221              		.size	QuadDec_XY_GetEvents, .-QuadDec_XY_GetEvents
 222              		.section	.text.QuadDec_XY_SetInterruptMask,"ax",%progbits
 223              		.align	2
 224              		.global	QuadDec_XY_SetInterruptMask
 225              		.thumb
 226              		.thumb_func
 227              		.type	QuadDec_XY_SetInterruptMask, %function
 228              	QuadDec_XY_SetInterruptMask:
 229              	.LFB7:
 314:Generated_Source\PSoC5/QuadDec_XY.c **** 
 315:Generated_Source\PSoC5/QuadDec_XY.c **** 
 316:Generated_Source\PSoC5/QuadDec_XY.c **** /*******************************************************************************
 317:Generated_Source\PSoC5/QuadDec_XY.c **** * Function Name: QuadDec_XY_SetInterruptMask
 318:Generated_Source\PSoC5/QuadDec_XY.c **** ********************************************************************************
 319:Generated_Source\PSoC5/QuadDec_XY.c **** *
 320:Generated_Source\PSoC5/QuadDec_XY.c **** * Summary:
 321:Generated_Source\PSoC5/QuadDec_XY.c **** *  Enables / disables interrupts due to the events.
 322:Generated_Source\PSoC5/QuadDec_XY.c **** *  For the 32-bit counter, the overflow, underflow and reset interrupts cannot
 323:Generated_Source\PSoC5/QuadDec_XY.c **** *  be disabled, these bits are ignored.
 324:Generated_Source\PSoC5/QuadDec_XY.c **** *
 325:Generated_Source\PSoC5/QuadDec_XY.c **** * Parameters:
 326:Generated_Source\PSoC5/QuadDec_XY.c **** *  mask: Enable / disable bits in an 8-bit value, where 1 enables the interrupt.
 327:Generated_Source\PSoC5/QuadDec_XY.c **** *
 328:Generated_Source\PSoC5/QuadDec_XY.c **** * Return:
 329:Generated_Source\PSoC5/QuadDec_XY.c **** *  None.
 330:Generated_Source\PSoC5/QuadDec_XY.c **** *
 331:Generated_Source\PSoC5/QuadDec_XY.c **** *******************************************************************************/
 332:Generated_Source\PSoC5/QuadDec_XY.c **** void QuadDec_XY_SetInterruptMask(uint8 mask) 
 333:Generated_Source\PSoC5/QuadDec_XY.c **** {
 230              		.loc 1 333 0
 231              		.cfi_startproc
 232              		@ args = 0, pretend = 0, frame = 0
 233              		@ frame_needed = 0, uses_anonymous_args = 0
 234              		@ link register save eliminated.
 235              	.LVL14:
 334:Generated_Source\PSoC5/QuadDec_XY.c ****     #if (QuadDec_XY_COUNTER_SIZE == QuadDec_XY_COUNTER_SIZE_32_BIT)
 335:Generated_Source\PSoC5/QuadDec_XY.c ****         /* Underflow, Overflow and Reset interrupts for 32-bit Counter are always enable */
ARM GAS  C:\Users\Revanth\AppData\Local\Temp\ccXFTWEi.s 			page 11


 336:Generated_Source\PSoC5/QuadDec_XY.c ****         mask |= (QuadDec_XY_COUNTER_OVERFLOW | QuadDec_XY_COUNTER_UNDERFLOW |
 236              		.loc 1 336 0
 237 0000 40F00700 		orr	r0, r0, #7
 238              	.LVL15:
 337:Generated_Source\PSoC5/QuadDec_XY.c ****                  QuadDec_XY_COUNTER_RESET);
 338:Generated_Source\PSoC5/QuadDec_XY.c ****     #endif /* QuadDec_XY_COUNTER_SIZE == QuadDec_XY_COUNTER_SIZE_32_BIT */
 339:Generated_Source\PSoC5/QuadDec_XY.c **** 
 340:Generated_Source\PSoC5/QuadDec_XY.c ****     QuadDec_XY_STATUS_MASK = mask;
 239              		.loc 1 340 0
 240 0004 014B     		ldr	r3, .L21
 241 0006 1870     		strb	r0, [r3]
 242 0008 7047     		bx	lr
 243              	.L22:
 244 000a 00BF     		.align	2
 245              	.L21:
 246 000c 8E640040 		.word	1073767566
 247              		.cfi_endproc
 248              	.LFE7:
 249              		.size	QuadDec_XY_SetInterruptMask, .-QuadDec_XY_SetInterruptMask
 250              		.section	.text.QuadDec_XY_Enable,"ax",%progbits
 251              		.align	2
 252              		.global	QuadDec_XY_Enable
 253              		.thumb
 254              		.thumb_func
 255              		.type	QuadDec_XY_Enable, %function
 256              	QuadDec_XY_Enable:
 257              	.LFB1:
  71:Generated_Source\PSoC5/QuadDec_XY.c ****     uint8 enableInterrupts;
 258              		.loc 1 71 0
 259              		.cfi_startproc
 260              		@ args = 0, pretend = 0, frame = 0
 261              		@ frame_needed = 0, uses_anonymous_args = 0
 262 0000 08B5     		push	{r3, lr}
 263              		.cfi_def_cfa_offset 8
 264              		.cfi_offset 3, -8
 265              		.cfi_offset 14, -4
  74:Generated_Source\PSoC5/QuadDec_XY.c **** 
 266              		.loc 1 74 0
 267 0002 0F20     		movs	r0, #15
 268 0004 FFF7FEFF 		bl	QuadDec_XY_SetInterruptMask
 269              	.LVL16:
  77:Generated_Source\PSoC5/QuadDec_XY.c ****     
 270              		.loc 1 77 0
 271 0008 FFF7FEFF 		bl	QuadDec_XY_GetEvents
 272              	.LVL17:
  79:Generated_Source\PSoC5/QuadDec_XY.c **** 
 273              		.loc 1 79 0
 274 000c FFF7FEFF 		bl	CyEnterCriticalSection
 275              	.LVL18:
  82:Generated_Source\PSoC5/QuadDec_XY.c **** 
 276              		.loc 1 82 0
 277 0010 054A     		ldr	r2, .L25
 278 0012 1378     		ldrb	r3, [r2]	@ zero_extendqisi2
 279 0014 43F01003 		orr	r3, r3, #16
 280 0018 1370     		strb	r3, [r2]
  84:Generated_Source\PSoC5/QuadDec_XY.c **** 
 281              		.loc 1 84 0
ARM GAS  C:\Users\Revanth\AppData\Local\Temp\ccXFTWEi.s 			page 12


 282 001a FFF7FEFF 		bl	CyExitCriticalSection
 283              	.LVL19:
  88:Generated_Source\PSoC5/QuadDec_XY.c ****     #endif /* QuadDec_XY_COUNTER_SIZE == QuadDec_XY_COUNTER_SIZE_32_BIT */
 284              		.loc 1 88 0
 285 001e 0222     		movs	r2, #2
 286 0020 024B     		ldr	r3, .L25+4
 287 0022 1A60     		str	r2, [r3]
 288 0024 08BD     		pop	{r3, pc}
 289              	.L26:
 290 0026 00BF     		.align	2
 291              	.L25:
 292 0028 9E640040 		.word	1073767582
 293 002c 00E100E0 		.word	-536813312
 294              		.cfi_endproc
 295              	.LFE1:
 296              		.size	QuadDec_XY_Enable, .-QuadDec_XY_Enable
 297              		.section	.text.QuadDec_XY_Start,"ax",%progbits
 298              		.align	2
 299              		.global	QuadDec_XY_Start
 300              		.thumb
 301              		.thumb_func
 302              		.type	QuadDec_XY_Start, %function
 303              	QuadDec_XY_Start:
 304              	.LFB2:
 117:Generated_Source\PSoC5/QuadDec_XY.c ****     #if (QuadDec_XY_COUNTER_SIZE == QuadDec_XY_COUNTER_SIZE_8_BIT)
 305              		.loc 1 117 0
 306              		.cfi_startproc
 307              		@ args = 0, pretend = 0, frame = 0
 308              		@ frame_needed = 0, uses_anonymous_args = 0
 309 0000 08B5     		push	{r3, lr}
 310              		.cfi_def_cfa_offset 8
 311              		.cfi_offset 3, -8
 312              		.cfi_offset 14, -4
 125:Generated_Source\PSoC5/QuadDec_XY.c ****         QuadDec_XY_Cnt16_WriteCounter(QuadDec_XY_COUNTER_INIT_VALUE);
 313              		.loc 1 125 0
 314 0002 FFF7FEFF 		bl	QuadDec_XY_Cnt16_Start
 315              	.LVL20:
 126:Generated_Source\PSoC5/QuadDec_XY.c ****     #endif /* QuadDec_XY_COUNTER_SIZE == QuadDec_XY_COUNTER_SIZE_8_BIT */
 316              		.loc 1 126 0
 317 0006 4FF40040 		mov	r0, #32768
 318 000a FFF7FEFF 		bl	QuadDec_XY_Cnt16_WriteCounter
 319              	.LVL21:
 130:Generated_Source\PSoC5/QuadDec_XY.c ****     #endif /* QuadDec_XY_COUNTER_SIZE == QuadDec_XY_COUNTER_SIZE_32_BIT */
 320              		.loc 1 130 0
 321 000e 0022     		movs	r2, #0
 322 0010 064B     		ldr	r3, .L30
 323 0012 1A60     		str	r2, [r3]
 133:Generated_Source\PSoC5/QuadDec_XY.c ****     {
 324              		.loc 1 133 0
 325 0014 064B     		ldr	r3, .L30+4
 326 0016 1B78     		ldrb	r3, [r3]	@ zero_extendqisi2
 327 0018 23B9     		cbnz	r3, .L28
 135:Generated_Source\PSoC5/QuadDec_XY.c ****         QuadDec_XY_initVar = 1u;
 328              		.loc 1 135 0
 329 001a FFF7FEFF 		bl	QuadDec_XY_Init
 330              	.LVL22:
 136:Generated_Source\PSoC5/QuadDec_XY.c ****     }
ARM GAS  C:\Users\Revanth\AppData\Local\Temp\ccXFTWEi.s 			page 13


 331              		.loc 1 136 0
 332 001e 0122     		movs	r2, #1
 333 0020 034B     		ldr	r3, .L30+4
 334 0022 1A70     		strb	r2, [r3]
 335              	.L28:
 139:Generated_Source\PSoC5/QuadDec_XY.c **** }
 336              		.loc 1 139 0
 337 0024 FFF7FEFF 		bl	QuadDec_XY_Enable
 338              	.LVL23:
 339 0028 08BD     		pop	{r3, pc}
 340              	.L31:
 341 002a 00BF     		.align	2
 342              	.L30:
 343 002c 00000000 		.word	QuadDec_XY_count32SoftPart
 344 0030 00000000 		.word	.LANCHOR0
 345              		.cfi_endproc
 346              	.LFE2:
 347              		.size	QuadDec_XY_Start, .-QuadDec_XY_Start
 348              		.section	.text.QuadDec_XY_GetInterruptMask,"ax",%progbits
 349              		.align	2
 350              		.global	QuadDec_XY_GetInterruptMask
 351              		.thumb
 352              		.thumb_func
 353              		.type	QuadDec_XY_GetInterruptMask, %function
 354              	QuadDec_XY_GetInterruptMask:
 355              	.LFB8:
 341:Generated_Source\PSoC5/QuadDec_XY.c **** }
 342:Generated_Source\PSoC5/QuadDec_XY.c **** 
 343:Generated_Source\PSoC5/QuadDec_XY.c **** 
 344:Generated_Source\PSoC5/QuadDec_XY.c **** /*******************************************************************************
 345:Generated_Source\PSoC5/QuadDec_XY.c **** * Function Name: QuadDec_XY_GetInterruptMask
 346:Generated_Source\PSoC5/QuadDec_XY.c **** ********************************************************************************
 347:Generated_Source\PSoC5/QuadDec_XY.c **** *
 348:Generated_Source\PSoC5/QuadDec_XY.c **** * Summary:
 349:Generated_Source\PSoC5/QuadDec_XY.c **** *  Reports the current interrupt mask settings.
 350:Generated_Source\PSoC5/QuadDec_XY.c **** *
 351:Generated_Source\PSoC5/QuadDec_XY.c **** * Parameters:
 352:Generated_Source\PSoC5/QuadDec_XY.c **** *  None.
 353:Generated_Source\PSoC5/QuadDec_XY.c **** *
 354:Generated_Source\PSoC5/QuadDec_XY.c **** * Return:
 355:Generated_Source\PSoC5/QuadDec_XY.c **** *  Enable / disable bits in an 8-bit value, where 1 enables the interrupt.
 356:Generated_Source\PSoC5/QuadDec_XY.c **** *  For the 32-bit counter, the overflow, underflow and reset enable bits are
 357:Generated_Source\PSoC5/QuadDec_XY.c **** *  always set.
 358:Generated_Source\PSoC5/QuadDec_XY.c **** *
 359:Generated_Source\PSoC5/QuadDec_XY.c **** *******************************************************************************/
 360:Generated_Source\PSoC5/QuadDec_XY.c **** uint8 QuadDec_XY_GetInterruptMask(void) 
 361:Generated_Source\PSoC5/QuadDec_XY.c **** {
 356              		.loc 1 361 0
 357              		.cfi_startproc
 358              		@ args = 0, pretend = 0, frame = 0
 359              		@ frame_needed = 0, uses_anonymous_args = 0
 360              		@ link register save eliminated.
 362:Generated_Source\PSoC5/QuadDec_XY.c ****     return (QuadDec_XY_STATUS_MASK & QuadDec_XY_INIT_INT_MASK);
 361              		.loc 1 362 0
 362 0000 024B     		ldr	r3, .L33
 363 0002 1878     		ldrb	r0, [r3]	@ zero_extendqisi2
 363:Generated_Source\PSoC5/QuadDec_XY.c **** }
ARM GAS  C:\Users\Revanth\AppData\Local\Temp\ccXFTWEi.s 			page 14


 364              		.loc 1 363 0
 365 0004 00F00F00 		and	r0, r0, #15
 366 0008 7047     		bx	lr
 367              	.L34:
 368 000a 00BF     		.align	2
 369              	.L33:
 370 000c 8E640040 		.word	1073767566
 371              		.cfi_endproc
 372              	.LFE8:
 373              		.size	QuadDec_XY_GetInterruptMask, .-QuadDec_XY_GetInterruptMask
 374              		.global	QuadDec_XY_initVar
 375              		.bss
 376              		.set	.LANCHOR0,. + 0
 377              		.type	QuadDec_XY_initVar, %object
 378              		.size	QuadDec_XY_initVar, 1
 379              	QuadDec_XY_initVar:
 380 0000 00       		.space	1
 381              		.text
 382              	.Letext0:
 383              		.file 2 "Generated_Source\\PSoC5\\cytypes.h"
 384              		.file 3 "Generated_Source\\PSoC5\\QuadDec_XY_PVT.h"
 385              		.file 4 "Generated_Source\\PSoC5\\CyLib.h"
 386              		.file 5 "Generated_Source\\PSoC5\\QuadDec_XY_Cnt16.h"