ARM GAS  C:\Users\Admin\AppData\Local\Temp\ccBTgQmo.s 			page 1


   1              		.syntax unified
   2              		.cpu cortex-m3
   3              		.fpu softvfp
   4              		.eabi_attribute 20, 1
   5              		.eabi_attribute 21, 1
   6              		.eabi_attribute 23, 3
   7              		.eabi_attribute 24, 1
   8              		.eabi_attribute 25, 1
   9              		.eabi_attribute 26, 1
  10              		.eabi_attribute 30, 6
  11              		.eabi_attribute 34, 1
  12              		.eabi_attribute 18, 4
  13              		.thumb
  14              		.syntax unified
  15              		.file	"Counter_OptDecDnClkY.c"
  16              		.text
  17              	.Ltext0:
  18              		.cfi_sections	.debug_frame
  19              		.global	Counter_OptDecDnClkY_initVar
  20              		.bss
  21              		.type	Counter_OptDecDnClkY_initVar, %object
  22              		.size	Counter_OptDecDnClkY_initVar, 1
  23              	Counter_OptDecDnClkY_initVar:
  24 0000 00       		.space	1
  25              		.section	.text.Counter_OptDecDnClkY_Init,"ax",%progbits
  26              		.align	2
  27              		.global	Counter_OptDecDnClkY_Init
  28              		.thumb
  29              		.thumb_func
  30              		.type	Counter_OptDecDnClkY_Init, %function
  31              	Counter_OptDecDnClkY_Init:
  32              	.LFB0:
  33              		.file 1 "Generated_Source\\PSoC5\\Counter_OptDecDnClkY.c"
   1:Generated_Source\PSoC5/Counter_OptDecDnClkY.c **** /*******************************************************************************
   2:Generated_Source\PSoC5/Counter_OptDecDnClkY.c **** * File Name: Counter_OptDecDnClkY.c  
   3:Generated_Source\PSoC5/Counter_OptDecDnClkY.c **** * Version 3.0
   4:Generated_Source\PSoC5/Counter_OptDecDnClkY.c **** *
   5:Generated_Source\PSoC5/Counter_OptDecDnClkY.c **** *  Description:
   6:Generated_Source\PSoC5/Counter_OptDecDnClkY.c **** *     The Counter component consists of a 8, 16, 24 or 32-bit counter with
   7:Generated_Source\PSoC5/Counter_OptDecDnClkY.c **** *     a selectable period between 2 and 2^Width - 1.  
   8:Generated_Source\PSoC5/Counter_OptDecDnClkY.c **** *
   9:Generated_Source\PSoC5/Counter_OptDecDnClkY.c **** *   Note:
  10:Generated_Source\PSoC5/Counter_OptDecDnClkY.c **** *     None
  11:Generated_Source\PSoC5/Counter_OptDecDnClkY.c **** *
  12:Generated_Source\PSoC5/Counter_OptDecDnClkY.c **** ********************************************************************************
  13:Generated_Source\PSoC5/Counter_OptDecDnClkY.c **** * Copyright 2008-2012, Cypress Semiconductor Corporation.  All rights reserved.
  14:Generated_Source\PSoC5/Counter_OptDecDnClkY.c **** * You may use this file only in accordance with the license, terms, conditions, 
  15:Generated_Source\PSoC5/Counter_OptDecDnClkY.c **** * disclaimers, and limitations in the end user license agreement accompanying 
  16:Generated_Source\PSoC5/Counter_OptDecDnClkY.c **** * the software package with which this file was provided.
  17:Generated_Source\PSoC5/Counter_OptDecDnClkY.c **** *******************************************************************************/
  18:Generated_Source\PSoC5/Counter_OptDecDnClkY.c **** 
  19:Generated_Source\PSoC5/Counter_OptDecDnClkY.c **** #include "Counter_OptDecDnClkY.h"
  20:Generated_Source\PSoC5/Counter_OptDecDnClkY.c **** 
  21:Generated_Source\PSoC5/Counter_OptDecDnClkY.c **** uint8 Counter_OptDecDnClkY_initVar = 0u;
  22:Generated_Source\PSoC5/Counter_OptDecDnClkY.c **** 
  23:Generated_Source\PSoC5/Counter_OptDecDnClkY.c **** 
  24:Generated_Source\PSoC5/Counter_OptDecDnClkY.c **** /*******************************************************************************
ARM GAS  C:\Users\Admin\AppData\Local\Temp\ccBTgQmo.s 			page 2


  25:Generated_Source\PSoC5/Counter_OptDecDnClkY.c **** * Function Name: Counter_OptDecDnClkY_Init
  26:Generated_Source\PSoC5/Counter_OptDecDnClkY.c **** ********************************************************************************
  27:Generated_Source\PSoC5/Counter_OptDecDnClkY.c **** * Summary:
  28:Generated_Source\PSoC5/Counter_OptDecDnClkY.c **** *     Initialize to the schematic state
  29:Generated_Source\PSoC5/Counter_OptDecDnClkY.c **** * 
  30:Generated_Source\PSoC5/Counter_OptDecDnClkY.c **** * Parameters:  
  31:Generated_Source\PSoC5/Counter_OptDecDnClkY.c **** *  void  
  32:Generated_Source\PSoC5/Counter_OptDecDnClkY.c **** *
  33:Generated_Source\PSoC5/Counter_OptDecDnClkY.c **** * Return: 
  34:Generated_Source\PSoC5/Counter_OptDecDnClkY.c **** *  void
  35:Generated_Source\PSoC5/Counter_OptDecDnClkY.c **** *
  36:Generated_Source\PSoC5/Counter_OptDecDnClkY.c **** *******************************************************************************/
  37:Generated_Source\PSoC5/Counter_OptDecDnClkY.c **** void Counter_OptDecDnClkY_Init(void) 
  38:Generated_Source\PSoC5/Counter_OptDecDnClkY.c **** {
  34              		.loc 1 38 0
  35              		.cfi_startproc
  36              		@ args = 0, pretend = 0, frame = 8
  37              		@ frame_needed = 1, uses_anonymous_args = 0
  38 0000 80B5     		push	{r7, lr}
  39              		.cfi_def_cfa_offset 8
  40              		.cfi_offset 7, -8
  41              		.cfi_offset 14, -4
  42 0002 82B0     		sub	sp, sp, #8
  43              		.cfi_def_cfa_offset 16
  44 0004 00AF     		add	r7, sp, #0
  45              		.cfi_def_cfa_register 7
  39:Generated_Source\PSoC5/Counter_OptDecDnClkY.c ****         #if (!Counter_OptDecDnClkY_UsingFixedFunction && !Counter_OptDecDnClkY_ControlRegRemoved)
  40:Generated_Source\PSoC5/Counter_OptDecDnClkY.c ****             uint8 ctrl;
  41:Generated_Source\PSoC5/Counter_OptDecDnClkY.c ****         #endif /* (!Counter_OptDecDnClkY_UsingFixedFunction && !Counter_OptDecDnClkY_ControlRegRemo
  42:Generated_Source\PSoC5/Counter_OptDecDnClkY.c ****         
  43:Generated_Source\PSoC5/Counter_OptDecDnClkY.c ****         #if(!Counter_OptDecDnClkY_UsingFixedFunction) 
  44:Generated_Source\PSoC5/Counter_OptDecDnClkY.c ****             /* Interrupt State Backup for Critical Region*/
  45:Generated_Source\PSoC5/Counter_OptDecDnClkY.c ****             uint8 Counter_OptDecDnClkY_interruptState;
  46:Generated_Source\PSoC5/Counter_OptDecDnClkY.c ****         #endif /* (!Counter_OptDecDnClkY_UsingFixedFunction) */
  47:Generated_Source\PSoC5/Counter_OptDecDnClkY.c ****         
  48:Generated_Source\PSoC5/Counter_OptDecDnClkY.c ****         #if (Counter_OptDecDnClkY_UsingFixedFunction)
  49:Generated_Source\PSoC5/Counter_OptDecDnClkY.c ****             /* Clear all bits but the enable bit (if it's already set for Timer operation */
  50:Generated_Source\PSoC5/Counter_OptDecDnClkY.c ****             Counter_OptDecDnClkY_CONTROL &= Counter_OptDecDnClkY_CTRL_ENABLE;
  51:Generated_Source\PSoC5/Counter_OptDecDnClkY.c ****             
  52:Generated_Source\PSoC5/Counter_OptDecDnClkY.c ****             /* Clear the mode bits for continuous run mode */
  53:Generated_Source\PSoC5/Counter_OptDecDnClkY.c ****             #if (CY_PSOC5A)
  54:Generated_Source\PSoC5/Counter_OptDecDnClkY.c ****                 Counter_OptDecDnClkY_CONTROL2 &= ((uint8)(~Counter_OptDecDnClkY_CTRL_MODE_MASK));
  55:Generated_Source\PSoC5/Counter_OptDecDnClkY.c ****             #endif /* (CY_PSOC5A) */
  56:Generated_Source\PSoC5/Counter_OptDecDnClkY.c ****             #if (CY_PSOC3 || CY_PSOC5LP)
  57:Generated_Source\PSoC5/Counter_OptDecDnClkY.c ****                 Counter_OptDecDnClkY_CONTROL3 &= ((uint8)(~Counter_OptDecDnClkY_CTRL_MODE_MASK));  
  58:Generated_Source\PSoC5/Counter_OptDecDnClkY.c ****             #endif /* (CY_PSOC3 || CY_PSOC5LP) */
  59:Generated_Source\PSoC5/Counter_OptDecDnClkY.c ****             /* Check if One Shot mode is enabled i.e. RunMode !=0*/
  60:Generated_Source\PSoC5/Counter_OptDecDnClkY.c ****             #if (Counter_OptDecDnClkY_RunModeUsed != 0x0u)
  61:Generated_Source\PSoC5/Counter_OptDecDnClkY.c ****                 /* Set 3rd bit of Control register to enable one shot mode */
  62:Generated_Source\PSoC5/Counter_OptDecDnClkY.c ****                 Counter_OptDecDnClkY_CONTROL |= Counter_OptDecDnClkY_ONESHOT;
  63:Generated_Source\PSoC5/Counter_OptDecDnClkY.c ****             #endif /* (Counter_OptDecDnClkY_RunModeUsed != 0x0u) */
  64:Generated_Source\PSoC5/Counter_OptDecDnClkY.c ****             
  65:Generated_Source\PSoC5/Counter_OptDecDnClkY.c ****             /* Set the IRQ to use the status register interrupts */
  66:Generated_Source\PSoC5/Counter_OptDecDnClkY.c ****             Counter_OptDecDnClkY_CONTROL2 |= Counter_OptDecDnClkY_CTRL2_IRQ_SEL;
  67:Generated_Source\PSoC5/Counter_OptDecDnClkY.c ****             
  68:Generated_Source\PSoC5/Counter_OptDecDnClkY.c ****             /* Clear and Set SYNCTC and SYNCCMP bits of RT1 register */
  69:Generated_Source\PSoC5/Counter_OptDecDnClkY.c ****             Counter_OptDecDnClkY_RT1 &= ((uint8)(~Counter_OptDecDnClkY_RT1_MASK));
ARM GAS  C:\Users\Admin\AppData\Local\Temp\ccBTgQmo.s 			page 3


  70:Generated_Source\PSoC5/Counter_OptDecDnClkY.c ****             Counter_OptDecDnClkY_RT1 |= Counter_OptDecDnClkY_SYNC;     
  71:Generated_Source\PSoC5/Counter_OptDecDnClkY.c ****                     
  72:Generated_Source\PSoC5/Counter_OptDecDnClkY.c ****             /*Enable DSI Sync all all inputs of the Timer*/
  73:Generated_Source\PSoC5/Counter_OptDecDnClkY.c ****             Counter_OptDecDnClkY_RT1 &= ((uint8)(~Counter_OptDecDnClkY_SYNCDSI_MASK));
  74:Generated_Source\PSoC5/Counter_OptDecDnClkY.c ****             Counter_OptDecDnClkY_RT1 |= Counter_OptDecDnClkY_SYNCDSI_EN;
  75:Generated_Source\PSoC5/Counter_OptDecDnClkY.c **** 
  76:Generated_Source\PSoC5/Counter_OptDecDnClkY.c ****         #else
  77:Generated_Source\PSoC5/Counter_OptDecDnClkY.c ****             #if(!Counter_OptDecDnClkY_ControlRegRemoved)
  78:Generated_Source\PSoC5/Counter_OptDecDnClkY.c ****             /* Set the default compare mode defined in the parameter */
  79:Generated_Source\PSoC5/Counter_OptDecDnClkY.c ****             ctrl = Counter_OptDecDnClkY_CONTROL & ((uint8)(~Counter_OptDecDnClkY_CTRL_CMPMODE_MASK)
  46              		.loc 1 79 0
  47 0006 1C4B     		ldr	r3, .L2
  48 0008 1B78     		ldrb	r3, [r3]
  49 000a DBB2     		uxtb	r3, r3
  50 000c 23F00703 		bic	r3, r3, #7
  51 0010 FB71     		strb	r3, [r7, #7]
  80:Generated_Source\PSoC5/Counter_OptDecDnClkY.c ****             Counter_OptDecDnClkY_CONTROL = ctrl | Counter_OptDecDnClkY_DEFAULT_COMPARE_MODE;
  52              		.loc 1 80 0
  53 0012 194A     		ldr	r2, .L2
  54 0014 FB79     		ldrb	r3, [r7, #7]
  55 0016 43F00103 		orr	r3, r3, #1
  56 001a DBB2     		uxtb	r3, r3
  57 001c 1370     		strb	r3, [r2]
  81:Generated_Source\PSoC5/Counter_OptDecDnClkY.c ****             
  82:Generated_Source\PSoC5/Counter_OptDecDnClkY.c ****             /* Set the default capture mode defined in the parameter */
  83:Generated_Source\PSoC5/Counter_OptDecDnClkY.c ****             ctrl = Counter_OptDecDnClkY_CONTROL & ((uint8)(~Counter_OptDecDnClkY_CTRL_CAPMODE_MASK)
  58              		.loc 1 83 0
  59 001e 164B     		ldr	r3, .L2
  60 0020 1B78     		ldrb	r3, [r3]
  61 0022 DBB2     		uxtb	r3, r3
  62 0024 23F00303 		bic	r3, r3, #3
  63 0028 FB71     		strb	r3, [r7, #7]
  84:Generated_Source\PSoC5/Counter_OptDecDnClkY.c ****             
  85:Generated_Source\PSoC5/Counter_OptDecDnClkY.c ****             #if( 0 != Counter_OptDecDnClkY_CAPTURE_MODE_CONF)
  86:Generated_Source\PSoC5/Counter_OptDecDnClkY.c ****                 Counter_OptDecDnClkY_CONTROL = ctrl | Counter_OptDecDnClkY_DEFAULT_CAPTURE_MODE;
  87:Generated_Source\PSoC5/Counter_OptDecDnClkY.c ****             #else
  88:Generated_Source\PSoC5/Counter_OptDecDnClkY.c ****                 Counter_OptDecDnClkY_CONTROL = ctrl;
  64              		.loc 1 88 0
  65 002a 134A     		ldr	r2, .L2
  66 002c FB79     		ldrb	r3, [r7, #7]
  67 002e 1370     		strb	r3, [r2]
  89:Generated_Source\PSoC5/Counter_OptDecDnClkY.c ****             #endif /* 0 != Counter_OptDecDnClkY_CAPTURE_MODE */ 
  90:Generated_Source\PSoC5/Counter_OptDecDnClkY.c ****             
  91:Generated_Source\PSoC5/Counter_OptDecDnClkY.c ****             #endif /* (!Counter_OptDecDnClkY_ControlRegRemoved) */
  92:Generated_Source\PSoC5/Counter_OptDecDnClkY.c ****         #endif /* (Counter_OptDecDnClkY_UsingFixedFunction) */
  93:Generated_Source\PSoC5/Counter_OptDecDnClkY.c ****         
  94:Generated_Source\PSoC5/Counter_OptDecDnClkY.c ****         /* Clear all data in the FIFO's */
  95:Generated_Source\PSoC5/Counter_OptDecDnClkY.c ****         #if (!Counter_OptDecDnClkY_UsingFixedFunction)
  96:Generated_Source\PSoC5/Counter_OptDecDnClkY.c ****             Counter_OptDecDnClkY_ClearFIFO();
  68              		.loc 1 96 0
  69 0030 FFF7FEFF 		bl	Counter_OptDecDnClkY_ClearFIFO
  97:Generated_Source\PSoC5/Counter_OptDecDnClkY.c ****         #endif /* (!Counter_OptDecDnClkY_UsingFixedFunction) */
  98:Generated_Source\PSoC5/Counter_OptDecDnClkY.c ****         
  99:Generated_Source\PSoC5/Counter_OptDecDnClkY.c ****         /* Set Initial values from Configuration */
 100:Generated_Source\PSoC5/Counter_OptDecDnClkY.c ****         Counter_OptDecDnClkY_WritePeriod(Counter_OptDecDnClkY_INIT_PERIOD_VALUE);
  70              		.loc 1 100 0
  71 0034 1148     		ldr	r0, .L2+4
ARM GAS  C:\Users\Admin\AppData\Local\Temp\ccBTgQmo.s 			page 4


  72 0036 FFF7FEFF 		bl	Counter_OptDecDnClkY_WritePeriod
 101:Generated_Source\PSoC5/Counter_OptDecDnClkY.c ****         #if (!(Counter_OptDecDnClkY_UsingFixedFunction && (CY_PSOC5A)))
 102:Generated_Source\PSoC5/Counter_OptDecDnClkY.c ****             Counter_OptDecDnClkY_WriteCounter(Counter_OptDecDnClkY_INIT_COUNTER_VALUE);
  73              		.loc 1 102 0
  74 003a 0020     		movs	r0, #0
  75 003c FFF7FEFF 		bl	Counter_OptDecDnClkY_WriteCounter
 103:Generated_Source\PSoC5/Counter_OptDecDnClkY.c ****         #endif /* (!(Counter_OptDecDnClkY_UsingFixedFunction && (CY_PSOC5A))) */
 104:Generated_Source\PSoC5/Counter_OptDecDnClkY.c ****         Counter_OptDecDnClkY_SetInterruptMode(Counter_OptDecDnClkY_INIT_INTERRUPTS_MASK);
  76              		.loc 1 104 0
  77 0040 0020     		movs	r0, #0
  78 0042 FFF7FEFF 		bl	Counter_OptDecDnClkY_SetInterruptMode
 105:Generated_Source\PSoC5/Counter_OptDecDnClkY.c ****         
 106:Generated_Source\PSoC5/Counter_OptDecDnClkY.c ****         #if (!Counter_OptDecDnClkY_UsingFixedFunction)
 107:Generated_Source\PSoC5/Counter_OptDecDnClkY.c ****             /* Read the status register to clear the unwanted interrupts */
 108:Generated_Source\PSoC5/Counter_OptDecDnClkY.c ****             (void)Counter_OptDecDnClkY_ReadStatusRegister();
  79              		.loc 1 108 0
  80 0046 FFF7FEFF 		bl	Counter_OptDecDnClkY_ReadStatusRegister
 109:Generated_Source\PSoC5/Counter_OptDecDnClkY.c ****             /* Set the compare value (only available to non-fixed function implementation */
 110:Generated_Source\PSoC5/Counter_OptDecDnClkY.c ****             Counter_OptDecDnClkY_WriteCompare(Counter_OptDecDnClkY_INIT_COMPARE_VALUE);
  81              		.loc 1 110 0
  82 004a 3220     		movs	r0, #50
  83 004c FFF7FEFF 		bl	Counter_OptDecDnClkY_WriteCompare
 111:Generated_Source\PSoC5/Counter_OptDecDnClkY.c ****             /* Use the interrupt output of the status register for IRQ output */
 112:Generated_Source\PSoC5/Counter_OptDecDnClkY.c ****             
 113:Generated_Source\PSoC5/Counter_OptDecDnClkY.c ****             /* CyEnterCriticalRegion and CyExitCriticalRegion are used to mark following region cri
 114:Generated_Source\PSoC5/Counter_OptDecDnClkY.c ****             /* Enter Critical Region*/
 115:Generated_Source\PSoC5/Counter_OptDecDnClkY.c ****             Counter_OptDecDnClkY_interruptState = CyEnterCriticalSection();
  84              		.loc 1 115 0
  85 0050 FFF7FEFF 		bl	CyEnterCriticalSection
  86 0054 0346     		mov	r3, r0
  87 0056 BB71     		strb	r3, [r7, #6]
 116:Generated_Source\PSoC5/Counter_OptDecDnClkY.c ****             
 117:Generated_Source\PSoC5/Counter_OptDecDnClkY.c ****             Counter_OptDecDnClkY_STATUS_AUX_CTRL |= Counter_OptDecDnClkY_STATUS_ACTL_INT_EN_MASK;
  88              		.loc 1 117 0
  89 0058 094A     		ldr	r2, .L2+8
  90 005a 094B     		ldr	r3, .L2+8
  91 005c 1B78     		ldrb	r3, [r3]
  92 005e DBB2     		uxtb	r3, r3
  93 0060 43F01003 		orr	r3, r3, #16
  94 0064 DBB2     		uxtb	r3, r3
  95 0066 1370     		strb	r3, [r2]
 118:Generated_Source\PSoC5/Counter_OptDecDnClkY.c ****             
 119:Generated_Source\PSoC5/Counter_OptDecDnClkY.c ****             /* Exit Critical Region*/
 120:Generated_Source\PSoC5/Counter_OptDecDnClkY.c ****             CyExitCriticalSection(Counter_OptDecDnClkY_interruptState);
  96              		.loc 1 120 0
  97 0068 BB79     		ldrb	r3, [r7, #6]	@ zero_extendqisi2
  98 006a 1846     		mov	r0, r3
  99 006c FFF7FEFF 		bl	CyExitCriticalSection
 121:Generated_Source\PSoC5/Counter_OptDecDnClkY.c ****             
 122:Generated_Source\PSoC5/Counter_OptDecDnClkY.c ****         #endif /* (!Counter_OptDecDnClkY_UsingFixedFunction) */
 123:Generated_Source\PSoC5/Counter_OptDecDnClkY.c **** }
 100              		.loc 1 123 0
 101 0070 00BF     		nop
 102 0072 0837     		adds	r7, r7, #8
 103              		.cfi_def_cfa_offset 8
 104 0074 BD46     		mov	sp, r7
 105              		.cfi_def_cfa_register 13
ARM GAS  C:\Users\Admin\AppData\Local\Temp\ccBTgQmo.s 			page 5


 106              		@ sp needed
 107 0076 80BD     		pop	{r7, pc}
 108              	.L3:
 109              		.align	2
 110              	.L2:
 111 0078 7B650040 		.word	1073767803
 112 007c FEFFFF00 		.word	16777214
 113 0080 9A640040 		.word	1073767578
 114              		.cfi_endproc
 115              	.LFE0:
 116              		.size	Counter_OptDecDnClkY_Init, .-Counter_OptDecDnClkY_Init
 117              		.section	.text.Counter_OptDecDnClkY_Enable,"ax",%progbits
 118              		.align	2
 119              		.global	Counter_OptDecDnClkY_Enable
 120              		.thumb
 121              		.thumb_func
 122              		.type	Counter_OptDecDnClkY_Enable, %function
 123              	Counter_OptDecDnClkY_Enable:
 124              	.LFB1:
 124:Generated_Source\PSoC5/Counter_OptDecDnClkY.c **** 
 125:Generated_Source\PSoC5/Counter_OptDecDnClkY.c **** 
 126:Generated_Source\PSoC5/Counter_OptDecDnClkY.c **** /*******************************************************************************
 127:Generated_Source\PSoC5/Counter_OptDecDnClkY.c **** * Function Name: Counter_OptDecDnClkY_Enable
 128:Generated_Source\PSoC5/Counter_OptDecDnClkY.c **** ********************************************************************************
 129:Generated_Source\PSoC5/Counter_OptDecDnClkY.c **** * Summary:
 130:Generated_Source\PSoC5/Counter_OptDecDnClkY.c **** *     Enable the Counter
 131:Generated_Source\PSoC5/Counter_OptDecDnClkY.c **** * 
 132:Generated_Source\PSoC5/Counter_OptDecDnClkY.c **** * Parameters:  
 133:Generated_Source\PSoC5/Counter_OptDecDnClkY.c **** *  void  
 134:Generated_Source\PSoC5/Counter_OptDecDnClkY.c **** *
 135:Generated_Source\PSoC5/Counter_OptDecDnClkY.c **** * Return: 
 136:Generated_Source\PSoC5/Counter_OptDecDnClkY.c **** *  void
 137:Generated_Source\PSoC5/Counter_OptDecDnClkY.c **** *
 138:Generated_Source\PSoC5/Counter_OptDecDnClkY.c **** * Side Effects: 
 139:Generated_Source\PSoC5/Counter_OptDecDnClkY.c **** *   If the Enable mode is set to Hardware only then this function has no effect 
 140:Generated_Source\PSoC5/Counter_OptDecDnClkY.c **** *   on the operation of the counter.
 141:Generated_Source\PSoC5/Counter_OptDecDnClkY.c **** *
 142:Generated_Source\PSoC5/Counter_OptDecDnClkY.c **** *******************************************************************************/
 143:Generated_Source\PSoC5/Counter_OptDecDnClkY.c **** void Counter_OptDecDnClkY_Enable(void) 
 144:Generated_Source\PSoC5/Counter_OptDecDnClkY.c **** {
 125              		.loc 1 144 0
 126              		.cfi_startproc
 127              		@ args = 0, pretend = 0, frame = 0
 128              		@ frame_needed = 1, uses_anonymous_args = 0
 129              		@ link register save eliminated.
 130 0000 80B4     		push	{r7}
 131              		.cfi_def_cfa_offset 4
 132              		.cfi_offset 7, -4
 133 0002 00AF     		add	r7, sp, #0
 134              		.cfi_def_cfa_register 7
 145:Generated_Source\PSoC5/Counter_OptDecDnClkY.c ****     /* Globally Enable the Fixed Function Block chosen */
 146:Generated_Source\PSoC5/Counter_OptDecDnClkY.c ****     #if (Counter_OptDecDnClkY_UsingFixedFunction)
 147:Generated_Source\PSoC5/Counter_OptDecDnClkY.c ****         Counter_OptDecDnClkY_GLOBAL_ENABLE |= Counter_OptDecDnClkY_BLOCK_EN_MASK;
 148:Generated_Source\PSoC5/Counter_OptDecDnClkY.c ****         Counter_OptDecDnClkY_GLOBAL_STBY_ENABLE |= Counter_OptDecDnClkY_BLOCK_STBY_EN_MASK;
 149:Generated_Source\PSoC5/Counter_OptDecDnClkY.c ****     #endif /* (Counter_OptDecDnClkY_UsingFixedFunction) */  
 150:Generated_Source\PSoC5/Counter_OptDecDnClkY.c ****         
 151:Generated_Source\PSoC5/Counter_OptDecDnClkY.c ****     /* Enable the counter from the control register  */
ARM GAS  C:\Users\Admin\AppData\Local\Temp\ccBTgQmo.s 			page 6


 152:Generated_Source\PSoC5/Counter_OptDecDnClkY.c ****     /* If Fixed Function then make sure Mode is set correctly */
 153:Generated_Source\PSoC5/Counter_OptDecDnClkY.c ****     /* else make sure reset is clear */
 154:Generated_Source\PSoC5/Counter_OptDecDnClkY.c ****     #if(!Counter_OptDecDnClkY_ControlRegRemoved || Counter_OptDecDnClkY_UsingFixedFunction)
 155:Generated_Source\PSoC5/Counter_OptDecDnClkY.c ****         Counter_OptDecDnClkY_CONTROL |= Counter_OptDecDnClkY_CTRL_ENABLE;                
 135              		.loc 1 155 0
 136 0004 054A     		ldr	r2, .L5
 137 0006 054B     		ldr	r3, .L5
 138 0008 1B78     		ldrb	r3, [r3]
 139 000a DBB2     		uxtb	r3, r3
 140 000c 63F07F03 		orn	r3, r3, #127
 141 0010 DBB2     		uxtb	r3, r3
 142 0012 1370     		strb	r3, [r2]
 156:Generated_Source\PSoC5/Counter_OptDecDnClkY.c ****     #endif /* (!Counter_OptDecDnClkY_ControlRegRemoved || Counter_OptDecDnClkY_UsingFixedFunction) 
 157:Generated_Source\PSoC5/Counter_OptDecDnClkY.c ****     
 158:Generated_Source\PSoC5/Counter_OptDecDnClkY.c **** }
 143              		.loc 1 158 0
 144 0014 00BF     		nop
 145 0016 BD46     		mov	sp, r7
 146              		.cfi_def_cfa_register 13
 147              		@ sp needed
 148 0018 80BC     		pop	{r7}
 149              		.cfi_restore 7
 150              		.cfi_def_cfa_offset 0
 151 001a 7047     		bx	lr
 152              	.L6:
 153              		.align	2
 154              	.L5:
 155 001c 7B650040 		.word	1073767803
 156              		.cfi_endproc
 157              	.LFE1:
 158              		.size	Counter_OptDecDnClkY_Enable, .-Counter_OptDecDnClkY_Enable
 159              		.section	.text.Counter_OptDecDnClkY_Start,"ax",%progbits
 160              		.align	2
 161              		.global	Counter_OptDecDnClkY_Start
 162              		.thumb
 163              		.thumb_func
 164              		.type	Counter_OptDecDnClkY_Start, %function
 165              	Counter_OptDecDnClkY_Start:
 166              	.LFB2:
 159:Generated_Source\PSoC5/Counter_OptDecDnClkY.c **** 
 160:Generated_Source\PSoC5/Counter_OptDecDnClkY.c **** 
 161:Generated_Source\PSoC5/Counter_OptDecDnClkY.c **** /*******************************************************************************
 162:Generated_Source\PSoC5/Counter_OptDecDnClkY.c **** * Function Name: Counter_OptDecDnClkY_Start
 163:Generated_Source\PSoC5/Counter_OptDecDnClkY.c **** ********************************************************************************
 164:Generated_Source\PSoC5/Counter_OptDecDnClkY.c **** * Summary:
 165:Generated_Source\PSoC5/Counter_OptDecDnClkY.c **** *  Enables the counter for operation 
 166:Generated_Source\PSoC5/Counter_OptDecDnClkY.c **** *
 167:Generated_Source\PSoC5/Counter_OptDecDnClkY.c **** * Parameters:  
 168:Generated_Source\PSoC5/Counter_OptDecDnClkY.c **** *  void  
 169:Generated_Source\PSoC5/Counter_OptDecDnClkY.c **** *
 170:Generated_Source\PSoC5/Counter_OptDecDnClkY.c **** * Return: 
 171:Generated_Source\PSoC5/Counter_OptDecDnClkY.c **** *  void
 172:Generated_Source\PSoC5/Counter_OptDecDnClkY.c **** *
 173:Generated_Source\PSoC5/Counter_OptDecDnClkY.c **** * Global variables:
 174:Generated_Source\PSoC5/Counter_OptDecDnClkY.c **** *  Counter_OptDecDnClkY_initVar: Is modified when this function is called for the  
 175:Generated_Source\PSoC5/Counter_OptDecDnClkY.c **** *   first time. Is used to ensure that initialization happens only once.
 176:Generated_Source\PSoC5/Counter_OptDecDnClkY.c **** *
ARM GAS  C:\Users\Admin\AppData\Local\Temp\ccBTgQmo.s 			page 7


 177:Generated_Source\PSoC5/Counter_OptDecDnClkY.c **** *******************************************************************************/
 178:Generated_Source\PSoC5/Counter_OptDecDnClkY.c **** void Counter_OptDecDnClkY_Start(void) 
 179:Generated_Source\PSoC5/Counter_OptDecDnClkY.c **** {
 167              		.loc 1 179 0
 168              		.cfi_startproc
 169              		@ args = 0, pretend = 0, frame = 0
 170              		@ frame_needed = 1, uses_anonymous_args = 0
 171 0000 80B5     		push	{r7, lr}
 172              		.cfi_def_cfa_offset 8
 173              		.cfi_offset 7, -8
 174              		.cfi_offset 14, -4
 175 0002 00AF     		add	r7, sp, #0
 176              		.cfi_def_cfa_register 7
 180:Generated_Source\PSoC5/Counter_OptDecDnClkY.c ****     if(Counter_OptDecDnClkY_initVar == 0u)
 177              		.loc 1 180 0
 178 0004 064B     		ldr	r3, .L9
 179 0006 1B78     		ldrb	r3, [r3]	@ zero_extendqisi2
 180 0008 002B     		cmp	r3, #0
 181 000a 04D1     		bne	.L8
 181:Generated_Source\PSoC5/Counter_OptDecDnClkY.c ****     {
 182:Generated_Source\PSoC5/Counter_OptDecDnClkY.c ****         Counter_OptDecDnClkY_Init();
 182              		.loc 1 182 0
 183 000c FFF7FEFF 		bl	Counter_OptDecDnClkY_Init
 183:Generated_Source\PSoC5/Counter_OptDecDnClkY.c ****         
 184:Generated_Source\PSoC5/Counter_OptDecDnClkY.c ****         Counter_OptDecDnClkY_initVar = 1u; /* Clear this bit for Initialization */        
 184              		.loc 1 184 0
 185 0010 034B     		ldr	r3, .L9
 186 0012 0122     		movs	r2, #1
 187 0014 1A70     		strb	r2, [r3]
 188              	.L8:
 185:Generated_Source\PSoC5/Counter_OptDecDnClkY.c ****     }
 186:Generated_Source\PSoC5/Counter_OptDecDnClkY.c ****     
 187:Generated_Source\PSoC5/Counter_OptDecDnClkY.c ****     /* Enable the Counter */
 188:Generated_Source\PSoC5/Counter_OptDecDnClkY.c ****     Counter_OptDecDnClkY_Enable();        
 189              		.loc 1 188 0
 190 0016 FFF7FEFF 		bl	Counter_OptDecDnClkY_Enable
 189:Generated_Source\PSoC5/Counter_OptDecDnClkY.c **** }
 191              		.loc 1 189 0
 192 001a 00BF     		nop
 193 001c 80BD     		pop	{r7, pc}
 194              	.L10:
 195 001e 00BF     		.align	2
 196              	.L9:
 197 0020 00000000 		.word	Counter_OptDecDnClkY_initVar
 198              		.cfi_endproc
 199              	.LFE2:
 200              		.size	Counter_OptDecDnClkY_Start, .-Counter_OptDecDnClkY_Start
 201              		.section	.text.Counter_OptDecDnClkY_Stop,"ax",%progbits
 202              		.align	2
 203              		.global	Counter_OptDecDnClkY_Stop
 204              		.thumb
 205              		.thumb_func
 206              		.type	Counter_OptDecDnClkY_Stop, %function
 207              	Counter_OptDecDnClkY_Stop:
 208              	.LFB3:
 190:Generated_Source\PSoC5/Counter_OptDecDnClkY.c **** 
 191:Generated_Source\PSoC5/Counter_OptDecDnClkY.c **** 
ARM GAS  C:\Users\Admin\AppData\Local\Temp\ccBTgQmo.s 			page 8


 192:Generated_Source\PSoC5/Counter_OptDecDnClkY.c **** /*******************************************************************************
 193:Generated_Source\PSoC5/Counter_OptDecDnClkY.c **** * Function Name: Counter_OptDecDnClkY_Stop
 194:Generated_Source\PSoC5/Counter_OptDecDnClkY.c **** ********************************************************************************
 195:Generated_Source\PSoC5/Counter_OptDecDnClkY.c **** * Summary:
 196:Generated_Source\PSoC5/Counter_OptDecDnClkY.c **** * Halts the counter, but does not change any modes or disable interrupts.
 197:Generated_Source\PSoC5/Counter_OptDecDnClkY.c **** *
 198:Generated_Source\PSoC5/Counter_OptDecDnClkY.c **** * Parameters:  
 199:Generated_Source\PSoC5/Counter_OptDecDnClkY.c **** *  void  
 200:Generated_Source\PSoC5/Counter_OptDecDnClkY.c **** *
 201:Generated_Source\PSoC5/Counter_OptDecDnClkY.c **** * Return: 
 202:Generated_Source\PSoC5/Counter_OptDecDnClkY.c **** *  void
 203:Generated_Source\PSoC5/Counter_OptDecDnClkY.c **** *
 204:Generated_Source\PSoC5/Counter_OptDecDnClkY.c **** * Side Effects: If the Enable mode is set to Hardware only then this function
 205:Generated_Source\PSoC5/Counter_OptDecDnClkY.c **** *               has no effect on the operation of the counter.
 206:Generated_Source\PSoC5/Counter_OptDecDnClkY.c **** *
 207:Generated_Source\PSoC5/Counter_OptDecDnClkY.c **** *******************************************************************************/
 208:Generated_Source\PSoC5/Counter_OptDecDnClkY.c **** void Counter_OptDecDnClkY_Stop(void) 
 209:Generated_Source\PSoC5/Counter_OptDecDnClkY.c **** {
 209              		.loc 1 209 0
 210              		.cfi_startproc
 211              		@ args = 0, pretend = 0, frame = 0
 212              		@ frame_needed = 1, uses_anonymous_args = 0
 213              		@ link register save eliminated.
 214 0000 80B4     		push	{r7}
 215              		.cfi_def_cfa_offset 4
 216              		.cfi_offset 7, -4
 217 0002 00AF     		add	r7, sp, #0
 218              		.cfi_def_cfa_register 7
 210:Generated_Source\PSoC5/Counter_OptDecDnClkY.c ****     /* Disable Counter */
 211:Generated_Source\PSoC5/Counter_OptDecDnClkY.c ****     #if(!Counter_OptDecDnClkY_ControlRegRemoved || Counter_OptDecDnClkY_UsingFixedFunction)
 212:Generated_Source\PSoC5/Counter_OptDecDnClkY.c ****         Counter_OptDecDnClkY_CONTROL &= ((uint8)(~Counter_OptDecDnClkY_CTRL_ENABLE));        
 219              		.loc 1 212 0
 220 0004 054A     		ldr	r2, .L12
 221 0006 054B     		ldr	r3, .L12
 222 0008 1B78     		ldrb	r3, [r3]
 223 000a DBB2     		uxtb	r3, r3
 224 000c 03F07F03 		and	r3, r3, #127
 225 0010 DBB2     		uxtb	r3, r3
 226 0012 1370     		strb	r3, [r2]
 213:Generated_Source\PSoC5/Counter_OptDecDnClkY.c ****     #endif /* (!Counter_OptDecDnClkY_ControlRegRemoved || Counter_OptDecDnClkY_UsingFixedFunction) 
 214:Generated_Source\PSoC5/Counter_OptDecDnClkY.c ****     
 215:Generated_Source\PSoC5/Counter_OptDecDnClkY.c ****     /* Globally disable the Fixed Function Block chosen */
 216:Generated_Source\PSoC5/Counter_OptDecDnClkY.c ****     #if (Counter_OptDecDnClkY_UsingFixedFunction)
 217:Generated_Source\PSoC5/Counter_OptDecDnClkY.c ****         Counter_OptDecDnClkY_GLOBAL_ENABLE &= ((uint8)(~Counter_OptDecDnClkY_BLOCK_EN_MASK));
 218:Generated_Source\PSoC5/Counter_OptDecDnClkY.c ****         Counter_OptDecDnClkY_GLOBAL_STBY_ENABLE &= ((uint8)(~Counter_OptDecDnClkY_BLOCK_STBY_EN_MAS
 219:Generated_Source\PSoC5/Counter_OptDecDnClkY.c ****     #endif /* (Counter_OptDecDnClkY_UsingFixedFunction) */
 220:Generated_Source\PSoC5/Counter_OptDecDnClkY.c **** }
 227              		.loc 1 220 0
 228 0014 00BF     		nop
 229 0016 BD46     		mov	sp, r7
 230              		.cfi_def_cfa_register 13
 231              		@ sp needed
 232 0018 80BC     		pop	{r7}
 233              		.cfi_restore 7
 234              		.cfi_def_cfa_offset 0
 235 001a 7047     		bx	lr
 236              	.L13:
ARM GAS  C:\Users\Admin\AppData\Local\Temp\ccBTgQmo.s 			page 9


 237              		.align	2
 238              	.L12:
 239 001c 7B650040 		.word	1073767803
 240              		.cfi_endproc
 241              	.LFE3:
 242              		.size	Counter_OptDecDnClkY_Stop, .-Counter_OptDecDnClkY_Stop
 243              		.section	.text.Counter_OptDecDnClkY_SetInterruptMode,"ax",%progbits
 244              		.align	2
 245              		.global	Counter_OptDecDnClkY_SetInterruptMode
 246              		.thumb
 247              		.thumb_func
 248              		.type	Counter_OptDecDnClkY_SetInterruptMode, %function
 249              	Counter_OptDecDnClkY_SetInterruptMode:
 250              	.LFB4:
 221:Generated_Source\PSoC5/Counter_OptDecDnClkY.c **** 
 222:Generated_Source\PSoC5/Counter_OptDecDnClkY.c **** 
 223:Generated_Source\PSoC5/Counter_OptDecDnClkY.c **** /*******************************************************************************
 224:Generated_Source\PSoC5/Counter_OptDecDnClkY.c **** * Function Name: Counter_OptDecDnClkY_SetInterruptMode
 225:Generated_Source\PSoC5/Counter_OptDecDnClkY.c **** ********************************************************************************
 226:Generated_Source\PSoC5/Counter_OptDecDnClkY.c **** * Summary:
 227:Generated_Source\PSoC5/Counter_OptDecDnClkY.c **** * Configures which interrupt sources are enabled to generate the final interrupt
 228:Generated_Source\PSoC5/Counter_OptDecDnClkY.c **** *
 229:Generated_Source\PSoC5/Counter_OptDecDnClkY.c **** * Parameters:  
 230:Generated_Source\PSoC5/Counter_OptDecDnClkY.c **** *  InterruptsMask: This parameter is an or'd collection of the status bits
 231:Generated_Source\PSoC5/Counter_OptDecDnClkY.c **** *                   which will be allowed to generate the counters interrupt.   
 232:Generated_Source\PSoC5/Counter_OptDecDnClkY.c **** *
 233:Generated_Source\PSoC5/Counter_OptDecDnClkY.c **** * Return: 
 234:Generated_Source\PSoC5/Counter_OptDecDnClkY.c **** *  void
 235:Generated_Source\PSoC5/Counter_OptDecDnClkY.c **** *
 236:Generated_Source\PSoC5/Counter_OptDecDnClkY.c **** *******************************************************************************/
 237:Generated_Source\PSoC5/Counter_OptDecDnClkY.c **** void Counter_OptDecDnClkY_SetInterruptMode(uint8 interruptsMask) 
 238:Generated_Source\PSoC5/Counter_OptDecDnClkY.c **** {
 251              		.loc 1 238 0
 252              		.cfi_startproc
 253              		@ args = 0, pretend = 0, frame = 8
 254              		@ frame_needed = 1, uses_anonymous_args = 0
 255              		@ link register save eliminated.
 256 0000 80B4     		push	{r7}
 257              		.cfi_def_cfa_offset 4
 258              		.cfi_offset 7, -4
 259 0002 83B0     		sub	sp, sp, #12
 260              		.cfi_def_cfa_offset 16
 261 0004 00AF     		add	r7, sp, #0
 262              		.cfi_def_cfa_register 7
 263 0006 0346     		mov	r3, r0
 264 0008 FB71     		strb	r3, [r7, #7]
 239:Generated_Source\PSoC5/Counter_OptDecDnClkY.c ****     Counter_OptDecDnClkY_STATUS_MASK = interruptsMask;
 265              		.loc 1 239 0
 266 000a 044A     		ldr	r2, .L15
 267 000c FB79     		ldrb	r3, [r7, #7]
 268 000e 1370     		strb	r3, [r2]
 240:Generated_Source\PSoC5/Counter_OptDecDnClkY.c **** }
 269              		.loc 1 240 0
 270 0010 00BF     		nop
 271 0012 0C37     		adds	r7, r7, #12
 272              		.cfi_def_cfa_offset 4
 273 0014 BD46     		mov	sp, r7
ARM GAS  C:\Users\Admin\AppData\Local\Temp\ccBTgQmo.s 			page 10


 274              		.cfi_def_cfa_register 13
 275              		@ sp needed
 276 0016 80BC     		pop	{r7}
 277              		.cfi_restore 7
 278              		.cfi_def_cfa_offset 0
 279 0018 7047     		bx	lr
 280              	.L16:
 281 001a 00BF     		.align	2
 282              	.L15:
 283 001c 8A640040 		.word	1073767562
 284              		.cfi_endproc
 285              	.LFE4:
 286              		.size	Counter_OptDecDnClkY_SetInterruptMode, .-Counter_OptDecDnClkY_SetInterruptMode
 287              		.section	.text.Counter_OptDecDnClkY_ReadStatusRegister,"ax",%progbits
 288              		.align	2
 289              		.global	Counter_OptDecDnClkY_ReadStatusRegister
 290              		.thumb
 291              		.thumb_func
 292              		.type	Counter_OptDecDnClkY_ReadStatusRegister, %function
 293              	Counter_OptDecDnClkY_ReadStatusRegister:
 294              	.LFB5:
 241:Generated_Source\PSoC5/Counter_OptDecDnClkY.c **** 
 242:Generated_Source\PSoC5/Counter_OptDecDnClkY.c **** 
 243:Generated_Source\PSoC5/Counter_OptDecDnClkY.c **** /*******************************************************************************
 244:Generated_Source\PSoC5/Counter_OptDecDnClkY.c **** * Function Name: Counter_OptDecDnClkY_ReadStatusRegister
 245:Generated_Source\PSoC5/Counter_OptDecDnClkY.c **** ********************************************************************************
 246:Generated_Source\PSoC5/Counter_OptDecDnClkY.c **** * Summary:
 247:Generated_Source\PSoC5/Counter_OptDecDnClkY.c **** *   Reads the status register and returns it's state. This function should use
 248:Generated_Source\PSoC5/Counter_OptDecDnClkY.c **** *       defined types for the bit-field information as the bits in this
 249:Generated_Source\PSoC5/Counter_OptDecDnClkY.c **** *       register may be permuteable.
 250:Generated_Source\PSoC5/Counter_OptDecDnClkY.c **** *
 251:Generated_Source\PSoC5/Counter_OptDecDnClkY.c **** * Parameters:  
 252:Generated_Source\PSoC5/Counter_OptDecDnClkY.c **** *  void
 253:Generated_Source\PSoC5/Counter_OptDecDnClkY.c **** *
 254:Generated_Source\PSoC5/Counter_OptDecDnClkY.c **** * Return: 
 255:Generated_Source\PSoC5/Counter_OptDecDnClkY.c **** *  (uint8) The contents of the status register
 256:Generated_Source\PSoC5/Counter_OptDecDnClkY.c **** *
 257:Generated_Source\PSoC5/Counter_OptDecDnClkY.c **** * Side Effects:
 258:Generated_Source\PSoC5/Counter_OptDecDnClkY.c **** *   Status register bits may be clear on read. 
 259:Generated_Source\PSoC5/Counter_OptDecDnClkY.c **** *
 260:Generated_Source\PSoC5/Counter_OptDecDnClkY.c **** *******************************************************************************/
 261:Generated_Source\PSoC5/Counter_OptDecDnClkY.c **** uint8   Counter_OptDecDnClkY_ReadStatusRegister(void) 
 262:Generated_Source\PSoC5/Counter_OptDecDnClkY.c **** {
 295              		.loc 1 262 0
 296              		.cfi_startproc
 297              		@ args = 0, pretend = 0, frame = 0
 298              		@ frame_needed = 1, uses_anonymous_args = 0
 299              		@ link register save eliminated.
 300 0000 80B4     		push	{r7}
 301              		.cfi_def_cfa_offset 4
 302              		.cfi_offset 7, -4
 303 0002 00AF     		add	r7, sp, #0
 304              		.cfi_def_cfa_register 7
 263:Generated_Source\PSoC5/Counter_OptDecDnClkY.c ****     return Counter_OptDecDnClkY_STATUS;
 305              		.loc 1 263 0
 306 0004 034B     		ldr	r3, .L19
 307 0006 1B78     		ldrb	r3, [r3]
ARM GAS  C:\Users\Admin\AppData\Local\Temp\ccBTgQmo.s 			page 11


 308 0008 DBB2     		uxtb	r3, r3
 264:Generated_Source\PSoC5/Counter_OptDecDnClkY.c **** }
 309              		.loc 1 264 0
 310 000a 1846     		mov	r0, r3
 311 000c BD46     		mov	sp, r7
 312              		.cfi_def_cfa_register 13
 313              		@ sp needed
 314 000e 80BC     		pop	{r7}
 315              		.cfi_restore 7
 316              		.cfi_def_cfa_offset 0
 317 0010 7047     		bx	lr
 318              	.L20:
 319 0012 00BF     		.align	2
 320              	.L19:
 321 0014 6A640040 		.word	1073767530
 322              		.cfi_endproc
 323              	.LFE5:
 324              		.size	Counter_OptDecDnClkY_ReadStatusRegister, .-Counter_OptDecDnClkY_ReadStatusRegister
 325              		.section	.text.Counter_OptDecDnClkY_ReadControlRegister,"ax",%progbits
 326              		.align	2
 327              		.global	Counter_OptDecDnClkY_ReadControlRegister
 328              		.thumb
 329              		.thumb_func
 330              		.type	Counter_OptDecDnClkY_ReadControlRegister, %function
 331              	Counter_OptDecDnClkY_ReadControlRegister:
 332              	.LFB6:
 265:Generated_Source\PSoC5/Counter_OptDecDnClkY.c **** 
 266:Generated_Source\PSoC5/Counter_OptDecDnClkY.c **** 
 267:Generated_Source\PSoC5/Counter_OptDecDnClkY.c **** #if(!Counter_OptDecDnClkY_ControlRegRemoved)
 268:Generated_Source\PSoC5/Counter_OptDecDnClkY.c **** /*******************************************************************************
 269:Generated_Source\PSoC5/Counter_OptDecDnClkY.c **** * Function Name: Counter_OptDecDnClkY_ReadControlRegister
 270:Generated_Source\PSoC5/Counter_OptDecDnClkY.c **** ********************************************************************************
 271:Generated_Source\PSoC5/Counter_OptDecDnClkY.c **** * Summary:
 272:Generated_Source\PSoC5/Counter_OptDecDnClkY.c **** *   Reads the control register and returns it's state. This function should use
 273:Generated_Source\PSoC5/Counter_OptDecDnClkY.c **** *       defined types for the bit-field information as the bits in this
 274:Generated_Source\PSoC5/Counter_OptDecDnClkY.c **** *       register may be permuteable.
 275:Generated_Source\PSoC5/Counter_OptDecDnClkY.c **** *
 276:Generated_Source\PSoC5/Counter_OptDecDnClkY.c **** * Parameters:  
 277:Generated_Source\PSoC5/Counter_OptDecDnClkY.c **** *  void
 278:Generated_Source\PSoC5/Counter_OptDecDnClkY.c **** *
 279:Generated_Source\PSoC5/Counter_OptDecDnClkY.c **** * Return: 
 280:Generated_Source\PSoC5/Counter_OptDecDnClkY.c **** *  (uint8) The contents of the control register
 281:Generated_Source\PSoC5/Counter_OptDecDnClkY.c **** *
 282:Generated_Source\PSoC5/Counter_OptDecDnClkY.c **** *******************************************************************************/
 283:Generated_Source\PSoC5/Counter_OptDecDnClkY.c **** uint8   Counter_OptDecDnClkY_ReadControlRegister(void) 
 284:Generated_Source\PSoC5/Counter_OptDecDnClkY.c **** {
 333              		.loc 1 284 0
 334              		.cfi_startproc
 335              		@ args = 0, pretend = 0, frame = 0
 336              		@ frame_needed = 1, uses_anonymous_args = 0
 337              		@ link register save eliminated.
 338 0000 80B4     		push	{r7}
 339              		.cfi_def_cfa_offset 4
 340              		.cfi_offset 7, -4
 341 0002 00AF     		add	r7, sp, #0
 342              		.cfi_def_cfa_register 7
 285:Generated_Source\PSoC5/Counter_OptDecDnClkY.c ****     return Counter_OptDecDnClkY_CONTROL;
ARM GAS  C:\Users\Admin\AppData\Local\Temp\ccBTgQmo.s 			page 12


 343              		.loc 1 285 0
 344 0004 034B     		ldr	r3, .L23
 345 0006 1B78     		ldrb	r3, [r3]
 346 0008 DBB2     		uxtb	r3, r3
 286:Generated_Source\PSoC5/Counter_OptDecDnClkY.c **** }
 347              		.loc 1 286 0
 348 000a 1846     		mov	r0, r3
 349 000c BD46     		mov	sp, r7
 350              		.cfi_def_cfa_register 13
 351              		@ sp needed
 352 000e 80BC     		pop	{r7}
 353              		.cfi_restore 7
 354              		.cfi_def_cfa_offset 0
 355 0010 7047     		bx	lr
 356              	.L24:
 357 0012 00BF     		.align	2
 358              	.L23:
 359 0014 7B650040 		.word	1073767803
 360              		.cfi_endproc
 361              	.LFE6:
 362              		.size	Counter_OptDecDnClkY_ReadControlRegister, .-Counter_OptDecDnClkY_ReadControlRegister
 363              		.section	.text.Counter_OptDecDnClkY_WriteControlRegister,"ax",%progbits
 364              		.align	2
 365              		.global	Counter_OptDecDnClkY_WriteControlRegister
 366              		.thumb
 367              		.thumb_func
 368              		.type	Counter_OptDecDnClkY_WriteControlRegister, %function
 369              	Counter_OptDecDnClkY_WriteControlRegister:
 370              	.LFB7:
 287:Generated_Source\PSoC5/Counter_OptDecDnClkY.c **** 
 288:Generated_Source\PSoC5/Counter_OptDecDnClkY.c **** 
 289:Generated_Source\PSoC5/Counter_OptDecDnClkY.c **** /*******************************************************************************
 290:Generated_Source\PSoC5/Counter_OptDecDnClkY.c **** * Function Name: Counter_OptDecDnClkY_WriteControlRegister
 291:Generated_Source\PSoC5/Counter_OptDecDnClkY.c **** ********************************************************************************
 292:Generated_Source\PSoC5/Counter_OptDecDnClkY.c **** * Summary:
 293:Generated_Source\PSoC5/Counter_OptDecDnClkY.c **** *   Sets the bit-field of the control register.  This function should use
 294:Generated_Source\PSoC5/Counter_OptDecDnClkY.c **** *       defined types for the bit-field information as the bits in this
 295:Generated_Source\PSoC5/Counter_OptDecDnClkY.c **** *       register may be permuteable.
 296:Generated_Source\PSoC5/Counter_OptDecDnClkY.c **** *
 297:Generated_Source\PSoC5/Counter_OptDecDnClkY.c **** * Parameters:  
 298:Generated_Source\PSoC5/Counter_OptDecDnClkY.c **** *  void
 299:Generated_Source\PSoC5/Counter_OptDecDnClkY.c **** *
 300:Generated_Source\PSoC5/Counter_OptDecDnClkY.c **** * Return: 
 301:Generated_Source\PSoC5/Counter_OptDecDnClkY.c **** *  (uint8) The contents of the control register
 302:Generated_Source\PSoC5/Counter_OptDecDnClkY.c **** *
 303:Generated_Source\PSoC5/Counter_OptDecDnClkY.c **** *******************************************************************************/
 304:Generated_Source\PSoC5/Counter_OptDecDnClkY.c **** void    Counter_OptDecDnClkY_WriteControlRegister(uint8 control) 
 305:Generated_Source\PSoC5/Counter_OptDecDnClkY.c **** {
 371              		.loc 1 305 0
 372              		.cfi_startproc
 373              		@ args = 0, pretend = 0, frame = 8
 374              		@ frame_needed = 1, uses_anonymous_args = 0
 375              		@ link register save eliminated.
 376 0000 80B4     		push	{r7}
 377              		.cfi_def_cfa_offset 4
 378              		.cfi_offset 7, -4
 379 0002 83B0     		sub	sp, sp, #12
ARM GAS  C:\Users\Admin\AppData\Local\Temp\ccBTgQmo.s 			page 13


 380              		.cfi_def_cfa_offset 16
 381 0004 00AF     		add	r7, sp, #0
 382              		.cfi_def_cfa_register 7
 383 0006 0346     		mov	r3, r0
 384 0008 FB71     		strb	r3, [r7, #7]
 306:Generated_Source\PSoC5/Counter_OptDecDnClkY.c ****     Counter_OptDecDnClkY_CONTROL = control;
 385              		.loc 1 306 0
 386 000a 044A     		ldr	r2, .L26
 387 000c FB79     		ldrb	r3, [r7, #7]
 388 000e 1370     		strb	r3, [r2]
 307:Generated_Source\PSoC5/Counter_OptDecDnClkY.c **** }
 389              		.loc 1 307 0
 390 0010 00BF     		nop
 391 0012 0C37     		adds	r7, r7, #12
 392              		.cfi_def_cfa_offset 4
 393 0014 BD46     		mov	sp, r7
 394              		.cfi_def_cfa_register 13
 395              		@ sp needed
 396 0016 80BC     		pop	{r7}
 397              		.cfi_restore 7
 398              		.cfi_def_cfa_offset 0
 399 0018 7047     		bx	lr
 400              	.L27:
 401 001a 00BF     		.align	2
 402              	.L26:
 403 001c 7B650040 		.word	1073767803
 404              		.cfi_endproc
 405              	.LFE7:
 406              		.size	Counter_OptDecDnClkY_WriteControlRegister, .-Counter_OptDecDnClkY_WriteControlRegister
 407              		.section	.text.Counter_OptDecDnClkY_WriteCounter,"ax",%progbits
 408              		.align	2
 409              		.global	Counter_OptDecDnClkY_WriteCounter
 410              		.thumb
 411              		.thumb_func
 412              		.type	Counter_OptDecDnClkY_WriteCounter, %function
 413              	Counter_OptDecDnClkY_WriteCounter:
 414              	.LFB8:
 308:Generated_Source\PSoC5/Counter_OptDecDnClkY.c **** 
 309:Generated_Source\PSoC5/Counter_OptDecDnClkY.c **** #endif  /* (!Counter_OptDecDnClkY_ControlRegRemoved) */
 310:Generated_Source\PSoC5/Counter_OptDecDnClkY.c **** 
 311:Generated_Source\PSoC5/Counter_OptDecDnClkY.c **** 
 312:Generated_Source\PSoC5/Counter_OptDecDnClkY.c **** #if (!(Counter_OptDecDnClkY_UsingFixedFunction && (CY_PSOC5A)))
 313:Generated_Source\PSoC5/Counter_OptDecDnClkY.c **** /*******************************************************************************
 314:Generated_Source\PSoC5/Counter_OptDecDnClkY.c **** * Function Name: Counter_OptDecDnClkY_WriteCounter
 315:Generated_Source\PSoC5/Counter_OptDecDnClkY.c **** ********************************************************************************
 316:Generated_Source\PSoC5/Counter_OptDecDnClkY.c **** * Summary:
 317:Generated_Source\PSoC5/Counter_OptDecDnClkY.c **** *   This funtion is used to set the counter to a specific value
 318:Generated_Source\PSoC5/Counter_OptDecDnClkY.c **** *
 319:Generated_Source\PSoC5/Counter_OptDecDnClkY.c **** * Parameters:  
 320:Generated_Source\PSoC5/Counter_OptDecDnClkY.c **** *  counter:  New counter value. 
 321:Generated_Source\PSoC5/Counter_OptDecDnClkY.c **** *
 322:Generated_Source\PSoC5/Counter_OptDecDnClkY.c **** * Return: 
 323:Generated_Source\PSoC5/Counter_OptDecDnClkY.c **** *  void 
 324:Generated_Source\PSoC5/Counter_OptDecDnClkY.c **** *
 325:Generated_Source\PSoC5/Counter_OptDecDnClkY.c **** *******************************************************************************/
 326:Generated_Source\PSoC5/Counter_OptDecDnClkY.c **** void Counter_OptDecDnClkY_WriteCounter(uint32 counter) \
 327:Generated_Source\PSoC5/Counter_OptDecDnClkY.c ****                                    
ARM GAS  C:\Users\Admin\AppData\Local\Temp\ccBTgQmo.s 			page 14


 328:Generated_Source\PSoC5/Counter_OptDecDnClkY.c **** {
 415              		.loc 1 328 0
 416              		.cfi_startproc
 417              		@ args = 0, pretend = 0, frame = 8
 418              		@ frame_needed = 1, uses_anonymous_args = 0
 419 0000 80B5     		push	{r7, lr}
 420              		.cfi_def_cfa_offset 8
 421              		.cfi_offset 7, -8
 422              		.cfi_offset 14, -4
 423 0002 82B0     		sub	sp, sp, #8
 424              		.cfi_def_cfa_offset 16
 425 0004 00AF     		add	r7, sp, #0
 426              		.cfi_def_cfa_register 7
 427 0006 7860     		str	r0, [r7, #4]
 329:Generated_Source\PSoC5/Counter_OptDecDnClkY.c ****     #if(Counter_OptDecDnClkY_UsingFixedFunction)
 330:Generated_Source\PSoC5/Counter_OptDecDnClkY.c ****         /* assert if block is already enabled */
 331:Generated_Source\PSoC5/Counter_OptDecDnClkY.c ****         CYASSERT (0u == (Counter_OptDecDnClkY_GLOBAL_ENABLE & Counter_OptDecDnClkY_BLOCK_EN_MASK));
 332:Generated_Source\PSoC5/Counter_OptDecDnClkY.c ****         /* If block is disabled, enable it and then write the counter */
 333:Generated_Source\PSoC5/Counter_OptDecDnClkY.c ****         Counter_OptDecDnClkY_GLOBAL_ENABLE |= Counter_OptDecDnClkY_BLOCK_EN_MASK;
 334:Generated_Source\PSoC5/Counter_OptDecDnClkY.c ****         CY_SET_REG16(Counter_OptDecDnClkY_COUNTER_LSB_PTR, (uint16)counter);
 335:Generated_Source\PSoC5/Counter_OptDecDnClkY.c ****         Counter_OptDecDnClkY_GLOBAL_ENABLE &= ((uint8)(~Counter_OptDecDnClkY_BLOCK_EN_MASK));
 336:Generated_Source\PSoC5/Counter_OptDecDnClkY.c ****     #else
 337:Generated_Source\PSoC5/Counter_OptDecDnClkY.c ****         CY_SET_REG24(Counter_OptDecDnClkY_COUNTER_LSB_PTR, counter);
 428              		.loc 1 337 0
 429 0008 7968     		ldr	r1, [r7, #4]
 430 000a 0348     		ldr	r0, .L29
 431 000c FFF7FEFF 		bl	CySetReg24
 338:Generated_Source\PSoC5/Counter_OptDecDnClkY.c ****     #endif /* (Counter_OptDecDnClkY_UsingFixedFunction) */
 339:Generated_Source\PSoC5/Counter_OptDecDnClkY.c **** }
 432              		.loc 1 339 0
 433 0010 00BF     		nop
 434 0012 0837     		adds	r7, r7, #8
 435              		.cfi_def_cfa_offset 8
 436 0014 BD46     		mov	sp, r7
 437              		.cfi_def_cfa_register 13
 438              		@ sp needed
 439 0016 80BD     		pop	{r7, pc}
 440              	.L30:
 441              		.align	2
 442              	.L29:
 443 0018 07640040 		.word	1073767431
 444              		.cfi_endproc
 445              	.LFE8:
 446              		.size	Counter_OptDecDnClkY_WriteCounter, .-Counter_OptDecDnClkY_WriteCounter
 447              		.section	.text.Counter_OptDecDnClkY_ReadCounter,"ax",%progbits
 448              		.align	2
 449              		.global	Counter_OptDecDnClkY_ReadCounter
 450              		.thumb
 451              		.thumb_func
 452              		.type	Counter_OptDecDnClkY_ReadCounter, %function
 453              	Counter_OptDecDnClkY_ReadCounter:
 454              	.LFB9:
 340:Generated_Source\PSoC5/Counter_OptDecDnClkY.c **** #endif /* (!(Counter_OptDecDnClkY_UsingFixedFunction && (CY_PSOC5A))) */
 341:Generated_Source\PSoC5/Counter_OptDecDnClkY.c **** 
 342:Generated_Source\PSoC5/Counter_OptDecDnClkY.c **** 
 343:Generated_Source\PSoC5/Counter_OptDecDnClkY.c **** /*******************************************************************************
 344:Generated_Source\PSoC5/Counter_OptDecDnClkY.c **** * Function Name: Counter_OptDecDnClkY_ReadCounter
ARM GAS  C:\Users\Admin\AppData\Local\Temp\ccBTgQmo.s 			page 15


 345:Generated_Source\PSoC5/Counter_OptDecDnClkY.c **** ********************************************************************************
 346:Generated_Source\PSoC5/Counter_OptDecDnClkY.c **** * Summary:
 347:Generated_Source\PSoC5/Counter_OptDecDnClkY.c **** * Returns the current value of the counter.  It doesn't matter
 348:Generated_Source\PSoC5/Counter_OptDecDnClkY.c **** * if the counter is enabled or running.
 349:Generated_Source\PSoC5/Counter_OptDecDnClkY.c **** *
 350:Generated_Source\PSoC5/Counter_OptDecDnClkY.c **** * Parameters:  
 351:Generated_Source\PSoC5/Counter_OptDecDnClkY.c **** *  void:  
 352:Generated_Source\PSoC5/Counter_OptDecDnClkY.c **** *
 353:Generated_Source\PSoC5/Counter_OptDecDnClkY.c **** * Return: 
 354:Generated_Source\PSoC5/Counter_OptDecDnClkY.c **** *  (uint32) The present value of the counter.
 355:Generated_Source\PSoC5/Counter_OptDecDnClkY.c **** *
 356:Generated_Source\PSoC5/Counter_OptDecDnClkY.c **** *******************************************************************************/
 357:Generated_Source\PSoC5/Counter_OptDecDnClkY.c **** uint32 Counter_OptDecDnClkY_ReadCounter(void) 
 358:Generated_Source\PSoC5/Counter_OptDecDnClkY.c **** {
 455              		.loc 1 358 0
 456              		.cfi_startproc
 457              		@ args = 0, pretend = 0, frame = 0
 458              		@ frame_needed = 1, uses_anonymous_args = 0
 459              		@ link register save eliminated.
 460 0000 80B4     		push	{r7}
 461              		.cfi_def_cfa_offset 4
 462              		.cfi_offset 7, -4
 463 0002 00AF     		add	r7, sp, #0
 464              		.cfi_def_cfa_register 7
 359:Generated_Source\PSoC5/Counter_OptDecDnClkY.c ****     /* Force capture by reading Accumulator */
 360:Generated_Source\PSoC5/Counter_OptDecDnClkY.c ****     /* Must first do a software capture to be able to read the counter */
 361:Generated_Source\PSoC5/Counter_OptDecDnClkY.c ****     /* It is up to the user code to make sure there isn't already captured data in the FIFO */
 362:Generated_Source\PSoC5/Counter_OptDecDnClkY.c ****     #if(Counter_OptDecDnClkY_UsingFixedFunction)
 363:Generated_Source\PSoC5/Counter_OptDecDnClkY.c **** 		(void)CY_GET_REG16(Counter_OptDecDnClkY_COUNTER_LSB_PTR);
 364:Generated_Source\PSoC5/Counter_OptDecDnClkY.c **** 	#else
 365:Generated_Source\PSoC5/Counter_OptDecDnClkY.c **** 		(void)CY_GET_REG8(Counter_OptDecDnClkY_COUNTER_LSB_PTR_8BIT);
 465              		.loc 1 365 0
 466 0004 044B     		ldr	r3, .L33
 467 0006 1B78     		ldrb	r3, [r3]
 366:Generated_Source\PSoC5/Counter_OptDecDnClkY.c **** 	#endif/* (Counter_OptDecDnClkY_UsingFixedFunction) */
 367:Generated_Source\PSoC5/Counter_OptDecDnClkY.c ****     
 368:Generated_Source\PSoC5/Counter_OptDecDnClkY.c ****     /* Read the data from the FIFO (or capture register for Fixed Function)*/
 369:Generated_Source\PSoC5/Counter_OptDecDnClkY.c ****     #if(Counter_OptDecDnClkY_UsingFixedFunction)
 370:Generated_Source\PSoC5/Counter_OptDecDnClkY.c ****         return ((uint32)CY_GET_REG16(Counter_OptDecDnClkY_STATICCOUNT_LSB_PTR));
 371:Generated_Source\PSoC5/Counter_OptDecDnClkY.c ****     #else
 372:Generated_Source\PSoC5/Counter_OptDecDnClkY.c ****         return (CY_GET_REG24(Counter_OptDecDnClkY_STATICCOUNT_LSB_PTR));
 468              		.loc 1 372 0
 469 0008 044B     		ldr	r3, .L33+4
 470 000a 1B68     		ldr	r3, [r3]
 471 000c 23F07F43 		bic	r3, r3, #-16777216
 373:Generated_Source\PSoC5/Counter_OptDecDnClkY.c ****     #endif /* (Counter_OptDecDnClkY_UsingFixedFunction) */
 374:Generated_Source\PSoC5/Counter_OptDecDnClkY.c **** }
 472              		.loc 1 374 0
 473 0010 1846     		mov	r0, r3
 474 0012 BD46     		mov	sp, r7
 475              		.cfi_def_cfa_register 13
 476              		@ sp needed
 477 0014 80BC     		pop	{r7}
 478              		.cfi_restore 7
 479              		.cfi_def_cfa_offset 0
 480 0016 7047     		bx	lr
 481              	.L34:
ARM GAS  C:\Users\Admin\AppData\Local\Temp\ccBTgQmo.s 			page 16


 482              		.align	2
 483              	.L33:
 484 0018 07640040 		.word	1073767431
 485 001c 47640040 		.word	1073767495
 486              		.cfi_endproc
 487              	.LFE9:
 488              		.size	Counter_OptDecDnClkY_ReadCounter, .-Counter_OptDecDnClkY_ReadCounter
 489              		.section	.text.Counter_OptDecDnClkY_ReadCapture,"ax",%progbits
 490              		.align	2
 491              		.global	Counter_OptDecDnClkY_ReadCapture
 492              		.thumb
 493              		.thumb_func
 494              		.type	Counter_OptDecDnClkY_ReadCapture, %function
 495              	Counter_OptDecDnClkY_ReadCapture:
 496              	.LFB10:
 375:Generated_Source\PSoC5/Counter_OptDecDnClkY.c **** 
 376:Generated_Source\PSoC5/Counter_OptDecDnClkY.c **** 
 377:Generated_Source\PSoC5/Counter_OptDecDnClkY.c **** /*******************************************************************************
 378:Generated_Source\PSoC5/Counter_OptDecDnClkY.c **** * Function Name: Counter_OptDecDnClkY_ReadCapture
 379:Generated_Source\PSoC5/Counter_OptDecDnClkY.c **** ********************************************************************************
 380:Generated_Source\PSoC5/Counter_OptDecDnClkY.c **** * Summary:
 381:Generated_Source\PSoC5/Counter_OptDecDnClkY.c **** *   This function returns the last value captured.
 382:Generated_Source\PSoC5/Counter_OptDecDnClkY.c **** *
 383:Generated_Source\PSoC5/Counter_OptDecDnClkY.c **** * Parameters:  
 384:Generated_Source\PSoC5/Counter_OptDecDnClkY.c **** *  void
 385:Generated_Source\PSoC5/Counter_OptDecDnClkY.c **** *
 386:Generated_Source\PSoC5/Counter_OptDecDnClkY.c **** * Return: 
 387:Generated_Source\PSoC5/Counter_OptDecDnClkY.c **** *  (uint32) Present Capture value.
 388:Generated_Source\PSoC5/Counter_OptDecDnClkY.c **** *
 389:Generated_Source\PSoC5/Counter_OptDecDnClkY.c **** *******************************************************************************/
 390:Generated_Source\PSoC5/Counter_OptDecDnClkY.c **** uint32 Counter_OptDecDnClkY_ReadCapture(void) 
 391:Generated_Source\PSoC5/Counter_OptDecDnClkY.c **** {
 497              		.loc 1 391 0
 498              		.cfi_startproc
 499              		@ args = 0, pretend = 0, frame = 0
 500              		@ frame_needed = 1, uses_anonymous_args = 0
 501              		@ link register save eliminated.
 502 0000 80B4     		push	{r7}
 503              		.cfi_def_cfa_offset 4
 504              		.cfi_offset 7, -4
 505 0002 00AF     		add	r7, sp, #0
 506              		.cfi_def_cfa_register 7
 392:Generated_Source\PSoC5/Counter_OptDecDnClkY.c ****     #if(Counter_OptDecDnClkY_UsingFixedFunction)
 393:Generated_Source\PSoC5/Counter_OptDecDnClkY.c ****         return ((uint32)CY_GET_REG16(Counter_OptDecDnClkY_STATICCOUNT_LSB_PTR));
 394:Generated_Source\PSoC5/Counter_OptDecDnClkY.c ****     #else
 395:Generated_Source\PSoC5/Counter_OptDecDnClkY.c ****         return (CY_GET_REG24(Counter_OptDecDnClkY_STATICCOUNT_LSB_PTR));
 507              		.loc 1 395 0
 508 0004 034B     		ldr	r3, .L37
 509 0006 1B68     		ldr	r3, [r3]
 510 0008 23F07F43 		bic	r3, r3, #-16777216
 396:Generated_Source\PSoC5/Counter_OptDecDnClkY.c ****     #endif /* (Counter_OptDecDnClkY_UsingFixedFunction) */
 397:Generated_Source\PSoC5/Counter_OptDecDnClkY.c **** }
 511              		.loc 1 397 0
 512 000c 1846     		mov	r0, r3
 513 000e BD46     		mov	sp, r7
 514              		.cfi_def_cfa_register 13
 515              		@ sp needed
ARM GAS  C:\Users\Admin\AppData\Local\Temp\ccBTgQmo.s 			page 17


 516 0010 80BC     		pop	{r7}
 517              		.cfi_restore 7
 518              		.cfi_def_cfa_offset 0
 519 0012 7047     		bx	lr
 520              	.L38:
 521              		.align	2
 522              	.L37:
 523 0014 47640040 		.word	1073767495
 524              		.cfi_endproc
 525              	.LFE10:
 526              		.size	Counter_OptDecDnClkY_ReadCapture, .-Counter_OptDecDnClkY_ReadCapture
 527              		.section	.text.Counter_OptDecDnClkY_WritePeriod,"ax",%progbits
 528              		.align	2
 529              		.global	Counter_OptDecDnClkY_WritePeriod
 530              		.thumb
 531              		.thumb_func
 532              		.type	Counter_OptDecDnClkY_WritePeriod, %function
 533              	Counter_OptDecDnClkY_WritePeriod:
 534              	.LFB11:
 398:Generated_Source\PSoC5/Counter_OptDecDnClkY.c **** 
 399:Generated_Source\PSoC5/Counter_OptDecDnClkY.c **** 
 400:Generated_Source\PSoC5/Counter_OptDecDnClkY.c **** /*******************************************************************************
 401:Generated_Source\PSoC5/Counter_OptDecDnClkY.c **** * Function Name: Counter_OptDecDnClkY_WritePeriod
 402:Generated_Source\PSoC5/Counter_OptDecDnClkY.c **** ********************************************************************************
 403:Generated_Source\PSoC5/Counter_OptDecDnClkY.c **** * Summary:
 404:Generated_Source\PSoC5/Counter_OptDecDnClkY.c **** * Changes the period of the counter.  The new period 
 405:Generated_Source\PSoC5/Counter_OptDecDnClkY.c **** * will be loaded the next time terminal count is detected.
 406:Generated_Source\PSoC5/Counter_OptDecDnClkY.c **** *
 407:Generated_Source\PSoC5/Counter_OptDecDnClkY.c **** * Parameters:  
 408:Generated_Source\PSoC5/Counter_OptDecDnClkY.c **** *  period: (uint32) A value of 0 will result in
 409:Generated_Source\PSoC5/Counter_OptDecDnClkY.c **** *         the counter remaining at zero.  
 410:Generated_Source\PSoC5/Counter_OptDecDnClkY.c **** *
 411:Generated_Source\PSoC5/Counter_OptDecDnClkY.c **** * Return: 
 412:Generated_Source\PSoC5/Counter_OptDecDnClkY.c **** *  void
 413:Generated_Source\PSoC5/Counter_OptDecDnClkY.c **** *
 414:Generated_Source\PSoC5/Counter_OptDecDnClkY.c **** *******************************************************************************/
 415:Generated_Source\PSoC5/Counter_OptDecDnClkY.c **** void Counter_OptDecDnClkY_WritePeriod(uint32 period) 
 416:Generated_Source\PSoC5/Counter_OptDecDnClkY.c **** {
 535              		.loc 1 416 0
 536              		.cfi_startproc
 537              		@ args = 0, pretend = 0, frame = 8
 538              		@ frame_needed = 1, uses_anonymous_args = 0
 539 0000 80B5     		push	{r7, lr}
 540              		.cfi_def_cfa_offset 8
 541              		.cfi_offset 7, -8
 542              		.cfi_offset 14, -4
 543 0002 82B0     		sub	sp, sp, #8
 544              		.cfi_def_cfa_offset 16
 545 0004 00AF     		add	r7, sp, #0
 546              		.cfi_def_cfa_register 7
 547 0006 7860     		str	r0, [r7, #4]
 417:Generated_Source\PSoC5/Counter_OptDecDnClkY.c ****     #if(Counter_OptDecDnClkY_UsingFixedFunction)
 418:Generated_Source\PSoC5/Counter_OptDecDnClkY.c ****         CY_SET_REG16(Counter_OptDecDnClkY_PERIOD_LSB_PTR,(uint16)period);
 419:Generated_Source\PSoC5/Counter_OptDecDnClkY.c ****     #else
 420:Generated_Source\PSoC5/Counter_OptDecDnClkY.c ****         CY_SET_REG24(Counter_OptDecDnClkY_PERIOD_LSB_PTR, period);
 548              		.loc 1 420 0
 549 0008 7968     		ldr	r1, [r7, #4]
ARM GAS  C:\Users\Admin\AppData\Local\Temp\ccBTgQmo.s 			page 18


 550 000a 0348     		ldr	r0, .L40
 551 000c FFF7FEFF 		bl	CySetReg24
 421:Generated_Source\PSoC5/Counter_OptDecDnClkY.c ****     #endif /* (Counter_OptDecDnClkY_UsingFixedFunction) */
 422:Generated_Source\PSoC5/Counter_OptDecDnClkY.c **** }
 552              		.loc 1 422 0
 553 0010 00BF     		nop
 554 0012 0837     		adds	r7, r7, #8
 555              		.cfi_def_cfa_offset 8
 556 0014 BD46     		mov	sp, r7
 557              		.cfi_def_cfa_register 13
 558              		@ sp needed
 559 0016 80BD     		pop	{r7, pc}
 560              	.L41:
 561              		.align	2
 562              	.L40:
 563 0018 27640040 		.word	1073767463
 564              		.cfi_endproc
 565              	.LFE11:
 566              		.size	Counter_OptDecDnClkY_WritePeriod, .-Counter_OptDecDnClkY_WritePeriod
 567              		.section	.text.Counter_OptDecDnClkY_ReadPeriod,"ax",%progbits
 568              		.align	2
 569              		.global	Counter_OptDecDnClkY_ReadPeriod
 570              		.thumb
 571              		.thumb_func
 572              		.type	Counter_OptDecDnClkY_ReadPeriod, %function
 573              	Counter_OptDecDnClkY_ReadPeriod:
 574              	.LFB12:
 423:Generated_Source\PSoC5/Counter_OptDecDnClkY.c **** 
 424:Generated_Source\PSoC5/Counter_OptDecDnClkY.c **** 
 425:Generated_Source\PSoC5/Counter_OptDecDnClkY.c **** /*******************************************************************************
 426:Generated_Source\PSoC5/Counter_OptDecDnClkY.c **** * Function Name: Counter_OptDecDnClkY_ReadPeriod
 427:Generated_Source\PSoC5/Counter_OptDecDnClkY.c **** ********************************************************************************
 428:Generated_Source\PSoC5/Counter_OptDecDnClkY.c **** * Summary:
 429:Generated_Source\PSoC5/Counter_OptDecDnClkY.c **** * Reads the current period value without affecting counter operation.
 430:Generated_Source\PSoC5/Counter_OptDecDnClkY.c **** *
 431:Generated_Source\PSoC5/Counter_OptDecDnClkY.c **** * Parameters:  
 432:Generated_Source\PSoC5/Counter_OptDecDnClkY.c **** *  void:  
 433:Generated_Source\PSoC5/Counter_OptDecDnClkY.c **** *
 434:Generated_Source\PSoC5/Counter_OptDecDnClkY.c **** * Return: 
 435:Generated_Source\PSoC5/Counter_OptDecDnClkY.c **** *  (uint32) Present period value.
 436:Generated_Source\PSoC5/Counter_OptDecDnClkY.c **** *
 437:Generated_Source\PSoC5/Counter_OptDecDnClkY.c **** *******************************************************************************/
 438:Generated_Source\PSoC5/Counter_OptDecDnClkY.c **** uint32 Counter_OptDecDnClkY_ReadPeriod(void) 
 439:Generated_Source\PSoC5/Counter_OptDecDnClkY.c **** {
 575              		.loc 1 439 0
 576              		.cfi_startproc
 577              		@ args = 0, pretend = 0, frame = 0
 578              		@ frame_needed = 1, uses_anonymous_args = 0
 579              		@ link register save eliminated.
 580 0000 80B4     		push	{r7}
 581              		.cfi_def_cfa_offset 4
 582              		.cfi_offset 7, -4
 583 0002 00AF     		add	r7, sp, #0
 584              		.cfi_def_cfa_register 7
 440:Generated_Source\PSoC5/Counter_OptDecDnClkY.c ****     #if(Counter_OptDecDnClkY_UsingFixedFunction)
 441:Generated_Source\PSoC5/Counter_OptDecDnClkY.c ****         return ((uint32)CY_GET_REG16(Counter_OptDecDnClkY_PERIOD_LSB_PTR));
 442:Generated_Source\PSoC5/Counter_OptDecDnClkY.c ****     #else
ARM GAS  C:\Users\Admin\AppData\Local\Temp\ccBTgQmo.s 			page 19


 443:Generated_Source\PSoC5/Counter_OptDecDnClkY.c ****         return (CY_GET_REG24(Counter_OptDecDnClkY_PERIOD_LSB_PTR));
 585              		.loc 1 443 0
 586 0004 034B     		ldr	r3, .L44
 587 0006 1B68     		ldr	r3, [r3]
 588 0008 23F07F43 		bic	r3, r3, #-16777216
 444:Generated_Source\PSoC5/Counter_OptDecDnClkY.c ****     #endif /* (Counter_OptDecDnClkY_UsingFixedFunction) */
 445:Generated_Source\PSoC5/Counter_OptDecDnClkY.c **** }
 589              		.loc 1 445 0
 590 000c 1846     		mov	r0, r3
 591 000e BD46     		mov	sp, r7
 592              		.cfi_def_cfa_register 13
 593              		@ sp needed
 594 0010 80BC     		pop	{r7}
 595              		.cfi_restore 7
 596              		.cfi_def_cfa_offset 0
 597 0012 7047     		bx	lr
 598              	.L45:
 599              		.align	2
 600              	.L44:
 601 0014 27640040 		.word	1073767463
 602              		.cfi_endproc
 603              	.LFE12:
 604              		.size	Counter_OptDecDnClkY_ReadPeriod, .-Counter_OptDecDnClkY_ReadPeriod
 605              		.section	.text.Counter_OptDecDnClkY_WriteCompare,"ax",%progbits
 606              		.align	2
 607              		.global	Counter_OptDecDnClkY_WriteCompare
 608              		.thumb
 609              		.thumb_func
 610              		.type	Counter_OptDecDnClkY_WriteCompare, %function
 611              	Counter_OptDecDnClkY_WriteCompare:
 612              	.LFB13:
 446:Generated_Source\PSoC5/Counter_OptDecDnClkY.c **** 
 447:Generated_Source\PSoC5/Counter_OptDecDnClkY.c **** 
 448:Generated_Source\PSoC5/Counter_OptDecDnClkY.c **** #if (!Counter_OptDecDnClkY_UsingFixedFunction)
 449:Generated_Source\PSoC5/Counter_OptDecDnClkY.c **** /*******************************************************************************
 450:Generated_Source\PSoC5/Counter_OptDecDnClkY.c **** * Function Name: Counter_OptDecDnClkY_WriteCompare
 451:Generated_Source\PSoC5/Counter_OptDecDnClkY.c **** ********************************************************************************
 452:Generated_Source\PSoC5/Counter_OptDecDnClkY.c **** * Summary:
 453:Generated_Source\PSoC5/Counter_OptDecDnClkY.c **** * Changes the compare value.  The compare output will 
 454:Generated_Source\PSoC5/Counter_OptDecDnClkY.c **** * reflect the new value on the next UDB clock.  The compare output will be 
 455:Generated_Source\PSoC5/Counter_OptDecDnClkY.c **** * driven high when the present counter value compares true based on the 
 456:Generated_Source\PSoC5/Counter_OptDecDnClkY.c **** * configured compare mode setting. 
 457:Generated_Source\PSoC5/Counter_OptDecDnClkY.c **** *
 458:Generated_Source\PSoC5/Counter_OptDecDnClkY.c **** * Parameters:  
 459:Generated_Source\PSoC5/Counter_OptDecDnClkY.c **** *  Compare:  New compare value. 
 460:Generated_Source\PSoC5/Counter_OptDecDnClkY.c **** *
 461:Generated_Source\PSoC5/Counter_OptDecDnClkY.c **** * Return: 
 462:Generated_Source\PSoC5/Counter_OptDecDnClkY.c **** *  void
 463:Generated_Source\PSoC5/Counter_OptDecDnClkY.c **** *
 464:Generated_Source\PSoC5/Counter_OptDecDnClkY.c **** *******************************************************************************/
 465:Generated_Source\PSoC5/Counter_OptDecDnClkY.c **** void Counter_OptDecDnClkY_WriteCompare(uint32 compare) \
 466:Generated_Source\PSoC5/Counter_OptDecDnClkY.c ****                                    
 467:Generated_Source\PSoC5/Counter_OptDecDnClkY.c **** {
 613              		.loc 1 467 0
 614              		.cfi_startproc
 615              		@ args = 0, pretend = 0, frame = 8
 616              		@ frame_needed = 1, uses_anonymous_args = 0
ARM GAS  C:\Users\Admin\AppData\Local\Temp\ccBTgQmo.s 			page 20


 617 0000 80B5     		push	{r7, lr}
 618              		.cfi_def_cfa_offset 8
 619              		.cfi_offset 7, -8
 620              		.cfi_offset 14, -4
 621 0002 82B0     		sub	sp, sp, #8
 622              		.cfi_def_cfa_offset 16
 623 0004 00AF     		add	r7, sp, #0
 624              		.cfi_def_cfa_register 7
 625 0006 7860     		str	r0, [r7, #4]
 468:Generated_Source\PSoC5/Counter_OptDecDnClkY.c ****     #if(Counter_OptDecDnClkY_UsingFixedFunction)
 469:Generated_Source\PSoC5/Counter_OptDecDnClkY.c ****         CY_SET_REG16(Counter_OptDecDnClkY_COMPARE_LSB_PTR, (uint16)compare);
 470:Generated_Source\PSoC5/Counter_OptDecDnClkY.c ****     #else
 471:Generated_Source\PSoC5/Counter_OptDecDnClkY.c ****         CY_SET_REG24(Counter_OptDecDnClkY_COMPARE_LSB_PTR, compare);
 626              		.loc 1 471 0
 627 0008 7968     		ldr	r1, [r7, #4]
 628 000a 0348     		ldr	r0, .L47
 629 000c FFF7FEFF 		bl	CySetReg24
 472:Generated_Source\PSoC5/Counter_OptDecDnClkY.c ****     #endif /* (Counter_OptDecDnClkY_UsingFixedFunction) */
 473:Generated_Source\PSoC5/Counter_OptDecDnClkY.c **** }
 630              		.loc 1 473 0
 631 0010 00BF     		nop
 632 0012 0837     		adds	r7, r7, #8
 633              		.cfi_def_cfa_offset 8
 634 0014 BD46     		mov	sp, r7
 635              		.cfi_def_cfa_register 13
 636              		@ sp needed
 637 0016 80BD     		pop	{r7, pc}
 638              	.L48:
 639              		.align	2
 640              	.L47:
 641 0018 37640040 		.word	1073767479
 642              		.cfi_endproc
 643              	.LFE13:
 644              		.size	Counter_OptDecDnClkY_WriteCompare, .-Counter_OptDecDnClkY_WriteCompare
 645              		.section	.text.Counter_OptDecDnClkY_ReadCompare,"ax",%progbits
 646              		.align	2
 647              		.global	Counter_OptDecDnClkY_ReadCompare
 648              		.thumb
 649              		.thumb_func
 650              		.type	Counter_OptDecDnClkY_ReadCompare, %function
 651              	Counter_OptDecDnClkY_ReadCompare:
 652              	.LFB14:
 474:Generated_Source\PSoC5/Counter_OptDecDnClkY.c **** 
 475:Generated_Source\PSoC5/Counter_OptDecDnClkY.c **** 
 476:Generated_Source\PSoC5/Counter_OptDecDnClkY.c **** /*******************************************************************************
 477:Generated_Source\PSoC5/Counter_OptDecDnClkY.c **** * Function Name: Counter_OptDecDnClkY_ReadCompare
 478:Generated_Source\PSoC5/Counter_OptDecDnClkY.c **** ********************************************************************************
 479:Generated_Source\PSoC5/Counter_OptDecDnClkY.c **** * Summary:
 480:Generated_Source\PSoC5/Counter_OptDecDnClkY.c **** * Returns the compare value.
 481:Generated_Source\PSoC5/Counter_OptDecDnClkY.c **** *
 482:Generated_Source\PSoC5/Counter_OptDecDnClkY.c **** * Parameters:  
 483:Generated_Source\PSoC5/Counter_OptDecDnClkY.c **** *  void:
 484:Generated_Source\PSoC5/Counter_OptDecDnClkY.c **** *
 485:Generated_Source\PSoC5/Counter_OptDecDnClkY.c **** * Return: 
 486:Generated_Source\PSoC5/Counter_OptDecDnClkY.c **** *  (uint32) Present compare value.
 487:Generated_Source\PSoC5/Counter_OptDecDnClkY.c **** *
 488:Generated_Source\PSoC5/Counter_OptDecDnClkY.c **** *******************************************************************************/
ARM GAS  C:\Users\Admin\AppData\Local\Temp\ccBTgQmo.s 			page 21


 489:Generated_Source\PSoC5/Counter_OptDecDnClkY.c **** uint32 Counter_OptDecDnClkY_ReadCompare(void) 
 490:Generated_Source\PSoC5/Counter_OptDecDnClkY.c **** {
 653              		.loc 1 490 0
 654              		.cfi_startproc
 655              		@ args = 0, pretend = 0, frame = 0
 656              		@ frame_needed = 1, uses_anonymous_args = 0
 657              		@ link register save eliminated.
 658 0000 80B4     		push	{r7}
 659              		.cfi_def_cfa_offset 4
 660              		.cfi_offset 7, -4
 661 0002 00AF     		add	r7, sp, #0
 662              		.cfi_def_cfa_register 7
 491:Generated_Source\PSoC5/Counter_OptDecDnClkY.c ****     return (CY_GET_REG24(Counter_OptDecDnClkY_COMPARE_LSB_PTR));
 663              		.loc 1 491 0
 664 0004 034B     		ldr	r3, .L51
 665 0006 1B68     		ldr	r3, [r3]
 666 0008 23F07F43 		bic	r3, r3, #-16777216
 492:Generated_Source\PSoC5/Counter_OptDecDnClkY.c **** }
 667              		.loc 1 492 0
 668 000c 1846     		mov	r0, r3
 669 000e BD46     		mov	sp, r7
 670              		.cfi_def_cfa_register 13
 671              		@ sp needed
 672 0010 80BC     		pop	{r7}
 673              		.cfi_restore 7
 674              		.cfi_def_cfa_offset 0
 675 0012 7047     		bx	lr
 676              	.L52:
 677              		.align	2
 678              	.L51:
 679 0014 37640040 		.word	1073767479
 680              		.cfi_endproc
 681              	.LFE14:
 682              		.size	Counter_OptDecDnClkY_ReadCompare, .-Counter_OptDecDnClkY_ReadCompare
 683              		.section	.text.Counter_OptDecDnClkY_ClearFIFO,"ax",%progbits
 684              		.align	2
 685              		.global	Counter_OptDecDnClkY_ClearFIFO
 686              		.thumb
 687              		.thumb_func
 688              		.type	Counter_OptDecDnClkY_ClearFIFO, %function
 689              	Counter_OptDecDnClkY_ClearFIFO:
 690              	.LFB15:
 493:Generated_Source\PSoC5/Counter_OptDecDnClkY.c **** 
 494:Generated_Source\PSoC5/Counter_OptDecDnClkY.c **** 
 495:Generated_Source\PSoC5/Counter_OptDecDnClkY.c **** #if (Counter_OptDecDnClkY_COMPARE_MODE_SOFTWARE)
 496:Generated_Source\PSoC5/Counter_OptDecDnClkY.c **** /*******************************************************************************
 497:Generated_Source\PSoC5/Counter_OptDecDnClkY.c **** * Function Name: Counter_OptDecDnClkY_SetCompareMode
 498:Generated_Source\PSoC5/Counter_OptDecDnClkY.c **** ********************************************************************************
 499:Generated_Source\PSoC5/Counter_OptDecDnClkY.c **** * Summary:
 500:Generated_Source\PSoC5/Counter_OptDecDnClkY.c **** *  Sets the software controlled Compare Mode.
 501:Generated_Source\PSoC5/Counter_OptDecDnClkY.c **** *
 502:Generated_Source\PSoC5/Counter_OptDecDnClkY.c **** * Parameters:
 503:Generated_Source\PSoC5/Counter_OptDecDnClkY.c **** *  compareMode:  Compare Mode Enumerated Type.
 504:Generated_Source\PSoC5/Counter_OptDecDnClkY.c **** *
 505:Generated_Source\PSoC5/Counter_OptDecDnClkY.c **** * Return:
 506:Generated_Source\PSoC5/Counter_OptDecDnClkY.c **** *  void
 507:Generated_Source\PSoC5/Counter_OptDecDnClkY.c **** *
ARM GAS  C:\Users\Admin\AppData\Local\Temp\ccBTgQmo.s 			page 22


 508:Generated_Source\PSoC5/Counter_OptDecDnClkY.c **** *******************************************************************************/
 509:Generated_Source\PSoC5/Counter_OptDecDnClkY.c **** void Counter_OptDecDnClkY_SetCompareMode(uint8 compareMode) 
 510:Generated_Source\PSoC5/Counter_OptDecDnClkY.c **** {
 511:Generated_Source\PSoC5/Counter_OptDecDnClkY.c ****     /* Clear the compare mode bits in the control register */
 512:Generated_Source\PSoC5/Counter_OptDecDnClkY.c ****     Counter_OptDecDnClkY_CONTROL &= ((uint8)(~Counter_OptDecDnClkY_CTRL_CMPMODE_MASK));
 513:Generated_Source\PSoC5/Counter_OptDecDnClkY.c ****     
 514:Generated_Source\PSoC5/Counter_OptDecDnClkY.c ****     /* Write the new setting */
 515:Generated_Source\PSoC5/Counter_OptDecDnClkY.c ****     Counter_OptDecDnClkY_CONTROL |= compareMode;
 516:Generated_Source\PSoC5/Counter_OptDecDnClkY.c **** }
 517:Generated_Source\PSoC5/Counter_OptDecDnClkY.c **** #endif  /* (Counter_OptDecDnClkY_COMPARE_MODE_SOFTWARE) */
 518:Generated_Source\PSoC5/Counter_OptDecDnClkY.c **** 
 519:Generated_Source\PSoC5/Counter_OptDecDnClkY.c **** 
 520:Generated_Source\PSoC5/Counter_OptDecDnClkY.c **** #if (Counter_OptDecDnClkY_CAPTURE_MODE_SOFTWARE)
 521:Generated_Source\PSoC5/Counter_OptDecDnClkY.c **** /*******************************************************************************
 522:Generated_Source\PSoC5/Counter_OptDecDnClkY.c **** * Function Name: Counter_OptDecDnClkY_SetCaptureMode
 523:Generated_Source\PSoC5/Counter_OptDecDnClkY.c **** ********************************************************************************
 524:Generated_Source\PSoC5/Counter_OptDecDnClkY.c **** * Summary:
 525:Generated_Source\PSoC5/Counter_OptDecDnClkY.c **** *  Sets the software controlled Capture Mode.
 526:Generated_Source\PSoC5/Counter_OptDecDnClkY.c **** *
 527:Generated_Source\PSoC5/Counter_OptDecDnClkY.c **** * Parameters:
 528:Generated_Source\PSoC5/Counter_OptDecDnClkY.c **** *  captureMode:  Capture Mode Enumerated Type.
 529:Generated_Source\PSoC5/Counter_OptDecDnClkY.c **** *
 530:Generated_Source\PSoC5/Counter_OptDecDnClkY.c **** * Return:
 531:Generated_Source\PSoC5/Counter_OptDecDnClkY.c **** *  void
 532:Generated_Source\PSoC5/Counter_OptDecDnClkY.c **** *
 533:Generated_Source\PSoC5/Counter_OptDecDnClkY.c **** *******************************************************************************/
 534:Generated_Source\PSoC5/Counter_OptDecDnClkY.c **** void Counter_OptDecDnClkY_SetCaptureMode(uint8 captureMode) 
 535:Generated_Source\PSoC5/Counter_OptDecDnClkY.c **** {
 536:Generated_Source\PSoC5/Counter_OptDecDnClkY.c ****     /* Clear the capture mode bits in the control register */
 537:Generated_Source\PSoC5/Counter_OptDecDnClkY.c ****     Counter_OptDecDnClkY_CONTROL &= ((uint8)(~Counter_OptDecDnClkY_CTRL_CAPMODE_MASK));
 538:Generated_Source\PSoC5/Counter_OptDecDnClkY.c ****     
 539:Generated_Source\PSoC5/Counter_OptDecDnClkY.c ****     /* Write the new setting */
 540:Generated_Source\PSoC5/Counter_OptDecDnClkY.c ****     Counter_OptDecDnClkY_CONTROL |= ((uint8)((uint8)captureMode << Counter_OptDecDnClkY_CTRL_CAPMOD
 541:Generated_Source\PSoC5/Counter_OptDecDnClkY.c **** }
 542:Generated_Source\PSoC5/Counter_OptDecDnClkY.c **** #endif  /* (Counter_OptDecDnClkY_CAPTURE_MODE_SOFTWARE) */
 543:Generated_Source\PSoC5/Counter_OptDecDnClkY.c **** 
 544:Generated_Source\PSoC5/Counter_OptDecDnClkY.c **** 
 545:Generated_Source\PSoC5/Counter_OptDecDnClkY.c **** /*******************************************************************************
 546:Generated_Source\PSoC5/Counter_OptDecDnClkY.c **** * Function Name: Counter_OptDecDnClkY_ClearFIFO
 547:Generated_Source\PSoC5/Counter_OptDecDnClkY.c **** ********************************************************************************
 548:Generated_Source\PSoC5/Counter_OptDecDnClkY.c **** * Summary:
 549:Generated_Source\PSoC5/Counter_OptDecDnClkY.c **** *   This function clears all capture data from the capture FIFO
 550:Generated_Source\PSoC5/Counter_OptDecDnClkY.c **** *
 551:Generated_Source\PSoC5/Counter_OptDecDnClkY.c **** * Parameters:  
 552:Generated_Source\PSoC5/Counter_OptDecDnClkY.c **** *  void:
 553:Generated_Source\PSoC5/Counter_OptDecDnClkY.c **** *
 554:Generated_Source\PSoC5/Counter_OptDecDnClkY.c **** * Return: 
 555:Generated_Source\PSoC5/Counter_OptDecDnClkY.c **** *  None
 556:Generated_Source\PSoC5/Counter_OptDecDnClkY.c **** *
 557:Generated_Source\PSoC5/Counter_OptDecDnClkY.c **** *******************************************************************************/
 558:Generated_Source\PSoC5/Counter_OptDecDnClkY.c **** void Counter_OptDecDnClkY_ClearFIFO(void) 
 559:Generated_Source\PSoC5/Counter_OptDecDnClkY.c **** {
 691              		.loc 1 559 0
 692              		.cfi_startproc
 693              		@ args = 0, pretend = 0, frame = 0
 694              		@ frame_needed = 1, uses_anonymous_args = 0
 695 0000 80B5     		push	{r7, lr}
ARM GAS  C:\Users\Admin\AppData\Local\Temp\ccBTgQmo.s 			page 23


 696              		.cfi_def_cfa_offset 8
 697              		.cfi_offset 7, -8
 698              		.cfi_offset 14, -4
 699 0002 00AF     		add	r7, sp, #0
 700              		.cfi_def_cfa_register 7
 560:Generated_Source\PSoC5/Counter_OptDecDnClkY.c **** 
 561:Generated_Source\PSoC5/Counter_OptDecDnClkY.c ****     while(0u != (Counter_OptDecDnClkY_ReadStatusRegister() & Counter_OptDecDnClkY_STATUS_FIFONEMP))
 701              		.loc 1 561 0
 702 0004 01E0     		b	.L54
 703              	.L55:
 562:Generated_Source\PSoC5/Counter_OptDecDnClkY.c ****     {
 563:Generated_Source\PSoC5/Counter_OptDecDnClkY.c ****         (void)Counter_OptDecDnClkY_ReadCapture();
 704              		.loc 1 563 0
 705 0006 FFF7FEFF 		bl	Counter_OptDecDnClkY_ReadCapture
 706              	.L54:
 561:Generated_Source\PSoC5/Counter_OptDecDnClkY.c ****     {
 707              		.loc 1 561 0
 708 000a FFF7FEFF 		bl	Counter_OptDecDnClkY_ReadStatusRegister
 709 000e 0346     		mov	r3, r0
 710 0010 03F04003 		and	r3, r3, #64
 711 0014 002B     		cmp	r3, #0
 712 0016 F6D1     		bne	.L55
 564:Generated_Source\PSoC5/Counter_OptDecDnClkY.c ****     }
 565:Generated_Source\PSoC5/Counter_OptDecDnClkY.c **** 
 566:Generated_Source\PSoC5/Counter_OptDecDnClkY.c **** }
 713              		.loc 1 566 0
 714 0018 00BF     		nop
 715 001a 80BD     		pop	{r7, pc}
 716              		.cfi_endproc
 717              	.LFE15:
 718              		.size	Counter_OptDecDnClkY_ClearFIFO, .-Counter_OptDecDnClkY_ClearFIFO
 719              		.text
 720              	.Letext0:
 721              		.file 2 "Generated_Source\\PSoC5\\cytypes.h"