ARM GAS  C:\Users\Revanth\AppData\Local\Temp\ccbqjHa5.s 			page 1


   1              		.syntax unified
   2              		.cpu cortex-m3
   3              		.fpu softvfp
   4              		.eabi_attribute 20, 1
   5              		.eabi_attribute 21, 1
   6              		.eabi_attribute 23, 3
   7              		.eabi_attribute 24, 1
   8              		.eabi_attribute 25, 1
   9              		.eabi_attribute 26, 1
  10              		.eabi_attribute 30, 1
  11              		.eabi_attribute 34, 1
  12              		.eabi_attribute 18, 4
  13              		.thumb
  14              		.syntax unified
  15              		.file	"AS76.c"
  16              		.text
  17              	.Ltext0:
  18              		.cfi_sections	.debug_frame
  19              		.section	.text.wait_interrupt_Handler,"ax",%progbits
  20              		.align	2
  21              		.global	wait_interrupt_Handler
  22              		.thumb
  23              		.thumb_func
  24              		.type	wait_interrupt_Handler, %function
  25              	wait_interrupt_Handler:
  26              	.LFB64:
  27              		.file 1 "AS76.c"
   1:AS76.c        **** 
   2:AS76.c        **** /* ========================================
   3:AS76.c        **** 
   4:AS76.c        ****    Copyright Sigtuple, 2022
   5:AS76.c        ****    All Rights Reserved
   6:AS76.c        ****    UNPUBLISHED, LICENSED SOFTWARE.
   7:AS76.c        **** 
   8:AS76.c        ****    CONFIDENTIAL AND PROPRIETARY INFORMATION
   9:AS76.c        ****    WHICH IS THE PROPERTY OF SIGTUPLE.
  10:AS76.c        **** 
  11:AS76.c        ****    ========================================
  12:AS76.c        **** */
  13:AS76.c        **** #include "AS76.h"
  14:AS76.c        **** #include "variables.h"
  15:AS76.c        **** #include "project.h"
  16:AS76.c        **** #include "math.h"
  17:AS76.c        **** #include "configuration.h"
  18:AS76.c        **** #include <stdlib.h>
  19:AS76.c        **** 
  20:AS76.c        **** bool Time_Out_Error = true;
  21:AS76.c        **** unsigned int command;
  22:AS76.c        **** int Error = 0;
  23:AS76.c        **** 
  24:AS76.c        **** int32 Position_Y_Requested = 0; // Variable to hold position of Motor X in uSteps 51200 uSteps = 1 
  25:AS76.c        **** int32 Position_X_Requested = 0; // Variable to hold position of Motor X in uSteps 51200 uSteps = 1 
  26:AS76.c        **** int32 Position_Z_Requested = 0; // Variable to hold position of Motor X in uSteps 51200 uSteps = 1 
  27:AS76.c        **** int32 Position_T_Requested = 0; // Variable to hold position of Motor X in uSteps 51200 uSteps = 1 
  28:AS76.c        **** 
  29:AS76.c        **** int32 time_ms   = 0;
  30:AS76.c        **** int32 oil_speed = 0;
ARM GAS  C:\Users\Revanth\AppData\Local\Temp\ccbqjHa5.s 			page 2


  31:AS76.c        **** int32 oil_dir   = 0;
  32:AS76.c        **** 
  33:AS76.c        **** volatile int32 X_QuadPosition = 0; // Variable to hold position of Motor X in encoder steps, this v
  34:AS76.c        **** volatile int32 Y_QuadPosition = 0; // Variable to hold position of Motor Y in encoder steps, this v
  35:AS76.c        **** volatile int32 Z_QuadPosition = 0; // Variable to hold position of Motor Z in encoder steps, this v
  36:AS76.c        **** volatile int32 T_QuadPosition = 0; // Variable to hold position of Motor T in encoder steps, this v
  37:AS76.c        **** int EncoderTZSelect = 0; //Variable to indicate which encoder is being currently selected Z or T
  38:AS76.c        **** int Buffer_Z_QuadPosition = 0; //Buffer variable to store Z Encoder value when T Encoder channel is
  39:AS76.c        **** int Buffer_T_QuadPosition = 0; //Buffer variable to store T Encoder value when Z Encoder channel is
  40:AS76.c        **** 
  41:AS76.c        **** float X_Pitchfactor = 12.8; //Pitchfactor = 51200/(Encoder CPR * 4), where 51200 is the uStep requi
  42:AS76.c        **** float Y_Pitchfactor = 12.8; //Pitchfactor = 51200/(Encoder CPR * 4), where 51200 is the uStep requi
  43:AS76.c        **** float Z_Pitchfactor = 3.2;  //Pitchfactor = 51200/(Encoder CPR * 4), where 51200 is the uStep requi
  44:AS76.c        **** float T_Pitchfactor = 3.2;  //Pitchfactor = 51200/(Encoder CPR * 4), where 51200 is the uStep requi
  45:AS76.c        **** 
  46:AS76.c        **** unsigned int Motor_Speed_X = (51200*6); //Default_X_Motor_Speed - 6 Rotations per second;
  47:AS76.c        **** unsigned int Motor_Speed_Y = (51200*6); //Default_Y_Motor_Speed - 6 Rotations per second;
  48:AS76.c        **** unsigned int Motor_Speed_Z = (51200*6); //Default_Z_Motor_Speed - 3 Rotations per second;
  49:AS76.c        **** 
  50:AS76.c        **** bool HomeX_done = true; //Variable to indicate if Homing procedure done  or not in X Motor, intial 
  51:AS76.c        **** bool HomeY_done = true; //Variable to indicate if Homing procedure done  or not in Y Motor, intial 
  52:AS76.c        **** bool HomeZ_done = true; //Variable to indicate if Homing procedure done  or not in Z Motor, intial 
  53:AS76.c        **** bool HomeT_done = true; //Variable to indicate if Homing procedure done  or not in T Motor, intial 
  54:AS76.c        **** 
  55:AS76.c        **** bool HomeX_done_Buffer = false; //Variable to indicate if Homing procedure done  or not in X Motor,
  56:AS76.c        **** bool HomeY_done_Buffer = false; //Variable to indicate if Homing procedure done  or not in Y Motor,
  57:AS76.c        **** bool HomeZ_done_Buffer = false; //Variable to indicate if Homing procedure done  or not in Z Motor,
  58:AS76.c        **** bool HomeT_done_Buffer = false; //Variable to indicate if Homing procedure done  or not in T Motor,
  59:AS76.c        **** 
  60:AS76.c        **** // PWM Value for Condenser LED and Barcode LED
  61:AS76.c        **** int PWM_Condenser_comare_value = 200;
  62:AS76.c        **** int PWM_barcode_comare_value = 0;
  63:AS76.c        **** 
  64:AS76.c        **** // Variable to store the status byte of the corresponding motor driver
  65:AS76.c        **** extern uint8_t status_x;
  66:AS76.c        **** extern uint8_t status_y;
  67:AS76.c        **** extern uint8_t status_z;
  68:AS76.c        **** extern uint8_t status_t;
  69:AS76.c        **** 
  70:AS76.c        **** 
  71:AS76.c        **** uint16_t ms_count = 0;
  72:AS76.c        **** bool exit_loop =0;
  73:AS76.c        **** CY_ISR(wait_interrupt_Handler) {
  28              		.loc 1 73 0
  29              		.cfi_startproc
  30              		@ args = 0, pretend = 0, frame = 0
  31              		@ frame_needed = 0, uses_anonymous_args = 0
  32              		@ link register save eliminated.
  74:AS76.c        ****     ms_count++;
  33              		.loc 1 74 0
  34 0000 074A     		ldr	r2, .L3
  35 0002 1388     		ldrh	r3, [r2]
  36 0004 0133     		adds	r3, r3, #1
  37 0006 9BB2     		uxth	r3, r3
  38 0008 1380     		strh	r3, [r2]	@ movhi
  75:AS76.c        ****      
  76:AS76.c        ****     if(ms_count == 11000) 
ARM GAS  C:\Users\Revanth\AppData\Local\Temp\ccbqjHa5.s 			page 3


  39              		.loc 1 76 0
  40 000a 42F6F822 		movw	r2, #11000
  41 000e 9342     		cmp	r3, r2
  42 0010 04D1     		bne	.L1
  77:AS76.c        ****     { // ~30 second
  78:AS76.c        ****         
  79:AS76.c        ****         exit_loop = 1;
  43              		.loc 1 79 0
  44 0012 034B     		ldr	r3, .L3
  45 0014 0122     		movs	r2, #1
  46 0016 9A70     		strb	r2, [r3, #2]
  80:AS76.c        ****         ms_count = 0; // reset ms counter
  47              		.loc 1 80 0
  48 0018 0022     		movs	r2, #0
  49 001a 1A80     		strh	r2, [r3]	@ movhi
  50              	.L1:
  51 001c 7047     		bx	lr
  52              	.L4:
  53 001e 00BF     		.align	2
  54              	.L3:
  55 0020 00000000 		.word	.LANCHOR0
  56              		.cfi_endproc
  57              	.LFE64:
  58              		.size	wait_interrupt_Handler, .-wait_interrupt_Handler
  59              		.section	.text.Initialize_PWM,"ax",%progbits
  60              		.align	2
  61              		.global	Initialize_PWM
  62              		.thumb
  63              		.thumb_func
  64              		.type	Initialize_PWM, %function
  65              	Initialize_PWM:
  66              	.LFB80:
  81:AS76.c        ****     }
  82:AS76.c        **** }
  83:AS76.c        **** 
  84:AS76.c        **** //Motor Movment Functions Start-------------------------------------------------------
  85:AS76.c        **** 
  86:AS76.c        **** /* --------------------------------------------------------------------------------------------
  87:AS76.c        **** Function Name        : GotoPos
  88:AS76.c        **** 
  89:AS76.c        **** Prerequist Knowledge : TMC5160 Register Sets, Stepper Motor
  90:AS76.c        **** 
  91:AS76.c        **** Function Description : This Function is used to move the stepper motor to a desired position in the
  92:AS76.c        ****                        provided axis
  93:AS76.c        **** 
  94:AS76.c        **** Return Type & Data   : Void
  95:AS76.c        **** 
  96:AS76.c        **** Variable Updation:   : Nil
  97:AS76.c        **** 
  98:AS76.c        **** Numnber of Arguments : 2
  99:AS76.c        **** 
 100:AS76.c        **** -----Argument 1-----
 101:AS76.c        **** Name                 : Pos
 102:AS76.c        **** Tupe                 : int
 103:AS76.c        **** Description          : This Argument Represents the Target postion in 1/256 microsteps to which the
 104:AS76.c        ****                        stepper should move
 105:AS76.c        **** Condition            : Nil                       
ARM GAS  C:\Users\Revanth\AppData\Local\Temp\ccbqjHa5.s 			page 4


 106:AS76.c        **** --------------------
 107:AS76.c        **** 
 108:AS76.c        **** -----Argument 2-----
 109:AS76.c        **** Name                 : Motor
 110:AS76.c        **** Tupe                 : uint8_t
 111:AS76.c        **** Description          : This Argument Represents the driver channel
 112:AS76.c        **** Condition            : This Value must range from 0x00 to 0x04 since there are only 5 channels
 113:AS76.c        ****                        available in AS76 System Configuration, condition to be checked in 
 114:AS76.c        ****                        SPI_MOTOR_CHIP_SELECT Function                       
 115:AS76.c        **** --------------------
 116:AS76.c        **** 
 117:AS76.c        **** 
 118:AS76.c        **** 
 119:AS76.c        **** ---------------------------------------------------------------------------------------------*/
 120:AS76.c        **** void GotoPos(int Pos, uint8_t Motor)
 121:AS76.c        **** {
 122:AS76.c        ****     Write_32bitSPI_DATA (0x20  , (int) 0x00000000, Motor );
 123:AS76.c        ****     Write_32bitSPI_DATA (0x05  , Pos, Motor );
 124:AS76.c        ****     Write_32bitSPI_DATA (0x2D  , Pos, Motor );   
 125:AS76.c        **** 
 126:AS76.c        **** }
 127:AS76.c        **** 
 128:AS76.c        **** ///////////////////////////////////////////////////////////////////////////////////////
 129:AS76.c        **** 
 130:AS76.c        **** /////////////////////////////////////Homing X//////////////////////////////////////////
 131:AS76.c        **** 
 132:AS76.c        **** /* --------------------------------------------------------------------------------------------
 133:AS76.c        **** Function Name        : homeX
 134:AS76.c        **** 
 135:AS76.c        **** Prerequist Knowledge : Homing of stepper motor system, TM5160 Datasheet, Encoders
 136:AS76.c        **** 
 137:AS76.c        **** Function Description : This Function is used to home the motor X, where motor moves at specific
 138:AS76.c        ****                        Low speed towards left until it hits the limit switch on the left side then 
 139:AS76.c        ****                        motor rotates 1 rotation next the motor moves at specific Low speed towards 
 140:AS76.c        ****                        left until it hits the limit switch then motor gain moves 1 rotaion with ste
 141:AS76.c        ****                        loss correction and that point TMC5160 marks as position 0 and resets the X 
 142:AS76.c        ****                        Channel encoder.
 143:AS76.c        **** 
 144:AS76.c        **** Return Type & Data   :Void
 145:AS76.c        **** 
 146:AS76.c        **** Variable Updation: status_x, Error, X_QuadPosition
 147:AS76.c        **** 
 148:AS76.c        **** Numnber of Arguments : 1
 149:AS76.c        **** 
 150:AS76.c        **** -----Argument 1-----
 151:AS76.c        **** Name                 : Motor
 152:AS76.c        **** Tupe                 : uint8_t
 153:AS76.c        **** Description          : This Argument Represents the driver channel
 154:AS76.c        **** Condition            : This Value must range from 0x00 to 0x04 since there are only 5 channels
 155:AS76.c        ****                        available in AS76 System Configuration, condition to be checked in 
 156:AS76.c        ****                        SPI_MOTOR_CHIP_SELECT Function                       
 157:AS76.c        **** --------------------
 158:AS76.c        **** 
 159:AS76.c        **** 
 160:AS76.c        **** 
 161:AS76.c        **** ---------------------------------------------------------------------------------------------*/
 162:AS76.c        **** 
ARM GAS  C:\Users\Revanth\AppData\Local\Temp\ccbqjHa5.s 			page 5


 163:AS76.c        **** void homeX(uint8_t Motor)
 164:AS76.c        **** {
 165:AS76.c        ****     Write_32bitSPI_DATA (0x10  , (int) 0x00070503, TMC5160_nCS_MotorX );
 166:AS76.c        ****     update_max_velocity((307200), Motor); // Set Motor to low speed
 167:AS76.c        ****     Write_32bitSPI_DATA (0x20  , (int) 0x00000002, Motor ); // Move the motor to Left continuously
 168:AS76.c        ****     CyDelayUs(200);
 169:AS76.c        ****     Read_32bitSPI_DATA(0x04, Motor, &status_x); // Read the status register of TMC5160
 170:AS76.c        ****     CyDelayUs(500);
 171:AS76.c        ****     Read_32bitSPI_DATA(0x04, Motor, &status_x); // Read the status register of TMC5160
 172:AS76.c        ****     while ( (status_x & 0x40) == 0x00) // Condition to check if the Left limit switch is pressed or
 173:AS76.c        ****     {
 174:AS76.c        ****        wait_timer_Start();
 175:AS76.c        ****        wait_interrupt_StartEx(wait_interrupt_Handler);
 176:AS76.c        ****        Read_32bitSPI_DATA(0x04, Motor, &status_x); // Read the status register of TMC5160
 177:AS76.c        ****        CyDelayUs(100);
 178:AS76.c        ****        if(exit_loop == 1)
 179:AS76.c        ****        {
 180:AS76.c        ****         Error = 4;
 181:AS76.c        ****         Send_Feedback_to_USB(Error);
 182:AS76.c        ****         wait_timer_Stop();
 183:AS76.c        ****         Write_32bitSPI_DATA (0x20  , (int) 0x00000000, Motor );
 184:AS76.c        ****         Write_32bitSPI_DATA (0x21  , (int) 0x0000000, Motor); // Mark the current postion as 0
 185:AS76.c        ****         Write_32bitSPI_DATA (0x2D  , 0x00000000, Motor ); // Set thye target position as 0
 186:AS76.c        ****         exit_loop = 0;
 187:AS76.c        ****         Error =0;
 188:AS76.c        ****         return;        
 189:AS76.c        ****     }
 190:AS76.c        ****     }    
 191:AS76.c        ****     wait_timer_Stop();
 192:AS76.c        ****     exit_loop =0;
 193:AS76.c        ****     
 194:AS76.c        ****     
 195:AS76.c        ****     Write_32bitSPI_DATA (0x21  , (int) 0x0000000, Motor); //Write the X_Actual Register of TMC5160 
 196:AS76.c        ****     CyDelayUs(10);
 197:AS76.c        ****     /*
 198:AS76.c        ****     GotoPos(((256*200)*2), Motor); // Move the motor 2 rotations (102400 uSteps)
 199:AS76.c        ****     CyDelayUs(500);
 200:AS76.c        ****     // Read the status byte register to whther the required position is reached by the motor or not
 201:AS76.c        ****     Read_32bitSPI_DATA(0x04, Motor, &status_x); // Read the status register of TMC5160
 202:AS76.c        ****     CyDelayUs(500);
 203:AS76.c        ****     Read_32bitSPI_DATA(0x04, Motor, &status_x); // Read the status register of TMC5160
 204:AS76.c        ****     while ( (status_x & 0x20) == 0x00) // Check if target position is reached or not
 205:AS76.c        ****     {
 206:AS76.c        ****         Read_32bitSPI_DATA(0x04, Motor, &status_x); // Read the status register of TMC5160
 207:AS76.c        ****         CyDelayUs(100);
 208:AS76.c        ****        
 209:AS76.c        ****     }
 210:AS76.c        ****     
 211:AS76.c        ****     // Till the above point of code 1st homing is done repeat the same procedure at lower speed to 
 212:AS76.c        ****     Write_32bitSPI_DATA (0x0B  , (int) 127, Motor );
 213:AS76.c        ****     Write_32bitSPI_DATA (0x11  , (int) 0x00070103, Motor );
 214:AS76.c        ****     update_max_velocity((53687), Motor); // Update motor speed to 1 rotation/second
 215:AS76.c        ****     Write_32bitSPI_DATA (0x20  , (int) 0x00000002, Motor ); // // Move the motor to Left continuous
 216:AS76.c        ****     CyDelayUs(200);
 217:AS76.c        ****     Read_32bitSPI_DATA(0x04, Motor, &status_x);
 218:AS76.c        ****     CyDelayUs(500);
 219:AS76.c        ****     Read_32bitSPI_DATA(0x04, Motor, &status_x);
ARM GAS  C:\Users\Revanth\AppData\Local\Temp\ccbqjHa5.s 			page 6


 220:AS76.c        ****     while ( (status_x & 0x40) == 0x00)
 221:AS76.c        ****     {
 222:AS76.c        ****        Read_32bitSPI_DATA(0x04, Motor, &status_x);
 223:AS76.c        ****        CyDelayUs(100);
 224:AS76.c        ****     }
 225:AS76.c        **** */
 226:AS76.c        ****     Write_32bitSPI_DATA (0x21  , (int) 0x0000000, Motor);
 227:AS76.c        ****     //X_last_position = 0;
 228:AS76.c        ****     QuadDec_X_SetCounter(0);
 229:AS76.c        ****     HomeX_done = true;
 230:AS76.c        ****     HomeY_done = true;
 231:AS76.c        ****     HomeZ_done = true;
 232:AS76.c        ****     HomeT_done = true;
 233:AS76.c        ****     CyDelayUs(100);
 234:AS76.c        ****     goTo_X((256*200)*1); // Move the motor 1 rotation with error corrction mechanism based on encod
 235:AS76.c        ****     HomeX_done = HomeX_done_Buffer;
 236:AS76.c        ****     HomeY_done = HomeY_done_Buffer;
 237:AS76.c        ****     HomeZ_done = HomeZ_done_Buffer;
 238:AS76.c        ****     HomeT_done = HomeT_done_Buffer;
 239:AS76.c        ****     CyDelayUs(100);
 240:AS76.c        ****     Write_32bitSPI_DATA (0x21  , (int) 0x0000000, Motor); // Mark the current postion as 0
 241:AS76.c        ****     Write_32bitSPI_DATA (0x2D  , 0x00000000, Motor ); // Set thye target position as 0
 242:AS76.c        ****     update_max_velocity(381178, Motor); // update the motor speed to to 10 rotations per second 536
 243:AS76.c        ****     Write_32bitSPI_DATA (0x0B  , (int) 150, Motor );
 244:AS76.c        ****     Write_32bitSPI_DATA (0x10  , (int) 0x00070101, Motor );
 245:AS76.c        ****     //Write_32bitSPI_DATA (0x25  , (51200*5)-100, Motor );
 246:AS76.c        **** 
 247:AS76.c        **** 
 248:AS76.c        ****     QuadDec_X_SetCounter(0); //set the encoder counter value as 0
 249:AS76.c        ****     X_QuadPosition =0 ; // set the encoder variable to 0
 250:AS76.c        ****     HomeX_done = true;
 251:AS76.c        ****     HomeX_done_Buffer = true;
 252:AS76.c        ****     Write_Debug_UART_Char("HomeX executed  \r\n");
 253:AS76.c        ****     Write_32bitSPI_DATA (0x10  , (int) 0x00070103, TMC5160_nCS_MotorY );
 254:AS76.c        ****     Write_32bitSPI_DATA (0x10  , (int) 0x00070101, TMC5160_nCS_MotorZ );
 255:AS76.c        ****     Write_32bitSPI_DATA (0x10  , (int) 0x00070103, TMC5160_nCS_MotorX );
 256:AS76.c        ****     Write_32bitSPI_DATA (0x10  , (int) 0x00070103, TMC5160_nCS_MotorT ); 
 257:AS76.c        **** 
 258:AS76.c        **** }
 259:AS76.c        **** 
 260:AS76.c        **** ///////////////////////////////////////////////////////////////////////////////////////
 261:AS76.c        **** 
 262:AS76.c        **** /////////////////////////////////////Homing Y//////////////////////////////////////////
 263:AS76.c        **** 
 264:AS76.c        **** /* --------------------------------------------------------------------------------------------
 265:AS76.c        **** Function Name        : homeY
 266:AS76.c        **** 
 267:AS76.c        **** Prerequist Knowledge : Homing of stepper motor system, TM5160 Datasheet, Encoders
 268:AS76.c        **** 
 269:AS76.c        **** Function Description : This Function is used to home the motor Y, where motor moves at specific
 270:AS76.c        ****                        Low speed towards left until it hits the limit switch on the left side then 
 271:AS76.c        ****                        motor rotates 1 rotation next the motor moves at specific Low speed towards 
 272:AS76.c        ****                        left until it hits the limit switch then motor gain moves 1 rotaion with ste
 273:AS76.c        ****                        loss correction and that point TMC5160 marks as position 0 and resets the Y 
 274:AS76.c        ****                        Channel encoder.
 275:AS76.c        **** 
 276:AS76.c        **** Return Type & Data   :Void
ARM GAS  C:\Users\Revanth\AppData\Local\Temp\ccbqjHa5.s 			page 7


 277:AS76.c        **** 
 278:AS76.c        **** Variable Updation: status_y, Error, Y_QuadPosition
 279:AS76.c        **** 
 280:AS76.c        **** Numnber of Arguments : 1
 281:AS76.c        **** 
 282:AS76.c        **** -----Argument 1-----
 283:AS76.c        **** Name                 : Motor
 284:AS76.c        **** Tupe                 : uint8_t
 285:AS76.c        **** Description          : This Argument Represents the driver channel
 286:AS76.c        **** Condition            : This Value must range from 0x00 to 0x04 since there are only 5 channels
 287:AS76.c        ****                        available in AS76 System Configuration, condition to be checked in 
 288:AS76.c        ****                        SPI_MOTOR_CHIP_SELECT Function                       
 289:AS76.c        **** --------------------
 290:AS76.c        **** 
 291:AS76.c        **** 
 292:AS76.c        **** 
 293:AS76.c        **** ---------------------------------------------------------------------------------------------*/
 294:AS76.c        **** 
 295:AS76.c        **** void homeY(uint8_t Motor)
 296:AS76.c        **** {
 297:AS76.c        ****     Write_32bitSPI_DATA (0x10  , (int) 0x00070203, TMC5160_nCS_MotorY );
 298:AS76.c        ****     update_max_velocity((307200), Motor);
 299:AS76.c        ****     Write_32bitSPI_DATA (0x20  , (int) 0x00000002, Motor );
 300:AS76.c        ****     CyDelayUs(50);
 301:AS76.c        ****     Read_32bitSPI_DATA(0x04, Motor, &status_y);
 302:AS76.c        ****     CyDelayUs(500);
 303:AS76.c        ****     Read_32bitSPI_DATA(0x04, Motor, &status_y);
 304:AS76.c        ****     while ( (status_y & 0x40) == 0x00)
 305:AS76.c        ****     {
 306:AS76.c        ****         wait_timer_Start();
 307:AS76.c        ****         wait_interrupt_StartEx(wait_interrupt_Handler);
 308:AS76.c        ****         Read_32bitSPI_DATA(0x04, Motor, &status_y);
 309:AS76.c        ****        
 310:AS76.c        ****         if(exit_loop == 1)
 311:AS76.c        ****         {
 312:AS76.c        ****         Error = 11;
 313:AS76.c        ****         Send_Feedback_to_USB(Error);
 314:AS76.c        ****         wait_timer_Stop();
 315:AS76.c        ****         Write_32bitSPI_DATA (0x20  , (int) 0x00000000, Motor );
 316:AS76.c        ****         Write_32bitSPI_DATA (0x21  , (int) 0x0000000, Motor); // Mark the current postion as 0
 317:AS76.c        ****         Write_32bitSPI_DATA (0x2D  , 0x00000000, Motor ); // Set thye target position as 0
 318:AS76.c        ****         exit_loop = 0;
 319:AS76.c        ****         Error = 0;
 320:AS76.c        ****         return;
 321:AS76.c        ****         }
 322:AS76.c        ****     CyDelayUs(100);
 323:AS76.c        ****     }
 324:AS76.c        ****     wait_timer_Stop();
 325:AS76.c        ****     exit_loop =0;
 326:AS76.c        ****     
 327:AS76.c        ****     
 328:AS76.c        ****     Write_32bitSPI_DATA (0x21  , (int) 0x0000000, Motor);
 329:AS76.c        ****     CyDelayUs(10);
 330:AS76.c        ****     /*
 331:AS76.c        ****     GotoPos(((256*200)*1), Motor);
 332:AS76.c        ****     CyDelayUs(500);
 333:AS76.c        ****     Read_32bitSPI_DATA(0x04, Motor, &status_y);
ARM GAS  C:\Users\Revanth\AppData\Local\Temp\ccbqjHa5.s 			page 8


 334:AS76.c        ****     CyDelayUs(500);
 335:AS76.c        ****     Read_32bitSPI_DATA(0x04, Motor, &status_y);
 336:AS76.c        ****     while ( (status_y & 0x20) == 0x00)
 337:AS76.c        ****     {
 338:AS76.c        ****        Read_32bitSPI_DATA(0x04, Motor, &status_y);
 339:AS76.c        ****         CyDelayUs(100);
 340:AS76.c        ****        
 341:AS76.c        ****     }
 342:AS76.c        ****     Write_32bitSPI_DATA (0x0B  , (int) 180, Motor );
 343:AS76.c        ****     Write_32bitSPI_DATA (0x10  , (int) 0x00070103, Motor );
 344:AS76.c        ****     update_max_velocity(53687, Motor);
 345:AS76.c        ****     Write_32bitSPI_DATA (0x20  , (int) 0x00000002, Motor );
 346:AS76.c        ****     CyDelayUs(200);
 347:AS76.c        ****     Read_32bitSPI_DATA(0x04, Motor, &status_y);
 348:AS76.c        ****     CyDelayUs(500);
 349:AS76.c        ****     Read_32bitSPI_DATA(0x04, Motor, &status_y);
 350:AS76.c        ****     while ( (status_y & 0x40) == 0x00)
 351:AS76.c        ****     {
 352:AS76.c        ****        Read_32bitSPI_DATA(0x04, Motor, &status_y);
 353:AS76.c        ****        CyDelayUs(100);
 354:AS76.c        ****     }
 355:AS76.c        ****     */
 356:AS76.c        **** 
 357:AS76.c        ****     Write_32bitSPI_DATA (0x21  , (int) 0x0000000, Motor);
 358:AS76.c        ****     //Y_last_position = 0;
 359:AS76.c        ****     QuadDec_Y_SetCounter(0);
 360:AS76.c        ****     HomeX_done = true;
 361:AS76.c        ****     HomeY_done = true;
 362:AS76.c        ****     HomeZ_done = true;
 363:AS76.c        ****     HomeT_done = true;
 364:AS76.c        ****     CyDelayUs(100);
 365:AS76.c        ****     //goTo_Y((256*200)*1);
 366:AS76.c        ****     goTo_Y(19200);
 367:AS76.c        ****     HomeX_done = HomeX_done_Buffer;
 368:AS76.c        ****     HomeY_done = HomeY_done_Buffer;
 369:AS76.c        ****     HomeZ_done = HomeZ_done_Buffer;
 370:AS76.c        ****     HomeT_done = HomeT_done_Buffer;
 371:AS76.c        ****     CyDelayUs(100);
 372:AS76.c        ****     Write_32bitSPI_DATA (0x21  , (int) 0x0000000, Motor); 
 373:AS76.c        ****     Write_32bitSPI_DATA (0x2D  , 0x00000000, Motor );
 374:AS76.c        ****     update_max_velocity(381178, Motor);
 375:AS76.c        ****     Write_32bitSPI_DATA (0x0B  , 0, Motor );
 376:AS76.c        ****     Write_32bitSPI_DATA (0x10  , (int) 0x00070101, Motor );
 377:AS76.c        ****     //Write_32bitSPI_DATA (0x25  , (51200*5)-100, Motor );
 378:AS76.c        **** 
 379:AS76.c        ****     //Y_last_position = 0;
 380:AS76.c        ****     QuadDec_Y_SetCounter(0);
 381:AS76.c        ****     X_QuadPosition =0 ;
 382:AS76.c        ****     HomeY_done = true;
 383:AS76.c        ****     HomeY_done_Buffer = true;
 384:AS76.c        ****     Write_Debug_UART_Char("HomeY executed  \r\n");
 385:AS76.c        ****     Write_32bitSPI_DATA (0x10  , (int) 0x00070103, TMC5160_nCS_MotorY );
 386:AS76.c        ****     Write_32bitSPI_DATA (0x10  , (int) 0x00070101, TMC5160_nCS_MotorZ );
 387:AS76.c        ****     Write_32bitSPI_DATA (0x10  , (int) 0x00070103, TMC5160_nCS_MotorX );
 388:AS76.c        ****     Write_32bitSPI_DATA (0x10  , (int) 0x00070103, TMC5160_nCS_MotorT ); 
 389:AS76.c        **** 
 390:AS76.c        **** }
ARM GAS  C:\Users\Revanth\AppData\Local\Temp\ccbqjHa5.s 			page 9


 391:AS76.c        **** 
 392:AS76.c        **** ////////////////////////////////////////////////////////////////////////////////////////////
 393:AS76.c        **** 
 394:AS76.c        **** //////////////////////////////////////////Homing Z//////////////////////////////////////////
 395:AS76.c        **** 
 396:AS76.c        **** /* --------------------------------------------------------------------------------------------
 397:AS76.c        **** Function Name        : homeZ
 398:AS76.c        **** 
 399:AS76.c        **** Prerequist Knowledge : Homing of stepper motor system, TM5160 Datasheet, Encoders
 400:AS76.c        **** 
 401:AS76.c        **** Function Description : This Function is used to home the motor Z, where motor moves at specific
 402:AS76.c        ****                        Low speed towards left until it hits the limit switch on the left side then 
 403:AS76.c        ****                        motor rotates 1 rotation next the motor moves at specific Low speed towards 
 404:AS76.c        ****                        left until it hits the limit switch then motor gain moves 1 rotaion with ste
 405:AS76.c        ****                        loss correction and that point TMC5160 marks as position 0 and resets the Z 
 406:AS76.c        ****                        Channel encoder.
 407:AS76.c        **** 
 408:AS76.c        **** Return Type & Data   :Void
 409:AS76.c        **** 
 410:AS76.c        **** Variable Updation: status_z, Error, Z_QuadPosition
 411:AS76.c        **** 
 412:AS76.c        **** Numnber of Arguments : 1
 413:AS76.c        **** 
 414:AS76.c        **** -----Argument 1-----
 415:AS76.c        **** Name                 : Motor
 416:AS76.c        **** Tupe                 : uint8_t
 417:AS76.c        **** Description          : This Argument Represents the driver channel
 418:AS76.c        **** Condition            : This Value must range from 0x00 to 0x04 since there are only 5 channels
 419:AS76.c        ****                        available in AS76 System Configuration, condition to be checked in 
 420:AS76.c        ****                        SPI_MOTOR_CHIP_SELECT Function                       
 421:AS76.c        **** --------------------
 422:AS76.c        **** 
 423:AS76.c        **** 
 424:AS76.c        **** 
 425:AS76.c        **** ---------------------------------------------------------------------------------------------*/
 426:AS76.c        **** 
 427:AS76.c        **** void homeZ(uint8_t Motor)
 428:AS76.c        **** {
 429:AS76.c        ****     Write_32bitSPI_DATA (0x10  , (int) 0x00070203, TMC5160_nCS_MotorZ );
 430:AS76.c        ****     update_max_velocity((53687*2), Motor);
 431:AS76.c        ****     Enable_Encoder_Z(-Buffer_Z_QuadPosition);
 432:AS76.c        ****     Write_32bitSPI_DATA (0x20  , (int) 0x00000002, Motor );
 433:AS76.c        ****     CyDelayUs(50);
 434:AS76.c        ****     Read_32bitSPI_DATA(0x04, Motor, &status_z);
 435:AS76.c        ****     CyDelayUs(500);
 436:AS76.c        ****     Read_32bitSPI_DATA(0x04, Motor, &status_z);
 437:AS76.c        ****     while ( (status_z & 0x40) == 0x00)
 438:AS76.c        ****     {
 439:AS76.c        ****        wait_timer_Start();
 440:AS76.c        ****        wait_interrupt_StartEx(wait_interrupt_Handler);
 441:AS76.c        ****        Read_32bitSPI_DATA(0x04, Motor, &status_z);
 442:AS76.c        ****        if(exit_loop == 1)
 443:AS76.c        ****             {
 444:AS76.c        ****             Error = 18;
 445:AS76.c        ****             Send_Feedback_to_USB(Error);
 446:AS76.c        ****             wait_timer_Stop();
 447:AS76.c        ****             Write_32bitSPI_DATA (0x20  , (int) 0x00000000, Motor );
ARM GAS  C:\Users\Revanth\AppData\Local\Temp\ccbqjHa5.s 			page 10


 448:AS76.c        ****             Write_32bitSPI_DATA (0x21  , (int) 0x0000000, Motor); // Mark the current postion as 0
 449:AS76.c        ****             Write_32bitSPI_DATA (0x2D  , 0x00000000, Motor ); // Set thye target position as 0
 450:AS76.c        ****             exit_loop = 0;
 451:AS76.c        ****             return;
 452:AS76.c        ****             //break;
 453:AS76.c        ****             }
 454:AS76.c        ****        CyDelayUs(100);
 455:AS76.c        ****     }
 456:AS76.c        ****     wait_timer_Stop();
 457:AS76.c        ****     exit_loop =0;
 458:AS76.c        ****     
 459:AS76.c        ****     Write_32bitSPI_DATA (0x21  , (int) 0x0000000, Motor);
 460:AS76.c        ****     //Z_last_position = 0;
 461:AS76.c        ****     Enable_Encoder_Z(0);
 462:AS76.c        ****     Buffer_Z_QuadPosition=0;
 463:AS76.c        ****     CyDelayUs(10);
 464:AS76.c        ****     /*
 465:AS76.c        ****     GotoPos(((256*200)*1), Motor);
 466:AS76.c        ****     CyDelayUs(500);
 467:AS76.c        ****     Read_32bitSPI_DATA(0x04, Motor, &status_z);
 468:AS76.c        ****     CyDelayUs(500);
 469:AS76.c        ****     Read_32bitSPI_DATA(0x04, Motor, &status_z);
 470:AS76.c        ****     while ( (status_z & 0x20) == 0x00)
 471:AS76.c        ****     {
 472:AS76.c        ****        Read_32bitSPI_DATA(0x04, Motor, &status_z);
 473:AS76.c        ****         CyDelayUs(100);
 474:AS76.c        ****        
 475:AS76.c        ****     }
 476:AS76.c        ****     update_max_velocity(53687, Motor);
 477:AS76.c        ****     Write_32bitSPI_DATA (0x20  , (int) 0x00000002, Motor );
 478:AS76.c        ****     CyDelayUs(200);
 479:AS76.c        ****     Read_32bitSPI_DATA(0x04, Motor, &status_z);
 480:AS76.c        ****     CyDelayUs(500);
 481:AS76.c        ****     Read_32bitSPI_DATA(0x04, Motor, &status_z);
 482:AS76.c        ****     while ( (status_z & 0x40) == 0x00)
 483:AS76.c        ****     {
 484:AS76.c        ****        Read_32bitSPI_DATA(0x04, Motor, &status_z);
 485:AS76.c        ****        CyDelayUs(100);
 486:AS76.c        ****     }
 487:AS76.c        ****     */
 488:AS76.c        **** 
 489:AS76.c        ****     Write_32bitSPI_DATA (0x21  , (int) 0x0000000, Motor);
 490:AS76.c        ****     //Z_last_position = 0;
 491:AS76.c        ****     Enable_Encoder_Z(0);
 492:AS76.c        ****     Buffer_Z_QuadPosition=0;
 493:AS76.c        ****     HomeX_done = true;
 494:AS76.c        ****     HomeY_done = true;
 495:AS76.c        ****     HomeZ_done = true;
 496:AS76.c        ****     HomeT_done = true;
 497:AS76.c        ****     CyDelayUs(100);
 498:AS76.c        ****     goTo_Z(((256*200)*1));
 499:AS76.c        ****     Error =0;
 500:AS76.c        ****     HomeX_done = HomeX_done_Buffer;
 501:AS76.c        ****     HomeY_done = HomeY_done_Buffer;
 502:AS76.c        ****     HomeZ_done = HomeZ_done_Buffer;
 503:AS76.c        ****     HomeT_done = HomeT_done_Buffer;
 504:AS76.c        ****     CyDelayUs(100);
ARM GAS  C:\Users\Revanth\AppData\Local\Temp\ccbqjHa5.s 			page 11


 505:AS76.c        ****     Write_32bitSPI_DATA (0x21  , (int) 0x0000000, Motor); 
 506:AS76.c        ****     Write_32bitSPI_DATA (0x2D  , 0x00000000, Motor );
 507:AS76.c        ****     update_max_velocity(53687*2, Motor);
 508:AS76.c        **** 
 509:AS76.c        ****     //Z_last_position = 0;
 510:AS76.c        ****     Enable_Encoder_Z(0);
 511:AS76.c        ****     Buffer_Z_QuadPosition=0;
 512:AS76.c        ****     HomeZ_done = true;
 513:AS76.c        ****     HomeZ_done_Buffer = true;
 514:AS76.c        ****     Write_Debug_UART_Char("HomeZ executed  \r\n");
 515:AS76.c        ****     Write_32bitSPI_DATA (0x10  , (int) 0x00070103, TMC5160_nCS_MotorY );
 516:AS76.c        ****     Write_32bitSPI_DATA (0x10  , (int) 0x00070101, TMC5160_nCS_MotorZ );
 517:AS76.c        ****     Write_32bitSPI_DATA (0x10  , (int) 0x00070103, TMC5160_nCS_MotorX );
 518:AS76.c        ****     Write_32bitSPI_DATA (0x10  , (int) 0x00070103, TMC5160_nCS_MotorT ); 
 519:AS76.c        **** 
 520:AS76.c        **** }
 521:AS76.c        **** 
 522:AS76.c        **** ///////////////////////////////////////////////////////////////////////////////////////
 523:AS76.c        **** 
 524:AS76.c        **** /////////////////////////////////////Homing T//////////////////////////////////////////
 525:AS76.c        **** 
 526:AS76.c        **** void homeT(uint8_t Motor)
 527:AS76.c        **** {
 528:AS76.c        ****     TMC5160_MotorT_EN_Write(0x00);
 529:AS76.c        ****     CyDelayUs(100);
 530:AS76.c        ****     update_max_velocity(12800, Motor);
 531:AS76.c        ****     Enable_Encoder_T(-Buffer_T_QuadPosition);
 532:AS76.c        ****     Write_32bitSPI_DATA (0x20  , (int) 0x00000002, Motor );
 533:AS76.c        ****     CyDelayUs(50);
 534:AS76.c        ****     Read_32bitSPI_DATA(0x04, Motor, &status_z);
 535:AS76.c        ****     CyDelayUs(500);
 536:AS76.c        ****     Read_32bitSPI_DATA(0x04, Motor, &status_z);
 537:AS76.c        ****     while ( (status_z & 0x40) == 0x00)
 538:AS76.c        ****     {
 539:AS76.c        ****        wait_timer_Start();
 540:AS76.c        ****        wait_interrupt_StartEx(wait_interrupt_Handler);
 541:AS76.c        ****        Read_32bitSPI_DATA(0x04, Motor, &status_z);
 542:AS76.c        ****        if(exit_loop == 1)
 543:AS76.c        ****             {
 544:AS76.c        ****             Error = 22;
 545:AS76.c        ****             Send_Feedback_to_USB(Error);
 546:AS76.c        ****             wait_timer_Stop();
 547:AS76.c        ****             Write_32bitSPI_DATA (0x20  , (int) 0x00000000, Motor );
 548:AS76.c        ****             Write_32bitSPI_DATA (0x21  , (int) 0x0000000, Motor); // Mark the current postion as 0
 549:AS76.c        ****             Write_32bitSPI_DATA (0x2D  , 0x00000000, Motor ); // Set thye target position as 0
 550:AS76.c        ****             exit_loop = 0;
 551:AS76.c        ****             Error =0;
 552:AS76.c        ****             return;
 553:AS76.c        ****             //break;
 554:AS76.c        ****             }
 555:AS76.c        ****        CyDelayUs(100);
 556:AS76.c        ****     }
 557:AS76.c        ****     wait_timer_Stop();
 558:AS76.c        ****     exit_loop =0;
 559:AS76.c        ****     
 560:AS76.c        ****     Write_32bitSPI_DATA (0x21  , (int) 0x0000000, Motor);
 561:AS76.c        ****     CyDelayUs(10);
ARM GAS  C:\Users\Revanth\AppData\Local\Temp\ccbqjHa5.s 			page 12


 562:AS76.c        ****     /*
 563:AS76.c        ****     GotoPos((12800), Motor);
 564:AS76.c        ****     CyDelayUs(500);
 565:AS76.c        ****     Read_32bitSPI_DATA(0x04, Motor, &status_z);
 566:AS76.c        ****     CyDelayUs(500);
 567:AS76.c        ****     Read_32bitSPI_DATA(0x04, Motor, &status_z);
 568:AS76.c        ****     while ( (status_z & 0x20) == 0x00)
 569:AS76.c        ****     {
 570:AS76.c        ****        Read_32bitSPI_DATA(0x04, Motor, &status_z);
 571:AS76.c        ****         CyDelayUs(100);
 572:AS76.c        ****        
 573:AS76.c        ****     }
 574:AS76.c        ****     update_max_velocity(12800, Motor);
 575:AS76.c        ****     Write_32bitSPI_DATA (0x20  , (int) 0x00000002, Motor );
 576:AS76.c        ****     CyDelayUs(200);
 577:AS76.c        ****     Read_32bitSPI_DATA(0x04, Motor, &status_y);
 578:AS76.c        ****     CyDelay0Us(500);
 579:AS76.c        ****     Read_32bitSPI_DATA(0x04, Motor, &status_y);
 580:AS76.c        ****     while ( (status_y & 0x40) == 0x00)
 581:AS76.c        ****     {
 582:AS76.c        ****        Read_32bitSPI_DATA(0x04, Motor, &status_y);
 583:AS76.c        ****        CyDelayUs(100);
 584:AS76.c        ****     }
 585:AS76.c        ****     */
 586:AS76.c        ****     Write_32bitSPI_DATA (0x21  , (int) 0x0000000, Motor);
 587:AS76.c        ****     //T_last_position = 0;
 588:AS76.c        ****     Enable_Encoder_T(0);
 589:AS76.c        ****     Buffer_T_QuadPosition=0;
 590:AS76.c        ****     HomeX_done = true;
 591:AS76.c        ****     HomeY_done = true;
 592:AS76.c        ****     HomeZ_done = true;
 593:AS76.c        ****     HomeT_done = true;
 594:AS76.c        ****     CyDelayUs(100); 
 595:AS76.c        ****     goTo_T(3800);
 596:AS76.c        ****     HomeX_done = HomeX_done_Buffer;
 597:AS76.c        ****     HomeY_done = HomeY_done_Buffer;
 598:AS76.c        ****     HomeZ_done = HomeZ_done_Buffer;
 599:AS76.c        ****     HomeT_done = HomeT_done_Buffer;
 600:AS76.c        ****     CyDelayUs(100);
 601:AS76.c        ****     Write_32bitSPI_DATA (0x21  , (int) 0x0000000, Motor); 
 602:AS76.c        ****     Write_32bitSPI_DATA (0x2D  , 0x00000000, Motor );
 603:AS76.c        ****     update_max_velocity(12800, Motor);
 604:AS76.c        **** 
 605:AS76.c        ****     //T_last_position = 0;
 606:AS76.c        ****     Enable_Encoder_T(0);
 607:AS76.c        ****     Buffer_T_QuadPosition=0;
 608:AS76.c        ****     HomeT_done = true;
 609:AS76.c        ****     HomeT_done_Buffer = true;
 610:AS76.c        ****     Write_Debug_UART_Char("HomeT executed  \r\n");
 611:AS76.c        ****     TMC5160_MotorT_EN_Write(0xFF);
 612:AS76.c        ****     CyDelayUs(100);
 613:AS76.c        **** }
 614:AS76.c        **** 
 615:AS76.c        **** ///////////////////////////////////////////////////////////////////////////////////////////////////
 616:AS76.c        **** /////////////////////////////////////Go to Position in X Axis//////////////////////////////////////
 617:AS76.c        **** 
 618:AS76.c        **** int goTo_X(int32 Position_X_Requested)
ARM GAS  C:\Users\Revanth\AppData\Local\Temp\ccbqjHa5.s 			page 13


 619:AS76.c        **** {
 620:AS76.c        ****       
 621:AS76.c        ****     if(if_all_homing_done())
 622:AS76.c        ****     
 623:AS76.c        ****     {
 624:AS76.c        ****         Write_32bitSPI_DATA (0x10  , (int) 0x00070103, TMC5160_nCS_MotorY );
 625:AS76.c        ****         Write_32bitSPI_DATA (0x10  , (int) 0x00070102, TMC5160_nCS_MotorZ );
 626:AS76.c        ****         Write_32bitSPI_DATA (0x10  , (int) 0x00070407, TMC5160_nCS_MotorX );
 627:AS76.c        ****         //Position_X_Move = Position_X_Move + Position_X_Requested;
 628:AS76.c        ****         Error = 0;
 629:AS76.c        ****         Read_All_Optical_Encoder();
 630:AS76.c        ****         //X_last_position = X_QuadPosition;
 631:AS76.c        ****         Write_Debug_UART_Char("GotoX Command Recived--->");
 632:AS76.c        ****         GotoPos(Position_X_Requested, TMC5160_nCS_MotorX); // If provided value is position and not
 633:AS76.c        ****         WaitTillPositionReached (TMC5160_nCS_MotorX);
 634:AS76.c        ****         CyDelayUs(50);
 635:AS76.c        ****         //GotoPos(Position_X_Move, TMC5160_nCS_MotorX); // If provided value is steps to move and n
 636:AS76.c        ****         Write_Debug_UART_Int(Position_X_Requested);
 637:AS76.c        ****         Write_Debug_UART_Char("  \r\n");
 638:AS76.c        ****         Step_correction_x(Position_X_Requested);
 639:AS76.c        ****         return Error;
 640:AS76.c        ****     }
 641:AS76.c        ****     else
 642:AS76.c        ****     {
 643:AS76.c        ****         Write_Debug_UART_Char("Homing Not Done");
 644:AS76.c        ****         Error = 32;
 645:AS76.c        ****         return Error;
 646:AS76.c        ****     }
 647:AS76.c        ****     
 648:AS76.c        **** }
 649:AS76.c        **** 
 650:AS76.c        **** int Step_correction_x(int32 steps)
 651:AS76.c        **** {  
 652:AS76.c        ****     int32 Encoder_Position_X_Requested =0;
 653:AS76.c        ****     uint8_t temp;
 654:AS76.c        ****     int32 new_step=0;
 655:AS76.c        ****     //int32 diff_encoder_value=0;
 656:AS76.c        ****     int32 encoder_error_value = 0;
 657:AS76.c        ****     Encoder_Position_X_Requested = steps/X_Pitchfactor;
 658:AS76.c        ****     
 659:AS76.c        ****     for(temp=0; temp<=5; temp++)
 660:AS76.c        ****     {
 661:AS76.c        ****     Read_All_Optical_Encoder();
 662:AS76.c        ****     
 663:AS76.c        ****     encoder_error_value = Encoder_Position_X_Requested - X_QuadPosition;
 664:AS76.c        ****     if(encoder_error_value >= 2000)
 665:AS76.c        ****     {
 666:AS76.c        ****         Error=  2;
 667:AS76.c        ****         return Error;
 668:AS76.c        ****     }
 669:AS76.c        ****     new_step= encoder_error_value* X_Pitchfactor ;
 670:AS76.c        ****     
 671:AS76.c        ****        
 672:AS76.c        ****     if((abs(encoder_error_value))>= X_max_error_After_Correction )
 673:AS76.c        ****     {
 674:AS76.c        ****       new_step = new_step+steps;     
 675:AS76.c        ****       GotoPos(new_step, TMC5160_nCS_MotorX);
ARM GAS  C:\Users\Revanth\AppData\Local\Temp\ccbqjHa5.s 			page 14


 676:AS76.c        ****       WaitTillPositionReached (TMC5160_nCS_MotorX);
 677:AS76.c        ****       CyDelayUs(50);
 678:AS76.c        ****       Write_32bitSPI_DATA (0x21  , steps, TMC5160_nCS_MotorX );
 679:AS76.c        ****     }
 680:AS76.c        ****     }
 681:AS76.c        ****     Read_All_Optical_Encoder();
 682:AS76.c        ****     encoder_error_value = Encoder_Position_X_Requested - X_QuadPosition;
 683:AS76.c        ****     if((temp>5))
 684:AS76.c        ****     {
 685:AS76.c        ****      if(((abs(encoder_error_value))>= 10 ) && ((abs(encoder_error_value))<2000))
 686:AS76.c        ****      {
 687:AS76.c        ****         Write_Debug_UART_Char("Fail to reach X position \r\n");
 688:AS76.c        ****         LED3_Write(0xFF);
 689:AS76.c        ****         GotoPos((steps-1000),TMC5160_nCS_MotorX);
 690:AS76.c        ****         Error=  1;
 691:AS76.c        ****      }
 692:AS76.c        ****     
 693:AS76.c        ****      else if ( ((abs(encoder_error_value))>2000))
 694:AS76.c        ****      {
 695:AS76.c        ****        Write_Debug_UART_Char("X Encoder or X Motor Might Not be Working \r\n");
 696:AS76.c        ****        Error=  2;
 697:AS76.c        ****      }
 698:AS76.c        ****     
 699:AS76.c        ****      else
 700:AS76.c        ****      {
 701:AS76.c        ****         Write_Debug_UART_Char("X position Reached");
 702:AS76.c        ****         Error = 0;
 703:AS76.c        ****         Write_32bitSPI_DATA (0x21  , steps, TMC5160_nCS_MotorX );
 704:AS76.c        ****         CyDelayUs(500);
 705:AS76.c        ****         
 706:AS76.c        ****      }
 707:AS76.c        ****     
 708:AS76.c        ****     }
 709:AS76.c        ****     
 710:AS76.c        ****     return Error;
 711:AS76.c        **** }
 712:AS76.c        **** 
 713:AS76.c        **** ///////////////////////////////////////////////////////////////////////////////////////////////////
 714:AS76.c        **** /////////////////////////////////////Go to Position in Y Axis//////////////////////////////////////
 715:AS76.c        **** 
 716:AS76.c        **** int goTo_Y(int32 Position_Y_Requested)
 717:AS76.c        **** {   
 718:AS76.c        ****     if(if_all_homing_done())
 719:AS76.c        ****     {
 720:AS76.c        ****         Write_32bitSPI_DATA (0x10  , (int) 0x00070103, TMC5160_nCS_MotorX );
 721:AS76.c        ****         Write_32bitSPI_DATA (0x10  , (int) 0x00070102, TMC5160_nCS_MotorZ );
 722:AS76.c        ****         Write_32bitSPI_DATA (0x10  , (int) 0x0007020A, TMC5160_nCS_MotorY );
 723:AS76.c        ****         
 724:AS76.c        ****         //Position_Y_Move = Position_Y_Move + Position_Y_Requested;
 725:AS76.c        ****         Error = 0;
 726:AS76.c        ****         Read_All_Optical_Encoder();
 727:AS76.c        ****         //Y_last_position = Y_QuadPosition;
 728:AS76.c        ****         Write_Debug_UART_Char("GotoX Command Recived--->");
 729:AS76.c        ****         GotoPos(Position_Y_Requested, TMC5160_nCS_MotorY); // If provided value is position and not
 730:AS76.c        ****         WaitTillPositionReached (TMC5160_nCS_MotorY);
 731:AS76.c        ****         CyDelayUs(50);
 732:AS76.c        ****         //GotoPos(Position_X_Move, TMC5160_nCS_MotorX); // If provided value is steps to move and n
ARM GAS  C:\Users\Revanth\AppData\Local\Temp\ccbqjHa5.s 			page 15


 733:AS76.c        ****         Write_Debug_UART_Int(Position_Y_Requested);
 734:AS76.c        ****         Write_Debug_UART_Char("  \r\n");
 735:AS76.c        ****         Step_correction_y(Position_Y_Requested);
 736:AS76.c        ****         return Error;
 737:AS76.c        ****     }
 738:AS76.c        ****     else
 739:AS76.c        ****     {
 740:AS76.c        ****         Write_Debug_UART_Char("Homing Not Done");
 741:AS76.c        ****         Error = 32;
 742:AS76.c        ****         return Error;
 743:AS76.c        ****     }
 744:AS76.c        **** }
 745:AS76.c        **** 
 746:AS76.c        **** int Step_correction_y(int32 steps)
 747:AS76.c        **** {  
 748:AS76.c        ****     uint8_t temp=0;
 749:AS76.c        ****     int32 new_step=0;
 750:AS76.c        ****     int32 Encoder_Position_Y_Requested =0;
 751:AS76.c        ****     //int32 diff_encoder_value=0;
 752:AS76.c        ****     int32 encoder_error_value = 0;
 753:AS76.c        ****     Encoder_Position_Y_Requested = steps/12.8;
 754:AS76.c        ****     
 755:AS76.c        ****     for(temp=0; temp<=3; temp++)
 756:AS76.c        ****     {
 757:AS76.c        ****     Read_All_Optical_Encoder();
 758:AS76.c        ****     //diff_encoder_value = (X_QuadPosition - X_last_position);
 759:AS76.c        ****     encoder_error_value = Encoder_Position_Y_Requested - Y_QuadPosition;
 760:AS76.c        ****     new_step= encoder_error_value*12.8;
 761:AS76.c        ****     if(encoder_error_value >= 4000)
 762:AS76.c        ****     {
 763:AS76.c        ****         Error=  9;
 764:AS76.c        ****         break;
 765:AS76.c        ****     }
 766:AS76.c        ****     if((abs(encoder_error_value))>=10)
 767:AS76.c        ****     {
 768:AS76.c        ****       new_step = new_step+steps;     
 769:AS76.c        ****       GotoPos(new_step, TMC5160_nCS_MotorY);
 770:AS76.c        ****       WaitTillPositionReached (TMC5160_nCS_MotorY);
 771:AS76.c        ****       CyDelayUs(50);
 772:AS76.c        ****       Write_32bitSPI_DATA (0x21  , steps, TMC5160_nCS_MotorY );
 773:AS76.c        ****     }
 774:AS76.c        ****     
 775:AS76.c        ****     }
 776:AS76.c        ****     
 777:AS76.c        ****     
 778:AS76.c        ****     Read_All_Optical_Encoder();
 779:AS76.c        ****     encoder_error_value = Encoder_Position_Y_Requested - Y_QuadPosition;
 780:AS76.c        ****     
 781:AS76.c        ****     if(temp>=4)
 782:AS76.c        ****     {
 783:AS76.c        ****      if(((abs(encoder_error_value))>=3) && ((abs(encoder_error_value))<2000) )
 784:AS76.c        ****      {
 785:AS76.c        ****         Write_Debug_UART_Char("Fail to reach Y position \r\n");
 786:AS76.c        ****         GotoPos((steps-1000),TMC5160_nCS_MotorY);
 787:AS76.c        ****         LED3_Write(0xFF);
 788:AS76.c        ****         Error=  8;
 789:AS76.c        ****      }
ARM GAS  C:\Users\Revanth\AppData\Local\Temp\ccbqjHa5.s 			page 16


 790:AS76.c        ****     
 791:AS76.c        ****      else if ( ((abs(encoder_error_value))>2000))
 792:AS76.c        ****      {
 793:AS76.c        ****        Write_Debug_UART_Char("Y Encoder or Y Motor Might Not be Working \r\n"); 
 794:AS76.c        ****        Error=  9;
 795:AS76.c        ****      }
 796:AS76.c        ****     
 797:AS76.c        ****      else
 798:AS76.c        ****      {
 799:AS76.c        ****         Write_Debug_UART_Char("Y position Reached");
 800:AS76.c        ****         Error = 0;
 801:AS76.c        ****         
 802:AS76.c        ****      }
 803:AS76.c        ****     
 804:AS76.c        ****     }
 805:AS76.c        ****     
 806:AS76.c        ****     return Error;
 807:AS76.c        **** }
 808:AS76.c        **** 
 809:AS76.c        **** ///////////////////////////////////////////////////////////////////////////////////////////////////
 810:AS76.c        **** /////////////////////////////////////Go to Position in Z Axis//////////////////////////////////////
 811:AS76.c        **** 
 812:AS76.c        **** 
 813:AS76.c        **** int goTo_Z(int32 Position_Z_Requested)
 814:AS76.c        **** {
 815:AS76.c        ****     Write_32bitSPI_DATA (0x10  , (int) 0x00070103, TMC5160_nCS_MotorY );
 816:AS76.c        ****     Write_32bitSPI_DATA (0x10  , (int) 0x00070103, TMC5160_nCS_MotorX );
 817:AS76.c        ****     Write_32bitSPI_DATA (0x10  , (int) 0x00070303, TMC5160_nCS_MotorZ );
 818:AS76.c        ****     Position_Z_Requested =  Position_Z_Requested;
 819:AS76.c        ****     Enable_Encoder_Z(-Buffer_Z_QuadPosition);
 820:AS76.c        ****     if(if_all_homing_done())
 821:AS76.c        ****     {
 822:AS76.c        ****         Error = 0;
 823:AS76.c        ****         Read_All_Optical_Encoder();
 824:AS76.c        ****         //Z_last_position = Z_QuadPosition;
 825:AS76.c        ****         Write_Debug_UART_Char("GotoZ Command Recived--->");
 826:AS76.c        ****         GotoPos(Position_Z_Requested, TMC5160_nCS_MotorZ); // If provided value is position and not
 827:AS76.c        ****         WaitTillPositionReached (TMC5160_nCS_MotorZ);
 828:AS76.c        ****         CyDelayUs(50);
 829:AS76.c        ****         //GotoPos(Position_X_Move, TMC5160_nCS_MotorX); // If provided value is steps to move and n
 830:AS76.c        ****         Write_Debug_UART_Int(Position_Z_Requested);
 831:AS76.c        ****         Write_Debug_UART_Char("  \r\n");
 832:AS76.c        ****         Step_correction_z(Position_Z_Requested);
 833:AS76.c        ****         Read_All_Optical_Encoder();
 834:AS76.c        ****         Buffer_Z_QuadPosition = Z_QuadPosition;
 835:AS76.c        ****         return Error;
 836:AS76.c        ****     }
 837:AS76.c        ****     else
 838:AS76.c        ****     {
 839:AS76.c        ****         Write_Debug_UART_Char("Homing Not Done");
 840:AS76.c        ****         Error = 32;
 841:AS76.c        ****         return Error;
 842:AS76.c        ****     }
 843:AS76.c        **** 
 844:AS76.c        **** }
 845:AS76.c        **** 
 846:AS76.c        **** int Step_correction_z(int32 steps)
ARM GAS  C:\Users\Revanth\AppData\Local\Temp\ccbqjHa5.s 			page 17


 847:AS76.c        **** {  
 848:AS76.c        ****     uint8_t temp=0;
 849:AS76.c        ****     int32 new_step=0;
 850:AS76.c        ****     int32 Encoder_Position_Z_Requested =0;
 851:AS76.c        ****     //int32 diff_encoder_value=0;
 852:AS76.c        ****     int32 encoder_error_value = 0;
 853:AS76.c        ****     Encoder_Position_Z_Requested = steps/3.2;
 854:AS76.c        ****     
 855:AS76.c        ****     for(temp=0; temp<=5; temp++)
 856:AS76.c        ****     {
 857:AS76.c        ****     
 858:AS76.c        ****     Read_All_Optical_Encoder();
 859:AS76.c        ****     //diff_encoder_value = (X_QuadPosition - X_last_position);
 860:AS76.c        ****     encoder_error_value = Encoder_Position_Z_Requested - Z_QuadPosition;
 861:AS76.c        ****     new_step= encoder_error_value*3.2;
 862:AS76.c        ****     if(encoder_error_value >= 4000)
 863:AS76.c        ****     {
 864:AS76.c        ****         Error=  16;
 865:AS76.c        ****         break;
 866:AS76.c        ****     }
 867:AS76.c        ****     if((abs(encoder_error_value))>=3)
 868:AS76.c        ****     {
 869:AS76.c        ****       new_step = new_step+steps;     
 870:AS76.c        ****       GotoPos(new_step, TMC5160_nCS_MotorZ);
 871:AS76.c        ****       WaitTillPositionReached (TMC5160_nCS_MotorZ);
 872:AS76.c        ****       CyDelayUs(50);
 873:AS76.c        ****       Write_32bitSPI_DATA (0x21  , steps, TMC5160_nCS_MotorZ );
 874:AS76.c        ****     }
 875:AS76.c        ****     
 876:AS76.c        ****     }
 877:AS76.c        ****     
 878:AS76.c        ****     
 879:AS76.c        ****     Read_All_Optical_Encoder();
 880:AS76.c        ****     encoder_error_value = Encoder_Position_Z_Requested - Z_QuadPosition;
 881:AS76.c        ****     
 882:AS76.c        ****     if(temp>=4)
 883:AS76.c        ****     {
 884:AS76.c        ****      if(((abs(encoder_error_value))>=5) && ((abs(encoder_error_value))<4000) )
 885:AS76.c        ****      {
 886:AS76.c        ****         Write_Debug_UART_Char("Fail to reach Z position \r\n");
 887:AS76.c        ****         GotoPos((steps-1000),TMC5160_nCS_MotorZ);
 888:AS76.c        ****         LED2_Write(0xFF);
 889:AS76.c        ****         Error = 15;
 890:AS76.c        ****      }
 891:AS76.c        ****     
 892:AS76.c        ****      else if ( ((abs(encoder_error_value))>4000))
 893:AS76.c        ****      {
 894:AS76.c        ****        Write_Debug_UART_Char("Z Encoder or Z Motor Might Not be Working \r\n"); 
 895:AS76.c        ****        Error = 16;
 896:AS76.c        ****      }
 897:AS76.c        ****     
 898:AS76.c        ****      else
 899:AS76.c        ****      {
 900:AS76.c        ****        Write_Debug_UART_Char("Z position Reached");
 901:AS76.c        ****        Error = 0;
 902:AS76.c        ****         
 903:AS76.c        ****      }
ARM GAS  C:\Users\Revanth\AppData\Local\Temp\ccbqjHa5.s 			page 18


 904:AS76.c        ****     
 905:AS76.c        ****     }
 906:AS76.c        ****     
 907:AS76.c        ****     return Error;
 908:AS76.c        **** }
 909:AS76.c        **** 
 910:AS76.c        **** /////////////////////////////////////Go to Position in T Axis//////////////////////////////////////
 911:AS76.c        **** 
 912:AS76.c        **** int goTo_T(int32 Position_T_Requested)
 913:AS76.c        **** {
 914:AS76.c        ****     TMC5160_MotorT_EN_Write(0x00);
 915:AS76.c        ****     CyDelayUs(100);
 916:AS76.c        ****     Enable_Encoder_T(-Buffer_T_QuadPosition);
 917:AS76.c        ****     if(if_all_homing_done())
 918:AS76.c        ****     {
 919:AS76.c        ****         Error = 0;
 920:AS76.c        ****         Read_All_Optical_Encoder();        
 921:AS76.c        ****         Write_Debug_UART_Char("GotoT Command Recived--->");
 922:AS76.c        ****         GotoPos(Position_T_Requested, TMC5160_nCS_MotorT); // If provided value is position and not
 923:AS76.c        ****         WaitTillPositionReached (TMC5160_nCS_MotorT);
 924:AS76.c        ****         CyDelayUs(50);
 925:AS76.c        ****         //GotoPos(Position_X_Move, TMC5160_nCS_MotorX); // If provided value is steps to move and n
 926:AS76.c        ****         Write_Debug_UART_Int(Position_T_Requested);
 927:AS76.c        ****         Write_Debug_UART_Char("  \r\n");
 928:AS76.c        ****         Step_correction_t(Position_T_Requested);
 929:AS76.c        ****         Read_All_Optical_Encoder();
 930:AS76.c        ****         Buffer_T_QuadPosition = T_QuadPosition;
 931:AS76.c        ****         TMC5160_MotorT_EN_Write(0xFF);
 932:AS76.c        ****         CyDelayUs (100);
 933:AS76.c        ****         return Error;
 934:AS76.c        ****     }
 935:AS76.c        ****     else
 936:AS76.c        ****     {
 937:AS76.c        ****         Write_Debug_UART_Char("Homing Not Done");
 938:AS76.c        ****         Error = 32;
 939:AS76.c        ****          TMC5160_MotorT_EN_Write(0xFF);
 940:AS76.c        ****         CyDelayUs(100);
 941:AS76.c        ****         return Error;
 942:AS76.c        ****     }
 943:AS76.c        ****     //Buffer_T_QuadPosition = T_QuadPosition;
 944:AS76.c        **** }
 945:AS76.c        **** 
 946:AS76.c        **** int Step_correction_t(int32 steps)
 947:AS76.c        **** {  
 948:AS76.c        ****     uint8_t temp=0;
 949:AS76.c        ****     int32 new_step=0;
 950:AS76.c        ****     int32 Encoder_Position_T_Requested =0;
 951:AS76.c        ****     //int32 diff_encoder_value=0;
 952:AS76.c        ****     int32 encoder_error_value = 0;
 953:AS76.c        ****     Encoder_Position_T_Requested = steps/3.2;
 954:AS76.c        ****     
 955:AS76.c        ****     for(temp=0; temp<=3; temp++)
 956:AS76.c        ****     {
 957:AS76.c        ****     Read_All_Optical_Encoder();
 958:AS76.c        ****     //diff_encoder_value = (X_QuadPosition - X_last_position);
 959:AS76.c        ****     encoder_error_value = Encoder_Position_T_Requested - T_QuadPosition;
 960:AS76.c        ****     new_step= encoder_error_value*3.2;
ARM GAS  C:\Users\Revanth\AppData\Local\Temp\ccbqjHa5.s 			page 19


 961:AS76.c        ****     if(encoder_error_value >= 4000)
 962:AS76.c        ****     {
 963:AS76.c        ****         Error=  23;
 964:AS76.c        ****         break;
 965:AS76.c        ****     }
 966:AS76.c        ****     
 967:AS76.c        ****     if((abs(encoder_error_value))>=5)
 968:AS76.c        ****     {
 969:AS76.c        ****       new_step = new_step+steps;     
 970:AS76.c        ****       GotoPos(new_step, TMC5160_nCS_MotorT);
 971:AS76.c        ****       WaitTillPositionReached (TMC5160_nCS_MotorT);
 972:AS76.c        ****       CyDelayUs(50);
 973:AS76.c        ****       Write_32bitSPI_DATA (0x21  , steps, TMC5160_nCS_MotorT );
 974:AS76.c        ****     }
 975:AS76.c        ****     
 976:AS76.c        ****     }
 977:AS76.c        ****     
 978:AS76.c        ****     Read_All_Optical_Encoder();
 979:AS76.c        ****     encoder_error_value = Encoder_Position_T_Requested - T_QuadPosition;
 980:AS76.c        ****     
 981:AS76.c        ****     if(temp>=4)
 982:AS76.c        ****     {
 983:AS76.c        ****      if(((abs(encoder_error_value))>=5) && ((abs(encoder_error_value))<4000) )
 984:AS76.c        ****      {
 985:AS76.c        ****         Write_Debug_UART_Char("Fail to reach T position \r\n");
 986:AS76.c        ****         Error = 22;
 987:AS76.c        ****      }
 988:AS76.c        ****     
 989:AS76.c        ****      else if ( ((abs(encoder_error_value))>4000))
 990:AS76.c        ****      {
 991:AS76.c        ****        Write_Debug_UART_Char("T Encoder or T Motor Might Not be Working \r\n"); 
 992:AS76.c        ****        Error = 23;
 993:AS76.c        ****      }
 994:AS76.c        ****     
 995:AS76.c        ****      else
 996:AS76.c        ****      {
 997:AS76.c        ****         Write_Debug_UART_Char("T position Reached");
 998:AS76.c        ****         Error = 0;
 999:AS76.c        ****         
1000:AS76.c        ****      }
1001:AS76.c        ****     
1002:AS76.c        ****     }
1003:AS76.c        ****     
1004:AS76.c        ****     return Error;
1005:AS76.c        **** }
1006:AS76.c        **** 
1007:AS76.c        **** 
1008:AS76.c        **** ///////////////////////////////////////////////////////////////////////////////////////////////////
1009:AS76.c        **** /////////////////////////////////////Go to Position in XYZ Axis////////////////////////////////////
1010:AS76.c        **** 
1011:AS76.c        **** int goTo_XYZ(int32 Position_X_Requested,int32 Position_Y_Requested,int32 Position_Z_Requested)
1012:AS76.c        **** {
1013:AS76.c        ****     Read_All_Optical_Encoder();
1014:AS76.c        ****     //X_last_position = X_QuadPosition;
1015:AS76.c        ****     Write_Debug_UART_Char("GotoX Command Recived--->");
1016:AS76.c        ****     if(Position_X_Requested >= 0)
1017:AS76.c        ****     { 
ARM GAS  C:\Users\Revanth\AppData\Local\Temp\ccbqjHa5.s 			page 20


1018:AS76.c        ****     GotoPos(Position_X_Requested, TMC5160_nCS_MotorX); // If provided value is position and not the
1019:AS76.c        ****     }
1020:AS76.c        ****     if(Position_Y_Requested >= 0)
1021:AS76.c        ****     { 
1022:AS76.c        ****     GotoPos(Position_Y_Requested, TMC5160_nCS_MotorY);
1023:AS76.c        ****     }
1024:AS76.c        ****     if(Position_Z_Requested >= 0)
1025:AS76.c        ****     { 
1026:AS76.c        ****     Enable_Encoder_Z(-Buffer_Z_QuadPosition);
1027:AS76.c        ****     GotoPos(Position_Z_Requested, TMC5160_nCS_MotorZ);
1028:AS76.c        ****     }
1029:AS76.c        ****     
1030:AS76.c        ****     if(Position_X_Requested >= 0)
1031:AS76.c        ****     {
1032:AS76.c        ****     WaitTillPositionReached (TMC5160_nCS_MotorX);
1033:AS76.c        ****     }
1034:AS76.c        ****     if(Position_Y_Requested >= 0)
1035:AS76.c        ****     {
1036:AS76.c        ****     WaitTillPositionReached (TMC5160_nCS_MotorY);
1037:AS76.c        ****     }
1038:AS76.c        ****     if(Position_Z_Requested >= 0)
1039:AS76.c        ****     {
1040:AS76.c        ****     WaitTillPositionReached (TMC5160_nCS_MotorZ);
1041:AS76.c        ****     }
1042:AS76.c        ****     
1043:AS76.c        ****     if(Position_X_Requested >= 0)
1044:AS76.c        ****     {
1045:AS76.c        ****     Step_correction_x(Position_X_Requested);
1046:AS76.c        ****     //Read_All_Optical_Encoder();
1047:AS76.c        ****     }
1048:AS76.c        ****     //Send_Feedback_to_USB(Error);
1049:AS76.c        ****     if(Position_Y_Requested >= 0)
1050:AS76.c        ****     {
1051:AS76.c        ****     Step_correction_y(Position_Y_Requested);
1052:AS76.c        ****     //Read_All_Optical_Encoder();
1053:AS76.c        ****     }
1054:AS76.c        ****     //Send_Feedback_to_USB(Error);
1055:AS76.c        ****     if(Position_Z_Requested >= 0)
1056:AS76.c        ****     {
1057:AS76.c        ****     Step_correction_z(Position_Z_Requested);    
1058:AS76.c        ****     Read_All_Optical_Encoder();
1059:AS76.c        ****     Buffer_Z_QuadPosition = Z_QuadPosition;
1060:AS76.c        ****     }
1061:AS76.c        ****     Read_All_Optical_Encoder();
1062:AS76.c        ****     Send_Feedback_to_USB(Error);
1063:AS76.c        ****     
1064:AS76.c        ****     CyDelayUs(50);
1065:AS76.c        ****     return 0;  
1066:AS76.c        ****         
1067:AS76.c        **** }
1068:AS76.c        **** 
1069:AS76.c        **** 
1070:AS76.c        **** bool if_all_homing_done()
1071:AS76.c        **** {
1072:AS76.c        ****     if((HomeY_done == false)&&(Error == 0))
1073:AS76.c        ****     {
1074:AS76.c        ****         Error = 12;//Y_Homing_Not_Done_Yet
ARM GAS  C:\Users\Revanth\AppData\Local\Temp\ccbqjHa5.s 			page 21


1075:AS76.c        ****         Write_Debug_UART_Char("Y_Homing_Not_Done_Yet***********[x12]  \r\n");
1076:AS76.c        ****         UART_print_all_values();
1077:AS76.c        ****         return false;
1078:AS76.c        ****     }
1079:AS76.c        ****     else if((HomeX_done == false)&&(Error == 0))
1080:AS76.c        ****     {
1081:AS76.c        ****         Error = 6;//X_Homing_Not_Done_Yet
1082:AS76.c        ****         Write_Debug_UART_Char("X_Homing_Not_Done_Yet***********  \r\n");
1083:AS76.c        ****         UART_print_all_values();
1084:AS76.c        ****         return false;
1085:AS76.c        ****     }
1086:AS76.c        ****     else if((HomeZ_done == false)&&(Error == 0))
1087:AS76.c        ****     {
1088:AS76.c        ****         Error = 18;//Z_Homing_Not_Done_Yet
1089:AS76.c        ****         Write_Debug_UART_Char("Z_Homing_Not_Done_Yet***********  \r\n");
1090:AS76.c        ****         UART_print_all_values();
1091:AS76.c        ****         return false;
1092:AS76.c        ****     } 
1093:AS76.c        ****    /* else if((HomeT_done == false)&&(Error == 0))
1094:AS76.c        ****     {
1095:AS76.c        ****         Error = 27;//T_Homing_Not_Done_Yet
1096:AS76.c        ****         Write_Debug_UART_Char("Z_Homing_Not_Done_Yet***********  \r\n");
1097:AS76.c        ****         UART_print_all_values();
1098:AS76.c        ****         return false;
1099:AS76.c        ****     } */
1100:AS76.c        ****     else
1101:AS76.c        ****     {
1102:AS76.c        ****         return true;
1103:AS76.c        ****     }
1104:AS76.c        **** }
1105:AS76.c        **** 
1106:AS76.c        **** ///////////////////////////////////////////////////////////////////////////////////////////////////
1107:AS76.c        **** //PWM Functions Start-------------------------------------------------------
1108:AS76.c        **** void Initialize_PWM()
1109:AS76.c        **** {
  67              		.loc 1 1109 0
  68              		.cfi_startproc
  69              		@ args = 0, pretend = 0, frame = 0
  70              		@ frame_needed = 0, uses_anonymous_args = 0
  71 0000 08B5     		push	{r3, lr}
  72              		.cfi_def_cfa_offset 8
  73              		.cfi_offset 3, -8
  74              		.cfi_offset 14, -4
1110:AS76.c        ****     PWM_CondenserLED_Start();
  75              		.loc 1 1110 0
  76 0002 FFF7FEFF 		bl	PWM_CondenserLED_Start
  77              	.LVL0:
1111:AS76.c        ****     PWM_CondenserLED_WriteCompare(PWM_Condenser_comare_value); 
  78              		.loc 1 1111 0
  79 0006 114B     		ldr	r3, .L7
  80 0008 1888     		ldrh	r0, [r3]
  81 000a FFF7FEFF 		bl	PWM_CondenserLED_WriteCompare
  82              	.LVL1:
1112:AS76.c        ****     
1113:AS76.c        ****     PWM_BarcodeCondenser_LED_Start();
  83              		.loc 1 1113 0
  84 000e FFF7FEFF 		bl	PWM_BarcodeCondenser_LED_Start
ARM GAS  C:\Users\Revanth\AppData\Local\Temp\ccbqjHa5.s 			page 22


  85              	.LVL2:
1114:AS76.c        ****     PWM_BarcodeCondenser_LED_WriteCompare(2);
  86              		.loc 1 1114 0
  87 0012 0220     		movs	r0, #2
  88 0014 FFF7FEFF 		bl	PWM_BarcodeCondenser_LED_WriteCompare
  89              	.LVL3:
1115:AS76.c        ****     
1116:AS76.c        ****     PWM_Buzzer_Start();
  90              		.loc 1 1116 0
  91 0018 FFF7FEFF 		bl	PWM_Buzzer_Start
  92              	.LVL4:
1117:AS76.c        ****     PWM_Buzzer_WriteCompare(2500);
  93              		.loc 1 1117 0
  94 001c 40F6C410 		movw	r0, #2500
  95 0020 FFF7FEFF 		bl	PWM_Buzzer_WriteCompare
  96              	.LVL5:
1118:AS76.c        ****     CyDelay(200);
  97              		.loc 1 1118 0
  98 0024 C820     		movs	r0, #200
  99 0026 FFF7FEFF 		bl	CyDelay
 100              	.LVL6:
1119:AS76.c        ****     PWM_Buzzer_WriteCompare(0);
 101              		.loc 1 1119 0
 102 002a 0020     		movs	r0, #0
 103 002c FFF7FEFF 		bl	PWM_Buzzer_WriteCompare
 104              	.LVL7:
1120:AS76.c        ****     CyDelay(200);
 105              		.loc 1 1120 0
 106 0030 C820     		movs	r0, #200
 107 0032 FFF7FEFF 		bl	CyDelay
 108              	.LVL8:
1121:AS76.c        ****     PWM_Buzzer_WriteCompare(2500);
 109              		.loc 1 1121 0
 110 0036 40F6C410 		movw	r0, #2500
 111 003a FFF7FEFF 		bl	PWM_Buzzer_WriteCompare
 112              	.LVL9:
1122:AS76.c        ****     CyDelay(200);
 113              		.loc 1 1122 0
 114 003e C820     		movs	r0, #200
 115 0040 FFF7FEFF 		bl	CyDelay
 116              	.LVL10:
1123:AS76.c        ****     PWM_Buzzer_WriteCompare(0);
 117              		.loc 1 1123 0
 118 0044 0020     		movs	r0, #0
 119 0046 FFF7FEFF 		bl	PWM_Buzzer_WriteCompare
 120              	.LVL11:
 121 004a 08BD     		pop	{r3, pc}
 122              	.L8:
 123              		.align	2
 124              	.L7:
 125 004c 00000000 		.word	.LANCHOR1
 126              		.cfi_endproc
 127              	.LFE80:
 128              		.size	Initialize_PWM, .-Initialize_PWM
 129              		.section	.text.Set_Backlight_LED,"ax",%progbits
 130              		.align	2
 131              		.global	Set_Backlight_LED
ARM GAS  C:\Users\Revanth\AppData\Local\Temp\ccbqjHa5.s 			page 23


 132              		.thumb
 133              		.thumb_func
 134              		.type	Set_Backlight_LED, %function
 135              	Set_Backlight_LED:
 136              	.LFB86:
1124:AS76.c        **** }
1125:AS76.c        **** int set_BarcodeCondenser_LED()//Set Barcode Condenser LED light intensity
1126:AS76.c        **** {
1127:AS76.c        ****     PWM_barcode_comare_value = ((unsigned int)USB_received[3] << 8) + USB_received[2];  //Read LED 
1128:AS76.c        ****     PWM_BarcodeCondenser_LED_WriteCompare((PWM_barcode_comare_value*0.6)/10);    //Writing LED valu
1129:AS76.c        ****     Write_Debug_UART_Char("LED Barcode Value Recived--->");
1130:AS76.c        ****     Write_Debug_UART_Int(PWM_barcode_comare_value);
1131:AS76.c        ****     Write_Debug_UART_Char("\r\n");
1132:AS76.c        ****     Write_Debug_UART_Char("Set Barcode LED Command Executed  \r\n");
1133:AS76.c        ****     return 0;
1134:AS76.c        **** }
1135:AS76.c        **** 
1136:AS76.c        **** int set_CondenserLED()//Set Condenser LED light intensity
1137:AS76.c        **** {
1138:AS76.c        ****     PWM_Condenser_comare_value = ((unsigned int)USB_received[3] << 8) + USB_received[2];  //Read LE
1139:AS76.c        ****     PWM_CondenserLED_WriteCompare((PWM_Condenser_comare_value*0.6)/10);    //Writing LED value in t
1140:AS76.c        ****     Write_Debug_UART_Char(" LED Value Recived--->");
1141:AS76.c        ****     Write_Debug_UART_Int(PWM_Condenser_comare_value);
1142:AS76.c        ****     Write_Debug_UART_Char("\r\n");
1143:AS76.c        ****     Write_Debug_UART_Char("Set LED Command Executed  \r\n");
1144:AS76.c        ****     return 0;
1145:AS76.c        **** }
1146:AS76.c        **** 
1147:AS76.c        **** int Beep_Once()//Set Condenser LED light intensity
1148:AS76.c        **** {
1149:AS76.c        ****     PWM_Buzzer_WriteCompare(2500);
1150:AS76.c        ****     CyDelay(200);
1151:AS76.c        ****     PWM_Buzzer_WriteCompare(0);
1152:AS76.c        ****     Write_Debug_UART_Char("Beeped Once  \r\n");
1153:AS76.c        ****     return 0;
1154:AS76.c        **** }
1155:AS76.c        **** 
1156:AS76.c        **** int Beep_Twice()//Set Condenser LED light intensity
1157:AS76.c        **** {
1158:AS76.c        ****     PWM_Buzzer_WriteCompare(2500);
1159:AS76.c        ****     CyDelay(200);
1160:AS76.c        ****     PWM_Buzzer_WriteCompare(0);
1161:AS76.c        ****     CyDelay(200);
1162:AS76.c        ****     PWM_Buzzer_WriteCompare(2500);
1163:AS76.c        ****     CyDelay(200);
1164:AS76.c        ****     PWM_Buzzer_WriteCompare(0);
1165:AS76.c        ****     Write_Debug_UART_Char("Beeped Twice  \r\n");
1166:AS76.c        ****     return 0;
1167:AS76.c        **** }
1168:AS76.c        **** 
1169:AS76.c        **** int Long_Beep()//Set Condenser LED light intensity
1170:AS76.c        **** {
1171:AS76.c        ****     PWM_Buzzer_WriteCompare(2500);
1172:AS76.c        ****     CyDelay(2000);
1173:AS76.c        ****     PWM_Buzzer_WriteCompare(0);
1174:AS76.c        ****     CyDelay(200);
1175:AS76.c        ****     
ARM GAS  C:\Users\Revanth\AppData\Local\Temp\ccbqjHa5.s 			page 24


1176:AS76.c        ****     Write_Debug_UART_Char("Beeped Long  \r\n");
1177:AS76.c        ****     return 0;
1178:AS76.c        **** }
1179:AS76.c        **** 
1180:AS76.c        **** //PWM Functions Stop-------------------------------------------------------
1181:AS76.c        **** 
1182:AS76.c        **** void Set_Backlight_LED(uint8_t value)
1183:AS76.c        **** {
 137              		.loc 1 1183 0
 138              		.cfi_startproc
 139              		@ args = 0, pretend = 0, frame = 0
 140              		@ frame_needed = 0, uses_anonymous_args = 0
 141              	.LVL12:
 142 0000 08B5     		push	{r3, lr}
 143              		.cfi_def_cfa_offset 8
 144              		.cfi_offset 3, -8
 145              		.cfi_offset 14, -4
1184:AS76.c        ****     Pin_Backlight_Write(value);
 146              		.loc 1 1184 0
 147 0002 FFF7FEFF 		bl	Pin_Backlight_Write
 148              	.LVL13:
 149 0006 08BD     		pop	{r3, pc}
 150              		.cfi_endproc
 151              	.LFE86:
 152              		.size	Set_Backlight_LED, .-Set_Backlight_LED
 153              		.section	.text.Enable_Encoder_T,"ax",%progbits
 154              		.align	2
 155              		.global	Enable_Encoder_T
 156              		.thumb
 157              		.thumb_func
 158              		.type	Enable_Encoder_T, %function
 159              	Enable_Encoder_T:
 160              	.LFB88:
1185:AS76.c        **** }
1186:AS76.c        **** 
1187:AS76.c        **** //Optical Decoder Functions Start-------------------------------------------------------
1188:AS76.c        **** void Initialize_And_Start_All_Opt_Encoder()//Initialize and start Interrupt for XY encoder count an
1189:AS76.c        **** {   
1190:AS76.c        ****     X_QuadPosition = 0;
1191:AS76.c        ****     Y_QuadPosition = 0;
1192:AS76.c        ****     Z_QuadPosition =0 ;
1193:AS76.c        ****     T_QuadPosition=0;
1194:AS76.c        ****     QuadDec_TZ_Start();
1195:AS76.c        ****     QuadDec_Y_Start();
1196:AS76.c        ****     QuadDec_X_Start();
1197:AS76.c        **** 
1198:AS76.c        ****     Enable_Encoder_Z(0);
1199:AS76.c        ****     Enable_Encoder_T(0);
1200:AS76.c        **** }
1201:AS76.c        **** 
1202:AS76.c        **** 
1203:AS76.c        **** void Enable_Encoder_T(int steps)
1204:AS76.c        **** {
 161              		.loc 1 1204 0
 162              		.cfi_startproc
 163              		@ args = 0, pretend = 0, frame = 0
 164              		@ frame_needed = 0, uses_anonymous_args = 0
ARM GAS  C:\Users\Revanth\AppData\Local\Temp\ccbqjHa5.s 			page 25


 165              	.LVL14:
 166 0000 10B5     		push	{r4, lr}
 167              		.cfi_def_cfa_offset 8
 168              		.cfi_offset 4, -8
 169              		.cfi_offset 14, -4
1205:AS76.c        ****     EncoderTZSelect = 0; // 0 for T and 1 for Z
 170              		.loc 1 1205 0
 171 0002 0024     		movs	r4, #0
 172 0004 034B     		ldr	r3, .L13
 173 0006 5C60     		str	r4, [r3, #4]
1206:AS76.c        ****     QuadDec_TZ_SetCounter(steps);      
 174              		.loc 1 1206 0
 175 0008 FFF7FEFF 		bl	QuadDec_TZ_SetCounter
 176              	.LVL15:
1207:AS76.c        ****     Encoder_T_Z_Select_Write(0);
 177              		.loc 1 1207 0
 178 000c 2046     		mov	r0, r4
 179 000e FFF7FEFF 		bl	Encoder_T_Z_Select_Write
 180              	.LVL16:
 181 0012 10BD     		pop	{r4, pc}
 182              	.L14:
 183              		.align	2
 184              	.L13:
 185 0014 00000000 		.word	.LANCHOR0
 186              		.cfi_endproc
 187              	.LFE88:
 188              		.size	Enable_Encoder_T, .-Enable_Encoder_T
 189              		.section	.text.Enable_Encoder_Z,"ax",%progbits
 190              		.align	2
 191              		.global	Enable_Encoder_Z
 192              		.thumb
 193              		.thumb_func
 194              		.type	Enable_Encoder_Z, %function
 195              	Enable_Encoder_Z:
 196              	.LFB89:
1208:AS76.c        **** }
1209:AS76.c        **** 
1210:AS76.c        **** void Enable_Encoder_Z(int steps)
1211:AS76.c        **** {
 197              		.loc 1 1211 0
 198              		.cfi_startproc
 199              		@ args = 0, pretend = 0, frame = 0
 200              		@ frame_needed = 0, uses_anonymous_args = 0
 201              	.LVL17:
 202 0000 10B5     		push	{r4, lr}
 203              		.cfi_def_cfa_offset 8
 204              		.cfi_offset 4, -8
 205              		.cfi_offset 14, -4
1212:AS76.c        ****     EncoderTZSelect = 1; // 0 for T and 1 for Z
 206              		.loc 1 1212 0
 207 0002 0124     		movs	r4, #1
 208 0004 034B     		ldr	r3, .L17
 209 0006 5C60     		str	r4, [r3, #4]
1213:AS76.c        ****     QuadDec_TZ_SetCounter(steps);
 210              		.loc 1 1213 0
 211 0008 FFF7FEFF 		bl	QuadDec_TZ_SetCounter
 212              	.LVL18:
ARM GAS  C:\Users\Revanth\AppData\Local\Temp\ccbqjHa5.s 			page 26


1214:AS76.c        ****     Encoder_T_Z_Select_Write(1);
 213              		.loc 1 1214 0
 214 000c 2046     		mov	r0, r4
 215 000e FFF7FEFF 		bl	Encoder_T_Z_Select_Write
 216              	.LVL19:
 217 0012 10BD     		pop	{r4, pc}
 218              	.L18:
 219              		.align	2
 220              	.L17:
 221 0014 00000000 		.word	.LANCHOR0
 222              		.cfi_endproc
 223              	.LFE89:
 224              		.size	Enable_Encoder_Z, .-Enable_Encoder_Z
 225              		.section	.text.Initialize_And_Start_All_Opt_Encoder,"ax",%progbits
 226              		.align	2
 227              		.global	Initialize_And_Start_All_Opt_Encoder
 228              		.thumb
 229              		.thumb_func
 230              		.type	Initialize_And_Start_All_Opt_Encoder, %function
 231              	Initialize_And_Start_All_Opt_Encoder:
 232              	.LFB87:
1189:AS76.c        ****     X_QuadPosition = 0;
 233              		.loc 1 1189 0
 234              		.cfi_startproc
 235              		@ args = 0, pretend = 0, frame = 0
 236              		@ frame_needed = 0, uses_anonymous_args = 0
 237 0000 10B5     		push	{r4, lr}
 238              		.cfi_def_cfa_offset 8
 239              		.cfi_offset 4, -8
 240              		.cfi_offset 14, -4
1190:AS76.c        ****     Y_QuadPosition = 0;
 241              		.loc 1 1190 0
 242 0002 094B     		ldr	r3, .L21
 243 0004 0024     		movs	r4, #0
 244 0006 9C60     		str	r4, [r3, #8]
1191:AS76.c        ****     Z_QuadPosition =0 ;
 245              		.loc 1 1191 0
 246 0008 DC60     		str	r4, [r3, #12]
1192:AS76.c        ****     T_QuadPosition=0;
 247              		.loc 1 1192 0
 248 000a 1C61     		str	r4, [r3, #16]
1193:AS76.c        ****     QuadDec_TZ_Start();
 249              		.loc 1 1193 0
 250 000c 5C61     		str	r4, [r3, #20]
1194:AS76.c        ****     QuadDec_Y_Start();
 251              		.loc 1 1194 0
 252 000e FFF7FEFF 		bl	QuadDec_TZ_Start
 253              	.LVL20:
1195:AS76.c        ****     QuadDec_X_Start();
 254              		.loc 1 1195 0
 255 0012 FFF7FEFF 		bl	QuadDec_Y_Start
 256              	.LVL21:
1196:AS76.c        **** 
 257              		.loc 1 1196 0
 258 0016 FFF7FEFF 		bl	QuadDec_X_Start
 259              	.LVL22:
1198:AS76.c        ****     Enable_Encoder_T(0);
ARM GAS  C:\Users\Revanth\AppData\Local\Temp\ccbqjHa5.s 			page 27


 260              		.loc 1 1198 0
 261 001a 2046     		mov	r0, r4
 262 001c FFF7FEFF 		bl	Enable_Encoder_Z
 263              	.LVL23:
1199:AS76.c        **** }
 264              		.loc 1 1199 0
 265 0020 2046     		mov	r0, r4
 266 0022 FFF7FEFF 		bl	Enable_Encoder_T
 267              	.LVL24:
 268 0026 10BD     		pop	{r4, pc}
 269              	.L22:
 270              		.align	2
 271              	.L21:
 272 0028 00000000 		.word	.LANCHOR0
 273              		.cfi_endproc
 274              	.LFE87:
 275              		.size	Initialize_And_Start_All_Opt_Encoder, .-Initialize_And_Start_All_Opt_Encoder
 276              		.section	.text.Read_All_Optical_Encoder,"ax",%progbits
 277              		.align	2
 278              		.global	Read_All_Optical_Encoder
 279              		.thumb
 280              		.thumb_func
 281              		.type	Read_All_Optical_Encoder, %function
 282              	Read_All_Optical_Encoder:
 283              	.LFB90:
1215:AS76.c        **** }
1216:AS76.c        **** 
1217:AS76.c        **** void Read_All_Optical_Encoder()//Read all optical encoder value and update XYZ value
1218:AS76.c        **** {
 284              		.loc 1 1218 0
 285              		.cfi_startproc
 286              		@ args = 0, pretend = 0, frame = 0
 287              		@ frame_needed = 0, uses_anonymous_args = 0
 288 0000 10B5     		push	{r4, lr}
 289              		.cfi_def_cfa_offset 8
 290              		.cfi_offset 4, -8
 291              		.cfi_offset 14, -4
1219:AS76.c        ****     if(EncoderTZSelect == 0)
 292              		.loc 1 1219 0
 293 0002 0F4B     		ldr	r3, .L27
 294 0004 5B68     		ldr	r3, [r3, #4]
 295 0006 33B9     		cbnz	r3, .L24
1220:AS76.c        ****     {
1221:AS76.c        ****         T_QuadPosition = -QuadDec_TZ_GetCounter();
 296              		.loc 1 1221 0
 297 0008 FFF7FEFF 		bl	QuadDec_TZ_GetCounter
 298              	.LVL25:
 299 000c 4042     		negs	r0, r0
 300 000e 0C4B     		ldr	r3, .L27
 301 0010 5861     		str	r0, [r3, #20]
1222:AS76.c        ****         Z_QuadPosition = Buffer_Z_QuadPosition;
 302              		.loc 1 1222 0
 303 0012 9A69     		ldr	r2, [r3, #24]
 304 0014 1A61     		str	r2, [r3, #16]
 305              	.L24:
1223:AS76.c        ****     }
1224:AS76.c        ****     if(EncoderTZSelect == 1)
ARM GAS  C:\Users\Revanth\AppData\Local\Temp\ccbqjHa5.s 			page 28


 306              		.loc 1 1224 0
 307 0016 0A4B     		ldr	r3, .L27
 308 0018 5B68     		ldr	r3, [r3, #4]
 309 001a 012B     		cmp	r3, #1
 310 001c 06D1     		bne	.L25
1225:AS76.c        ****     {
1226:AS76.c        ****         T_QuadPosition = Buffer_T_QuadPosition;
 311              		.loc 1 1226 0
 312 001e 084C     		ldr	r4, .L27
 313 0020 E369     		ldr	r3, [r4, #28]
 314 0022 6361     		str	r3, [r4, #20]
1227:AS76.c        ****         Z_QuadPosition = -QuadDec_TZ_GetCounter();
 315              		.loc 1 1227 0
 316 0024 FFF7FEFF 		bl	QuadDec_TZ_GetCounter
 317              	.LVL26:
 318 0028 4042     		negs	r0, r0
 319 002a 2061     		str	r0, [r4, #16]
 320              	.L25:
1228:AS76.c        ****     }
1229:AS76.c        ****     X_QuadPosition = -QuadDec_X_GetCounter();
 321              		.loc 1 1229 0
 322 002c FFF7FEFF 		bl	QuadDec_X_GetCounter
 323              	.LVL27:
 324 0030 4042     		negs	r0, r0
 325 0032 034C     		ldr	r4, .L27
 326 0034 A060     		str	r0, [r4, #8]
1230:AS76.c        ****     Y_QuadPosition = -QuadDec_Y_GetCounter();
 327              		.loc 1 1230 0
 328 0036 FFF7FEFF 		bl	QuadDec_Y_GetCounter
 329              	.LVL28:
 330 003a 4042     		negs	r0, r0
 331 003c E060     		str	r0, [r4, #12]
 332 003e 10BD     		pop	{r4, pc}
 333              	.L28:
 334              		.align	2
 335              	.L27:
 336 0040 00000000 		.word	.LANCHOR0
 337              		.cfi_endproc
 338              	.LFE90:
 339              		.size	Read_All_Optical_Encoder, .-Read_All_Optical_Encoder
 340              		.section	.text.USB_Detect_Indication_Via_LED,"ax",%progbits
 341              		.align	2
 342              		.global	USB_Detect_Indication_Via_LED
 343              		.thumb
 344              		.thumb_func
 345              		.type	USB_Detect_Indication_Via_LED, %function
 346              	USB_Detect_Indication_Via_LED:
 347              	.LFB93:
1231:AS76.c        **** }    
1232:AS76.c        **** //Optical Decoder Functions Stop-------------------------------------------------------
1233:AS76.c        **** 
1234:AS76.c        **** 
1235:AS76.c        **** //USB Functions Start-------------------------------------------------------
1236:AS76.c        **** void Process_USB_Data()/* Process USB incoming data command. */
1237:AS76.c        **** {
1238:AS76.c        ****     //Pin_USB_RX_TX_Indicator_LED_Write(1); /* turn ON LED as a indicator to start process the comm
1239:AS76.c        ****     Error = 0;
ARM GAS  C:\Users\Revanth\AppData\Local\Temp\ccbqjHa5.s 			page 29


1240:AS76.c        ****     command = ((unsigned int)USB_received[1] << 8) + USB_received[0];   /* Reading USB data. */
1241:AS76.c        ****     /*Compare USB data and execute the command*/
1242:AS76.c        **** 
1243:AS76.c        ****     if (command == HomeX)                                          
1244:AS76.c        ****     {
1245:AS76.c        ****         TMC5160_MotorZ_EN_Write(0xFF);
1246:AS76.c        ****         CyDelayUs(500);
1247:AS76.c        ****         TMC5160_MotorY_EN_Write(0xFF);
1248:AS76.c        ****         CyDelayUs(500);
1249:AS76.c        ****         TMC5160_MotorX_EN_Write(0x00);
1250:AS76.c        ****         CyDelayUs(500);
1251:AS76.c        ****         update_max_velocity(381178, TMC5160_nCS_MotorX);
1252:AS76.c        ****         //Write_32bitSPI_DATA (0x26  , (int) 45000, TMC5160_nCS_MotorX );
1253:AS76.c        ****         CyDelay(1);
1254:AS76.c        ****         goTo_X(0);
1255:AS76.c        ****         Write_32bitSPI_DATA (0x10  , (int) 0x00070101, TMC5160_nCS_MotorY );
1256:AS76.c        ****         Write_32bitSPI_DATA (0x10  , (int) 0x00070101, TMC5160_nCS_MotorZ );
1257:AS76.c        ****         Write_32bitSPI_DATA (0x10  , (int) 0x00070407, TMC5160_nCS_MotorX );
1258:AS76.c        ****         homeX(TMC5160_nCS_MotorX);   
1259:AS76.c        ****         //Write_32bitSPI_DATA (0x26  , (int) 0x0000FFFF, TMC5160_nCS_MotorX );
1260:AS76.c        ****         Write_32bitSPI_DATA (0x10  , (int) 0x00070301, TMC5160_nCS_MotorX );
1261:AS76.c        ****         CyDelayUs(500);
1262:AS76.c        ****         TMC5160_MotorZ_EN_Write(0x00);
1263:AS76.c        ****         CyDelayUs(500);
1264:AS76.c        ****         TMC5160_MotorY_EN_Write(0x00);
1265:AS76.c        ****         CyDelayUs(500);
1266:AS76.c        ****         Send_Feedback_to_USB(Error);
1267:AS76.c        ****     
1268:AS76.c        ****     }
1269:AS76.c        ****     else if (command == HomeY)                           
1270:AS76.c        ****     {
1271:AS76.c        ****         TMC5160_MotorZ_EN_Write(0xFF);
1272:AS76.c        ****         CyDelayUs(500);
1273:AS76.c        ****         TMC5160_MotorX_EN_Write(0xFF);
1274:AS76.c        ****         CyDelayUs(500);
1275:AS76.c        ****         TMC5160_MotorY_EN_Write(0x00);
1276:AS76.c        ****         CyDelayUs(500);
1277:AS76.c        ****         //Write_32bitSPI_DATA (0x26  , (int) 45000, TMC5160_nCS_MotorY );
1278:AS76.c        ****         update_max_velocity(381178, TMC5160_nCS_MotorY);
1279:AS76.c        ****         CyDelay(1);
1280:AS76.c        ****         goTo_Y(0);
1281:AS76.c        ****         Write_32bitSPI_DATA (0x10  , (int) 0x00070203, TMC5160_nCS_MotorY );
1282:AS76.c        ****         Write_32bitSPI_DATA (0x10  , (int) 0x00070101, TMC5160_nCS_MotorZ );
1283:AS76.c        ****         Write_32bitSPI_DATA (0x10  , (int) 0x00070301, TMC5160_nCS_MotorX );
1284:AS76.c        ****         homeY(TMC5160_nCS_MotorY);
1285:AS76.c        ****         Write_32bitSPI_DATA (0x10  , (int) 0x00070301, TMC5160_nCS_MotorY );
1286:AS76.c        ****         CyDelayUs(500);
1287:AS76.c        ****         TMC5160_MotorZ_EN_Write(0x00);
1288:AS76.c        ****         CyDelayUs(500);
1289:AS76.c        ****         TMC5160_MotorX_EN_Write(0x00);
1290:AS76.c        ****         CyDelayUs(500);
1291:AS76.c        ****         Send_Feedback_to_USB(Error);
1292:AS76.c        ****         
1293:AS76.c        ****     }
1294:AS76.c        ****     else if (command == HomeZ)                           
1295:AS76.c        ****     {
1296:AS76.c        ****         TMC5160_MotorY_EN_Write(0xFF);
ARM GAS  C:\Users\Revanth\AppData\Local\Temp\ccbqjHa5.s 			page 30


1297:AS76.c        ****         CyDelayUs(500);
1298:AS76.c        ****         TMC5160_MotorX_EN_Write(0xFF);
1299:AS76.c        ****         CyDelayUs(500);
1300:AS76.c        ****         TMC5160_MotorZ_EN_Write(0x00);
1301:AS76.c        ****         CyDelayUs(500);
1302:AS76.c        ****         //Write_32bitSPI_DATA (0x26  , (int) 45000, TMC5160_nCS_MotorZ );
1303:AS76.c        ****         update_max_velocity(53687*2, TMC5160_nCS_MotorZ);
1304:AS76.c        ****         CyDelay(1);
1305:AS76.c        ****         goTo_Z(0);
1306:AS76.c        ****         Write_32bitSPI_DATA (0x10  , (int) 0x00070101, TMC5160_nCS_MotorY );
1307:AS76.c        ****         Write_32bitSPI_DATA (0x10  , (int) 0x00070303, TMC5160_nCS_MotorZ );
1308:AS76.c        ****         Write_32bitSPI_DATA (0x10  , (int) 0x00070301, TMC5160_nCS_MotorX );
1309:AS76.c        ****         homeZ(TMC5160_nCS_MotorZ);
1310:AS76.c        ****         TMC5160_MotorY_EN_Write(0x00);
1311:AS76.c        ****         CyDelayUs(500);
1312:AS76.c        ****         TMC5160_MotorX_EN_Write(0x00);
1313:AS76.c        ****         //Write_32bitSPI_DATA (0x26  , (int) 0x0000FFFF, TMC5160_nCS_MotorZ );
1314:AS76.c        ****         Send_Feedback_to_USB(Error);
1315:AS76.c        ****     }
1316:AS76.c        ****     else if (command == HomeT)                           
1317:AS76.c        ****     {
1318:AS76.c        ****         Write_32bitSPI_DATA (0x10  , (int) 0x00070503, TMC5160_nCS_MotorT ); 
1319:AS76.c        ****         CyDelay(10);
1320:AS76.c        ****         goTo_T(0);
1321:AS76.c        ****         homeT(TMC5160_nCS_MotorT);
1322:AS76.c        ****         Send_Feedback_to_USB(Error);
1323:AS76.c        ****     }
1324:AS76.c        ****     else if (command == GotoX)                           
1325:AS76.c        ****     {
1326:AS76.c        ****         Position_X_Requested = ((int32)USB_received[5] << 24) + ((int32)USB_received[4] << 16) + ((
1327:AS76.c        ****         
1328:AS76.c        ****         {
1329:AS76.c        ****             Position_X_Requested = (int)(Position_X_Requested / 4);
1330:AS76.c        ****             Position_X_Requested = (int)Position_X_Requested * 12.8;
1331:AS76.c        ****             Error = goTo_X(Position_X_Requested);
1332:AS76.c        ****         }
1333:AS76.c        ****         
1334:AS76.c        ****         
1335:AS76.c        ****         
1336:AS76.c        ****         
1337:AS76.c        ****         Write_32bitSPI_DATA (0x10  , (int) 0x0007010A, TMC5160_nCS_MotorX );
1338:AS76.c        ****         CyDelay(10);
1339:AS76.c        ****         Write_32bitSPI_DATA (0x10  , (int) 0x00070102, TMC5160_nCS_MotorY );
1340:AS76.c        ****         Write_32bitSPI_DATA (0x10  , (int) 0x00070102, TMC5160_nCS_MotorZ );
1341:AS76.c        ****         Write_32bitSPI_DATA (0x10  , (int) 0x00070102, TMC5160_nCS_MotorX );
1342:AS76.c        ****         Write_32bitSPI_DATA (0x10  , (int) 0x00070102, TMC5160_nCS_MotorT ); 
1343:AS76.c        ****         Send_Feedback_to_USB(Error);
1344:AS76.c        ****         
1345:AS76.c        ****         
1346:AS76.c        ****     }
1347:AS76.c        ****     else if (command == GotoY)          
1348:AS76.c        ****     {
1349:AS76.c        ****         Position_Y_Requested = ((int32)USB_received[5] << 24) + ((int32)USB_received[4] << 16) + ((
1350:AS76.c        ****         Position_Y_Requested = (int)(Position_Y_Requested / 4);
1351:AS76.c        ****         Position_Y_Requested = (int)(Position_Y_Requested * 12.8);
1352:AS76.c        ****         Error = goTo_Y(Position_Y_Requested);
1353:AS76.c        ****                
ARM GAS  C:\Users\Revanth\AppData\Local\Temp\ccbqjHa5.s 			page 31


1354:AS76.c        ****         Write_32bitSPI_DATA (0x10  , (int) 0x0007010A, TMC5160_nCS_MotorY );
1355:AS76.c        ****         CyDelay(10);        
1356:AS76.c        ****         Write_32bitSPI_DATA (0x10  , (int) 0x00070102, TMC5160_nCS_MotorY );
1357:AS76.c        ****         Write_32bitSPI_DATA (0x10  , (int) 0x00070102, TMC5160_nCS_MotorZ );
1358:AS76.c        ****         Write_32bitSPI_DATA (0x10  , (int) 0x00070102, TMC5160_nCS_MotorX );
1359:AS76.c        ****         Write_32bitSPI_DATA (0x10  , (int) 0x00070102, TMC5160_nCS_MotorT ); 
1360:AS76.c        ****         Send_Feedback_to_USB(Error);
1361:AS76.c        ****     }
1362:AS76.c        ****     else if (command == GotoZ)        
1363:AS76.c        ****     {
1364:AS76.c        ****         Position_Z_Requested = ((int32)USB_received[5] << 24) + ((int32)USB_received[4] << 16) + ((
1365:AS76.c        ****         Position_Z_Requested = (Position_Z_Requested / 16);
1366:AS76.c        ****         Position_Z_Requested = Position_Z_Requested * 51.2;
1367:AS76.c        ****         Error = goTo_Z(Position_Z_Requested);
1368:AS76.c        ****         Send_Feedback_to_USB(Error);
1369:AS76.c        ****     }
1370:AS76.c        ****     else if (command == GotoT)        
1371:AS76.c        ****     {
1372:AS76.c        ****         Write_32bitSPI_DATA (0x10  , (int) 0x00070503, TMC5160_nCS_MotorT ); 
1373:AS76.c        ****         Position_T_Requested = ((int32)USB_received[5] << 24) + ((int32)USB_received[4] << 16) + ((
1374:AS76.c        ****         Position_T_Requested = (Position_T_Requested / 1);
1375:AS76.c        ****         Position_T_Requested = Position_T_Requested * 1;
1376:AS76.c        ****         Error = goTo_T(Position_T_Requested);
1377:AS76.c        ****         Send_Feedback_to_USB(Error);
1378:AS76.c        ****         Write_32bitSPI_DATA (0x10  , (int) 0x00070303, TMC5160_nCS_MotorT );
1379:AS76.c        ****    
1380:AS76.c        ****     }
1381:AS76.c        ****     else if ( command == Set_OilDispenser )
1382:AS76.c        ****     {
1383:AS76.c        ****         int time_ms=0;
1384:AS76.c        ****         uint8_t direction=0;
1385:AS76.c        ****         time_ms = ((int32)USB_received[5] << 24) + ((int32)USB_received[4] << 16) + ((int32)USB_rec
1386:AS76.c        ****         if((USB_received[6] == 0x00) || (USB_received[6] == 0x01))
1387:AS76.c        ****         {
1388:AS76.c        ****             CyDelayUs(10);
1389:AS76.c        ****         }
1390:AS76.c        ****         else
1391:AS76.c        ****         {
1392:AS76.c        ****           USB_received[6] = 0x00;
1393:AS76.c        ****         }
1394:AS76.c        ****         
1395:AS76.c        ****         direction = USB_received[6];
1396:AS76.c        ****         run_pump (time_ms, direction);
1397:AS76.c        ****         Send_Feedback_to_USB(Error);
1398:AS76.c        ****     }
1399:AS76.c        ****     
1400:AS76.c        ****     else if (command == GotoXYZ)
1401:AS76.c        ****     {
1402:AS76.c        ****         Position_X_Requested = ((int32)USB_received[5] << 24) + ((int32)USB_received[4] << 16) + ((
1403:AS76.c        ****         Position_Y_Requested = ((int32)USB_received[9] << 24) + ((int32)USB_received[8] << 16) + ((
1404:AS76.c        ****         Position_Z_Requested = ((int32)USB_received[13] << 24) + ((int32)USB_received[12] << 16) + 
1405:AS76.c        ****         
1406:AS76.c        ****         if(Position_X_Requested >= 0)
1407:AS76.c        ****         {        
1408:AS76.c        ****         Position_X_Requested = (Position_X_Requested / 4);
1409:AS76.c        ****         Position_X_Requested = Position_X_Requested * 12.8;
1410:AS76.c        ****         }
ARM GAS  C:\Users\Revanth\AppData\Local\Temp\ccbqjHa5.s 			page 32


1411:AS76.c        ****         if(Position_Y_Requested >= 0)
1412:AS76.c        ****         { 
1413:AS76.c        ****         Position_Y_Requested = (Position_Y_Requested / 4);
1414:AS76.c        ****         Position_Y_Requested = Position_Y_Requested * 12.8;
1415:AS76.c        ****         }
1416:AS76.c        ****         if(Position_Z_Requested >= 0)
1417:AS76.c        ****         { 
1418:AS76.c        ****         Position_Z_Requested = (Position_Z_Requested / 16);
1419:AS76.c        ****         Position_Z_Requested = Position_Z_Requested * 51.2;
1420:AS76.c        ****         }
1421:AS76.c        ****         
1422:AS76.c        ****         Error = goTo_XYZ(Position_X_Requested, Position_Y_Requested, Position_Z_Requested);
1423:AS76.c        ****         CyDelay(10);
1424:AS76.c        ****         Write_32bitSPI_DATA (0x10  , (int) 0x00070103, TMC5160_nCS_MotorY );
1425:AS76.c        ****         Write_32bitSPI_DATA (0x10  , (int) 0x00070103, TMC5160_nCS_MotorZ );
1426:AS76.c        ****         Write_32bitSPI_DATA (0x10  , (int) 0x00070103, TMC5160_nCS_MotorX );
1427:AS76.c        ****         Write_32bitSPI_DATA (0x10  , (int) 0x00070103, TMC5160_nCS_MotorT );
1428:AS76.c        ****         Send_Feedback_to_USB(Error);
1429:AS76.c        ****     }
1430:AS76.c        ****     
1431:AS76.c        ****     else if (command == Set_LED_voltage)
1432:AS76.c        ****     { 
1433:AS76.c        ****         set_CondenserLED();
1434:AS76.c        ****         CyDelay(100);
1435:AS76.c        ****         Send_Feedback_to_USB(Error);  
1436:AS76.c        ****     }
1437:AS76.c        ****     
1438:AS76.c        ****     else if (command == Set_BarClight)
1439:AS76.c        ****     {
1440:AS76.c        ****         set_BarcodeCondenser_LED();
1441:AS76.c        ****         CyDelay(100);
1442:AS76.c        ****         Send_Feedback_to_USB(Error);  
1443:AS76.c        ****     }
1444:AS76.c        ****     
1445:AS76.c        ****     else if (command == Set_Backlight)
1446:AS76.c        ****     {
1447:AS76.c        ****         uint8_t value=0;
1448:AS76.c        ****         value = USB_received[2];
1449:AS76.c        ****         if(value == 0)
1450:AS76.c        ****         {
1451:AS76.c        ****         value = 0x00;
1452:AS76.c        ****         }
1453:AS76.c        ****         else if(value == 1)
1454:AS76.c        ****         {
1455:AS76.c        ****         value =0xFF;
1456:AS76.c        ****         }
1457:AS76.c        ****         else
1458:AS76.c        ****         {
1459:AS76.c        ****         Write_Debug_UART_Char("Backlight LED wronf Value Provided  \r\n");
1460:AS76.c        ****         }
1461:AS76.c        ****        
1462:AS76.c        ****         Pin_Backlight_Write(value);
1463:AS76.c        ****         Send_Feedback_to_USB(Error);
1464:AS76.c        ****     }
1465:AS76.c        ****     
1466:AS76.c        ****     else if (command == PCB_Reset)                     
1467:AS76.c        ****     {
ARM GAS  C:\Users\Revanth\AppData\Local\Temp\ccbqjHa5.s 			page 33


1468:AS76.c        ****         Write_Debug_UART_Char("PCB Reset Command Recived  \r\n");
1469:AS76.c        ****         Write_Debug_UART_Char("\r\n");
1470:AS76.c        ****         CyDelay(500);
1471:AS76.c        ****         Send_Feedback_to_USB(0);
1472:AS76.c        ****         CyDelay(500);
1473:AS76.c        ****         CySoftwareReset();
1474:AS76.c        ****     }
1475:AS76.c        ****     else if(command == SetSpeed)  
1476:AS76.c        ****     {
1477:AS76.c        ****         
1478:AS76.c        ****         Motor_Speed_X = ((int32)USB_received[5] << 24) + ((int32)USB_received[4] << 16) + ((int32)U
1479:AS76.c        ****         Motor_Speed_Y = ((int32)USB_received[9] << 24) + ((int32)USB_received[8] << 16) + ((int32)U
1480:AS76.c        ****         Motor_Speed_Z = ((int32)USB_received[13] << 24) + ((int32)USB_received[12] << 16) + ((int32
1481:AS76.c        ****         
1482:AS76.c        ****         Write_Debug_UART_Char("SetNoOfExecution Command Recived  \r\n");
1483:AS76.c        ****         
1484:AS76.c        ****         update_max_velocity(Motor_Speed_X, TMC5160_nCS_MotorX);        
1485:AS76.c        ****         update_max_velocity(Motor_Speed_Y, TMC5160_nCS_MotorY);        
1486:AS76.c        ****         update_max_velocity(Motor_Speed_Z, TMC5160_nCS_MotorZ);
1487:AS76.c        ****         Write_Debug_UART_Char("Value received for x,y and z is --->");
1488:AS76.c        ****         Write_Debug_UART_Int(Motor_Speed_X);
1489:AS76.c        ****         Write_Debug_UART_Char(",");
1490:AS76.c        ****         Write_Debug_UART_Int(Motor_Speed_Y);
1491:AS76.c        ****         Write_Debug_UART_Char(",");
1492:AS76.c        ****         Write_Debug_UART_Int(Motor_Speed_Z);
1493:AS76.c        ****         Write_Debug_UART_Char(",");
1494:AS76.c        ****         Send_Feedback_to_USB(Error);
1495:AS76.c        ****     }
1496:AS76.c        ****     
1497:AS76.c        ****     else if(command == GotoZ_Vs)
1498:AS76.c        ****     {
1499:AS76.c        ****     Position_Z_Requested = ((int32)USB_received[5] << 24) + ((int32)USB_received[4] << 16) + ((int3
1500:AS76.c        ****     Motor_Speed_Z = ((int32)USB_received[9] << 24) + ((int32)USB_received[8] << 16) + ((int32)USB_r
1501:AS76.c        ****     update_max_velocity(Motor_Speed_Z,TMC5160_nCS_MotorZ);    
1502:AS76.c        ****     Position_Z_Requested = (Position_Z_Requested / 16);
1503:AS76.c        ****     Position_Z_Requested = Position_Z_Requested * 51.2;
1504:AS76.c        ****     goTo_Z(Position_Z_Requested);
1505:AS76.c        ****     Send_Feedback_to_USB(Error);
1506:AS76.c        ****     }
1507:AS76.c        ****     
1508:AS76.c        ****     else if(command == GotoO_Vs)
1509:AS76.c        ****     {        
1510:AS76.c        ****     time_ms   = ((int32)USB_received[5] << 24) + ((int32)USB_received[4] << 16) + ((int32)USB_recei
1511:AS76.c        ****     oil_speed = ((int32)USB_received[9] << 24) + ((int32)USB_received[8] << 16) + ((int32)USB_recei
1512:AS76.c        ****     oil_dir   = USB_received[10];
1513:AS76.c        ****     run_pumpvs (time_ms, oil_speed, oil_dir);
1514:AS76.c        ****     Error = 0;
1515:AS76.c        ****     Send_Feedback_to_USB(Error);
1516:AS76.c        ****     }
1517:AS76.c        ****     
1518:AS76.c        ****     else if (command == GotoXYZ_Vs)
1519:AS76.c        ****     {
1520:AS76.c        ****         Position_X_Requested = ((int32)USB_received[5] << 24) + ((int32)USB_received[4] << 16) + ((
1521:AS76.c        ****         Position_Y_Requested = ((int32)USB_received[9] << 24) + ((int32)USB_received[8] << 16) + ((
1522:AS76.c        ****         Position_Z_Requested = ((int32)USB_received[13] << 24) + ((int32)USB_received[12] << 16) + 
1523:AS76.c        ****         
1524:AS76.c        ****         Motor_Speed_X = ((int32)USB_received[17] << 24) + ((int32)USB_received[16] << 16) + ((int32
ARM GAS  C:\Users\Revanth\AppData\Local\Temp\ccbqjHa5.s 			page 34


1525:AS76.c        ****         Motor_Speed_Y = ((int32)USB_received[21] << 24) + ((int32)USB_received[20] << 16) + ((int32
1526:AS76.c        ****         Motor_Speed_Z = ((int32)USB_received[25] << 24) + ((int32)USB_received[24] << 16) + ((int32
1527:AS76.c        ****         
1528:AS76.c        ****         CyDelayUs(10);
1529:AS76.c        ****         
1530:AS76.c        ****         update_max_velocity(Motor_Speed_X, TMC5160_nCS_MotorX);        
1531:AS76.c        ****         update_max_velocity(Motor_Speed_Y, TMC5160_nCS_MotorY);        
1532:AS76.c        ****         update_max_velocity(Motor_Speed_Z, TMC5160_nCS_MotorZ);
1533:AS76.c        ****         
1534:AS76.c        ****         Position_X_Requested = (Position_X_Requested / 4);
1535:AS76.c        ****         Position_X_Requested = Position_X_Requested * 12.8;
1536:AS76.c        ****         
1537:AS76.c        ****         Position_Y_Requested = (Position_Y_Requested / 4);
1538:AS76.c        ****         Position_Y_Requested = Position_Y_Requested * 12.8;
1539:AS76.c        ****         
1540:AS76.c        ****         Position_Z_Requested = (Position_Z_Requested / 16);
1541:AS76.c        ****         Position_Z_Requested = Position_Z_Requested * 51.2;
1542:AS76.c        ****         
1543:AS76.c        ****         CyDelayUs(100);
1544:AS76.c        ****         
1545:AS76.c        ****         Error = goTo_XYZ(Position_X_Requested, Position_Y_Requested, Position_Z_Requested);
1546:AS76.c        ****         CyDelay(100);
1547:AS76.c        ****         Send_Feedback_to_USB(Error);
1548:AS76.c        ****     }
1549:AS76.c        ****     else if (command == SetNoOfExecution)
1550:AS76.c        ****     {
1551:AS76.c        ****         //set_no_of_execution();
1552:AS76.c        ****         
1553:AS76.c        ****         Send_Feedback_to_USB(Error);   
1554:AS76.c        ****     }
1555:AS76.c        ****     else if (command == Get_Status)                          
1556:AS76.c        ****     {
1557:AS76.c        ****         LED3_Write(0xFF);
1558:AS76.c        ****         Write_Debug_UART_Char("Get Status Command Recived  \r\n");
1559:AS76.c        ****         CyDelay(10);
1560:AS76.c        ****         Send_Feedback_to_USB(0);
1561:AS76.c        ****         LED3_Write(0x00);
1562:AS76.c        ****     }
1563:AS76.c        ****     else
1564:AS76.c        ****     {
1565:AS76.c        ****         Error = 19;//Wrong_Command_Received
1566:AS76.c        ****         Write_Debug_UART_Char("Wrong Command Received*********** \r\n");
1567:AS76.c        ****         UART_print_all_values();
1568:AS76.c        ****         Send_Feedback_to_USB(19);
1569:AS76.c        ****     }
1570:AS76.c        ****     //Pin_USB_RX_TX_Indicator_LED_Write(0);/* turn OFF LED as a indicator to stop process the comma
1571:AS76.c        **** }
1572:AS76.c        **** void Send_Feedback_to_USB(int Error)//Send Feedback to USB if USB command executed correctely 
1573:AS76.c        **** {
1574:AS76.c        ****      Read_All_Optical_Encoder();
1575:AS76.c        **** 
1576:AS76.c        ****     
1577:AS76.c        ****     
1578:AS76.c        ****         if(Error == 0)
1579:AS76.c        ****         {            
1580:AS76.c        ****             USB_transmit[0] = command;
1581:AS76.c        ****             USB_transmit[1] = (command >> 8);
ARM GAS  C:\Users\Revanth\AppData\Local\Temp\ccbqjHa5.s 			page 35


1582:AS76.c        ****             USB_transmit[2] = No_Error;
1583:AS76.c        ****             USB_transmit[3] = No_Error >> 8;
1584:AS76.c        ****         }
1585:AS76.c        ****         else
1586:AS76.c        ****         {
1587:AS76.c        ****             switch(Error)
1588:AS76.c        ****             {
1589:AS76.c        ****                 case 1:
1590:AS76.c        ****                 {
1591:AS76.c        ****                     USB_transmit[2] = X_Motor_Not_Working;
1592:AS76.c        ****                     USB_transmit[3] = X_Motor_Not_Working >> 8; 
1593:AS76.c        ****                     break;
1594:AS76.c        ****                 }
1595:AS76.c        ****                 case 2:
1596:AS76.c        ****                 {
1597:AS76.c        ****                     USB_transmit[2] = X_Encoder_Not_Working;
1598:AS76.c        ****                     USB_transmit[3] = X_Encoder_Not_Working >> 8; 
1599:AS76.c        ****                     break;
1600:AS76.c        ****                 }
1601:AS76.c        ****                 case 3:
1602:AS76.c        ****                 {
1603:AS76.c        ****                     USB_transmit[2] = X_Switch_Not_Working;
1604:AS76.c        ****                     USB_transmit[3] = X_Switch_Not_Working >> 8; 
1605:AS76.c        ****                     break;
1606:AS76.c        ****                 }
1607:AS76.c        ****                 case 4:
1608:AS76.c        ****                 {
1609:AS76.c        ****                     USB_transmit[2] = X_Motor_Driver_Fault;
1610:AS76.c        ****                     USB_transmit[3] = X_Motor_Driver_Fault >> 8; 
1611:AS76.c        ****                     break;
1612:AS76.c        ****                 }
1613:AS76.c        ****                 case 5:
1614:AS76.c        ****                 {
1615:AS76.c        ****                     USB_transmit[2] = Requested_X_Step_Exceeding_The_Limit;
1616:AS76.c        ****                     USB_transmit[3] = Requested_X_Step_Exceeding_The_Limit >> 8; 
1617:AS76.c        ****                     break;
1618:AS76.c        ****                 }
1619:AS76.c        ****                 case 6:
1620:AS76.c        ****                 {
1621:AS76.c        ****                     USB_transmit[2] = X_Homing_Not_Done_Yet;
1622:AS76.c        ****                     USB_transmit[3] = X_Homing_Not_Done_Yet >> 8; 
1623:AS76.c        ****                     break;
1624:AS76.c        ****                 }
1625:AS76.c        ****                 case 7:
1626:AS76.c        ****                 {
1627:AS76.c        ****                     USB_transmit[2] = X_Motor_Busy ;
1628:AS76.c        ****                     USB_transmit[3] = X_Motor_Busy >> 8; 
1629:AS76.c        ****                     break;
1630:AS76.c        ****                 }
1631:AS76.c        ****                 case 8:
1632:AS76.c        ****                 {
1633:AS76.c        ****                     USB_transmit[2] = Y_Motor_Not_Working;
1634:AS76.c        ****                     USB_transmit[3] = Y_Motor_Not_Working >> 8; 
1635:AS76.c        ****                     break;
1636:AS76.c        ****                 }
1637:AS76.c        ****                 case 9:
1638:AS76.c        ****                 {
ARM GAS  C:\Users\Revanth\AppData\Local\Temp\ccbqjHa5.s 			page 36


1639:AS76.c        ****                     USB_transmit[2] = Y_Encoder_Not_Working;
1640:AS76.c        ****                     USB_transmit[3] = Y_Encoder_Not_Working >> 8; 
1641:AS76.c        ****                     break;
1642:AS76.c        ****                 }
1643:AS76.c        ****                 case 10:
1644:AS76.c        ****                 {
1645:AS76.c        ****                     USB_transmit[2] = Y_Switch_Not_Working;
1646:AS76.c        ****                     USB_transmit[3] = Y_Switch_Not_Working >> 8; 
1647:AS76.c        ****                     break;
1648:AS76.c        ****                 }
1649:AS76.c        ****                 case 11:
1650:AS76.c        ****                 {
1651:AS76.c        ****                     USB_transmit[2] = Y_Motor_Driver_Fault;
1652:AS76.c        ****                     USB_transmit[3] = Y_Motor_Driver_Fault >> 8; 
1653:AS76.c        ****                     break;
1654:AS76.c        ****                 }
1655:AS76.c        ****                 case 12:
1656:AS76.c        ****                 {
1657:AS76.c        ****                     USB_transmit[2] = Requested_Y_Step_Exceeding_The_Limit;
1658:AS76.c        ****                     USB_transmit[3] = Requested_Y_Step_Exceeding_The_Limit >> 8; 
1659:AS76.c        ****                     break;
1660:AS76.c        ****                 }
1661:AS76.c        ****                 case 13:
1662:AS76.c        ****                 {
1663:AS76.c        ****                     USB_transmit[2] = Y_Homing_Not_Done_Yet;
1664:AS76.c        ****                     USB_transmit[3] = Y_Homing_Not_Done_Yet >> 8; 
1665:AS76.c        ****                     break;
1666:AS76.c        ****                 }
1667:AS76.c        ****                 case 14:
1668:AS76.c        ****                 {
1669:AS76.c        ****                     USB_transmit[2] = Y_Motor_Busy;
1670:AS76.c        ****                     USB_transmit[3] = Y_Motor_Busy >> 8; 
1671:AS76.c        ****                     break;
1672:AS76.c        ****                 }
1673:AS76.c        ****                 case 15:
1674:AS76.c        ****                 {
1675:AS76.c        ****                     USB_transmit[2] = Z_Motor_Not_Working ;
1676:AS76.c        ****                     USB_transmit[3] = Z_Motor_Not_Working >> 8; 
1677:AS76.c        ****                     break;
1678:AS76.c        ****                 }
1679:AS76.c        ****                 case 16:
1680:AS76.c        ****                 {
1681:AS76.c        ****                     USB_transmit[2] = Z_Encoder_Not_Working ;
1682:AS76.c        ****                     USB_transmit[3] = Z_Encoder_Not_Working >> 8; 
1683:AS76.c        ****                     break;
1684:AS76.c        ****                 }
1685:AS76.c        ****                 case 17:
1686:AS76.c        ****                 {
1687:AS76.c        ****                     USB_transmit[2] = Z_Switch_Not_Working;
1688:AS76.c        ****                     USB_transmit[3] = Z_Switch_Not_Working >> 8; 
1689:AS76.c        ****                     break;
1690:AS76.c        ****                 }
1691:AS76.c        ****                 case 18:
1692:AS76.c        ****                 {
1693:AS76.c        ****                     USB_transmit[2] = Z_Motor_Driver_Fault;
1694:AS76.c        ****                     USB_transmit[3] = Z_Motor_Driver_Fault >> 8; 
1695:AS76.c        ****                     break;
ARM GAS  C:\Users\Revanth\AppData\Local\Temp\ccbqjHa5.s 			page 37


1696:AS76.c        ****                 }
1697:AS76.c        ****                 case 19:
1698:AS76.c        ****                 {
1699:AS76.c        ****                     USB_transmit[2] = Requested_Z_Step_Exceeding_The_Limit;
1700:AS76.c        ****                     USB_transmit[3] = Requested_Z_Step_Exceeding_The_Limit >> 8; 
1701:AS76.c        ****                     break;
1702:AS76.c        ****                 }
1703:AS76.c        ****                 case 20:
1704:AS76.c        ****                 {
1705:AS76.c        ****                     USB_transmit[2] = Z_Homing_Not_Done_Yet;
1706:AS76.c        ****                     USB_transmit[3] = Z_Homing_Not_Done_Yet >> 8; 
1707:AS76.c        ****                     break;
1708:AS76.c        ****                 }
1709:AS76.c        ****                 case 21:
1710:AS76.c        ****                 {
1711:AS76.c        ****                     USB_transmit[2] = Z_Motor_Busy;
1712:AS76.c        ****                     USB_transmit[3] = Z_Motor_Busy >> 8; 
1713:AS76.c        ****                     break;
1714:AS76.c        ****                 }
1715:AS76.c        ****                 case 22:
1716:AS76.c        ****                 {
1717:AS76.c        ****                     USB_transmit[2] = T_Motor_Not_Working;
1718:AS76.c        ****                     USB_transmit[3] =  T_Motor_Not_Working>> 8; 
1719:AS76.c        ****                     break;
1720:AS76.c        ****                 }
1721:AS76.c        ****                 case 23:
1722:AS76.c        ****                 {
1723:AS76.c        ****                     USB_transmit[2] = T_Encoder_Not_Working;
1724:AS76.c        ****                     USB_transmit[3] =  T_Encoder_Not_Working>> 8; 
1725:AS76.c        ****                     break;
1726:AS76.c        ****                 }
1727:AS76.c        ****                 case 24:
1728:AS76.c        ****                 {
1729:AS76.c        ****                     USB_transmit[2] = T_Switch_Not_Working;
1730:AS76.c        ****                     USB_transmit[3] =  T_Switch_Not_Working>> 8; 
1731:AS76.c        ****                     break;
1732:AS76.c        ****                 }
1733:AS76.c        ****                 
1734:AS76.c        ****                 case 25:
1735:AS76.c        ****                 {
1736:AS76.c        ****                     USB_transmit[2] = T_Motor_Driver_Fault;
1737:AS76.c        ****                     USB_transmit[3] =  T_Motor_Driver_Fault>> 8; 
1738:AS76.c        ****                     break;
1739:AS76.c        ****                 }
1740:AS76.c        ****                 case 26:
1741:AS76.c        ****                 {
1742:AS76.c        ****                     USB_transmit[2] = Requested_T_Step_Exceeding_The_Limit;
1743:AS76.c        ****                     USB_transmit[3] =  Requested_T_Step_Exceeding_The_Limit>> 8; 
1744:AS76.c        ****                     break;
1745:AS76.c        ****                 }
1746:AS76.c        ****                 case 27:
1747:AS76.c        ****                 {
1748:AS76.c        ****                     USB_transmit[2] = T_Homing_Not_Done_Yet;
1749:AS76.c        ****                     USB_transmit[3] =  T_Homing_Not_Done_Yet>> 8; 
1750:AS76.c        ****                     break;
1751:AS76.c        ****                 }
1752:AS76.c        ****                 case 28:
ARM GAS  C:\Users\Revanth\AppData\Local\Temp\ccbqjHa5.s 			page 38


1753:AS76.c        ****                 {
1754:AS76.c        ****                     USB_transmit[2] = T_Motor_Busy;
1755:AS76.c        ****                     USB_transmit[3] = T_Motor_Busy >> 8; 
1756:AS76.c        ****                     break;
1757:AS76.c        ****                 }
1758:AS76.c        ****                 case 29:
1759:AS76.c        ****                 {
1760:AS76.c        ****                     USB_transmit[2] = Wrong_Command_Received;
1761:AS76.c        ****                     USB_transmit[3] = Wrong_Command_Received >> 8; 
1762:AS76.c        ****                     break;
1763:AS76.c        ****                 }
1764:AS76.c        ****                 case 30:
1765:AS76.c        ****                 {
1766:AS76.c        ****                     USB_transmit[2] = PCB_Paused;
1767:AS76.c        ****                     USB_transmit[3] = PCB_Paused >> 8; 
1768:AS76.c        ****                     break;
1769:AS76.c        ****                 }
1770:AS76.c        ****                 case 31:
1771:AS76.c        ****                 {
1772:AS76.c        ****                     USB_transmit[2] = PCB_Busy;
1773:AS76.c        ****                     USB_transmit[3] = PCB_Busy >> 8; 
1774:AS76.c        ****                     break;
1775:AS76.c        ****                 }
1776:AS76.c        ****                 case 32:
1777:AS76.c        ****                 {
1778:AS76.c        ****                     USB_transmit[2] = All_Motors_Homing_Not_Done;
1779:AS76.c        ****                     USB_transmit[3] = All_Motors_Homing_Not_Done >> 8; 
1780:AS76.c        ****                     break;
1781:AS76.c        ****                 }
1782:AS76.c        ****                 
1783:AS76.c        ****                 case 33:
1784:AS76.c        ****                 {
1785:AS76.c        ****                     USB_transmit[2] = O_Motor_Not_Working;
1786:AS76.c        ****                     USB_transmit[3] = O_Motor_Not_Working >> 8; 
1787:AS76.c        ****                     break;
1788:AS76.c        ****                 }
1789:AS76.c        ****             }
1790:AS76.c        ****         }
1791:AS76.c        ****         
1792:AS76.c        ****         X_QuadPosition = (X_QuadPosition * 4);
1793:AS76.c        ****         Y_QuadPosition = (Y_QuadPosition * 4);    
1794:AS76.c        ****         T_QuadPosition = (int)(T_QuadPosition * 3.2); 
1795:AS76.c        ****         USB_transmit[4] = (X_QuadPosition);
1796:AS76.c        ****         USB_transmit[5] = (X_QuadPosition) >> 8;
1797:AS76.c        ****         USB_transmit[6] = (X_QuadPosition) >> 16;
1798:AS76.c        ****         USB_transmit[7] = (X_QuadPosition) >> 24;
1799:AS76.c        ****         USB_transmit[8] = (Y_QuadPosition);
1800:AS76.c        ****         USB_transmit[9] = (Y_QuadPosition) >> 8;
1801:AS76.c        ****         USB_transmit[10] =(Y_QuadPosition) >> 16;
1802:AS76.c        ****         USB_transmit[11] =(Y_QuadPosition) >> 24;
1803:AS76.c        ****         USB_transmit[12] = Z_QuadPosition;
1804:AS76.c        ****         USB_transmit[13] = Z_QuadPosition >> 8;
1805:AS76.c        ****         USB_transmit[14] = Z_QuadPosition >> 16;
1806:AS76.c        ****         USB_transmit[15] = Z_QuadPosition >> 24;
1807:AS76.c        ****         USB_transmit[16] = T_QuadPosition;
1808:AS76.c        ****         USB_transmit[17] = T_QuadPosition >> 8;
1809:AS76.c        ****         USB_transmit[18] = T_QuadPosition >> 16;
ARM GAS  C:\Users\Revanth\AppData\Local\Temp\ccbqjHa5.s 			page 39


1810:AS76.c        ****         USB_transmit[19] = T_QuadPosition >> 24;
1811:AS76.c        ****         USB_transmit[20] = PWM_Condenser_comare_value;
1812:AS76.c        ****         USB_transmit[21] = PWM_Condenser_comare_value >> 8;
1813:AS76.c        ****         USB_transmit[22] = 0;
1814:AS76.c        ****         USB_transmit[23] = 0;
1815:AS76.c        ****         USB_transmit[24] = 0;
1816:AS76.c        ****         USB_transmit[25] = 0;
1817:AS76.c        ****         USB_transmit[26] = 0;
1818:AS76.c        ****         USB_transmit[27] = 0;
1819:AS76.c        ****         USB_transmit[28] = Motor_Speed_X;
1820:AS76.c        ****         USB_transmit[29] = Motor_Speed_X >> 8;
1821:AS76.c        ****         USB_transmit[30] = Motor_Speed_Y;
1822:AS76.c        ****         USB_transmit[31] = Motor_Speed_Y >> 8;
1823:AS76.c        ****         USB_transmit[32] = Motor_Speed_Z;
1824:AS76.c        ****         USB_transmit[33] = Motor_Speed_Z >> 8;
1825:AS76.c        ****         USB_transmit[34] = 0x00;
1826:AS76.c        ****         USB_transmit[35] = 0x00 >> 8;
1827:AS76.c        ****         USB_transmit[36] = 0x00;
1828:AS76.c        ****         USB_transmit[37] = 0x00;
1829:AS76.c        ****         USB_transmit[38] = 0x00;
1830:AS76.c        ****         USB_transmit[39] = Firmware_Version;
1831:AS76.c        ****         USB_transmit[40] = 0;
1832:AS76.c        ****         USB_transmit[41] = 0;
1833:AS76.c        ****         USB_transmit[42] = 0;
1834:AS76.c        ****         USB_transmit[43] = 0;
1835:AS76.c        ****         USB_transmit[44] = 0;
1836:AS76.c        ****         USB_transmit[45] = 0;
1837:AS76.c        ****         
1838:AS76.c        ****         
1839:AS76.c        ****         
1840:AS76.c        ****         
1841:AS76.c        ****         
1842:AS76.c        ****         Write_Debug_UART_Char("Feedback Sent to Motherboard  \r\n");
1843:AS76.c        ****         USB_PutData(USB_transmit, 46);  //send data back to usb
1844:AS76.c        ****     
1845:AS76.c        **** }
1846:AS76.c        **** void USB_Detect_Indication_Via_LED()/* LED Indicator for USB detection. */
1847:AS76.c        **** {
 348              		.loc 1 1847 0
 349              		.cfi_startproc
 350              		@ args = 0, pretend = 0, frame = 0
 351              		@ frame_needed = 0, uses_anonymous_args = 0
 352              		@ link register save eliminated.
 353 0000 7047     		bx	lr
 354              		.cfi_endproc
 355              	.LFE93:
 356              		.size	USB_Detect_Indication_Via_LED, .-USB_Detect_Indication_Via_LED
 357 0002 00BF     		.section	.text.Clear_USB_RX_Buffer,"ax",%progbits
 358              		.align	2
 359              		.global	Clear_USB_RX_Buffer
 360              		.thumb
 361              		.thumb_func
 362              		.type	Clear_USB_RX_Buffer, %function
 363              	Clear_USB_RX_Buffer:
 364              	.LFB96:
1848:AS76.c        **** 
1849:AS76.c        **** }
ARM GAS  C:\Users\Revanth\AppData\Local\Temp\ccbqjHa5.s 			page 40


1850:AS76.c        **** void Initialize_USB()/* Start the USB. */
1851:AS76.c        **** {
1852:AS76.c        ****     USB_Start(0, USB_5V_OPERATION);   
1853:AS76.c        ****     while (0 == USB_GetConfiguration()) /* wait untill USB not found. */
1854:AS76.c        ****     {
1855:AS76.c        ****         Write_Debug_UART_Char("USB not Connected***********  \r\n");
1856:AS76.c        ****         CyDelayUs(1);
1857:AS76.c        ****     }
1858:AS76.c        ****     USB_CDC_Init();
1859:AS76.c        ****     Write_Debug_UART_Char("USB Connected  \r\n");
1860:AS76.c        ****     USB_EnableSofInt();  
1861:AS76.c        **** }
1862:AS76.c        **** void Is_USB_Unpluged()/* Check for changes in USB port reset if USB changes. */
1863:AS76.c        **** {
1864:AS76.c        ****    static bool dont_Execute_1st_Time=false;
1865:AS76.c        ****    if(USB_IsConfigurationChanged() != 0)
1866:AS76.c        ****    {
1867:AS76.c        ****     Beep_Twice();
1868:AS76.c        ****        if(USB_GetConfiguration() != 0)
1869:AS76.c        ****        {
1870:AS76.c        ****             if(dont_Execute_1st_Time)/* Ignore for the first time. */
1871:AS76.c        ****             {
1872:AS76.c        ****                 Write_Debug_UART_Char("USB Unpluged PCB resetting ***********  \r\n");
1873:AS76.c        ****                 UART_print_all_values();
1874:AS76.c        ****                 CyDelay(1);
1875:AS76.c        ****                 CySoftwareReset();
1876:AS76.c        ****             }
1877:AS76.c        ****             dont_Execute_1st_Time = true;
1878:AS76.c        ****        }
1879:AS76.c        ****    }  
1880:AS76.c        **** }
1881:AS76.c        **** void Clear_USB_RX_Buffer()/* Initialize all USB_received 64 bits to 0. */
1882:AS76.c        **** {
 365              		.loc 1 1882 0
 366              		.cfi_startproc
 367              		@ args = 0, pretend = 0, frame = 0
 368              		@ frame_needed = 0, uses_anonymous_args = 0
 369              		@ link register save eliminated.
 370              	.LVL29:
1883:AS76.c        ****     int i =0;
1884:AS76.c        ****     for(i=0;i<65;i++)   //Initializing all bites to 0
 371              		.loc 1 1884 0
 372 0000 0023     		movs	r3, #0
 373 0002 03E0     		b	.L31
 374              	.LVL30:
 375              	.L32:
1885:AS76.c        ****         USB_received[i] = 0;   
 376              		.loc 1 1885 0 discriminator 3
 377 0004 0021     		movs	r1, #0
 378 0006 034A     		ldr	r2, .L33
 379 0008 D154     		strb	r1, [r2, r3]
1884:AS76.c        ****         USB_received[i] = 0;   
 380              		.loc 1 1884 0 discriminator 3
 381 000a 0133     		adds	r3, r3, #1
 382              	.LVL31:
 383              	.L31:
1884:AS76.c        ****         USB_received[i] = 0;   
ARM GAS  C:\Users\Revanth\AppData\Local\Temp\ccbqjHa5.s 			page 41


 384              		.loc 1 1884 0 is_stmt 0 discriminator 1
 385 000c 402B     		cmp	r3, #64
 386 000e F9DD     		ble	.L32
1886:AS76.c        **** }
 387              		.loc 1 1886 0 is_stmt 1
 388 0010 7047     		bx	lr
 389              	.L34:
 390 0012 00BF     		.align	2
 391              	.L33:
 392 0014 00000000 		.word	USB_received
 393              		.cfi_endproc
 394              	.LFE96:
 395              		.size	Clear_USB_RX_Buffer, .-Clear_USB_RX_Buffer
 396              		.section	.text.Clear_Pending_USB_Data,"ax",%progbits
 397              		.align	2
 398              		.global	Clear_Pending_USB_Data
 399              		.thumb
 400              		.thumb_func
 401              		.type	Clear_Pending_USB_Data, %function
 402              	Clear_Pending_USB_Data:
 403              	.LFB97:
1887:AS76.c        **** void Clear_Pending_USB_Data()/* Clear all pending data on usb RX buffer. */
1888:AS76.c        **** {
 404              		.loc 1 1888 0
 405              		.cfi_startproc
 406              		@ args = 0, pretend = 0, frame = 64
 407              		@ frame_needed = 0, uses_anonymous_args = 0
 408 0000 10B5     		push	{r4, lr}
 409              		.cfi_def_cfa_offset 8
 410              		.cfi_offset 4, -8
 411              		.cfi_offset 14, -4
 412 0002 90B0     		sub	sp, sp, #64
 413              		.cfi_def_cfa_offset 72
 414              	.LVL32:
1889:AS76.c        ****     int i;
1890:AS76.c        ****     uint8 USB_received_temp[64];
1891:AS76.c        ****     for(i=0;i<5;i++)
 415              		.loc 1 1891 0
 416 0004 0024     		movs	r4, #0
 417 0006 03E0     		b	.L36
 418              	.LVL33:
 419              	.L37:
1892:AS76.c        ****         {       
1893:AS76.c        ****             USB_GetAll(USB_received_temp);/* read and clear all Pending data. */
 420              		.loc 1 1893 0 discriminator 3
 421 0008 6846     		mov	r0, sp
 422 000a FFF7FEFF 		bl	USB_GetAll
 423              	.LVL34:
1891:AS76.c        ****         {       
 424              		.loc 1 1891 0 discriminator 3
 425 000e 0134     		adds	r4, r4, #1
 426              	.LVL35:
 427              	.L36:
1891:AS76.c        ****         {       
 428              		.loc 1 1891 0 is_stmt 0 discriminator 1
 429 0010 042C     		cmp	r4, #4
 430 0012 F9DD     		ble	.L37
ARM GAS  C:\Users\Revanth\AppData\Local\Temp\ccbqjHa5.s 			page 42


1894:AS76.c        ****         }    
1895:AS76.c        **** }
 431              		.loc 1 1895 0 is_stmt 1
 432 0014 10B0     		add	sp, sp, #64
 433              		.cfi_def_cfa_offset 8
 434              		@ sp needed
 435 0016 10BD     		pop	{r4, pc}
 436              		.cfi_endproc
 437              	.LFE97:
 438              		.size	Clear_Pending_USB_Data, .-Clear_Pending_USB_Data
 439              		.section	.text.Write_Debug_UART_Char,"ax",%progbits
 440              		.align	2
 441              		.global	Write_Debug_UART_Char
 442              		.thumb
 443              		.thumb_func
 444              		.type	Write_Debug_UART_Char, %function
 445              	Write_Debug_UART_Char:
 446              	.LFB98:
1896:AS76.c        **** void Write_Debug_UART_Char(char Str[])
1897:AS76.c        **** {
 447              		.loc 1 1897 0
 448              		.cfi_startproc
 449              		@ args = 0, pretend = 0, frame = 0
 450              		@ frame_needed = 0, uses_anonymous_args = 0
 451              	.LVL36:
 452 0000 10B5     		push	{r4, lr}
 453              		.cfi_def_cfa_offset 8
 454              		.cfi_offset 4, -8
 455              		.cfi_offset 14, -4
 456 0002 0446     		mov	r4, r0
 457              	.LBB2:
1898:AS76.c        ****     //if(Pin_UART_Enable_Read()==0)
1899:AS76.c        ****     {
1900:AS76.c        ****         static char Str_Last_One[] = "ShonitV2.2\r\n";
1901:AS76.c        ****         if((strncmp(Str_Last_One, Str, 10)!=0))
 458              		.loc 1 1901 0
 459 0004 0A22     		movs	r2, #10
 460 0006 0146     		mov	r1, r0
 461 0008 0748     		ldr	r0, .L42
 462              	.LVL37:
 463 000a FFF7FEFF 		bl	strncmp
 464              	.LVL38:
 465 000e 50B1     		cbz	r0, .L39
1902:AS76.c        ****     	{
1903:AS76.c        ****             UART_PCB_LOG_PutString(Str);
 466              		.loc 1 1903 0
 467 0010 2046     		mov	r0, r4
 468 0012 FFF7FEFF 		bl	UART_PCB_LOG_PutString
 469              	.LVL39:
1904:AS76.c        ****             CyDelayUs(1);
 470              		.loc 1 1904 0
 471 0016 0120     		movs	r0, #1
 472 0018 FFF7FEFF 		bl	CyDelayUs
 473              	.LVL40:
1905:AS76.c        ****             strncpy(Str_Last_One, Str, 10); 
 474              		.loc 1 1905 0
 475 001c 0A22     		movs	r2, #10
ARM GAS  C:\Users\Revanth\AppData\Local\Temp\ccbqjHa5.s 			page 43


 476 001e 2146     		mov	r1, r4
 477 0020 0148     		ldr	r0, .L42
 478 0022 FFF7FEFF 		bl	strncpy
 479              	.LVL41:
 480              	.L39:
 481 0026 10BD     		pop	{r4, pc}
 482              	.LVL42:
 483              	.L43:
 484              		.align	2
 485              	.L42:
 486 0028 04000000 		.word	.LANCHOR1+4
 487              	.LBE2:
 488              		.cfi_endproc
 489              	.LFE98:
 490              		.size	Write_Debug_UART_Char, .-Write_Debug_UART_Char
 491              		.section	.text.Beep_Once,"ax",%progbits
 492              		.align	2
 493              		.global	Beep_Once
 494              		.thumb
 495              		.thumb_func
 496              		.type	Beep_Once, %function
 497              	Beep_Once:
 498              	.LFB83:
1148:AS76.c        ****     PWM_Buzzer_WriteCompare(2500);
 499              		.loc 1 1148 0
 500              		.cfi_startproc
 501              		@ args = 0, pretend = 0, frame = 0
 502              		@ frame_needed = 0, uses_anonymous_args = 0
 503 0000 08B5     		push	{r3, lr}
 504              		.cfi_def_cfa_offset 8
 505              		.cfi_offset 3, -8
 506              		.cfi_offset 14, -4
1149:AS76.c        ****     CyDelay(200);
 507              		.loc 1 1149 0
 508 0002 40F6C410 		movw	r0, #2500
 509 0006 FFF7FEFF 		bl	PWM_Buzzer_WriteCompare
 510              	.LVL43:
1150:AS76.c        ****     PWM_Buzzer_WriteCompare(0);
 511              		.loc 1 1150 0
 512 000a C820     		movs	r0, #200
 513 000c FFF7FEFF 		bl	CyDelay
 514              	.LVL44:
1151:AS76.c        ****     Write_Debug_UART_Char("Beeped Once  \r\n");
 515              		.loc 1 1151 0
 516 0010 0020     		movs	r0, #0
 517 0012 FFF7FEFF 		bl	PWM_Buzzer_WriteCompare
 518              	.LVL45:
1152:AS76.c        ****     return 0;
 519              		.loc 1 1152 0
 520 0016 0248     		ldr	r0, .L46
 521 0018 FFF7FEFF 		bl	Write_Debug_UART_Char
 522              	.LVL46:
1154:AS76.c        **** 
 523              		.loc 1 1154 0
 524 001c 0020     		movs	r0, #0
 525 001e 08BD     		pop	{r3, pc}
 526              	.L47:
ARM GAS  C:\Users\Revanth\AppData\Local\Temp\ccbqjHa5.s 			page 44


 527              		.align	2
 528              	.L46:
 529 0020 00000000 		.word	.LC0
 530              		.cfi_endproc
 531              	.LFE83:
 532              		.size	Beep_Once, .-Beep_Once
 533              		.section	.text.Beep_Twice,"ax",%progbits
 534              		.align	2
 535              		.global	Beep_Twice
 536              		.thumb
 537              		.thumb_func
 538              		.type	Beep_Twice, %function
 539              	Beep_Twice:
 540              	.LFB84:
1157:AS76.c        ****     PWM_Buzzer_WriteCompare(2500);
 541              		.loc 1 1157 0
 542              		.cfi_startproc
 543              		@ args = 0, pretend = 0, frame = 0
 544              		@ frame_needed = 0, uses_anonymous_args = 0
 545 0000 08B5     		push	{r3, lr}
 546              		.cfi_def_cfa_offset 8
 547              		.cfi_offset 3, -8
 548              		.cfi_offset 14, -4
1158:AS76.c        ****     CyDelay(200);
 549              		.loc 1 1158 0
 550 0002 40F6C410 		movw	r0, #2500
 551 0006 FFF7FEFF 		bl	PWM_Buzzer_WriteCompare
 552              	.LVL47:
1159:AS76.c        ****     PWM_Buzzer_WriteCompare(0);
 553              		.loc 1 1159 0
 554 000a C820     		movs	r0, #200
 555 000c FFF7FEFF 		bl	CyDelay
 556              	.LVL48:
1160:AS76.c        ****     CyDelay(200);
 557              		.loc 1 1160 0
 558 0010 0020     		movs	r0, #0
 559 0012 FFF7FEFF 		bl	PWM_Buzzer_WriteCompare
 560              	.LVL49:
1161:AS76.c        ****     PWM_Buzzer_WriteCompare(2500);
 561              		.loc 1 1161 0
 562 0016 C820     		movs	r0, #200
 563 0018 FFF7FEFF 		bl	CyDelay
 564              	.LVL50:
1162:AS76.c        ****     CyDelay(200);
 565              		.loc 1 1162 0
 566 001c 40F6C410 		movw	r0, #2500
 567 0020 FFF7FEFF 		bl	PWM_Buzzer_WriteCompare
 568              	.LVL51:
1163:AS76.c        ****     PWM_Buzzer_WriteCompare(0);
 569              		.loc 1 1163 0
 570 0024 C820     		movs	r0, #200
 571 0026 FFF7FEFF 		bl	CyDelay
 572              	.LVL52:
1164:AS76.c        ****     Write_Debug_UART_Char("Beeped Twice  \r\n");
 573              		.loc 1 1164 0
 574 002a 0020     		movs	r0, #0
 575 002c FFF7FEFF 		bl	PWM_Buzzer_WriteCompare
ARM GAS  C:\Users\Revanth\AppData\Local\Temp\ccbqjHa5.s 			page 45


 576              	.LVL53:
1165:AS76.c        ****     return 0;
 577              		.loc 1 1165 0
 578 0030 0248     		ldr	r0, .L50
 579 0032 FFF7FEFF 		bl	Write_Debug_UART_Char
 580              	.LVL54:
1167:AS76.c        **** 
 581              		.loc 1 1167 0
 582 0036 0020     		movs	r0, #0
 583 0038 08BD     		pop	{r3, pc}
 584              	.L51:
 585 003a 00BF     		.align	2
 586              	.L50:
 587 003c 10000000 		.word	.LC1
 588              		.cfi_endproc
 589              	.LFE84:
 590              		.size	Beep_Twice, .-Beep_Twice
 591              		.section	.text.Long_Beep,"ax",%progbits
 592              		.align	2
 593              		.global	Long_Beep
 594              		.thumb
 595              		.thumb_func
 596              		.type	Long_Beep, %function
 597              	Long_Beep:
 598              	.LFB85:
1170:AS76.c        ****     PWM_Buzzer_WriteCompare(2500);
 599              		.loc 1 1170 0
 600              		.cfi_startproc
 601              		@ args = 0, pretend = 0, frame = 0
 602              		@ frame_needed = 0, uses_anonymous_args = 0
 603 0000 08B5     		push	{r3, lr}
 604              		.cfi_def_cfa_offset 8
 605              		.cfi_offset 3, -8
 606              		.cfi_offset 14, -4
1171:AS76.c        ****     CyDelay(2000);
 607              		.loc 1 1171 0
 608 0002 40F6C410 		movw	r0, #2500
 609 0006 FFF7FEFF 		bl	PWM_Buzzer_WriteCompare
 610              	.LVL55:
1172:AS76.c        ****     PWM_Buzzer_WriteCompare(0);
 611              		.loc 1 1172 0
 612 000a 4FF4FA60 		mov	r0, #2000
 613 000e FFF7FEFF 		bl	CyDelay
 614              	.LVL56:
1173:AS76.c        ****     CyDelay(200);
 615              		.loc 1 1173 0
 616 0012 0020     		movs	r0, #0
 617 0014 FFF7FEFF 		bl	PWM_Buzzer_WriteCompare
 618              	.LVL57:
1174:AS76.c        ****     
 619              		.loc 1 1174 0
 620 0018 C820     		movs	r0, #200
 621 001a FFF7FEFF 		bl	CyDelay
 622              	.LVL58:
1176:AS76.c        ****     return 0;
 623              		.loc 1 1176 0
 624 001e 0248     		ldr	r0, .L54
ARM GAS  C:\Users\Revanth\AppData\Local\Temp\ccbqjHa5.s 			page 46


 625 0020 FFF7FEFF 		bl	Write_Debug_UART_Char
 626              	.LVL59:
1178:AS76.c        **** 
 627              		.loc 1 1178 0
 628 0024 0020     		movs	r0, #0
 629 0026 08BD     		pop	{r3, pc}
 630              	.L55:
 631              		.align	2
 632              	.L54:
 633 0028 24000000 		.word	.LC2
 634              		.cfi_endproc
 635              	.LFE85:
 636              		.size	Long_Beep, .-Long_Beep
 637              		.global	__aeabi_i2d
 638              		.global	__aeabi_dmul
 639              		.global	__aeabi_d2iz
 640              		.section	.text.Send_Feedback_to_USB,"ax",%progbits
 641              		.align	2
 642              		.global	Send_Feedback_to_USB
 643              		.thumb
 644              		.thumb_func
 645              		.type	Send_Feedback_to_USB, %function
 646              	Send_Feedback_to_USB:
 647              	.LFB92:
1573:AS76.c        ****      Read_All_Optical_Encoder();
 648              		.loc 1 1573 0
 649              		.cfi_startproc
 650              		@ args = 0, pretend = 0, frame = 0
 651              		@ frame_needed = 0, uses_anonymous_args = 0
 652              	.LVL60:
 653 0000 38B5     		push	{r3, r4, r5, lr}
 654              		.cfi_def_cfa_offset 16
 655              		.cfi_offset 3, -16
 656              		.cfi_offset 4, -12
 657              		.cfi_offset 5, -8
 658              		.cfi_offset 14, -4
 659 0002 0446     		mov	r4, r0
1574:AS76.c        **** 
 660              		.loc 1 1574 0
 661 0004 FFF7FEFF 		bl	Read_All_Optical_Encoder
 662              	.LVL61:
1578:AS76.c        ****         {            
 663              		.loc 1 1578 0
 664 0008 54B9     		cbnz	r4, .L57
1580:AS76.c        ****             USB_transmit[1] = (command >> 8);
 665              		.loc 1 1580 0
 666 000a 714B     		ldr	r3, .L94
 667 000c 1A68     		ldr	r2, [r3]
 668 000e 714B     		ldr	r3, .L94+4
 669 0010 1A70     		strb	r2, [r3]
1581:AS76.c        ****             USB_transmit[2] = No_Error;
 670              		.loc 1 1581 0
 671 0012 120A     		lsrs	r2, r2, #8
 672 0014 5A70     		strb	r2, [r3, #1]
1582:AS76.c        ****             USB_transmit[3] = No_Error >> 8;
 673              		.loc 1 1582 0
 674 0016 0022     		movs	r2, #0
ARM GAS  C:\Users\Revanth\AppData\Local\Temp\ccbqjHa5.s 			page 47


 675 0018 9A70     		strb	r2, [r3, #2]
1583:AS76.c        ****         }
 676              		.loc 1 1583 0
 677 001a FA22     		movs	r2, #250
 678 001c DA70     		strb	r2, [r3, #3]
 679 001e E0E0     		b	.L58
 680              	.L57:
1587:AS76.c        ****             {
 681              		.loc 1 1587 0
 682 0020 013C     		subs	r4, r4, #1
 683              	.LVL62:
 684 0022 202C     		cmp	r4, #32
 685 0024 00F2DD80 		bhi	.L58
 686 0028 DFE804F0 		tbb	[pc, r4]
 687              	.L60:
 688 002c 11       		.byte	(.L59-.L60)/2
 689 002d 17       		.byte	(.L61-.L60)/2
 690 002e 1D       		.byte	(.L62-.L60)/2
 691 002f 23       		.byte	(.L63-.L60)/2
 692 0030 29       		.byte	(.L64-.L60)/2
 693 0031 2F       		.byte	(.L65-.L60)/2
 694 0032 35       		.byte	(.L66-.L60)/2
 695 0033 3B       		.byte	(.L67-.L60)/2
 696 0034 41       		.byte	(.L68-.L60)/2
 697 0035 47       		.byte	(.L69-.L60)/2
 698 0036 4D       		.byte	(.L70-.L60)/2
 699 0037 53       		.byte	(.L71-.L60)/2
 700 0038 59       		.byte	(.L72-.L60)/2
 701 0039 5F       		.byte	(.L73-.L60)/2
 702 003a 65       		.byte	(.L74-.L60)/2
 703 003b 6B       		.byte	(.L75-.L60)/2
 704 003c 71       		.byte	(.L76-.L60)/2
 705 003d 77       		.byte	(.L77-.L60)/2
 706 003e 7D       		.byte	(.L78-.L60)/2
 707 003f 83       		.byte	(.L79-.L60)/2
 708 0040 89       		.byte	(.L80-.L60)/2
 709 0041 8F       		.byte	(.L81-.L60)/2
 710 0042 95       		.byte	(.L82-.L60)/2
 711 0043 9B       		.byte	(.L83-.L60)/2
 712 0044 A1       		.byte	(.L84-.L60)/2
 713 0045 A7       		.byte	(.L85-.L60)/2
 714 0046 AD       		.byte	(.L86-.L60)/2
 715 0047 B3       		.byte	(.L87-.L60)/2
 716 0048 B9       		.byte	(.L88-.L60)/2
 717 0049 BF       		.byte	(.L89-.L60)/2
 718 004a C5       		.byte	(.L90-.L60)/2
 719 004b CB       		.byte	(.L91-.L60)/2
 720 004c D6       		.byte	(.L92-.L60)/2
 721 004d 00       		.p2align 1
 722              	.L59:
1591:AS76.c        ****                     USB_transmit[3] = X_Motor_Not_Working >> 8; 
 723              		.loc 1 1591 0
 724 004e 614B     		ldr	r3, .L94+4
 725 0050 0122     		movs	r2, #1
 726 0052 9A70     		strb	r2, [r3, #2]
1592:AS76.c        ****                     break;
 727              		.loc 1 1592 0
ARM GAS  C:\Users\Revanth\AppData\Local\Temp\ccbqjHa5.s 			page 48


 728 0054 FA22     		movs	r2, #250
 729 0056 DA70     		strb	r2, [r3, #3]
1593:AS76.c        ****                 }
 730              		.loc 1 1593 0
 731 0058 C3E0     		b	.L58
 732              	.L61:
1597:AS76.c        ****                     USB_transmit[3] = X_Encoder_Not_Working >> 8; 
 733              		.loc 1 1597 0
 734 005a 5E4B     		ldr	r3, .L94+4
 735 005c 0222     		movs	r2, #2
 736 005e 9A70     		strb	r2, [r3, #2]
1598:AS76.c        ****                     break;
 737              		.loc 1 1598 0
 738 0060 FA22     		movs	r2, #250
 739 0062 DA70     		strb	r2, [r3, #3]
1599:AS76.c        ****                 }
 740              		.loc 1 1599 0
 741 0064 BDE0     		b	.L58
 742              	.L62:
1603:AS76.c        ****                     USB_transmit[3] = X_Switch_Not_Working >> 8; 
 743              		.loc 1 1603 0
 744 0066 5B4B     		ldr	r3, .L94+4
 745 0068 1722     		movs	r2, #23
 746 006a 9A70     		strb	r2, [r3, #2]
1604:AS76.c        ****                     break;
 747              		.loc 1 1604 0
 748 006c FA22     		movs	r2, #250
 749 006e DA70     		strb	r2, [r3, #3]
1605:AS76.c        ****                 }
 750              		.loc 1 1605 0
 751 0070 B7E0     		b	.L58
 752              	.L63:
1609:AS76.c        ****                     USB_transmit[3] = X_Motor_Driver_Fault >> 8; 
 753              		.loc 1 1609 0
 754 0072 584B     		ldr	r3, .L94+4
 755 0074 0722     		movs	r2, #7
 756 0076 9A70     		strb	r2, [r3, #2]
1610:AS76.c        ****                     break;
 757              		.loc 1 1610 0
 758 0078 FA22     		movs	r2, #250
 759 007a DA70     		strb	r2, [r3, #3]
1611:AS76.c        ****                 }
 760              		.loc 1 1611 0
 761 007c B1E0     		b	.L58
 762              	.L64:
1615:AS76.c        ****                     USB_transmit[3] = Requested_X_Step_Exceeding_The_Limit >> 8; 
 763              		.loc 1 1615 0
 764 007e 554B     		ldr	r3, .L94+4
 765 0080 1122     		movs	r2, #17
 766 0082 9A70     		strb	r2, [r3, #2]
1616:AS76.c        ****                     break;
 767              		.loc 1 1616 0
 768 0084 FA22     		movs	r2, #250
 769 0086 DA70     		strb	r2, [r3, #3]
1617:AS76.c        ****                 }
 770              		.loc 1 1617 0
 771 0088 ABE0     		b	.L58
ARM GAS  C:\Users\Revanth\AppData\Local\Temp\ccbqjHa5.s 			page 49


 772              	.L65:
1621:AS76.c        ****                     USB_transmit[3] = X_Homing_Not_Done_Yet >> 8; 
 773              		.loc 1 1621 0
 774 008a 524B     		ldr	r3, .L94+4
 775 008c 1D22     		movs	r2, #29
 776 008e 9A70     		strb	r2, [r3, #2]
1622:AS76.c        ****                     break;
 777              		.loc 1 1622 0
 778 0090 FA22     		movs	r2, #250
 779 0092 DA70     		strb	r2, [r3, #3]
1623:AS76.c        ****                 }
 780              		.loc 1 1623 0
 781 0094 A5E0     		b	.L58
 782              	.L66:
1627:AS76.c        ****                     USB_transmit[3] = X_Motor_Busy >> 8; 
 783              		.loc 1 1627 0
 784 0096 4F4B     		ldr	r3, .L94+4
 785 0098 2522     		movs	r2, #37
 786 009a 9A70     		strb	r2, [r3, #2]
1628:AS76.c        ****                     break;
 787              		.loc 1 1628 0
 788 009c FA22     		movs	r2, #250
 789 009e DA70     		strb	r2, [r3, #3]
1629:AS76.c        ****                 }
 790              		.loc 1 1629 0
 791 00a0 9FE0     		b	.L58
 792              	.L67:
1633:AS76.c        ****                     USB_transmit[3] = Y_Motor_Not_Working >> 8; 
 793              		.loc 1 1633 0
 794 00a2 4C4B     		ldr	r3, .L94+4
 795 00a4 0322     		movs	r2, #3
 796 00a6 9A70     		strb	r2, [r3, #2]
1634:AS76.c        ****                     break;
 797              		.loc 1 1634 0
 798 00a8 FA22     		movs	r2, #250
 799 00aa DA70     		strb	r2, [r3, #3]
1635:AS76.c        ****                 }
 800              		.loc 1 1635 0
 801 00ac 99E0     		b	.L58
 802              	.L68:
1639:AS76.c        ****                     USB_transmit[3] = Y_Encoder_Not_Working >> 8; 
 803              		.loc 1 1639 0
 804 00ae 494B     		ldr	r3, .L94+4
 805 00b0 0422     		movs	r2, #4
 806 00b2 9A70     		strb	r2, [r3, #2]
1640:AS76.c        ****                     break;
 807              		.loc 1 1640 0
 808 00b4 FA22     		movs	r2, #250
 809 00b6 DA70     		strb	r2, [r3, #3]
1641:AS76.c        ****                 }
 810              		.loc 1 1641 0
 811 00b8 93E0     		b	.L58
 812              	.L69:
1645:AS76.c        ****                     USB_transmit[3] = Y_Switch_Not_Working >> 8; 
 813              		.loc 1 1645 0
 814 00ba 464B     		ldr	r3, .L94+4
 815 00bc 1822     		movs	r2, #24
ARM GAS  C:\Users\Revanth\AppData\Local\Temp\ccbqjHa5.s 			page 50


 816 00be 9A70     		strb	r2, [r3, #2]
1646:AS76.c        ****                     break;
 817              		.loc 1 1646 0
 818 00c0 FA22     		movs	r2, #250
 819 00c2 DA70     		strb	r2, [r3, #3]
1647:AS76.c        ****                 }
 820              		.loc 1 1647 0
 821 00c4 8DE0     		b	.L58
 822              	.L70:
1651:AS76.c        ****                     USB_transmit[3] = Y_Motor_Driver_Fault >> 8; 
 823              		.loc 1 1651 0
 824 00c6 434B     		ldr	r3, .L94+4
 825 00c8 0822     		movs	r2, #8
 826 00ca 9A70     		strb	r2, [r3, #2]
1652:AS76.c        ****                     break;
 827              		.loc 1 1652 0
 828 00cc FA22     		movs	r2, #250
 829 00ce DA70     		strb	r2, [r3, #3]
1653:AS76.c        ****                 }
 830              		.loc 1 1653 0
 831 00d0 87E0     		b	.L58
 832              	.L71:
1657:AS76.c        ****                     USB_transmit[3] = Requested_Y_Step_Exceeding_The_Limit >> 8; 
 833              		.loc 1 1657 0
 834 00d2 404B     		ldr	r3, .L94+4
 835 00d4 1222     		movs	r2, #18
 836 00d6 9A70     		strb	r2, [r3, #2]
1658:AS76.c        ****                     break;
 837              		.loc 1 1658 0
 838 00d8 FA22     		movs	r2, #250
 839 00da DA70     		strb	r2, [r3, #3]
1659:AS76.c        ****                 }
 840              		.loc 1 1659 0
 841 00dc 81E0     		b	.L58
 842              	.L72:
1663:AS76.c        ****                     USB_transmit[3] = Y_Homing_Not_Done_Yet >> 8; 
 843              		.loc 1 1663 0
 844 00de 3D4B     		ldr	r3, .L94+4
 845 00e0 1E22     		movs	r2, #30
 846 00e2 9A70     		strb	r2, [r3, #2]
1664:AS76.c        ****                     break;
 847              		.loc 1 1664 0
 848 00e4 FA22     		movs	r2, #250
 849 00e6 DA70     		strb	r2, [r3, #3]
1665:AS76.c        ****                 }
 850              		.loc 1 1665 0
 851 00e8 7BE0     		b	.L58
 852              	.L73:
1669:AS76.c        ****                     USB_transmit[3] = Y_Motor_Busy >> 8; 
 853              		.loc 1 1669 0
 854 00ea 3A4B     		ldr	r3, .L94+4
 855 00ec 2622     		movs	r2, #38
 856 00ee 9A70     		strb	r2, [r3, #2]
1670:AS76.c        ****                     break;
 857              		.loc 1 1670 0
 858 00f0 FA22     		movs	r2, #250
 859 00f2 DA70     		strb	r2, [r3, #3]
ARM GAS  C:\Users\Revanth\AppData\Local\Temp\ccbqjHa5.s 			page 51


1671:AS76.c        ****                 }
 860              		.loc 1 1671 0
 861 00f4 75E0     		b	.L58
 862              	.L74:
1675:AS76.c        ****                     USB_transmit[3] = Z_Motor_Not_Working >> 8; 
 863              		.loc 1 1675 0
 864 00f6 374B     		ldr	r3, .L94+4
 865 00f8 0522     		movs	r2, #5
 866 00fa 9A70     		strb	r2, [r3, #2]
1676:AS76.c        ****                     break;
 867              		.loc 1 1676 0
 868 00fc FA22     		movs	r2, #250
 869 00fe DA70     		strb	r2, [r3, #3]
1677:AS76.c        ****                 }
 870              		.loc 1 1677 0
 871 0100 6FE0     		b	.L58
 872              	.L75:
1681:AS76.c        ****                     USB_transmit[3] = Z_Encoder_Not_Working >> 8; 
 873              		.loc 1 1681 0
 874 0102 344B     		ldr	r3, .L94+4
 875 0104 0622     		movs	r2, #6
 876 0106 9A70     		strb	r2, [r3, #2]
1682:AS76.c        ****                     break;
 877              		.loc 1 1682 0
 878 0108 FA22     		movs	r2, #250
 879 010a DA70     		strb	r2, [r3, #3]
1683:AS76.c        ****                 }
 880              		.loc 1 1683 0
 881 010c 69E0     		b	.L58
 882              	.L76:
1687:AS76.c        ****                     USB_transmit[3] = Z_Switch_Not_Working >> 8; 
 883              		.loc 1 1687 0
 884 010e 314B     		ldr	r3, .L94+4
 885 0110 1922     		movs	r2, #25
 886 0112 9A70     		strb	r2, [r3, #2]
1688:AS76.c        ****                     break;
 887              		.loc 1 1688 0
 888 0114 FA22     		movs	r2, #250
 889 0116 DA70     		strb	r2, [r3, #3]
1689:AS76.c        ****                 }
 890              		.loc 1 1689 0
 891 0118 63E0     		b	.L58
 892              	.L77:
1693:AS76.c        ****                     USB_transmit[3] = Z_Motor_Driver_Fault >> 8; 
 893              		.loc 1 1693 0
 894 011a 2E4B     		ldr	r3, .L94+4
 895 011c 0922     		movs	r2, #9
 896 011e 9A70     		strb	r2, [r3, #2]
1694:AS76.c        ****                     break;
 897              		.loc 1 1694 0
 898 0120 FA22     		movs	r2, #250
 899 0122 DA70     		strb	r2, [r3, #3]
1695:AS76.c        ****                 }
 900              		.loc 1 1695 0
 901 0124 5DE0     		b	.L58
 902              	.L78:
1699:AS76.c        ****                     USB_transmit[3] = Requested_Z_Step_Exceeding_The_Limit >> 8; 
ARM GAS  C:\Users\Revanth\AppData\Local\Temp\ccbqjHa5.s 			page 52


 903              		.loc 1 1699 0
 904 0126 2B4B     		ldr	r3, .L94+4
 905 0128 1322     		movs	r2, #19
 906 012a 9A70     		strb	r2, [r3, #2]
1700:AS76.c        ****                     break;
 907              		.loc 1 1700 0
 908 012c FA22     		movs	r2, #250
 909 012e DA70     		strb	r2, [r3, #3]
1701:AS76.c        ****                 }
 910              		.loc 1 1701 0
 911 0130 57E0     		b	.L58
 912              	.L79:
1705:AS76.c        ****                     USB_transmit[3] = Z_Homing_Not_Done_Yet >> 8; 
 913              		.loc 1 1705 0
 914 0132 284B     		ldr	r3, .L94+4
 915 0134 1F22     		movs	r2, #31
 916 0136 9A70     		strb	r2, [r3, #2]
1706:AS76.c        ****                     break;
 917              		.loc 1 1706 0
 918 0138 FA22     		movs	r2, #250
 919 013a DA70     		strb	r2, [r3, #3]
1707:AS76.c        ****                 }
 920              		.loc 1 1707 0
 921 013c 51E0     		b	.L58
 922              	.L80:
1711:AS76.c        ****                     USB_transmit[3] = Z_Motor_Busy >> 8; 
 923              		.loc 1 1711 0
 924 013e 254B     		ldr	r3, .L94+4
 925 0140 2722     		movs	r2, #39
 926 0142 9A70     		strb	r2, [r3, #2]
1712:AS76.c        ****                     break;
 927              		.loc 1 1712 0
 928 0144 FA22     		movs	r2, #250
 929 0146 DA70     		strb	r2, [r3, #3]
1713:AS76.c        ****                 }
 930              		.loc 1 1713 0
 931 0148 4BE0     		b	.L58
 932              	.L81:
1717:AS76.c        ****                     USB_transmit[3] =  T_Motor_Not_Working>> 8; 
 933              		.loc 1 1717 0
 934 014a 224B     		ldr	r3, .L94+4
 935 014c 2B22     		movs	r2, #43
 936 014e 9A70     		strb	r2, [r3, #2]
1718:AS76.c        ****                     break;
 937              		.loc 1 1718 0
 938 0150 FA22     		movs	r2, #250
 939 0152 DA70     		strb	r2, [r3, #3]
1719:AS76.c        ****                 }
 940              		.loc 1 1719 0
 941 0154 45E0     		b	.L58
 942              	.L82:
1723:AS76.c        ****                     USB_transmit[3] =  T_Encoder_Not_Working>> 8; 
 943              		.loc 1 1723 0
 944 0156 1F4B     		ldr	r3, .L94+4
 945 0158 2C22     		movs	r2, #44
 946 015a 9A70     		strb	r2, [r3, #2]
1724:AS76.c        ****                     break;
ARM GAS  C:\Users\Revanth\AppData\Local\Temp\ccbqjHa5.s 			page 53


 947              		.loc 1 1724 0
 948 015c FA22     		movs	r2, #250
 949 015e DA70     		strb	r2, [r3, #3]
1725:AS76.c        ****                 }
 950              		.loc 1 1725 0
 951 0160 3FE0     		b	.L58
 952              	.L83:
1729:AS76.c        ****                     USB_transmit[3] =  T_Switch_Not_Working>> 8; 
 953              		.loc 1 1729 0
 954 0162 1C4B     		ldr	r3, .L94+4
 955 0164 2D22     		movs	r2, #45
 956 0166 9A70     		strb	r2, [r3, #2]
1730:AS76.c        ****                     break;
 957              		.loc 1 1730 0
 958 0168 FA22     		movs	r2, #250
 959 016a DA70     		strb	r2, [r3, #3]
1731:AS76.c        ****                 }
 960              		.loc 1 1731 0
 961 016c 39E0     		b	.L58
 962              	.L84:
1736:AS76.c        ****                     USB_transmit[3] =  T_Motor_Driver_Fault>> 8; 
 963              		.loc 1 1736 0
 964 016e 194B     		ldr	r3, .L94+4
 965 0170 2E22     		movs	r2, #46
 966 0172 9A70     		strb	r2, [r3, #2]
1737:AS76.c        ****                     break;
 967              		.loc 1 1737 0
 968 0174 FA22     		movs	r2, #250
 969 0176 DA70     		strb	r2, [r3, #3]
1738:AS76.c        ****                 }
 970              		.loc 1 1738 0
 971 0178 33E0     		b	.L58
 972              	.L85:
1742:AS76.c        ****                     USB_transmit[3] =  Requested_T_Step_Exceeding_The_Limit>> 8; 
 973              		.loc 1 1742 0
 974 017a 164B     		ldr	r3, .L94+4
 975 017c 2A22     		movs	r2, #42
 976 017e 9A70     		strb	r2, [r3, #2]
1743:AS76.c        ****                     break;
 977              		.loc 1 1743 0
 978 0180 FA22     		movs	r2, #250
 979 0182 DA70     		strb	r2, [r3, #3]
1744:AS76.c        ****                 }
 980              		.loc 1 1744 0
 981 0184 2DE0     		b	.L58
 982              	.L86:
1748:AS76.c        ****                     USB_transmit[3] =  T_Homing_Not_Done_Yet>> 8; 
 983              		.loc 1 1748 0
 984 0186 134B     		ldr	r3, .L94+4
 985 0188 2F22     		movs	r2, #47
 986 018a 9A70     		strb	r2, [r3, #2]
1749:AS76.c        ****                     break;
 987              		.loc 1 1749 0
 988 018c FA22     		movs	r2, #250
 989 018e DA70     		strb	r2, [r3, #3]
1750:AS76.c        ****                 }
 990              		.loc 1 1750 0
ARM GAS  C:\Users\Revanth\AppData\Local\Temp\ccbqjHa5.s 			page 54


 991 0190 27E0     		b	.L58
 992              	.L87:
1754:AS76.c        ****                     USB_transmit[3] = T_Motor_Busy >> 8; 
 993              		.loc 1 1754 0
 994 0192 104B     		ldr	r3, .L94+4
 995 0194 2822     		movs	r2, #40
 996 0196 9A70     		strb	r2, [r3, #2]
1755:AS76.c        ****                     break;
 997              		.loc 1 1755 0
 998 0198 FA22     		movs	r2, #250
 999 019a DA70     		strb	r2, [r3, #3]
1756:AS76.c        ****                 }
 1000              		.loc 1 1756 0
 1001 019c 21E0     		b	.L58
 1002              	.L88:
1760:AS76.c        ****                     USB_transmit[3] = Wrong_Command_Received >> 8; 
 1003              		.loc 1 1760 0
 1004 019e 0D4B     		ldr	r3, .L94+4
 1005 01a0 2222     		movs	r2, #34
 1006 01a2 9A70     		strb	r2, [r3, #2]
1761:AS76.c        ****                     break;
 1007              		.loc 1 1761 0
 1008 01a4 FA22     		movs	r2, #250
 1009 01a6 DA70     		strb	r2, [r3, #3]
1762:AS76.c        ****                 }
 1010              		.loc 1 1762 0
 1011 01a8 1BE0     		b	.L58
 1012              	.L89:
1766:AS76.c        ****                     USB_transmit[3] = PCB_Paused >> 8; 
 1013              		.loc 1 1766 0
 1014 01aa 0A4B     		ldr	r3, .L94+4
 1015 01ac 2322     		movs	r2, #35
 1016 01ae 9A70     		strb	r2, [r3, #2]
1767:AS76.c        ****                     break;
 1017              		.loc 1 1767 0
 1018 01b0 FA22     		movs	r2, #250
 1019 01b2 DA70     		strb	r2, [r3, #3]
1768:AS76.c        ****                 }
 1020              		.loc 1 1768 0
 1021 01b4 15E0     		b	.L58
 1022              	.L90:
1772:AS76.c        ****                     USB_transmit[3] = PCB_Busy >> 8; 
 1023              		.loc 1 1772 0
 1024 01b6 074B     		ldr	r3, .L94+4
 1025 01b8 2422     		movs	r2, #36
 1026 01ba 9A70     		strb	r2, [r3, #2]
1773:AS76.c        ****                     break;
 1027              		.loc 1 1773 0
 1028 01bc FA22     		movs	r2, #250
 1029 01be DA70     		strb	r2, [r3, #3]
1774:AS76.c        ****                 }
 1030              		.loc 1 1774 0
 1031 01c0 0FE0     		b	.L58
 1032              	.L91:
1778:AS76.c        ****                     USB_transmit[3] = All_Motors_Homing_Not_Done >> 8; 
 1033              		.loc 1 1778 0
 1034 01c2 044B     		ldr	r3, .L94+4
ARM GAS  C:\Users\Revanth\AppData\Local\Temp\ccbqjHa5.s 			page 55


 1035 01c4 2922     		movs	r2, #41
 1036 01c6 9A70     		strb	r2, [r3, #2]
1779:AS76.c        ****                     break;
 1037              		.loc 1 1779 0
 1038 01c8 FA22     		movs	r2, #250
 1039 01ca DA70     		strb	r2, [r3, #3]
1780:AS76.c        ****                 }
 1040              		.loc 1 1780 0
 1041 01cc 09E0     		b	.L58
 1042              	.L95:
 1043 01ce 00BF     		.align	2
 1044              	.L94:
 1045 01d0 00000000 		.word	command
 1046 01d4 00000000 		.word	USB_transmit
 1047              	.L92:
1785:AS76.c        ****                     USB_transmit[3] = O_Motor_Not_Working >> 8; 
 1048              		.loc 1 1785 0
 1049 01d8 414B     		ldr	r3, .L96+8
 1050 01da 3022     		movs	r2, #48
 1051 01dc 9A70     		strb	r2, [r3, #2]
1786:AS76.c        ****                     break;
 1052              		.loc 1 1786 0
 1053 01de FA22     		movs	r2, #250
 1054 01e0 DA70     		strb	r2, [r3, #3]
 1055              	.LVL63:
 1056              	.L58:
1792:AS76.c        ****         Y_QuadPosition = (Y_QuadPosition * 4);    
 1057              		.loc 1 1792 0
 1058 01e2 404D     		ldr	r5, .L96+12
 1059 01e4 AB68     		ldr	r3, [r5, #8]
 1060 01e6 9B00     		lsls	r3, r3, #2
 1061 01e8 AB60     		str	r3, [r5, #8]
1793:AS76.c        ****         T_QuadPosition = (int)(T_QuadPosition * 3.2); 
 1062              		.loc 1 1793 0
 1063 01ea EB68     		ldr	r3, [r5, #12]
 1064 01ec 9B00     		lsls	r3, r3, #2
 1065 01ee EB60     		str	r3, [r5, #12]
1794:AS76.c        ****         USB_transmit[4] = (X_QuadPosition);
 1066              		.loc 1 1794 0
 1067 01f0 6869     		ldr	r0, [r5, #20]
 1068 01f2 FFF7FEFF 		bl	__aeabi_i2d
 1069              	.LVL64:
 1070 01f6 38A3     		adr	r3, .L96
 1071 01f8 D3E90023 		ldrd	r2, [r3]
 1072 01fc FFF7FEFF 		bl	__aeabi_dmul
 1073              	.LVL65:
 1074 0200 FFF7FEFF 		bl	__aeabi_d2iz
 1075              	.LVL66:
 1076 0204 6861     		str	r0, [r5, #20]
1795:AS76.c        ****         USB_transmit[5] = (X_QuadPosition) >> 8;
 1077              		.loc 1 1795 0
 1078 0206 AB68     		ldr	r3, [r5, #8]
 1079 0208 354C     		ldr	r4, .L96+8
 1080 020a 2371     		strb	r3, [r4, #4]
1796:AS76.c        ****         USB_transmit[6] = (X_QuadPosition) >> 16;
 1081              		.loc 1 1796 0
 1082 020c AB68     		ldr	r3, [r5, #8]
ARM GAS  C:\Users\Revanth\AppData\Local\Temp\ccbqjHa5.s 			page 56


 1083 020e 1B12     		asrs	r3, r3, #8
 1084 0210 6371     		strb	r3, [r4, #5]
1797:AS76.c        ****         USB_transmit[7] = (X_QuadPosition) >> 24;
 1085              		.loc 1 1797 0
 1086 0212 AB68     		ldr	r3, [r5, #8]
 1087 0214 1B14     		asrs	r3, r3, #16
 1088 0216 A371     		strb	r3, [r4, #6]
1798:AS76.c        ****         USB_transmit[8] = (Y_QuadPosition);
 1089              		.loc 1 1798 0
 1090 0218 AB68     		ldr	r3, [r5, #8]
 1091 021a 1B16     		asrs	r3, r3, #24
 1092 021c E371     		strb	r3, [r4, #7]
1799:AS76.c        ****         USB_transmit[9] = (Y_QuadPosition) >> 8;
 1093              		.loc 1 1799 0
 1094 021e EB68     		ldr	r3, [r5, #12]
 1095 0220 2372     		strb	r3, [r4, #8]
1800:AS76.c        ****         USB_transmit[10] =(Y_QuadPosition) >> 16;
 1096              		.loc 1 1800 0
 1097 0222 EB68     		ldr	r3, [r5, #12]
 1098 0224 1B12     		asrs	r3, r3, #8
 1099 0226 6372     		strb	r3, [r4, #9]
1801:AS76.c        ****         USB_transmit[11] =(Y_QuadPosition) >> 24;
 1100              		.loc 1 1801 0
 1101 0228 EB68     		ldr	r3, [r5, #12]
 1102 022a 1B14     		asrs	r3, r3, #16
 1103 022c A372     		strb	r3, [r4, #10]
1802:AS76.c        ****         USB_transmit[12] = Z_QuadPosition;
 1104              		.loc 1 1802 0
 1105 022e EB68     		ldr	r3, [r5, #12]
 1106 0230 1B16     		asrs	r3, r3, #24
 1107 0232 E372     		strb	r3, [r4, #11]
1803:AS76.c        ****         USB_transmit[13] = Z_QuadPosition >> 8;
 1108              		.loc 1 1803 0
 1109 0234 2B69     		ldr	r3, [r5, #16]
 1110 0236 2373     		strb	r3, [r4, #12]
1804:AS76.c        ****         USB_transmit[14] = Z_QuadPosition >> 16;
 1111              		.loc 1 1804 0
 1112 0238 2B69     		ldr	r3, [r5, #16]
 1113 023a 1B12     		asrs	r3, r3, #8
 1114 023c 6373     		strb	r3, [r4, #13]
1805:AS76.c        ****         USB_transmit[15] = Z_QuadPosition >> 24;
 1115              		.loc 1 1805 0
 1116 023e 2B69     		ldr	r3, [r5, #16]
 1117 0240 1B14     		asrs	r3, r3, #16
 1118 0242 A373     		strb	r3, [r4, #14]
1806:AS76.c        ****         USB_transmit[16] = T_QuadPosition;
 1119              		.loc 1 1806 0
 1120 0244 2B69     		ldr	r3, [r5, #16]
 1121 0246 1B16     		asrs	r3, r3, #24
 1122 0248 E373     		strb	r3, [r4, #15]
1807:AS76.c        ****         USB_transmit[17] = T_QuadPosition >> 8;
 1123              		.loc 1 1807 0
 1124 024a 6B69     		ldr	r3, [r5, #20]
 1125 024c 2374     		strb	r3, [r4, #16]
1808:AS76.c        ****         USB_transmit[18] = T_QuadPosition >> 16;
 1126              		.loc 1 1808 0
 1127 024e 6B69     		ldr	r3, [r5, #20]
ARM GAS  C:\Users\Revanth\AppData\Local\Temp\ccbqjHa5.s 			page 57


 1128 0250 1B12     		asrs	r3, r3, #8
 1129 0252 6374     		strb	r3, [r4, #17]
1809:AS76.c        ****         USB_transmit[19] = T_QuadPosition >> 24;
 1130              		.loc 1 1809 0
 1131 0254 6B69     		ldr	r3, [r5, #20]
 1132 0256 1B14     		asrs	r3, r3, #16
 1133 0258 A374     		strb	r3, [r4, #18]
1810:AS76.c        ****         USB_transmit[20] = PWM_Condenser_comare_value;
 1134              		.loc 1 1810 0
 1135 025a 6B69     		ldr	r3, [r5, #20]
 1136 025c 1B16     		asrs	r3, r3, #24
 1137 025e E374     		strb	r3, [r4, #19]
1811:AS76.c        ****         USB_transmit[21] = PWM_Condenser_comare_value >> 8;
 1138              		.loc 1 1811 0
 1139 0260 214A     		ldr	r2, .L96+16
 1140 0262 1368     		ldr	r3, [r2]
 1141 0264 2375     		strb	r3, [r4, #20]
1812:AS76.c        ****         USB_transmit[22] = 0;
 1142              		.loc 1 1812 0
 1143 0266 1B12     		asrs	r3, r3, #8
 1144 0268 6375     		strb	r3, [r4, #21]
1813:AS76.c        ****         USB_transmit[23] = 0;
 1145              		.loc 1 1813 0
 1146 026a 0023     		movs	r3, #0
 1147 026c A375     		strb	r3, [r4, #22]
1814:AS76.c        ****         USB_transmit[24] = 0;
 1148              		.loc 1 1814 0
 1149 026e E375     		strb	r3, [r4, #23]
1815:AS76.c        ****         USB_transmit[25] = 0;
 1150              		.loc 1 1815 0
 1151 0270 2376     		strb	r3, [r4, #24]
1816:AS76.c        ****         USB_transmit[26] = 0;
 1152              		.loc 1 1816 0
 1153 0272 6376     		strb	r3, [r4, #25]
1817:AS76.c        ****         USB_transmit[27] = 0;
 1154              		.loc 1 1817 0
 1155 0274 A376     		strb	r3, [r4, #26]
1818:AS76.c        ****         USB_transmit[28] = Motor_Speed_X;
 1156              		.loc 1 1818 0
 1157 0276 E376     		strb	r3, [r4, #27]
1819:AS76.c        ****         USB_transmit[29] = Motor_Speed_X >> 8;
 1158              		.loc 1 1819 0
 1159 0278 5169     		ldr	r1, [r2, #20]
 1160 027a 2177     		strb	r1, [r4, #28]
1820:AS76.c        ****         USB_transmit[30] = Motor_Speed_Y;
 1161              		.loc 1 1820 0
 1162 027c 090A     		lsrs	r1, r1, #8
 1163 027e 6177     		strb	r1, [r4, #29]
1821:AS76.c        ****         USB_transmit[31] = Motor_Speed_Y >> 8;
 1164              		.loc 1 1821 0
 1165 0280 9169     		ldr	r1, [r2, #24]
 1166 0282 A177     		strb	r1, [r4, #30]
1822:AS76.c        ****         USB_transmit[32] = Motor_Speed_Z;
 1167              		.loc 1 1822 0
 1168 0284 090A     		lsrs	r1, r1, #8
 1169 0286 E177     		strb	r1, [r4, #31]
1823:AS76.c        ****         USB_transmit[33] = Motor_Speed_Z >> 8;
ARM GAS  C:\Users\Revanth\AppData\Local\Temp\ccbqjHa5.s 			page 58


 1170              		.loc 1 1823 0
 1171 0288 D269     		ldr	r2, [r2, #28]
 1172 028a 84F82020 		strb	r2, [r4, #32]
1824:AS76.c        ****         USB_transmit[34] = 0x00;
 1173              		.loc 1 1824 0
 1174 028e 120A     		lsrs	r2, r2, #8
 1175 0290 84F82120 		strb	r2, [r4, #33]
1825:AS76.c        ****         USB_transmit[35] = 0x00 >> 8;
 1176              		.loc 1 1825 0
 1177 0294 84F82230 		strb	r3, [r4, #34]
1826:AS76.c        ****         USB_transmit[36] = 0x00;
 1178              		.loc 1 1826 0
 1179 0298 84F82330 		strb	r3, [r4, #35]
1827:AS76.c        ****         USB_transmit[37] = 0x00;
 1180              		.loc 1 1827 0
 1181 029c 84F82430 		strb	r3, [r4, #36]
1828:AS76.c        ****         USB_transmit[38] = 0x00;
 1182              		.loc 1 1828 0
 1183 02a0 84F82530 		strb	r3, [r4, #37]
1829:AS76.c        ****         USB_transmit[39] = Firmware_Version;
 1184              		.loc 1 1829 0
 1185 02a4 84F82630 		strb	r3, [r4, #38]
1830:AS76.c        ****         USB_transmit[40] = 0;
 1186              		.loc 1 1830 0
 1187 02a8 4C22     		movs	r2, #76
 1188 02aa 84F82720 		strb	r2, [r4, #39]
1831:AS76.c        ****         USB_transmit[41] = 0;
 1189              		.loc 1 1831 0
 1190 02ae 84F82830 		strb	r3, [r4, #40]
1832:AS76.c        ****         USB_transmit[42] = 0;
 1191              		.loc 1 1832 0
 1192 02b2 84F82930 		strb	r3, [r4, #41]
1833:AS76.c        ****         USB_transmit[43] = 0;
 1193              		.loc 1 1833 0
 1194 02b6 84F82A30 		strb	r3, [r4, #42]
1834:AS76.c        ****         USB_transmit[44] = 0;
 1195              		.loc 1 1834 0
 1196 02ba 84F82B30 		strb	r3, [r4, #43]
1835:AS76.c        ****         USB_transmit[45] = 0;
 1197              		.loc 1 1835 0
 1198 02be 84F82C30 		strb	r3, [r4, #44]
1836:AS76.c        ****         
 1199              		.loc 1 1836 0
 1200 02c2 84F82D30 		strb	r3, [r4, #45]
1842:AS76.c        ****         USB_PutData(USB_transmit, 46);  //send data back to usb
 1201              		.loc 1 1842 0
 1202 02c6 0948     		ldr	r0, .L96+20
 1203 02c8 FFF7FEFF 		bl	Write_Debug_UART_Char
 1204              	.LVL67:
1843:AS76.c        ****     
 1205              		.loc 1 1843 0
 1206 02cc 2E21     		movs	r1, #46
 1207 02ce 2046     		mov	r0, r4
 1208 02d0 FFF7FEFF 		bl	USB_PutData
 1209              	.LVL68:
 1210 02d4 38BD     		pop	{r3, r4, r5, pc}
 1211              	.L97:
ARM GAS  C:\Users\Revanth\AppData\Local\Temp\ccbqjHa5.s 			page 59


 1212 02d6 00BF     		.align	3
 1213              	.L96:
 1214 02d8 9A999999 		.word	-1717986918
 1215 02dc 99990940 		.word	1074370969
 1216 02e0 00000000 		.word	USB_transmit
 1217 02e4 00000000 		.word	.LANCHOR0
 1218 02e8 00000000 		.word	.LANCHOR1
 1219 02ec 34000000 		.word	.LC3
 1220              		.cfi_endproc
 1221              	.LFE92:
 1222              		.size	Send_Feedback_to_USB, .-Send_Feedback_to_USB
 1223              		.section	.text.Initialize_USB,"ax",%progbits
 1224              		.align	2
 1225              		.global	Initialize_USB
 1226              		.thumb
 1227              		.thumb_func
 1228              		.type	Initialize_USB, %function
 1229              	Initialize_USB:
 1230              	.LFB94:
1851:AS76.c        ****     USB_Start(0, USB_5V_OPERATION);   
 1231              		.loc 1 1851 0
 1232              		.cfi_startproc
 1233              		@ args = 0, pretend = 0, frame = 0
 1234              		@ frame_needed = 0, uses_anonymous_args = 0
 1235 0000 08B5     		push	{r3, lr}
 1236              		.cfi_def_cfa_offset 8
 1237              		.cfi_offset 3, -8
 1238              		.cfi_offset 14, -4
1852:AS76.c        ****     while (0 == USB_GetConfiguration()) /* wait untill USB not found. */
 1239              		.loc 1 1852 0
 1240 0002 0121     		movs	r1, #1
 1241 0004 0020     		movs	r0, #0
 1242 0006 FFF7FEFF 		bl	USB_Start
 1243              	.LVL69:
1853:AS76.c        ****     {
 1244              		.loc 1 1853 0
 1245 000a 05E0     		b	.L99
 1246              	.L100:
1855:AS76.c        ****         CyDelayUs(1);
 1247              		.loc 1 1855 0
 1248 000c 0848     		ldr	r0, .L102
 1249 000e FFF7FEFF 		bl	Write_Debug_UART_Char
 1250              	.LVL70:
1856:AS76.c        ****     }
 1251              		.loc 1 1856 0
 1252 0012 0120     		movs	r0, #1
 1253 0014 FFF7FEFF 		bl	CyDelayUs
 1254              	.LVL71:
 1255              	.L99:
1853:AS76.c        ****     {
 1256              		.loc 1 1853 0
 1257 0018 FFF7FEFF 		bl	USB_GetConfiguration
 1258              	.LVL72:
 1259 001c 0028     		cmp	r0, #0
 1260 001e F5D0     		beq	.L100
1858:AS76.c        ****     Write_Debug_UART_Char("USB Connected  \r\n");
 1261              		.loc 1 1858 0
ARM GAS  C:\Users\Revanth\AppData\Local\Temp\ccbqjHa5.s 			page 60


 1262 0020 FFF7FEFF 		bl	USB_CDC_Init
 1263              	.LVL73:
1859:AS76.c        ****     USB_EnableSofInt();  
 1264              		.loc 1 1859 0
 1265 0024 0348     		ldr	r0, .L102+4
 1266 0026 FFF7FEFF 		bl	Write_Debug_UART_Char
 1267              	.LVL74:
1860:AS76.c        **** }
 1268              		.loc 1 1860 0
 1269 002a FFF7FEFF 		bl	USB_EnableSofInt
 1270              	.LVL75:
 1271 002e 08BD     		pop	{r3, pc}
 1272              	.L103:
 1273              		.align	2
 1274              	.L102:
 1275 0030 58000000 		.word	.LC4
 1276 0034 7C000000 		.word	.LC5
 1277              		.cfi_endproc
 1278              	.LFE94:
 1279              		.size	Initialize_USB, .-Initialize_USB
 1280              		.section	.text.Write_Debug_UART_Int,"ax",%progbits
 1281              		.align	2
 1282              		.global	Write_Debug_UART_Int
 1283              		.thumb
 1284              		.thumb_func
 1285              		.type	Write_Debug_UART_Int, %function
 1286              	Write_Debug_UART_Int:
 1287              	.LFB99:
1906:AS76.c        ****     	}
1907:AS76.c        ****     }
1908:AS76.c        **** }
1909:AS76.c        **** void Write_Debug_UART_Int(int32 num)
1910:AS76.c        **** {
 1288              		.loc 1 1910 0
 1289              		.cfi_startproc
 1290              		@ args = 0, pretend = 0, frame = 24
 1291              		@ frame_needed = 0, uses_anonymous_args = 0
 1292              	.LVL76:
 1293 0000 00B5     		push	{lr}
 1294              		.cfi_def_cfa_offset 4
 1295              		.cfi_offset 14, -4
 1296 0002 87B0     		sub	sp, sp, #28
 1297              		.cfi_def_cfa_offset 32
 1298              	.LBB3:
1911:AS76.c        ****    // if(Pin_UART_Enable_Read()==0)
1912:AS76.c        ****     {
1913:AS76.c        ****         char uart_Buffer[20];
1914:AS76.c        ****         sprintf(uart_Buffer,"%d, ",(int)num);
 1299              		.loc 1 1914 0
 1300 0004 0246     		mov	r2, r0
 1301 0006 0649     		ldr	r1, .L106
 1302 0008 01A8     		add	r0, sp, #4
 1303              	.LVL77:
 1304 000a FFF7FEFF 		bl	sprintf
 1305              	.LVL78:
1915:AS76.c        ****         UART_PCB_LOG_PutString(uart_Buffer);
 1306              		.loc 1 1915 0
ARM GAS  C:\Users\Revanth\AppData\Local\Temp\ccbqjHa5.s 			page 61


 1307 000e 01A8     		add	r0, sp, #4
 1308 0010 FFF7FEFF 		bl	UART_PCB_LOG_PutString
 1309              	.LVL79:
1916:AS76.c        ****         CyDelayUs(1);
 1310              		.loc 1 1916 0
 1311 0014 0120     		movs	r0, #1
 1312 0016 FFF7FEFF 		bl	CyDelayUs
 1313              	.LVL80:
 1314              	.LBE3:
1917:AS76.c        ****     }
1918:AS76.c        **** }
 1315              		.loc 1 1918 0
 1316 001a 07B0     		add	sp, sp, #28
 1317              		.cfi_def_cfa_offset 4
 1318              		@ sp needed
 1319 001c 5DF804FB 		ldr	pc, [sp], #4
 1320              	.L107:
 1321              		.align	2
 1322              	.L106:
 1323 0020 90000000 		.word	.LC6
 1324              		.cfi_endproc
 1325              	.LFE99:
 1326              		.size	Write_Debug_UART_Int, .-Write_Debug_UART_Int
 1327              		.global	__aeabi_ddiv
 1328              		.global	__aeabi_d2uiz
 1329              		.section	.text.set_BarcodeCondenser_LED,"ax",%progbits
 1330              		.align	2
 1331              		.global	set_BarcodeCondenser_LED
 1332              		.thumb
 1333              		.thumb_func
 1334              		.type	set_BarcodeCondenser_LED, %function
 1335              	set_BarcodeCondenser_LED:
 1336              	.LFB81:
1126:AS76.c        ****     PWM_barcode_comare_value = ((unsigned int)USB_received[3] << 8) + USB_received[2];  //Read LED 
 1337              		.loc 1 1126 0
 1338              		.cfi_startproc
 1339              		@ args = 0, pretend = 0, frame = 0
 1340              		@ frame_needed = 0, uses_anonymous_args = 0
 1341 0000 10B5     		push	{r4, lr}
 1342              		.cfi_def_cfa_offset 8
 1343              		.cfi_offset 4, -8
 1344              		.cfi_offset 14, -4
1127:AS76.c        ****     PWM_BarcodeCondenser_LED_WriteCompare((PWM_barcode_comare_value*0.6)/10);    //Writing LED valu
 1345              		.loc 1 1127 0
 1346 0002 154B     		ldr	r3, .L110+8
 1347 0004 D878     		ldrb	r0, [r3, #3]	@ zero_extendqisi2
 1348 0006 9B78     		ldrb	r3, [r3, #2]	@ zero_extendqisi2
 1349 0008 03EB0020 		add	r0, r3, r0, lsl #8
 1350 000c 134C     		ldr	r4, .L110+12
 1351 000e 2062     		str	r0, [r4, #32]
1128:AS76.c        ****     Write_Debug_UART_Char("LED Barcode Value Recived--->");
 1352              		.loc 1 1128 0
 1353 0010 FFF7FEFF 		bl	__aeabi_i2d
 1354              	.LVL81:
 1355 0014 0EA3     		adr	r3, .L110
 1356 0016 D3E90023 		ldrd	r2, [r3]
 1357 001a FFF7FEFF 		bl	__aeabi_dmul
ARM GAS  C:\Users\Revanth\AppData\Local\Temp\ccbqjHa5.s 			page 62


 1358              	.LVL82:
 1359 001e 0022     		movs	r2, #0
 1360 0020 0F4B     		ldr	r3, .L110+16
 1361 0022 FFF7FEFF 		bl	__aeabi_ddiv
 1362              	.LVL83:
 1363 0026 FFF7FEFF 		bl	__aeabi_d2uiz
 1364              	.LVL84:
 1365 002a 80B2     		uxth	r0, r0
 1366 002c FFF7FEFF 		bl	PWM_BarcodeCondenser_LED_WriteCompare
 1367              	.LVL85:
1129:AS76.c        ****     Write_Debug_UART_Int(PWM_barcode_comare_value);
 1368              		.loc 1 1129 0
 1369 0030 0C48     		ldr	r0, .L110+20
 1370 0032 FFF7FEFF 		bl	Write_Debug_UART_Char
 1371              	.LVL86:
1130:AS76.c        ****     Write_Debug_UART_Char("\r\n");
 1372              		.loc 1 1130 0
 1373 0036 206A     		ldr	r0, [r4, #32]
 1374 0038 FFF7FEFF 		bl	Write_Debug_UART_Int
 1375              	.LVL87:
1131:AS76.c        ****     Write_Debug_UART_Char("Set Barcode LED Command Executed  \r\n");
 1376              		.loc 1 1131 0
 1377 003c 0A48     		ldr	r0, .L110+24
 1378 003e FFF7FEFF 		bl	Write_Debug_UART_Char
 1379              	.LVL88:
1132:AS76.c        ****     return 0;
 1380              		.loc 1 1132 0
 1381 0042 0A48     		ldr	r0, .L110+28
 1382 0044 FFF7FEFF 		bl	Write_Debug_UART_Char
 1383              	.LVL89:
1134:AS76.c        **** 
 1384              		.loc 1 1134 0
 1385 0048 0020     		movs	r0, #0
 1386 004a 10BD     		pop	{r4, pc}
 1387              	.L111:
 1388 004c AFF30080 		.align	3
 1389              	.L110:
 1390 0050 33333333 		.word	858993459
 1391 0054 3333E33F 		.word	1071854387
 1392 0058 00000000 		.word	USB_received
 1393 005c 00000000 		.word	.LANCHOR0
 1394 0060 00002440 		.word	1076101120
 1395 0064 98000000 		.word	.LC7
 1396 0068 B8000000 		.word	.LC8
 1397 006c BC000000 		.word	.LC9
 1398              		.cfi_endproc
 1399              	.LFE81:
 1400              		.size	set_BarcodeCondenser_LED, .-set_BarcodeCondenser_LED
 1401              		.section	.text.set_CondenserLED,"ax",%progbits
 1402              		.align	2
 1403              		.global	set_CondenserLED
 1404              		.thumb
 1405              		.thumb_func
 1406              		.type	set_CondenserLED, %function
 1407              	set_CondenserLED:
 1408              	.LFB82:
1137:AS76.c        ****     PWM_Condenser_comare_value = ((unsigned int)USB_received[3] << 8) + USB_received[2];  //Read LE
ARM GAS  C:\Users\Revanth\AppData\Local\Temp\ccbqjHa5.s 			page 63


 1409              		.loc 1 1137 0
 1410              		.cfi_startproc
 1411              		@ args = 0, pretend = 0, frame = 0
 1412              		@ frame_needed = 0, uses_anonymous_args = 0
 1413 0000 10B5     		push	{r4, lr}
 1414              		.cfi_def_cfa_offset 8
 1415              		.cfi_offset 4, -8
 1416              		.cfi_offset 14, -4
1138:AS76.c        ****     PWM_CondenserLED_WriteCompare((PWM_Condenser_comare_value*0.6)/10);    //Writing LED value in t
 1417              		.loc 1 1138 0
 1418 0002 154B     		ldr	r3, .L114+8
 1419 0004 D878     		ldrb	r0, [r3, #3]	@ zero_extendqisi2
 1420 0006 9B78     		ldrb	r3, [r3, #2]	@ zero_extendqisi2
 1421 0008 03EB0020 		add	r0, r3, r0, lsl #8
 1422 000c 134C     		ldr	r4, .L114+12
 1423 000e 2060     		str	r0, [r4]
1139:AS76.c        ****     Write_Debug_UART_Char(" LED Value Recived--->");
 1424              		.loc 1 1139 0
 1425 0010 FFF7FEFF 		bl	__aeabi_i2d
 1426              	.LVL90:
 1427 0014 0EA3     		adr	r3, .L114
 1428 0016 D3E90023 		ldrd	r2, [r3]
 1429 001a FFF7FEFF 		bl	__aeabi_dmul
 1430              	.LVL91:
 1431 001e 0022     		movs	r2, #0
 1432 0020 0F4B     		ldr	r3, .L114+16
 1433 0022 FFF7FEFF 		bl	__aeabi_ddiv
 1434              	.LVL92:
 1435 0026 FFF7FEFF 		bl	__aeabi_d2uiz
 1436              	.LVL93:
 1437 002a 80B2     		uxth	r0, r0
 1438 002c FFF7FEFF 		bl	PWM_CondenserLED_WriteCompare
 1439              	.LVL94:
1140:AS76.c        ****     Write_Debug_UART_Int(PWM_Condenser_comare_value);
 1440              		.loc 1 1140 0
 1441 0030 0C48     		ldr	r0, .L114+20
 1442 0032 FFF7FEFF 		bl	Write_Debug_UART_Char
 1443              	.LVL95:
1141:AS76.c        ****     Write_Debug_UART_Char("\r\n");
 1444              		.loc 1 1141 0
 1445 0036 2068     		ldr	r0, [r4]
 1446 0038 FFF7FEFF 		bl	Write_Debug_UART_Int
 1447              	.LVL96:
1142:AS76.c        ****     Write_Debug_UART_Char("Set LED Command Executed  \r\n");
 1448              		.loc 1 1142 0
 1449 003c 0A48     		ldr	r0, .L114+24
 1450 003e FFF7FEFF 		bl	Write_Debug_UART_Char
 1451              	.LVL97:
1143:AS76.c        ****     return 0;
 1452              		.loc 1 1143 0
 1453 0042 0A48     		ldr	r0, .L114+28
 1454 0044 FFF7FEFF 		bl	Write_Debug_UART_Char
 1455              	.LVL98:
1145:AS76.c        **** 
 1456              		.loc 1 1145 0
 1457 0048 0020     		movs	r0, #0
 1458 004a 10BD     		pop	{r4, pc}
ARM GAS  C:\Users\Revanth\AppData\Local\Temp\ccbqjHa5.s 			page 64


 1459              	.L115:
 1460 004c AFF30080 		.align	3
 1461              	.L114:
 1462 0050 33333333 		.word	858993459
 1463 0054 3333E33F 		.word	1071854387
 1464 0058 00000000 		.word	USB_received
 1465 005c 00000000 		.word	.LANCHOR1
 1466 0060 00002440 		.word	1076101120
 1467 0064 E4000000 		.word	.LC10
 1468 0068 B8000000 		.word	.LC8
 1469 006c FC000000 		.word	.LC11
 1470              		.cfi_endproc
 1471              	.LFE82:
 1472              		.size	set_CondenserLED, .-set_CondenserLED
 1473              		.section	.text.UART_print_all_values,"ax",%progbits
 1474              		.align	2
 1475              		.global	UART_print_all_values
 1476              		.thumb
 1477              		.thumb_func
 1478              		.type	UART_print_all_values, %function
 1479              	UART_print_all_values:
 1480              	.LFB100:
1919:AS76.c        **** void UART_print_all_values()
1920:AS76.c        **** {
 1481              		.loc 1 1920 0
 1482              		.cfi_startproc
 1483              		@ args = 0, pretend = 0, frame = 0
 1484              		@ frame_needed = 0, uses_anonymous_args = 0
 1485 0000 08B5     		push	{r3, lr}
 1486              		.cfi_def_cfa_offset 8
 1487              		.cfi_offset 3, -8
 1488              		.cfi_offset 14, -4
1921:AS76.c        ****     Write_Debug_UART_Char("\r\n");
 1489              		.loc 1 1921 0
 1490 0002 0548     		ldr	r0, .L118
 1491 0004 FFF7FEFF 		bl	Write_Debug_UART_Char
 1492              	.LVL99:
1922:AS76.c        ****     Write_Debug_UART_Char("--------------------------------------------------");
 1493              		.loc 1 1922 0
 1494 0008 0448     		ldr	r0, .L118+4
 1495 000a FFF7FEFF 		bl	Write_Debug_UART_Char
 1496              	.LVL100:
1923:AS76.c        ****     Write_Debug_UART_Char("\n");
 1497              		.loc 1 1923 0
 1498 000e 0448     		ldr	r0, .L118+8
 1499 0010 FFF7FEFF 		bl	Write_Debug_UART_Char
 1500              	.LVL101:
 1501 0014 08BD     		pop	{r3, pc}
 1502              	.L119:
 1503 0016 00BF     		.align	2
 1504              	.L118:
 1505 0018 B8000000 		.word	.LC8
 1506 001c 1C010000 		.word	.LC12
 1507 0020 50010000 		.word	.LC13
 1508              		.cfi_endproc
 1509              	.LFE100:
 1510              		.size	UART_print_all_values, .-UART_print_all_values
ARM GAS  C:\Users\Revanth\AppData\Local\Temp\ccbqjHa5.s 			page 65


 1511              		.section	.text.if_all_homing_done,"ax",%progbits
 1512              		.align	2
 1513              		.global	if_all_homing_done
 1514              		.thumb
 1515              		.thumb_func
 1516              		.type	if_all_homing_done, %function
 1517              	if_all_homing_done:
 1518              	.LFB79:
1071:AS76.c        ****     if((HomeY_done == false)&&(Error == 0))
 1519              		.loc 1 1071 0
 1520              		.cfi_startproc
 1521              		@ args = 0, pretend = 0, frame = 0
 1522              		@ frame_needed = 0, uses_anonymous_args = 0
 1523 0000 10B5     		push	{r4, lr}
 1524              		.cfi_def_cfa_offset 8
 1525              		.cfi_offset 4, -8
 1526              		.cfi_offset 14, -4
1072:AS76.c        ****     {
 1527              		.loc 1 1072 0
 1528 0002 194B     		ldr	r3, .L126
 1529 0004 93F82040 		ldrb	r4, [r3, #32]	@ zero_extendqisi2
 1530 0008 5CB9     		cbnz	r4, .L121
1072:AS76.c        ****     {
 1531              		.loc 1 1072 0 is_stmt 0 discriminator 1
 1532 000a 184B     		ldr	r3, .L126+4
 1533 000c 5B6A     		ldr	r3, [r3, #36]
 1534 000e 43B9     		cbnz	r3, .L121
1074:AS76.c        ****         Write_Debug_UART_Char("Y_Homing_Not_Done_Yet***********[x12]  \r\n");
 1535              		.loc 1 1074 0 is_stmt 1
 1536 0010 0C22     		movs	r2, #12
 1537 0012 164B     		ldr	r3, .L126+4
 1538 0014 5A62     		str	r2, [r3, #36]
1075:AS76.c        ****         UART_print_all_values();
 1539              		.loc 1 1075 0
 1540 0016 1648     		ldr	r0, .L126+8
 1541 0018 FFF7FEFF 		bl	Write_Debug_UART_Char
 1542              	.LVL102:
1076:AS76.c        ****         return false;
 1543              		.loc 1 1076 0
 1544 001c FFF7FEFF 		bl	UART_print_all_values
 1545              	.LVL103:
1077:AS76.c        ****     }
 1546              		.loc 1 1077 0
 1547 0020 20E0     		b	.L122
 1548              	.L121:
1079:AS76.c        ****     {
 1549              		.loc 1 1079 0
 1550 0022 114B     		ldr	r3, .L126
 1551 0024 93F82140 		ldrb	r4, [r3, #33]	@ zero_extendqisi2
 1552 0028 5CB9     		cbnz	r4, .L123
1079:AS76.c        ****     {
 1553              		.loc 1 1079 0 is_stmt 0 discriminator 1
 1554 002a 104B     		ldr	r3, .L126+4
 1555 002c 5B6A     		ldr	r3, [r3, #36]
 1556 002e 43B9     		cbnz	r3, .L123
1081:AS76.c        ****         Write_Debug_UART_Char("X_Homing_Not_Done_Yet***********  \r\n");
 1557              		.loc 1 1081 0 is_stmt 1
ARM GAS  C:\Users\Revanth\AppData\Local\Temp\ccbqjHa5.s 			page 66


 1558 0030 0622     		movs	r2, #6
 1559 0032 0E4B     		ldr	r3, .L126+4
 1560 0034 5A62     		str	r2, [r3, #36]
1082:AS76.c        ****         UART_print_all_values();
 1561              		.loc 1 1082 0
 1562 0036 0F48     		ldr	r0, .L126+12
 1563 0038 FFF7FEFF 		bl	Write_Debug_UART_Char
 1564              	.LVL104:
1083:AS76.c        ****         return false;
 1565              		.loc 1 1083 0
 1566 003c FFF7FEFF 		bl	UART_print_all_values
 1567              	.LVL105:
1084:AS76.c        ****     }
 1568              		.loc 1 1084 0
 1569 0040 10E0     		b	.L122
 1570              	.L123:
1086:AS76.c        ****     {
 1571              		.loc 1 1086 0
 1572 0042 094B     		ldr	r3, .L126
 1573 0044 93F82240 		ldrb	r4, [r3, #34]	@ zero_extendqisi2
 1574 0048 64B9     		cbnz	r4, .L122
1086:AS76.c        ****     {
 1575              		.loc 1 1086 0 is_stmt 0 discriminator 1
 1576 004a 084B     		ldr	r3, .L126+4
 1577 004c 5B6A     		ldr	r3, [r3, #36]
 1578 004e 43B9     		cbnz	r3, .L124
1088:AS76.c        ****         Write_Debug_UART_Char("Z_Homing_Not_Done_Yet***********  \r\n");
 1579              		.loc 1 1088 0 is_stmt 1
 1580 0050 1222     		movs	r2, #18
 1581 0052 064B     		ldr	r3, .L126+4
 1582 0054 5A62     		str	r2, [r3, #36]
1089:AS76.c        ****         UART_print_all_values();
 1583              		.loc 1 1089 0
 1584 0056 0848     		ldr	r0, .L126+16
 1585 0058 FFF7FEFF 		bl	Write_Debug_UART_Char
 1586              	.LVL106:
1090:AS76.c        ****         return false;
 1587              		.loc 1 1090 0
 1588 005c FFF7FEFF 		bl	UART_print_all_values
 1589              	.LVL107:
1091:AS76.c        ****     } 
 1590              		.loc 1 1091 0
 1591 0060 00E0     		b	.L122
 1592              	.L124:
1102:AS76.c        ****     }
 1593              		.loc 1 1102 0
 1594 0062 0124     		movs	r4, #1
 1595              	.L122:
1104:AS76.c        **** 
 1596              		.loc 1 1104 0
 1597 0064 2046     		mov	r0, r4
 1598 0066 10BD     		pop	{r4, pc}
 1599              	.L127:
 1600              		.align	2
 1601              	.L126:
 1602 0068 00000000 		.word	.LANCHOR1
 1603 006c 00000000 		.word	.LANCHOR0
ARM GAS  C:\Users\Revanth\AppData\Local\Temp\ccbqjHa5.s 			page 67


 1604 0070 54010000 		.word	.LC14
 1605 0074 80010000 		.word	.LC15
 1606 0078 A8010000 		.word	.LC16
 1607              		.cfi_endproc
 1608              	.LFE79:
 1609              		.size	if_all_homing_done, .-if_all_homing_done
 1610              		.section	.text.Is_USB_Unpluged,"ax",%progbits
 1611              		.align	2
 1612              		.global	Is_USB_Unpluged
 1613              		.thumb
 1614              		.thumb_func
 1615              		.type	Is_USB_Unpluged, %function
 1616              	Is_USB_Unpluged:
 1617              	.LFB95:
1863:AS76.c        ****    static bool dont_Execute_1st_Time=false;
 1618              		.loc 1 1863 0
 1619              		.cfi_startproc
 1620              		@ args = 0, pretend = 0, frame = 0
 1621              		@ frame_needed = 0, uses_anonymous_args = 0
 1622 0000 08B5     		push	{r3, lr}
 1623              		.cfi_def_cfa_offset 8
 1624              		.cfi_offset 3, -8
 1625              		.cfi_offset 14, -4
1865:AS76.c        ****    {
 1626              		.loc 1 1865 0
 1627 0002 FFF7FEFF 		bl	USB_IsConfigurationChanged
 1628              	.LVL108:
 1629 0006 B0B1     		cbz	r0, .L128
1867:AS76.c        ****        if(USB_GetConfiguration() != 0)
 1630              		.loc 1 1867 0
 1631 0008 FFF7FEFF 		bl	Beep_Twice
 1632              	.LVL109:
1868:AS76.c        ****        {
 1633              		.loc 1 1868 0
 1634 000c FFF7FEFF 		bl	USB_GetConfiguration
 1635              	.LVL110:
 1636 0010 88B1     		cbz	r0, .L128
1870:AS76.c        ****             {
 1637              		.loc 1 1870 0
 1638 0012 094B     		ldr	r3, .L132
 1639 0014 93F82830 		ldrb	r3, [r3, #40]	@ zero_extendqisi2
 1640 0018 4BB1     		cbz	r3, .L130
1872:AS76.c        ****                 UART_print_all_values();
 1641              		.loc 1 1872 0
 1642 001a 0848     		ldr	r0, .L132+4
 1643 001c FFF7FEFF 		bl	Write_Debug_UART_Char
 1644              	.LVL111:
1873:AS76.c        ****                 CyDelay(1);
 1645              		.loc 1 1873 0
 1646 0020 FFF7FEFF 		bl	UART_print_all_values
 1647              	.LVL112:
1874:AS76.c        ****                 CySoftwareReset();
 1648              		.loc 1 1874 0
 1649 0024 0120     		movs	r0, #1
 1650 0026 FFF7FEFF 		bl	CyDelay
 1651              	.LVL113:
1875:AS76.c        ****             }
ARM GAS  C:\Users\Revanth\AppData\Local\Temp\ccbqjHa5.s 			page 68


 1652              		.loc 1 1875 0
 1653 002a FFF7FEFF 		bl	CySoftwareReset
 1654              	.LVL114:
 1655              	.L130:
1877:AS76.c        ****        }
 1656              		.loc 1 1877 0
 1657 002e 0122     		movs	r2, #1
 1658 0030 014B     		ldr	r3, .L132
 1659 0032 83F82820 		strb	r2, [r3, #40]
 1660              	.L128:
 1661 0036 08BD     		pop	{r3, pc}
 1662              	.L133:
 1663              		.align	2
 1664              	.L132:
 1665 0038 00000000 		.word	.LANCHOR0
 1666 003c D0010000 		.word	.LC17
 1667              		.cfi_endproc
 1668              	.LFE95:
 1669              		.size	Is_USB_Unpluged, .-Is_USB_Unpluged
 1670              		.section	.text.Data_To_Transfer,"ax",%progbits
 1671              		.align	2
 1672              		.global	Data_To_Transfer
 1673              		.thumb
 1674              		.thumb_func
 1675              		.type	Data_To_Transfer, %function
 1676              	Data_To_Transfer:
 1677              	.LFB101:
1924:AS76.c        **** 
1925:AS76.c        **** }
1926:AS76.c        **** //USB Functions Stop-------------------------------------------------------
1927:AS76.c        **** 
1928:AS76.c        **** 
1929:AS76.c        **** //L6470 Motor Driver Functions Stop-------------------------------------------------------
1930:AS76.c        **** 
1931:AS76.c        **** 
1932:AS76.c        **** uint8_t Data_To_Transfer(uint8_t data)
1933:AS76.c        **** {   
 1678              		.loc 1 1933 0
 1679              		.cfi_startproc
 1680              		@ args = 0, pretend = 0, frame = 0
 1681              		@ frame_needed = 0, uses_anonymous_args = 0
 1682              	.LVL115:
 1683 0000 08B5     		push	{r3, lr}
 1684              		.cfi_def_cfa_offset 8
 1685              		.cfi_offset 3, -8
 1686              		.cfi_offset 14, -4
1934:AS76.c        ****     SPIM_WriteTxData(data);
 1687              		.loc 1 1934 0
 1688 0002 FFF7FEFF 		bl	SPIM_WriteTxData
 1689              	.LVL116:
1935:AS76.c        ****     CyDelayUs(10);
 1690              		.loc 1 1935 0
 1691 0006 0A20     		movs	r0, #10
 1692 0008 FFF7FEFF 		bl	CyDelayUs
 1693              	.LVL117:
1936:AS76.c        ****     return 1;
1937:AS76.c        **** }
ARM GAS  C:\Users\Revanth\AppData\Local\Temp\ccbqjHa5.s 			page 69


 1694              		.loc 1 1937 0
 1695 000c 0120     		movs	r0, #1
 1696 000e 08BD     		pop	{r3, pc}
 1697              		.cfi_endproc
 1698              	.LFE101:
 1699              		.size	Data_To_Transfer, .-Data_To_Transfer
 1700              		.section	.text.SPI_MOTOR_CHIP_SELECT,"ax",%progbits
 1701              		.align	2
 1702              		.global	SPI_MOTOR_CHIP_SELECT
 1703              		.thumb
 1704              		.thumb_func
 1705              		.type	SPI_MOTOR_CHIP_SELECT, %function
 1706              	SPI_MOTOR_CHIP_SELECT:
 1707              	.LFB102:
1938:AS76.c        **** 
1939:AS76.c        **** 
1940:AS76.c        **** 
1941:AS76.c        **** /* --------------------------------------------------------------------------------------------
1942:AS76.c        **** Function Name        : SPI_MOTOR_CHIP_SELECT
1943:AS76.c        **** 
1944:AS76.c        **** Prerequist Knowledge : SPI Communication Protocol, SCI Chip Select Pin, GPIO, SWITCH Statement
1945:AS76.c        **** 
1946:AS76.c        **** Function Description : This Function is used to assert or de-assert the chipselect pin of
1947:AS76.c        ****                        selected driver IC.
1948:AS76.c        **** 
1949:AS76.c        **** Return Type & Data   : Void
1950:AS76.c        **** 
1951:AS76.c        **** Numnber of Arguments : 2
1952:AS76.c        **** 
1953:AS76.c        **** -----Argument 1-----
1954:AS76.c        **** Name                 : Motor
1955:AS76.c        **** Tupe                 : uint8_t
1956:AS76.c        **** Description          : This Argument Represents the driver channel
1957:AS76.c        **** Condition            : This Value must range from 0x00 to 0x04 since there are only 5 channels
1958:AS76.c        ****                        available in AS76 System Configuration
1959:AS76.c        **** --------------------
1960:AS76.c        **** 
1961:AS76.c        **** -----Argument 2-----
1962:AS76.c        **** Name                 : Value
1963:AS76.c        **** Tupe                 : uint8_t
1964:AS76.c        **** Description          : This Argument Represents the GPIO Level
1965:AS76.c        **** Condition            : This Value must either 0x00 or 0xFF (Low/High)
1966:AS76.c        **** --------------------
1967:AS76.c        **** 
1968:AS76.c        **** ---------------------------------------------------------------------------------------------*/
1969:AS76.c        **** 
1970:AS76.c        **** void SPI_MOTOR_CHIP_SELECT (uint8_t Motor, uint8_t Value)
1971:AS76.c        **** {
 1708              		.loc 1 1971 0
 1709              		.cfi_startproc
 1710              		@ args = 0, pretend = 0, frame = 0
 1711              		@ frame_needed = 0, uses_anonymous_args = 0
 1712              	.LVL118:
 1713 0000 10B5     		push	{r4, lr}
 1714              		.cfi_def_cfa_offset 8
 1715              		.cfi_offset 4, -8
 1716              		.cfi_offset 14, -4
ARM GAS  C:\Users\Revanth\AppData\Local\Temp\ccbqjHa5.s 			page 70


1972:AS76.c        ****     
1973:AS76.c        **** if ((Value == 0x00) || (Value == 0xFF))  // Condition to check for valid GPIO Value
 1717              		.loc 1 1973 0
 1718 0002 4B1E     		subs	r3, r1, #1
 1719 0004 DBB2     		uxtb	r3, r3
 1720 0006 FD2B     		cmp	r3, #253
 1721 0008 3DD9     		bls	.L137
 1722 000a 0C46     		mov	r4, r1
1974:AS76.c        **** {
1975:AS76.c        ****  switch (Motor) // Condition to select correct motor driver channel
 1723              		.loc 1 1975 0
 1724 000c 0428     		cmp	r0, #4
 1725 000e 36D8     		bhi	.L138
 1726 0010 DFE800F0 		tbb	[pc, r0]
 1727              	.L140:
 1728 0014 03       		.byte	(.L139-.L140)/2
 1729 0015 0D       		.byte	(.L141-.L140)/2
 1730 0016 17       		.byte	(.L142-.L140)/2
 1731 0017 21       		.byte	(.L143-.L140)/2
 1732 0018 2B       		.byte	(.L144-.L140)/2
 1733 0019 00       		.p2align 1
 1734              	.L139:
1976:AS76.c        ****     {
1977:AS76.c        ****     case 0x00:
1978:AS76.c        ****         {
1979:AS76.c        ****           CyDelayUs(10);
 1735              		.loc 1 1979 0
 1736 001a 0A20     		movs	r0, #10
 1737              	.LVL119:
 1738 001c FFF7FEFF 		bl	CyDelayUs
 1739              	.LVL120:
1980:AS76.c        ****           Pin_CSMotorX_Write(Value);
 1740              		.loc 1 1980 0
 1741 0020 2046     		mov	r0, r4
 1742 0022 FFF7FEFF 		bl	Pin_CSMotorX_Write
 1743              	.LVL121:
1981:AS76.c        ****           CyDelayUs(10);
 1744              		.loc 1 1981 0
 1745 0026 0A20     		movs	r0, #10
 1746 0028 FFF7FEFF 		bl	CyDelayUs
 1747              	.LVL122:
1982:AS76.c        ****          // Write_Debug_UART_Char("Motor Channel 1 asserted/de-asserted for SPI Read/Write  \r\n");
1983:AS76.c        ****           break;
 1748              		.loc 1 1983 0
 1749 002c 10BD     		pop	{r4, pc}
 1750              	.LVL123:
 1751              	.L141:
1984:AS76.c        ****         }
1985:AS76.c        ****     case 0x01:
1986:AS76.c        ****         {
1987:AS76.c        ****           CyDelayUs(10);
 1752              		.loc 1 1987 0
 1753 002e 0A20     		movs	r0, #10
 1754              	.LVL124:
 1755 0030 FFF7FEFF 		bl	CyDelayUs
 1756              	.LVL125:
1988:AS76.c        ****           Pin_CSMotorY_Write(Value);
ARM GAS  C:\Users\Revanth\AppData\Local\Temp\ccbqjHa5.s 			page 71


 1757              		.loc 1 1988 0
 1758 0034 2046     		mov	r0, r4
 1759 0036 FFF7FEFF 		bl	Pin_CSMotorY_Write
 1760              	.LVL126:
1989:AS76.c        ****           CyDelayUs(10);
 1761              		.loc 1 1989 0
 1762 003a 0A20     		movs	r0, #10
 1763 003c FFF7FEFF 		bl	CyDelayUs
 1764              	.LVL127:
1990:AS76.c        ****          // Write_Debug_UART_Char("Motor Channel 2 asserted/de-asserted for SPI Read/Write  \r\n");
1991:AS76.c        ****           break;
 1765              		.loc 1 1991 0
 1766 0040 10BD     		pop	{r4, pc}
 1767              	.LVL128:
 1768              	.L142:
1992:AS76.c        ****         }
1993:AS76.c        ****         case 0x02:
1994:AS76.c        ****         {
1995:AS76.c        ****           CyDelayUs(10);
 1769              		.loc 1 1995 0
 1770 0042 0A20     		movs	r0, #10
 1771              	.LVL129:
 1772 0044 FFF7FEFF 		bl	CyDelayUs
 1773              	.LVL130:
1996:AS76.c        ****           Pin_CSMotorZ_Write(Value);
 1774              		.loc 1 1996 0
 1775 0048 2046     		mov	r0, r4
 1776 004a FFF7FEFF 		bl	Pin_CSMotorZ_Write
 1777              	.LVL131:
1997:AS76.c        ****          // Write_Debug_UART_Char("Motor Channel 3 asserted/de-asserted for SPI Read/Write  \r\n");
1998:AS76.c        ****           CyDelayUs(10);
 1778              		.loc 1 1998 0
 1779 004e 0A20     		movs	r0, #10
 1780 0050 FFF7FEFF 		bl	CyDelayUs
 1781              	.LVL132:
1999:AS76.c        ****           break;
 1782              		.loc 1 1999 0
 1783 0054 10BD     		pop	{r4, pc}
 1784              	.LVL133:
 1785              	.L143:
2000:AS76.c        ****         }
2001:AS76.c        ****         case 0x03:
2002:AS76.c        ****         {
2003:AS76.c        ****           CyDelayUs(10);
 1786              		.loc 1 2003 0
 1787 0056 0A20     		movs	r0, #10
 1788              	.LVL134:
 1789 0058 FFF7FEFF 		bl	CyDelayUs
 1790              	.LVL135:
2004:AS76.c        ****           Pin_CSMotorT_Write(Value);
 1791              		.loc 1 2004 0
 1792 005c 2046     		mov	r0, r4
 1793 005e FFF7FEFF 		bl	Pin_CSMotorT_Write
 1794              	.LVL136:
2005:AS76.c        ****         //  Write_Debug_UART_Char("Motor Channel 4 asserted/de-asserted for SPI Read/Write  \r\n");
2006:AS76.c        ****           CyDelayUs(10);
 1795              		.loc 1 2006 0
ARM GAS  C:\Users\Revanth\AppData\Local\Temp\ccbqjHa5.s 			page 72


 1796 0062 0A20     		movs	r0, #10
 1797 0064 FFF7FEFF 		bl	CyDelayUs
 1798              	.LVL137:
2007:AS76.c        ****           break;
 1799              		.loc 1 2007 0
 1800 0068 10BD     		pop	{r4, pc}
 1801              	.LVL138:
 1802              	.L144:
2008:AS76.c        ****         }
2009:AS76.c        ****         case 0x04:
2010:AS76.c        ****         {
2011:AS76.c        ****           CyDelayUs(10);
 1803              		.loc 1 2011 0
 1804 006a 0A20     		movs	r0, #10
 1805              	.LVL139:
 1806 006c FFF7FEFF 		bl	CyDelayUs
 1807              	.LVL140:
2012:AS76.c        ****           Pin_CSMotorO_Write(Value);
 1808              		.loc 1 2012 0
 1809 0070 2046     		mov	r0, r4
 1810 0072 FFF7FEFF 		bl	Pin_CSMotorO_Write
 1811              	.LVL141:
2013:AS76.c        ****         //  Write_Debug_UART_Char("Motor Channel 5 asserted/de-asserted for SPI Read/Write  \r\n");
2014:AS76.c        ****           CyDelayUs(10);
 1812              		.loc 1 2014 0
 1813 0076 0A20     		movs	r0, #10
 1814 0078 FFF7FEFF 		bl	CyDelayUs
 1815              	.LVL142:
2015:AS76.c        ****           break;
 1816              		.loc 1 2015 0
 1817 007c 10BD     		pop	{r4, pc}
 1818              	.LVL143:
 1819              	.L138:
2016:AS76.c        ****         }
2017:AS76.c        ****         
2018:AS76.c        ****         default : // If Invalid motor channel selected print error message
2019:AS76.c        ****         {
2020:AS76.c        ****             Write_Debug_UART_Char("No Valid Driver nCS asserted/de-asserted for SPI Read/Write  \r\
 1820              		.loc 1 2020 0
 1821 007e 0448     		ldr	r0, .L147
 1822              	.LVL144:
 1823 0080 FFF7FEFF 		bl	Write_Debug_UART_Char
 1824              	.LVL145:
 1825 0084 10BD     		pop	{r4, pc}
 1826              	.LVL146:
 1827              	.L137:
2021:AS76.c        ****         }
2022:AS76.c        ****     } 
2023:AS76.c        **** }
2024:AS76.c        **** else // If Invalid GPIO Value given, print error message
2025:AS76.c        **** {
2026:AS76.c        ****    Write_Debug_UART_Char("Invalid GPIO Level Value, Unable to assert/de-assert nCSN Pin for SPI Rea
 1828              		.loc 1 2026 0
 1829 0086 0348     		ldr	r0, .L147+4
 1830              	.LVL147:
 1831 0088 FFF7FEFF 		bl	Write_Debug_UART_Char
 1832              	.LVL148:
ARM GAS  C:\Users\Revanth\AppData\Local\Temp\ccbqjHa5.s 			page 73


 1833 008c 10BD     		pop	{r4, pc}
 1834              	.L148:
 1835 008e 00BF     		.align	2
 1836              	.L147:
 1837 0090 FC010000 		.word	.LC18
 1838 0094 3C020000 		.word	.LC19
 1839              		.cfi_endproc
 1840              	.LFE102:
 1841              		.size	SPI_MOTOR_CHIP_SELECT, .-SPI_MOTOR_CHIP_SELECT
 1842              		.section	.text.Read_32bitSPI_DATA,"ax",%progbits
 1843              		.align	2
 1844              		.global	Read_32bitSPI_DATA
 1845              		.thumb
 1846              		.thumb_func
 1847              		.type	Read_32bitSPI_DATA, %function
 1848              	Read_32bitSPI_DATA:
 1849              	.LFB103:
2027:AS76.c        **** }
2028:AS76.c        **** }
2029:AS76.c        **** 
2030:AS76.c        **** //-------------------------- [] END OF SPI_MOTOR_CHIP_SELECT Function ---------------------------
2031:AS76.c        **** 
2032:AS76.c        **** 
2033:AS76.c        **** /* --------------------------------------------------------------------------------------------
2034:AS76.c        **** Function Name        : Read_32bitSPI_DATA
2035:AS76.c        **** 
2036:AS76.c        **** Prerequist Knowledge : SPI Communication Protocol, TMC5160 SPI Communication Protocol
2037:AS76.c        **** 
2038:AS76.c        **** Function Description : This Function is used to read 32bit data from the driver register
2039:AS76.c        ****                        using 32bit SPI communication protocol specific to TMC5160.
2040:AS76.c        **** 
2041:AS76.c        **** Return Type & Data   :32 bit signed or unsigned integer which was fetched from the register
2042:AS76.c        **** 
2043:AS76.c        **** Numnber of Arguments : 2
2044:AS76.c        **** 
2045:AS76.c        **** -----Argument 1-----
2046:AS76.c        **** Name                 : ADDR
2047:AS76.c        **** Tupe                 : uint8_t
2048:AS76.c        **** Description          : The Address of the TMC5160 Register from which data needs to be read
2049:AS76.c        **** Condition            : Nil
2050:AS76.c        **** --------------------
2051:AS76.c        **** 
2052:AS76.c        **** -----Argument 2-----
2053:AS76.c        **** Name                 : Motor
2054:AS76.c        **** Tupe                 : uint8_t
2055:AS76.c        **** Description          : This Argument Represents the driver channel
2056:AS76.c        **** Condition            : This Value must range from 0x00 to 0x04 since there are only 5 channels
2057:AS76.c        ****                        available in AS76 System Configuration, condition to be checked in 
2058:AS76.c        ****                        SPI_MOTOR_CHIP_SELECT Function                       
2059:AS76.c        **** --------------------
2060:AS76.c        **** 
2061:AS76.c        **** 
2062:AS76.c        **** ---------------------------------------------------------------------------------------------*/
2063:AS76.c        **** 
2064:AS76.c        **** 
2065:AS76.c        **** int Read_32bitSPI_DATA(uint8_t ADDR, uint8_t Motor, uint8_t* motor_status )
2066:AS76.c        **** {
ARM GAS  C:\Users\Revanth\AppData\Local\Temp\ccbqjHa5.s 			page 74


 1850              		.loc 1 2066 0
 1851              		.cfi_startproc
 1852              		@ args = 0, pretend = 0, frame = 0
 1853              		@ frame_needed = 0, uses_anonymous_args = 0
 1854              	.LVL149:
 1855 0000 F8B5     		push	{r3, r4, r5, r6, r7, lr}
 1856              		.cfi_def_cfa_offset 24
 1857              		.cfi_offset 3, -24
 1858              		.cfi_offset 4, -20
 1859              		.cfi_offset 5, -16
 1860              		.cfi_offset 6, -12
 1861              		.cfi_offset 7, -8
 1862              		.cfi_offset 14, -4
 1863 0002 0646     		mov	r6, r0
 1864 0004 0D46     		mov	r5, r1
 1865 0006 1746     		mov	r7, r2
 1866              	.LVL150:
2067:AS76.c        ****                 uint32_t SPI_DATA_VALUE = 0;
2068:AS76.c        ****                
2069:AS76.c        ****                
2070:AS76.c        ****                 SPI_MOTOR_CHIP_SELECT (Motor, 0x00);  
 1867              		.loc 1 2070 0
 1868 0008 0021     		movs	r1, #0
 1869              	.LVL151:
 1870 000a 2846     		mov	r0, r5
 1871              	.LVL152:
 1872 000c FFF7FEFF 		bl	SPI_MOTOR_CHIP_SELECT
 1873              	.LVL153:
2071:AS76.c        ****                 
2072:AS76.c        ****                 Data_To_Transfer(ADDR & 0x7F);                
 1874              		.loc 1 2072 0
 1875 0010 06F07F06 		and	r6, r6, #127
 1876 0014 3046     		mov	r0, r6
 1877 0016 FFF7FEFF 		bl	Data_To_Transfer
 1878              	.LVL154:
2073:AS76.c        ****                 Data_To_Transfer(0x00);                
 1879              		.loc 1 2073 0
 1880 001a 0020     		movs	r0, #0
 1881 001c FFF7FEFF 		bl	Data_To_Transfer
 1882              	.LVL155:
2074:AS76.c        ****                 Data_To_Transfer(0x00);                
 1883              		.loc 1 2074 0
 1884 0020 0020     		movs	r0, #0
 1885 0022 FFF7FEFF 		bl	Data_To_Transfer
 1886              	.LVL156:
2075:AS76.c        ****                 Data_To_Transfer(0x00);                
 1887              		.loc 1 2075 0
 1888 0026 0020     		movs	r0, #0
 1889 0028 FFF7FEFF 		bl	Data_To_Transfer
 1890              	.LVL157:
2076:AS76.c        ****                 Data_To_Transfer(0x00); 
 1891              		.loc 1 2076 0
 1892 002c 0020     		movs	r0, #0
 1893 002e FFF7FEFF 		bl	Data_To_Transfer
 1894              	.LVL158:
2077:AS76.c        ****                 
2078:AS76.c        ****                 SPI_MOTOR_CHIP_SELECT (Motor, 0xFF); 
ARM GAS  C:\Users\Revanth\AppData\Local\Temp\ccbqjHa5.s 			page 75


 1895              		.loc 1 2078 0
 1896 0032 FF21     		movs	r1, #255
 1897 0034 2846     		mov	r0, r5
 1898 0036 FFF7FEFF 		bl	SPI_MOTOR_CHIP_SELECT
 1899              	.LVL159:
2079:AS76.c        ****                 
2080:AS76.c        ****                 CyDelay(1);
 1900              		.loc 1 2080 0
 1901 003a 0120     		movs	r0, #1
 1902 003c FFF7FEFF 		bl	CyDelay
 1903              	.LVL160:
2081:AS76.c        ****                 
2082:AS76.c        ****                 SPI_MOTOR_CHIP_SELECT (Motor, 0x00);
 1904              		.loc 1 2082 0
 1905 0040 0021     		movs	r1, #0
 1906 0042 2846     		mov	r0, r5
 1907 0044 FFF7FEFF 		bl	SPI_MOTOR_CHIP_SELECT
 1908              	.LVL161:
2083:AS76.c        ****                 
2084:AS76.c        ****                 Data_To_Transfer(ADDR & 0x7F);
 1909              		.loc 1 2084 0
 1910 0048 3046     		mov	r0, r6
 1911 004a FFF7FEFF 		bl	Data_To_Transfer
 1912              	.LVL162:
2085:AS76.c        ****                 *motor_status = SPIM_ReadRxData();
 1913              		.loc 1 2085 0
 1914 004e FFF7FEFF 		bl	SPIM_ReadRxData
 1915              	.LVL163:
 1916 0052 3870     		strb	r0, [r7]
2086:AS76.c        ****                 Data_To_Transfer(0x00);
 1917              		.loc 1 2086 0
 1918 0054 0020     		movs	r0, #0
 1919 0056 FFF7FEFF 		bl	Data_To_Transfer
 1920              	.LVL164:
2087:AS76.c        ****                 SPI_DATA_VALUE |= (uint32_t) SPIM_ReadRxData() << 24;
 1921              		.loc 1 2087 0
 1922 005a FFF7FEFF 		bl	SPIM_ReadRxData
 1923              	.LVL165:
 1924 005e 0406     		lsls	r4, r0, #24
 1925              	.LVL166:
2088:AS76.c        ****                 Data_To_Transfer(0x00);
 1926              		.loc 1 2088 0
 1927 0060 0020     		movs	r0, #0
 1928 0062 FFF7FEFF 		bl	Data_To_Transfer
 1929              	.LVL167:
2089:AS76.c        ****                 SPI_DATA_VALUE |= (uint32_t) SPIM_ReadRxData() << 16;
 1930              		.loc 1 2089 0
 1931 0066 FFF7FEFF 		bl	SPIM_ReadRxData
 1932              	.LVL168:
 1933 006a 44EA0044 		orr	r4, r4, r0, lsl #16
 1934              	.LVL169:
2090:AS76.c        ****                 Data_To_Transfer(0x00);
 1935              		.loc 1 2090 0
 1936 006e 0020     		movs	r0, #0
 1937 0070 FFF7FEFF 		bl	Data_To_Transfer
 1938              	.LVL170:
2091:AS76.c        ****                 SPI_DATA_VALUE |= (uint32_t) SPIM_ReadRxData() << 8; 
ARM GAS  C:\Users\Revanth\AppData\Local\Temp\ccbqjHa5.s 			page 76


 1939              		.loc 1 2091 0
 1940 0074 FFF7FEFF 		bl	SPIM_ReadRxData
 1941              	.LVL171:
 1942 0078 44EA0024 		orr	r4, r4, r0, lsl #8
 1943              	.LVL172:
2092:AS76.c        ****                 Data_To_Transfer(0x00); 
 1944              		.loc 1 2092 0
 1945 007c 0020     		movs	r0, #0
 1946 007e FFF7FEFF 		bl	Data_To_Transfer
 1947              	.LVL173:
2093:AS76.c        ****                 SPI_DATA_VALUE |= (uint32_t) SPIM_ReadRxData();
 1948              		.loc 1 2093 0
 1949 0082 FFF7FEFF 		bl	SPIM_ReadRxData
 1950              	.LVL174:
 1951 0086 0443     		orrs	r4, r4, r0
 1952              	.LVL175:
2094:AS76.c        ****                 
2095:AS76.c        ****                 SPI_MOTOR_CHIP_SELECT (Motor, 0xFF);
 1953              		.loc 1 2095 0
 1954 0088 FF21     		movs	r1, #255
 1955 008a 2846     		mov	r0, r5
 1956 008c FFF7FEFF 		bl	SPI_MOTOR_CHIP_SELECT
 1957              	.LVL176:
2096:AS76.c        **** 
2097:AS76.c        ****                 CyDelay(1);
 1958              		.loc 1 2097 0
 1959 0090 0120     		movs	r0, #1
 1960 0092 FFF7FEFF 		bl	CyDelay
 1961              	.LVL177:
2098:AS76.c        ****                 
2099:AS76.c        ****                 SPI_MOTOR_CHIP_SELECT (Motor, 0x00);
 1962              		.loc 1 2099 0
 1963 0096 0021     		movs	r1, #0
 1964 0098 2846     		mov	r0, r5
 1965 009a FFF7FEFF 		bl	SPI_MOTOR_CHIP_SELECT
 1966              	.LVL178:
2100:AS76.c        ****                 
2101:AS76.c        ****                 Data_To_Transfer(ADDR & 0x7F);
 1967              		.loc 1 2101 0
 1968 009e 3046     		mov	r0, r6
 1969 00a0 FFF7FEFF 		bl	Data_To_Transfer
 1970              	.LVL179:
2102:AS76.c        ****                 *motor_status = SPIM_ReadRxData();
 1971              		.loc 1 2102 0
 1972 00a4 FFF7FEFF 		bl	SPIM_ReadRxData
 1973              	.LVL180:
 1974 00a8 3870     		strb	r0, [r7]
2103:AS76.c        ****                 Data_To_Transfer(0x00);
 1975              		.loc 1 2103 0
 1976 00aa 0020     		movs	r0, #0
 1977 00ac FFF7FEFF 		bl	Data_To_Transfer
 1978              	.LVL181:
2104:AS76.c        ****                 SPI_DATA_VALUE |= (uint32_t) SPIM_ReadRxData() << 24;
 1979              		.loc 1 2104 0
 1980 00b0 FFF7FEFF 		bl	SPIM_ReadRxData
 1981              	.LVL182:
 1982 00b4 44EA0064 		orr	r4, r4, r0, lsl #24
ARM GAS  C:\Users\Revanth\AppData\Local\Temp\ccbqjHa5.s 			page 77


 1983              	.LVL183:
2105:AS76.c        ****                 Data_To_Transfer(0x00);
 1984              		.loc 1 2105 0
 1985 00b8 0020     		movs	r0, #0
 1986 00ba FFF7FEFF 		bl	Data_To_Transfer
 1987              	.LVL184:
2106:AS76.c        ****                 SPI_DATA_VALUE |= (uint32_t) SPIM_ReadRxData() << 16;
 1988              		.loc 1 2106 0
 1989 00be FFF7FEFF 		bl	SPIM_ReadRxData
 1990              	.LVL185:
 1991 00c2 44EA0044 		orr	r4, r4, r0, lsl #16
 1992              	.LVL186:
2107:AS76.c        ****                 Data_To_Transfer(0x00);
 1993              		.loc 1 2107 0
 1994 00c6 0020     		movs	r0, #0
 1995 00c8 FFF7FEFF 		bl	Data_To_Transfer
 1996              	.LVL187:
2108:AS76.c        ****                 SPI_DATA_VALUE |= (uint32_t) SPIM_ReadRxData() << 8; 
 1997              		.loc 1 2108 0
 1998 00cc FFF7FEFF 		bl	SPIM_ReadRxData
 1999              	.LVL188:
 2000 00d0 44EA0024 		orr	r4, r4, r0, lsl #8
 2001              	.LVL189:
2109:AS76.c        ****                 Data_To_Transfer(0x00); 
 2002              		.loc 1 2109 0
 2003 00d4 0020     		movs	r0, #0
 2004 00d6 FFF7FEFF 		bl	Data_To_Transfer
 2005              	.LVL190:
2110:AS76.c        ****                 SPI_DATA_VALUE |= (uint32_t) SPIM_ReadRxData();
 2006              		.loc 1 2110 0
 2007 00da FFF7FEFF 		bl	SPIM_ReadRxData
 2008              	.LVL191:
 2009 00de 0443     		orrs	r4, r4, r0
 2010              	.LVL192:
2111:AS76.c        ****                 
2112:AS76.c        ****                 SPI_MOTOR_CHIP_SELECT (Motor, 0xFF);
 2011              		.loc 1 2112 0
 2012 00e0 FF21     		movs	r1, #255
 2013 00e2 2846     		mov	r0, r5
 2014 00e4 FFF7FEFF 		bl	SPI_MOTOR_CHIP_SELECT
 2015              	.LVL193:
2113:AS76.c        ****                 
2114:AS76.c        ****                 
2115:AS76.c        ****                 return SPI_DATA_VALUE;
2116:AS76.c        **** }
 2016              		.loc 1 2116 0
 2017 00e8 2046     		mov	r0, r4
 2018 00ea F8BD     		pop	{r3, r4, r5, r6, r7, pc}
 2019              		.cfi_endproc
 2020              	.LFE103:
 2021              		.size	Read_32bitSPI_DATA, .-Read_32bitSPI_DATA
 2022              		.section	.text.Write_32bitSPI_DATA,"ax",%progbits
 2023              		.align	2
 2024              		.global	Write_32bitSPI_DATA
 2025              		.thumb
 2026              		.thumb_func
 2027              		.type	Write_32bitSPI_DATA, %function
ARM GAS  C:\Users\Revanth\AppData\Local\Temp\ccbqjHa5.s 			page 78


 2028              	Write_32bitSPI_DATA:
 2029              	.LFB104:
2117:AS76.c        **** 
2118:AS76.c        **** //-------------------------- [] END OF Read_32bitSPI_DATA Function ---------------------------
2119:AS76.c        **** 
2120:AS76.c        **** 
2121:AS76.c        **** /* --------------------------------------------------------------------------------------------
2122:AS76.c        **** Function Name        : Write_32bitSPI_DATA
2123:AS76.c        **** 
2124:AS76.c        **** Prerequist Knowledge : SPI Communication Protocol, TMC5160 SPI Communication Protocol
2125:AS76.c        **** 
2126:AS76.c        **** Function Description : This Function is used to write 32bit data to the driver register
2127:AS76.c        ****                        using 32bit SPI communication protocol specific to TMC5160.
2128:AS76.c        **** 
2129:AS76.c        **** Return Type & Data   :Void
2130:AS76.c        **** 
2131:AS76.c        **** Numnber of Arguments : 3
2132:AS76.c        **** 
2133:AS76.c        **** -----Argument 1-----
2134:AS76.c        **** Name                 : ADDR
2135:AS76.c        **** Tupe                 : uint8_t
2136:AS76.c        **** Description          : The Address of the TMC5160 Register to which data needs to be written
2137:AS76.c        **** Condition            : Nil
2138:AS76.c        **** --------------------
2139:AS76.c        **** 
2140:AS76.c        **** -----Argument 2-----
2141:AS76.c        **** Name                 : data
2142:AS76.c        **** Tupe                 : uint8_t
2143:AS76.c        **** Description          : The 32bit data that needs to be written to TMC5160 register
2144:AS76.c        **** Condition            : Nil
2145:AS76.c        **** --------------------
2146:AS76.c        **** 
2147:AS76.c        **** -----Argument 3-----
2148:AS76.c        **** Name                 : Motor
2149:AS76.c        **** Tupe                 : uint8_t
2150:AS76.c        **** Description          : This Argument Represents the driver channel
2151:AS76.c        **** Condition            : This Value must range from 0x00 to 0x04 since there are only 5 channels
2152:AS76.c        ****                        available in AS76 System Configuration, condition to be checked in 
2153:AS76.c        ****                        SPI_MOTOR_CHIP_SELECT Function                       
2154:AS76.c        **** --------------------
2155:AS76.c        **** 
2156:AS76.c        **** ---------------------------------------------------------------------------------------------*/
2157:AS76.c        **** 
2158:AS76.c        **** void Write_32bitSPI_DATA (uint8_t ADDR, int data, uint8_t Motor)
2159:AS76.c        **** {
 2030              		.loc 1 2159 0
 2031              		.cfi_startproc
 2032              		@ args = 0, pretend = 0, frame = 0
 2033              		@ frame_needed = 0, uses_anonymous_args = 0
 2034              	.LVL194:
 2035 0000 70B5     		push	{r4, r5, r6, lr}
 2036              		.cfi_def_cfa_offset 16
 2037              		.cfi_offset 4, -16
 2038              		.cfi_offset 5, -12
 2039              		.cfi_offset 6, -8
 2040              		.cfi_offset 14, -4
 2041 0002 0646     		mov	r6, r0
ARM GAS  C:\Users\Revanth\AppData\Local\Temp\ccbqjHa5.s 			page 79


 2042 0004 0C46     		mov	r4, r1
 2043 0006 1546     		mov	r5, r2
2160:AS76.c        ****  
2161:AS76.c        ****                 SPI_MOTOR_CHIP_SELECT (Motor, 0x00);
 2044              		.loc 1 2161 0
 2045 0008 0021     		movs	r1, #0
 2046              	.LVL195:
 2047 000a 1046     		mov	r0, r2
 2048              	.LVL196:
 2049 000c FFF7FEFF 		bl	SPI_MOTOR_CHIP_SELECT
 2050              	.LVL197:
2162:AS76.c        ****                 Data_To_Transfer(ADDR | 0x80);                
 2051              		.loc 1 2162 0
 2052 0010 46F08000 		orr	r0, r6, #128
 2053 0014 FFF7FEFF 		bl	Data_To_Transfer
 2054              	.LVL198:
2163:AS76.c        ****                 Data_To_Transfer((data & 0xFF000000) >> 24);
 2055              		.loc 1 2163 0
 2056 0018 200E     		lsrs	r0, r4, #24
 2057 001a FFF7FEFF 		bl	Data_To_Transfer
 2058              	.LVL199:
2164:AS76.c        ****                 Data_To_Transfer((data & 0xFF0000) >> 16);
 2059              		.loc 1 2164 0
 2060 001e C4F30740 		ubfx	r0, r4, #16, #8
 2061 0022 FFF7FEFF 		bl	Data_To_Transfer
 2062              	.LVL200:
2165:AS76.c        ****                 Data_To_Transfer((data & 0xFF00) >> 8);
 2063              		.loc 1 2165 0
 2064 0026 C4F30720 		ubfx	r0, r4, #8, #8
 2065 002a FFF7FEFF 		bl	Data_To_Transfer
 2066              	.LVL201:
2166:AS76.c        ****                 Data_To_Transfer(data & 0xFF);     
 2067              		.loc 1 2166 0
 2068 002e E0B2     		uxtb	r0, r4
 2069 0030 FFF7FEFF 		bl	Data_To_Transfer
 2070              	.LVL202:
2167:AS76.c        ****                 SPI_MOTOR_CHIP_SELECT (Motor, 0xFF); 
 2071              		.loc 1 2167 0
 2072 0034 FF21     		movs	r1, #255
 2073 0036 2846     		mov	r0, r5
 2074 0038 FFF7FEFF 		bl	SPI_MOTOR_CHIP_SELECT
 2075              	.LVL203:
 2076 003c 70BD     		pop	{r4, r5, r6, pc}
 2077              		.cfi_endproc
 2078              	.LFE104:
 2079              		.size	Write_32bitSPI_DATA, .-Write_32bitSPI_DATA
 2080 003e 00BF     		.section	.text.GotoPos,"ax",%progbits
 2081              		.align	2
 2082              		.global	GotoPos
 2083              		.thumb
 2084              		.thumb_func
 2085              		.type	GotoPos, %function
 2086              	GotoPos:
 2087              	.LFB65:
 121:AS76.c        ****     Write_32bitSPI_DATA (0x20  , (int) 0x00000000, Motor );
 2088              		.loc 1 121 0
 2089              		.cfi_startproc
ARM GAS  C:\Users\Revanth\AppData\Local\Temp\ccbqjHa5.s 			page 80


 2090              		@ args = 0, pretend = 0, frame = 0
 2091              		@ frame_needed = 0, uses_anonymous_args = 0
 2092              	.LVL204:
 2093 0000 38B5     		push	{r3, r4, r5, lr}
 2094              		.cfi_def_cfa_offset 16
 2095              		.cfi_offset 3, -16
 2096              		.cfi_offset 4, -12
 2097              		.cfi_offset 5, -8
 2098              		.cfi_offset 14, -4
 2099 0002 0546     		mov	r5, r0
 2100 0004 0C46     		mov	r4, r1
 122:AS76.c        ****     Write_32bitSPI_DATA (0x05  , Pos, Motor );
 2101              		.loc 1 122 0
 2102 0006 0A46     		mov	r2, r1
 2103 0008 0021     		movs	r1, #0
 2104              	.LVL205:
 2105 000a 2020     		movs	r0, #32
 2106              	.LVL206:
 2107 000c FFF7FEFF 		bl	Write_32bitSPI_DATA
 2108              	.LVL207:
 123:AS76.c        ****     Write_32bitSPI_DATA (0x2D  , Pos, Motor );   
 2109              		.loc 1 123 0
 2110 0010 2246     		mov	r2, r4
 2111 0012 2946     		mov	r1, r5
 2112 0014 0520     		movs	r0, #5
 2113 0016 FFF7FEFF 		bl	Write_32bitSPI_DATA
 2114              	.LVL208:
 124:AS76.c        **** 
 2115              		.loc 1 124 0
 2116 001a 2246     		mov	r2, r4
 2117 001c 2946     		mov	r1, r5
 2118 001e 2D20     		movs	r0, #45
 2119 0020 FFF7FEFF 		bl	Write_32bitSPI_DATA
 2120              	.LVL209:
 2121 0024 38BD     		pop	{r3, r4, r5, pc}
 2122              		.cfi_endproc
 2123              	.LFE65:
 2124              		.size	GotoPos, .-GotoPos
 2125 0026 00BF     		.section	.text.Initialize_Motor,"ax",%progbits
 2126              		.align	2
 2127              		.global	Initialize_Motor
 2128              		.thumb
 2129              		.thumb_func
 2130              		.type	Initialize_Motor, %function
 2131              	Initialize_Motor:
 2132              	.LFB105:
2168:AS76.c        ****    
2169:AS76.c        ****     
2170:AS76.c        **** }
2171:AS76.c        **** 
2172:AS76.c        **** //-------------------------- [] END OF Write_32bitSPI_DATA Function ---------------------------
2173:AS76.c        **** 
2174:AS76.c        **** void Initialize_Motor(uint8_t Motor)
2175:AS76.c        **** {
 2133              		.loc 1 2175 0
 2134              		.cfi_startproc
 2135              		@ args = 0, pretend = 0, frame = 0
ARM GAS  C:\Users\Revanth\AppData\Local\Temp\ccbqjHa5.s 			page 81


 2136              		@ frame_needed = 0, uses_anonymous_args = 0
 2137              	.LVL210:
 2138 0000 10B5     		push	{r4, lr}
 2139              		.cfi_def_cfa_offset 8
 2140              		.cfi_offset 4, -8
 2141              		.cfi_offset 14, -4
 2142 0002 0446     		mov	r4, r0
2176:AS76.c        ****             Write_32bitSPI_DATA (0x01  , (int) 0x00000005, Motor ); // Global Status Flag Register
 2143              		.loc 1 2176 0
 2144 0004 0246     		mov	r2, r0
 2145 0006 0521     		movs	r1, #5
 2146 0008 0120     		movs	r0, #1
 2147              	.LVL211:
 2148 000a FFF7FEFF 		bl	Write_32bitSPI_DATA
 2149              	.LVL212:
2177:AS76.c        ****             Write_32bitSPI_DATA (0x00  , (int) 0x00000008, Motor ); // Global Configuration Flag Re
 2150              		.loc 1 2177 0
 2151 000e 2246     		mov	r2, r4
 2152 0010 0821     		movs	r1, #8
 2153 0012 0020     		movs	r0, #0
 2154 0014 FFF7FEFF 		bl	Write_32bitSPI_DATA
 2155              	.LVL213:
2178:AS76.c        ****             Write_32bitSPI_DATA (0x03  , (int) 0x00000000, Motor ); // Uart Register
 2156              		.loc 1 2178 0
 2157 0018 2246     		mov	r2, r4
 2158 001a 0021     		movs	r1, #0
 2159 001c 0320     		movs	r0, #3
 2160 001e FFF7FEFF 		bl	Write_32bitSPI_DATA
 2161              	.LVL214:
2179:AS76.c        ****             Write_32bitSPI_DATA (0x05  , (int) 0x00000000, Motor ); // X_COMPARE Register (Position
 2162              		.loc 1 2179 0
 2163 0022 2246     		mov	r2, r4
 2164 0024 0021     		movs	r1, #0
 2165 0026 0520     		movs	r0, #5
 2166 0028 FFF7FEFF 		bl	Write_32bitSPI_DATA
 2167              	.LVL215:
2180:AS76.c        ****             Write_32bitSPI_DATA (0x06  , (int) 0x00000000, Motor ); // OTP_Program Register
 2168              		.loc 1 2180 0
 2169 002c 2246     		mov	r2, r4
 2170 002e 0021     		movs	r1, #0
 2171 0030 0620     		movs	r0, #6
 2172 0032 FFF7FEFF 		bl	Write_32bitSPI_DATA
 2173              	.LVL216:
2181:AS76.c        ****             Write_32bitSPI_DATA (0x08  , (int) 0x0000000F, Motor ); // Factory_Config
 2174              		.loc 1 2181 0
 2175 0036 2246     		mov	r2, r4
 2176 0038 0F21     		movs	r1, #15
 2177 003a 0820     		movs	r0, #8
 2178 003c FFF7FEFF 		bl	Write_32bitSPI_DATA
 2179              	.LVL217:
2182:AS76.c        ****             Write_32bitSPI_DATA (0x09  , (int) 0x00010606, Motor ); // Short Config Register
 2180              		.loc 1 2182 0
 2181 0040 2246     		mov	r2, r4
 2182 0042 8249     		ldr	r1, .L162
 2183 0044 0920     		movs	r0, #9
 2184 0046 FFF7FEFF 		bl	Write_32bitSPI_DATA
 2185              	.LVL218:
ARM GAS  C:\Users\Revanth\AppData\Local\Temp\ccbqjHa5.s 			page 82


2183:AS76.c        ****             Write_32bitSPI_DATA (0x0A  , (int) 0x00080400, Motor ); // Drive Config
 2186              		.loc 1 2183 0
 2187 004a 2246     		mov	r2, r4
 2188 004c 8049     		ldr	r1, .L162+4
 2189 004e 0A20     		movs	r0, #10
 2190 0050 FFF7FEFF 		bl	Write_32bitSPI_DATA
 2191              	.LVL219:
2184:AS76.c        ****             //Write_32bitSPI_DATA (0x0B  , (int) 0x00000000, Motor ); // Global Scaller (Global sca
2185:AS76.c        ****             // Current setting register Irun abd Ihold
2186:AS76.c        ****             if ( Motor == TMC5160_nCS_MotorZ)
 2192              		.loc 1 2186 0
 2193 0054 022C     		cmp	r4, #2
 2194 0056 0AD1     		bne	.L156
2187:AS76.c        ****             {
2188:AS76.c        ****             Write_32bitSPI_DATA (0x0B  , (int) 0x00000000, Motor );
 2195              		.loc 1 2188 0
 2196 0058 2246     		mov	r2, r4
 2197 005a 0021     		movs	r1, #0
 2198 005c 0B20     		movs	r0, #11
 2199 005e FFF7FEFF 		bl	Write_32bitSPI_DATA
 2200              	.LVL220:
2189:AS76.c        ****             Write_32bitSPI_DATA (0x10  , (int) 0x00070301, Motor );
 2201              		.loc 1 2189 0
 2202 0062 2246     		mov	r2, r4
 2203 0064 7B49     		ldr	r1, .L162+8
 2204 0066 1020     		movs	r0, #16
 2205 0068 FFF7FEFF 		bl	Write_32bitSPI_DATA
 2206              	.LVL221:
 2207 006c 2FE0     		b	.L157
 2208              	.L156:
2190:AS76.c        ****             }
2191:AS76.c        ****             else if ( Motor == TMC5160_nCS_MotorX)
 2209              		.loc 1 2191 0
 2210 006e 54B9     		cbnz	r4, .L158
2192:AS76.c        ****             {
2193:AS76.c        ****             Write_32bitSPI_DATA (0x0B  , 90, Motor );
 2211              		.loc 1 2193 0
 2212 0070 2246     		mov	r2, r4
 2213 0072 5A21     		movs	r1, #90
 2214 0074 0B20     		movs	r0, #11
 2215 0076 FFF7FEFF 		bl	Write_32bitSPI_DATA
 2216              	.LVL222:
2194:AS76.c        ****             Write_32bitSPI_DATA (0x10  , (int) 0x00070101, Motor );
 2217              		.loc 1 2194 0
 2218 007a 2246     		mov	r2, r4
 2219 007c 7649     		ldr	r1, .L162+12
 2220 007e 1020     		movs	r0, #16
 2221 0080 FFF7FEFF 		bl	Write_32bitSPI_DATA
 2222              	.LVL223:
 2223 0084 23E0     		b	.L157
 2224              	.L158:
2195:AS76.c        ****             }
2196:AS76.c        ****             else if ( Motor == TMC5160_nCS_MotorY)
 2225              		.loc 1 2196 0
 2226 0086 012C     		cmp	r4, #1
 2227 0088 0AD1     		bne	.L159
2197:AS76.c        ****             {
ARM GAS  C:\Users\Revanth\AppData\Local\Temp\ccbqjHa5.s 			page 83


2198:AS76.c        ****              Write_32bitSPI_DATA (0x0B  , (int) 127, Motor );
 2228              		.loc 1 2198 0
 2229 008a 2246     		mov	r2, r4
 2230 008c 7F21     		movs	r1, #127
 2231 008e 0B20     		movs	r0, #11
 2232 0090 FFF7FEFF 		bl	Write_32bitSPI_DATA
 2233              	.LVL224:
2199:AS76.c        ****              Write_32bitSPI_DATA (0x10  , (int) 0x00070101, Motor );
 2234              		.loc 1 2199 0
 2235 0094 2246     		mov	r2, r4
 2236 0096 7049     		ldr	r1, .L162+12
 2237 0098 1020     		movs	r0, #16
 2238 009a FFF7FEFF 		bl	Write_32bitSPI_DATA
 2239              	.LVL225:
 2240 009e 16E0     		b	.L157
 2241              	.L159:
2200:AS76.c        ****             }
2201:AS76.c        ****             else if ( Motor == TMC5160_nCS_MotorO)
 2242              		.loc 1 2201 0
 2243 00a0 042C     		cmp	r4, #4
 2244 00a2 0AD1     		bne	.L160
2202:AS76.c        ****             {
2203:AS76.c        ****              Write_32bitSPI_DATA (0x0B  , (int) 210, Motor );
 2245              		.loc 1 2203 0
 2246 00a4 2246     		mov	r2, r4
 2247 00a6 D221     		movs	r1, #210
 2248 00a8 0B20     		movs	r0, #11
 2249 00aa FFF7FEFF 		bl	Write_32bitSPI_DATA
 2250              	.LVL226:
2204:AS76.c        ****              Write_32bitSPI_DATA (0x10  , (int) 0x00070100, Motor );
 2251              		.loc 1 2204 0
 2252 00ae 2246     		mov	r2, r4
 2253 00b0 6A49     		ldr	r1, .L162+16
 2254 00b2 1020     		movs	r0, #16
 2255 00b4 FFF7FEFF 		bl	Write_32bitSPI_DATA
 2256              	.LVL227:
 2257 00b8 09E0     		b	.L157
 2258              	.L160:
2205:AS76.c        ****             }
2206:AS76.c        ****             else
2207:AS76.c        ****             {
2208:AS76.c        ****              Write_32bitSPI_DATA (0x0B  , (int) 0x00000000, Motor );
 2259              		.loc 1 2208 0
 2260 00ba 2246     		mov	r2, r4
 2261 00bc 0021     		movs	r1, #0
 2262 00be 0B20     		movs	r0, #11
 2263 00c0 FFF7FEFF 		bl	Write_32bitSPI_DATA
 2264              	.LVL228:
2209:AS76.c        ****              Write_32bitSPI_DATA (0x10  , (int) 0x00070501, Motor );  
 2265              		.loc 1 2209 0
 2266 00c4 2246     		mov	r2, r4
 2267 00c6 6649     		ldr	r1, .L162+20
 2268 00c8 1020     		movs	r0, #16
 2269 00ca FFF7FEFF 		bl	Write_32bitSPI_DATA
 2270              	.LVL229:
 2271              	.L157:
2210:AS76.c        ****             }
ARM GAS  C:\Users\Revanth\AppData\Local\Temp\ccbqjHa5.s 			page 84


2211:AS76.c        ****             Write_32bitSPI_DATA (0x11  , (int) 0x0000000A, Motor ); // TPOWERDOWN Register sets the
 2272              		.loc 1 2211 0
 2273 00ce 2246     		mov	r2, r4
 2274 00d0 0A21     		movs	r1, #10
 2275 00d2 1120     		movs	r0, #17
 2276 00d4 FFF7FEFF 		bl	Write_32bitSPI_DATA
 2277              	.LVL230:
2212:AS76.c        ****             Write_32bitSPI_DATA (0x13  , (int) 0x00000000, Motor );
 2278              		.loc 1 2212 0
 2279 00d8 2246     		mov	r2, r4
 2280 00da 0021     		movs	r1, #0
 2281 00dc 1320     		movs	r0, #19
 2282 00de FFF7FEFF 		bl	Write_32bitSPI_DATA
 2283              	.LVL231:
2213:AS76.c        ****             Write_32bitSPI_DATA (0x14  , (int) 0x00000000, Motor );
 2284              		.loc 1 2213 0
 2285 00e2 2246     		mov	r2, r4
 2286 00e4 0021     		movs	r1, #0
 2287 00e6 1420     		movs	r0, #20
 2288 00e8 FFF7FEFF 		bl	Write_32bitSPI_DATA
 2289              	.LVL232:
2214:AS76.c        ****             Write_32bitSPI_DATA (0x15  , (int) 0x00000000, Motor );
 2290              		.loc 1 2214 0
 2291 00ec 2246     		mov	r2, r4
 2292 00ee 0021     		movs	r1, #0
 2293 00f0 1520     		movs	r0, #21
 2294 00f2 FFF7FEFF 		bl	Write_32bitSPI_DATA
 2295              	.LVL233:
2215:AS76.c        ****             
2216:AS76.c        ****             Write_32bitSPI_DATA (0x21  , (int) 0x00000000, Motor );
 2296              		.loc 1 2216 0
 2297 00f6 2246     		mov	r2, r4
 2298 00f8 0021     		movs	r1, #0
 2299 00fa 2120     		movs	r0, #33
 2300 00fc FFF7FEFF 		bl	Write_32bitSPI_DATA
 2301              	.LVL234:
2217:AS76.c        ****             Write_32bitSPI_DATA (0x23  , (int) 0x00000000, Motor );
 2302              		.loc 1 2217 0
 2303 0100 2246     		mov	r2, r4
 2304 0102 0021     		movs	r1, #0
 2305 0104 2320     		movs	r0, #35
 2306 0106 FFF7FEFF 		bl	Write_32bitSPI_DATA
 2307              	.LVL235:
2218:AS76.c        ****             
2219:AS76.c        ****             Write_32bitSPI_DATA (0x2C  , (int) 0x00000000, Motor );
 2308              		.loc 1 2219 0
 2309 010a 2246     		mov	r2, r4
 2310 010c 0021     		movs	r1, #0
 2311 010e 2C20     		movs	r0, #44
 2312 0110 FFF7FEFF 		bl	Write_32bitSPI_DATA
 2313              	.LVL236:
2220:AS76.c        ****             
2221:AS76.c        ****             Write_32bitSPI_DATA (0x33  , (int) 0x00000000, Motor );
 2314              		.loc 1 2221 0
 2315 0114 2246     		mov	r2, r4
 2316 0116 0021     		movs	r1, #0
 2317 0118 3320     		movs	r0, #51
ARM GAS  C:\Users\Revanth\AppData\Local\Temp\ccbqjHa5.s 			page 85


 2318 011a FFF7FEFF 		bl	Write_32bitSPI_DATA
 2319              	.LVL237:
2222:AS76.c        ****             Write_32bitSPI_DATA (0x34  , (int) 0x000002AF, Motor );
 2320              		.loc 1 2222 0
 2321 011e 2246     		mov	r2, r4
 2322 0120 40F2AF21 		movw	r1, #687
 2323 0124 3420     		movs	r0, #52
 2324 0126 FFF7FEFF 		bl	Write_32bitSPI_DATA
 2325              	.LVL238:
2223:AS76.c        ****             Write_32bitSPI_DATA (0x38  , (int) 0x00000000, Motor );
 2326              		.loc 1 2223 0
 2327 012a 2246     		mov	r2, r4
 2328 012c 0021     		movs	r1, #0
 2329 012e 3820     		movs	r0, #56
 2330 0130 FFF7FEFF 		bl	Write_32bitSPI_DATA
 2331              	.LVL239:
2224:AS76.c        ****             Write_32bitSPI_DATA (0x39  , (int) 0x00000000, Motor );
 2332              		.loc 1 2224 0
 2333 0134 2246     		mov	r2, r4
 2334 0136 0021     		movs	r1, #0
 2335 0138 3920     		movs	r0, #57
 2336 013a FFF7FEFF 		bl	Write_32bitSPI_DATA
 2337              	.LVL240:
2225:AS76.c        ****             Write_32bitSPI_DATA (0x3A  , (int) 0x00010000, Motor );
 2338              		.loc 1 2225 0
 2339 013e 2246     		mov	r2, r4
 2340 0140 4FF48031 		mov	r1, #65536
 2341 0144 3A20     		movs	r0, #58
 2342 0146 FFF7FEFF 		bl	Write_32bitSPI_DATA
 2343              	.LVL241:
2226:AS76.c        ****             Write_32bitSPI_DATA (0x3D  , (int) 0x00000000, Motor );
 2344              		.loc 1 2226 0
 2345 014a 2246     		mov	r2, r4
 2346 014c 0021     		movs	r1, #0
 2347 014e 3D20     		movs	r0, #61
 2348 0150 FFF7FEFF 		bl	Write_32bitSPI_DATA
 2349              	.LVL242:
2227:AS76.c        ****             Write_32bitSPI_DATA (0x60  , (int) 0xAAAAB554, Motor );
 2350              		.loc 1 2227 0
 2351 0154 2246     		mov	r2, r4
 2352 0156 4349     		ldr	r1, .L162+24
 2353 0158 6020     		movs	r0, #96
 2354 015a FFF7FEFF 		bl	Write_32bitSPI_DATA
 2355              	.LVL243:
2228:AS76.c        ****             Write_32bitSPI_DATA (0x61  , (int) 0x4A9554AA, Motor );
 2356              		.loc 1 2228 0
 2357 015e 2246     		mov	r2, r4
 2358 0160 4149     		ldr	r1, .L162+28
 2359 0162 6120     		movs	r0, #97
 2360 0164 FFF7FEFF 		bl	Write_32bitSPI_DATA
 2361              	.LVL244:
2229:AS76.c        ****             Write_32bitSPI_DATA (0x62  , (int) 0x24492929, Motor );
 2362              		.loc 1 2229 0
 2363 0168 2246     		mov	r2, r4
 2364 016a 4049     		ldr	r1, .L162+32
 2365 016c 6220     		movs	r0, #98
 2366 016e FFF7FEFF 		bl	Write_32bitSPI_DATA
ARM GAS  C:\Users\Revanth\AppData\Local\Temp\ccbqjHa5.s 			page 86


 2367              	.LVL245:
2230:AS76.c        ****             Write_32bitSPI_DATA (0x63  , (int) 0x00000008, Motor );
 2368              		.loc 1 2230 0
 2369 0172 2246     		mov	r2, r4
 2370 0174 0821     		movs	r1, #8
 2371 0176 6320     		movs	r0, #99
 2372 0178 FFF7FEFF 		bl	Write_32bitSPI_DATA
 2373              	.LVL246:
2231:AS76.c        ****             Write_32bitSPI_DATA (0x64  , (int) 0xFBFFFFFF, Motor );
 2374              		.loc 1 2231 0
 2375 017c 2246     		mov	r2, r4
 2376 017e 6FF08061 		mvn	r1, #67108864
 2377 0182 6420     		movs	r0, #100
 2378 0184 FFF7FEFF 		bl	Write_32bitSPI_DATA
 2379              	.LVL247:
2232:AS76.c        ****             Write_32bitSPI_DATA (0x65  , (int) 0xB5BB777D, Motor );
 2380              		.loc 1 2232 0
 2381 0188 2246     		mov	r2, r4
 2382 018a 3949     		ldr	r1, .L162+36
 2383 018c 6520     		movs	r0, #101
 2384 018e FFF7FEFF 		bl	Write_32bitSPI_DATA
 2385              	.LVL248:
2233:AS76.c        ****             Write_32bitSPI_DATA (0x66  , (int) 0x49295556, Motor );
 2386              		.loc 1 2233 0
 2387 0192 2246     		mov	r2, r4
 2388 0194 3749     		ldr	r1, .L162+40
 2389 0196 6620     		movs	r0, #102
 2390 0198 FFF7FEFF 		bl	Write_32bitSPI_DATA
 2391              	.LVL249:
2234:AS76.c        ****             Write_32bitSPI_DATA (0x67  , (int) 0x00404222, Motor );
 2392              		.loc 1 2234 0
 2393 019c 2246     		mov	r2, r4
 2394 019e 3649     		ldr	r1, .L162+44
 2395 01a0 6720     		movs	r0, #103
 2396 01a2 FFF7FEFF 		bl	Write_32bitSPI_DATA
 2397              	.LVL250:
2235:AS76.c        ****             Write_32bitSPI_DATA (0x68  , (int) 0xFFFF8056, Motor );
 2398              		.loc 1 2235 0
 2399 01a6 2246     		mov	r2, r4
 2400 01a8 3449     		ldr	r1, .L162+48
 2401 01aa 6820     		movs	r0, #104
 2402 01ac FFF7FEFF 		bl	Write_32bitSPI_DATA
 2403              	.LVL251:
2236:AS76.c        ****             Write_32bitSPI_DATA (0x69  , (int) 0x00F70000, Motor );
 2404              		.loc 1 2236 0
 2405 01b0 2246     		mov	r2, r4
 2406 01b2 4FF47701 		mov	r1, #16187392
 2407 01b6 6920     		movs	r0, #105
 2408 01b8 FFF7FEFF 		bl	Write_32bitSPI_DATA
 2409              	.LVL252:
2237:AS76.c        ****            
2238:AS76.c        ****             Write_32bitSPI_DATA (0x6C  , (int) 0x00410153, Motor ); 
 2410              		.loc 1 2238 0
 2411 01bc 2246     		mov	r2, r4
 2412 01be 3049     		ldr	r1, .L162+52
 2413 01c0 6C20     		movs	r0, #108
 2414 01c2 FFF7FEFF 		bl	Write_32bitSPI_DATA
ARM GAS  C:\Users\Revanth\AppData\Local\Temp\ccbqjHa5.s 			page 87


 2415              	.LVL253:
2239:AS76.c        ****             Write_32bitSPI_DATA (0x6D  , (int) 0x00000000, Motor );
 2416              		.loc 1 2239 0
 2417 01c6 2246     		mov	r2, r4
 2418 01c8 0021     		movs	r1, #0
 2419 01ca 6D20     		movs	r0, #109
 2420 01cc FFF7FEFF 		bl	Write_32bitSPI_DATA
 2421              	.LVL254:
2240:AS76.c        **** 
2241:AS76.c        ****             Write_32bitSPI_DATA (0x6E  , (int) 0x00000000, Motor );
 2422              		.loc 1 2241 0
 2423 01d0 2246     		mov	r2, r4
 2424 01d2 0021     		movs	r1, #0
 2425 01d4 6E20     		movs	r0, #110
 2426 01d6 FFF7FEFF 		bl	Write_32bitSPI_DATA
 2427              	.LVL255:
2242:AS76.c        ****             Write_32bitSPI_DATA (0x70  , (int) 0xC40C001E, Motor ); 
 2428              		.loc 1 2242 0
 2429 01da 2246     		mov	r2, r4
 2430 01dc 2949     		ldr	r1, .L162+56
 2431 01de 7020     		movs	r0, #112
 2432 01e0 FFF7FEFF 		bl	Write_32bitSPI_DATA
 2433              	.LVL256:
2243:AS76.c        ****             
2244:AS76.c        ****             Write_32bitSPI_DATA (0x21  , (int) 0x00000000, Motor );            
 2434              		.loc 1 2244 0
 2435 01e4 2246     		mov	r2, r4
 2436 01e6 0021     		movs	r1, #0
 2437 01e8 2120     		movs	r0, #33
 2438 01ea FFF7FEFF 		bl	Write_32bitSPI_DATA
 2439              	.LVL257:
2245:AS76.c        ****             Write_32bitSPI_DATA (0x24  , (int) 0x0000FFFF, Motor );
 2440              		.loc 1 2245 0
 2441 01ee 2246     		mov	r2, r4
 2442 01f0 4FF6FF71 		movw	r1, #65535
 2443 01f4 2420     		movs	r0, #36
 2444 01f6 FFF7FEFF 		bl	Write_32bitSPI_DATA
 2445              	.LVL258:
2246:AS76.c        ****             Write_32bitSPI_DATA (0x25  , (int) 0x0000FFFF, Motor );
 2446              		.loc 1 2246 0
 2447 01fa 2246     		mov	r2, r4
 2448 01fc 4FF6FF71 		movw	r1, #65535
 2449 0200 2520     		movs	r0, #37
 2450 0202 FFF7FEFF 		bl	Write_32bitSPI_DATA
 2451              	.LVL259:
2247:AS76.c        ****             Write_32bitSPI_DATA (0x26  , (int) 0x0000FFFF, Motor );
 2452              		.loc 1 2247 0
 2453 0206 2246     		mov	r2, r4
 2454 0208 4FF6FF71 		movw	r1, #65535
 2455 020c 2620     		movs	r0, #38
 2456 020e FFF7FEFF 		bl	Write_32bitSPI_DATA
 2457              	.LVL260:
2248:AS76.c        ****             Write_32bitSPI_DATA (0x27  , (int) 0x00000000, Motor );
 2458              		.loc 1 2248 0
 2459 0212 2246     		mov	r2, r4
 2460 0214 0021     		movs	r1, #0
 2461 0216 2720     		movs	r0, #39
ARM GAS  C:\Users\Revanth\AppData\Local\Temp\ccbqjHa5.s 			page 88


 2462 0218 FFF7FEFF 		bl	Write_32bitSPI_DATA
 2463              	.LVL261:
2249:AS76.c        ****             Write_32bitSPI_DATA (0x28  , (int) 0x0000FFFF, Motor );
 2464              		.loc 1 2249 0
 2465 021c 2246     		mov	r2, r4
 2466 021e 4FF6FF71 		movw	r1, #65535
 2467 0222 2820     		movs	r0, #40
 2468 0224 FFF7FEFF 		bl	Write_32bitSPI_DATA
 2469              	.LVL262:
2250:AS76.c        ****             Write_32bitSPI_DATA (0x2A  , (int) 0x0000FFFF, Motor );
 2470              		.loc 1 2250 0
 2471 0228 2246     		mov	r2, r4
 2472 022a 4FF6FF71 		movw	r1, #65535
 2473 022e 2A20     		movs	r0, #42
 2474 0230 FFF7FEFF 		bl	Write_32bitSPI_DATA
 2475              	.LVL263:
2251:AS76.c        ****             Write_32bitSPI_DATA (0x2B  , (int) 0x00000065, Motor );
 2476              		.loc 1 2251 0
 2477 0234 2246     		mov	r2, r4
 2478 0236 6521     		movs	r1, #101
 2479 0238 2B20     		movs	r0, #43
 2480 023a FFF7FEFF 		bl	Write_32bitSPI_DATA
 2481              	.LVL264:
2252:AS76.c        ****             Write_32bitSPI_DATA (0x20  , (int) 0x00000000, Motor );
 2482              		.loc 1 2252 0
 2483 023e 2246     		mov	r2, r4
 2484 0240 0021     		movs	r1, #0
 2485 0242 2020     		movs	r0, #32
 2486 0244 FFF7FEFF 		bl	Write_32bitSPI_DATA
 2487              	.LVL265:
 2488 0248 10BD     		pop	{r4, pc}
 2489              	.L163:
 2490 024a 00BF     		.align	2
 2491              	.L162:
 2492 024c 06060100 		.word	67078
 2493 0250 00040800 		.word	525312
 2494 0254 01030700 		.word	459521
 2495 0258 01010700 		.word	459009
 2496 025c 00010700 		.word	459008
 2497 0260 01050700 		.word	460033
 2498 0264 54B5AAAA 		.word	-1431653036
 2499 0268 AA54954A 		.word	1251300522
 2500 026c 29294924 		.word	608774441
 2501 0270 7D77BBB5 		.word	-1246005379
 2502 0274 56552949 		.word	1227445590
 2503 0278 22424000 		.word	4211234
 2504 027c 5680FFFF 		.word	-32682
 2505 0280 53014100 		.word	4260179
 2506 0284 1E000CC4 		.word	-1005846498
 2507              		.cfi_endproc
 2508              	.LFE105:
 2509              		.size	Initialize_Motor, .-Initialize_Motor
 2510              		.section	.text.IsPositionReached,"ax",%progbits
 2511              		.align	2
 2512              		.global	IsPositionReached
 2513              		.thumb
 2514              		.thumb_func
ARM GAS  C:\Users\Revanth\AppData\Local\Temp\ccbqjHa5.s 			page 89


 2515              		.type	IsPositionReached, %function
 2516              	IsPositionReached:
 2517              	.LFB106:
2253:AS76.c        **** }
2254:AS76.c        **** 
2255:AS76.c        **** 
2256:AS76.c        **** 
2257:AS76.c        **** bool IsPositionReached (uint8_t Motor)
2258:AS76.c        **** {
 2518              		.loc 1 2258 0
 2519              		.cfi_startproc
 2520              		@ args = 0, pretend = 0, frame = 0
 2521              		@ frame_needed = 0, uses_anonymous_args = 0
 2522              	.LVL266:
 2523 0000 38B5     		push	{r3, r4, r5, lr}
 2524              		.cfi_def_cfa_offset 16
 2525              		.cfi_offset 3, -16
 2526              		.cfi_offset 4, -12
 2527              		.cfi_offset 5, -8
 2528              		.cfi_offset 14, -4
 2529 0002 0546     		mov	r5, r0
2259:AS76.c        ****          bool status;
2260:AS76.c        ****          CyDelayUs(500);
 2530              		.loc 1 2260 0
 2531 0004 4FF4FA70 		mov	r0, #500
 2532              	.LVL267:
 2533 0008 FFF7FEFF 		bl	CyDelayUs
 2534              	.LVL268:
2261:AS76.c        ****          Read_32bitSPI_DATA(0x04, Motor, &status_x);
 2535              		.loc 1 2261 0
 2536 000c 0A4C     		ldr	r4, .L168
 2537 000e 2246     		mov	r2, r4
 2538 0010 2946     		mov	r1, r5
 2539 0012 0420     		movs	r0, #4
 2540 0014 FFF7FEFF 		bl	Read_32bitSPI_DATA
 2541              	.LVL269:
2262:AS76.c        ****          CyDelayUs(100);
 2542              		.loc 1 2262 0
 2543 0018 6420     		movs	r0, #100
 2544 001a FFF7FEFF 		bl	CyDelayUs
 2545              	.LVL270:
2263:AS76.c        ****          Read_32bitSPI_DATA(0x04, Motor, &status_x);
 2546              		.loc 1 2263 0
 2547 001e 2246     		mov	r2, r4
 2548 0020 2946     		mov	r1, r5
 2549 0022 0420     		movs	r0, #4
 2550 0024 FFF7FEFF 		bl	Read_32bitSPI_DATA
 2551              	.LVL271:
2264:AS76.c        ****          if ( (status_x & 0x20) == 0x00)
 2552              		.loc 1 2264 0
 2553 0028 2378     		ldrb	r3, [r4]	@ zero_extendqisi2
 2554 002a 13F0200F 		tst	r3, #32
 2555 002e 01D1     		bne	.L166
2265:AS76.c        ****             {
2266:AS76.c        ****                  status = false;
 2556              		.loc 1 2266 0
 2557 0030 0020     		movs	r0, #0
ARM GAS  C:\Users\Revanth\AppData\Local\Temp\ccbqjHa5.s 			page 90


 2558 0032 38BD     		pop	{r3, r4, r5, pc}
 2559              	.L166:
2267:AS76.c        ****    
2268:AS76.c        ****             }
2269:AS76.c        ****          else
2270:AS76.c        ****             {
2271:AS76.c        ****                  status = true;
 2560              		.loc 1 2271 0
 2561 0034 0120     		movs	r0, #1
 2562              	.LVL272:
2272:AS76.c        ****             }
2273:AS76.c        ****             
2274:AS76.c        ****          return status;
2275:AS76.c        **** }
 2563              		.loc 1 2275 0
 2564 0036 38BD     		pop	{r3, r4, r5, pc}
 2565              	.L169:
 2566              		.align	2
 2567              	.L168:
 2568 0038 00000000 		.word	status_x
 2569              		.cfi_endproc
 2570              	.LFE106:
 2571              		.size	IsPositionReached, .-IsPositionReached
 2572              		.section	.text.WaitTillPositionReached,"ax",%progbits
 2573              		.align	2
 2574              		.global	WaitTillPositionReached
 2575              		.thumb
 2576              		.thumb_func
 2577              		.type	WaitTillPositionReached, %function
 2578              	WaitTillPositionReached:
 2579              	.LFB107:
2276:AS76.c        **** 
2277:AS76.c        **** int WaitTillPositionReached (uint8_t Motor)
2278:AS76.c        **** {
 2580              		.loc 1 2278 0
 2581              		.cfi_startproc
 2582              		@ args = 0, pretend = 0, frame = 8
 2583              		@ frame_needed = 0, uses_anonymous_args = 0
 2584              	.LVL273:
 2585 0000 30B5     		push	{r4, r5, lr}
 2586              		.cfi_def_cfa_offset 12
 2587              		.cfi_offset 4, -12
 2588              		.cfi_offset 5, -8
 2589              		.cfi_offset 14, -4
 2590 0002 83B0     		sub	sp, sp, #12
 2591              		.cfi_def_cfa_offset 24
 2592 0004 0446     		mov	r4, r0
2279:AS76.c        ****          uint8_t wait_status = 0;
 2593              		.loc 1 2279 0
 2594 0006 02AD     		add	r5, sp, #8
 2595 0008 0023     		movs	r3, #0
 2596 000a 05F8013D 		strb	r3, [r5, #-1]!
 2597              	.LVL274:
2280:AS76.c        ****          int status = 0;
2281:AS76.c        ****          CyDelayUs(500);
 2598              		.loc 1 2281 0
 2599 000e 4FF4FA70 		mov	r0, #500
ARM GAS  C:\Users\Revanth\AppData\Local\Temp\ccbqjHa5.s 			page 91


 2600              	.LVL275:
 2601 0012 FFF7FEFF 		bl	CyDelayUs
 2602              	.LVL276:
2282:AS76.c        ****          Read_32bitSPI_DATA(0x04, Motor, &wait_status);
 2603              		.loc 1 2282 0
 2604 0016 2A46     		mov	r2, r5
 2605 0018 2146     		mov	r1, r4
 2606 001a 0420     		movs	r0, #4
 2607 001c FFF7FEFF 		bl	Read_32bitSPI_DATA
 2608              	.LVL277:
2283:AS76.c        ****          CyDelayUs(100);
 2609              		.loc 1 2283 0
 2610 0020 6420     		movs	r0, #100
 2611 0022 FFF7FEFF 		bl	CyDelayUs
 2612              	.LVL278:
2284:AS76.c        ****          Read_32bitSPI_DATA(0x04, Motor, &wait_status);
 2613              		.loc 1 2284 0
 2614 0026 2A46     		mov	r2, r5
 2615 0028 2146     		mov	r1, r4
 2616 002a 0420     		movs	r0, #4
 2617 002c FFF7FEFF 		bl	Read_32bitSPI_DATA
 2618              	.LVL279:
2285:AS76.c        ****          while ( (wait_status & 0x20) == 0x00)
 2619              		.loc 1 2285 0
 2620 0030 08E0     		b	.L171
 2621              	.L172:
2286:AS76.c        ****             {
2287:AS76.c        ****                  Read_32bitSPI_DATA(0x21, Motor,  &wait_status);                
 2622              		.loc 1 2287 0
 2623 0032 0DF10702 		add	r2, sp, #7
 2624 0036 2146     		mov	r1, r4
 2625 0038 2120     		movs	r0, #33
 2626 003a FFF7FEFF 		bl	Read_32bitSPI_DATA
 2627              	.LVL280:
2288:AS76.c        ****                  CyDelayUs(100);
 2628              		.loc 1 2288 0
 2629 003e 6420     		movs	r0, #100
 2630 0040 FFF7FEFF 		bl	CyDelayUs
 2631              	.LVL281:
 2632              	.L171:
2285:AS76.c        ****          while ( (wait_status & 0x20) == 0x00)
 2633              		.loc 1 2285 0
 2634 0044 9DF80730 		ldrb	r3, [sp, #7]	@ zero_extendqisi2
 2635 0048 13F0200F 		tst	r3, #32
 2636 004c F1D0     		beq	.L172
2289:AS76.c        ****                                 
2290:AS76.c        ****             }
2291:AS76.c        ****             
2292:AS76.c        ****          return status;
2293:AS76.c        **** }
 2637              		.loc 1 2293 0
 2638 004e 0020     		movs	r0, #0
 2639 0050 03B0     		add	sp, sp, #12
 2640              		.cfi_def_cfa_offset 12
 2641              		@ sp needed
 2642 0052 30BD     		pop	{r4, r5, pc}
 2643              		.cfi_endproc
ARM GAS  C:\Users\Revanth\AppData\Local\Temp\ccbqjHa5.s 			page 92


 2644              	.LFE107:
 2645              		.size	WaitTillPositionReached, .-WaitTillPositionReached
 2646              		.global	__aeabi_i2f
 2647              		.global	__aeabi_fdiv
 2648              		.global	__aeabi_f2iz
 2649              		.global	__aeabi_fmul
 2650              		.section	.text.Step_correction_x,"ax",%progbits
 2651              		.align	2
 2652              		.global	Step_correction_x
 2653              		.thumb
 2654              		.thumb_func
 2655              		.type	Step_correction_x, %function
 2656              	Step_correction_x:
 2657              	.LFB71:
 651:AS76.c        ****     int32 Encoder_Position_X_Requested =0;
 2658              		.loc 1 651 0
 2659              		.cfi_startproc
 2660              		@ args = 0, pretend = 0, frame = 0
 2661              		@ frame_needed = 0, uses_anonymous_args = 0
 2662              	.LVL282:
 2663 0000 F8B5     		push	{r3, r4, r5, r6, r7, lr}
 2664              		.cfi_def_cfa_offset 24
 2665              		.cfi_offset 3, -24
 2666              		.cfi_offset 4, -20
 2667              		.cfi_offset 5, -16
 2668              		.cfi_offset 6, -12
 2669              		.cfi_offset 7, -8
 2670              		.cfi_offset 14, -4
 2671 0002 0746     		mov	r7, r0
 2672              	.LVL283:
 657:AS76.c        ****     
 2673              		.loc 1 657 0
 2674 0004 FFF7FEFF 		bl	__aeabi_i2f
 2675              	.LVL284:
 2676 0008 384B     		ldr	r3, .L184
 2677 000a 596A     		ldr	r1, [r3, #36]	@ float
 2678 000c FFF7FEFF 		bl	__aeabi_fdiv
 2679              	.LVL285:
 2680 0010 FFF7FEFF 		bl	__aeabi_f2iz
 2681              	.LVL286:
 2682 0014 0646     		mov	r6, r0
 2683              	.LVL287:
 659:AS76.c        ****     {
 2684              		.loc 1 659 0
 2685 0016 0025     		movs	r5, #0
 2686 0018 29E0     		b	.L175
 2687              	.LVL288:
 2688              	.L179:
 661:AS76.c        ****     
 2689              		.loc 1 661 0
 2690 001a FFF7FEFF 		bl	Read_All_Optical_Encoder
 2691              	.LVL289:
 663:AS76.c        ****     if(encoder_error_value >= 2000)
 2692              		.loc 1 663 0
 2693 001e 344B     		ldr	r3, .L184+4
 2694 0020 9C68     		ldr	r4, [r3, #8]
 2695 0022 341B     		subs	r4, r6, r4
ARM GAS  C:\Users\Revanth\AppData\Local\Temp\ccbqjHa5.s 			page 93


 2696              	.LVL290:
 664:AS76.c        ****     {
 2697              		.loc 1 664 0
 2698 0024 B4F5FA6F 		cmp	r4, #2000
 2699 0028 02DB     		blt	.L176
 666:AS76.c        ****         return Error;
 2700              		.loc 1 666 0
 2701 002a 0220     		movs	r0, #2
 2702 002c 5862     		str	r0, [r3, #36]
 667:AS76.c        ****     }
 2703              		.loc 1 667 0
 2704 002e F8BD     		pop	{r3, r4, r5, r6, r7, pc}
 2705              	.LVL291:
 2706              	.L176:
 669:AS76.c        ****     
 2707              		.loc 1 669 0
 2708 0030 2046     		mov	r0, r4
 2709 0032 FFF7FEFF 		bl	__aeabi_i2f
 2710              	.LVL292:
 2711 0036 2D4B     		ldr	r3, .L184
 2712 0038 596A     		ldr	r1, [r3, #36]	@ float
 2713 003a FFF7FEFF 		bl	__aeabi_fmul
 2714              	.LVL293:
 2715 003e FFF7FEFF 		bl	__aeabi_f2iz
 2716              	.LVL294:
 672:AS76.c        ****     {
 2717              		.loc 1 672 0
 2718 0042 002C     		cmp	r4, #0
 2719 0044 B8BF     		it	lt
 2720 0046 6442     		rsblt	r4, r4, #0
 2721              	.LVL295:
 2722 0048 012C     		cmp	r4, #1
 2723 004a 0EDD     		ble	.L178
 2724              	.LVL296:
 675:AS76.c        ****       WaitTillPositionReached (TMC5160_nCS_MotorX);
 2725              		.loc 1 675 0
 2726 004c 0021     		movs	r1, #0
 2727 004e 3844     		add	r0, r0, r7
 2728              	.LVL297:
 2729 0050 FFF7FEFF 		bl	GotoPos
 2730              	.LVL298:
 676:AS76.c        ****       CyDelayUs(50);
 2731              		.loc 1 676 0
 2732 0054 0020     		movs	r0, #0
 2733 0056 FFF7FEFF 		bl	WaitTillPositionReached
 2734              	.LVL299:
 677:AS76.c        ****       Write_32bitSPI_DATA (0x21  , steps, TMC5160_nCS_MotorX );
 2735              		.loc 1 677 0
 2736 005a 3220     		movs	r0, #50
 2737 005c FFF7FEFF 		bl	CyDelayUs
 2738              	.LVL300:
 678:AS76.c        ****     }
 2739              		.loc 1 678 0
 2740 0060 0022     		movs	r2, #0
 2741 0062 3946     		mov	r1, r7
 2742 0064 2120     		movs	r0, #33
 2743 0066 FFF7FEFF 		bl	Write_32bitSPI_DATA
ARM GAS  C:\Users\Revanth\AppData\Local\Temp\ccbqjHa5.s 			page 94


 2744              	.LVL301:
 2745              	.L178:
 659:AS76.c        ****     {
 2746              		.loc 1 659 0 discriminator 2
 2747 006a 0135     		adds	r5, r5, #1
 2748              	.LVL302:
 2749 006c EDB2     		uxtb	r5, r5
 2750              	.LVL303:
 2751              	.L175:
 659:AS76.c        ****     {
 2752              		.loc 1 659 0 is_stmt 0 discriminator 1
 2753 006e 052D     		cmp	r5, #5
 2754 0070 D3D9     		bls	.L179
 681:AS76.c        ****     encoder_error_value = Encoder_Position_X_Requested - X_QuadPosition;
 2755              		.loc 1 681 0 is_stmt 1
 2756 0072 FFF7FEFF 		bl	Read_All_Optical_Encoder
 2757              	.LVL304:
 682:AS76.c        ****     if((temp>5))
 2758              		.loc 1 682 0
 2759 0076 1E4B     		ldr	r3, .L184+4
 2760 0078 9B68     		ldr	r3, [r3, #8]
 2761 007a F61A     		subs	r6, r6, r3
 2762              	.LVL305:
 683:AS76.c        ****     {
 2763              		.loc 1 683 0
 2764 007c 052D     		cmp	r5, #5
 2765 007e 32D9     		bls	.L180
 685:AS76.c        ****      {
 2766              		.loc 1 685 0
 2767 0080 86EAE673 		eor	r3, r6, r6, asr #31
 2768 0084 A3EBE673 		sub	r3, r3, r6, asr #31
 2769 0088 092B     		cmp	r3, #9
 2770 008a 14DD     		ble	.L181
 685:AS76.c        ****      {
 2771              		.loc 1 685 0 is_stmt 0 discriminator 1
 2772 008c 06F2CF76 		addw	r6, r6, #1999
 2773              	.LVL306:
 2774 0090 40F69E72 		movw	r2, #3998
 2775 0094 9642     		cmp	r6, r2
 2776 0096 0ED8     		bhi	.L181
 687:AS76.c        ****         LED3_Write(0xFF);
 2777              		.loc 1 687 0 is_stmt 1
 2778 0098 1648     		ldr	r0, .L184+8
 2779 009a FFF7FEFF 		bl	Write_Debug_UART_Char
 2780              	.LVL307:
 688:AS76.c        ****         GotoPos((steps-1000),TMC5160_nCS_MotorX);
 2781              		.loc 1 688 0
 2782 009e FF20     		movs	r0, #255
 2783 00a0 FFF7FEFF 		bl	LED3_Write
 2784              	.LVL308:
 689:AS76.c        ****         Error=  1;
 2785              		.loc 1 689 0
 2786 00a4 0021     		movs	r1, #0
 2787 00a6 A7F57A70 		sub	r0, r7, #1000
 2788 00aa FFF7FEFF 		bl	GotoPos
 2789              	.LVL309:
 690:AS76.c        ****      }
ARM GAS  C:\Users\Revanth\AppData\Local\Temp\ccbqjHa5.s 			page 95


 2790              		.loc 1 690 0
 2791 00ae 0122     		movs	r2, #1
 2792 00b0 0F4B     		ldr	r3, .L184+4
 2793 00b2 5A62     		str	r2, [r3, #36]
 2794 00b4 17E0     		b	.L180
 2795              	.LVL310:
 2796              	.L181:
 693:AS76.c        ****      {
 2797              		.loc 1 693 0
 2798 00b6 B3F5FA6F 		cmp	r3, #2000
 2799 00ba 06DD     		ble	.L182
 695:AS76.c        ****        Error=  2;
 2800              		.loc 1 695 0
 2801 00bc 0E48     		ldr	r0, .L184+12
 2802 00be FFF7FEFF 		bl	Write_Debug_UART_Char
 2803              	.LVL311:
 696:AS76.c        ****      }
 2804              		.loc 1 696 0
 2805 00c2 0222     		movs	r2, #2
 2806 00c4 0A4B     		ldr	r3, .L184+4
 2807 00c6 5A62     		str	r2, [r3, #36]
 2808 00c8 0DE0     		b	.L180
 2809              	.L182:
 701:AS76.c        ****         Error = 0;
 2810              		.loc 1 701 0
 2811 00ca 0C48     		ldr	r0, .L184+16
 2812 00cc FFF7FEFF 		bl	Write_Debug_UART_Char
 2813              	.LVL312:
 702:AS76.c        ****         Write_32bitSPI_DATA (0x21  , steps, TMC5160_nCS_MotorX );
 2814              		.loc 1 702 0
 2815 00d0 0022     		movs	r2, #0
 2816 00d2 074B     		ldr	r3, .L184+4
 2817 00d4 5A62     		str	r2, [r3, #36]
 703:AS76.c        ****         CyDelayUs(500);
 2818              		.loc 1 703 0
 2819 00d6 3946     		mov	r1, r7
 2820 00d8 2120     		movs	r0, #33
 2821 00da FFF7FEFF 		bl	Write_32bitSPI_DATA
 2822              	.LVL313:
 704:AS76.c        ****         
 2823              		.loc 1 704 0
 2824 00de 4FF4FA70 		mov	r0, #500
 2825 00e2 FFF7FEFF 		bl	CyDelayUs
 2826              	.LVL314:
 2827              	.L180:
 710:AS76.c        **** }
 2828              		.loc 1 710 0
 2829 00e6 024B     		ldr	r3, .L184+4
 2830 00e8 586A     		ldr	r0, [r3, #36]
 711:AS76.c        **** 
 2831              		.loc 1 711 0
 2832 00ea F8BD     		pop	{r3, r4, r5, r6, r7, pc}
 2833              	.LVL315:
 2834              	.L185:
 2835              		.align	2
 2836              	.L184:
 2837 00ec 00000000 		.word	.LANCHOR1
ARM GAS  C:\Users\Revanth\AppData\Local\Temp\ccbqjHa5.s 			page 96


 2838 00f0 00000000 		.word	.LANCHOR0
 2839 00f4 94020000 		.word	.LC20
 2840 00f8 B0020000 		.word	.LC21
 2841 00fc E0020000 		.word	.LC22
 2842              		.cfi_endproc
 2843              	.LFE71:
 2844              		.size	Step_correction_x, .-Step_correction_x
 2845              		.section	.text.goTo_X,"ax",%progbits
 2846              		.align	2
 2847              		.global	goTo_X
 2848              		.thumb
 2849              		.thumb_func
 2850              		.type	goTo_X, %function
 2851              	goTo_X:
 2852              	.LFB70:
 619:AS76.c        ****       
 2853              		.loc 1 619 0
 2854              		.cfi_startproc
 2855              		@ args = 0, pretend = 0, frame = 0
 2856              		@ frame_needed = 0, uses_anonymous_args = 0
 2857              	.LVL316:
 2858 0000 70B5     		push	{r4, r5, r6, lr}
 2859              		.cfi_def_cfa_offset 16
 2860              		.cfi_offset 4, -16
 2861              		.cfi_offset 5, -12
 2862              		.cfi_offset 6, -8
 2863              		.cfi_offset 14, -4
 2864 0002 0446     		mov	r4, r0
 621:AS76.c        ****     
 2865              		.loc 1 621 0
 2866 0004 FFF7FEFF 		bl	if_all_homing_done
 2867              	.LVL317:
 2868 0008 58B3     		cbz	r0, .L187
 624:AS76.c        ****         Write_32bitSPI_DATA (0x10  , (int) 0x00070102, TMC5160_nCS_MotorZ );
 2869              		.loc 1 624 0
 2870 000a 0122     		movs	r2, #1
 2871 000c 1849     		ldr	r1, .L190
 2872 000e 1020     		movs	r0, #16
 2873 0010 FFF7FEFF 		bl	Write_32bitSPI_DATA
 2874              	.LVL318:
 625:AS76.c        ****         Write_32bitSPI_DATA (0x10  , (int) 0x00070407, TMC5160_nCS_MotorX );
 2875              		.loc 1 625 0
 2876 0014 0222     		movs	r2, #2
 2877 0016 1749     		ldr	r1, .L190+4
 2878 0018 1020     		movs	r0, #16
 2879 001a FFF7FEFF 		bl	Write_32bitSPI_DATA
 2880              	.LVL319:
 626:AS76.c        ****         //Position_X_Move = Position_X_Move + Position_X_Requested;
 2881              		.loc 1 626 0
 2882 001e 0022     		movs	r2, #0
 2883 0020 1549     		ldr	r1, .L190+8
 2884 0022 1020     		movs	r0, #16
 2885 0024 FFF7FEFF 		bl	Write_32bitSPI_DATA
 2886              	.LVL320:
 628:AS76.c        ****         Read_All_Optical_Encoder();
 2887              		.loc 1 628 0
 2888 0028 144E     		ldr	r6, .L190+12
ARM GAS  C:\Users\Revanth\AppData\Local\Temp\ccbqjHa5.s 			page 97


 2889 002a 0025     		movs	r5, #0
 2890 002c 7562     		str	r5, [r6, #36]
 629:AS76.c        ****         //X_last_position = X_QuadPosition;
 2891              		.loc 1 629 0
 2892 002e FFF7FEFF 		bl	Read_All_Optical_Encoder
 2893              	.LVL321:
 631:AS76.c        ****         GotoPos(Position_X_Requested, TMC5160_nCS_MotorX); // If provided value is position and not
 2894              		.loc 1 631 0
 2895 0032 1348     		ldr	r0, .L190+16
 2896 0034 FFF7FEFF 		bl	Write_Debug_UART_Char
 2897              	.LVL322:
 632:AS76.c        ****         WaitTillPositionReached (TMC5160_nCS_MotorX);
 2898              		.loc 1 632 0
 2899 0038 2946     		mov	r1, r5
 2900 003a 2046     		mov	r0, r4
 2901 003c FFF7FEFF 		bl	GotoPos
 2902              	.LVL323:
 633:AS76.c        ****         CyDelayUs(50);
 2903              		.loc 1 633 0
 2904 0040 2846     		mov	r0, r5
 2905 0042 FFF7FEFF 		bl	WaitTillPositionReached
 2906              	.LVL324:
 634:AS76.c        ****         //GotoPos(Position_X_Move, TMC5160_nCS_MotorX); // If provided value is steps to move and n
 2907              		.loc 1 634 0
 2908 0046 3220     		movs	r0, #50
 2909 0048 FFF7FEFF 		bl	CyDelayUs
 2910              	.LVL325:
 636:AS76.c        ****         Write_Debug_UART_Char("  \r\n");
 2911              		.loc 1 636 0
 2912 004c 2046     		mov	r0, r4
 2913 004e FFF7FEFF 		bl	Write_Debug_UART_Int
 2914              	.LVL326:
 637:AS76.c        ****         Step_correction_x(Position_X_Requested);
 2915              		.loc 1 637 0
 2916 0052 0C48     		ldr	r0, .L190+20
 2917 0054 FFF7FEFF 		bl	Write_Debug_UART_Char
 2918              	.LVL327:
 638:AS76.c        ****         return Error;
 2919              		.loc 1 638 0
 2920 0058 2046     		mov	r0, r4
 2921 005a FFF7FEFF 		bl	Step_correction_x
 2922              	.LVL328:
 639:AS76.c        ****     }
 2923              		.loc 1 639 0
 2924 005e 706A     		ldr	r0, [r6, #36]
 2925 0060 70BD     		pop	{r4, r5, r6, pc}
 2926              	.LVL329:
 2927              	.L187:
 643:AS76.c        ****         Error = 32;
 2928              		.loc 1 643 0
 2929 0062 0948     		ldr	r0, .L190+24
 2930 0064 FFF7FEFF 		bl	Write_Debug_UART_Char
 2931              	.LVL330:
 644:AS76.c        ****         return Error;
 2932              		.loc 1 644 0
 2933 0068 2020     		movs	r0, #32
 2934 006a 044B     		ldr	r3, .L190+12
ARM GAS  C:\Users\Revanth\AppData\Local\Temp\ccbqjHa5.s 			page 98


 2935 006c 5862     		str	r0, [r3, #36]
 648:AS76.c        **** 
 2936              		.loc 1 648 0
 2937 006e 70BD     		pop	{r4, r5, r6, pc}
 2938              	.LVL331:
 2939              	.L191:
 2940              		.align	2
 2941              	.L190:
 2942 0070 03010700 		.word	459011
 2943 0074 02010700 		.word	459010
 2944 0078 07040700 		.word	459783
 2945 007c 00000000 		.word	.LANCHOR0
 2946 0080 F4020000 		.word	.LC23
 2947 0084 10030000 		.word	.LC24
 2948 0088 18030000 		.word	.LC25
 2949              		.cfi_endproc
 2950              	.LFE70:
 2951              		.size	goTo_X, .-goTo_X
 2952              		.section	.text.Step_correction_y,"ax",%progbits
 2953              		.align	2
 2954              		.global	Step_correction_y
 2955              		.thumb
 2956              		.thumb_func
 2957              		.type	Step_correction_y, %function
 2958              	Step_correction_y:
 2959              	.LFB73:
 747:AS76.c        ****     uint8_t temp=0;
 2960              		.loc 1 747 0
 2961              		.cfi_startproc
 2962              		@ args = 0, pretend = 0, frame = 0
 2963              		@ frame_needed = 0, uses_anonymous_args = 0
 2964              	.LVL332:
 2965 0000 F8B5     		push	{r3, r4, r5, r6, r7, lr}
 2966              		.cfi_def_cfa_offset 24
 2967              		.cfi_offset 3, -24
 2968              		.cfi_offset 4, -20
 2969              		.cfi_offset 5, -16
 2970              		.cfi_offset 6, -12
 2971              		.cfi_offset 7, -8
 2972              		.cfi_offset 14, -4
 2973 0002 0646     		mov	r6, r0
 2974              	.LVL333:
 753:AS76.c        ****     
 2975              		.loc 1 753 0
 2976 0004 FFF7FEFF 		bl	__aeabi_i2d
 2977              	.LVL334:
 2978 0008 37A3     		adr	r3, .L202
 2979 000a D3E90023 		ldrd	r2, [r3]
 2980 000e FFF7FEFF 		bl	__aeabi_ddiv
 2981              	.LVL335:
 2982 0012 FFF7FEFF 		bl	__aeabi_d2iz
 2983              	.LVL336:
 2984 0016 0746     		mov	r7, r0
 2985              	.LVL337:
 755:AS76.c        ****     {
 2986              		.loc 1 755 0
 2987 0018 0025     		movs	r5, #0
ARM GAS  C:\Users\Revanth\AppData\Local\Temp\ccbqjHa5.s 			page 99


 2988 001a 2BE0     		b	.L193
 2989              	.LVL338:
 2990              	.L197:
 757:AS76.c        ****     //diff_encoder_value = (X_QuadPosition - X_last_position);
 2991              		.loc 1 757 0
 2992 001c FFF7FEFF 		bl	Read_All_Optical_Encoder
 2993              	.LVL339:
 759:AS76.c        ****     new_step= encoder_error_value*12.8;
 2994              		.loc 1 759 0
 2995 0020 334B     		ldr	r3, .L202+8
 2996 0022 DC68     		ldr	r4, [r3, #12]
 2997 0024 3C1B     		subs	r4, r7, r4
 2998              	.LVL340:
 760:AS76.c        ****     if(encoder_error_value >= 4000)
 2999              		.loc 1 760 0
 3000 0026 2046     		mov	r0, r4
 3001 0028 FFF7FEFF 		bl	__aeabi_i2d
 3002              	.LVL341:
 3003 002c 2EA3     		adr	r3, .L202
 3004 002e D3E90023 		ldrd	r2, [r3]
 3005 0032 FFF7FEFF 		bl	__aeabi_dmul
 3006              	.LVL342:
 3007 0036 FFF7FEFF 		bl	__aeabi_d2iz
 3008              	.LVL343:
 761:AS76.c        ****     {
 3009              		.loc 1 761 0
 3010 003a B4F57A6F 		cmp	r4, #4000
 3011 003e 03DB     		blt	.L194
 763:AS76.c        ****         break;
 3012              		.loc 1 763 0
 3013 0040 0922     		movs	r2, #9
 3014 0042 2B4B     		ldr	r3, .L202+8
 3015 0044 5A62     		str	r2, [r3, #36]
 764:AS76.c        ****     }
 3016              		.loc 1 764 0
 3017 0046 17E0     		b	.L195
 3018              	.L194:
 766:AS76.c        ****     {
 3019              		.loc 1 766 0
 3020 0048 002C     		cmp	r4, #0
 3021 004a B8BF     		it	lt
 3022 004c 6442     		rsblt	r4, r4, #0
 3023              	.LVL344:
 3024 004e 092C     		cmp	r4, #9
 3025 0050 0EDD     		ble	.L196
 3026              	.LVL345:
 769:AS76.c        ****       WaitTillPositionReached (TMC5160_nCS_MotorY);
 3027              		.loc 1 769 0
 3028 0052 0121     		movs	r1, #1
 3029 0054 3044     		add	r0, r0, r6
 3030              	.LVL346:
 3031 0056 FFF7FEFF 		bl	GotoPos
 3032              	.LVL347:
 770:AS76.c        ****       CyDelayUs(50);
 3033              		.loc 1 770 0
 3034 005a 0120     		movs	r0, #1
 3035 005c FFF7FEFF 		bl	WaitTillPositionReached
ARM GAS  C:\Users\Revanth\AppData\Local\Temp\ccbqjHa5.s 			page 100


 3036              	.LVL348:
 771:AS76.c        ****       Write_32bitSPI_DATA (0x21  , steps, TMC5160_nCS_MotorY );
 3037              		.loc 1 771 0
 3038 0060 3220     		movs	r0, #50
 3039 0062 FFF7FEFF 		bl	CyDelayUs
 3040              	.LVL349:
 772:AS76.c        ****     }
 3041              		.loc 1 772 0
 3042 0066 0122     		movs	r2, #1
 3043 0068 3146     		mov	r1, r6
 3044 006a 2120     		movs	r0, #33
 3045 006c FFF7FEFF 		bl	Write_32bitSPI_DATA
 3046              	.LVL350:
 3047              	.L196:
 755:AS76.c        ****     {
 3048              		.loc 1 755 0 discriminator 2
 3049 0070 0135     		adds	r5, r5, #1
 3050              	.LVL351:
 3051 0072 EDB2     		uxtb	r5, r5
 3052              	.LVL352:
 3053              	.L193:
 755:AS76.c        ****     {
 3054              		.loc 1 755 0 is_stmt 0 discriminator 1
 3055 0074 032D     		cmp	r5, #3
 3056 0076 D1D9     		bls	.L197
 3057              	.L195:
 778:AS76.c        ****     encoder_error_value = Encoder_Position_Y_Requested - Y_QuadPosition;
 3058              		.loc 1 778 0 is_stmt 1
 3059 0078 FFF7FEFF 		bl	Read_All_Optical_Encoder
 3060              	.LVL353:
 779:AS76.c        ****     
 3061              		.loc 1 779 0
 3062 007c 1C4B     		ldr	r3, .L202+8
 3063 007e D868     		ldr	r0, [r3, #12]
 3064 0080 381A     		subs	r0, r7, r0
 3065              	.LVL354:
 781:AS76.c        ****     {
 3066              		.loc 1 781 0
 3067 0082 032D     		cmp	r5, #3
 3068 0084 2AD9     		bls	.L198
 783:AS76.c        ****      {
 3069              		.loc 1 783 0
 3070 0086 80EAE073 		eor	r3, r0, r0, asr #31
 3071 008a A3EBE073 		sub	r3, r3, r0, asr #31
 3072 008e 022B     		cmp	r3, #2
 3073 0090 14DD     		ble	.L199
 783:AS76.c        ****      {
 3074              		.loc 1 783 0 is_stmt 0 discriminator 1
 3075 0092 00F2CF70 		addw	r0, r0, #1999
 3076              	.LVL355:
 3077 0096 40F69E72 		movw	r2, #3998
 3078 009a 9042     		cmp	r0, r2
 3079 009c 0ED8     		bhi	.L199
 785:AS76.c        ****         GotoPos((steps-1000),TMC5160_nCS_MotorY);
 3080              		.loc 1 785 0 is_stmt 1
 3081 009e 1548     		ldr	r0, .L202+12
 3082              	.LVL356:
ARM GAS  C:\Users\Revanth\AppData\Local\Temp\ccbqjHa5.s 			page 101


 3083 00a0 FFF7FEFF 		bl	Write_Debug_UART_Char
 3084              	.LVL357:
 786:AS76.c        ****         LED3_Write(0xFF);
 3085              		.loc 1 786 0
 3086 00a4 0121     		movs	r1, #1
 3087 00a6 A6F57A70 		sub	r0, r6, #1000
 3088 00aa FFF7FEFF 		bl	GotoPos
 3089              	.LVL358:
 787:AS76.c        ****         Error=  8;
 3090              		.loc 1 787 0
 3091 00ae FF20     		movs	r0, #255
 3092 00b0 FFF7FEFF 		bl	LED3_Write
 3093              	.LVL359:
 788:AS76.c        ****      }
 3094              		.loc 1 788 0
 3095 00b4 0822     		movs	r2, #8
 3096 00b6 0E4B     		ldr	r3, .L202+8
 3097 00b8 5A62     		str	r2, [r3, #36]
 3098 00ba 0FE0     		b	.L198
 3099              	.L199:
 791:AS76.c        ****      {
 3100              		.loc 1 791 0
 3101 00bc B3F5FA6F 		cmp	r3, #2000
 3102 00c0 06DD     		ble	.L200
 793:AS76.c        ****        Error=  9;
 3103              		.loc 1 793 0
 3104 00c2 0D48     		ldr	r0, .L202+16
 3105 00c4 FFF7FEFF 		bl	Write_Debug_UART_Char
 3106              	.LVL360:
 794:AS76.c        ****      }
 3107              		.loc 1 794 0
 3108 00c8 0922     		movs	r2, #9
 3109 00ca 094B     		ldr	r3, .L202+8
 3110 00cc 5A62     		str	r2, [r3, #36]
 3111 00ce 05E0     		b	.L198
 3112              	.L200:
 799:AS76.c        ****         Error = 0;
 3113              		.loc 1 799 0
 3114 00d0 0A48     		ldr	r0, .L202+20
 3115 00d2 FFF7FEFF 		bl	Write_Debug_UART_Char
 3116              	.LVL361:
 800:AS76.c        ****         
 3117              		.loc 1 800 0
 3118 00d6 0022     		movs	r2, #0
 3119 00d8 054B     		ldr	r3, .L202+8
 3120 00da 5A62     		str	r2, [r3, #36]
 3121              	.L198:
 807:AS76.c        **** 
 3122              		.loc 1 807 0
 3123 00dc 044B     		ldr	r3, .L202+8
 3124 00de 586A     		ldr	r0, [r3, #36]
 3125 00e0 F8BD     		pop	{r3, r4, r5, r6, r7, pc}
 3126              	.LVL362:
 3127              	.L203:
 3128 00e2 00BFAFF3 		.align	3
 3128      0080
 3129              	.L202:
ARM GAS  C:\Users\Revanth\AppData\Local\Temp\ccbqjHa5.s 			page 102


 3130 00e8 9A999999 		.word	-1717986918
 3131 00ec 99992940 		.word	1076468121
 3132 00f0 00000000 		.word	.LANCHOR0
 3133 00f4 28030000 		.word	.LC26
 3134 00f8 44030000 		.word	.LC27
 3135 00fc 74030000 		.word	.LC28
 3136              		.cfi_endproc
 3137              	.LFE73:
 3138              		.size	Step_correction_y, .-Step_correction_y
 3139              		.section	.text.goTo_Y,"ax",%progbits
 3140              		.align	2
 3141              		.global	goTo_Y
 3142              		.thumb
 3143              		.thumb_func
 3144              		.type	goTo_Y, %function
 3145              	goTo_Y:
 3146              	.LFB72:
 717:AS76.c        ****     if(if_all_homing_done())
 3147              		.loc 1 717 0
 3148              		.cfi_startproc
 3149              		@ args = 0, pretend = 0, frame = 0
 3150              		@ frame_needed = 0, uses_anonymous_args = 0
 3151              	.LVL363:
 3152 0000 38B5     		push	{r3, r4, r5, lr}
 3153              		.cfi_def_cfa_offset 16
 3154              		.cfi_offset 3, -16
 3155              		.cfi_offset 4, -12
 3156              		.cfi_offset 5, -8
 3157              		.cfi_offset 14, -4
 3158 0002 0446     		mov	r4, r0
 718:AS76.c        ****     {
 3159              		.loc 1 718 0
 3160 0004 FFF7FEFF 		bl	if_all_homing_done
 3161              	.LVL364:
 3162 0008 58B3     		cbz	r0, .L205
 720:AS76.c        ****         Write_32bitSPI_DATA (0x10  , (int) 0x00070102, TMC5160_nCS_MotorZ );
 3163              		.loc 1 720 0
 3164 000a 0022     		movs	r2, #0
 3165 000c 1849     		ldr	r1, .L208
 3166 000e 1020     		movs	r0, #16
 3167 0010 FFF7FEFF 		bl	Write_32bitSPI_DATA
 3168              	.LVL365:
 721:AS76.c        ****         Write_32bitSPI_DATA (0x10  , (int) 0x0007020A, TMC5160_nCS_MotorY );
 3169              		.loc 1 721 0
 3170 0014 0222     		movs	r2, #2
 3171 0016 1749     		ldr	r1, .L208+4
 3172 0018 1020     		movs	r0, #16
 3173 001a FFF7FEFF 		bl	Write_32bitSPI_DATA
 3174              	.LVL366:
 722:AS76.c        ****         
 3175              		.loc 1 722 0
 3176 001e 0122     		movs	r2, #1
 3177 0020 1549     		ldr	r1, .L208+8
 3178 0022 1020     		movs	r0, #16
 3179 0024 FFF7FEFF 		bl	Write_32bitSPI_DATA
 3180              	.LVL367:
 725:AS76.c        ****         Read_All_Optical_Encoder();
ARM GAS  C:\Users\Revanth\AppData\Local\Temp\ccbqjHa5.s 			page 103


 3181              		.loc 1 725 0
 3182 0028 144D     		ldr	r5, .L208+12
 3183 002a 0023     		movs	r3, #0
 3184 002c 6B62     		str	r3, [r5, #36]
 726:AS76.c        ****         //Y_last_position = Y_QuadPosition;
 3185              		.loc 1 726 0
 3186 002e FFF7FEFF 		bl	Read_All_Optical_Encoder
 3187              	.LVL368:
 728:AS76.c        ****         GotoPos(Position_Y_Requested, TMC5160_nCS_MotorY); // If provided value is position and not
 3188              		.loc 1 728 0
 3189 0032 1348     		ldr	r0, .L208+16
 3190 0034 FFF7FEFF 		bl	Write_Debug_UART_Char
 3191              	.LVL369:
 729:AS76.c        ****         WaitTillPositionReached (TMC5160_nCS_MotorY);
 3192              		.loc 1 729 0
 3193 0038 0121     		movs	r1, #1
 3194 003a 2046     		mov	r0, r4
 3195 003c FFF7FEFF 		bl	GotoPos
 3196              	.LVL370:
 730:AS76.c        ****         CyDelayUs(50);
 3197              		.loc 1 730 0
 3198 0040 0120     		movs	r0, #1
 3199 0042 FFF7FEFF 		bl	WaitTillPositionReached
 3200              	.LVL371:
 731:AS76.c        ****         //GotoPos(Position_X_Move, TMC5160_nCS_MotorX); // If provided value is steps to move and n
 3201              		.loc 1 731 0
 3202 0046 3220     		movs	r0, #50
 3203 0048 FFF7FEFF 		bl	CyDelayUs
 3204              	.LVL372:
 733:AS76.c        ****         Write_Debug_UART_Char("  \r\n");
 3205              		.loc 1 733 0
 3206 004c 2046     		mov	r0, r4
 3207 004e FFF7FEFF 		bl	Write_Debug_UART_Int
 3208              	.LVL373:
 734:AS76.c        ****         Step_correction_y(Position_Y_Requested);
 3209              		.loc 1 734 0
 3210 0052 0C48     		ldr	r0, .L208+20
 3211 0054 FFF7FEFF 		bl	Write_Debug_UART_Char
 3212              	.LVL374:
 735:AS76.c        ****         return Error;
 3213              		.loc 1 735 0
 3214 0058 2046     		mov	r0, r4
 3215 005a FFF7FEFF 		bl	Step_correction_y
 3216              	.LVL375:
 736:AS76.c        ****     }
 3217              		.loc 1 736 0
 3218 005e 686A     		ldr	r0, [r5, #36]
 3219 0060 38BD     		pop	{r3, r4, r5, pc}
 3220              	.LVL376:
 3221              	.L205:
 740:AS76.c        ****         Error = 32;
 3222              		.loc 1 740 0
 3223 0062 0948     		ldr	r0, .L208+24
 3224 0064 FFF7FEFF 		bl	Write_Debug_UART_Char
 3225              	.LVL377:
 741:AS76.c        ****         return Error;
 3226              		.loc 1 741 0
ARM GAS  C:\Users\Revanth\AppData\Local\Temp\ccbqjHa5.s 			page 104


 3227 0068 2020     		movs	r0, #32
 3228 006a 044B     		ldr	r3, .L208+12
 3229 006c 5862     		str	r0, [r3, #36]
 744:AS76.c        **** 
 3230              		.loc 1 744 0
 3231 006e 38BD     		pop	{r3, r4, r5, pc}
 3232              	.LVL378:
 3233              	.L209:
 3234              		.align	2
 3235              	.L208:
 3236 0070 03010700 		.word	459011
 3237 0074 02010700 		.word	459010
 3238 0078 0A020700 		.word	459274
 3239 007c 00000000 		.word	.LANCHOR0
 3240 0080 F4020000 		.word	.LC23
 3241 0084 10030000 		.word	.LC24
 3242 0088 18030000 		.word	.LC25
 3243              		.cfi_endproc
 3244              	.LFE72:
 3245              		.size	goTo_Y, .-goTo_Y
 3246              		.section	.text.Step_correction_z,"ax",%progbits
 3247              		.align	2
 3248              		.global	Step_correction_z
 3249              		.thumb
 3250              		.thumb_func
 3251              		.type	Step_correction_z, %function
 3252              	Step_correction_z:
 3253              	.LFB75:
 847:AS76.c        ****     uint8_t temp=0;
 3254              		.loc 1 847 0
 3255              		.cfi_startproc
 3256              		@ args = 0, pretend = 0, frame = 0
 3257              		@ frame_needed = 0, uses_anonymous_args = 0
 3258              	.LVL379:
 3259 0000 F8B5     		push	{r3, r4, r5, r6, r7, lr}
 3260              		.cfi_def_cfa_offset 24
 3261              		.cfi_offset 3, -24
 3262              		.cfi_offset 4, -20
 3263              		.cfi_offset 5, -16
 3264              		.cfi_offset 6, -12
 3265              		.cfi_offset 7, -8
 3266              		.cfi_offset 14, -4
 3267 0002 0646     		mov	r6, r0
 3268              	.LVL380:
 853:AS76.c        ****     
 3269              		.loc 1 853 0
 3270 0004 FFF7FEFF 		bl	__aeabi_i2d
 3271              	.LVL381:
 3272 0008 37A3     		adr	r3, .L220
 3273 000a D3E90023 		ldrd	r2, [r3]
 3274 000e FFF7FEFF 		bl	__aeabi_ddiv
 3275              	.LVL382:
 3276 0012 FFF7FEFF 		bl	__aeabi_d2iz
 3277              	.LVL383:
 3278 0016 0746     		mov	r7, r0
 3279              	.LVL384:
 855:AS76.c        ****     {
ARM GAS  C:\Users\Revanth\AppData\Local\Temp\ccbqjHa5.s 			page 105


 3280              		.loc 1 855 0
 3281 0018 0025     		movs	r5, #0
 3282 001a 2BE0     		b	.L211
 3283              	.LVL385:
 3284              	.L215:
 858:AS76.c        ****     //diff_encoder_value = (X_QuadPosition - X_last_position);
 3285              		.loc 1 858 0
 3286 001c FFF7FEFF 		bl	Read_All_Optical_Encoder
 3287              	.LVL386:
 860:AS76.c        ****     new_step= encoder_error_value*3.2;
 3288              		.loc 1 860 0
 3289 0020 334B     		ldr	r3, .L220+8
 3290 0022 1C69     		ldr	r4, [r3, #16]
 3291 0024 3C1B     		subs	r4, r7, r4
 3292              	.LVL387:
 861:AS76.c        ****     if(encoder_error_value >= 4000)
 3293              		.loc 1 861 0
 3294 0026 2046     		mov	r0, r4
 3295 0028 FFF7FEFF 		bl	__aeabi_i2d
 3296              	.LVL388:
 3297 002c 2EA3     		adr	r3, .L220
 3298 002e D3E90023 		ldrd	r2, [r3]
 3299 0032 FFF7FEFF 		bl	__aeabi_dmul
 3300              	.LVL389:
 3301 0036 FFF7FEFF 		bl	__aeabi_d2iz
 3302              	.LVL390:
 862:AS76.c        ****     {
 3303              		.loc 1 862 0
 3304 003a B4F57A6F 		cmp	r4, #4000
 3305 003e 03DB     		blt	.L212
 864:AS76.c        ****         break;
 3306              		.loc 1 864 0
 3307 0040 1022     		movs	r2, #16
 3308 0042 2B4B     		ldr	r3, .L220+8
 3309 0044 5A62     		str	r2, [r3, #36]
 865:AS76.c        ****     }
 3310              		.loc 1 865 0
 3311 0046 17E0     		b	.L213
 3312              	.L212:
 867:AS76.c        ****     {
 3313              		.loc 1 867 0
 3314 0048 002C     		cmp	r4, #0
 3315 004a B8BF     		it	lt
 3316 004c 6442     		rsblt	r4, r4, #0
 3317              	.LVL391:
 3318 004e 022C     		cmp	r4, #2
 3319 0050 0EDD     		ble	.L214
 3320              	.LVL392:
 870:AS76.c        ****       WaitTillPositionReached (TMC5160_nCS_MotorZ);
 3321              		.loc 1 870 0
 3322 0052 0221     		movs	r1, #2
 3323 0054 3044     		add	r0, r0, r6
 3324              	.LVL393:
 3325 0056 FFF7FEFF 		bl	GotoPos
 3326              	.LVL394:
 871:AS76.c        ****       CyDelayUs(50);
 3327              		.loc 1 871 0
ARM GAS  C:\Users\Revanth\AppData\Local\Temp\ccbqjHa5.s 			page 106


 3328 005a 0220     		movs	r0, #2
 3329 005c FFF7FEFF 		bl	WaitTillPositionReached
 3330              	.LVL395:
 872:AS76.c        ****       Write_32bitSPI_DATA (0x21  , steps, TMC5160_nCS_MotorZ );
 3331              		.loc 1 872 0
 3332 0060 3220     		movs	r0, #50
 3333 0062 FFF7FEFF 		bl	CyDelayUs
 3334              	.LVL396:
 873:AS76.c        ****     }
 3335              		.loc 1 873 0
 3336 0066 0222     		movs	r2, #2
 3337 0068 3146     		mov	r1, r6
 3338 006a 2120     		movs	r0, #33
 3339 006c FFF7FEFF 		bl	Write_32bitSPI_DATA
 3340              	.LVL397:
 3341              	.L214:
 855:AS76.c        ****     {
 3342              		.loc 1 855 0 discriminator 2
 3343 0070 0135     		adds	r5, r5, #1
 3344              	.LVL398:
 3345 0072 EDB2     		uxtb	r5, r5
 3346              	.LVL399:
 3347              	.L211:
 855:AS76.c        ****     {
 3348              		.loc 1 855 0 is_stmt 0 discriminator 1
 3349 0074 052D     		cmp	r5, #5
 3350 0076 D1D9     		bls	.L215
 3351              	.L213:
 879:AS76.c        ****     encoder_error_value = Encoder_Position_Z_Requested - Z_QuadPosition;
 3352              		.loc 1 879 0 is_stmt 1
 3353 0078 FFF7FEFF 		bl	Read_All_Optical_Encoder
 3354              	.LVL400:
 880:AS76.c        ****     
 3355              		.loc 1 880 0
 3356 007c 1C4B     		ldr	r3, .L220+8
 3357 007e 1869     		ldr	r0, [r3, #16]
 3358 0080 381A     		subs	r0, r7, r0
 3359              	.LVL401:
 882:AS76.c        ****     {
 3360              		.loc 1 882 0
 3361 0082 032D     		cmp	r5, #3
 3362 0084 2AD9     		bls	.L216
 884:AS76.c        ****      {
 3363              		.loc 1 884 0
 3364 0086 80EAE073 		eor	r3, r0, r0, asr #31
 3365 008a A3EBE073 		sub	r3, r3, r0, asr #31
 3366 008e 042B     		cmp	r3, #4
 3367 0090 14DD     		ble	.L217
 884:AS76.c        ****      {
 3368              		.loc 1 884 0 is_stmt 0 discriminator 1
 3369 0092 00F69F70 		addw	r0, r0, #3999
 3370              	.LVL402:
 3371 0096 41F63E72 		movw	r2, #7998
 3372 009a 9042     		cmp	r0, r2
 3373 009c 0ED8     		bhi	.L217
 886:AS76.c        ****         GotoPos((steps-1000),TMC5160_nCS_MotorZ);
 3374              		.loc 1 886 0 is_stmt 1
ARM GAS  C:\Users\Revanth\AppData\Local\Temp\ccbqjHa5.s 			page 107


 3375 009e 1548     		ldr	r0, .L220+12
 3376              	.LVL403:
 3377 00a0 FFF7FEFF 		bl	Write_Debug_UART_Char
 3378              	.LVL404:
 887:AS76.c        ****         LED2_Write(0xFF);
 3379              		.loc 1 887 0
 3380 00a4 0221     		movs	r1, #2
 3381 00a6 A6F57A70 		sub	r0, r6, #1000
 3382 00aa FFF7FEFF 		bl	GotoPos
 3383              	.LVL405:
 888:AS76.c        ****         Error = 15;
 3384              		.loc 1 888 0
 3385 00ae FF20     		movs	r0, #255
 3386 00b0 FFF7FEFF 		bl	LED2_Write
 3387              	.LVL406:
 889:AS76.c        ****      }
 3388              		.loc 1 889 0
 3389 00b4 0F22     		movs	r2, #15
 3390 00b6 0E4B     		ldr	r3, .L220+8
 3391 00b8 5A62     		str	r2, [r3, #36]
 3392 00ba 0FE0     		b	.L216
 3393              	.L217:
 892:AS76.c        ****      {
 3394              		.loc 1 892 0
 3395 00bc B3F57A6F 		cmp	r3, #4000
 3396 00c0 06DD     		ble	.L218
 894:AS76.c        ****        Error = 16;
 3397              		.loc 1 894 0
 3398 00c2 0D48     		ldr	r0, .L220+16
 3399 00c4 FFF7FEFF 		bl	Write_Debug_UART_Char
 3400              	.LVL407:
 895:AS76.c        ****      }
 3401              		.loc 1 895 0
 3402 00c8 1022     		movs	r2, #16
 3403 00ca 094B     		ldr	r3, .L220+8
 3404 00cc 5A62     		str	r2, [r3, #36]
 3405 00ce 05E0     		b	.L216
 3406              	.L218:
 900:AS76.c        ****        Error = 0;
 3407              		.loc 1 900 0
 3408 00d0 0A48     		ldr	r0, .L220+20
 3409 00d2 FFF7FEFF 		bl	Write_Debug_UART_Char
 3410              	.LVL408:
 901:AS76.c        ****         
 3411              		.loc 1 901 0
 3412 00d6 0022     		movs	r2, #0
 3413 00d8 054B     		ldr	r3, .L220+8
 3414 00da 5A62     		str	r2, [r3, #36]
 3415              	.L216:
 908:AS76.c        **** 
 3416              		.loc 1 908 0
 3417 00dc 044B     		ldr	r3, .L220+8
 3418 00de 586A     		ldr	r0, [r3, #36]
 3419 00e0 F8BD     		pop	{r3, r4, r5, r6, r7, pc}
 3420              	.LVL409:
 3421              	.L221:
 3422 00e2 00BFAFF3 		.align	3
ARM GAS  C:\Users\Revanth\AppData\Local\Temp\ccbqjHa5.s 			page 108


 3422      0080
 3423              	.L220:
 3424 00e8 9A999999 		.word	-1717986918
 3425 00ec 99990940 		.word	1074370969
 3426 00f0 00000000 		.word	.LANCHOR0
 3427 00f4 88030000 		.word	.LC29
 3428 00f8 A4030000 		.word	.LC30
 3429 00fc D4030000 		.word	.LC31
 3430              		.cfi_endproc
 3431              	.LFE75:
 3432              		.size	Step_correction_z, .-Step_correction_z
 3433              		.section	.text.goTo_Z,"ax",%progbits
 3434              		.align	2
 3435              		.global	goTo_Z
 3436              		.thumb
 3437              		.thumb_func
 3438              		.type	goTo_Z, %function
 3439              	goTo_Z:
 3440              	.LFB74:
 814:AS76.c        ****     Write_32bitSPI_DATA (0x10  , (int) 0x00070103, TMC5160_nCS_MotorY );
 3441              		.loc 1 814 0
 3442              		.cfi_startproc
 3443              		@ args = 0, pretend = 0, frame = 0
 3444              		@ frame_needed = 0, uses_anonymous_args = 0
 3445              	.LVL410:
 3446 0000 38B5     		push	{r3, r4, r5, lr}
 3447              		.cfi_def_cfa_offset 16
 3448              		.cfi_offset 3, -16
 3449              		.cfi_offset 4, -12
 3450              		.cfi_offset 5, -8
 3451              		.cfi_offset 14, -4
 3452 0002 0546     		mov	r5, r0
 815:AS76.c        ****     Write_32bitSPI_DATA (0x10  , (int) 0x00070103, TMC5160_nCS_MotorX );
 3453              		.loc 1 815 0
 3454 0004 1F4C     		ldr	r4, .L226
 3455 0006 0122     		movs	r2, #1
 3456 0008 2146     		mov	r1, r4
 3457 000a 1020     		movs	r0, #16
 3458              	.LVL411:
 3459 000c FFF7FEFF 		bl	Write_32bitSPI_DATA
 3460              	.LVL412:
 816:AS76.c        ****     Write_32bitSPI_DATA (0x10  , (int) 0x00070303, TMC5160_nCS_MotorZ );
 3461              		.loc 1 816 0
 3462 0010 0022     		movs	r2, #0
 3463 0012 2146     		mov	r1, r4
 3464 0014 1020     		movs	r0, #16
 3465 0016 FFF7FEFF 		bl	Write_32bitSPI_DATA
 3466              	.LVL413:
 817:AS76.c        ****     Position_Z_Requested =  Position_Z_Requested;
 3467              		.loc 1 817 0
 3468 001a 0222     		movs	r2, #2
 3469 001c 1A49     		ldr	r1, .L226+4
 3470 001e 1020     		movs	r0, #16
 3471 0020 FFF7FEFF 		bl	Write_32bitSPI_DATA
 3472              	.LVL414:
 819:AS76.c        ****     if(if_all_homing_done())
 3473              		.loc 1 819 0
ARM GAS  C:\Users\Revanth\AppData\Local\Temp\ccbqjHa5.s 			page 109


 3474 0024 194B     		ldr	r3, .L226+8
 3475 0026 9869     		ldr	r0, [r3, #24]
 3476 0028 4042     		negs	r0, r0
 3477 002a FFF7FEFF 		bl	Enable_Encoder_Z
 3478              	.LVL415:
 820:AS76.c        ****     {
 3479              		.loc 1 820 0
 3480 002e FFF7FEFF 		bl	if_all_homing_done
 3481              	.LVL416:
 3482 0032 00B3     		cbz	r0, .L223
 822:AS76.c        ****         Read_All_Optical_Encoder();
 3483              		.loc 1 822 0
 3484 0034 154C     		ldr	r4, .L226+8
 3485 0036 0023     		movs	r3, #0
 3486 0038 6362     		str	r3, [r4, #36]
 823:AS76.c        ****         //Z_last_position = Z_QuadPosition;
 3487              		.loc 1 823 0
 3488 003a FFF7FEFF 		bl	Read_All_Optical_Encoder
 3489              	.LVL417:
 825:AS76.c        ****         GotoPos(Position_Z_Requested, TMC5160_nCS_MotorZ); // If provided value is position and not
 3490              		.loc 1 825 0
 3491 003e 1448     		ldr	r0, .L226+12
 3492 0040 FFF7FEFF 		bl	Write_Debug_UART_Char
 3493              	.LVL418:
 826:AS76.c        ****         WaitTillPositionReached (TMC5160_nCS_MotorZ);
 3494              		.loc 1 826 0
 3495 0044 0221     		movs	r1, #2
 3496 0046 2846     		mov	r0, r5
 3497 0048 FFF7FEFF 		bl	GotoPos
 3498              	.LVL419:
 827:AS76.c        ****         CyDelayUs(50);
 3499              		.loc 1 827 0
 3500 004c 0220     		movs	r0, #2
 3501 004e FFF7FEFF 		bl	WaitTillPositionReached
 3502              	.LVL420:
 828:AS76.c        ****         //GotoPos(Position_X_Move, TMC5160_nCS_MotorX); // If provided value is steps to move and n
 3503              		.loc 1 828 0
 3504 0052 3220     		movs	r0, #50
 3505 0054 FFF7FEFF 		bl	CyDelayUs
 3506              	.LVL421:
 830:AS76.c        ****         Write_Debug_UART_Char("  \r\n");
 3507              		.loc 1 830 0
 3508 0058 2846     		mov	r0, r5
 3509 005a FFF7FEFF 		bl	Write_Debug_UART_Int
 3510              	.LVL422:
 831:AS76.c        ****         Step_correction_z(Position_Z_Requested);
 3511              		.loc 1 831 0
 3512 005e 0D48     		ldr	r0, .L226+16
 3513 0060 FFF7FEFF 		bl	Write_Debug_UART_Char
 3514              	.LVL423:
 832:AS76.c        ****         Read_All_Optical_Encoder();
 3515              		.loc 1 832 0
 3516 0064 2846     		mov	r0, r5
 3517 0066 FFF7FEFF 		bl	Step_correction_z
 3518              	.LVL424:
 833:AS76.c        ****         Buffer_Z_QuadPosition = Z_QuadPosition;
 3519              		.loc 1 833 0
ARM GAS  C:\Users\Revanth\AppData\Local\Temp\ccbqjHa5.s 			page 110


 3520 006a FFF7FEFF 		bl	Read_All_Optical_Encoder
 3521              	.LVL425:
 834:AS76.c        ****         return Error;
 3522              		.loc 1 834 0
 3523 006e 2369     		ldr	r3, [r4, #16]
 3524 0070 A361     		str	r3, [r4, #24]
 835:AS76.c        ****     }
 3525              		.loc 1 835 0
 3526 0072 606A     		ldr	r0, [r4, #36]
 3527 0074 38BD     		pop	{r3, r4, r5, pc}
 3528              	.LVL426:
 3529              	.L223:
 839:AS76.c        ****         Error = 32;
 3530              		.loc 1 839 0
 3531 0076 0848     		ldr	r0, .L226+20
 3532 0078 FFF7FEFF 		bl	Write_Debug_UART_Char
 3533              	.LVL427:
 840:AS76.c        ****         return Error;
 3534              		.loc 1 840 0
 3535 007c 2020     		movs	r0, #32
 3536 007e 034B     		ldr	r3, .L226+8
 3537 0080 5862     		str	r0, [r3, #36]
 844:AS76.c        **** 
 3538              		.loc 1 844 0
 3539 0082 38BD     		pop	{r3, r4, r5, pc}
 3540              	.LVL428:
 3541              	.L227:
 3542              		.align	2
 3543              	.L226:
 3544 0084 03010700 		.word	459011
 3545 0088 03030700 		.word	459523
 3546 008c 00000000 		.word	.LANCHOR0
 3547 0090 E8030000 		.word	.LC32
 3548 0094 10030000 		.word	.LC24
 3549 0098 18030000 		.word	.LC25
 3550              		.cfi_endproc
 3551              	.LFE74:
 3552              		.size	goTo_Z, .-goTo_Z
 3553              		.section	.text.Step_correction_t,"ax",%progbits
 3554              		.align	2
 3555              		.global	Step_correction_t
 3556              		.thumb
 3557              		.thumb_func
 3558              		.type	Step_correction_t, %function
 3559              	Step_correction_t:
 3560              	.LFB77:
 947:AS76.c        ****     uint8_t temp=0;
 3561              		.loc 1 947 0
 3562              		.cfi_startproc
 3563              		@ args = 0, pretend = 0, frame = 0
 3564              		@ frame_needed = 0, uses_anonymous_args = 0
 3565              	.LVL429:
 3566 0000 F8B5     		push	{r3, r4, r5, r6, r7, lr}
 3567              		.cfi_def_cfa_offset 24
 3568              		.cfi_offset 3, -24
 3569              		.cfi_offset 4, -20
 3570              		.cfi_offset 5, -16
ARM GAS  C:\Users\Revanth\AppData\Local\Temp\ccbqjHa5.s 			page 111


 3571              		.cfi_offset 6, -12
 3572              		.cfi_offset 7, -8
 3573              		.cfi_offset 14, -4
 3574 0002 0746     		mov	r7, r0
 3575              	.LVL430:
 953:AS76.c        ****     
 3576              		.loc 1 953 0
 3577 0004 FFF7FEFF 		bl	__aeabi_i2d
 3578              	.LVL431:
 3579 0008 33A3     		adr	r3, .L238
 3580 000a D3E90023 		ldrd	r2, [r3]
 3581 000e FFF7FEFF 		bl	__aeabi_ddiv
 3582              	.LVL432:
 3583 0012 FFF7FEFF 		bl	__aeabi_d2iz
 3584              	.LVL433:
 3585 0016 0646     		mov	r6, r0
 3586              	.LVL434:
 955:AS76.c        ****     {
 3587              		.loc 1 955 0
 3588 0018 0025     		movs	r5, #0
 3589 001a 2BE0     		b	.L229
 3590              	.LVL435:
 3591              	.L233:
 957:AS76.c        ****     //diff_encoder_value = (X_QuadPosition - X_last_position);
 3592              		.loc 1 957 0
 3593 001c FFF7FEFF 		bl	Read_All_Optical_Encoder
 3594              	.LVL436:
 959:AS76.c        ****     new_step= encoder_error_value*3.2;
 3595              		.loc 1 959 0
 3596 0020 2F4B     		ldr	r3, .L238+8
 3597 0022 5C69     		ldr	r4, [r3, #20]
 3598 0024 341B     		subs	r4, r6, r4
 3599              	.LVL437:
 960:AS76.c        ****     if(encoder_error_value >= 4000)
 3600              		.loc 1 960 0
 3601 0026 2046     		mov	r0, r4
 3602 0028 FFF7FEFF 		bl	__aeabi_i2d
 3603              	.LVL438:
 3604 002c 2AA3     		adr	r3, .L238
 3605 002e D3E90023 		ldrd	r2, [r3]
 3606 0032 FFF7FEFF 		bl	__aeabi_dmul
 3607              	.LVL439:
 3608 0036 FFF7FEFF 		bl	__aeabi_d2iz
 3609              	.LVL440:
 961:AS76.c        ****     {
 3610              		.loc 1 961 0
 3611 003a B4F57A6F 		cmp	r4, #4000
 3612 003e 03DB     		blt	.L230
 963:AS76.c        ****         break;
 3613              		.loc 1 963 0
 3614 0040 1722     		movs	r2, #23
 3615 0042 274B     		ldr	r3, .L238+8
 3616 0044 5A62     		str	r2, [r3, #36]
 964:AS76.c        ****     }
 3617              		.loc 1 964 0
 3618 0046 17E0     		b	.L231
 3619              	.L230:
ARM GAS  C:\Users\Revanth\AppData\Local\Temp\ccbqjHa5.s 			page 112


 967:AS76.c        ****     {
 3620              		.loc 1 967 0
 3621 0048 002C     		cmp	r4, #0
 3622 004a B8BF     		it	lt
 3623 004c 6442     		rsblt	r4, r4, #0
 3624              	.LVL441:
 3625 004e 042C     		cmp	r4, #4
 3626 0050 0EDD     		ble	.L232
 3627              	.LVL442:
 970:AS76.c        ****       WaitTillPositionReached (TMC5160_nCS_MotorT);
 3628              		.loc 1 970 0
 3629 0052 0321     		movs	r1, #3
 3630 0054 3844     		add	r0, r0, r7
 3631              	.LVL443:
 3632 0056 FFF7FEFF 		bl	GotoPos
 3633              	.LVL444:
 971:AS76.c        ****       CyDelayUs(50);
 3634              		.loc 1 971 0
 3635 005a 0320     		movs	r0, #3
 3636 005c FFF7FEFF 		bl	WaitTillPositionReached
 3637              	.LVL445:
 972:AS76.c        ****       Write_32bitSPI_DATA (0x21  , steps, TMC5160_nCS_MotorT );
 3638              		.loc 1 972 0
 3639 0060 3220     		movs	r0, #50
 3640 0062 FFF7FEFF 		bl	CyDelayUs
 3641              	.LVL446:
 973:AS76.c        ****     }
 3642              		.loc 1 973 0
 3643 0066 0322     		movs	r2, #3
 3644 0068 3946     		mov	r1, r7
 3645 006a 2120     		movs	r0, #33
 3646 006c FFF7FEFF 		bl	Write_32bitSPI_DATA
 3647              	.LVL447:
 3648              	.L232:
 955:AS76.c        ****     {
 3649              		.loc 1 955 0 discriminator 2
 3650 0070 0135     		adds	r5, r5, #1
 3651              	.LVL448:
 3652 0072 EDB2     		uxtb	r5, r5
 3653              	.LVL449:
 3654              	.L229:
 955:AS76.c        ****     {
 3655              		.loc 1 955 0 is_stmt 0 discriminator 1
 3656 0074 032D     		cmp	r5, #3
 3657 0076 D1D9     		bls	.L233
 3658              	.L231:
 978:AS76.c        ****     encoder_error_value = Encoder_Position_T_Requested - T_QuadPosition;
 3659              		.loc 1 978 0 is_stmt 1
 3660 0078 FFF7FEFF 		bl	Read_All_Optical_Encoder
 3661              	.LVL450:
 979:AS76.c        ****     
 3662              		.loc 1 979 0
 3663 007c 184B     		ldr	r3, .L238+8
 3664 007e 5869     		ldr	r0, [r3, #20]
 3665 0080 301A     		subs	r0, r6, r0
 3666              	.LVL451:
 981:AS76.c        ****     {
ARM GAS  C:\Users\Revanth\AppData\Local\Temp\ccbqjHa5.s 			page 113


 3667              		.loc 1 981 0
 3668 0082 032D     		cmp	r5, #3
 3669 0084 22D9     		bls	.L234
 983:AS76.c        ****      {
 3670              		.loc 1 983 0
 3671 0086 80EAE073 		eor	r3, r0, r0, asr #31
 3672 008a A3EBE073 		sub	r3, r3, r0, asr #31
 3673 008e 042B     		cmp	r3, #4
 3674 0090 0CDD     		ble	.L235
 983:AS76.c        ****      {
 3675              		.loc 1 983 0 is_stmt 0 discriminator 1
 3676 0092 00F69F70 		addw	r0, r0, #3999
 3677              	.LVL452:
 3678 0096 41F63E72 		movw	r2, #7998
 3679 009a 9042     		cmp	r0, r2
 3680 009c 06D8     		bhi	.L235
 985:AS76.c        ****         Error = 22;
 3681              		.loc 1 985 0 is_stmt 1
 3682 009e 1148     		ldr	r0, .L238+12
 3683              	.LVL453:
 3684 00a0 FFF7FEFF 		bl	Write_Debug_UART_Char
 3685              	.LVL454:
 986:AS76.c        ****      }
 3686              		.loc 1 986 0
 3687 00a4 1622     		movs	r2, #22
 3688 00a6 0E4B     		ldr	r3, .L238+8
 3689 00a8 5A62     		str	r2, [r3, #36]
 3690 00aa 0FE0     		b	.L234
 3691              	.L235:
 989:AS76.c        ****      {
 3692              		.loc 1 989 0
 3693 00ac B3F57A6F 		cmp	r3, #4000
 3694 00b0 06DD     		ble	.L236
 991:AS76.c        ****        Error = 23;
 3695              		.loc 1 991 0
 3696 00b2 0D48     		ldr	r0, .L238+16
 3697 00b4 FFF7FEFF 		bl	Write_Debug_UART_Char
 3698              	.LVL455:
 992:AS76.c        ****      }
 3699              		.loc 1 992 0
 3700 00b8 1722     		movs	r2, #23
 3701 00ba 094B     		ldr	r3, .L238+8
 3702 00bc 5A62     		str	r2, [r3, #36]
 3703 00be 05E0     		b	.L234
 3704              	.L236:
 997:AS76.c        ****         Error = 0;
 3705              		.loc 1 997 0
 3706 00c0 0A48     		ldr	r0, .L238+20
 3707 00c2 FFF7FEFF 		bl	Write_Debug_UART_Char
 3708              	.LVL456:
 998:AS76.c        ****         
 3709              		.loc 1 998 0
 3710 00c6 0022     		movs	r2, #0
 3711 00c8 054B     		ldr	r3, .L238+8
 3712 00ca 5A62     		str	r2, [r3, #36]
 3713              	.L234:
1005:AS76.c        **** 
ARM GAS  C:\Users\Revanth\AppData\Local\Temp\ccbqjHa5.s 			page 114


 3714              		.loc 1 1005 0
 3715 00cc 044B     		ldr	r3, .L238+8
 3716 00ce 586A     		ldr	r0, [r3, #36]
 3717 00d0 F8BD     		pop	{r3, r4, r5, r6, r7, pc}
 3718              	.LVL457:
 3719              	.L239:
 3720 00d2 00BFAFF3 		.align	3
 3720      0080
 3721              	.L238:
 3722 00d8 9A999999 		.word	-1717986918
 3723 00dc 99990940 		.word	1074370969
 3724 00e0 00000000 		.word	.LANCHOR0
 3725 00e4 04040000 		.word	.LC33
 3726 00e8 20040000 		.word	.LC34
 3727 00ec 50040000 		.word	.LC35
 3728              		.cfi_endproc
 3729              	.LFE77:
 3730              		.size	Step_correction_t, .-Step_correction_t
 3731              		.section	.text.goTo_T,"ax",%progbits
 3732              		.align	2
 3733              		.global	goTo_T
 3734              		.thumb
 3735              		.thumb_func
 3736              		.type	goTo_T, %function
 3737              	goTo_T:
 3738              	.LFB76:
 913:AS76.c        ****     TMC5160_MotorT_EN_Write(0x00);
 3739              		.loc 1 913 0
 3740              		.cfi_startproc
 3741              		@ args = 0, pretend = 0, frame = 0
 3742              		@ frame_needed = 0, uses_anonymous_args = 0
 3743              	.LVL458:
 3744 0000 38B5     		push	{r3, r4, r5, lr}
 3745              		.cfi_def_cfa_offset 16
 3746              		.cfi_offset 3, -16
 3747              		.cfi_offset 4, -12
 3748              		.cfi_offset 5, -8
 3749              		.cfi_offset 14, -4
 3750 0002 0446     		mov	r4, r0
 914:AS76.c        ****     CyDelayUs(100);
 3751              		.loc 1 914 0
 3752 0004 0020     		movs	r0, #0
 3753              	.LVL459:
 3754 0006 FFF7FEFF 		bl	TMC5160_MotorT_EN_Write
 3755              	.LVL460:
 915:AS76.c        ****     Enable_Encoder_T(-Buffer_T_QuadPosition);
 3756              		.loc 1 915 0
 3757 000a 6420     		movs	r0, #100
 3758 000c FFF7FEFF 		bl	CyDelayUs
 3759              	.LVL461:
 916:AS76.c        ****     if(if_all_homing_done())
 3760              		.loc 1 916 0
 3761 0010 1E4B     		ldr	r3, .L244
 3762 0012 D869     		ldr	r0, [r3, #28]
 3763 0014 4042     		negs	r0, r0
 3764 0016 FFF7FEFF 		bl	Enable_Encoder_T
 3765              	.LVL462:
ARM GAS  C:\Users\Revanth\AppData\Local\Temp\ccbqjHa5.s 			page 115


 917:AS76.c        ****     {
 3766              		.loc 1 917 0
 3767 001a FFF7FEFF 		bl	if_all_homing_done
 3768              	.LVL463:
 3769 001e 30B3     		cbz	r0, .L241
 919:AS76.c        ****         Read_All_Optical_Encoder();        
 3770              		.loc 1 919 0
 3771 0020 1A4D     		ldr	r5, .L244
 3772 0022 0023     		movs	r3, #0
 3773 0024 6B62     		str	r3, [r5, #36]
 920:AS76.c        ****         Write_Debug_UART_Char("GotoT Command Recived--->");
 3774              		.loc 1 920 0
 3775 0026 FFF7FEFF 		bl	Read_All_Optical_Encoder
 3776              	.LVL464:
 921:AS76.c        ****         GotoPos(Position_T_Requested, TMC5160_nCS_MotorT); // If provided value is position and not
 3777              		.loc 1 921 0
 3778 002a 1948     		ldr	r0, .L244+4
 3779 002c FFF7FEFF 		bl	Write_Debug_UART_Char
 3780              	.LVL465:
 922:AS76.c        ****         WaitTillPositionReached (TMC5160_nCS_MotorT);
 3781              		.loc 1 922 0
 3782 0030 0321     		movs	r1, #3
 3783 0032 2046     		mov	r0, r4
 3784 0034 FFF7FEFF 		bl	GotoPos
 3785              	.LVL466:
 923:AS76.c        ****         CyDelayUs(50);
 3786              		.loc 1 923 0
 3787 0038 0320     		movs	r0, #3
 3788 003a FFF7FEFF 		bl	WaitTillPositionReached
 3789              	.LVL467:
 924:AS76.c        ****         //GotoPos(Position_X_Move, TMC5160_nCS_MotorX); // If provided value is steps to move and n
 3790              		.loc 1 924 0
 3791 003e 3220     		movs	r0, #50
 3792 0040 FFF7FEFF 		bl	CyDelayUs
 3793              	.LVL468:
 926:AS76.c        ****         Write_Debug_UART_Char("  \r\n");
 3794              		.loc 1 926 0
 3795 0044 2046     		mov	r0, r4
 3796 0046 FFF7FEFF 		bl	Write_Debug_UART_Int
 3797              	.LVL469:
 927:AS76.c        ****         Step_correction_t(Position_T_Requested);
 3798              		.loc 1 927 0
 3799 004a 1248     		ldr	r0, .L244+8
 3800 004c FFF7FEFF 		bl	Write_Debug_UART_Char
 3801              	.LVL470:
 928:AS76.c        ****         Read_All_Optical_Encoder();
 3802              		.loc 1 928 0
 3803 0050 2046     		mov	r0, r4
 3804 0052 FFF7FEFF 		bl	Step_correction_t
 3805              	.LVL471:
 929:AS76.c        ****         Buffer_T_QuadPosition = T_QuadPosition;
 3806              		.loc 1 929 0
 3807 0056 FFF7FEFF 		bl	Read_All_Optical_Encoder
 3808              	.LVL472:
 930:AS76.c        ****         TMC5160_MotorT_EN_Write(0xFF);
 3809              		.loc 1 930 0
 3810 005a 6B69     		ldr	r3, [r5, #20]
ARM GAS  C:\Users\Revanth\AppData\Local\Temp\ccbqjHa5.s 			page 116


 3811 005c EB61     		str	r3, [r5, #28]
 931:AS76.c        ****         CyDelayUs (100);
 3812              		.loc 1 931 0
 3813 005e FF20     		movs	r0, #255
 3814 0060 FFF7FEFF 		bl	TMC5160_MotorT_EN_Write
 3815              	.LVL473:
 932:AS76.c        ****         return Error;
 3816              		.loc 1 932 0
 3817 0064 6420     		movs	r0, #100
 3818 0066 FFF7FEFF 		bl	CyDelayUs
 3819              	.LVL474:
 933:AS76.c        ****     }
 3820              		.loc 1 933 0
 3821 006a 686A     		ldr	r0, [r5, #36]
 3822 006c 38BD     		pop	{r3, r4, r5, pc}
 3823              	.LVL475:
 3824              	.L241:
 937:AS76.c        ****         Error = 32;
 3825              		.loc 1 937 0
 3826 006e 0A48     		ldr	r0, .L244+12
 3827 0070 FFF7FEFF 		bl	Write_Debug_UART_Char
 3828              	.LVL476:
 938:AS76.c        ****          TMC5160_MotorT_EN_Write(0xFF);
 3829              		.loc 1 938 0
 3830 0074 054C     		ldr	r4, .L244
 3831              	.LVL477:
 3832 0076 2023     		movs	r3, #32
 3833 0078 6362     		str	r3, [r4, #36]
 939:AS76.c        ****         CyDelayUs(100);
 3834              		.loc 1 939 0
 3835 007a FF20     		movs	r0, #255
 3836 007c FFF7FEFF 		bl	TMC5160_MotorT_EN_Write
 3837              	.LVL478:
 940:AS76.c        ****         return Error;
 3838              		.loc 1 940 0
 3839 0080 6420     		movs	r0, #100
 3840 0082 FFF7FEFF 		bl	CyDelayUs
 3841              	.LVL479:
 941:AS76.c        ****     }
 3842              		.loc 1 941 0
 3843 0086 606A     		ldr	r0, [r4, #36]
 944:AS76.c        **** 
 3844              		.loc 1 944 0
 3845 0088 38BD     		pop	{r3, r4, r5, pc}
 3846              	.L245:
 3847 008a 00BF     		.align	2
 3848              	.L244:
 3849 008c 00000000 		.word	.LANCHOR0
 3850 0090 64040000 		.word	.LC36
 3851 0094 10030000 		.word	.LC24
 3852 0098 18030000 		.word	.LC25
 3853              		.cfi_endproc
 3854              	.LFE76:
 3855              		.size	goTo_T, .-goTo_T
 3856              		.section	.text.goTo_XYZ,"ax",%progbits
 3857              		.align	2
 3858              		.global	goTo_XYZ
ARM GAS  C:\Users\Revanth\AppData\Local\Temp\ccbqjHa5.s 			page 117


 3859              		.thumb
 3860              		.thumb_func
 3861              		.type	goTo_XYZ, %function
 3862              	goTo_XYZ:
 3863              	.LFB78:
1012:AS76.c        ****     Read_All_Optical_Encoder();
 3864              		.loc 1 1012 0
 3865              		.cfi_startproc
 3866              		@ args = 0, pretend = 0, frame = 0
 3867              		@ frame_needed = 0, uses_anonymous_args = 0
 3868              	.LVL480:
 3869 0000 70B5     		push	{r4, r5, r6, lr}
 3870              		.cfi_def_cfa_offset 16
 3871              		.cfi_offset 4, -16
 3872              		.cfi_offset 5, -12
 3873              		.cfi_offset 6, -8
 3874              		.cfi_offset 14, -4
 3875 0002 0646     		mov	r6, r0
 3876 0004 0D46     		mov	r5, r1
 3877 0006 1446     		mov	r4, r2
1013:AS76.c        ****     //X_last_position = X_QuadPosition;
 3878              		.loc 1 1013 0
 3879 0008 FFF7FEFF 		bl	Read_All_Optical_Encoder
 3880              	.LVL481:
1015:AS76.c        ****     if(Position_X_Requested >= 0)
 3881              		.loc 1 1015 0
 3882 000c 2348     		ldr	r0, .L257
 3883 000e FFF7FEFF 		bl	Write_Debug_UART_Char
 3884              	.LVL482:
1016:AS76.c        ****     { 
 3885              		.loc 1 1016 0
 3886 0012 002E     		cmp	r6, #0
 3887 0014 03DB     		blt	.L247
1018:AS76.c        ****     }
 3888              		.loc 1 1018 0
 3889 0016 0021     		movs	r1, #0
 3890 0018 3046     		mov	r0, r6
 3891 001a FFF7FEFF 		bl	GotoPos
 3892              	.LVL483:
 3893              	.L247:
1020:AS76.c        ****     { 
 3894              		.loc 1 1020 0
 3895 001e 002D     		cmp	r5, #0
 3896 0020 03DB     		blt	.L248
1022:AS76.c        ****     }
 3897              		.loc 1 1022 0
 3898 0022 0121     		movs	r1, #1
 3899 0024 2846     		mov	r0, r5
 3900 0026 FFF7FEFF 		bl	GotoPos
 3901              	.LVL484:
 3902              	.L248:
1024:AS76.c        ****     { 
 3903              		.loc 1 1024 0
 3904 002a 002C     		cmp	r4, #0
 3905 002c 08DB     		blt	.L249
1026:AS76.c        ****     GotoPos(Position_Z_Requested, TMC5160_nCS_MotorZ);
 3906              		.loc 1 1026 0
ARM GAS  C:\Users\Revanth\AppData\Local\Temp\ccbqjHa5.s 			page 118


 3907 002e 1C4B     		ldr	r3, .L257+4
 3908 0030 9869     		ldr	r0, [r3, #24]
 3909 0032 4042     		negs	r0, r0
 3910 0034 FFF7FEFF 		bl	Enable_Encoder_Z
 3911              	.LVL485:
1027:AS76.c        ****     }
 3912              		.loc 1 1027 0
 3913 0038 0221     		movs	r1, #2
 3914 003a 2046     		mov	r0, r4
 3915 003c FFF7FEFF 		bl	GotoPos
 3916              	.LVL486:
 3917              	.L249:
1030:AS76.c        ****     {
 3918              		.loc 1 1030 0
 3919 0040 002E     		cmp	r6, #0
 3920 0042 02DB     		blt	.L250
1032:AS76.c        ****     }
 3921              		.loc 1 1032 0
 3922 0044 0020     		movs	r0, #0
 3923 0046 FFF7FEFF 		bl	WaitTillPositionReached
 3924              	.LVL487:
 3925              	.L250:
1034:AS76.c        ****     {
 3926              		.loc 1 1034 0
 3927 004a 002D     		cmp	r5, #0
 3928 004c 02DB     		blt	.L251
1036:AS76.c        ****     }
 3929              		.loc 1 1036 0
 3930 004e 0120     		movs	r0, #1
 3931 0050 FFF7FEFF 		bl	WaitTillPositionReached
 3932              	.LVL488:
 3933              	.L251:
1038:AS76.c        ****     {
 3934              		.loc 1 1038 0
 3935 0054 002C     		cmp	r4, #0
 3936 0056 02DB     		blt	.L252
1040:AS76.c        ****     }
 3937              		.loc 1 1040 0
 3938 0058 0220     		movs	r0, #2
 3939 005a FFF7FEFF 		bl	WaitTillPositionReached
 3940              	.LVL489:
 3941              	.L252:
1043:AS76.c        ****     {
 3942              		.loc 1 1043 0
 3943 005e 002E     		cmp	r6, #0
 3944 0060 02DB     		blt	.L253
1045:AS76.c        ****     //Read_All_Optical_Encoder();
 3945              		.loc 1 1045 0
 3946 0062 3046     		mov	r0, r6
 3947 0064 FFF7FEFF 		bl	Step_correction_x
 3948              	.LVL490:
 3949              	.L253:
1049:AS76.c        ****     {
 3950              		.loc 1 1049 0
 3951 0068 002D     		cmp	r5, #0
 3952 006a 02DB     		blt	.L254
1051:AS76.c        ****     //Read_All_Optical_Encoder();
ARM GAS  C:\Users\Revanth\AppData\Local\Temp\ccbqjHa5.s 			page 119


 3953              		.loc 1 1051 0
 3954 006c 2846     		mov	r0, r5
 3955 006e FFF7FEFF 		bl	Step_correction_y
 3956              	.LVL491:
 3957              	.L254:
1055:AS76.c        ****     {
 3958              		.loc 1 1055 0
 3959 0072 002C     		cmp	r4, #0
 3960 0074 07DB     		blt	.L255
1057:AS76.c        ****     Read_All_Optical_Encoder();
 3961              		.loc 1 1057 0
 3962 0076 2046     		mov	r0, r4
 3963 0078 FFF7FEFF 		bl	Step_correction_z
 3964              	.LVL492:
1058:AS76.c        ****     Buffer_Z_QuadPosition = Z_QuadPosition;
 3965              		.loc 1 1058 0
 3966 007c FFF7FEFF 		bl	Read_All_Optical_Encoder
 3967              	.LVL493:
1059:AS76.c        ****     }
 3968              		.loc 1 1059 0
 3969 0080 074B     		ldr	r3, .L257+4
 3970 0082 1A69     		ldr	r2, [r3, #16]
 3971 0084 9A61     		str	r2, [r3, #24]
 3972              	.L255:
1061:AS76.c        ****     Send_Feedback_to_USB(Error);
 3973              		.loc 1 1061 0
 3974 0086 FFF7FEFF 		bl	Read_All_Optical_Encoder
 3975              	.LVL494:
1062:AS76.c        ****     
 3976              		.loc 1 1062 0
 3977 008a 054B     		ldr	r3, .L257+4
 3978 008c 586A     		ldr	r0, [r3, #36]
 3979 008e FFF7FEFF 		bl	Send_Feedback_to_USB
 3980              	.LVL495:
1064:AS76.c        ****     return 0;  
 3981              		.loc 1 1064 0
 3982 0092 3220     		movs	r0, #50
 3983 0094 FFF7FEFF 		bl	CyDelayUs
 3984              	.LVL496:
1067:AS76.c        **** 
 3985              		.loc 1 1067 0
 3986 0098 0020     		movs	r0, #0
 3987 009a 70BD     		pop	{r4, r5, r6, pc}
 3988              	.LVL497:
 3989              	.L258:
 3990              		.align	2
 3991              	.L257:
 3992 009c F4020000 		.word	.LC23
 3993 00a0 00000000 		.word	.LANCHOR0
 3994              		.cfi_endproc
 3995              	.LFE78:
 3996              		.size	goTo_XYZ, .-goTo_XYZ
 3997              		.section	.text.update_max_velocity,"ax",%progbits
 3998              		.align	2
 3999              		.global	update_max_velocity
 4000              		.thumb
 4001              		.thumb_func
ARM GAS  C:\Users\Revanth\AppData\Local\Temp\ccbqjHa5.s 			page 120


 4002              		.type	update_max_velocity, %function
 4003              	update_max_velocity:
 4004              	.LFB108:
2294:AS76.c        **** 
2295:AS76.c        **** int update_max_velocity(int velocity, uint8_t Motor)
2296:AS76.c        **** {
 4005              		.loc 1 2296 0
 4006              		.cfi_startproc
 4007              		@ args = 0, pretend = 0, frame = 0
 4008              		@ frame_needed = 0, uses_anonymous_args = 0
 4009              	.LVL498:
 4010 0000 08B5     		push	{r3, lr}
 4011              		.cfi_def_cfa_offset 8
 4012              		.cfi_offset 3, -8
 4013              		.cfi_offset 14, -4
2297:AS76.c        ****     Write_32bitSPI_DATA (0x27  , (int) velocity, Motor); 
 4014              		.loc 1 2297 0
 4015 0002 0A46     		mov	r2, r1
 4016 0004 0146     		mov	r1, r0
 4017              	.LVL499:
 4018 0006 2720     		movs	r0, #39
 4019              	.LVL500:
 4020 0008 FFF7FEFF 		bl	Write_32bitSPI_DATA
 4021              	.LVL501:
2298:AS76.c        ****     return 0;
2299:AS76.c        **** }
 4022              		.loc 1 2299 0
 4023 000c 0020     		movs	r0, #0
 4024 000e 08BD     		pop	{r3, pc}
 4025              		.cfi_endproc
 4026              	.LFE108:
 4027              		.size	update_max_velocity, .-update_max_velocity
 4028              		.section	.text.homeX,"ax",%progbits
 4029              		.align	2
 4030              		.global	homeX
 4031              		.thumb
 4032              		.thumb_func
 4033              		.type	homeX, %function
 4034              	homeX:
 4035              	.LFB66:
 164:AS76.c        ****     Write_32bitSPI_DATA (0x10  , (int) 0x00070503, TMC5160_nCS_MotorX );
 4036              		.loc 1 164 0
 4037              		.cfi_startproc
 4038              		@ args = 0, pretend = 0, frame = 0
 4039              		@ frame_needed = 0, uses_anonymous_args = 0
 4040              	.LVL502:
 4041 0000 2DE9F843 		push	{r3, r4, r5, r6, r7, r8, r9, lr}
 4042              		.cfi_def_cfa_offset 32
 4043              		.cfi_offset 3, -32
 4044              		.cfi_offset 4, -28
 4045              		.cfi_offset 5, -24
 4046              		.cfi_offset 6, -20
 4047              		.cfi_offset 7, -16
 4048              		.cfi_offset 8, -12
 4049              		.cfi_offset 9, -8
 4050              		.cfi_offset 14, -4
 4051 0004 0446     		mov	r4, r0
ARM GAS  C:\Users\Revanth\AppData\Local\Temp\ccbqjHa5.s 			page 121


 165:AS76.c        ****     update_max_velocity((307200), Motor); // Set Motor to low speed
 4052              		.loc 1 165 0
 4053 0006 0022     		movs	r2, #0
 4054 0008 6449     		ldr	r1, .L266
 4055 000a 1020     		movs	r0, #16
 4056              	.LVL503:
 4057 000c FFF7FEFF 		bl	Write_32bitSPI_DATA
 4058              	.LVL504:
 166:AS76.c        ****     Write_32bitSPI_DATA (0x20  , (int) 0x00000002, Motor ); // Move the motor to Left continuously
 4059              		.loc 1 166 0
 4060 0010 2146     		mov	r1, r4
 4061 0012 4FF49620 		mov	r0, #307200
 4062 0016 FFF7FEFF 		bl	update_max_velocity
 4063              	.LVL505:
 167:AS76.c        ****     CyDelayUs(200);
 4064              		.loc 1 167 0
 4065 001a 2246     		mov	r2, r4
 4066 001c 0221     		movs	r1, #2
 4067 001e 2020     		movs	r0, #32
 4068 0020 FFF7FEFF 		bl	Write_32bitSPI_DATA
 4069              	.LVL506:
 168:AS76.c        ****     Read_32bitSPI_DATA(0x04, Motor, &status_x); // Read the status register of TMC5160
 4070              		.loc 1 168 0
 4071 0024 C820     		movs	r0, #200
 4072 0026 FFF7FEFF 		bl	CyDelayUs
 4073              	.LVL507:
 169:AS76.c        ****     CyDelayUs(500);
 4074              		.loc 1 169 0
 4075 002a 5D4D     		ldr	r5, .L266+4
 4076 002c 2A46     		mov	r2, r5
 4077 002e 2146     		mov	r1, r4
 4078 0030 0420     		movs	r0, #4
 4079 0032 FFF7FEFF 		bl	Read_32bitSPI_DATA
 4080              	.LVL508:
 170:AS76.c        ****     Read_32bitSPI_DATA(0x04, Motor, &status_x); // Read the status register of TMC5160
 4081              		.loc 1 170 0
 4082 0036 4FF4FA70 		mov	r0, #500
 4083 003a FFF7FEFF 		bl	CyDelayUs
 4084              	.LVL509:
 171:AS76.c        ****     while ( (status_x & 0x40) == 0x00) // Condition to check if the Left limit switch is pressed or
 4085              		.loc 1 171 0
 4086 003e 2A46     		mov	r2, r5
 4087 0040 2146     		mov	r1, r4
 4088 0042 0420     		movs	r0, #4
 4089 0044 FFF7FEFF 		bl	Read_32bitSPI_DATA
 4090              	.LVL510:
 172:AS76.c        ****     {
 4091              		.loc 1 172 0
 4092 0048 2AE0     		b	.L262
 4093              	.L264:
 174:AS76.c        ****        wait_interrupt_StartEx(wait_interrupt_Handler);
 4094              		.loc 1 174 0
 4095 004a FFF7FEFF 		bl	wait_timer_Start
 4096              	.LVL511:
 175:AS76.c        ****        Read_32bitSPI_DATA(0x04, Motor, &status_x); // Read the status register of TMC5160
 4097              		.loc 1 175 0
 4098 004e 5548     		ldr	r0, .L266+8
ARM GAS  C:\Users\Revanth\AppData\Local\Temp\ccbqjHa5.s 			page 122


 4099 0050 FFF7FEFF 		bl	wait_interrupt_StartEx
 4100              	.LVL512:
 176:AS76.c        ****        CyDelayUs(100);
 4101              		.loc 1 176 0
 4102 0054 524A     		ldr	r2, .L266+4
 4103 0056 2146     		mov	r1, r4
 4104 0058 0420     		movs	r0, #4
 4105 005a FFF7FEFF 		bl	Read_32bitSPI_DATA
 4106              	.LVL513:
 177:AS76.c        ****        if(exit_loop == 1)
 4107              		.loc 1 177 0
 4108 005e 6420     		movs	r0, #100
 4109 0060 FFF7FEFF 		bl	CyDelayUs
 4110              	.LVL514:
 178:AS76.c        ****        {
 4111              		.loc 1 178 0
 4112 0064 504B     		ldr	r3, .L266+12
 4113 0066 9B78     		ldrb	r3, [r3, #2]	@ zero_extendqisi2
 4114 0068 D3B1     		cbz	r3, .L262
 180:AS76.c        ****         Send_Feedback_to_USB(Error);
 4115              		.loc 1 180 0
 4116 006a 4F4D     		ldr	r5, .L266+12
 4117 006c 0420     		movs	r0, #4
 4118 006e 6862     		str	r0, [r5, #36]
 181:AS76.c        ****         wait_timer_Stop();
 4119              		.loc 1 181 0
 4120 0070 FFF7FEFF 		bl	Send_Feedback_to_USB
 4121              	.LVL515:
 182:AS76.c        ****         Write_32bitSPI_DATA (0x20  , (int) 0x00000000, Motor );
 4122              		.loc 1 182 0
 4123 0074 FFF7FEFF 		bl	wait_timer_Stop
 4124              	.LVL516:
 183:AS76.c        ****         Write_32bitSPI_DATA (0x21  , (int) 0x0000000, Motor); // Mark the current postion as 0
 4125              		.loc 1 183 0
 4126 0078 2246     		mov	r2, r4
 4127 007a 0021     		movs	r1, #0
 4128 007c 2020     		movs	r0, #32
 4129 007e FFF7FEFF 		bl	Write_32bitSPI_DATA
 4130              	.LVL517:
 184:AS76.c        ****         Write_32bitSPI_DATA (0x2D  , 0x00000000, Motor ); // Set thye target position as 0
 4131              		.loc 1 184 0
 4132 0082 2246     		mov	r2, r4
 4133 0084 0021     		movs	r1, #0
 4134 0086 2120     		movs	r0, #33
 4135 0088 FFF7FEFF 		bl	Write_32bitSPI_DATA
 4136              	.LVL518:
 185:AS76.c        ****         exit_loop = 0;
 4137              		.loc 1 185 0
 4138 008c 2246     		mov	r2, r4
 4139 008e 0021     		movs	r1, #0
 4140 0090 2D20     		movs	r0, #45
 4141 0092 FFF7FEFF 		bl	Write_32bitSPI_DATA
 4142              	.LVL519:
 186:AS76.c        ****         Error =0;
 4143              		.loc 1 186 0
 4144 0096 0023     		movs	r3, #0
 4145 0098 AB70     		strb	r3, [r5, #2]
ARM GAS  C:\Users\Revanth\AppData\Local\Temp\ccbqjHa5.s 			page 123


 187:AS76.c        ****         return;        
 4146              		.loc 1 187 0
 4147 009a 6B62     		str	r3, [r5, #36]
 188:AS76.c        ****     }
 4148              		.loc 1 188 0
 4149 009c BDE8F883 		pop	{r3, r4, r5, r6, r7, r8, r9, pc}
 4150              	.L262:
 172:AS76.c        ****     {
 4151              		.loc 1 172 0
 4152 00a0 3F4B     		ldr	r3, .L266+4
 4153 00a2 1B78     		ldrb	r3, [r3]	@ zero_extendqisi2
 4154 00a4 13F0400F 		tst	r3, #64
 4155 00a8 CFD0     		beq	.L264
 191:AS76.c        ****     exit_loop =0;
 4156              		.loc 1 191 0
 4157 00aa FFF7FEFF 		bl	wait_timer_Stop
 4158              	.LVL520:
 192:AS76.c        ****     
 4159              		.loc 1 192 0
 4160 00ae DFF8F880 		ldr	r8, .L266+12
 4161 00b2 0025     		movs	r5, #0
 4162 00b4 88F80250 		strb	r5, [r8, #2]
 195:AS76.c        ****     CyDelayUs(10);
 4163              		.loc 1 195 0
 4164 00b8 2246     		mov	r2, r4
 4165 00ba 2946     		mov	r1, r5
 4166 00bc 2120     		movs	r0, #33
 4167 00be FFF7FEFF 		bl	Write_32bitSPI_DATA
 4168              	.LVL521:
 196:AS76.c        ****     /*
 4169              		.loc 1 196 0
 4170 00c2 0A20     		movs	r0, #10
 4171 00c4 FFF7FEFF 		bl	CyDelayUs
 4172              	.LVL522:
 226:AS76.c        ****     //X_last_position = 0;
 4173              		.loc 1 226 0
 4174 00c8 2246     		mov	r2, r4
 4175 00ca 2946     		mov	r1, r5
 4176 00cc 2120     		movs	r0, #33
 4177 00ce FFF7FEFF 		bl	Write_32bitSPI_DATA
 4178              	.LVL523:
 228:AS76.c        ****     HomeX_done = true;
 4179              		.loc 1 228 0
 4180 00d2 2846     		mov	r0, r5
 4181 00d4 FFF7FEFF 		bl	QuadDec_X_SetCounter
 4182              	.LVL524:
 229:AS76.c        ****     HomeY_done = true;
 4183              		.loc 1 229 0
 4184 00d8 344E     		ldr	r6, .L266+16
 4185 00da 0127     		movs	r7, #1
 4186 00dc 86F82170 		strb	r7, [r6, #33]
 230:AS76.c        ****     HomeZ_done = true;
 4187              		.loc 1 230 0
 4188 00e0 86F82070 		strb	r7, [r6, #32]
 231:AS76.c        ****     HomeT_done = true;
 4189              		.loc 1 231 0
 4190 00e4 86F82270 		strb	r7, [r6, #34]
ARM GAS  C:\Users\Revanth\AppData\Local\Temp\ccbqjHa5.s 			page 124


 232:AS76.c        ****     CyDelayUs(100);
 4191              		.loc 1 232 0
 4192 00e8 86F82870 		strb	r7, [r6, #40]
 233:AS76.c        ****     goTo_X((256*200)*1); // Move the motor 1 rotation with error corrction mechanism based on encod
 4193              		.loc 1 233 0
 4194 00ec 6420     		movs	r0, #100
 4195 00ee FFF7FEFF 		bl	CyDelayUs
 4196              	.LVL525:
 234:AS76.c        ****     HomeX_done = HomeX_done_Buffer;
 4197              		.loc 1 234 0
 4198 00f2 4FF44840 		mov	r0, #51200
 4199 00f6 FFF7FEFF 		bl	goTo_X
 4200              	.LVL526:
 235:AS76.c        ****     HomeY_done = HomeY_done_Buffer;
 4201              		.loc 1 235 0
 4202 00fa 98F82930 		ldrb	r3, [r8, #41]	@ zero_extendqisi2
 4203 00fe 86F82130 		strb	r3, [r6, #33]
 236:AS76.c        ****     HomeZ_done = HomeZ_done_Buffer;
 4204              		.loc 1 236 0
 4205 0102 98F82A30 		ldrb	r3, [r8, #42]	@ zero_extendqisi2
 4206 0106 86F82030 		strb	r3, [r6, #32]
 237:AS76.c        ****     HomeT_done = HomeT_done_Buffer;
 4207              		.loc 1 237 0
 4208 010a 98F82B30 		ldrb	r3, [r8, #43]	@ zero_extendqisi2
 4209 010e 86F82230 		strb	r3, [r6, #34]
 238:AS76.c        ****     CyDelayUs(100);
 4210              		.loc 1 238 0
 4211 0112 98F82C30 		ldrb	r3, [r8, #44]	@ zero_extendqisi2
 4212 0116 86F82830 		strb	r3, [r6, #40]
 239:AS76.c        ****     Write_32bitSPI_DATA (0x21  , (int) 0x0000000, Motor); // Mark the current postion as 0
 4213              		.loc 1 239 0
 4214 011a 6420     		movs	r0, #100
 4215 011c FFF7FEFF 		bl	CyDelayUs
 4216              	.LVL527:
 240:AS76.c        ****     Write_32bitSPI_DATA (0x2D  , 0x00000000, Motor ); // Set thye target position as 0
 4217              		.loc 1 240 0
 4218 0120 2246     		mov	r2, r4
 4219 0122 2946     		mov	r1, r5
 4220 0124 2120     		movs	r0, #33
 4221 0126 FFF7FEFF 		bl	Write_32bitSPI_DATA
 4222              	.LVL528:
 241:AS76.c        ****     update_max_velocity(381178, Motor); // update the motor speed to to 10 rotations per second 536
 4223              		.loc 1 241 0
 4224 012a 2246     		mov	r2, r4
 4225 012c 2946     		mov	r1, r5
 4226 012e 2D20     		movs	r0, #45
 4227 0130 FFF7FEFF 		bl	Write_32bitSPI_DATA
 4228              	.LVL529:
 242:AS76.c        ****     Write_32bitSPI_DATA (0x0B  , (int) 150, Motor );
 4229              		.loc 1 242 0
 4230 0134 2146     		mov	r1, r4
 4231 0136 1E48     		ldr	r0, .L266+20
 4232 0138 FFF7FEFF 		bl	update_max_velocity
 4233              	.LVL530:
 243:AS76.c        ****     Write_32bitSPI_DATA (0x10  , (int) 0x00070101, Motor );
 4234              		.loc 1 243 0
 4235 013c 2246     		mov	r2, r4
ARM GAS  C:\Users\Revanth\AppData\Local\Temp\ccbqjHa5.s 			page 125


 4236 013e 9621     		movs	r1, #150
 4237 0140 0B20     		movs	r0, #11
 4238 0142 FFF7FEFF 		bl	Write_32bitSPI_DATA
 4239              	.LVL531:
 244:AS76.c        ****     //Write_32bitSPI_DATA (0x25  , (51200*5)-100, Motor );
 4240              		.loc 1 244 0
 4241 0146 DFF87490 		ldr	r9, .L266+32
 4242 014a 2246     		mov	r2, r4
 4243 014c 4946     		mov	r1, r9
 4244 014e 1020     		movs	r0, #16
 4245 0150 FFF7FEFF 		bl	Write_32bitSPI_DATA
 4246              	.LVL532:
 248:AS76.c        ****     X_QuadPosition =0 ; // set the encoder variable to 0
 4247              		.loc 1 248 0
 4248 0154 2846     		mov	r0, r5
 4249 0156 FFF7FEFF 		bl	QuadDec_X_SetCounter
 4250              	.LVL533:
 249:AS76.c        ****     HomeX_done = true;
 4251              		.loc 1 249 0
 4252 015a C8F80850 		str	r5, [r8, #8]
 250:AS76.c        ****     HomeX_done_Buffer = true;
 4253              		.loc 1 250 0
 4254 015e 86F82170 		strb	r7, [r6, #33]
 251:AS76.c        ****     Write_Debug_UART_Char("HomeX executed  \r\n");
 4255              		.loc 1 251 0
 4256 0162 88F82970 		strb	r7, [r8, #41]
 252:AS76.c        ****     Write_32bitSPI_DATA (0x10  , (int) 0x00070103, TMC5160_nCS_MotorY );
 4257              		.loc 1 252 0
 4258 0166 1348     		ldr	r0, .L266+24
 4259 0168 FFF7FEFF 		bl	Write_Debug_UART_Char
 4260              	.LVL534:
 253:AS76.c        ****     Write_32bitSPI_DATA (0x10  , (int) 0x00070101, TMC5160_nCS_MotorZ );
 4261              		.loc 1 253 0
 4262 016c 124C     		ldr	r4, .L266+28
 4263 016e 3A46     		mov	r2, r7
 4264 0170 2146     		mov	r1, r4
 4265 0172 1020     		movs	r0, #16
 4266 0174 FFF7FEFF 		bl	Write_32bitSPI_DATA
 4267              	.LVL535:
 254:AS76.c        ****     Write_32bitSPI_DATA (0x10  , (int) 0x00070103, TMC5160_nCS_MotorX );
 4268              		.loc 1 254 0
 4269 0178 0222     		movs	r2, #2
 4270 017a 4946     		mov	r1, r9
 4271 017c 1020     		movs	r0, #16
 4272 017e FFF7FEFF 		bl	Write_32bitSPI_DATA
 4273              	.LVL536:
 255:AS76.c        ****     Write_32bitSPI_DATA (0x10  , (int) 0x00070103, TMC5160_nCS_MotorT ); 
 4274              		.loc 1 255 0
 4275 0182 2A46     		mov	r2, r5
 4276 0184 2146     		mov	r1, r4
 4277 0186 1020     		movs	r0, #16
 4278 0188 FFF7FEFF 		bl	Write_32bitSPI_DATA
 4279              	.LVL537:
 256:AS76.c        **** 
 4280              		.loc 1 256 0
 4281 018c 0322     		movs	r2, #3
 4282 018e 2146     		mov	r1, r4
ARM GAS  C:\Users\Revanth\AppData\Local\Temp\ccbqjHa5.s 			page 126


 4283 0190 1020     		movs	r0, #16
 4284 0192 FFF7FEFF 		bl	Write_32bitSPI_DATA
 4285              	.LVL538:
 4286 0196 BDE8F883 		pop	{r3, r4, r5, r6, r7, r8, r9, pc}
 4287              	.L267:
 4288 019a 00BF     		.align	2
 4289              	.L266:
 4290 019c 03050700 		.word	460035
 4291 01a0 00000000 		.word	status_x
 4292 01a4 00000000 		.word	wait_interrupt_Handler
 4293 01a8 00000000 		.word	.LANCHOR0
 4294 01ac 00000000 		.word	.LANCHOR1
 4295 01b0 FAD00500 		.word	381178
 4296 01b4 80040000 		.word	.LC37
 4297 01b8 03010700 		.word	459011
 4298 01bc 01010700 		.word	459009
 4299              		.cfi_endproc
 4300              	.LFE66:
 4301              		.size	homeX, .-homeX
 4302              		.section	.text.homeY,"ax",%progbits
 4303              		.align	2
 4304              		.global	homeY
 4305              		.thumb
 4306              		.thumb_func
 4307              		.type	homeY, %function
 4308              	homeY:
 4309              	.LFB67:
 296:AS76.c        ****     Write_32bitSPI_DATA (0x10  , (int) 0x00070203, TMC5160_nCS_MotorY );
 4310              		.loc 1 296 0
 4311              		.cfi_startproc
 4312              		@ args = 0, pretend = 0, frame = 0
 4313              		@ frame_needed = 0, uses_anonymous_args = 0
 4314              	.LVL539:
 4315 0000 2DE9F843 		push	{r3, r4, r5, r6, r7, r8, r9, lr}
 4316              		.cfi_def_cfa_offset 32
 4317              		.cfi_offset 3, -32
 4318              		.cfi_offset 4, -28
 4319              		.cfi_offset 5, -24
 4320              		.cfi_offset 6, -20
 4321              		.cfi_offset 7, -16
 4322              		.cfi_offset 8, -12
 4323              		.cfi_offset 9, -8
 4324              		.cfi_offset 14, -4
 4325 0004 0446     		mov	r4, r0
 297:AS76.c        ****     update_max_velocity((307200), Motor);
 4326              		.loc 1 297 0
 4327 0006 0122     		movs	r2, #1
 4328 0008 6449     		ldr	r1, .L274
 4329 000a 1020     		movs	r0, #16
 4330              	.LVL540:
 4331 000c FFF7FEFF 		bl	Write_32bitSPI_DATA
 4332              	.LVL541:
 298:AS76.c        ****     Write_32bitSPI_DATA (0x20  , (int) 0x00000002, Motor );
 4333              		.loc 1 298 0
 4334 0010 2146     		mov	r1, r4
 4335 0012 4FF49620 		mov	r0, #307200
 4336 0016 FFF7FEFF 		bl	update_max_velocity
ARM GAS  C:\Users\Revanth\AppData\Local\Temp\ccbqjHa5.s 			page 127


 4337              	.LVL542:
 299:AS76.c        ****     CyDelayUs(50);
 4338              		.loc 1 299 0
 4339 001a 2246     		mov	r2, r4
 4340 001c 0221     		movs	r1, #2
 4341 001e 2020     		movs	r0, #32
 4342 0020 FFF7FEFF 		bl	Write_32bitSPI_DATA
 4343              	.LVL543:
 300:AS76.c        ****     Read_32bitSPI_DATA(0x04, Motor, &status_y);
 4344              		.loc 1 300 0
 4345 0024 3220     		movs	r0, #50
 4346 0026 FFF7FEFF 		bl	CyDelayUs
 4347              	.LVL544:
 301:AS76.c        ****     CyDelayUs(500);
 4348              		.loc 1 301 0
 4349 002a 5D4D     		ldr	r5, .L274+4
 4350 002c 2A46     		mov	r2, r5
 4351 002e 2146     		mov	r1, r4
 4352 0030 0420     		movs	r0, #4
 4353 0032 FFF7FEFF 		bl	Read_32bitSPI_DATA
 4354              	.LVL545:
 302:AS76.c        ****     Read_32bitSPI_DATA(0x04, Motor, &status_y);
 4355              		.loc 1 302 0
 4356 0036 4FF4FA70 		mov	r0, #500
 4357 003a FFF7FEFF 		bl	CyDelayUs
 4358              	.LVL546:
 303:AS76.c        ****     while ( (status_y & 0x40) == 0x00)
 4359              		.loc 1 303 0
 4360 003e 2A46     		mov	r2, r5
 4361 0040 2146     		mov	r1, r4
 4362 0042 0420     		movs	r0, #4
 4363 0044 FFF7FEFF 		bl	Read_32bitSPI_DATA
 4364              	.LVL547:
 304:AS76.c        ****     {
 4365              		.loc 1 304 0
 4366 0048 2AE0     		b	.L269
 4367              	.L272:
 306:AS76.c        ****         wait_interrupt_StartEx(wait_interrupt_Handler);
 4368              		.loc 1 306 0
 4369 004a FFF7FEFF 		bl	wait_timer_Start
 4370              	.LVL548:
 307:AS76.c        ****         Read_32bitSPI_DATA(0x04, Motor, &status_y);
 4371              		.loc 1 307 0
 4372 004e 5548     		ldr	r0, .L274+8
 4373 0050 FFF7FEFF 		bl	wait_interrupt_StartEx
 4374              	.LVL549:
 308:AS76.c        ****        
 4375              		.loc 1 308 0
 4376 0054 524A     		ldr	r2, .L274+4
 4377 0056 2146     		mov	r1, r4
 4378 0058 0420     		movs	r0, #4
 4379 005a FFF7FEFF 		bl	Read_32bitSPI_DATA
 4380              	.LVL550:
 310:AS76.c        ****         {
 4381              		.loc 1 310 0
 4382 005e 524B     		ldr	r3, .L274+12
 4383 0060 9B78     		ldrb	r3, [r3, #2]	@ zero_extendqisi2
ARM GAS  C:\Users\Revanth\AppData\Local\Temp\ccbqjHa5.s 			page 128


 4384 0062 D3B1     		cbz	r3, .L270
 312:AS76.c        ****         Send_Feedback_to_USB(Error);
 4385              		.loc 1 312 0
 4386 0064 504D     		ldr	r5, .L274+12
 4387 0066 0B20     		movs	r0, #11
 4388 0068 6862     		str	r0, [r5, #36]
 313:AS76.c        ****         wait_timer_Stop();
 4389              		.loc 1 313 0
 4390 006a FFF7FEFF 		bl	Send_Feedback_to_USB
 4391              	.LVL551:
 314:AS76.c        ****         Write_32bitSPI_DATA (0x20  , (int) 0x00000000, Motor );
 4392              		.loc 1 314 0
 4393 006e FFF7FEFF 		bl	wait_timer_Stop
 4394              	.LVL552:
 315:AS76.c        ****         Write_32bitSPI_DATA (0x21  , (int) 0x0000000, Motor); // Mark the current postion as 0
 4395              		.loc 1 315 0
 4396 0072 2246     		mov	r2, r4
 4397 0074 0021     		movs	r1, #0
 4398 0076 2020     		movs	r0, #32
 4399 0078 FFF7FEFF 		bl	Write_32bitSPI_DATA
 4400              	.LVL553:
 316:AS76.c        ****         Write_32bitSPI_DATA (0x2D  , 0x00000000, Motor ); // Set thye target position as 0
 4401              		.loc 1 316 0
 4402 007c 2246     		mov	r2, r4
 4403 007e 0021     		movs	r1, #0
 4404 0080 2120     		movs	r0, #33
 4405 0082 FFF7FEFF 		bl	Write_32bitSPI_DATA
 4406              	.LVL554:
 317:AS76.c        ****         exit_loop = 0;
 4407              		.loc 1 317 0
 4408 0086 2246     		mov	r2, r4
 4409 0088 0021     		movs	r1, #0
 4410 008a 2D20     		movs	r0, #45
 4411 008c FFF7FEFF 		bl	Write_32bitSPI_DATA
 4412              	.LVL555:
 318:AS76.c        ****         Error = 0;
 4413              		.loc 1 318 0
 4414 0090 0023     		movs	r3, #0
 4415 0092 AB70     		strb	r3, [r5, #2]
 319:AS76.c        ****         return;
 4416              		.loc 1 319 0
 4417 0094 6B62     		str	r3, [r5, #36]
 320:AS76.c        ****         }
 4418              		.loc 1 320 0
 4419 0096 BDE8F883 		pop	{r3, r4, r5, r6, r7, r8, r9, pc}
 4420              	.L270:
 322:AS76.c        ****     }
 4421              		.loc 1 322 0
 4422 009a 6420     		movs	r0, #100
 4423 009c FFF7FEFF 		bl	CyDelayUs
 4424              	.LVL556:
 4425              	.L269:
 304:AS76.c        ****     {
 4426              		.loc 1 304 0
 4427 00a0 3F4B     		ldr	r3, .L274+4
 4428 00a2 1B78     		ldrb	r3, [r3]	@ zero_extendqisi2
 4429 00a4 13F0400F 		tst	r3, #64
ARM GAS  C:\Users\Revanth\AppData\Local\Temp\ccbqjHa5.s 			page 129


 4430 00a8 CFD0     		beq	.L272
 324:AS76.c        ****     exit_loop =0;
 4431              		.loc 1 324 0
 4432 00aa FFF7FEFF 		bl	wait_timer_Stop
 4433              	.LVL557:
 325:AS76.c        ****     
 4434              		.loc 1 325 0
 4435 00ae DFF8F880 		ldr	r8, .L274+12
 4436 00b2 0025     		movs	r5, #0
 4437 00b4 88F80250 		strb	r5, [r8, #2]
 328:AS76.c        ****     CyDelayUs(10);
 4438              		.loc 1 328 0
 4439 00b8 2246     		mov	r2, r4
 4440 00ba 2946     		mov	r1, r5
 4441 00bc 2120     		movs	r0, #33
 4442 00be FFF7FEFF 		bl	Write_32bitSPI_DATA
 4443              	.LVL558:
 329:AS76.c        ****     /*
 4444              		.loc 1 329 0
 4445 00c2 0A20     		movs	r0, #10
 4446 00c4 FFF7FEFF 		bl	CyDelayUs
 4447              	.LVL559:
 357:AS76.c        ****     //Y_last_position = 0;
 4448              		.loc 1 357 0
 4449 00c8 2246     		mov	r2, r4
 4450 00ca 2946     		mov	r1, r5
 4451 00cc 2120     		movs	r0, #33
 4452 00ce FFF7FEFF 		bl	Write_32bitSPI_DATA
 4453              	.LVL560:
 359:AS76.c        ****     HomeX_done = true;
 4454              		.loc 1 359 0
 4455 00d2 2846     		mov	r0, r5
 4456 00d4 FFF7FEFF 		bl	QuadDec_Y_SetCounter
 4457              	.LVL561:
 360:AS76.c        ****     HomeY_done = true;
 4458              		.loc 1 360 0
 4459 00d8 344E     		ldr	r6, .L274+16
 4460 00da 0127     		movs	r7, #1
 4461 00dc 86F82170 		strb	r7, [r6, #33]
 361:AS76.c        ****     HomeZ_done = true;
 4462              		.loc 1 361 0
 4463 00e0 86F82070 		strb	r7, [r6, #32]
 362:AS76.c        ****     HomeT_done = true;
 4464              		.loc 1 362 0
 4465 00e4 86F82270 		strb	r7, [r6, #34]
 363:AS76.c        ****     CyDelayUs(100);
 4466              		.loc 1 363 0
 4467 00e8 86F82870 		strb	r7, [r6, #40]
 364:AS76.c        ****     //goTo_Y((256*200)*1);
 4468              		.loc 1 364 0
 4469 00ec 6420     		movs	r0, #100
 4470 00ee FFF7FEFF 		bl	CyDelayUs
 4471              	.LVL562:
 366:AS76.c        ****     HomeX_done = HomeX_done_Buffer;
 4472              		.loc 1 366 0
 4473 00f2 4FF49640 		mov	r0, #19200
 4474 00f6 FFF7FEFF 		bl	goTo_Y
ARM GAS  C:\Users\Revanth\AppData\Local\Temp\ccbqjHa5.s 			page 130


 4475              	.LVL563:
 367:AS76.c        ****     HomeY_done = HomeY_done_Buffer;
 4476              		.loc 1 367 0
 4477 00fa 98F82930 		ldrb	r3, [r8, #41]	@ zero_extendqisi2
 4478 00fe 86F82130 		strb	r3, [r6, #33]
 368:AS76.c        ****     HomeZ_done = HomeZ_done_Buffer;
 4479              		.loc 1 368 0
 4480 0102 98F82A30 		ldrb	r3, [r8, #42]	@ zero_extendqisi2
 4481 0106 86F82030 		strb	r3, [r6, #32]
 369:AS76.c        ****     HomeT_done = HomeT_done_Buffer;
 4482              		.loc 1 369 0
 4483 010a 98F82B30 		ldrb	r3, [r8, #43]	@ zero_extendqisi2
 4484 010e 86F82230 		strb	r3, [r6, #34]
 370:AS76.c        ****     CyDelayUs(100);
 4485              		.loc 1 370 0
 4486 0112 98F82C30 		ldrb	r3, [r8, #44]	@ zero_extendqisi2
 4487 0116 86F82830 		strb	r3, [r6, #40]
 371:AS76.c        ****     Write_32bitSPI_DATA (0x21  , (int) 0x0000000, Motor); 
 4488              		.loc 1 371 0
 4489 011a 6420     		movs	r0, #100
 4490 011c FFF7FEFF 		bl	CyDelayUs
 4491              	.LVL564:
 372:AS76.c        ****     Write_32bitSPI_DATA (0x2D  , 0x00000000, Motor );
 4492              		.loc 1 372 0
 4493 0120 2246     		mov	r2, r4
 4494 0122 2946     		mov	r1, r5
 4495 0124 2120     		movs	r0, #33
 4496 0126 FFF7FEFF 		bl	Write_32bitSPI_DATA
 4497              	.LVL565:
 373:AS76.c        ****     update_max_velocity(381178, Motor);
 4498              		.loc 1 373 0
 4499 012a 2246     		mov	r2, r4
 4500 012c 2946     		mov	r1, r5
 4501 012e 2D20     		movs	r0, #45
 4502 0130 FFF7FEFF 		bl	Write_32bitSPI_DATA
 4503              	.LVL566:
 374:AS76.c        ****     Write_32bitSPI_DATA (0x0B  , 0, Motor );
 4504              		.loc 1 374 0
 4505 0134 2146     		mov	r1, r4
 4506 0136 1E48     		ldr	r0, .L274+20
 4507 0138 FFF7FEFF 		bl	update_max_velocity
 4508              	.LVL567:
 375:AS76.c        ****     Write_32bitSPI_DATA (0x10  , (int) 0x00070101, Motor );
 4509              		.loc 1 375 0
 4510 013c 2246     		mov	r2, r4
 4511 013e 2946     		mov	r1, r5
 4512 0140 0B20     		movs	r0, #11
 4513 0142 FFF7FEFF 		bl	Write_32bitSPI_DATA
 4514              	.LVL568:
 376:AS76.c        ****     //Write_32bitSPI_DATA (0x25  , (51200*5)-100, Motor );
 4515              		.loc 1 376 0
 4516 0146 DFF87490 		ldr	r9, .L274+32
 4517 014a 2246     		mov	r2, r4
 4518 014c 4946     		mov	r1, r9
 4519 014e 1020     		movs	r0, #16
 4520 0150 FFF7FEFF 		bl	Write_32bitSPI_DATA
 4521              	.LVL569:
ARM GAS  C:\Users\Revanth\AppData\Local\Temp\ccbqjHa5.s 			page 131


 380:AS76.c        ****     X_QuadPosition =0 ;
 4522              		.loc 1 380 0
 4523 0154 2846     		mov	r0, r5
 4524 0156 FFF7FEFF 		bl	QuadDec_Y_SetCounter
 4525              	.LVL570:
 381:AS76.c        ****     HomeY_done = true;
 4526              		.loc 1 381 0
 4527 015a C8F80850 		str	r5, [r8, #8]
 382:AS76.c        ****     HomeY_done_Buffer = true;
 4528              		.loc 1 382 0
 4529 015e 86F82070 		strb	r7, [r6, #32]
 383:AS76.c        ****     Write_Debug_UART_Char("HomeY executed  \r\n");
 4530              		.loc 1 383 0
 4531 0162 88F82A70 		strb	r7, [r8, #42]
 384:AS76.c        ****     Write_32bitSPI_DATA (0x10  , (int) 0x00070103, TMC5160_nCS_MotorY );
 4532              		.loc 1 384 0
 4533 0166 1348     		ldr	r0, .L274+24
 4534 0168 FFF7FEFF 		bl	Write_Debug_UART_Char
 4535              	.LVL571:
 385:AS76.c        ****     Write_32bitSPI_DATA (0x10  , (int) 0x00070101, TMC5160_nCS_MotorZ );
 4536              		.loc 1 385 0
 4537 016c 124C     		ldr	r4, .L274+28
 4538 016e 3A46     		mov	r2, r7
 4539 0170 2146     		mov	r1, r4
 4540 0172 1020     		movs	r0, #16
 4541 0174 FFF7FEFF 		bl	Write_32bitSPI_DATA
 4542              	.LVL572:
 386:AS76.c        ****     Write_32bitSPI_DATA (0x10  , (int) 0x00070103, TMC5160_nCS_MotorX );
 4543              		.loc 1 386 0
 4544 0178 0222     		movs	r2, #2
 4545 017a 4946     		mov	r1, r9
 4546 017c 1020     		movs	r0, #16
 4547 017e FFF7FEFF 		bl	Write_32bitSPI_DATA
 4548              	.LVL573:
 387:AS76.c        ****     Write_32bitSPI_DATA (0x10  , (int) 0x00070103, TMC5160_nCS_MotorT ); 
 4549              		.loc 1 387 0
 4550 0182 2A46     		mov	r2, r5
 4551 0184 2146     		mov	r1, r4
 4552 0186 1020     		movs	r0, #16
 4553 0188 FFF7FEFF 		bl	Write_32bitSPI_DATA
 4554              	.LVL574:
 388:AS76.c        **** 
 4555              		.loc 1 388 0
 4556 018c 0322     		movs	r2, #3
 4557 018e 2146     		mov	r1, r4
 4558 0190 1020     		movs	r0, #16
 4559 0192 FFF7FEFF 		bl	Write_32bitSPI_DATA
 4560              	.LVL575:
 4561 0196 BDE8F883 		pop	{r3, r4, r5, r6, r7, r8, r9, pc}
 4562              	.L275:
 4563 019a 00BF     		.align	2
 4564              	.L274:
 4565 019c 03020700 		.word	459267
 4566 01a0 00000000 		.word	status_y
 4567 01a4 00000000 		.word	wait_interrupt_Handler
 4568 01a8 00000000 		.word	.LANCHOR0
 4569 01ac 00000000 		.word	.LANCHOR1
ARM GAS  C:\Users\Revanth\AppData\Local\Temp\ccbqjHa5.s 			page 132


 4570 01b0 FAD00500 		.word	381178
 4571 01b4 94040000 		.word	.LC38
 4572 01b8 03010700 		.word	459011
 4573 01bc 01010700 		.word	459009
 4574              		.cfi_endproc
 4575              	.LFE67:
 4576              		.size	homeY, .-homeY
 4577              		.section	.text.homeZ,"ax",%progbits
 4578              		.align	2
 4579              		.global	homeZ
 4580              		.thumb
 4581              		.thumb_func
 4582              		.type	homeZ, %function
 4583              	homeZ:
 4584              	.LFB68:
 428:AS76.c        ****     Write_32bitSPI_DATA (0x10  , (int) 0x00070203, TMC5160_nCS_MotorZ );
 4585              		.loc 1 428 0
 4586              		.cfi_startproc
 4587              		@ args = 0, pretend = 0, frame = 0
 4588              		@ frame_needed = 0, uses_anonymous_args = 0
 4589              	.LVL576:
 4590 0000 2DE9F041 		push	{r4, r5, r6, r7, r8, lr}
 4591              		.cfi_def_cfa_offset 24
 4592              		.cfi_offset 4, -24
 4593              		.cfi_offset 5, -20
 4594              		.cfi_offset 6, -16
 4595              		.cfi_offset 7, -12
 4596              		.cfi_offset 8, -8
 4597              		.cfi_offset 14, -4
 4598 0004 0446     		mov	r4, r0
 429:AS76.c        ****     update_max_velocity((53687*2), Motor);
 4599              		.loc 1 429 0
 4600 0006 0222     		movs	r2, #2
 4601 0008 6149     		ldr	r1, .L282
 4602 000a 1020     		movs	r0, #16
 4603              	.LVL577:
 4604 000c FFF7FEFF 		bl	Write_32bitSPI_DATA
 4605              	.LVL578:
 430:AS76.c        ****     Enable_Encoder_Z(-Buffer_Z_QuadPosition);
 4606              		.loc 1 430 0
 4607 0010 2146     		mov	r1, r4
 4608 0012 6048     		ldr	r0, .L282+4
 4609 0014 FFF7FEFF 		bl	update_max_velocity
 4610              	.LVL579:
 431:AS76.c        ****     Write_32bitSPI_DATA (0x20  , (int) 0x00000002, Motor );
 4611              		.loc 1 431 0
 4612 0018 5F4B     		ldr	r3, .L282+8
 4613 001a 9869     		ldr	r0, [r3, #24]
 4614 001c 4042     		negs	r0, r0
 4615 001e FFF7FEFF 		bl	Enable_Encoder_Z
 4616              	.LVL580:
 432:AS76.c        ****     CyDelayUs(50);
 4617              		.loc 1 432 0
 4618 0022 2246     		mov	r2, r4
 4619 0024 0221     		movs	r1, #2
 4620 0026 2020     		movs	r0, #32
 4621 0028 FFF7FEFF 		bl	Write_32bitSPI_DATA
ARM GAS  C:\Users\Revanth\AppData\Local\Temp\ccbqjHa5.s 			page 133


 4622              	.LVL581:
 433:AS76.c        ****     Read_32bitSPI_DATA(0x04, Motor, &status_z);
 4623              		.loc 1 433 0
 4624 002c 3220     		movs	r0, #50
 4625 002e FFF7FEFF 		bl	CyDelayUs
 4626              	.LVL582:
 434:AS76.c        ****     CyDelayUs(500);
 4627              		.loc 1 434 0
 4628 0032 5A4D     		ldr	r5, .L282+12
 4629 0034 2A46     		mov	r2, r5
 4630 0036 2146     		mov	r1, r4
 4631 0038 0420     		movs	r0, #4
 4632 003a FFF7FEFF 		bl	Read_32bitSPI_DATA
 4633              	.LVL583:
 435:AS76.c        ****     Read_32bitSPI_DATA(0x04, Motor, &status_z);
 4634              		.loc 1 435 0
 4635 003e 4FF4FA70 		mov	r0, #500
 4636 0042 FFF7FEFF 		bl	CyDelayUs
 4637              	.LVL584:
 436:AS76.c        ****     while ( (status_z & 0x40) == 0x00)
 4638              		.loc 1 436 0
 4639 0046 2A46     		mov	r2, r5
 4640 0048 2146     		mov	r1, r4
 4641 004a 0420     		movs	r0, #4
 4642 004c FFF7FEFF 		bl	Read_32bitSPI_DATA
 4643              	.LVL585:
 437:AS76.c        ****     {
 4644              		.loc 1 437 0
 4645 0050 29E0     		b	.L277
 4646              	.L280:
 439:AS76.c        ****        wait_interrupt_StartEx(wait_interrupt_Handler);
 4647              		.loc 1 439 0
 4648 0052 FFF7FEFF 		bl	wait_timer_Start
 4649              	.LVL586:
 440:AS76.c        ****        Read_32bitSPI_DATA(0x04, Motor, &status_z);
 4650              		.loc 1 440 0
 4651 0056 5248     		ldr	r0, .L282+16
 4652 0058 FFF7FEFF 		bl	wait_interrupt_StartEx
 4653              	.LVL587:
 441:AS76.c        ****        if(exit_loop == 1)
 4654              		.loc 1 441 0
 4655 005c 4F4A     		ldr	r2, .L282+12
 4656 005e 2146     		mov	r1, r4
 4657 0060 0420     		movs	r0, #4
 4658 0062 FFF7FEFF 		bl	Read_32bitSPI_DATA
 4659              	.LVL588:
 442:AS76.c        ****             {
 4660              		.loc 1 442 0
 4661 0066 4C4B     		ldr	r3, .L282+8
 4662 0068 9B78     		ldrb	r3, [r3, #2]	@ zero_extendqisi2
 4663 006a CBB1     		cbz	r3, .L278
 444:AS76.c        ****             Send_Feedback_to_USB(Error);
 4664              		.loc 1 444 0
 4665 006c 4A4D     		ldr	r5, .L282+8
 4666 006e 1220     		movs	r0, #18
 4667 0070 6862     		str	r0, [r5, #36]
 445:AS76.c        ****             wait_timer_Stop();
ARM GAS  C:\Users\Revanth\AppData\Local\Temp\ccbqjHa5.s 			page 134


 4668              		.loc 1 445 0
 4669 0072 FFF7FEFF 		bl	Send_Feedback_to_USB
 4670              	.LVL589:
 446:AS76.c        ****             Write_32bitSPI_DATA (0x20  , (int) 0x00000000, Motor );
 4671              		.loc 1 446 0
 4672 0076 FFF7FEFF 		bl	wait_timer_Stop
 4673              	.LVL590:
 447:AS76.c        ****             Write_32bitSPI_DATA (0x21  , (int) 0x0000000, Motor); // Mark the current postion as 0
 4674              		.loc 1 447 0
 4675 007a 2246     		mov	r2, r4
 4676 007c 0021     		movs	r1, #0
 4677 007e 2020     		movs	r0, #32
 4678 0080 FFF7FEFF 		bl	Write_32bitSPI_DATA
 4679              	.LVL591:
 448:AS76.c        ****             Write_32bitSPI_DATA (0x2D  , 0x00000000, Motor ); // Set thye target position as 0
 4680              		.loc 1 448 0
 4681 0084 2246     		mov	r2, r4
 4682 0086 0021     		movs	r1, #0
 4683 0088 2120     		movs	r0, #33
 4684 008a FFF7FEFF 		bl	Write_32bitSPI_DATA
 4685              	.LVL592:
 449:AS76.c        ****             exit_loop = 0;
 4686              		.loc 1 449 0
 4687 008e 2246     		mov	r2, r4
 4688 0090 0021     		movs	r1, #0
 4689 0092 2D20     		movs	r0, #45
 4690 0094 FFF7FEFF 		bl	Write_32bitSPI_DATA
 4691              	.LVL593:
 450:AS76.c        ****             return;
 4692              		.loc 1 450 0
 4693 0098 0023     		movs	r3, #0
 4694 009a AB70     		strb	r3, [r5, #2]
 451:AS76.c        ****             //break;
 4695              		.loc 1 451 0
 4696 009c BDE8F081 		pop	{r4, r5, r6, r7, r8, pc}
 4697              	.L278:
 454:AS76.c        ****     }
 4698              		.loc 1 454 0
 4699 00a0 6420     		movs	r0, #100
 4700 00a2 FFF7FEFF 		bl	CyDelayUs
 4701              	.LVL594:
 4702              	.L277:
 437:AS76.c        ****     {
 4703              		.loc 1 437 0
 4704 00a6 3D4B     		ldr	r3, .L282+12
 4705 00a8 1B78     		ldrb	r3, [r3]	@ zero_extendqisi2
 4706 00aa 13F0400F 		tst	r3, #64
 4707 00ae D0D0     		beq	.L280
 456:AS76.c        ****     exit_loop =0;
 4708              		.loc 1 456 0
 4709 00b0 FFF7FEFF 		bl	wait_timer_Stop
 4710              	.LVL595:
 457:AS76.c        ****     
 4711              		.loc 1 457 0
 4712 00b4 384E     		ldr	r6, .L282+8
 4713 00b6 0025     		movs	r5, #0
 4714 00b8 B570     		strb	r5, [r6, #2]
ARM GAS  C:\Users\Revanth\AppData\Local\Temp\ccbqjHa5.s 			page 135


 459:AS76.c        ****     //Z_last_position = 0;
 4715              		.loc 1 459 0
 4716 00ba 2246     		mov	r2, r4
 4717 00bc 2946     		mov	r1, r5
 4718 00be 2120     		movs	r0, #33
 4719 00c0 FFF7FEFF 		bl	Write_32bitSPI_DATA
 4720              	.LVL596:
 461:AS76.c        ****     Buffer_Z_QuadPosition=0;
 4721              		.loc 1 461 0
 4722 00c4 2846     		mov	r0, r5
 4723 00c6 FFF7FEFF 		bl	Enable_Encoder_Z
 4724              	.LVL597:
 462:AS76.c        ****     CyDelayUs(10);
 4725              		.loc 1 462 0
 4726 00ca B561     		str	r5, [r6, #24]
 463:AS76.c        ****     /*
 4727              		.loc 1 463 0
 4728 00cc 0A20     		movs	r0, #10
 4729 00ce FFF7FEFF 		bl	CyDelayUs
 4730              	.LVL598:
 489:AS76.c        ****     //Z_last_position = 0;
 4731              		.loc 1 489 0
 4732 00d2 2246     		mov	r2, r4
 4733 00d4 2946     		mov	r1, r5
 4734 00d6 2120     		movs	r0, #33
 4735 00d8 FFF7FEFF 		bl	Write_32bitSPI_DATA
 4736              	.LVL599:
 491:AS76.c        ****     Buffer_Z_QuadPosition=0;
 4737              		.loc 1 491 0
 4738 00dc 2846     		mov	r0, r5
 4739 00de FFF7FEFF 		bl	Enable_Encoder_Z
 4740              	.LVL600:
 492:AS76.c        ****     HomeX_done = true;
 4741              		.loc 1 492 0
 4742 00e2 B561     		str	r5, [r6, #24]
 493:AS76.c        ****     HomeY_done = true;
 4743              		.loc 1 493 0
 4744 00e4 2F4F     		ldr	r7, .L282+20
 4745 00e6 4FF00108 		mov	r8, #1
 4746 00ea 87F82180 		strb	r8, [r7, #33]
 494:AS76.c        ****     HomeZ_done = true;
 4747              		.loc 1 494 0
 4748 00ee 87F82080 		strb	r8, [r7, #32]
 495:AS76.c        ****     HomeT_done = true;
 4749              		.loc 1 495 0
 4750 00f2 87F82280 		strb	r8, [r7, #34]
 496:AS76.c        ****     CyDelayUs(100);
 4751              		.loc 1 496 0
 4752 00f6 87F82880 		strb	r8, [r7, #40]
 497:AS76.c        ****     goTo_Z(((256*200)*1));
 4753              		.loc 1 497 0
 4754 00fa 6420     		movs	r0, #100
 4755 00fc FFF7FEFF 		bl	CyDelayUs
 4756              	.LVL601:
 498:AS76.c        ****     Error =0;
 4757              		.loc 1 498 0
 4758 0100 4FF44840 		mov	r0, #51200
ARM GAS  C:\Users\Revanth\AppData\Local\Temp\ccbqjHa5.s 			page 136


 4759 0104 FFF7FEFF 		bl	goTo_Z
 4760              	.LVL602:
 499:AS76.c        ****     HomeX_done = HomeX_done_Buffer;
 4761              		.loc 1 499 0
 4762 0108 7562     		str	r5, [r6, #36]
 500:AS76.c        ****     HomeY_done = HomeY_done_Buffer;
 4763              		.loc 1 500 0
 4764 010a 96F82930 		ldrb	r3, [r6, #41]	@ zero_extendqisi2
 4765 010e 87F82130 		strb	r3, [r7, #33]
 501:AS76.c        ****     HomeZ_done = HomeZ_done_Buffer;
 4766              		.loc 1 501 0
 4767 0112 96F82A30 		ldrb	r3, [r6, #42]	@ zero_extendqisi2
 4768 0116 87F82030 		strb	r3, [r7, #32]
 502:AS76.c        ****     HomeT_done = HomeT_done_Buffer;
 4769              		.loc 1 502 0
 4770 011a 96F82B30 		ldrb	r3, [r6, #43]	@ zero_extendqisi2
 4771 011e 87F82230 		strb	r3, [r7, #34]
 503:AS76.c        ****     CyDelayUs(100);
 4772              		.loc 1 503 0
 4773 0122 96F82C30 		ldrb	r3, [r6, #44]	@ zero_extendqisi2
 4774 0126 87F82830 		strb	r3, [r7, #40]
 504:AS76.c        ****     Write_32bitSPI_DATA (0x21  , (int) 0x0000000, Motor); 
 4775              		.loc 1 504 0
 4776 012a 6420     		movs	r0, #100
 4777 012c FFF7FEFF 		bl	CyDelayUs
 4778              	.LVL603:
 505:AS76.c        ****     Write_32bitSPI_DATA (0x2D  , 0x00000000, Motor );
 4779              		.loc 1 505 0
 4780 0130 2246     		mov	r2, r4
 4781 0132 2946     		mov	r1, r5
 4782 0134 2120     		movs	r0, #33
 4783 0136 FFF7FEFF 		bl	Write_32bitSPI_DATA
 4784              	.LVL604:
 506:AS76.c        ****     update_max_velocity(53687*2, Motor);
 4785              		.loc 1 506 0
 4786 013a 2246     		mov	r2, r4
 4787 013c 2946     		mov	r1, r5
 4788 013e 2D20     		movs	r0, #45
 4789 0140 FFF7FEFF 		bl	Write_32bitSPI_DATA
 4790              	.LVL605:
 507:AS76.c        **** 
 4791              		.loc 1 507 0
 4792 0144 2146     		mov	r1, r4
 4793 0146 1348     		ldr	r0, .L282+4
 4794 0148 FFF7FEFF 		bl	update_max_velocity
 4795              	.LVL606:
 510:AS76.c        ****     Buffer_Z_QuadPosition=0;
 4796              		.loc 1 510 0
 4797 014c 2846     		mov	r0, r5
 4798 014e FFF7FEFF 		bl	Enable_Encoder_Z
 4799              	.LVL607:
 511:AS76.c        ****     HomeZ_done = true;
 4800              		.loc 1 511 0
 4801 0152 B561     		str	r5, [r6, #24]
 512:AS76.c        ****     HomeZ_done_Buffer = true;
 4802              		.loc 1 512 0
 4803 0154 87F82280 		strb	r8, [r7, #34]
ARM GAS  C:\Users\Revanth\AppData\Local\Temp\ccbqjHa5.s 			page 137


 513:AS76.c        ****     Write_Debug_UART_Char("HomeZ executed  \r\n");
 4804              		.loc 1 513 0
 4805 0158 86F82B80 		strb	r8, [r6, #43]
 514:AS76.c        ****     Write_32bitSPI_DATA (0x10  , (int) 0x00070103, TMC5160_nCS_MotorY );
 4806              		.loc 1 514 0
 4807 015c 1248     		ldr	r0, .L282+24
 4808 015e FFF7FEFF 		bl	Write_Debug_UART_Char
 4809              	.LVL608:
 515:AS76.c        ****     Write_32bitSPI_DATA (0x10  , (int) 0x00070101, TMC5160_nCS_MotorZ );
 4810              		.loc 1 515 0
 4811 0162 124C     		ldr	r4, .L282+28
 4812 0164 4246     		mov	r2, r8
 4813 0166 2146     		mov	r1, r4
 4814 0168 1020     		movs	r0, #16
 4815 016a FFF7FEFF 		bl	Write_32bitSPI_DATA
 4816              	.LVL609:
 516:AS76.c        ****     Write_32bitSPI_DATA (0x10  , (int) 0x00070103, TMC5160_nCS_MotorX );
 4817              		.loc 1 516 0
 4818 016e 0222     		movs	r2, #2
 4819 0170 0F49     		ldr	r1, .L282+32
 4820 0172 1020     		movs	r0, #16
 4821 0174 FFF7FEFF 		bl	Write_32bitSPI_DATA
 4822              	.LVL610:
 517:AS76.c        ****     Write_32bitSPI_DATA (0x10  , (int) 0x00070103, TMC5160_nCS_MotorT ); 
 4823              		.loc 1 517 0
 4824 0178 2A46     		mov	r2, r5
 4825 017a 2146     		mov	r1, r4
 4826 017c 1020     		movs	r0, #16
 4827 017e FFF7FEFF 		bl	Write_32bitSPI_DATA
 4828              	.LVL611:
 518:AS76.c        **** 
 4829              		.loc 1 518 0
 4830 0182 0322     		movs	r2, #3
 4831 0184 2146     		mov	r1, r4
 4832 0186 1020     		movs	r0, #16
 4833 0188 FFF7FEFF 		bl	Write_32bitSPI_DATA
 4834              	.LVL612:
 4835 018c BDE8F081 		pop	{r4, r5, r6, r7, r8, pc}
 4836              	.L283:
 4837              		.align	2
 4838              	.L282:
 4839 0190 03020700 		.word	459267
 4840 0194 6EA30100 		.word	107374
 4841 0198 00000000 		.word	.LANCHOR0
 4842 019c 00000000 		.word	status_z
 4843 01a0 00000000 		.word	wait_interrupt_Handler
 4844 01a4 00000000 		.word	.LANCHOR1
 4845 01a8 A8040000 		.word	.LC39
 4846 01ac 03010700 		.word	459011
 4847 01b0 01010700 		.word	459009
 4848              		.cfi_endproc
 4849              	.LFE68:
 4850              		.size	homeZ, .-homeZ
 4851              		.section	.text.homeT,"ax",%progbits
 4852              		.align	2
 4853              		.global	homeT
 4854              		.thumb
ARM GAS  C:\Users\Revanth\AppData\Local\Temp\ccbqjHa5.s 			page 138


 4855              		.thumb_func
 4856              		.type	homeT, %function
 4857              	homeT:
 4858              	.LFB69:
 527:AS76.c        ****     TMC5160_MotorT_EN_Write(0x00);
 4859              		.loc 1 527 0
 4860              		.cfi_startproc
 4861              		@ args = 0, pretend = 0, frame = 0
 4862              		@ frame_needed = 0, uses_anonymous_args = 0
 4863              	.LVL613:
 4864 0000 2DE9F041 		push	{r4, r5, r6, r7, r8, lr}
 4865              		.cfi_def_cfa_offset 24
 4866              		.cfi_offset 4, -24
 4867              		.cfi_offset 5, -20
 4868              		.cfi_offset 6, -16
 4869              		.cfi_offset 7, -12
 4870              		.cfi_offset 8, -8
 4871              		.cfi_offset 14, -4
 4872 0004 0446     		mov	r4, r0
 528:AS76.c        ****     CyDelayUs(100);
 4873              		.loc 1 528 0
 4874 0006 0020     		movs	r0, #0
 4875              	.LVL614:
 4876 0008 FFF7FEFF 		bl	TMC5160_MotorT_EN_Write
 4877              	.LVL615:
 529:AS76.c        ****     update_max_velocity(12800, Motor);
 4878              		.loc 1 529 0
 4879 000c 6420     		movs	r0, #100
 4880 000e FFF7FEFF 		bl	CyDelayUs
 4881              	.LVL616:
 530:AS76.c        ****     Enable_Encoder_T(-Buffer_T_QuadPosition);
 4882              		.loc 1 530 0
 4883 0012 2146     		mov	r1, r4
 4884 0014 4FF44850 		mov	r0, #12800
 4885 0018 FFF7FEFF 		bl	update_max_velocity
 4886              	.LVL617:
 531:AS76.c        ****     Write_32bitSPI_DATA (0x20  , (int) 0x00000002, Motor );
 4887              		.loc 1 531 0
 4888 001c 544B     		ldr	r3, .L290
 4889 001e D869     		ldr	r0, [r3, #28]
 4890 0020 4042     		negs	r0, r0
 4891 0022 FFF7FEFF 		bl	Enable_Encoder_T
 4892              	.LVL618:
 532:AS76.c        ****     CyDelayUs(50);
 4893              		.loc 1 532 0
 4894 0026 2246     		mov	r2, r4
 4895 0028 0221     		movs	r1, #2
 4896 002a 2020     		movs	r0, #32
 4897 002c FFF7FEFF 		bl	Write_32bitSPI_DATA
 4898              	.LVL619:
 533:AS76.c        ****     Read_32bitSPI_DATA(0x04, Motor, &status_z);
 4899              		.loc 1 533 0
 4900 0030 3220     		movs	r0, #50
 4901 0032 FFF7FEFF 		bl	CyDelayUs
 4902              	.LVL620:
 534:AS76.c        ****     CyDelayUs(500);
 4903              		.loc 1 534 0
ARM GAS  C:\Users\Revanth\AppData\Local\Temp\ccbqjHa5.s 			page 139


 4904 0036 4F4D     		ldr	r5, .L290+4
 4905 0038 2A46     		mov	r2, r5
 4906 003a 2146     		mov	r1, r4
 4907 003c 0420     		movs	r0, #4
 4908 003e FFF7FEFF 		bl	Read_32bitSPI_DATA
 4909              	.LVL621:
 535:AS76.c        ****     Read_32bitSPI_DATA(0x04, Motor, &status_z);
 4910              		.loc 1 535 0
 4911 0042 4FF4FA70 		mov	r0, #500
 4912 0046 FFF7FEFF 		bl	CyDelayUs
 4913              	.LVL622:
 536:AS76.c        ****     while ( (status_z & 0x40) == 0x00)
 4914              		.loc 1 536 0
 4915 004a 2A46     		mov	r2, r5
 4916 004c 2146     		mov	r1, r4
 4917 004e 0420     		movs	r0, #4
 4918 0050 FFF7FEFF 		bl	Read_32bitSPI_DATA
 4919              	.LVL623:
 537:AS76.c        ****     {
 4920              		.loc 1 537 0
 4921 0054 2AE0     		b	.L285
 4922              	.L288:
 539:AS76.c        ****        wait_interrupt_StartEx(wait_interrupt_Handler);
 4923              		.loc 1 539 0
 4924 0056 FFF7FEFF 		bl	wait_timer_Start
 4925              	.LVL624:
 540:AS76.c        ****        Read_32bitSPI_DATA(0x04, Motor, &status_z);
 4926              		.loc 1 540 0
 4927 005a 4748     		ldr	r0, .L290+8
 4928 005c FFF7FEFF 		bl	wait_interrupt_StartEx
 4929              	.LVL625:
 541:AS76.c        ****        if(exit_loop == 1)
 4930              		.loc 1 541 0
 4931 0060 444A     		ldr	r2, .L290+4
 4932 0062 2146     		mov	r1, r4
 4933 0064 0420     		movs	r0, #4
 4934 0066 FFF7FEFF 		bl	Read_32bitSPI_DATA
 4935              	.LVL626:
 542:AS76.c        ****             {
 4936              		.loc 1 542 0
 4937 006a 414B     		ldr	r3, .L290
 4938 006c 9B78     		ldrb	r3, [r3, #2]	@ zero_extendqisi2
 4939 006e D3B1     		cbz	r3, .L286
 544:AS76.c        ****             Send_Feedback_to_USB(Error);
 4940              		.loc 1 544 0
 4941 0070 3F4D     		ldr	r5, .L290
 4942 0072 1620     		movs	r0, #22
 4943 0074 6862     		str	r0, [r5, #36]
 545:AS76.c        ****             wait_timer_Stop();
 4944              		.loc 1 545 0
 4945 0076 FFF7FEFF 		bl	Send_Feedback_to_USB
 4946              	.LVL627:
 546:AS76.c        ****             Write_32bitSPI_DATA (0x20  , (int) 0x00000000, Motor );
 4947              		.loc 1 546 0
 4948 007a FFF7FEFF 		bl	wait_timer_Stop
 4949              	.LVL628:
 547:AS76.c        ****             Write_32bitSPI_DATA (0x21  , (int) 0x0000000, Motor); // Mark the current postion as 0
ARM GAS  C:\Users\Revanth\AppData\Local\Temp\ccbqjHa5.s 			page 140


 4950              		.loc 1 547 0
 4951 007e 2246     		mov	r2, r4
 4952 0080 0021     		movs	r1, #0
 4953 0082 2020     		movs	r0, #32
 4954 0084 FFF7FEFF 		bl	Write_32bitSPI_DATA
 4955              	.LVL629:
 548:AS76.c        ****             Write_32bitSPI_DATA (0x2D  , 0x00000000, Motor ); // Set thye target position as 0
 4956              		.loc 1 548 0
 4957 0088 2246     		mov	r2, r4
 4958 008a 0021     		movs	r1, #0
 4959 008c 2120     		movs	r0, #33
 4960 008e FFF7FEFF 		bl	Write_32bitSPI_DATA
 4961              	.LVL630:
 549:AS76.c        ****             exit_loop = 0;
 4962              		.loc 1 549 0
 4963 0092 2246     		mov	r2, r4
 4964 0094 0021     		movs	r1, #0
 4965 0096 2D20     		movs	r0, #45
 4966 0098 FFF7FEFF 		bl	Write_32bitSPI_DATA
 4967              	.LVL631:
 550:AS76.c        ****             Error =0;
 4968              		.loc 1 550 0
 4969 009c 0023     		movs	r3, #0
 4970 009e AB70     		strb	r3, [r5, #2]
 551:AS76.c        ****             return;
 4971              		.loc 1 551 0
 4972 00a0 6B62     		str	r3, [r5, #36]
 552:AS76.c        ****             //break;
 4973              		.loc 1 552 0
 4974 00a2 BDE8F081 		pop	{r4, r5, r6, r7, r8, pc}
 4975              	.L286:
 555:AS76.c        ****     }
 4976              		.loc 1 555 0
 4977 00a6 6420     		movs	r0, #100
 4978 00a8 FFF7FEFF 		bl	CyDelayUs
 4979              	.LVL632:
 4980              	.L285:
 537:AS76.c        ****     {
 4981              		.loc 1 537 0
 4982 00ac 314B     		ldr	r3, .L290+4
 4983 00ae 1B78     		ldrb	r3, [r3]	@ zero_extendqisi2
 4984 00b0 13F0400F 		tst	r3, #64
 4985 00b4 CFD0     		beq	.L288
 557:AS76.c        ****     exit_loop =0;
 4986              		.loc 1 557 0
 4987 00b6 FFF7FEFF 		bl	wait_timer_Stop
 4988              	.LVL633:
 558:AS76.c        ****     
 4989              		.loc 1 558 0
 4990 00ba 2D4F     		ldr	r7, .L290
 4991 00bc 0026     		movs	r6, #0
 4992 00be BE70     		strb	r6, [r7, #2]
 560:AS76.c        ****     CyDelayUs(10);
 4993              		.loc 1 560 0
 4994 00c0 2246     		mov	r2, r4
 4995 00c2 3146     		mov	r1, r6
 4996 00c4 2120     		movs	r0, #33
ARM GAS  C:\Users\Revanth\AppData\Local\Temp\ccbqjHa5.s 			page 141


 4997 00c6 FFF7FEFF 		bl	Write_32bitSPI_DATA
 4998              	.LVL634:
 561:AS76.c        ****     /*
 4999              		.loc 1 561 0
 5000 00ca 0A20     		movs	r0, #10
 5001 00cc FFF7FEFF 		bl	CyDelayUs
 5002              	.LVL635:
 586:AS76.c        ****     //T_last_position = 0;
 5003              		.loc 1 586 0
 5004 00d0 2246     		mov	r2, r4
 5005 00d2 3146     		mov	r1, r6
 5006 00d4 2120     		movs	r0, #33
 5007 00d6 FFF7FEFF 		bl	Write_32bitSPI_DATA
 5008              	.LVL636:
 588:AS76.c        ****     Buffer_T_QuadPosition=0;
 5009              		.loc 1 588 0
 5010 00da 3046     		mov	r0, r6
 5011 00dc FFF7FEFF 		bl	Enable_Encoder_T
 5012              	.LVL637:
 589:AS76.c        ****     HomeX_done = true;
 5013              		.loc 1 589 0
 5014 00e0 FE61     		str	r6, [r7, #28]
 590:AS76.c        ****     HomeY_done = true;
 5015              		.loc 1 590 0
 5016 00e2 264D     		ldr	r5, .L290+12
 5017 00e4 4FF00108 		mov	r8, #1
 5018 00e8 85F82180 		strb	r8, [r5, #33]
 591:AS76.c        ****     HomeZ_done = true;
 5019              		.loc 1 591 0
 5020 00ec 85F82080 		strb	r8, [r5, #32]
 592:AS76.c        ****     HomeT_done = true;
 5021              		.loc 1 592 0
 5022 00f0 85F82280 		strb	r8, [r5, #34]
 593:AS76.c        ****     CyDelayUs(100); 
 5023              		.loc 1 593 0
 5024 00f4 85F82880 		strb	r8, [r5, #40]
 594:AS76.c        ****     goTo_T(3800);
 5025              		.loc 1 594 0
 5026 00f8 6420     		movs	r0, #100
 5027 00fa FFF7FEFF 		bl	CyDelayUs
 5028              	.LVL638:
 595:AS76.c        ****     HomeX_done = HomeX_done_Buffer;
 5029              		.loc 1 595 0
 5030 00fe 40F6D860 		movw	r0, #3800
 5031 0102 FFF7FEFF 		bl	goTo_T
 5032              	.LVL639:
 596:AS76.c        ****     HomeY_done = HomeY_done_Buffer;
 5033              		.loc 1 596 0
 5034 0106 97F82930 		ldrb	r3, [r7, #41]	@ zero_extendqisi2
 5035 010a 85F82130 		strb	r3, [r5, #33]
 597:AS76.c        ****     HomeZ_done = HomeZ_done_Buffer;
 5036              		.loc 1 597 0
 5037 010e 97F82A30 		ldrb	r3, [r7, #42]	@ zero_extendqisi2
 5038 0112 85F82030 		strb	r3, [r5, #32]
 598:AS76.c        ****     HomeT_done = HomeT_done_Buffer;
 5039              		.loc 1 598 0
 5040 0116 97F82B30 		ldrb	r3, [r7, #43]	@ zero_extendqisi2
ARM GAS  C:\Users\Revanth\AppData\Local\Temp\ccbqjHa5.s 			page 142


 5041 011a 85F82230 		strb	r3, [r5, #34]
 599:AS76.c        ****     CyDelayUs(100);
 5042              		.loc 1 599 0
 5043 011e 97F82C30 		ldrb	r3, [r7, #44]	@ zero_extendqisi2
 5044 0122 85F82830 		strb	r3, [r5, #40]
 600:AS76.c        ****     Write_32bitSPI_DATA (0x21  , (int) 0x0000000, Motor); 
 5045              		.loc 1 600 0
 5046 0126 6420     		movs	r0, #100
 5047 0128 FFF7FEFF 		bl	CyDelayUs
 5048              	.LVL640:
 601:AS76.c        ****     Write_32bitSPI_DATA (0x2D  , 0x00000000, Motor );
 5049              		.loc 1 601 0
 5050 012c 2246     		mov	r2, r4
 5051 012e 3146     		mov	r1, r6
 5052 0130 2120     		movs	r0, #33
 5053 0132 FFF7FEFF 		bl	Write_32bitSPI_DATA
 5054              	.LVL641:
 602:AS76.c        ****     update_max_velocity(12800, Motor);
 5055              		.loc 1 602 0
 5056 0136 2246     		mov	r2, r4
 5057 0138 3146     		mov	r1, r6
 5058 013a 2D20     		movs	r0, #45
 5059 013c FFF7FEFF 		bl	Write_32bitSPI_DATA
 5060              	.LVL642:
 603:AS76.c        **** 
 5061              		.loc 1 603 0
 5062 0140 2146     		mov	r1, r4
 5063 0142 4FF44850 		mov	r0, #12800
 5064 0146 FFF7FEFF 		bl	update_max_velocity
 5065              	.LVL643:
 606:AS76.c        ****     Buffer_T_QuadPosition=0;
 5066              		.loc 1 606 0
 5067 014a 3046     		mov	r0, r6
 5068 014c FFF7FEFF 		bl	Enable_Encoder_T
 5069              	.LVL644:
 607:AS76.c        ****     HomeT_done = true;
 5070              		.loc 1 607 0
 5071 0150 FE61     		str	r6, [r7, #28]
 608:AS76.c        ****     HomeT_done_Buffer = true;
 5072              		.loc 1 608 0
 5073 0152 85F82880 		strb	r8, [r5, #40]
 609:AS76.c        ****     Write_Debug_UART_Char("HomeT executed  \r\n");
 5074              		.loc 1 609 0
 5075 0156 87F82C80 		strb	r8, [r7, #44]
 610:AS76.c        ****     TMC5160_MotorT_EN_Write(0xFF);
 5076              		.loc 1 610 0
 5077 015a 0948     		ldr	r0, .L290+16
 5078 015c FFF7FEFF 		bl	Write_Debug_UART_Char
 5079              	.LVL645:
 611:AS76.c        ****     CyDelayUs(100);
 5080              		.loc 1 611 0
 5081 0160 FF20     		movs	r0, #255
 5082 0162 FFF7FEFF 		bl	TMC5160_MotorT_EN_Write
 5083              	.LVL646:
 612:AS76.c        **** }
 5084              		.loc 1 612 0
 5085 0166 6420     		movs	r0, #100
ARM GAS  C:\Users\Revanth\AppData\Local\Temp\ccbqjHa5.s 			page 143


 5086 0168 FFF7FEFF 		bl	CyDelayUs
 5087              	.LVL647:
 5088 016c BDE8F081 		pop	{r4, r5, r6, r7, r8, pc}
 5089              	.L291:
 5090              		.align	2
 5091              	.L290:
 5092 0170 00000000 		.word	.LANCHOR0
 5093 0174 00000000 		.word	status_z
 5094 0178 00000000 		.word	wait_interrupt_Handler
 5095 017c 00000000 		.word	.LANCHOR1
 5096 0180 BC040000 		.word	.LC40
 5097              		.cfi_endproc
 5098              	.LFE69:
 5099              		.size	homeT, .-homeT
 5100              		.section	.text.update_max_accelaration,"ax",%progbits
 5101              		.align	2
 5102              		.global	update_max_accelaration
 5103              		.thumb
 5104              		.thumb_func
 5105              		.type	update_max_accelaration, %function
 5106              	update_max_accelaration:
 5107              	.LFB109:
2300:AS76.c        **** 
2301:AS76.c        **** int update_max_accelaration(int accelaration, uint8_t Motor)
2302:AS76.c        **** {
 5108              		.loc 1 2302 0
 5109              		.cfi_startproc
 5110              		@ args = 0, pretend = 0, frame = 0
 5111              		@ frame_needed = 0, uses_anonymous_args = 0
 5112              	.LVL648:
 5113 0000 08B5     		push	{r3, lr}
 5114              		.cfi_def_cfa_offset 8
 5115              		.cfi_offset 3, -8
 5116              		.cfi_offset 14, -4
2303:AS76.c        ****     Write_32bitSPI_DATA (0x26  , (int) accelaration, Motor); 
 5117              		.loc 1 2303 0
 5118 0002 0A46     		mov	r2, r1
 5119 0004 0146     		mov	r1, r0
 5120              	.LVL649:
 5121 0006 2620     		movs	r0, #38
 5122              	.LVL650:
 5123 0008 FFF7FEFF 		bl	Write_32bitSPI_DATA
 5124              	.LVL651:
2304:AS76.c        ****     return 0;
2305:AS76.c        **** }
 5125              		.loc 1 2305 0
 5126 000c 0020     		movs	r0, #0
 5127 000e 08BD     		pop	{r3, pc}
 5128              		.cfi_endproc
 5129              	.LFE109:
 5130              		.size	update_max_accelaration, .-update_max_accelaration
 5131              		.section	.text.run_pump,"ax",%progbits
 5132              		.align	2
 5133              		.global	run_pump
 5134              		.thumb
 5135              		.thumb_func
 5136              		.type	run_pump, %function
ARM GAS  C:\Users\Revanth\AppData\Local\Temp\ccbqjHa5.s 			page 144


 5137              	run_pump:
 5138              	.LFB110:
2306:AS76.c        **** 
2307:AS76.c        **** int run_pump (int time_ms, uint8_t direction)
2308:AS76.c        **** {
 5139              		.loc 1 2308 0
 5140              		.cfi_startproc
 5141              		@ args = 0, pretend = 0, frame = 0
 5142              		@ frame_needed = 0, uses_anonymous_args = 0
 5143              	.LVL652:
 5144 0000 38B5     		push	{r3, r4, r5, lr}
 5145              		.cfi_def_cfa_offset 16
 5146              		.cfi_offset 3, -16
 5147              		.cfi_offset 4, -12
 5148              		.cfi_offset 5, -8
 5149              		.cfi_offset 14, -4
 5150 0002 0546     		mov	r5, r0
 5151 0004 0C46     		mov	r4, r1
2309:AS76.c        ****     Write_32bitSPI_DATA (0x20  , (int) 0x00000000, TMC5160_nCS_MotorO );
 5152              		.loc 1 2309 0
 5153 0006 0422     		movs	r2, #4
 5154 0008 0021     		movs	r1, #0
 5155              	.LVL653:
 5156 000a 2020     		movs	r0, #32
 5157              	.LVL654:
 5158 000c FFF7FEFF 		bl	Write_32bitSPI_DATA
 5159              	.LVL655:
2310:AS76.c        ****     Write_32bitSPI_DATA (0x21  , (int) 0x00000000, TMC5160_nCS_MotorO );
 5160              		.loc 1 2310 0
 5161 0010 0422     		movs	r2, #4
 5162 0012 0021     		movs	r1, #0
 5163 0014 2120     		movs	r0, #33
 5164 0016 FFF7FEFF 		bl	Write_32bitSPI_DATA
 5165              	.LVL656:
2311:AS76.c        ****     
2312:AS76.c        ****     
2313:AS76.c        ****     update_max_velocity(53687*2, TMC5160_nCS_MotorO);
 5166              		.loc 1 2313 0
 5167 001a 0421     		movs	r1, #4
 5168 001c 6248     		ldr	r0, .L307
 5169 001e FFF7FEFF 		bl	update_max_velocity
 5170              	.LVL657:
2314:AS76.c        ****     TMC5160_MotorO_EN_Write(0x00);
 5171              		.loc 1 2314 0
 5172 0022 0020     		movs	r0, #0
 5173 0024 FFF7FEFF 		bl	TMC5160_MotorO_EN_Write
 5174              	.LVL658:
2315:AS76.c        ****     CyDelay(15);
 5175              		.loc 1 2315 0
 5176 0028 0F20     		movs	r0, #15
 5177 002a FFF7FEFF 		bl	CyDelay
 5178              	.LVL659:
2316:AS76.c        ****     if( (direction == 0x00) || (direction == 0x01))
 5179              		.loc 1 2316 0
 5180 002e 012C     		cmp	r4, #1
 5181 0030 03D8     		bhi	.L305
2317:AS76.c        ****     {
ARM GAS  C:\Users\Revanth\AppData\Local\Temp\ccbqjHa5.s 			page 145


2318:AS76.c        ****         CyDelay(1);
 5182              		.loc 1 2318 0
 5183 0032 0120     		movs	r0, #1
 5184 0034 FFF7FEFF 		bl	CyDelay
 5185              	.LVL660:
 5186 0038 00E0     		b	.L295
 5187              	.L305:
2319:AS76.c        ****     }
2320:AS76.c        ****     else
2321:AS76.c        ****     {
2322:AS76.c        ****       direction =0;  
 5188              		.loc 1 2322 0
 5189 003a 0024     		movs	r4, #0
 5190              	.L295:
 5191              	.LVL661:
2323:AS76.c        ****     }
2324:AS76.c        ****     
2325:AS76.c        ****     if( (direction == 0x00) || (direction == 0x01))
 5192              		.loc 1 2325 0
 5193 003c 012C     		cmp	r4, #1
 5194 003e 00F29D80 		bhi	.L296
2326:AS76.c        ****     {
2327:AS76.c        **** if(direction == 0x00)
 5195              		.loc 1 2327 0
 5196 0042 002C     		cmp	r4, #0
 5197 0044 4DD1     		bne	.L297
2328:AS76.c        ****     {
2329:AS76.c        ****         GotoPos(time_ms, TMC5160_nCS_MotorO);
 5198              		.loc 1 2329 0
 5199 0046 0421     		movs	r1, #4
 5200 0048 2846     		mov	r0, r5
 5201 004a FFF7FEFF 		bl	GotoPos
 5202              	.LVL662:
2330:AS76.c        ****         
2331:AS76.c        ****         Read_32bitSPI_DATA(0x04, TMC5160_nCS_MotorO, &status_x); // Read the status register of TMC
 5203              		.loc 1 2331 0
 5204 004e 574C     		ldr	r4, .L307+4
 5205              	.LVL663:
 5206 0050 2246     		mov	r2, r4
 5207 0052 0421     		movs	r1, #4
 5208 0054 0846     		mov	r0, r1
 5209 0056 FFF7FEFF 		bl	Read_32bitSPI_DATA
 5210              	.LVL664:
2332:AS76.c        ****         CyDelayUs(500);
 5211              		.loc 1 2332 0
 5212 005a 4FF4FA70 		mov	r0, #500
 5213 005e FFF7FEFF 		bl	CyDelayUs
 5214              	.LVL665:
2333:AS76.c        ****         Read_32bitSPI_DATA(0x04, TMC5160_nCS_MotorO, &status_x); // Read the status register of TMC
 5215              		.loc 1 2333 0
 5216 0062 2246     		mov	r2, r4
 5217 0064 0421     		movs	r1, #4
 5218 0066 0846     		mov	r0, r1
 5219 0068 FFF7FEFF 		bl	Read_32bitSPI_DATA
 5220              	.LVL666:
2334:AS76.c        ****         while ( (status_x & 0x20) == 0x00) // Check if target position is reached or not
 5221              		.loc 1 2334 0
ARM GAS  C:\Users\Revanth\AppData\Local\Temp\ccbqjHa5.s 			page 146


 5222 006c 2EE0     		b	.L298
 5223              	.L301:
2335:AS76.c        ****             {
2336:AS76.c        ****              wait_timer_Start();
 5224              		.loc 1 2336 0
 5225 006e FFF7FEFF 		bl	wait_timer_Start
 5226              	.LVL667:
2337:AS76.c        ****              wait_interrupt_StartEx(wait_interrupt_Handler);
 5227              		.loc 1 2337 0
 5228 0072 4F48     		ldr	r0, .L307+8
 5229 0074 FFF7FEFF 		bl	wait_interrupt_StartEx
 5230              	.LVL668:
2338:AS76.c        ****              Read_32bitSPI_DATA(0x04, TMC5160_nCS_MotorO, &status_x); // Read the status register o
 5231              		.loc 1 2338 0
 5232 0078 4C4A     		ldr	r2, .L307+4
 5233 007a 0421     		movs	r1, #4
 5234 007c 0846     		mov	r0, r1
 5235 007e FFF7FEFF 		bl	Read_32bitSPI_DATA
 5236              	.LVL669:
2339:AS76.c        ****              if(exit_loop == 1)
 5237              		.loc 1 2339 0
 5238 0082 4C4B     		ldr	r3, .L307+12
 5239 0084 9B78     		ldrb	r3, [r3, #2]	@ zero_extendqisi2
 5240 0086 F3B1     		cbz	r3, .L299
2340:AS76.c        ****                 {
2341:AS76.c        ****                 Send_Feedback_to_USB(X_Homing_Not_Done_Yet);
 5241              		.loc 1 2341 0
 5242 0088 4FF61D20 		movw	r0, #64029
 5243 008c FFF7FEFF 		bl	Send_Feedback_to_USB
 5244              	.LVL670:
2342:AS76.c        ****                 wait_timer_Stop();
 5245              		.loc 1 2342 0
 5246 0090 FFF7FEFF 		bl	wait_timer_Stop
 5247              	.LVL671:
2343:AS76.c        ****                 Write_32bitSPI_DATA (0x20  , (int) 0x00000000, TMC5160_nCS_MotorO );
 5248              		.loc 1 2343 0
 5249 0094 0422     		movs	r2, #4
 5250 0096 0021     		movs	r1, #0
 5251 0098 2020     		movs	r0, #32
 5252 009a FFF7FEFF 		bl	Write_32bitSPI_DATA
 5253              	.LVL672:
2344:AS76.c        ****                 Write_32bitSPI_DATA (0x21  , (int) 0x0000000, TMC5160_nCS_MotorO); // Mark the curr
 5254              		.loc 1 2344 0
 5255 009e 0422     		movs	r2, #4
 5256 00a0 0021     		movs	r1, #0
 5257 00a2 2120     		movs	r0, #33
 5258 00a4 FFF7FEFF 		bl	Write_32bitSPI_DATA
 5259              	.LVL673:
2345:AS76.c        ****                 Write_32bitSPI_DATA (0x2D  , 0x00000000, TMC5160_nCS_MotorO ); // Set thye target p
 5260              		.loc 1 2345 0
 5261 00a8 0422     		movs	r2, #4
 5262 00aa 0021     		movs	r1, #0
 5263 00ac 2D20     		movs	r0, #45
 5264 00ae FFF7FEFF 		bl	Write_32bitSPI_DATA
 5265              	.LVL674:
2346:AS76.c        ****                 exit_loop = 0;
 5266              		.loc 1 2346 0
ARM GAS  C:\Users\Revanth\AppData\Local\Temp\ccbqjHa5.s 			page 147


 5267 00b2 404C     		ldr	r4, .L307+12
 5268 00b4 0023     		movs	r3, #0
 5269 00b6 A370     		strb	r3, [r4, #2]
2347:AS76.c        ****                 Error = 33;
 5270              		.loc 1 2347 0
 5271 00b8 2123     		movs	r3, #33
 5272 00ba 6362     		str	r3, [r4, #36]
2348:AS76.c        ****                 TMC5160_MotorO_EN_Write(0xFF);
 5273              		.loc 1 2348 0
 5274 00bc FF20     		movs	r0, #255
 5275 00be FFF7FEFF 		bl	TMC5160_MotorO_EN_Write
 5276              	.LVL675:
2349:AS76.c        ****                 return Error;
 5277              		.loc 1 2349 0
 5278 00c2 606A     		ldr	r0, [r4, #36]
 5279 00c4 38BD     		pop	{r3, r4, r5, pc}
 5280              	.LVL676:
 5281              	.L299:
2350:AS76.c        ****                 //break;
2351:AS76.c        ****                 }
2352:AS76.c        ****              CyDelayUs(100);       
 5282              		.loc 1 2352 0
 5283 00c6 6420     		movs	r0, #100
 5284 00c8 FFF7FEFF 		bl	CyDelayUs
 5285              	.LVL677:
 5286              	.L298:
2334:AS76.c        ****             {
 5287              		.loc 1 2334 0
 5288 00cc 374B     		ldr	r3, .L307+4
 5289 00ce 1B78     		ldrb	r3, [r3]	@ zero_extendqisi2
 5290 00d0 13F0200F 		tst	r3, #32
 5291 00d4 CBD0     		beq	.L301
2353:AS76.c        ****             }
2354:AS76.c        ****             wait_timer_Stop();
 5292              		.loc 1 2354 0
 5293 00d6 FFF7FEFF 		bl	wait_timer_Stop
 5294              	.LVL678:
2355:AS76.c        ****             exit_loop =0;
 5295              		.loc 1 2355 0
 5296 00da 0022     		movs	r2, #0
 5297 00dc 354B     		ldr	r3, .L307+12
 5298 00de 9A70     		strb	r2, [r3, #2]
 5299 00e0 4CE0     		b	.L296
 5300              	.LVL679:
 5301              	.L297:
2356:AS76.c        ****         //WaitTillPositionReached(TMC5160_nCS_MotorO);
2357:AS76.c        ****         //Write_32bitSPI_DATA (0x20  , (int) 0x00000001, TMC5160_nCS_MotorO );
2358:AS76.c        ****     }
2359:AS76.c        ****     else
2360:AS76.c        ****     {
2361:AS76.c        ****     time_ms = 0-time_ms;
2362:AS76.c        ****     GotoPos(time_ms, TMC5160_nCS_MotorO);
 5302              		.loc 1 2362 0
 5303 00e2 0421     		movs	r1, #4
 5304 00e4 6842     		negs	r0, r5
 5305              	.LVL680:
 5306 00e6 FFF7FEFF 		bl	GotoPos
ARM GAS  C:\Users\Revanth\AppData\Local\Temp\ccbqjHa5.s 			page 148


 5307              	.LVL681:
2363:AS76.c        ****     Read_32bitSPI_DATA(0x04, TMC5160_nCS_MotorO, &status_x); // Read the status register of TMC5160
 5308              		.loc 1 2363 0
 5309 00ea 304C     		ldr	r4, .L307+4
 5310              	.LVL682:
 5311 00ec 2246     		mov	r2, r4
 5312 00ee 0421     		movs	r1, #4
 5313 00f0 0846     		mov	r0, r1
 5314 00f2 FFF7FEFF 		bl	Read_32bitSPI_DATA
 5315              	.LVL683:
2364:AS76.c        ****     CyDelayUs(500);
 5316              		.loc 1 2364 0
 5317 00f6 4FF4FA70 		mov	r0, #500
 5318 00fa FFF7FEFF 		bl	CyDelayUs
 5319              	.LVL684:
2365:AS76.c        ****     Read_32bitSPI_DATA(0x04, TMC5160_nCS_MotorO, &status_x); // Read the status register of TMC5160
 5320              		.loc 1 2365 0
 5321 00fe 2246     		mov	r2, r4
 5322 0100 0421     		movs	r1, #4
 5323 0102 0846     		mov	r0, r1
 5324 0104 FFF7FEFF 		bl	Read_32bitSPI_DATA
 5325              	.LVL685:
2366:AS76.c        ****     while ( (status_x & 0x20) == 0x00) // Check if target position is reached or not
 5326              		.loc 1 2366 0
 5327 0108 2EE0     		b	.L302
 5328              	.L304:
2367:AS76.c        ****         {
2368:AS76.c        ****          wait_timer_Start();
 5329              		.loc 1 2368 0
 5330 010a FFF7FEFF 		bl	wait_timer_Start
 5331              	.LVL686:
2369:AS76.c        ****          wait_interrupt_StartEx(wait_interrupt_Handler);
 5332              		.loc 1 2369 0
 5333 010e 2848     		ldr	r0, .L307+8
 5334 0110 FFF7FEFF 		bl	wait_interrupt_StartEx
 5335              	.LVL687:
2370:AS76.c        ****          Read_32bitSPI_DATA(0x04, TMC5160_nCS_MotorO, &status_x); // Read the status register of TM
 5336              		.loc 1 2370 0
 5337 0114 254A     		ldr	r2, .L307+4
 5338 0116 0421     		movs	r1, #4
 5339 0118 0846     		mov	r0, r1
 5340 011a FFF7FEFF 		bl	Read_32bitSPI_DATA
 5341              	.LVL688:
2371:AS76.c        ****          if(exit_loop == 1)
 5342              		.loc 1 2371 0
 5343 011e 254B     		ldr	r3, .L307+12
 5344 0120 9B78     		ldrb	r3, [r3, #2]	@ zero_extendqisi2
 5345 0122 F3B1     		cbz	r3, .L303
2372:AS76.c        ****             {
2373:AS76.c        ****             Send_Feedback_to_USB(X_Homing_Not_Done_Yet);
 5346              		.loc 1 2373 0
 5347 0124 4FF61D20 		movw	r0, #64029
 5348 0128 FFF7FEFF 		bl	Send_Feedback_to_USB
 5349              	.LVL689:
2374:AS76.c        ****             wait_timer_Stop();
 5350              		.loc 1 2374 0
 5351 012c FFF7FEFF 		bl	wait_timer_Stop
ARM GAS  C:\Users\Revanth\AppData\Local\Temp\ccbqjHa5.s 			page 149


 5352              	.LVL690:
2375:AS76.c        ****             Write_32bitSPI_DATA (0x20  , (int) 0x00000000, TMC5160_nCS_MotorO );
 5353              		.loc 1 2375 0
 5354 0130 0422     		movs	r2, #4
 5355 0132 0021     		movs	r1, #0
 5356 0134 2020     		movs	r0, #32
 5357 0136 FFF7FEFF 		bl	Write_32bitSPI_DATA
 5358              	.LVL691:
2376:AS76.c        ****             Write_32bitSPI_DATA (0x21  , (int) 0x0000000, TMC5160_nCS_MotorO); // Mark the current 
 5359              		.loc 1 2376 0
 5360 013a 0422     		movs	r2, #4
 5361 013c 0021     		movs	r1, #0
 5362 013e 2120     		movs	r0, #33
 5363 0140 FFF7FEFF 		bl	Write_32bitSPI_DATA
 5364              	.LVL692:
2377:AS76.c        ****             Write_32bitSPI_DATA (0x2D  , 0x00000000, TMC5160_nCS_MotorO ); // Set thye target posit
 5365              		.loc 1 2377 0
 5366 0144 0422     		movs	r2, #4
 5367 0146 0021     		movs	r1, #0
 5368 0148 2D20     		movs	r0, #45
 5369 014a FFF7FEFF 		bl	Write_32bitSPI_DATA
 5370              	.LVL693:
2378:AS76.c        ****             exit_loop = 0;
 5371              		.loc 1 2378 0
 5372 014e 194C     		ldr	r4, .L307+12
 5373 0150 0023     		movs	r3, #0
 5374 0152 A370     		strb	r3, [r4, #2]
2379:AS76.c        ****             Error = 33;
 5375              		.loc 1 2379 0
 5376 0154 2123     		movs	r3, #33
 5377 0156 6362     		str	r3, [r4, #36]
2380:AS76.c        ****             TMC5160_MotorO_EN_Write(0xFF);
 5378              		.loc 1 2380 0
 5379 0158 FF20     		movs	r0, #255
 5380 015a FFF7FEFF 		bl	TMC5160_MotorO_EN_Write
 5381              	.LVL694:
2381:AS76.c        ****             return Error;
 5382              		.loc 1 2381 0
 5383 015e 606A     		ldr	r0, [r4, #36]
 5384 0160 38BD     		pop	{r3, r4, r5, pc}
 5385              	.LVL695:
 5386              	.L303:
2382:AS76.c        ****             //break;
2383:AS76.c        ****             }
2384:AS76.c        ****          CyDelayUs(100);       
 5387              		.loc 1 2384 0
 5388 0162 6420     		movs	r0, #100
 5389 0164 FFF7FEFF 		bl	CyDelayUs
 5390              	.LVL696:
 5391              	.L302:
2366:AS76.c        ****         {
 5392              		.loc 1 2366 0
 5393 0168 104B     		ldr	r3, .L307+4
 5394 016a 1B78     		ldrb	r3, [r3]	@ zero_extendqisi2
 5395 016c 13F0200F 		tst	r3, #32
 5396 0170 CBD0     		beq	.L304
2385:AS76.c        ****         }
ARM GAS  C:\Users\Revanth\AppData\Local\Temp\ccbqjHa5.s 			page 150


2386:AS76.c        ****         wait_timer_Stop();
 5397              		.loc 1 2386 0
 5398 0172 FFF7FEFF 		bl	wait_timer_Stop
 5399              	.LVL697:
2387:AS76.c        ****         exit_loop =0;
 5400              		.loc 1 2387 0
 5401 0176 0022     		movs	r2, #0
 5402 0178 0E4B     		ldr	r3, .L307+12
 5403 017a 9A70     		strb	r2, [r3, #2]
 5404              	.LVL698:
 5405              	.L296:
2388:AS76.c        ****     
2389:AS76.c        ****     //WaitTillPositionReached(TMC5160_nCS_MotorO);
2390:AS76.c        ****     //Write_32bitSPI_DATA (0x20  , (int) 0x00000002, TMC5160_nCS_MotorO );
2391:AS76.c        ****     }
2392:AS76.c        ****     }
2393:AS76.c        ****     //CyDelay(time_ms);
2394:AS76.c        ****     time_ms = 0;
2395:AS76.c        ****     update_max_velocity(0x00, TMC5160_nCS_MotorO);
 5406              		.loc 1 2395 0
 5407 017c 0421     		movs	r1, #4
 5408 017e 0020     		movs	r0, #0
 5409 0180 FFF7FEFF 		bl	update_max_velocity
 5410              	.LVL699:
2396:AS76.c        ****     Write_32bitSPI_DATA (0x21  , (int) 0x00000000, TMC5160_nCS_MotorO );
 5411              		.loc 1 2396 0
 5412 0184 0422     		movs	r2, #4
 5413 0186 0021     		movs	r1, #0
 5414 0188 2120     		movs	r0, #33
 5415 018a FFF7FEFF 		bl	Write_32bitSPI_DATA
 5416              	.LVL700:
2397:AS76.c        ****     Write_32bitSPI_DATA (0x20  , (int) 0x00000000, TMC5160_nCS_MotorO );
 5417              		.loc 1 2397 0
 5418 018e 0422     		movs	r2, #4
 5419 0190 0021     		movs	r1, #0
 5420 0192 2020     		movs	r0, #32
 5421 0194 FFF7FEFF 		bl	Write_32bitSPI_DATA
 5422              	.LVL701:
2398:AS76.c        ****     CyDelay(5);
 5423              		.loc 1 2398 0
 5424 0198 0520     		movs	r0, #5
 5425 019a FFF7FEFF 		bl	CyDelay
 5426              	.LVL702:
2399:AS76.c        ****     TMC5160_MotorO_EN_Write(0xFF);
 5427              		.loc 1 2399 0
 5428 019e FF20     		movs	r0, #255
 5429 01a0 FFF7FEFF 		bl	TMC5160_MotorO_EN_Write
 5430              	.LVL703:
2400:AS76.c        ****     return 0;
 5431              		.loc 1 2400 0
 5432 01a4 0020     		movs	r0, #0
2401:AS76.c        **** }
 5433              		.loc 1 2401 0
 5434 01a6 38BD     		pop	{r3, r4, r5, pc}
 5435              	.L308:
 5436              		.align	2
 5437              	.L307:
ARM GAS  C:\Users\Revanth\AppData\Local\Temp\ccbqjHa5.s 			page 151


 5438 01a8 6EA30100 		.word	107374
 5439 01ac 00000000 		.word	status_x
 5440 01b0 00000000 		.word	wait_interrupt_Handler
 5441 01b4 00000000 		.word	.LANCHOR0
 5442              		.cfi_endproc
 5443              	.LFE110:
 5444              		.size	run_pump, .-run_pump
 5445              		.section	.text.run_pumpvs,"ax",%progbits
 5446              		.align	2
 5447              		.global	run_pumpvs
 5448              		.thumb
 5449              		.thumb_func
 5450              		.type	run_pumpvs, %function
 5451              	run_pumpvs:
 5452              	.LFB111:
2402:AS76.c        **** int run_pumpvs (int time_ms, int speed, uint8_t direction)
2403:AS76.c        **** {
 5453              		.loc 1 2403 0
 5454              		.cfi_startproc
 5455              		@ args = 0, pretend = 0, frame = 0
 5456              		@ frame_needed = 0, uses_anonymous_args = 0
 5457              	.LVL704:
 5458 0000 70B5     		push	{r4, r5, r6, lr}
 5459              		.cfi_def_cfa_offset 16
 5460              		.cfi_offset 4, -16
 5461              		.cfi_offset 5, -12
 5462              		.cfi_offset 6, -8
 5463              		.cfi_offset 14, -4
 5464 0002 0646     		mov	r6, r0
 5465 0004 0D46     		mov	r5, r1
 5466 0006 1446     		mov	r4, r2
2404:AS76.c        ****     Write_32bitSPI_DATA (0x20  , (int) 0x00000000, TMC5160_nCS_MotorO );
 5467              		.loc 1 2404 0
 5468 0008 0422     		movs	r2, #4
 5469              	.LVL705:
 5470 000a 0021     		movs	r1, #0
 5471              	.LVL706:
 5472 000c 2020     		movs	r0, #32
 5473              	.LVL707:
 5474 000e FFF7FEFF 		bl	Write_32bitSPI_DATA
 5475              	.LVL708:
2405:AS76.c        ****     Write_32bitSPI_DATA (0x21  , (int) 0x00000000, TMC5160_nCS_MotorO );
 5476              		.loc 1 2405 0
 5477 0012 0422     		movs	r2, #4
 5478 0014 0021     		movs	r1, #0
 5479 0016 2120     		movs	r0, #33
 5480 0018 FFF7FEFF 		bl	Write_32bitSPI_DATA
 5481              	.LVL709:
2406:AS76.c        ****     update_max_velocity(speed, TMC5160_nCS_MotorO);
 5482              		.loc 1 2406 0
 5483 001c 0421     		movs	r1, #4
 5484 001e 2846     		mov	r0, r5
 5485 0020 FFF7FEFF 		bl	update_max_velocity
 5486              	.LVL710:
2407:AS76.c        ****     TMC5160_MotorO_EN_Write(0x00);
 5487              		.loc 1 2407 0
 5488 0024 0020     		movs	r0, #0
ARM GAS  C:\Users\Revanth\AppData\Local\Temp\ccbqjHa5.s 			page 152


 5489 0026 FFF7FEFF 		bl	TMC5160_MotorO_EN_Write
 5490              	.LVL711:
2408:AS76.c        ****     CyDelay(10);
 5491              		.loc 1 2408 0
 5492 002a 0A20     		movs	r0, #10
 5493 002c FFF7FEFF 		bl	CyDelay
 5494              	.LVL712:
2409:AS76.c        ****     if( (direction == 0x00) || (direction == 0x01))
 5495              		.loc 1 2409 0
 5496 0030 012C     		cmp	r4, #1
 5497 0032 0FD8     		bhi	.L310
2410:AS76.c        ****     {
2411:AS76.c        ****     if(direction == 0x00)
 5498              		.loc 1 2411 0
 5499 0034 3CB9     		cbnz	r4, .L311
2412:AS76.c        ****     {
2413:AS76.c        ****         GotoPos(time_ms, TMC5160_nCS_MotorO);
 5500              		.loc 1 2413 0
 5501 0036 0421     		movs	r1, #4
 5502 0038 3046     		mov	r0, r6
 5503 003a FFF7FEFF 		bl	GotoPos
 5504              	.LVL713:
2414:AS76.c        ****         WaitTillPositionReached(TMC5160_nCS_MotorO);
 5505              		.loc 1 2414 0
 5506 003e 0420     		movs	r0, #4
 5507 0040 FFF7FEFF 		bl	WaitTillPositionReached
 5508              	.LVL714:
 5509 0044 06E0     		b	.L310
 5510              	.L311:
 5511              	.LVL715:
2415:AS76.c        ****         //Write_32bitSPI_DATA (0x20  , (int) 0x00000001, TMC5160_nCS_MotorO );
2416:AS76.c        ****     }
2417:AS76.c        ****     else
2418:AS76.c        ****     {
2419:AS76.c        ****         time_ms = 0-time_ms;
2420:AS76.c        ****         GotoPos(time_ms, TMC5160_nCS_MotorO);
 5512              		.loc 1 2420 0
 5513 0046 0421     		movs	r1, #4
 5514 0048 7042     		negs	r0, r6
 5515              	.LVL716:
 5516 004a FFF7FEFF 		bl	GotoPos
 5517              	.LVL717:
2421:AS76.c        ****         WaitTillPositionReached(TMC5160_nCS_MotorO);
 5518              		.loc 1 2421 0
 5519 004e 0420     		movs	r0, #4
 5520 0050 FFF7FEFF 		bl	WaitTillPositionReached
 5521              	.LVL718:
 5522              	.L310:
2422:AS76.c        ****         //Write_32bitSPI_DATA (0x20  , (int) 0x00000002, TMC5160_nCS_MotorO );
2423:AS76.c        ****     }
2424:AS76.c        ****     }
2425:AS76.c        ****     //CyDelay(time_ms);
2426:AS76.c        ****     update_max_velocity(0x00, TMC5160_nCS_MotorO);
 5523              		.loc 1 2426 0
 5524 0054 0421     		movs	r1, #4
 5525 0056 0020     		movs	r0, #0
 5526 0058 FFF7FEFF 		bl	update_max_velocity
ARM GAS  C:\Users\Revanth\AppData\Local\Temp\ccbqjHa5.s 			page 153


 5527              	.LVL719:
2427:AS76.c        ****     Write_32bitSPI_DATA (0x21  , (int) 0x00000000, TMC5160_nCS_MotorO );
 5528              		.loc 1 2427 0
 5529 005c 0422     		movs	r2, #4
 5530 005e 0021     		movs	r1, #0
 5531 0060 2120     		movs	r0, #33
 5532 0062 FFF7FEFF 		bl	Write_32bitSPI_DATA
 5533              	.LVL720:
2428:AS76.c        ****     Write_32bitSPI_DATA (0x20  , (int) 0x00000001, TMC5160_nCS_MotorO );
 5534              		.loc 1 2428 0
 5535 0066 0422     		movs	r2, #4
 5536 0068 0121     		movs	r1, #1
 5537 006a 2020     		movs	r0, #32
 5538 006c FFF7FEFF 		bl	Write_32bitSPI_DATA
 5539              	.LVL721:
2429:AS76.c        ****     CyDelay(5);
 5540              		.loc 1 2429 0
 5541 0070 0520     		movs	r0, #5
 5542 0072 FFF7FEFF 		bl	CyDelay
 5543              	.LVL722:
2430:AS76.c        ****     TMC5160_MotorO_EN_Write(0xFF);
 5544              		.loc 1 2430 0
 5545 0076 FF20     		movs	r0, #255
 5546 0078 FFF7FEFF 		bl	TMC5160_MotorO_EN_Write
 5547              	.LVL723:
2431:AS76.c        ****     return 0;
2432:AS76.c        **** }
 5548              		.loc 1 2432 0
 5549 007c 0020     		movs	r0, #0
 5550 007e 70BD     		pop	{r4, r5, r6, pc}
 5551              		.cfi_endproc
 5552              	.LFE111:
 5553              		.size	run_pumpvs, .-run_pumpvs
 5554              		.section	.text.Process_USB_Data,"ax",%progbits
 5555              		.align	2
 5556              		.global	Process_USB_Data
 5557              		.thumb
 5558              		.thumb_func
 5559              		.type	Process_USB_Data, %function
 5560              	Process_USB_Data:
 5561              	.LFB91:
1237:AS76.c        ****     //Pin_USB_RX_TX_Indicator_LED_Write(1); /* turn ON LED as a indicator to start process the comm
 5562              		.loc 1 1237 0
 5563              		.cfi_startproc
 5564              		@ args = 0, pretend = 0, frame = 0
 5565              		@ frame_needed = 0, uses_anonymous_args = 0
 5566 0000 38B5     		push	{r3, r4, r5, lr}
 5567              		.cfi_def_cfa_offset 16
 5568              		.cfi_offset 3, -16
 5569              		.cfi_offset 4, -12
 5570              		.cfi_offset 5, -8
 5571              		.cfi_offset 14, -4
1239:AS76.c        ****     command = ((unsigned int)USB_received[1] << 8) + USB_received[0];   /* Reading USB data. */
 5572              		.loc 1 1239 0
 5573 0002 0022     		movs	r2, #0
 5574 0004 C44B     		ldr	r3, .L353+8
 5575 0006 5A62     		str	r2, [r3, #36]
ARM GAS  C:\Users\Revanth\AppData\Local\Temp\ccbqjHa5.s 			page 154


1240:AS76.c        ****     /*Compare USB data and execute the command*/
 5576              		.loc 1 1240 0
 5577 0008 C44A     		ldr	r2, .L353+12
 5578 000a 5178     		ldrb	r1, [r2, #1]	@ zero_extendqisi2
 5579 000c 1378     		ldrb	r3, [r2]	@ zero_extendqisi2
 5580 000e 03EB0123 		add	r3, r3, r1, lsl #8
 5581 0012 C34A     		ldr	r2, .L353+16
 5582 0014 1360     		str	r3, [r2]
1243:AS76.c        ****     {
 5583              		.loc 1 1243 0
 5584 0016 7A2B     		cmp	r3, #122
 5585 0018 4DD1     		bne	.L314
1245:AS76.c        ****         CyDelayUs(500);
 5586              		.loc 1 1245 0
 5587 001a FF20     		movs	r0, #255
 5588 001c FFF7FEFF 		bl	TMC5160_MotorZ_EN_Write
 5589              	.LVL724:
1246:AS76.c        ****         TMC5160_MotorY_EN_Write(0xFF);
 5590              		.loc 1 1246 0
 5591 0020 4FF4FA70 		mov	r0, #500
 5592 0024 FFF7FEFF 		bl	CyDelayUs
 5593              	.LVL725:
1247:AS76.c        ****         CyDelayUs(500);
 5594              		.loc 1 1247 0
 5595 0028 FF20     		movs	r0, #255
 5596 002a FFF7FEFF 		bl	TMC5160_MotorY_EN_Write
 5597              	.LVL726:
1248:AS76.c        ****         TMC5160_MotorX_EN_Write(0x00);
 5598              		.loc 1 1248 0
 5599 002e 4FF4FA70 		mov	r0, #500
 5600 0032 FFF7FEFF 		bl	CyDelayUs
 5601              	.LVL727:
1249:AS76.c        ****         CyDelayUs(500);
 5602              		.loc 1 1249 0
 5603 0036 0020     		movs	r0, #0
 5604 0038 FFF7FEFF 		bl	TMC5160_MotorX_EN_Write
 5605              	.LVL728:
1250:AS76.c        ****         update_max_velocity(381178, TMC5160_nCS_MotorX);
 5606              		.loc 1 1250 0
 5607 003c 4FF4FA70 		mov	r0, #500
 5608 0040 FFF7FEFF 		bl	CyDelayUs
 5609              	.LVL729:
1251:AS76.c        ****         //Write_32bitSPI_DATA (0x26  , (int) 45000, TMC5160_nCS_MotorX );
 5610              		.loc 1 1251 0
 5611 0044 0021     		movs	r1, #0
 5612 0046 B748     		ldr	r0, .L353+20
 5613 0048 FFF7FEFF 		bl	update_max_velocity
 5614              	.LVL730:
1253:AS76.c        ****         goTo_X(0);
 5615              		.loc 1 1253 0
 5616 004c 0120     		movs	r0, #1
 5617 004e FFF7FEFF 		bl	CyDelay
 5618              	.LVL731:
1254:AS76.c        ****         Write_32bitSPI_DATA (0x10  , (int) 0x00070101, TMC5160_nCS_MotorY );
 5619              		.loc 1 1254 0
 5620 0052 0020     		movs	r0, #0
 5621 0054 FFF7FEFF 		bl	goTo_X
ARM GAS  C:\Users\Revanth\AppData\Local\Temp\ccbqjHa5.s 			page 155


 5622              	.LVL732:
1255:AS76.c        ****         Write_32bitSPI_DATA (0x10  , (int) 0x00070101, TMC5160_nCS_MotorZ );
 5623              		.loc 1 1255 0
 5624 0058 B34C     		ldr	r4, .L353+24
 5625 005a 0122     		movs	r2, #1
 5626 005c 2146     		mov	r1, r4
 5627 005e 1020     		movs	r0, #16
 5628 0060 FFF7FEFF 		bl	Write_32bitSPI_DATA
 5629              	.LVL733:
1256:AS76.c        ****         Write_32bitSPI_DATA (0x10  , (int) 0x00070407, TMC5160_nCS_MotorX );
 5630              		.loc 1 1256 0
 5631 0064 0222     		movs	r2, #2
 5632 0066 2146     		mov	r1, r4
 5633 0068 1020     		movs	r0, #16
 5634 006a FFF7FEFF 		bl	Write_32bitSPI_DATA
 5635              	.LVL734:
1257:AS76.c        ****         homeX(TMC5160_nCS_MotorX);   
 5636              		.loc 1 1257 0
 5637 006e 0022     		movs	r2, #0
 5638 0070 AE49     		ldr	r1, .L353+28
 5639 0072 1020     		movs	r0, #16
 5640 0074 FFF7FEFF 		bl	Write_32bitSPI_DATA
 5641              	.LVL735:
1258:AS76.c        ****         //Write_32bitSPI_DATA (0x26  , (int) 0x0000FFFF, TMC5160_nCS_MotorX );
 5642              		.loc 1 1258 0
 5643 0078 0020     		movs	r0, #0
 5644 007a FFF7FEFF 		bl	homeX
 5645              	.LVL736:
1260:AS76.c        ****         CyDelayUs(500);
 5646              		.loc 1 1260 0
 5647 007e 0022     		movs	r2, #0
 5648 0080 AB49     		ldr	r1, .L353+32
 5649 0082 1020     		movs	r0, #16
 5650 0084 FFF7FEFF 		bl	Write_32bitSPI_DATA
 5651              	.LVL737:
1261:AS76.c        ****         TMC5160_MotorZ_EN_Write(0x00);
 5652              		.loc 1 1261 0
 5653 0088 4FF4FA70 		mov	r0, #500
 5654 008c FFF7FEFF 		bl	CyDelayUs
 5655              	.LVL738:
1262:AS76.c        ****         CyDelayUs(500);
 5656              		.loc 1 1262 0
 5657 0090 0020     		movs	r0, #0
 5658 0092 FFF7FEFF 		bl	TMC5160_MotorZ_EN_Write
 5659              	.LVL739:
1263:AS76.c        ****         TMC5160_MotorY_EN_Write(0x00);
 5660              		.loc 1 1263 0
 5661 0096 4FF4FA70 		mov	r0, #500
 5662 009a FFF7FEFF 		bl	CyDelayUs
 5663              	.LVL740:
1264:AS76.c        ****         CyDelayUs(500);
 5664              		.loc 1 1264 0
 5665 009e 0020     		movs	r0, #0
 5666 00a0 FFF7FEFF 		bl	TMC5160_MotorY_EN_Write
 5667              	.LVL741:
1265:AS76.c        ****         Send_Feedback_to_USB(Error);
 5668              		.loc 1 1265 0
ARM GAS  C:\Users\Revanth\AppData\Local\Temp\ccbqjHa5.s 			page 156


 5669 00a4 4FF4FA70 		mov	r0, #500
 5670 00a8 FFF7FEFF 		bl	CyDelayUs
 5671              	.LVL742:
1266:AS76.c        ****     
 5672              		.loc 1 1266 0
 5673 00ac 9A4B     		ldr	r3, .L353+8
 5674 00ae 586A     		ldr	r0, [r3, #36]
 5675 00b0 FFF7FEFF 		bl	Send_Feedback_to_USB
 5676              	.LVL743:
 5677 00b4 38BD     		pop	{r3, r4, r5, pc}
 5678              	.L314:
1269:AS76.c        ****     {
 5679              		.loc 1 1269 0
 5680 00b6 7B2B     		cmp	r3, #123
 5681 00b8 4DD1     		bne	.L316
1271:AS76.c        ****         CyDelayUs(500);
 5682              		.loc 1 1271 0
 5683 00ba FF20     		movs	r0, #255
 5684 00bc FFF7FEFF 		bl	TMC5160_MotorZ_EN_Write
 5685              	.LVL744:
1272:AS76.c        ****         TMC5160_MotorX_EN_Write(0xFF);
 5686              		.loc 1 1272 0
 5687 00c0 4FF4FA70 		mov	r0, #500
 5688 00c4 FFF7FEFF 		bl	CyDelayUs
 5689              	.LVL745:
1273:AS76.c        ****         CyDelayUs(500);
 5690              		.loc 1 1273 0
 5691 00c8 FF20     		movs	r0, #255
 5692 00ca FFF7FEFF 		bl	TMC5160_MotorX_EN_Write
 5693              	.LVL746:
1274:AS76.c        ****         TMC5160_MotorY_EN_Write(0x00);
 5694              		.loc 1 1274 0
 5695 00ce 4FF4FA70 		mov	r0, #500
 5696 00d2 FFF7FEFF 		bl	CyDelayUs
 5697              	.LVL747:
1275:AS76.c        ****         CyDelayUs(500);
 5698              		.loc 1 1275 0
 5699 00d6 0020     		movs	r0, #0
 5700 00d8 FFF7FEFF 		bl	TMC5160_MotorY_EN_Write
 5701              	.LVL748:
1276:AS76.c        ****         //Write_32bitSPI_DATA (0x26  , (int) 45000, TMC5160_nCS_MotorY );
 5702              		.loc 1 1276 0
 5703 00dc 4FF4FA70 		mov	r0, #500
 5704 00e0 FFF7FEFF 		bl	CyDelayUs
 5705              	.LVL749:
1278:AS76.c        ****         CyDelay(1);
 5706              		.loc 1 1278 0
 5707 00e4 0121     		movs	r1, #1
 5708 00e6 8F48     		ldr	r0, .L353+20
 5709 00e8 FFF7FEFF 		bl	update_max_velocity
 5710              	.LVL750:
1279:AS76.c        ****         goTo_Y(0);
 5711              		.loc 1 1279 0
 5712 00ec 0120     		movs	r0, #1
 5713 00ee FFF7FEFF 		bl	CyDelay
 5714              	.LVL751:
1280:AS76.c        ****         Write_32bitSPI_DATA (0x10  , (int) 0x00070203, TMC5160_nCS_MotorY );
ARM GAS  C:\Users\Revanth\AppData\Local\Temp\ccbqjHa5.s 			page 157


 5715              		.loc 1 1280 0
 5716 00f2 0020     		movs	r0, #0
 5717 00f4 FFF7FEFF 		bl	goTo_Y
 5718              	.LVL752:
1281:AS76.c        ****         Write_32bitSPI_DATA (0x10  , (int) 0x00070101, TMC5160_nCS_MotorZ );
 5719              		.loc 1 1281 0
 5720 00f8 0122     		movs	r2, #1
 5721 00fa 8E49     		ldr	r1, .L353+36
 5722 00fc 1020     		movs	r0, #16
 5723 00fe FFF7FEFF 		bl	Write_32bitSPI_DATA
 5724              	.LVL753:
1282:AS76.c        ****         Write_32bitSPI_DATA (0x10  , (int) 0x00070301, TMC5160_nCS_MotorX );
 5725              		.loc 1 1282 0
 5726 0102 0222     		movs	r2, #2
 5727 0104 8849     		ldr	r1, .L353+24
 5728 0106 1020     		movs	r0, #16
 5729 0108 FFF7FEFF 		bl	Write_32bitSPI_DATA
 5730              	.LVL754:
1283:AS76.c        ****         homeY(TMC5160_nCS_MotorY);
 5731              		.loc 1 1283 0
 5732 010c 884C     		ldr	r4, .L353+32
 5733 010e 0022     		movs	r2, #0
 5734 0110 2146     		mov	r1, r4
 5735 0112 1020     		movs	r0, #16
 5736 0114 FFF7FEFF 		bl	Write_32bitSPI_DATA
 5737              	.LVL755:
1284:AS76.c        ****         Write_32bitSPI_DATA (0x10  , (int) 0x00070301, TMC5160_nCS_MotorY );
 5738              		.loc 1 1284 0
 5739 0118 0120     		movs	r0, #1
 5740 011a FFF7FEFF 		bl	homeY
 5741              	.LVL756:
1285:AS76.c        ****         CyDelayUs(500);
 5742              		.loc 1 1285 0
 5743 011e 0122     		movs	r2, #1
 5744 0120 2146     		mov	r1, r4
 5745 0122 1020     		movs	r0, #16
 5746 0124 FFF7FEFF 		bl	Write_32bitSPI_DATA
 5747              	.LVL757:
1286:AS76.c        ****         TMC5160_MotorZ_EN_Write(0x00);
 5748              		.loc 1 1286 0
 5749 0128 4FF4FA70 		mov	r0, #500
 5750 012c FFF7FEFF 		bl	CyDelayUs
 5751              	.LVL758:
1287:AS76.c        ****         CyDelayUs(500);
 5752              		.loc 1 1287 0
 5753 0130 0020     		movs	r0, #0
 5754 0132 FFF7FEFF 		bl	TMC5160_MotorZ_EN_Write
 5755              	.LVL759:
1288:AS76.c        ****         TMC5160_MotorX_EN_Write(0x00);
 5756              		.loc 1 1288 0
 5757 0136 4FF4FA70 		mov	r0, #500
 5758 013a FFF7FEFF 		bl	CyDelayUs
 5759              	.LVL760:
1289:AS76.c        ****         CyDelayUs(500);
 5760              		.loc 1 1289 0
 5761 013e 0020     		movs	r0, #0
 5762 0140 FFF7FEFF 		bl	TMC5160_MotorX_EN_Write
ARM GAS  C:\Users\Revanth\AppData\Local\Temp\ccbqjHa5.s 			page 158


 5763              	.LVL761:
1290:AS76.c        ****         Send_Feedback_to_USB(Error);
 5764              		.loc 1 1290 0
 5765 0144 4FF4FA70 		mov	r0, #500
 5766 0148 FFF7FEFF 		bl	CyDelayUs
 5767              	.LVL762:
1291:AS76.c        ****         
 5768              		.loc 1 1291 0
 5769 014c 724B     		ldr	r3, .L353+8
 5770 014e 586A     		ldr	r0, [r3, #36]
 5771 0150 FFF7FEFF 		bl	Send_Feedback_to_USB
 5772              	.LVL763:
 5773 0154 38BD     		pop	{r3, r4, r5, pc}
 5774              	.L316:
1294:AS76.c        ****     {
 5775              		.loc 1 1294 0
 5776 0156 7C2B     		cmp	r3, #124
 5777 0158 3FD1     		bne	.L317
1296:AS76.c        ****         CyDelayUs(500);
 5778              		.loc 1 1296 0
 5779 015a FF20     		movs	r0, #255
 5780 015c FFF7FEFF 		bl	TMC5160_MotorY_EN_Write
 5781              	.LVL764:
1297:AS76.c        ****         TMC5160_MotorX_EN_Write(0xFF);
 5782              		.loc 1 1297 0
 5783 0160 4FF4FA70 		mov	r0, #500
 5784 0164 FFF7FEFF 		bl	CyDelayUs
 5785              	.LVL765:
1298:AS76.c        ****         CyDelayUs(500);
 5786              		.loc 1 1298 0
 5787 0168 FF20     		movs	r0, #255
 5788 016a FFF7FEFF 		bl	TMC5160_MotorX_EN_Write
 5789              	.LVL766:
1299:AS76.c        ****         TMC5160_MotorZ_EN_Write(0x00);
 5790              		.loc 1 1299 0
 5791 016e 4FF4FA70 		mov	r0, #500
 5792 0172 FFF7FEFF 		bl	CyDelayUs
 5793              	.LVL767:
1300:AS76.c        ****         CyDelayUs(500);
 5794              		.loc 1 1300 0
 5795 0176 0020     		movs	r0, #0
 5796 0178 FFF7FEFF 		bl	TMC5160_MotorZ_EN_Write
 5797              	.LVL768:
1301:AS76.c        ****         //Write_32bitSPI_DATA (0x26  , (int) 45000, TMC5160_nCS_MotorZ );
 5798              		.loc 1 1301 0
 5799 017c 4FF4FA70 		mov	r0, #500
 5800 0180 FFF7FEFF 		bl	CyDelayUs
 5801              	.LVL769:
1303:AS76.c        ****         CyDelay(1);
 5802              		.loc 1 1303 0
 5803 0184 0221     		movs	r1, #2
 5804 0186 6C48     		ldr	r0, .L353+40
 5805 0188 FFF7FEFF 		bl	update_max_velocity
 5806              	.LVL770:
1304:AS76.c        ****         goTo_Z(0);
 5807              		.loc 1 1304 0
 5808 018c 0120     		movs	r0, #1
ARM GAS  C:\Users\Revanth\AppData\Local\Temp\ccbqjHa5.s 			page 159


 5809 018e FFF7FEFF 		bl	CyDelay
 5810              	.LVL771:
1305:AS76.c        ****         Write_32bitSPI_DATA (0x10  , (int) 0x00070101, TMC5160_nCS_MotorY );
 5811              		.loc 1 1305 0
 5812 0192 0020     		movs	r0, #0
 5813 0194 FFF7FEFF 		bl	goTo_Z
 5814              	.LVL772:
1306:AS76.c        ****         Write_32bitSPI_DATA (0x10  , (int) 0x00070303, TMC5160_nCS_MotorZ );
 5815              		.loc 1 1306 0
 5816 0198 0122     		movs	r2, #1
 5817 019a 6349     		ldr	r1, .L353+24
 5818 019c 1020     		movs	r0, #16
 5819 019e FFF7FEFF 		bl	Write_32bitSPI_DATA
 5820              	.LVL773:
1307:AS76.c        ****         Write_32bitSPI_DATA (0x10  , (int) 0x00070301, TMC5160_nCS_MotorX );
 5821              		.loc 1 1307 0
 5822 01a2 0222     		movs	r2, #2
 5823 01a4 6549     		ldr	r1, .L353+44
 5824 01a6 1020     		movs	r0, #16
 5825 01a8 FFF7FEFF 		bl	Write_32bitSPI_DATA
 5826              	.LVL774:
1308:AS76.c        ****         homeZ(TMC5160_nCS_MotorZ);
 5827              		.loc 1 1308 0
 5828 01ac 0022     		movs	r2, #0
 5829 01ae 6049     		ldr	r1, .L353+32
 5830 01b0 1020     		movs	r0, #16
 5831 01b2 FFF7FEFF 		bl	Write_32bitSPI_DATA
 5832              	.LVL775:
1309:AS76.c        ****         TMC5160_MotorY_EN_Write(0x00);
 5833              		.loc 1 1309 0
 5834 01b6 0220     		movs	r0, #2
 5835 01b8 FFF7FEFF 		bl	homeZ
 5836              	.LVL776:
1310:AS76.c        ****         CyDelayUs(500);
 5837              		.loc 1 1310 0
 5838 01bc 0020     		movs	r0, #0
 5839 01be FFF7FEFF 		bl	TMC5160_MotorY_EN_Write
 5840              	.LVL777:
1311:AS76.c        ****         TMC5160_MotorX_EN_Write(0x00);
 5841              		.loc 1 1311 0
 5842 01c2 4FF4FA70 		mov	r0, #500
 5843 01c6 FFF7FEFF 		bl	CyDelayUs
 5844              	.LVL778:
1312:AS76.c        ****         //Write_32bitSPI_DATA (0x26  , (int) 0x0000FFFF, TMC5160_nCS_MotorZ );
 5845              		.loc 1 1312 0
 5846 01ca 0020     		movs	r0, #0
 5847 01cc FFF7FEFF 		bl	TMC5160_MotorX_EN_Write
 5848              	.LVL779:
1314:AS76.c        ****     }
 5849              		.loc 1 1314 0
 5850 01d0 514B     		ldr	r3, .L353+8
 5851 01d2 586A     		ldr	r0, [r3, #36]
 5852 01d4 FFF7FEFF 		bl	Send_Feedback_to_USB
 5853              	.LVL780:
 5854 01d8 38BD     		pop	{r3, r4, r5, pc}
 5855              	.L317:
1316:AS76.c        ****     {
ARM GAS  C:\Users\Revanth\AppData\Local\Temp\ccbqjHa5.s 			page 160


 5856              		.loc 1 1316 0
 5857 01da 7D2B     		cmp	r3, #125
 5858 01dc 12D1     		bne	.L318
1318:AS76.c        ****         CyDelay(10);
 5859              		.loc 1 1318 0
 5860 01de 0322     		movs	r2, #3
 5861 01e0 5749     		ldr	r1, .L353+48
 5862 01e2 1020     		movs	r0, #16
 5863 01e4 FFF7FEFF 		bl	Write_32bitSPI_DATA
 5864              	.LVL781:
1319:AS76.c        ****         goTo_T(0);
 5865              		.loc 1 1319 0
 5866 01e8 0A20     		movs	r0, #10
 5867 01ea FFF7FEFF 		bl	CyDelay
 5868              	.LVL782:
1320:AS76.c        ****         homeT(TMC5160_nCS_MotorT);
 5869              		.loc 1 1320 0
 5870 01ee 0020     		movs	r0, #0
 5871 01f0 FFF7FEFF 		bl	goTo_T
 5872              	.LVL783:
1321:AS76.c        ****         Send_Feedback_to_USB(Error);
 5873              		.loc 1 1321 0
 5874 01f4 0320     		movs	r0, #3
 5875 01f6 FFF7FEFF 		bl	homeT
 5876              	.LVL784:
1322:AS76.c        ****     }
 5877              		.loc 1 1322 0
 5878 01fa 474B     		ldr	r3, .L353+8
 5879 01fc 586A     		ldr	r0, [r3, #36]
 5880 01fe FFF7FEFF 		bl	Send_Feedback_to_USB
 5881              	.LVL785:
 5882 0202 38BD     		pop	{r3, r4, r5, pc}
 5883              	.L318:
1324:AS76.c        ****     {
 5884              		.loc 1 1324 0
 5885 0204 B3F5F46F 		cmp	r3, #1952
 5886 0208 3ED1     		bne	.L319
1326:AS76.c        ****         
 5887              		.loc 1 1326 0
 5888 020a 444A     		ldr	r2, .L353+12
 5889 020c 5179     		ldrb	r1, [r2, #5]	@ zero_extendqisi2
 5890 020e 1379     		ldrb	r3, [r2, #4]	@ zero_extendqisi2
 5891 0210 1B04     		lsls	r3, r3, #16
 5892 0212 03EB0163 		add	r3, r3, r1, lsl #24
 5893 0216 D178     		ldrb	r1, [r2, #3]	@ zero_extendqisi2
 5894 0218 03EB0123 		add	r3, r3, r1, lsl #8
 5895 021c 9278     		ldrb	r2, [r2, #2]	@ zero_extendqisi2
 5896 021e 1344     		add	r3, r3, r2
1329:AS76.c        ****             Position_X_Requested = (int)Position_X_Requested * 12.8;
 5897              		.loc 1 1329 0
 5898 0220 1846     		mov	r0, r3
 5899 0222 002B     		cmp	r3, #0
 5900 0224 00DA     		bge	.L320
 5901 0226 D81C     		adds	r0, r3, #3
 5902              	.L320:
 5903 0228 3B4D     		ldr	r5, .L353+8
1330:AS76.c        ****             Error = goTo_X(Position_X_Requested);
ARM GAS  C:\Users\Revanth\AppData\Local\Temp\ccbqjHa5.s 			page 161


 5904              		.loc 1 1330 0
 5905 022a 8010     		asrs	r0, r0, #2
 5906 022c FFF7FEFF 		bl	__aeabi_i2d
 5907              	.LVL786:
 5908 0230 37A3     		adr	r3, .L353
 5909 0232 D3E90023 		ldrd	r2, [r3]
 5910 0236 FFF7FEFF 		bl	__aeabi_dmul
 5911              	.LVL787:
 5912 023a FFF7FEFF 		bl	__aeabi_d2iz
 5913              	.LVL788:
 5914 023e 2863     		str	r0, [r5, #48]
1331:AS76.c        ****         }
 5915              		.loc 1 1331 0
 5916 0240 FFF7FEFF 		bl	goTo_X
 5917              	.LVL789:
 5918 0244 6862     		str	r0, [r5, #36]
1337:AS76.c        ****         CyDelay(10);
 5919              		.loc 1 1337 0
 5920 0246 0022     		movs	r2, #0
 5921 0248 3E49     		ldr	r1, .L353+52
 5922 024a 1020     		movs	r0, #16
 5923 024c FFF7FEFF 		bl	Write_32bitSPI_DATA
 5924              	.LVL790:
1338:AS76.c        ****         Write_32bitSPI_DATA (0x10  , (int) 0x00070102, TMC5160_nCS_MotorY );
 5925              		.loc 1 1338 0
 5926 0250 0A20     		movs	r0, #10
 5927 0252 FFF7FEFF 		bl	CyDelay
 5928              	.LVL791:
1339:AS76.c        ****         Write_32bitSPI_DATA (0x10  , (int) 0x00070102, TMC5160_nCS_MotorZ );
 5929              		.loc 1 1339 0
 5930 0256 3C4C     		ldr	r4, .L353+56
 5931 0258 0122     		movs	r2, #1
 5932 025a 2146     		mov	r1, r4
 5933 025c 1020     		movs	r0, #16
 5934 025e FFF7FEFF 		bl	Write_32bitSPI_DATA
 5935              	.LVL792:
1340:AS76.c        ****         Write_32bitSPI_DATA (0x10  , (int) 0x00070102, TMC5160_nCS_MotorX );
 5936              		.loc 1 1340 0
 5937 0262 0222     		movs	r2, #2
 5938 0264 2146     		mov	r1, r4
 5939 0266 1020     		movs	r0, #16
 5940 0268 FFF7FEFF 		bl	Write_32bitSPI_DATA
 5941              	.LVL793:
1341:AS76.c        ****         Write_32bitSPI_DATA (0x10  , (int) 0x00070102, TMC5160_nCS_MotorT ); 
 5942              		.loc 1 1341 0
 5943 026c 0022     		movs	r2, #0
 5944 026e 2146     		mov	r1, r4
 5945 0270 1020     		movs	r0, #16
 5946 0272 FFF7FEFF 		bl	Write_32bitSPI_DATA
 5947              	.LVL794:
1342:AS76.c        ****         Send_Feedback_to_USB(Error);
 5948              		.loc 1 1342 0
 5949 0276 0322     		movs	r2, #3
 5950 0278 2146     		mov	r1, r4
 5951 027a 1020     		movs	r0, #16
 5952 027c FFF7FEFF 		bl	Write_32bitSPI_DATA
 5953              	.LVL795:
ARM GAS  C:\Users\Revanth\AppData\Local\Temp\ccbqjHa5.s 			page 162


1343:AS76.c        ****         
 5954              		.loc 1 1343 0
 5955 0280 686A     		ldr	r0, [r5, #36]
 5956 0282 FFF7FEFF 		bl	Send_Feedback_to_USB
 5957              	.LVL796:
 5958 0286 38BD     		pop	{r3, r4, r5, pc}
 5959              	.L319:
1347:AS76.c        ****     {
 5960              		.loc 1 1347 0
 5961 0288 B3F5F66F 		cmp	r3, #1968
 5962 028c 5ED1     		bne	.L321
1349:AS76.c        ****         Position_Y_Requested = (int)(Position_Y_Requested / 4);
 5963              		.loc 1 1349 0
 5964 028e 234A     		ldr	r2, .L353+12
 5965 0290 5179     		ldrb	r1, [r2, #5]	@ zero_extendqisi2
 5966 0292 1379     		ldrb	r3, [r2, #4]	@ zero_extendqisi2
 5967 0294 1B04     		lsls	r3, r3, #16
 5968 0296 03EB0163 		add	r3, r3, r1, lsl #24
 5969 029a D178     		ldrb	r1, [r2, #3]	@ zero_extendqisi2
 5970 029c 03EB0123 		add	r3, r3, r1, lsl #8
 5971 02a0 9278     		ldrb	r2, [r2, #2]	@ zero_extendqisi2
 5972 02a2 1344     		add	r3, r3, r2
1350:AS76.c        ****         Position_Y_Requested = (int)(Position_Y_Requested * 12.8);
 5973              		.loc 1 1350 0
 5974 02a4 1846     		mov	r0, r3
 5975 02a6 002B     		cmp	r3, #0
 5976 02a8 00DA     		bge	.L322
 5977 02aa D81C     		adds	r0, r3, #3
 5978              	.L322:
 5979 02ac 1A4D     		ldr	r5, .L353+8
1351:AS76.c        ****         Error = goTo_Y(Position_Y_Requested);
 5980              		.loc 1 1351 0
 5981 02ae 8010     		asrs	r0, r0, #2
 5982 02b0 FFF7FEFF 		bl	__aeabi_i2d
 5983              	.LVL797:
 5984 02b4 16A3     		adr	r3, .L353
 5985 02b6 D3E90023 		ldrd	r2, [r3]
 5986 02ba FFF7FEFF 		bl	__aeabi_dmul
 5987              	.LVL798:
 5988 02be FFF7FEFF 		bl	__aeabi_d2iz
 5989              	.LVL799:
 5990 02c2 6863     		str	r0, [r5, #52]
1352:AS76.c        ****                
 5991              		.loc 1 1352 0
 5992 02c4 FFF7FEFF 		bl	goTo_Y
 5993              	.LVL800:
 5994 02c8 6862     		str	r0, [r5, #36]
1354:AS76.c        ****         CyDelay(10);        
 5995              		.loc 1 1354 0
 5996 02ca 0122     		movs	r2, #1
 5997 02cc 1D49     		ldr	r1, .L353+52
 5998 02ce 1020     		movs	r0, #16
 5999 02d0 FFF7FEFF 		bl	Write_32bitSPI_DATA
 6000              	.LVL801:
1355:AS76.c        ****         Write_32bitSPI_DATA (0x10  , (int) 0x00070102, TMC5160_nCS_MotorY );
 6001              		.loc 1 1355 0
 6002 02d4 0A20     		movs	r0, #10
ARM GAS  C:\Users\Revanth\AppData\Local\Temp\ccbqjHa5.s 			page 163


 6003 02d6 FFF7FEFF 		bl	CyDelay
 6004              	.LVL802:
1356:AS76.c        ****         Write_32bitSPI_DATA (0x10  , (int) 0x00070102, TMC5160_nCS_MotorZ );
 6005              		.loc 1 1356 0
 6006 02da 1B4C     		ldr	r4, .L353+56
 6007 02dc 0122     		movs	r2, #1
 6008 02de 2146     		mov	r1, r4
 6009 02e0 1020     		movs	r0, #16
 6010 02e2 FFF7FEFF 		bl	Write_32bitSPI_DATA
 6011              	.LVL803:
1357:AS76.c        ****         Write_32bitSPI_DATA (0x10  , (int) 0x00070102, TMC5160_nCS_MotorX );
 6012              		.loc 1 1357 0
 6013 02e6 0222     		movs	r2, #2
 6014 02e8 2146     		mov	r1, r4
 6015 02ea 1020     		movs	r0, #16
 6016 02ec FFF7FEFF 		bl	Write_32bitSPI_DATA
 6017              	.LVL804:
1358:AS76.c        ****         Write_32bitSPI_DATA (0x10  , (int) 0x00070102, TMC5160_nCS_MotorT ); 
 6018              		.loc 1 1358 0
 6019 02f0 0022     		movs	r2, #0
 6020 02f2 2146     		mov	r1, r4
 6021 02f4 1020     		movs	r0, #16
 6022 02f6 FFF7FEFF 		bl	Write_32bitSPI_DATA
 6023              	.LVL805:
1359:AS76.c        ****         Send_Feedback_to_USB(Error);
 6024              		.loc 1 1359 0
 6025 02fa 0322     		movs	r2, #3
 6026 02fc 2146     		mov	r1, r4
 6027 02fe 1020     		movs	r0, #16
 6028 0300 FFF7FEFF 		bl	Write_32bitSPI_DATA
 6029              	.LVL806:
1360:AS76.c        ****     }
 6030              		.loc 1 1360 0
 6031 0304 686A     		ldr	r0, [r5, #36]
 6032 0306 FFF7FEFF 		bl	Send_Feedback_to_USB
 6033              	.LVL807:
 6034 030a 38BD     		pop	{r3, r4, r5, pc}
 6035              	.L354:
 6036 030c AFF30080 		.align	3
 6037              	.L353:
 6038 0310 9A999999 		.word	-1717986918
 6039 0314 99992940 		.word	1076468121
 6040 0318 00000000 		.word	.LANCHOR0
 6041 031c 00000000 		.word	USB_received
 6042 0320 00000000 		.word	command
 6043 0324 FAD00500 		.word	381178
 6044 0328 01010700 		.word	459009
 6045 032c 07040700 		.word	459783
 6046 0330 01030700 		.word	459521
 6047 0334 03020700 		.word	459267
 6048 0338 6EA30100 		.word	107374
 6049 033c 03030700 		.word	459523
 6050 0340 03050700 		.word	460035
 6051 0344 0A010700 		.word	459018
 6052 0348 02010700 		.word	459010
 6053              	.L321:
1362:AS76.c        ****     {
ARM GAS  C:\Users\Revanth\AppData\Local\Temp\ccbqjHa5.s 			page 164


 6054              		.loc 1 1362 0
 6055 034c B3F5FA6F 		cmp	r3, #2000
 6056 0350 21D1     		bne	.L323
1364:AS76.c        ****         Position_Z_Requested = (Position_Z_Requested / 16);
 6057              		.loc 1 1364 0
 6058 0352 974A     		ldr	r2, .L355+16
 6059 0354 5179     		ldrb	r1, [r2, #5]	@ zero_extendqisi2
 6060 0356 1379     		ldrb	r3, [r2, #4]	@ zero_extendqisi2
 6061 0358 1B04     		lsls	r3, r3, #16
 6062 035a 03EB0163 		add	r3, r3, r1, lsl #24
 6063 035e D178     		ldrb	r1, [r2, #3]	@ zero_extendqisi2
 6064 0360 03EB0123 		add	r3, r3, r1, lsl #8
 6065 0364 9278     		ldrb	r2, [r2, #2]	@ zero_extendqisi2
 6066 0366 1344     		add	r3, r3, r2
1365:AS76.c        ****         Position_Z_Requested = Position_Z_Requested * 51.2;
 6067              		.loc 1 1365 0
 6068 0368 1846     		mov	r0, r3
 6069 036a 002B     		cmp	r3, #0
 6070 036c 01DA     		bge	.L324
 6071 036e 03F10F00 		add	r0, r3, #15
 6072              	.L324:
 6073 0372 904C     		ldr	r4, .L355+20
1366:AS76.c        ****         Error = goTo_Z(Position_Z_Requested);
 6074              		.loc 1 1366 0
 6075 0374 0011     		asrs	r0, r0, #4
 6076 0376 FFF7FEFF 		bl	__aeabi_i2d
 6077              	.LVL808:
 6078 037a 89A3     		adr	r3, .L355
 6079 037c D3E90023 		ldrd	r2, [r3]
 6080 0380 FFF7FEFF 		bl	__aeabi_dmul
 6081              	.LVL809:
 6082 0384 FFF7FEFF 		bl	__aeabi_d2iz
 6083              	.LVL810:
 6084 0388 A063     		str	r0, [r4, #56]
1367:AS76.c        ****         Send_Feedback_to_USB(Error);
 6085              		.loc 1 1367 0
 6086 038a FFF7FEFF 		bl	goTo_Z
 6087              	.LVL811:
 6088 038e 6062     		str	r0, [r4, #36]
1368:AS76.c        ****     }
 6089              		.loc 1 1368 0
 6090 0390 FFF7FEFF 		bl	Send_Feedback_to_USB
 6091              	.LVL812:
 6092 0394 38BD     		pop	{r3, r4, r5, pc}
 6093              	.L323:
1370:AS76.c        ****     {
 6094              		.loc 1 1370 0
 6095 0396 B3F5FC6F 		cmp	r3, #2016
 6096 039a 1CD1     		bne	.L325
1372:AS76.c        ****         Position_T_Requested = ((int32)USB_received[5] << 24) + ((int32)USB_received[4] << 16) + ((
 6097              		.loc 1 1372 0
 6098 039c 0322     		movs	r2, #3
 6099 039e 8649     		ldr	r1, .L355+24
 6100 03a0 1020     		movs	r0, #16
 6101 03a2 FFF7FEFF 		bl	Write_32bitSPI_DATA
 6102              	.LVL813:
1373:AS76.c        ****         Position_T_Requested = (Position_T_Requested / 1);
ARM GAS  C:\Users\Revanth\AppData\Local\Temp\ccbqjHa5.s 			page 165


 6103              		.loc 1 1373 0
 6104 03a6 824A     		ldr	r2, .L355+16
 6105 03a8 5179     		ldrb	r1, [r2, #5]	@ zero_extendqisi2
 6106 03aa 1379     		ldrb	r3, [r2, #4]	@ zero_extendqisi2
 6107 03ac 1B04     		lsls	r3, r3, #16
 6108 03ae 03EB0163 		add	r3, r3, r1, lsl #24
 6109 03b2 D078     		ldrb	r0, [r2, #3]	@ zero_extendqisi2
 6110 03b4 03EB0023 		add	r3, r3, r0, lsl #8
 6111 03b8 9078     		ldrb	r0, [r2, #2]	@ zero_extendqisi2
 6112 03ba 1844     		add	r0, r0, r3
 6113 03bc 7D4C     		ldr	r4, .L355+20
 6114 03be E063     		str	r0, [r4, #60]
1376:AS76.c        ****         Send_Feedback_to_USB(Error);
 6115              		.loc 1 1376 0
 6116 03c0 FFF7FEFF 		bl	goTo_T
 6117              	.LVL814:
 6118 03c4 6062     		str	r0, [r4, #36]
1377:AS76.c        ****         Write_32bitSPI_DATA (0x10  , (int) 0x00070303, TMC5160_nCS_MotorT );
 6119              		.loc 1 1377 0
 6120 03c6 FFF7FEFF 		bl	Send_Feedback_to_USB
 6121              	.LVL815:
1378:AS76.c        ****    
 6122              		.loc 1 1378 0
 6123 03ca 0322     		movs	r2, #3
 6124 03cc 7B49     		ldr	r1, .L355+28
 6125 03ce 1020     		movs	r0, #16
 6126 03d0 FFF7FEFF 		bl	Write_32bitSPI_DATA
 6127              	.LVL816:
 6128 03d4 38BD     		pop	{r3, r4, r5, pc}
 6129              	.L325:
1381:AS76.c        ****     {
 6130              		.loc 1 1381 0
 6131 03d6 7E2B     		cmp	r3, #126
 6132 03d8 1ED1     		bne	.L326
 6133              	.LVL817:
 6134              	.LBB4:
1385:AS76.c        ****         if((USB_received[6] == 0x00) || (USB_received[6] == 0x01))
 6135              		.loc 1 1385 0
 6136 03da 754A     		ldr	r2, .L355+16
 6137 03dc 5179     		ldrb	r1, [r2, #5]	@ zero_extendqisi2
 6138 03de 1379     		ldrb	r3, [r2, #4]	@ zero_extendqisi2
 6139 03e0 1B04     		lsls	r3, r3, #16
 6140 03e2 03EB0163 		add	r3, r3, r1, lsl #24
 6141 03e6 D178     		ldrb	r1, [r2, #3]	@ zero_extendqisi2
 6142 03e8 03EB0123 		add	r3, r3, r1, lsl #8
 6143 03ec 9478     		ldrb	r4, [r2, #2]	@ zero_extendqisi2
 6144 03ee 1C44     		add	r4, r4, r3
 6145              	.LVL818:
1386:AS76.c        ****         {
 6146              		.loc 1 1386 0
 6147 03f0 9379     		ldrb	r3, [r2, #6]	@ zero_extendqisi2
 6148 03f2 012B     		cmp	r3, #1
 6149 03f4 03D8     		bhi	.L327
1388:AS76.c        ****         }
 6150              		.loc 1 1388 0
 6151 03f6 0A20     		movs	r0, #10
 6152 03f8 FFF7FEFF 		bl	CyDelayUs
ARM GAS  C:\Users\Revanth\AppData\Local\Temp\ccbqjHa5.s 			page 166


 6153              	.LVL819:
 6154 03fc 02E0     		b	.L328
 6155              	.L327:
1392:AS76.c        ****         }
 6156              		.loc 1 1392 0
 6157 03fe 0022     		movs	r2, #0
 6158 0400 6B4B     		ldr	r3, .L355+16
 6159 0402 9A71     		strb	r2, [r3, #6]
 6160              	.L328:
 6161              	.LVL820:
1396:AS76.c        ****         Send_Feedback_to_USB(Error);
 6162              		.loc 1 1396 0
 6163 0404 6A4B     		ldr	r3, .L355+16
 6164 0406 9979     		ldrb	r1, [r3, #6]	@ zero_extendqisi2
 6165 0408 2046     		mov	r0, r4
 6166 040a FFF7FEFF 		bl	run_pump
 6167              	.LVL821:
1397:AS76.c        ****     }
 6168              		.loc 1 1397 0
 6169 040e 694B     		ldr	r3, .L355+20
 6170 0410 586A     		ldr	r0, [r3, #36]
 6171 0412 FFF7FEFF 		bl	Send_Feedback_to_USB
 6172              	.LVL822:
 6173              	.LBE4:
 6174 0416 38BD     		pop	{r3, r4, r5, pc}
 6175              	.LVL823:
 6176              	.L326:
1400:AS76.c        ****     {
 6177              		.loc 1 1400 0
 6178 0418 B3F5F86F 		cmp	r3, #1984
 6179 041c 79D1     		bne	.L329
1402:AS76.c        ****         Position_Y_Requested = ((int32)USB_received[9] << 24) + ((int32)USB_received[8] << 16) + ((
 6180              		.loc 1 1402 0
 6181 041e 644B     		ldr	r3, .L355+16
 6182 0420 5979     		ldrb	r1, [r3, #5]	@ zero_extendqisi2
 6183 0422 1A79     		ldrb	r2, [r3, #4]	@ zero_extendqisi2
 6184 0424 1204     		lsls	r2, r2, #16
 6185 0426 02EB0162 		add	r2, r2, r1, lsl #24
 6186 042a D978     		ldrb	r1, [r3, #3]	@ zero_extendqisi2
 6187 042c 02EB0122 		add	r2, r2, r1, lsl #8
 6188 0430 9978     		ldrb	r1, [r3, #2]	@ zero_extendqisi2
 6189 0432 1144     		add	r1, r1, r2
 6190 0434 5F48     		ldr	r0, .L355+20
 6191 0436 0163     		str	r1, [r0, #48]
1403:AS76.c        ****         Position_Z_Requested = ((int32)USB_received[13] << 24) + ((int32)USB_received[12] << 16) + 
 6192              		.loc 1 1403 0
 6193 0438 5C7A     		ldrb	r4, [r3, #9]	@ zero_extendqisi2
 6194 043a 1A7A     		ldrb	r2, [r3, #8]	@ zero_extendqisi2
 6195 043c 1204     		lsls	r2, r2, #16
 6196 043e 02EB0462 		add	r2, r2, r4, lsl #24
 6197 0442 DC79     		ldrb	r4, [r3, #7]	@ zero_extendqisi2
 6198 0444 02EB0422 		add	r2, r2, r4, lsl #8
 6199 0448 9D79     		ldrb	r5, [r3, #6]	@ zero_extendqisi2
 6200 044a 1544     		add	r5, r5, r2
 6201 044c 4563     		str	r5, [r0, #52]
1404:AS76.c        ****         
 6202              		.loc 1 1404 0
ARM GAS  C:\Users\Revanth\AppData\Local\Temp\ccbqjHa5.s 			page 167


 6203 044e 5C7B     		ldrb	r4, [r3, #13]	@ zero_extendqisi2
 6204 0450 1A7B     		ldrb	r2, [r3, #12]	@ zero_extendqisi2
 6205 0452 1204     		lsls	r2, r2, #16
 6206 0454 02EB0462 		add	r2, r2, r4, lsl #24
 6207 0458 DC7A     		ldrb	r4, [r3, #11]	@ zero_extendqisi2
 6208 045a 02EB0422 		add	r2, r2, r4, lsl #8
 6209 045e 9C7A     		ldrb	r4, [r3, #10]	@ zero_extendqisi2
 6210 0460 1444     		add	r4, r4, r2
 6211 0462 8463     		str	r4, [r0, #56]
1406:AS76.c        ****         {        
 6212              		.loc 1 1406 0
 6213 0464 0029     		cmp	r1, #0
 6214 0466 0EDB     		blt	.L330
1408:AS76.c        ****         Position_X_Requested = Position_X_Requested * 12.8;
 6215              		.loc 1 1408 0
 6216 0468 0846     		mov	r0, r1
 6217 046a 00DA     		bge	.L331
 6218 046c C81C     		adds	r0, r1, #3
 6219              	.L331:
1409:AS76.c        ****         }
 6220              		.loc 1 1409 0
 6221 046e 8010     		asrs	r0, r0, #2
 6222 0470 FFF7FEFF 		bl	__aeabi_i2d
 6223              	.LVL824:
 6224 0474 4CA3     		adr	r3, .L355+8
 6225 0476 D3E90023 		ldrd	r2, [r3]
 6226 047a FFF7FEFF 		bl	__aeabi_dmul
 6227              	.LVL825:
 6228 047e FFF7FEFF 		bl	__aeabi_d2iz
 6229              	.LVL826:
 6230 0482 4C4B     		ldr	r3, .L355+20
 6231 0484 1863     		str	r0, [r3, #48]
 6232              	.L330:
1411:AS76.c        ****         { 
 6233              		.loc 1 1411 0
 6234 0486 002D     		cmp	r5, #0
 6235 0488 0EDB     		blt	.L332
1413:AS76.c        ****         Position_Y_Requested = Position_Y_Requested * 12.8;
 6236              		.loc 1 1413 0
 6237 048a 2846     		mov	r0, r5
 6238 048c 00DA     		bge	.L333
 6239 048e E81C     		adds	r0, r5, #3
 6240              	.L333:
1414:AS76.c        ****         }
 6241              		.loc 1 1414 0
 6242 0490 8010     		asrs	r0, r0, #2
 6243 0492 FFF7FEFF 		bl	__aeabi_i2d
 6244              	.LVL827:
 6245 0496 44A3     		adr	r3, .L355+8
 6246 0498 D3E90023 		ldrd	r2, [r3]
 6247 049c FFF7FEFF 		bl	__aeabi_dmul
 6248              	.LVL828:
 6249 04a0 FFF7FEFF 		bl	__aeabi_d2iz
 6250              	.LVL829:
 6251 04a4 434B     		ldr	r3, .L355+20
 6252 04a6 5863     		str	r0, [r3, #52]
 6253              	.L332:
ARM GAS  C:\Users\Revanth\AppData\Local\Temp\ccbqjHa5.s 			page 168


1416:AS76.c        ****         { 
 6254              		.loc 1 1416 0
 6255 04a8 002C     		cmp	r4, #0
 6256 04aa 0FDB     		blt	.L334
1418:AS76.c        ****         Position_Z_Requested = Position_Z_Requested * 51.2;
 6257              		.loc 1 1418 0
 6258 04ac 2046     		mov	r0, r4
 6259 04ae 01DA     		bge	.L335
 6260 04b0 04F10F00 		add	r0, r4, #15
 6261              	.L335:
1419:AS76.c        ****         }
 6262              		.loc 1 1419 0
 6263 04b4 0011     		asrs	r0, r0, #4
 6264 04b6 FFF7FEFF 		bl	__aeabi_i2d
 6265              	.LVL830:
 6266 04ba 39A3     		adr	r3, .L355
 6267 04bc D3E90023 		ldrd	r2, [r3]
 6268 04c0 FFF7FEFF 		bl	__aeabi_dmul
 6269              	.LVL831:
 6270 04c4 FFF7FEFF 		bl	__aeabi_d2iz
 6271              	.LVL832:
 6272 04c8 3A4B     		ldr	r3, .L355+20
 6273 04ca 9863     		str	r0, [r3, #56]
 6274              	.L334:
1422:AS76.c        ****         CyDelay(10);
 6275              		.loc 1 1422 0
 6276 04cc 394C     		ldr	r4, .L355+20
 6277 04ce A26B     		ldr	r2, [r4, #56]
 6278 04d0 616B     		ldr	r1, [r4, #52]
 6279 04d2 206B     		ldr	r0, [r4, #48]
 6280 04d4 FFF7FEFF 		bl	goTo_XYZ
 6281              	.LVL833:
 6282 04d8 6062     		str	r0, [r4, #36]
1423:AS76.c        ****         Write_32bitSPI_DATA (0x10  , (int) 0x00070103, TMC5160_nCS_MotorY );
 6283              		.loc 1 1423 0
 6284 04da 0A20     		movs	r0, #10
 6285 04dc FFF7FEFF 		bl	CyDelay
 6286              	.LVL834:
1424:AS76.c        ****         Write_32bitSPI_DATA (0x10  , (int) 0x00070103, TMC5160_nCS_MotorZ );
 6287              		.loc 1 1424 0
 6288 04e0 374D     		ldr	r5, .L355+32
 6289 04e2 0122     		movs	r2, #1
 6290 04e4 2946     		mov	r1, r5
 6291 04e6 1020     		movs	r0, #16
 6292 04e8 FFF7FEFF 		bl	Write_32bitSPI_DATA
 6293              	.LVL835:
1425:AS76.c        ****         Write_32bitSPI_DATA (0x10  , (int) 0x00070103, TMC5160_nCS_MotorX );
 6294              		.loc 1 1425 0
 6295 04ec 0222     		movs	r2, #2
 6296 04ee 2946     		mov	r1, r5
 6297 04f0 1020     		movs	r0, #16
 6298 04f2 FFF7FEFF 		bl	Write_32bitSPI_DATA
 6299              	.LVL836:
1426:AS76.c        ****         Write_32bitSPI_DATA (0x10  , (int) 0x00070103, TMC5160_nCS_MotorT );
 6300              		.loc 1 1426 0
 6301 04f6 0022     		movs	r2, #0
 6302 04f8 2946     		mov	r1, r5
ARM GAS  C:\Users\Revanth\AppData\Local\Temp\ccbqjHa5.s 			page 169


 6303 04fa 1020     		movs	r0, #16
 6304 04fc FFF7FEFF 		bl	Write_32bitSPI_DATA
 6305              	.LVL837:
1427:AS76.c        ****         Send_Feedback_to_USB(Error);
 6306              		.loc 1 1427 0
 6307 0500 0322     		movs	r2, #3
 6308 0502 2946     		mov	r1, r5
 6309 0504 1020     		movs	r0, #16
 6310 0506 FFF7FEFF 		bl	Write_32bitSPI_DATA
 6311              	.LVL838:
1428:AS76.c        ****     }
 6312              		.loc 1 1428 0
 6313 050a 606A     		ldr	r0, [r4, #36]
 6314 050c FFF7FEFF 		bl	Send_Feedback_to_USB
 6315              	.LVL839:
 6316 0510 38BD     		pop	{r3, r4, r5, pc}
 6317              	.L329:
1431:AS76.c        ****     { 
 6318              		.loc 1 1431 0
 6319 0512 B3F5F44F 		cmp	r3, #31232
 6320 0516 09D1     		bne	.L336
1433:AS76.c        ****         CyDelay(100);
 6321              		.loc 1 1433 0
 6322 0518 FFF7FEFF 		bl	set_CondenserLED
 6323              	.LVL840:
1434:AS76.c        ****         Send_Feedback_to_USB(Error);  
 6324              		.loc 1 1434 0
 6325 051c 6420     		movs	r0, #100
 6326 051e FFF7FEFF 		bl	CyDelay
 6327              	.LVL841:
1435:AS76.c        ****     }
 6328              		.loc 1 1435 0
 6329 0522 244B     		ldr	r3, .L355+20
 6330 0524 586A     		ldr	r0, [r3, #36]
 6331 0526 FFF7FEFF 		bl	Send_Feedback_to_USB
 6332              	.LVL842:
 6333 052a 38BD     		pop	{r3, r4, r5, pc}
 6334              	.L336:
1438:AS76.c        ****     {
 6335              		.loc 1 1438 0
 6336 052c B3F5FE4F 		cmp	r3, #32512
 6337 0530 09D1     		bne	.L337
1440:AS76.c        ****         CyDelay(100);
 6338              		.loc 1 1440 0
 6339 0532 FFF7FEFF 		bl	set_BarcodeCondenser_LED
 6340              	.LVL843:
1441:AS76.c        ****         Send_Feedback_to_USB(Error);  
 6341              		.loc 1 1441 0
 6342 0536 6420     		movs	r0, #100
 6343 0538 FFF7FEFF 		bl	CyDelay
 6344              	.LVL844:
1442:AS76.c        ****     }
 6345              		.loc 1 1442 0
 6346 053c 1D4B     		ldr	r3, .L355+20
 6347 053e 586A     		ldr	r0, [r3, #36]
 6348 0540 FFF7FEFF 		bl	Send_Feedback_to_USB
 6349              	.LVL845:
ARM GAS  C:\Users\Revanth\AppData\Local\Temp\ccbqjHa5.s 			page 170


 6350 0544 38BD     		pop	{r3, r4, r5, pc}
 6351              	.L337:
1445:AS76.c        ****     {
 6352              		.loc 1 1445 0
 6353 0546 B3F5FC4F 		cmp	r3, #32256
 6354 054a 11D1     		bne	.L338
 6355              	.LVL846:
 6356              	.LBB5:
1448:AS76.c        ****         if(value == 0)
 6357              		.loc 1 1448 0
 6358 054c 184B     		ldr	r3, .L355+16
 6359 054e 9C78     		ldrb	r4, [r3, #2]	@ zero_extendqisi2
 6360              	.LVL847:
1449:AS76.c        ****         {
 6361              		.loc 1 1449 0
 6362 0550 34B1     		cbz	r4, .L339
1453:AS76.c        ****         {
 6363              		.loc 1 1453 0
 6364 0552 012C     		cmp	r4, #1
 6365 0554 03D0     		beq	.L351
1459:AS76.c        ****         }
 6366              		.loc 1 1459 0
 6367 0556 1B48     		ldr	r0, .L355+36
 6368 0558 FFF7FEFF 		bl	Write_Debug_UART_Char
 6369              	.LVL848:
 6370 055c 00E0     		b	.L339
 6371              	.L351:
1455:AS76.c        ****         }
 6372              		.loc 1 1455 0
 6373 055e FF24     		movs	r4, #255
 6374              	.LVL849:
 6375              	.L339:
1462:AS76.c        ****         Send_Feedback_to_USB(Error);
 6376              		.loc 1 1462 0
 6377 0560 2046     		mov	r0, r4
 6378 0562 FFF7FEFF 		bl	Pin_Backlight_Write
 6379              	.LVL850:
1463:AS76.c        ****     }
 6380              		.loc 1 1463 0
 6381 0566 134B     		ldr	r3, .L355+20
 6382 0568 586A     		ldr	r0, [r3, #36]
 6383 056a FFF7FEFF 		bl	Send_Feedback_to_USB
 6384              	.LVL851:
 6385              	.LBE5:
 6386 056e 38BD     		pop	{r3, r4, r5, pc}
 6387              	.LVL852:
 6388              	.L338:
1466:AS76.c        ****     {
 6389              		.loc 1 1466 0
 6390 0570 FF2B     		cmp	r3, #255
 6391 0572 2DD1     		bne	.L340
1468:AS76.c        ****         Write_Debug_UART_Char("\r\n");
 6392              		.loc 1 1468 0
 6393 0574 1448     		ldr	r0, .L355+40
 6394 0576 FFF7FEFF 		bl	Write_Debug_UART_Char
 6395              	.LVL853:
1469:AS76.c        ****         CyDelay(500);
ARM GAS  C:\Users\Revanth\AppData\Local\Temp\ccbqjHa5.s 			page 171


 6396              		.loc 1 1469 0
 6397 057a 1448     		ldr	r0, .L355+44
 6398 057c FFF7FEFF 		bl	Write_Debug_UART_Char
 6399              	.LVL854:
1470:AS76.c        ****         Send_Feedback_to_USB(0);
 6400              		.loc 1 1470 0
 6401 0580 4FF4FA70 		mov	r0, #500
 6402 0584 FFF7FEFF 		bl	CyDelay
 6403              	.LVL855:
1471:AS76.c        ****         CyDelay(500);
 6404              		.loc 1 1471 0
 6405 0588 0020     		movs	r0, #0
 6406 058a FFF7FEFF 		bl	Send_Feedback_to_USB
 6407              	.LVL856:
1472:AS76.c        ****         CySoftwareReset();
 6408              		.loc 1 1472 0
 6409 058e 4FF4FA70 		mov	r0, #500
 6410 0592 FFF7FEFF 		bl	CyDelay
 6411              	.LVL857:
1473:AS76.c        ****     }
 6412              		.loc 1 1473 0
 6413 0596 FFF7FEFF 		bl	CySoftwareReset
 6414              	.LVL858:
 6415 059a 38BD     		pop	{r3, r4, r5, pc}
 6416              	.L356:
 6417 059c AFF30080 		.align	3
 6418              	.L355:
 6419 05a0 9A999999 		.word	-1717986918
 6420 05a4 99994940 		.word	1078565273
 6421 05a8 9A999999 		.word	-1717986918
 6422 05ac 99992940 		.word	1076468121
 6423 05b0 00000000 		.word	USB_received
 6424 05b4 00000000 		.word	.LANCHOR0
 6425 05b8 03050700 		.word	460035
 6426 05bc 03030700 		.word	459523
 6427 05c0 03010700 		.word	459011
 6428 05c4 D0040000 		.word	.LC41
 6429 05c8 F8040000 		.word	.LC42
 6430 05cc B8000000 		.word	.LC8
 6431              	.L340:
1475:AS76.c        ****     {
 6432              		.loc 1 1475 0
 6433 05d0 B3F5F64F 		cmp	r3, #31488
 6434 05d4 4CD1     		bne	.L341
1478:AS76.c        ****         Motor_Speed_Y = ((int32)USB_received[9] << 24) + ((int32)USB_received[8] << 16) + ((int32)U
 6435              		.loc 1 1478 0
 6436 05d6 B84B     		ldr	r3, .L357+16
 6437 05d8 5979     		ldrb	r1, [r3, #5]	@ zero_extendqisi2
 6438 05da 1A79     		ldrb	r2, [r3, #4]	@ zero_extendqisi2
 6439 05dc 1204     		lsls	r2, r2, #16
 6440 05de 02EB0162 		add	r2, r2, r1, lsl #24
 6441 05e2 D978     		ldrb	r1, [r3, #3]	@ zero_extendqisi2
 6442 05e4 02EB0122 		add	r2, r2, r1, lsl #8
 6443 05e8 9978     		ldrb	r1, [r3, #2]	@ zero_extendqisi2
 6444 05ea 0A44     		add	r2, r2, r1
 6445 05ec B34C     		ldr	r4, .L357+20
 6446 05ee 6261     		str	r2, [r4, #20]
ARM GAS  C:\Users\Revanth\AppData\Local\Temp\ccbqjHa5.s 			page 172


1479:AS76.c        ****         Motor_Speed_Z = ((int32)USB_received[13] << 24) + ((int32)USB_received[12] << 16) + ((int32
 6447              		.loc 1 1479 0
 6448 05f0 597A     		ldrb	r1, [r3, #9]	@ zero_extendqisi2
 6449 05f2 1A7A     		ldrb	r2, [r3, #8]	@ zero_extendqisi2
 6450 05f4 1204     		lsls	r2, r2, #16
 6451 05f6 02EB0162 		add	r2, r2, r1, lsl #24
 6452 05fa D979     		ldrb	r1, [r3, #7]	@ zero_extendqisi2
 6453 05fc 02EB0122 		add	r2, r2, r1, lsl #8
 6454 0600 9979     		ldrb	r1, [r3, #6]	@ zero_extendqisi2
 6455 0602 0A44     		add	r2, r2, r1
 6456 0604 A261     		str	r2, [r4, #24]
1480:AS76.c        ****         
 6457              		.loc 1 1480 0
 6458 0606 597B     		ldrb	r1, [r3, #13]	@ zero_extendqisi2
 6459 0608 1A7B     		ldrb	r2, [r3, #12]	@ zero_extendqisi2
 6460 060a 1204     		lsls	r2, r2, #16
 6461 060c 02EB0162 		add	r2, r2, r1, lsl #24
 6462 0610 D97A     		ldrb	r1, [r3, #11]	@ zero_extendqisi2
 6463 0612 02EB0122 		add	r2, r2, r1, lsl #8
 6464 0616 9B7A     		ldrb	r3, [r3, #10]	@ zero_extendqisi2
 6465 0618 1A44     		add	r2, r2, r3
 6466 061a E261     		str	r2, [r4, #28]
1482:AS76.c        ****         
 6467              		.loc 1 1482 0
 6468 061c A848     		ldr	r0, .L357+24
 6469 061e FFF7FEFF 		bl	Write_Debug_UART_Char
 6470              	.LVL859:
1484:AS76.c        ****         update_max_velocity(Motor_Speed_Y, TMC5160_nCS_MotorY);        
 6471              		.loc 1 1484 0
 6472 0622 0021     		movs	r1, #0
 6473 0624 6069     		ldr	r0, [r4, #20]
 6474 0626 FFF7FEFF 		bl	update_max_velocity
 6475              	.LVL860:
1485:AS76.c        ****         update_max_velocity(Motor_Speed_Z, TMC5160_nCS_MotorZ);
 6476              		.loc 1 1485 0
 6477 062a 0121     		movs	r1, #1
 6478 062c A069     		ldr	r0, [r4, #24]
 6479 062e FFF7FEFF 		bl	update_max_velocity
 6480              	.LVL861:
1486:AS76.c        ****         Write_Debug_UART_Char("Value received for x,y and z is --->");
 6481              		.loc 1 1486 0
 6482 0632 0221     		movs	r1, #2
 6483 0634 E069     		ldr	r0, [r4, #28]
 6484 0636 FFF7FEFF 		bl	update_max_velocity
 6485              	.LVL862:
1487:AS76.c        ****         Write_Debug_UART_Int(Motor_Speed_X);
 6486              		.loc 1 1487 0
 6487 063a A248     		ldr	r0, .L357+28
 6488 063c FFF7FEFF 		bl	Write_Debug_UART_Char
 6489              	.LVL863:
1488:AS76.c        ****         Write_Debug_UART_Char(",");
 6490              		.loc 1 1488 0
 6491 0640 6069     		ldr	r0, [r4, #20]
 6492 0642 FFF7FEFF 		bl	Write_Debug_UART_Int
 6493              	.LVL864:
1489:AS76.c        ****         Write_Debug_UART_Int(Motor_Speed_Y);
 6494              		.loc 1 1489 0
ARM GAS  C:\Users\Revanth\AppData\Local\Temp\ccbqjHa5.s 			page 173


 6495 0646 A04D     		ldr	r5, .L357+32
 6496 0648 2846     		mov	r0, r5
 6497 064a FFF7FEFF 		bl	Write_Debug_UART_Char
 6498              	.LVL865:
1490:AS76.c        ****         Write_Debug_UART_Char(",");
 6499              		.loc 1 1490 0
 6500 064e A069     		ldr	r0, [r4, #24]
 6501 0650 FFF7FEFF 		bl	Write_Debug_UART_Int
 6502              	.LVL866:
1491:AS76.c        ****         Write_Debug_UART_Int(Motor_Speed_Z);
 6503              		.loc 1 1491 0
 6504 0654 2846     		mov	r0, r5
 6505 0656 FFF7FEFF 		bl	Write_Debug_UART_Char
 6506              	.LVL867:
1492:AS76.c        ****         Write_Debug_UART_Char(",");
 6507              		.loc 1 1492 0
 6508 065a E069     		ldr	r0, [r4, #28]
 6509 065c FFF7FEFF 		bl	Write_Debug_UART_Int
 6510              	.LVL868:
1493:AS76.c        ****         Send_Feedback_to_USB(Error);
 6511              		.loc 1 1493 0
 6512 0660 2846     		mov	r0, r5
 6513 0662 FFF7FEFF 		bl	Write_Debug_UART_Char
 6514              	.LVL869:
1494:AS76.c        ****     }
 6515              		.loc 1 1494 0
 6516 0666 994B     		ldr	r3, .L357+36
 6517 0668 586A     		ldr	r0, [r3, #36]
 6518 066a FFF7FEFF 		bl	Send_Feedback_to_USB
 6519              	.LVL870:
 6520 066e 38BD     		pop	{r3, r4, r5, pc}
 6521              	.L341:
1497:AS76.c        ****     {
 6522              		.loc 1 1497 0
 6523 0670 40F2D172 		movw	r2, #2001
 6524 0674 9342     		cmp	r3, r2
 6525 0676 31D1     		bne	.L342
1499:AS76.c        ****     Motor_Speed_Z = ((int32)USB_received[9] << 24) + ((int32)USB_received[8] << 16) + ((int32)USB_r
 6526              		.loc 1 1499 0
 6527 0678 8F4B     		ldr	r3, .L357+16
 6528 067a 5979     		ldrb	r1, [r3, #5]	@ zero_extendqisi2
 6529 067c 1A79     		ldrb	r2, [r3, #4]	@ zero_extendqisi2
 6530 067e 1204     		lsls	r2, r2, #16
 6531 0680 02EB0162 		add	r2, r2, r1, lsl #24
 6532 0684 D978     		ldrb	r1, [r3, #3]	@ zero_extendqisi2
 6533 0686 02EB0122 		add	r2, r2, r1, lsl #8
 6534 068a 9978     		ldrb	r1, [r3, #2]	@ zero_extendqisi2
 6535 068c 0A44     		add	r2, r2, r1
 6536 068e 8F4C     		ldr	r4, .L357+36
 6537 0690 A263     		str	r2, [r4, #56]
1500:AS76.c        ****     update_max_velocity(Motor_Speed_Z,TMC5160_nCS_MotorZ);    
 6538              		.loc 1 1500 0
 6539 0692 597A     		ldrb	r1, [r3, #9]	@ zero_extendqisi2
 6540 0694 1A7A     		ldrb	r2, [r3, #8]	@ zero_extendqisi2
 6541 0696 1204     		lsls	r2, r2, #16
 6542 0698 02EB0162 		add	r2, r2, r1, lsl #24
 6543 069c D979     		ldrb	r1, [r3, #7]	@ zero_extendqisi2
ARM GAS  C:\Users\Revanth\AppData\Local\Temp\ccbqjHa5.s 			page 174


 6544 069e 02EB0122 		add	r2, r2, r1, lsl #8
 6545 06a2 9879     		ldrb	r0, [r3, #6]	@ zero_extendqisi2
 6546 06a4 1044     		add	r0, r0, r2
 6547 06a6 854B     		ldr	r3, .L357+20
 6548 06a8 D861     		str	r0, [r3, #28]
1501:AS76.c        ****     Position_Z_Requested = (Position_Z_Requested / 16);
 6549              		.loc 1 1501 0
 6550 06aa 0221     		movs	r1, #2
 6551 06ac FFF7FEFF 		bl	update_max_velocity
 6552              	.LVL871:
1502:AS76.c        ****     Position_Z_Requested = Position_Z_Requested * 51.2;
 6553              		.loc 1 1502 0
 6554 06b0 A06B     		ldr	r0, [r4, #56]
 6555 06b2 0028     		cmp	r0, #0
 6556 06b4 00DA     		bge	.L343
 6557 06b6 0F30     		adds	r0, r0, #15
 6558              	.L343:
 6559 06b8 844C     		ldr	r4, .L357+36
1503:AS76.c        ****     goTo_Z(Position_Z_Requested);
 6560              		.loc 1 1503 0
 6561 06ba 0011     		asrs	r0, r0, #4
 6562 06bc FFF7FEFF 		bl	__aeabi_i2d
 6563              	.LVL872:
 6564 06c0 79A3     		adr	r3, .L357
 6565 06c2 D3E90023 		ldrd	r2, [r3]
 6566 06c6 FFF7FEFF 		bl	__aeabi_dmul
 6567              	.LVL873:
 6568 06ca FFF7FEFF 		bl	__aeabi_d2iz
 6569              	.LVL874:
 6570 06ce A063     		str	r0, [r4, #56]
1504:AS76.c        ****     Send_Feedback_to_USB(Error);
 6571              		.loc 1 1504 0
 6572 06d0 FFF7FEFF 		bl	goTo_Z
 6573              	.LVL875:
1505:AS76.c        ****     }
 6574              		.loc 1 1505 0
 6575 06d4 606A     		ldr	r0, [r4, #36]
 6576 06d6 FFF7FEFF 		bl	Send_Feedback_to_USB
 6577              	.LVL876:
 6578 06da 38BD     		pop	{r3, r4, r5, pc}
 6579              	.L342:
1508:AS76.c        ****     {        
 6580              		.loc 1 1508 0
 6581 06dc 40F2D272 		movw	r2, #2002
 6582 06e0 9342     		cmp	r3, r2
 6583 06e2 20D1     		bne	.L344
1510:AS76.c        ****     oil_speed = ((int32)USB_received[9] << 24) + ((int32)USB_received[8] << 16) + ((int32)USB_recei
 6584              		.loc 1 1510 0
 6585 06e4 744B     		ldr	r3, .L357+16
 6586 06e6 5979     		ldrb	r1, [r3, #5]	@ zero_extendqisi2
 6587 06e8 1A79     		ldrb	r2, [r3, #4]	@ zero_extendqisi2
 6588 06ea 1204     		lsls	r2, r2, #16
 6589 06ec 02EB0162 		add	r2, r2, r1, lsl #24
 6590 06f0 D978     		ldrb	r1, [r3, #3]	@ zero_extendqisi2
 6591 06f2 02EB0122 		add	r2, r2, r1, lsl #8
 6592 06f6 9878     		ldrb	r0, [r3, #2]	@ zero_extendqisi2
 6593 06f8 1044     		add	r0, r0, r2
ARM GAS  C:\Users\Revanth\AppData\Local\Temp\ccbqjHa5.s 			page 175


 6594 06fa 744C     		ldr	r4, .L357+36
 6595 06fc 2064     		str	r0, [r4, #64]
1511:AS76.c        ****     oil_dir   = USB_received[10];
 6596              		.loc 1 1511 0
 6597 06fe 597A     		ldrb	r1, [r3, #9]	@ zero_extendqisi2
 6598 0700 1A7A     		ldrb	r2, [r3, #8]	@ zero_extendqisi2
 6599 0702 1204     		lsls	r2, r2, #16
 6600 0704 02EB0162 		add	r2, r2, r1, lsl #24
 6601 0708 D979     		ldrb	r1, [r3, #7]	@ zero_extendqisi2
 6602 070a 02EB0122 		add	r2, r2, r1, lsl #8
 6603 070e 9979     		ldrb	r1, [r3, #6]	@ zero_extendqisi2
 6604 0710 1144     		add	r1, r1, r2
 6605 0712 6164     		str	r1, [r4, #68]
1512:AS76.c        ****     run_pumpvs (time_ms, oil_speed, oil_dir);
 6606              		.loc 1 1512 0
 6607 0714 9A7A     		ldrb	r2, [r3, #10]	@ zero_extendqisi2
 6608 0716 A264     		str	r2, [r4, #72]
1513:AS76.c        ****     Error = 0;
 6609              		.loc 1 1513 0
 6610 0718 FFF7FEFF 		bl	run_pumpvs
 6611              	.LVL877:
1514:AS76.c        ****     Send_Feedback_to_USB(Error);
 6612              		.loc 1 1514 0
 6613 071c 0020     		movs	r0, #0
 6614 071e 6062     		str	r0, [r4, #36]
1515:AS76.c        ****     }
 6615              		.loc 1 1515 0
 6616 0720 FFF7FEFF 		bl	Send_Feedback_to_USB
 6617              	.LVL878:
 6618 0724 38BD     		pop	{r3, r4, r5, pc}
 6619              	.L344:
1518:AS76.c        ****     {
 6620              		.loc 1 1518 0
 6621 0726 40F2C172 		movw	r2, #1985
 6622 072a 9342     		cmp	r3, r2
 6623 072c 40F09480 		bne	.L345
1520:AS76.c        ****         Position_Y_Requested = ((int32)USB_received[9] << 24) + ((int32)USB_received[8] << 16) + ((
 6624              		.loc 1 1520 0
 6625 0730 614B     		ldr	r3, .L357+16
 6626 0732 5979     		ldrb	r1, [r3, #5]	@ zero_extendqisi2
 6627 0734 1A79     		ldrb	r2, [r3, #4]	@ zero_extendqisi2
 6628 0736 1204     		lsls	r2, r2, #16
 6629 0738 02EB0162 		add	r2, r2, r1, lsl #24
 6630 073c D978     		ldrb	r1, [r3, #3]	@ zero_extendqisi2
 6631 073e 02EB0122 		add	r2, r2, r1, lsl #8
 6632 0742 9978     		ldrb	r1, [r3, #2]	@ zero_extendqisi2
 6633 0744 0A44     		add	r2, r2, r1
 6634 0746 614D     		ldr	r5, .L357+36
 6635 0748 2A63     		str	r2, [r5, #48]
1521:AS76.c        ****         Position_Z_Requested = ((int32)USB_received[13] << 24) + ((int32)USB_received[12] << 16) + 
 6636              		.loc 1 1521 0
 6637 074a 597A     		ldrb	r1, [r3, #9]	@ zero_extendqisi2
 6638 074c 1A7A     		ldrb	r2, [r3, #8]	@ zero_extendqisi2
 6639 074e 1204     		lsls	r2, r2, #16
 6640 0750 02EB0162 		add	r2, r2, r1, lsl #24
 6641 0754 D979     		ldrb	r1, [r3, #7]	@ zero_extendqisi2
 6642 0756 02EB0122 		add	r2, r2, r1, lsl #8
ARM GAS  C:\Users\Revanth\AppData\Local\Temp\ccbqjHa5.s 			page 176


 6643 075a 9979     		ldrb	r1, [r3, #6]	@ zero_extendqisi2
 6644 075c 0A44     		add	r2, r2, r1
 6645 075e 6A63     		str	r2, [r5, #52]
1522:AS76.c        ****         
 6646              		.loc 1 1522 0
 6647 0760 597B     		ldrb	r1, [r3, #13]	@ zero_extendqisi2
 6648 0762 1A7B     		ldrb	r2, [r3, #12]	@ zero_extendqisi2
 6649 0764 1204     		lsls	r2, r2, #16
 6650 0766 02EB0162 		add	r2, r2, r1, lsl #24
 6651 076a D97A     		ldrb	r1, [r3, #11]	@ zero_extendqisi2
 6652 076c 02EB0122 		add	r2, r2, r1, lsl #8
 6653 0770 997A     		ldrb	r1, [r3, #10]	@ zero_extendqisi2
 6654 0772 0A44     		add	r2, r2, r1
 6655 0774 AA63     		str	r2, [r5, #56]
1524:AS76.c        ****         Motor_Speed_Y = ((int32)USB_received[21] << 24) + ((int32)USB_received[20] << 16) + ((int32
 6656              		.loc 1 1524 0
 6657 0776 597C     		ldrb	r1, [r3, #17]	@ zero_extendqisi2
 6658 0778 1A7C     		ldrb	r2, [r3, #16]	@ zero_extendqisi2
 6659 077a 1204     		lsls	r2, r2, #16
 6660 077c 02EB0162 		add	r2, r2, r1, lsl #24
 6661 0780 D97B     		ldrb	r1, [r3, #15]	@ zero_extendqisi2
 6662 0782 02EB0122 		add	r2, r2, r1, lsl #8
 6663 0786 997B     		ldrb	r1, [r3, #14]	@ zero_extendqisi2
 6664 0788 0A44     		add	r2, r2, r1
 6665 078a 4C4C     		ldr	r4, .L357+20
 6666 078c 6261     		str	r2, [r4, #20]
1525:AS76.c        ****         Motor_Speed_Z = ((int32)USB_received[25] << 24) + ((int32)USB_received[24] << 16) + ((int32
 6667              		.loc 1 1525 0
 6668 078e 597D     		ldrb	r1, [r3, #21]	@ zero_extendqisi2
 6669 0790 1A7D     		ldrb	r2, [r3, #20]	@ zero_extendqisi2
 6670 0792 1204     		lsls	r2, r2, #16
 6671 0794 02EB0162 		add	r2, r2, r1, lsl #24
 6672 0798 D97C     		ldrb	r1, [r3, #19]	@ zero_extendqisi2
 6673 079a 02EB0122 		add	r2, r2, r1, lsl #8
 6674 079e 997C     		ldrb	r1, [r3, #18]	@ zero_extendqisi2
 6675 07a0 0A44     		add	r2, r2, r1
 6676 07a2 A261     		str	r2, [r4, #24]
1526:AS76.c        ****         
 6677              		.loc 1 1526 0
 6678 07a4 597E     		ldrb	r1, [r3, #25]	@ zero_extendqisi2
 6679 07a6 1A7E     		ldrb	r2, [r3, #24]	@ zero_extendqisi2
 6680 07a8 1204     		lsls	r2, r2, #16
 6681 07aa 02EB0162 		add	r2, r2, r1, lsl #24
 6682 07ae D97D     		ldrb	r1, [r3, #23]	@ zero_extendqisi2
 6683 07b0 02EB0122 		add	r2, r2, r1, lsl #8
 6684 07b4 9B7D     		ldrb	r3, [r3, #22]	@ zero_extendqisi2
 6685 07b6 1A44     		add	r2, r2, r3
 6686 07b8 E261     		str	r2, [r4, #28]
1528:AS76.c        ****         
 6687              		.loc 1 1528 0
 6688 07ba 0A20     		movs	r0, #10
 6689 07bc FFF7FEFF 		bl	CyDelayUs
 6690              	.LVL879:
1530:AS76.c        ****         update_max_velocity(Motor_Speed_Y, TMC5160_nCS_MotorY);        
 6691              		.loc 1 1530 0
 6692 07c0 0021     		movs	r1, #0
 6693 07c2 6069     		ldr	r0, [r4, #20]
ARM GAS  C:\Users\Revanth\AppData\Local\Temp\ccbqjHa5.s 			page 177


 6694 07c4 FFF7FEFF 		bl	update_max_velocity
 6695              	.LVL880:
1531:AS76.c        ****         update_max_velocity(Motor_Speed_Z, TMC5160_nCS_MotorZ);
 6696              		.loc 1 1531 0
 6697 07c8 0121     		movs	r1, #1
 6698 07ca A069     		ldr	r0, [r4, #24]
 6699 07cc FFF7FEFF 		bl	update_max_velocity
 6700              	.LVL881:
1532:AS76.c        ****         
 6701              		.loc 1 1532 0
 6702 07d0 0221     		movs	r1, #2
 6703 07d2 E069     		ldr	r0, [r4, #28]
 6704 07d4 FFF7FEFF 		bl	update_max_velocity
 6705              	.LVL882:
1534:AS76.c        ****         Position_X_Requested = Position_X_Requested * 12.8;
 6706              		.loc 1 1534 0
 6707 07d8 286B     		ldr	r0, [r5, #48]
 6708 07da 0028     		cmp	r0, #0
 6709 07dc 00DA     		bge	.L346
 6710 07de 0330     		adds	r0, r0, #3
 6711              	.L346:
 6712 07e0 3A4C     		ldr	r4, .L357+36
1535:AS76.c        ****         
 6713              		.loc 1 1535 0
 6714 07e2 8010     		asrs	r0, r0, #2
 6715 07e4 FFF7FEFF 		bl	__aeabi_i2d
 6716              	.LVL883:
 6717 07e8 31A3     		adr	r3, .L357+8
 6718 07ea D3E90023 		ldrd	r2, [r3]
 6719 07ee FFF7FEFF 		bl	__aeabi_dmul
 6720              	.LVL884:
 6721 07f2 FFF7FEFF 		bl	__aeabi_d2iz
 6722              	.LVL885:
 6723 07f6 2063     		str	r0, [r4, #48]
1537:AS76.c        ****         Position_Y_Requested = Position_Y_Requested * 12.8;
 6724              		.loc 1 1537 0
 6725 07f8 606B     		ldr	r0, [r4, #52]
 6726 07fa 0028     		cmp	r0, #0
 6727 07fc 00DA     		bge	.L347
 6728 07fe 0330     		adds	r0, r0, #3
 6729              	.L347:
 6730 0800 324C     		ldr	r4, .L357+36
1538:AS76.c        ****         
 6731              		.loc 1 1538 0
 6732 0802 8010     		asrs	r0, r0, #2
 6733 0804 FFF7FEFF 		bl	__aeabi_i2d
 6734              	.LVL886:
 6735 0808 29A3     		adr	r3, .L357+8
 6736 080a D3E90023 		ldrd	r2, [r3]
 6737 080e FFF7FEFF 		bl	__aeabi_dmul
 6738              	.LVL887:
 6739 0812 FFF7FEFF 		bl	__aeabi_d2iz
 6740              	.LVL888:
 6741 0816 6063     		str	r0, [r4, #52]
1540:AS76.c        ****         Position_Z_Requested = Position_Z_Requested * 51.2;
 6742              		.loc 1 1540 0
 6743 0818 A06B     		ldr	r0, [r4, #56]
ARM GAS  C:\Users\Revanth\AppData\Local\Temp\ccbqjHa5.s 			page 178


 6744 081a 0028     		cmp	r0, #0
 6745 081c 00DA     		bge	.L348
 6746 081e 0F30     		adds	r0, r0, #15
 6747              	.L348:
 6748 0820 2A4C     		ldr	r4, .L357+36
1541:AS76.c        ****         
 6749              		.loc 1 1541 0
 6750 0822 0011     		asrs	r0, r0, #4
 6751 0824 FFF7FEFF 		bl	__aeabi_i2d
 6752              	.LVL889:
 6753 0828 1FA3     		adr	r3, .L357
 6754 082a D3E90023 		ldrd	r2, [r3]
 6755 082e FFF7FEFF 		bl	__aeabi_dmul
 6756              	.LVL890:
 6757 0832 FFF7FEFF 		bl	__aeabi_d2iz
 6758              	.LVL891:
 6759 0836 A063     		str	r0, [r4, #56]
1543:AS76.c        ****         
 6760              		.loc 1 1543 0
 6761 0838 6420     		movs	r0, #100
 6762 083a FFF7FEFF 		bl	CyDelayUs
 6763              	.LVL892:
1545:AS76.c        ****         CyDelay(100);
 6764              		.loc 1 1545 0
 6765 083e A26B     		ldr	r2, [r4, #56]
 6766 0840 616B     		ldr	r1, [r4, #52]
 6767 0842 206B     		ldr	r0, [r4, #48]
 6768 0844 FFF7FEFF 		bl	goTo_XYZ
 6769              	.LVL893:
 6770 0848 6062     		str	r0, [r4, #36]
1546:AS76.c        ****         Send_Feedback_to_USB(Error);
 6771              		.loc 1 1546 0
 6772 084a 6420     		movs	r0, #100
 6773 084c FFF7FEFF 		bl	CyDelay
 6774              	.LVL894:
1547:AS76.c        ****     }
 6775              		.loc 1 1547 0
 6776 0850 606A     		ldr	r0, [r4, #36]
 6777 0852 FFF7FEFF 		bl	Send_Feedback_to_USB
 6778              	.LVL895:
 6779 0856 38BD     		pop	{r3, r4, r5, pc}
 6780              	.L345:
1549:AS76.c        ****     {
 6781              		.loc 1 1549 0
 6782 0858 B3F5F84F 		cmp	r3, #31744
 6783 085c 03D1     		bne	.L349
1553:AS76.c        ****     }
 6784              		.loc 1 1553 0
 6785 085e 0020     		movs	r0, #0
 6786 0860 FFF7FEFF 		bl	Send_Feedback_to_USB
 6787              	.LVL896:
 6788 0864 38BD     		pop	{r3, r4, r5, pc}
 6789              	.L349:
1555:AS76.c        ****     {
 6790              		.loc 1 1555 0
 6791 0866 FE2B     		cmp	r3, #254
 6792 0868 0FD1     		bne	.L350
ARM GAS  C:\Users\Revanth\AppData\Local\Temp\ccbqjHa5.s 			page 179


1557:AS76.c        ****         Write_Debug_UART_Char("Get Status Command Recived  \r\n");
 6793              		.loc 1 1557 0
 6794 086a FF20     		movs	r0, #255
 6795 086c FFF7FEFF 		bl	LED3_Write
 6796              	.LVL897:
1558:AS76.c        ****         CyDelay(10);
 6797              		.loc 1 1558 0
 6798 0870 1748     		ldr	r0, .L357+40
 6799 0872 FFF7FEFF 		bl	Write_Debug_UART_Char
 6800              	.LVL898:
1559:AS76.c        ****         Send_Feedback_to_USB(0);
 6801              		.loc 1 1559 0
 6802 0876 0A20     		movs	r0, #10
 6803 0878 FFF7FEFF 		bl	CyDelay
 6804              	.LVL899:
1560:AS76.c        ****         LED3_Write(0x00);
 6805              		.loc 1 1560 0
 6806 087c 0020     		movs	r0, #0
 6807 087e FFF7FEFF 		bl	Send_Feedback_to_USB
 6808              	.LVL900:
1561:AS76.c        ****     }
 6809              		.loc 1 1561 0
 6810 0882 0020     		movs	r0, #0
 6811 0884 FFF7FEFF 		bl	LED3_Write
 6812              	.LVL901:
 6813 0888 38BD     		pop	{r3, r4, r5, pc}
 6814              	.L350:
1565:AS76.c        ****         Write_Debug_UART_Char("Wrong Command Received*********** \r\n");
 6815              		.loc 1 1565 0
 6816 088a 1324     		movs	r4, #19
 6817 088c 0F4B     		ldr	r3, .L357+36
 6818 088e 5C62     		str	r4, [r3, #36]
1566:AS76.c        ****         UART_print_all_values();
 6819              		.loc 1 1566 0
 6820 0890 1048     		ldr	r0, .L357+44
 6821 0892 FFF7FEFF 		bl	Write_Debug_UART_Char
 6822              	.LVL902:
1567:AS76.c        ****         Send_Feedback_to_USB(19);
 6823              		.loc 1 1567 0
 6824 0896 FFF7FEFF 		bl	UART_print_all_values
 6825              	.LVL903:
1568:AS76.c        ****     }
 6826              		.loc 1 1568 0
 6827 089a 2046     		mov	r0, r4
 6828 089c FFF7FEFF 		bl	Send_Feedback_to_USB
 6829              	.LVL904:
 6830 08a0 38BD     		pop	{r3, r4, r5, pc}
 6831              	.L358:
 6832 08a2 00BFAFF3 		.align	3
 6832      0080
 6833              	.L357:
 6834 08a8 9A999999 		.word	-1717986918
 6835 08ac 99994940 		.word	1078565273
 6836 08b0 9A999999 		.word	-1717986918
 6837 08b4 99992940 		.word	1076468121
 6838 08b8 00000000 		.word	USB_received
 6839 08bc 00000000 		.word	.LANCHOR1
ARM GAS  C:\Users\Revanth\AppData\Local\Temp\ccbqjHa5.s 			page 180


 6840 08c0 18050000 		.word	.LC43
 6841 08c4 40050000 		.word	.LC44
 6842 08c8 68050000 		.word	.LC45
 6843 08cc 00000000 		.word	.LANCHOR0
 6844 08d0 6C050000 		.word	.LC46
 6845 08d4 8C050000 		.word	.LC47
 6846              		.cfi_endproc
 6847              	.LFE91:
 6848              		.size	Process_USB_Data, .-Process_USB_Data
 6849              		.global	exit_loop
 6850              		.global	ms_count
 6851              		.global	PWM_barcode_comare_value
 6852              		.global	PWM_Condenser_comare_value
 6853              		.global	HomeT_done_Buffer
 6854              		.global	HomeZ_done_Buffer
 6855              		.global	HomeY_done_Buffer
 6856              		.global	HomeX_done_Buffer
 6857              		.global	HomeT_done
 6858              		.global	HomeZ_done
 6859              		.global	HomeY_done
 6860              		.global	HomeX_done
 6861              		.global	Motor_Speed_Z
 6862              		.global	Motor_Speed_Y
 6863              		.global	Motor_Speed_X
 6864              		.global	T_Pitchfactor
 6865              		.global	Z_Pitchfactor
 6866              		.global	Y_Pitchfactor
 6867              		.global	X_Pitchfactor
 6868              		.global	Buffer_T_QuadPosition
 6869              		.global	Buffer_Z_QuadPosition
 6870              		.global	EncoderTZSelect
 6871              		.global	T_QuadPosition
 6872              		.global	Z_QuadPosition
 6873              		.global	Y_QuadPosition
 6874              		.global	X_QuadPosition
 6875              		.global	oil_dir
 6876              		.global	oil_speed
 6877              		.global	time_ms
 6878              		.global	Position_T_Requested
 6879              		.global	Position_Z_Requested
 6880              		.global	Position_X_Requested
 6881              		.global	Position_Y_Requested
 6882              		.global	Error
 6883              		.comm	command,4,4
 6884              		.global	Time_Out_Error
 6885              		.comm	USB_transmit,58,4
 6886              		.comm	USB_received,64,4
 6887              		.comm	count,2,2
 6888              		.comm	Is_Slide_On_Gripper,1,1
 6889              		.data
 6890              		.align	2
 6891              		.set	.LANCHOR1,. + 0
 6892              		.type	PWM_Condenser_comare_value, %object
 6893              		.size	PWM_Condenser_comare_value, 4
 6894              	PWM_Condenser_comare_value:
 6895 0000 C8000000 		.word	200
 6896              		.type	Str_Last_One.9207, %object
ARM GAS  C:\Users\Revanth\AppData\Local\Temp\ccbqjHa5.s 			page 181


 6897              		.size	Str_Last_One.9207, 13
 6898              	Str_Last_One.9207:
 6899 0004 53686F6E 		.ascii	"ShonitV2.2\015\012\000"
 6899      69745632 
 6899      2E320D0A 
 6899      00
 6900 0011 000000   		.space	3
 6901              		.type	Motor_Speed_X, %object
 6902              		.size	Motor_Speed_X, 4
 6903              	Motor_Speed_X:
 6904 0014 00B00400 		.word	307200
 6905              		.type	Motor_Speed_Y, %object
 6906              		.size	Motor_Speed_Y, 4
 6907              	Motor_Speed_Y:
 6908 0018 00B00400 		.word	307200
 6909              		.type	Motor_Speed_Z, %object
 6910              		.size	Motor_Speed_Z, 4
 6911              	Motor_Speed_Z:
 6912 001c 00B00400 		.word	307200
 6913              		.type	HomeY_done, %object
 6914              		.size	HomeY_done, 1
 6915              	HomeY_done:
 6916 0020 01       		.byte	1
 6917              		.type	HomeX_done, %object
 6918              		.size	HomeX_done, 1
 6919              	HomeX_done:
 6920 0021 01       		.byte	1
 6921              		.type	HomeZ_done, %object
 6922              		.size	HomeZ_done, 1
 6923              	HomeZ_done:
 6924 0022 01       		.byte	1
 6925 0023 00       		.space	1
 6926              		.type	X_Pitchfactor, %object
 6927              		.size	X_Pitchfactor, 4
 6928              	X_Pitchfactor:
 6929 0024 CDCC4C41 		.word	1095552205
 6930              		.type	HomeT_done, %object
 6931              		.size	HomeT_done, 1
 6932              	HomeT_done:
 6933 0028 01       		.byte	1
 6934 0029 000000   		.space	3
 6935              		.type	T_Pitchfactor, %object
 6936              		.size	T_Pitchfactor, 4
 6937              	T_Pitchfactor:
 6938 002c CDCC4C40 		.word	1078774989
 6939              		.type	Z_Pitchfactor, %object
 6940              		.size	Z_Pitchfactor, 4
 6941              	Z_Pitchfactor:
 6942 0030 CDCC4C40 		.word	1078774989
 6943              		.type	Y_Pitchfactor, %object
 6944              		.size	Y_Pitchfactor, 4
 6945              	Y_Pitchfactor:
 6946 0034 CDCC4C41 		.word	1095552205
 6947              		.type	Time_Out_Error, %object
 6948              		.size	Time_Out_Error, 1
 6949              	Time_Out_Error:
 6950 0038 01       		.byte	1
ARM GAS  C:\Users\Revanth\AppData\Local\Temp\ccbqjHa5.s 			page 182


 6951              		.section	.rodata.str1.4,"aMS",%progbits,1
 6952              		.align	2
 6953              	.LC0:
 6954 0000 42656570 		.ascii	"Beeped Once  \015\012\000"
 6954      6564204F 
 6954      6E636520 
 6954      200D0A00 
 6955              	.LC1:
 6956 0010 42656570 		.ascii	"Beeped Twice  \015\012\000"
 6956      65642054 
 6956      77696365 
 6956      20200D0A 
 6956      00
 6957 0021 000000   		.space	3
 6958              	.LC2:
 6959 0024 42656570 		.ascii	"Beeped Long  \015\012\000"
 6959      6564204C 
 6959      6F6E6720 
 6959      200D0A00 
 6960              	.LC3:
 6961 0034 46656564 		.ascii	"Feedback Sent to Motherboard  \015\012\000"
 6961      6261636B 
 6961      2053656E 
 6961      7420746F 
 6961      204D6F74 
 6962 0055 000000   		.space	3
 6963              	.LC4:
 6964 0058 55534220 		.ascii	"USB not Connected***********  \015\012\000"
 6964      6E6F7420 
 6964      436F6E6E 
 6964      65637465 
 6964      642A2A2A 
 6965 0079 000000   		.space	3
 6966              	.LC5:
 6967 007c 55534220 		.ascii	"USB Connected  \015\012\000"
 6967      436F6E6E 
 6967      65637465 
 6967      6420200D 
 6967      0A00
 6968 008e 0000     		.space	2
 6969              	.LC6:
 6970 0090 25642C20 		.ascii	"%d, \000"
 6970      00
 6971 0095 000000   		.space	3
 6972              	.LC7:
 6973 0098 4C454420 		.ascii	"LED Barcode Value Recived--->\000"
 6973      42617263 
 6973      6F646520 
 6973      56616C75 
 6973      65205265 
 6974 00b6 0000     		.space	2
 6975              	.LC8:
 6976 00b8 0D0A00   		.ascii	"\015\012\000"
 6977 00bb 00       		.space	1
 6978              	.LC9:
 6979 00bc 53657420 		.ascii	"Set Barcode LED Command Executed  \015\012\000"
 6979      42617263 
ARM GAS  C:\Users\Revanth\AppData\Local\Temp\ccbqjHa5.s 			page 183


 6979      6F646520 
 6979      4C454420 
 6979      436F6D6D 
 6980 00e1 000000   		.space	3
 6981              	.LC10:
 6982 00e4 204C4544 		.ascii	" LED Value Recived--->\000"
 6982      2056616C 
 6982      75652052 
 6982      65636976 
 6982      65642D2D 
 6983 00fb 00       		.space	1
 6984              	.LC11:
 6985 00fc 53657420 		.ascii	"Set LED Command Executed  \015\012\000"
 6985      4C454420 
 6985      436F6D6D 
 6985      616E6420 
 6985      45786563 
 6986 0119 000000   		.space	3
 6987              	.LC12:
 6988 011c 2D2D2D2D 		.ascii	"--------------------------------------------------\000"
 6988      2D2D2D2D 
 6988      2D2D2D2D 
 6988      2D2D2D2D 
 6988      2D2D2D2D 
 6989 014f 00       		.space	1
 6990              	.LC13:
 6991 0150 0A00     		.ascii	"\012\000"
 6992 0152 0000     		.space	2
 6993              	.LC14:
 6994 0154 595F486F 		.ascii	"Y_Homing_Not_Done_Yet***********[x12]  \015\012\000"
 6994      6D696E67 
 6994      5F4E6F74 
 6994      5F446F6E 
 6994      655F5965 
 6995 017e 0000     		.space	2
 6996              	.LC15:
 6997 0180 585F486F 		.ascii	"X_Homing_Not_Done_Yet***********  \015\012\000"
 6997      6D696E67 
 6997      5F4E6F74 
 6997      5F446F6E 
 6997      655F5965 
 6998 01a5 000000   		.space	3
 6999              	.LC16:
 7000 01a8 5A5F486F 		.ascii	"Z_Homing_Not_Done_Yet***********  \015\012\000"
 7000      6D696E67 
 7000      5F4E6F74 
 7000      5F446F6E 
 7000      655F5965 
 7001 01cd 000000   		.space	3
 7002              	.LC17:
 7003 01d0 55534220 		.ascii	"USB Unpluged PCB resetting ***********  \015\012\000"
 7003      556E706C 
 7003      75676564 
 7003      20504342 
 7003      20726573 
 7004 01fb 00       		.space	1
 7005              	.LC18:
ARM GAS  C:\Users\Revanth\AppData\Local\Temp\ccbqjHa5.s 			page 184


 7006 01fc 4E6F2056 		.ascii	"No Valid Driver nCS asserted/de-asserted for SPI Re"
 7006      616C6964 
 7006      20447269 
 7006      76657220 
 7006      6E435320 
 7007 022f 61642F57 		.ascii	"ad/Write  \015\012\000"
 7007      72697465 
 7007      20200D0A 
 7007      00
 7008              	.LC19:
 7009 023c 496E7661 		.ascii	"Invalid GPIO Level Value, Unable to assert/de-asser"
 7009      6C696420 
 7009      4750494F 
 7009      204C6576 
 7009      656C2056 
 7010 026f 74206E43 		.ascii	"t nCSN Pin for SPI Read/Write  \015\012\000"
 7010      534E2050 
 7010      696E2066 
 7010      6F722053 
 7010      50492052 
 7011 0291 000000   		.space	3
 7012              	.LC20:
 7013 0294 4661696C 		.ascii	"Fail to reach X position \015\012\000"
 7013      20746F20 
 7013      72656163 
 7013      68205820 
 7013      706F7369 
 7014              	.LC21:
 7015 02b0 5820456E 		.ascii	"X Encoder or X Motor Might Not be Working \015\012\000"
 7015      636F6465 
 7015      72206F72 
 7015      2058204D 
 7015      6F746F72 
 7016 02dd 000000   		.space	3
 7017              	.LC22:
 7018 02e0 5820706F 		.ascii	"X position Reached\000"
 7018      73697469 
 7018      6F6E2052 
 7018      65616368 
 7018      656400
 7019 02f3 00       		.space	1
 7020              	.LC23:
 7021 02f4 476F746F 		.ascii	"GotoX Command Recived--->\000"
 7021      5820436F 
 7021      6D6D616E 
 7021      64205265 
 7021      63697665 
 7022 030e 0000     		.space	2
 7023              	.LC24:
 7024 0310 20200D0A 		.ascii	"  \015\012\000"
 7024      00
 7025 0315 000000   		.space	3
 7026              	.LC25:
 7027 0318 486F6D69 		.ascii	"Homing Not Done\000"
 7027      6E67204E 
 7027      6F742044 
 7027      6F6E6500 
ARM GAS  C:\Users\Revanth\AppData\Local\Temp\ccbqjHa5.s 			page 185


 7028              	.LC26:
 7029 0328 4661696C 		.ascii	"Fail to reach Y position \015\012\000"
 7029      20746F20 
 7029      72656163 
 7029      68205920 
 7029      706F7369 
 7030              	.LC27:
 7031 0344 5920456E 		.ascii	"Y Encoder or Y Motor Might Not be Working \015\012\000"
 7031      636F6465 
 7031      72206F72 
 7031      2059204D 
 7031      6F746F72 
 7032 0371 000000   		.space	3
 7033              	.LC28:
 7034 0374 5920706F 		.ascii	"Y position Reached\000"
 7034      73697469 
 7034      6F6E2052 
 7034      65616368 
 7034      656400
 7035 0387 00       		.space	1
 7036              	.LC29:
 7037 0388 4661696C 		.ascii	"Fail to reach Z position \015\012\000"
 7037      20746F20 
 7037      72656163 
 7037      68205A20 
 7037      706F7369 
 7038              	.LC30:
 7039 03a4 5A20456E 		.ascii	"Z Encoder or Z Motor Might Not be Working \015\012\000"
 7039      636F6465 
 7039      72206F72 
 7039      205A204D 
 7039      6F746F72 
 7040 03d1 000000   		.space	3
 7041              	.LC31:
 7042 03d4 5A20706F 		.ascii	"Z position Reached\000"
 7042      73697469 
 7042      6F6E2052 
 7042      65616368 
 7042      656400
 7043 03e7 00       		.space	1
 7044              	.LC32:
 7045 03e8 476F746F 		.ascii	"GotoZ Command Recived--->\000"
 7045      5A20436F 
 7045      6D6D616E 
 7045      64205265 
 7045      63697665 
 7046 0402 0000     		.space	2
 7047              	.LC33:
 7048 0404 4661696C 		.ascii	"Fail to reach T position \015\012\000"
 7048      20746F20 
 7048      72656163 
 7048      68205420 
 7048      706F7369 
 7049              	.LC34:
 7050 0420 5420456E 		.ascii	"T Encoder or T Motor Might Not be Working \015\012\000"
 7050      636F6465 
 7050      72206F72 
ARM GAS  C:\Users\Revanth\AppData\Local\Temp\ccbqjHa5.s 			page 186


 7050      2054204D 
 7050      6F746F72 
 7051 044d 000000   		.space	3
 7052              	.LC35:
 7053 0450 5420706F 		.ascii	"T position Reached\000"
 7053      73697469 
 7053      6F6E2052 
 7053      65616368 
 7053      656400
 7054 0463 00       		.space	1
 7055              	.LC36:
 7056 0464 476F746F 		.ascii	"GotoT Command Recived--->\000"
 7056      5420436F 
 7056      6D6D616E 
 7056      64205265 
 7056      63697665 
 7057 047e 0000     		.space	2
 7058              	.LC37:
 7059 0480 486F6D65 		.ascii	"HomeX executed  \015\012\000"
 7059      58206578 
 7059      65637574 
 7059      65642020 
 7059      0D0A00
 7060 0493 00       		.space	1
 7061              	.LC38:
 7062 0494 486F6D65 		.ascii	"HomeY executed  \015\012\000"
 7062      59206578 
 7062      65637574 
 7062      65642020 
 7062      0D0A00
 7063 04a7 00       		.space	1
 7064              	.LC39:
 7065 04a8 486F6D65 		.ascii	"HomeZ executed  \015\012\000"
 7065      5A206578 
 7065      65637574 
 7065      65642020 
 7065      0D0A00
 7066 04bb 00       		.space	1
 7067              	.LC40:
 7068 04bc 486F6D65 		.ascii	"HomeT executed  \015\012\000"
 7068      54206578 
 7068      65637574 
 7068      65642020 
 7068      0D0A00
 7069 04cf 00       		.space	1
 7070              	.LC41:
 7071 04d0 4261636B 		.ascii	"Backlight LED wronf Value Provided  \015\012\000"
 7071      6C696768 
 7071      74204C45 
 7071      44207772 
 7071      6F6E6620 
 7072 04f7 00       		.space	1
 7073              	.LC42:
 7074 04f8 50434220 		.ascii	"PCB Reset Command Recived  \015\012\000"
 7074      52657365 
 7074      7420436F 
 7074      6D6D616E 
ARM GAS  C:\Users\Revanth\AppData\Local\Temp\ccbqjHa5.s 			page 187


 7074      64205265 
 7075 0516 0000     		.space	2
 7076              	.LC43:
 7077 0518 5365744E 		.ascii	"SetNoOfExecution Command Recived  \015\012\000"
 7077      6F4F6645 
 7077      78656375 
 7077      74696F6E 
 7077      20436F6D 
 7078 053d 000000   		.space	3
 7079              	.LC44:
 7080 0540 56616C75 		.ascii	"Value received for x,y and z is --->\000"
 7080      65207265 
 7080      63656976 
 7080      65642066 
 7080      6F722078 
 7081 0565 000000   		.space	3
 7082              	.LC45:
 7083 0568 2C00     		.ascii	",\000"
 7084 056a 0000     		.space	2
 7085              	.LC46:
 7086 056c 47657420 		.ascii	"Get Status Command Recived  \015\012\000"
 7086      53746174 
 7086      75732043 
 7086      6F6D6D61 
 7086      6E642052 
 7087 058b 00       		.space	1
 7088              	.LC47:
 7089 058c 57726F6E 		.ascii	"Wrong Command Received*********** \015\012\000"
 7089      6720436F 
 7089      6D6D616E 
 7089      64205265 
 7089      63656976 
 7090              		.bss
 7091              		.align	2
 7092              		.set	.LANCHOR0,. + 0
 7093              		.type	ms_count, %object
 7094              		.size	ms_count, 2
 7095              	ms_count:
 7096 0000 0000     		.space	2
 7097              		.type	exit_loop, %object
 7098              		.size	exit_loop, 1
 7099              	exit_loop:
 7100 0002 00       		.space	1
 7101 0003 00       		.space	1
 7102              		.type	EncoderTZSelect, %object
 7103              		.size	EncoderTZSelect, 4
 7104              	EncoderTZSelect:
 7105 0004 00000000 		.space	4
 7106              		.type	X_QuadPosition, %object
 7107              		.size	X_QuadPosition, 4
 7108              	X_QuadPosition:
 7109 0008 00000000 		.space	4
 7110              		.type	Y_QuadPosition, %object
 7111              		.size	Y_QuadPosition, 4
 7112              	Y_QuadPosition:
 7113 000c 00000000 		.space	4
 7114              		.type	Z_QuadPosition, %object
ARM GAS  C:\Users\Revanth\AppData\Local\Temp\ccbqjHa5.s 			page 188


 7115              		.size	Z_QuadPosition, 4
 7116              	Z_QuadPosition:
 7117 0010 00000000 		.space	4
 7118              		.type	T_QuadPosition, %object
 7119              		.size	T_QuadPosition, 4
 7120              	T_QuadPosition:
 7121 0014 00000000 		.space	4
 7122              		.type	Buffer_Z_QuadPosition, %object
 7123              		.size	Buffer_Z_QuadPosition, 4
 7124              	Buffer_Z_QuadPosition:
 7125 0018 00000000 		.space	4
 7126              		.type	Buffer_T_QuadPosition, %object
 7127              		.size	Buffer_T_QuadPosition, 4
 7128              	Buffer_T_QuadPosition:
 7129 001c 00000000 		.space	4
 7130              		.type	PWM_barcode_comare_value, %object
 7131              		.size	PWM_barcode_comare_value, 4
 7132              	PWM_barcode_comare_value:
 7133 0020 00000000 		.space	4
 7134              		.type	Error, %object
 7135              		.size	Error, 4
 7136              	Error:
 7137 0024 00000000 		.space	4
 7138              		.type	dont_Execute_1st_Time.9190, %object
 7139              		.size	dont_Execute_1st_Time.9190, 1
 7140              	dont_Execute_1st_Time.9190:
 7141 0028 00       		.space	1
 7142              		.type	HomeX_done_Buffer, %object
 7143              		.size	HomeX_done_Buffer, 1
 7144              	HomeX_done_Buffer:
 7145 0029 00       		.space	1
 7146              		.type	HomeY_done_Buffer, %object
 7147              		.size	HomeY_done_Buffer, 1
 7148              	HomeY_done_Buffer:
 7149 002a 00       		.space	1
 7150              		.type	HomeZ_done_Buffer, %object
 7151              		.size	HomeZ_done_Buffer, 1
 7152              	HomeZ_done_Buffer:
 7153 002b 00       		.space	1
 7154              		.type	HomeT_done_Buffer, %object
 7155              		.size	HomeT_done_Buffer, 1
 7156              	HomeT_done_Buffer:
 7157 002c 00       		.space	1
 7158 002d 000000   		.space	3
 7159              		.type	Position_X_Requested, %object
 7160              		.size	Position_X_Requested, 4
 7161              	Position_X_Requested:
 7162 0030 00000000 		.space	4
 7163              		.type	Position_Y_Requested, %object
 7164              		.size	Position_Y_Requested, 4
 7165              	Position_Y_Requested:
 7166 0034 00000000 		.space	4
 7167              		.type	Position_Z_Requested, %object
 7168              		.size	Position_Z_Requested, 4
 7169              	Position_Z_Requested:
 7170 0038 00000000 		.space	4
 7171              		.type	Position_T_Requested, %object
ARM GAS  C:\Users\Revanth\AppData\Local\Temp\ccbqjHa5.s 			page 189


 7172              		.size	Position_T_Requested, 4
 7173              	Position_T_Requested:
 7174 003c 00000000 		.space	4
 7175              		.type	time_ms, %object
 7176              		.size	time_ms, 4
 7177              	time_ms:
 7178 0040 00000000 		.space	4
 7179              		.type	oil_speed, %object
 7180              		.size	oil_speed, 4
 7181              	oil_speed:
 7182 0044 00000000 		.space	4
 7183              		.type	oil_dir, %object
 7184              		.size	oil_dir, 4
 7185              	oil_dir:
 7186 0048 00000000 		.space	4
 7187              		.text
 7188              	.Letext0:
 7189              		.file 2 "c:\\program files (x86)\\cypress\\psoc creator\\4.4\\psoc creator\\import\\gnu\\arm\\5.4.
 7190              		.file 3 "c:\\program files (x86)\\cypress\\psoc creator\\4.4\\psoc creator\\import\\gnu\\arm\\5.4.
 7191              		.file 4 "Generated_Source\\PSoC5/cytypes.h"
 7192              		.file 5 "Generated_Source\\PSoC5/core_cm3.h"
 7193              		.file 6 "variables.h"
 7194              		.file 7 "Generated_Source\\PSoC5/PWM_CondenserLED.h"
 7195              		.file 8 "Generated_Source\\PSoC5/PWM_BarcodeCondenser_LED.h"
 7196              		.file 9 "Generated_Source\\PSoC5/PWM_Buzzer.h"
 7197              		.file 10 "Generated_Source\\PSoC5/CyLib.h"
 7198              		.file 11 "Generated_Source\\PSoC5/Pin_Backlight.h"
 7199              		.file 12 "Generated_Source\\PSoC5/QuadDec_TZ.h"
 7200              		.file 13 "Generated_Source\\PSoC5/Encoder_T_Z_Select.h"
 7201              		.file 14 "Generated_Source\\PSoC5/QuadDec_Y.h"
 7202              		.file 15 "Generated_Source\\PSoC5/QuadDec_X.h"
 7203              		.file 16 "Generated_Source\\PSoC5/USB_cdc.h"
 7204              		.file 17 "c:\\program files (x86)\\cypress\\psoc creator\\4.4\\psoc creator\\import\\gnu\\arm\\5.4
 7205              		.file 18 "Generated_Source\\PSoC5/UART_PCB_LOG.h"
 7206              		.file 19 "Generated_Source\\PSoC5/USB.h"
 7207              		.file 20 "c:\\program files (x86)\\cypress\\psoc creator\\4.4\\psoc creator\\import\\gnu\\arm\\5.4
 7208              		.file 21 "Generated_Source\\PSoC5/SPIM.h"
 7209              		.file 22 "Generated_Source\\PSoC5/Pin_CSMotorX.h"
 7210              		.file 23 "Generated_Source\\PSoC5/Pin_CSMotorY.h"
 7211              		.file 24 "Generated_Source\\PSoC5/Pin_CSMotorZ.h"
 7212              		.file 25 "Generated_Source\\PSoC5/Pin_CSMotorT.h"
 7213              		.file 26 "Generated_Source\\PSoC5/Pin_CSMotorO.h"
 7214              		.file 27 "Generated_Source\\PSoC5/LED3.h"
 7215              		.file 28 "Generated_Source\\PSoC5/LED2.h"
 7216              		.file 29 "Generated_Source\\PSoC5/TMC5160_MotorT_EN.h"
 7217              		.file 30 "Generated_Source\\PSoC5/wait_timer.h"
 7218              		.file 31 "Generated_Source\\PSoC5/wait_interrupt.h"
 7219              		.file 32 "Generated_Source\\PSoC5/TMC5160_MotorO_EN.h"
 7220              		.file 33 "Generated_Source\\PSoC5/TMC5160_MotorZ_EN.h"
 7221              		.file 34 "Generated_Source\\PSoC5/TMC5160_MotorY_EN.h"
 7222              		.file 35 "Generated_Source\\PSoC5/TMC5160_MotorX_EN.h"
 7223              		.section	.debug_info,"",%progbits
 7224              	.Ldebug_info0:
 7225 0000 8E480000 		.4byte	0x488e
 7226 0004 0400     		.2byte	0x4
 7227 0006 00000000 		.4byte	.Ldebug_abbrev0
 7228 000a 04       		.byte	0x4
ARM GAS  C:\Users\Revanth\AppData\Local\Temp\ccbqjHa5.s 			page 190


 7229 000b 01       		.uleb128 0x1
 7230 000c D8080000 		.4byte	.LASF190
 7231 0010 0C       		.byte	0xc
 7232 0011 3A080000 		.4byte	.LASF191
 7233 0015 2C060000 		.4byte	.LASF192
 7234 0019 00000000 		.4byte	.Ldebug_ranges0+0
 7235 001d 00000000 		.4byte	0
 7236 0021 00000000 		.4byte	.Ldebug_line0
 7237 0025 02       		.uleb128 0x2
 7238 0026 01       		.byte	0x1
 7239 0027 06       		.byte	0x6
 7240 0028 C2010000 		.4byte	.LASF0
 7241 002c 03       		.uleb128 0x3
 7242 002d 55000000 		.4byte	.LASF3
 7243 0031 02       		.byte	0x2
 7244 0032 1D       		.byte	0x1d
 7245 0033 37000000 		.4byte	0x37
 7246 0037 02       		.uleb128 0x2
 7247 0038 01       		.byte	0x1
 7248 0039 08       		.byte	0x8
 7249 003a 2C080000 		.4byte	.LASF1
 7250 003e 02       		.uleb128 0x2
 7251 003f 02       		.byte	0x2
 7252 0040 05       		.byte	0x5
 7253 0041 75080000 		.4byte	.LASF2
 7254 0045 03       		.uleb128 0x3
 7255 0046 8C030000 		.4byte	.LASF4
 7256 004a 02       		.byte	0x2
 7257 004b 2B       		.byte	0x2b
 7258 004c 50000000 		.4byte	0x50
 7259 0050 02       		.uleb128 0x2
 7260 0051 02       		.byte	0x2
 7261 0052 07       		.byte	0x7
 7262 0053 D4040000 		.4byte	.LASF5
 7263 0057 03       		.uleb128 0x3
 7264 0058 3D0A0000 		.4byte	.LASF6
 7265 005c 02       		.byte	0x2
 7266 005d 3F       		.byte	0x3f
 7267 005e 62000000 		.4byte	0x62
 7268 0062 02       		.uleb128 0x2
 7269 0063 04       		.byte	0x4
 7270 0064 05       		.byte	0x5
 7271 0065 83020000 		.4byte	.LASF7
 7272 0069 03       		.uleb128 0x3
 7273 006a 97030000 		.4byte	.LASF8
 7274 006e 02       		.byte	0x2
 7275 006f 41       		.byte	0x41
 7276 0070 74000000 		.4byte	0x74
 7277 0074 02       		.uleb128 0x2
 7278 0075 04       		.byte	0x4
 7279 0076 07       		.byte	0x7
 7280 0077 73040000 		.4byte	.LASF9
 7281 007b 02       		.uleb128 0x2
 7282 007c 08       		.byte	0x8
 7283 007d 05       		.byte	0x5
 7284 007e FD020000 		.4byte	.LASF10
 7285 0082 02       		.uleb128 0x2
ARM GAS  C:\Users\Revanth\AppData\Local\Temp\ccbqjHa5.s 			page 191


 7286 0083 08       		.byte	0x8
 7287 0084 07       		.byte	0x7
 7288 0085 1D010000 		.4byte	.LASF11
 7289 0089 04       		.uleb128 0x4
 7290 008a 04       		.byte	0x4
 7291 008b 05       		.byte	0x5
 7292 008c 696E7400 		.ascii	"int\000"
 7293 0090 02       		.uleb128 0x2
 7294 0091 04       		.byte	0x4
 7295 0092 07       		.byte	0x7
 7296 0093 F4030000 		.4byte	.LASF12
 7297 0097 03       		.uleb128 0x3
 7298 0098 4F0B0000 		.4byte	.LASF13
 7299 009c 03       		.byte	0x3
 7300 009d 18       		.byte	0x18
 7301 009e 2C000000 		.4byte	0x2c
 7302 00a2 03       		.uleb128 0x3
 7303 00a3 18030000 		.4byte	.LASF14
 7304 00a7 03       		.byte	0x3
 7305 00a8 24       		.byte	0x24
 7306 00a9 45000000 		.4byte	0x45
 7307 00ad 03       		.uleb128 0x3
 7308 00ae 24080000 		.4byte	.LASF15
 7309 00b2 03       		.byte	0x3
 7310 00b3 2C       		.byte	0x2c
 7311 00b4 57000000 		.4byte	0x57
 7312 00b8 03       		.uleb128 0x3
 7313 00b9 9E090000 		.4byte	.LASF16
 7314 00bd 03       		.byte	0x3
 7315 00be 30       		.byte	0x30
 7316 00bf 69000000 		.4byte	0x69
 7317 00c3 02       		.uleb128 0x2
 7318 00c4 08       		.byte	0x8
 7319 00c5 04       		.byte	0x4
 7320 00c6 A9060000 		.4byte	.LASF17
 7321 00ca 02       		.uleb128 0x2
 7322 00cb 04       		.byte	0x4
 7323 00cc 07       		.byte	0x7
 7324 00cd 96060000 		.4byte	.LASF18
 7325 00d1 05       		.uleb128 0x5
 7326 00d2 04       		.byte	0x4
 7327 00d3 D7000000 		.4byte	0xd7
 7328 00d7 02       		.uleb128 0x2
 7329 00d8 01       		.byte	0x1
 7330 00d9 08       		.byte	0x8
 7331 00da CA090000 		.4byte	.LASF19
 7332 00de 02       		.uleb128 0x2
 7333 00df 08       		.byte	0x8
 7334 00e0 04       		.byte	0x4
 7335 00e1 3C0C0000 		.4byte	.LASF20
 7336 00e5 02       		.uleb128 0x2
 7337 00e6 04       		.byte	0x4
 7338 00e7 04       		.byte	0x4
 7339 00e8 C4090000 		.4byte	.LASF21
 7340 00ec 06       		.uleb128 0x6
 7341 00ed EF020000 		.4byte	.LASF22
 7342 00f1 04       		.byte	0x4
ARM GAS  C:\Users\Revanth\AppData\Local\Temp\ccbqjHa5.s 			page 192


 7343 00f2 E401     		.2byte	0x1e4
 7344 00f4 37000000 		.4byte	0x37
 7345 00f8 06       		.uleb128 0x6
 7346 00f9 1D000000 		.4byte	.LASF23
 7347 00fd 04       		.byte	0x4
 7348 00fe E501     		.2byte	0x1e5
 7349 0100 50000000 		.4byte	0x50
 7350 0104 06       		.uleb128 0x6
 7351 0105 FD040000 		.4byte	.LASF24
 7352 0109 04       		.byte	0x4
 7353 010a E701     		.2byte	0x1e7
 7354 010c 25000000 		.4byte	0x25
 7355 0110 06       		.uleb128 0x6
 7356 0111 26020000 		.4byte	.LASF25
 7357 0115 04       		.byte	0x4
 7358 0116 E901     		.2byte	0x1e9
 7359 0118 62000000 		.4byte	0x62
 7360 011c 07       		.uleb128 0x7
 7361 011d 75030000 		.4byte	.LASF193
 7362 0121 01       		.byte	0x1
 7363 0122 49       		.byte	0x49
 7364 0123 00000000 		.4byte	.LFB64
 7365 0127 24000000 		.4byte	.LFE64-.LFB64
 7366 012b 01       		.uleb128 0x1
 7367 012c 9C       		.byte	0x9c
 7368 012d 08       		.uleb128 0x8
 7369 012e 51010000 		.4byte	.LASF31
 7370 0132 01       		.byte	0x1
 7371 0133 5404     		.2byte	0x454
 7372 0135 00000000 		.4byte	.LFB80
 7373 0139 50000000 		.4byte	.LFE80-.LFB80
 7374 013d 01       		.uleb128 0x1
 7375 013e 9C       		.byte	0x9c
 7376 013f 03020000 		.4byte	0x203
 7377 0143 09       		.uleb128 0x9
 7378 0144 06000000 		.4byte	.LVL0
 7379 0148 7D460000 		.4byte	0x467d
 7380 014c 09       		.uleb128 0x9
 7381 014d 0E000000 		.4byte	.LVL1
 7382 0151 88460000 		.4byte	0x4688
 7383 0155 09       		.uleb128 0x9
 7384 0156 12000000 		.4byte	.LVL2
 7385 015a 93460000 		.4byte	0x4693
 7386 015e 0A       		.uleb128 0xa
 7387 015f 18000000 		.4byte	.LVL3
 7388 0163 9E460000 		.4byte	0x469e
 7389 0167 71010000 		.4byte	0x171
 7390 016b 0B       		.uleb128 0xb
 7391 016c 01       		.uleb128 0x1
 7392 016d 50       		.byte	0x50
 7393 016e 01       		.uleb128 0x1
 7394 016f 32       		.byte	0x32
 7395 0170 00       		.byte	0
 7396 0171 09       		.uleb128 0x9
 7397 0172 1C000000 		.4byte	.LVL4
 7398 0176 A9460000 		.4byte	0x46a9
 7399 017a 0A       		.uleb128 0xa
ARM GAS  C:\Users\Revanth\AppData\Local\Temp\ccbqjHa5.s 			page 193


 7400 017b 24000000 		.4byte	.LVL5
 7401 017f B4460000 		.4byte	0x46b4
 7402 0183 8F010000 		.4byte	0x18f
 7403 0187 0B       		.uleb128 0xb
 7404 0188 01       		.uleb128 0x1
 7405 0189 50       		.byte	0x50
 7406 018a 03       		.uleb128 0x3
 7407 018b 0A       		.byte	0xa
 7408 018c C409     		.2byte	0x9c4
 7409 018e 00       		.byte	0
 7410 018f 0A       		.uleb128 0xa
 7411 0190 2A000000 		.4byte	.LVL6
 7412 0194 BF460000 		.4byte	0x46bf
 7413 0198 A3010000 		.4byte	0x1a3
 7414 019c 0B       		.uleb128 0xb
 7415 019d 01       		.uleb128 0x1
 7416 019e 50       		.byte	0x50
 7417 019f 02       		.uleb128 0x2
 7418 01a0 08       		.byte	0x8
 7419 01a1 C8       		.byte	0xc8
 7420 01a2 00       		.byte	0
 7421 01a3 0A       		.uleb128 0xa
 7422 01a4 30000000 		.4byte	.LVL7
 7423 01a8 B4460000 		.4byte	0x46b4
 7424 01ac B6010000 		.4byte	0x1b6
 7425 01b0 0B       		.uleb128 0xb
 7426 01b1 01       		.uleb128 0x1
 7427 01b2 50       		.byte	0x50
 7428 01b3 01       		.uleb128 0x1
 7429 01b4 30       		.byte	0x30
 7430 01b5 00       		.byte	0
 7431 01b6 0A       		.uleb128 0xa
 7432 01b7 36000000 		.4byte	.LVL8
 7433 01bb BF460000 		.4byte	0x46bf
 7434 01bf CA010000 		.4byte	0x1ca
 7435 01c3 0B       		.uleb128 0xb
 7436 01c4 01       		.uleb128 0x1
 7437 01c5 50       		.byte	0x50
 7438 01c6 02       		.uleb128 0x2
 7439 01c7 08       		.byte	0x8
 7440 01c8 C8       		.byte	0xc8
 7441 01c9 00       		.byte	0
 7442 01ca 0A       		.uleb128 0xa
 7443 01cb 3E000000 		.4byte	.LVL9
 7444 01cf B4460000 		.4byte	0x46b4
 7445 01d3 DF010000 		.4byte	0x1df
 7446 01d7 0B       		.uleb128 0xb
 7447 01d8 01       		.uleb128 0x1
 7448 01d9 50       		.byte	0x50
 7449 01da 03       		.uleb128 0x3
 7450 01db 0A       		.byte	0xa
 7451 01dc C409     		.2byte	0x9c4
 7452 01de 00       		.byte	0
 7453 01df 0A       		.uleb128 0xa
 7454 01e0 44000000 		.4byte	.LVL10
 7455 01e4 BF460000 		.4byte	0x46bf
 7456 01e8 F3010000 		.4byte	0x1f3
ARM GAS  C:\Users\Revanth\AppData\Local\Temp\ccbqjHa5.s 			page 194


 7457 01ec 0B       		.uleb128 0xb
 7458 01ed 01       		.uleb128 0x1
 7459 01ee 50       		.byte	0x50
 7460 01ef 02       		.uleb128 0x2
 7461 01f0 08       		.byte	0x8
 7462 01f1 C8       		.byte	0xc8
 7463 01f2 00       		.byte	0
 7464 01f3 0C       		.uleb128 0xc
 7465 01f4 4A000000 		.4byte	.LVL11
 7466 01f8 B4460000 		.4byte	0x46b4
 7467 01fc 0B       		.uleb128 0xb
 7468 01fd 01       		.uleb128 0x1
 7469 01fe 50       		.byte	0x50
 7470 01ff 01       		.uleb128 0x1
 7471 0200 30       		.byte	0x30
 7472 0201 00       		.byte	0
 7473 0202 00       		.byte	0
 7474 0203 0D       		.uleb128 0xd
 7475 0204 0A020000 		.4byte	.LASF26
 7476 0208 01       		.byte	0x1
 7477 0209 9E04     		.2byte	0x49e
 7478 020b 00000000 		.4byte	.LFB86
 7479 020f 08000000 		.4byte	.LFE86-.LFB86
 7480 0213 01       		.uleb128 0x1
 7481 0214 9C       		.byte	0x9c
 7482 0215 33020000 		.4byte	0x233
 7483 0219 0E       		.uleb128 0xe
 7484 021a D2030000 		.4byte	.LASF28
 7485 021e 01       		.byte	0x1
 7486 021f 9E04     		.2byte	0x49e
 7487 0221 97000000 		.4byte	0x97
 7488 0225 00000000 		.4byte	.LLST0
 7489 0229 09       		.uleb128 0x9
 7490 022a 06000000 		.4byte	.LVL13
 7491 022e CA460000 		.4byte	0x46ca
 7492 0232 00       		.byte	0
 7493 0233 0D       		.uleb128 0xd
 7494 0234 1B060000 		.4byte	.LASF27
 7495 0238 01       		.byte	0x1
 7496 0239 B304     		.2byte	0x4b3
 7497 023b 00000000 		.4byte	.LFB88
 7498 023f 18000000 		.4byte	.LFE88-.LFB88
 7499 0243 01       		.uleb128 0x1
 7500 0244 9C       		.byte	0x9c
 7501 0245 7F020000 		.4byte	0x27f
 7502 0249 0E       		.uleb128 0xe
 7503 024a 190C0000 		.4byte	.LASF29
 7504 024e 01       		.byte	0x1
 7505 024f B304     		.2byte	0x4b3
 7506 0251 89000000 		.4byte	0x89
 7507 0255 21000000 		.4byte	.LLST1
 7508 0259 0A       		.uleb128 0xa
 7509 025a 0C000000 		.4byte	.LVL15
 7510 025e D5460000 		.4byte	0x46d5
 7511 0262 6E020000 		.4byte	0x26e
 7512 0266 0B       		.uleb128 0xb
 7513 0267 01       		.uleb128 0x1
ARM GAS  C:\Users\Revanth\AppData\Local\Temp\ccbqjHa5.s 			page 195


 7514 0268 50       		.byte	0x50
 7515 0269 03       		.uleb128 0x3
 7516 026a F3       		.byte	0xf3
 7517 026b 01       		.uleb128 0x1
 7518 026c 50       		.byte	0x50
 7519 026d 00       		.byte	0
 7520 026e 0C       		.uleb128 0xc
 7521 026f 12000000 		.4byte	.LVL16
 7522 0273 E0460000 		.4byte	0x46e0
 7523 0277 0B       		.uleb128 0xb
 7524 0278 01       		.uleb128 0x1
 7525 0279 50       		.byte	0x50
 7526 027a 02       		.uleb128 0x2
 7527 027b 74       		.byte	0x74
 7528 027c 00       		.sleb128 0
 7529 027d 00       		.byte	0
 7530 027e 00       		.byte	0
 7531 027f 0D       		.uleb128 0xd
 7532 0280 85060000 		.4byte	.LASF30
 7533 0284 01       		.byte	0x1
 7534 0285 BA04     		.2byte	0x4ba
 7535 0287 00000000 		.4byte	.LFB89
 7536 028b 18000000 		.4byte	.LFE89-.LFB89
 7537 028f 01       		.uleb128 0x1
 7538 0290 9C       		.byte	0x9c
 7539 0291 CB020000 		.4byte	0x2cb
 7540 0295 0E       		.uleb128 0xe
 7541 0296 190C0000 		.4byte	.LASF29
 7542 029a 01       		.byte	0x1
 7543 029b BA04     		.2byte	0x4ba
 7544 029d 89000000 		.4byte	0x89
 7545 02a1 42000000 		.4byte	.LLST2
 7546 02a5 0A       		.uleb128 0xa
 7547 02a6 0C000000 		.4byte	.LVL18
 7548 02aa D5460000 		.4byte	0x46d5
 7549 02ae BA020000 		.4byte	0x2ba
 7550 02b2 0B       		.uleb128 0xb
 7551 02b3 01       		.uleb128 0x1
 7552 02b4 50       		.byte	0x50
 7553 02b5 03       		.uleb128 0x3
 7554 02b6 F3       		.byte	0xf3
 7555 02b7 01       		.uleb128 0x1
 7556 02b8 50       		.byte	0x50
 7557 02b9 00       		.byte	0
 7558 02ba 0C       		.uleb128 0xc
 7559 02bb 12000000 		.4byte	.LVL19
 7560 02bf E0460000 		.4byte	0x46e0
 7561 02c3 0B       		.uleb128 0xb
 7562 02c4 01       		.uleb128 0x1
 7563 02c5 50       		.byte	0x50
 7564 02c6 02       		.uleb128 0x2
 7565 02c7 74       		.byte	0x74
 7566 02c8 00       		.sleb128 0
 7567 02c9 00       		.byte	0
 7568 02ca 00       		.byte	0
 7569 02cb 08       		.uleb128 0x8
 7570 02cc 46050000 		.4byte	.LASF32
ARM GAS  C:\Users\Revanth\AppData\Local\Temp\ccbqjHa5.s 			page 196


 7571 02d0 01       		.byte	0x1
 7572 02d1 A404     		.2byte	0x4a4
 7573 02d3 00000000 		.4byte	.LFB87
 7574 02d7 2C000000 		.4byte	.LFE87-.LFB87
 7575 02db 01       		.uleb128 0x1
 7576 02dc 9C       		.byte	0x9c
 7577 02dd 21030000 		.4byte	0x321
 7578 02e1 09       		.uleb128 0x9
 7579 02e2 12000000 		.4byte	.LVL20
 7580 02e6 EB460000 		.4byte	0x46eb
 7581 02ea 09       		.uleb128 0x9
 7582 02eb 16000000 		.4byte	.LVL21
 7583 02ef F6460000 		.4byte	0x46f6
 7584 02f3 09       		.uleb128 0x9
 7585 02f4 1A000000 		.4byte	.LVL22
 7586 02f8 01470000 		.4byte	0x4701
 7587 02fc 0A       		.uleb128 0xa
 7588 02fd 20000000 		.4byte	.LVL23
 7589 0301 7F020000 		.4byte	0x27f
 7590 0305 10030000 		.4byte	0x310
 7591 0309 0B       		.uleb128 0xb
 7592 030a 01       		.uleb128 0x1
 7593 030b 50       		.byte	0x50
 7594 030c 02       		.uleb128 0x2
 7595 030d 74       		.byte	0x74
 7596 030e 00       		.sleb128 0
 7597 030f 00       		.byte	0
 7598 0310 0C       		.uleb128 0xc
 7599 0311 26000000 		.4byte	.LVL24
 7600 0315 33020000 		.4byte	0x233
 7601 0319 0B       		.uleb128 0xb
 7602 031a 01       		.uleb128 0x1
 7603 031b 50       		.byte	0x50
 7604 031c 02       		.uleb128 0x2
 7605 031d 74       		.byte	0x74
 7606 031e 00       		.sleb128 0
 7607 031f 00       		.byte	0
 7608 0320 00       		.byte	0
 7609 0321 08       		.uleb128 0x8
 7610 0322 CE010000 		.4byte	.LASF33
 7611 0326 01       		.byte	0x1
 7612 0327 C104     		.2byte	0x4c1
 7613 0329 00000000 		.4byte	.LFB90
 7614 032d 44000000 		.4byte	.LFE90-.LFB90
 7615 0331 01       		.uleb128 0x1
 7616 0332 9C       		.byte	0x9c
 7617 0333 5C030000 		.4byte	0x35c
 7618 0337 09       		.uleb128 0x9
 7619 0338 0C000000 		.4byte	.LVL25
 7620 033c 0C470000 		.4byte	0x470c
 7621 0340 09       		.uleb128 0x9
 7622 0341 28000000 		.4byte	.LVL26
 7623 0345 0C470000 		.4byte	0x470c
 7624 0349 09       		.uleb128 0x9
 7625 034a 30000000 		.4byte	.LVL27
 7626 034e 17470000 		.4byte	0x4717
 7627 0352 09       		.uleb128 0x9
ARM GAS  C:\Users\Revanth\AppData\Local\Temp\ccbqjHa5.s 			page 197


 7628 0353 3A000000 		.4byte	.LVL28
 7629 0357 22470000 		.4byte	0x4722
 7630 035b 00       		.byte	0
 7631 035c 0F       		.uleb128 0xf
 7632 035d 13050000 		.4byte	.LASF194
 7633 0361 01       		.byte	0x1
 7634 0362 3607     		.2byte	0x736
 7635 0364 00000000 		.4byte	.LFB93
 7636 0368 02000000 		.4byte	.LFE93-.LFB93
 7637 036c 01       		.uleb128 0x1
 7638 036d 9C       		.byte	0x9c
 7639 036e 08       		.uleb128 0x8
 7640 036f E3050000 		.4byte	.LASF34
 7641 0373 01       		.byte	0x1
 7642 0374 5907     		.2byte	0x759
 7643 0376 00000000 		.4byte	.LFB96
 7644 037a 18000000 		.4byte	.LFE96-.LFB96
 7645 037e 01       		.uleb128 0x1
 7646 037f 9C       		.byte	0x9c
 7647 0380 93030000 		.4byte	0x393
 7648 0384 10       		.uleb128 0x10
 7649 0385 6900     		.ascii	"i\000"
 7650 0387 01       		.byte	0x1
 7651 0388 5B07     		.2byte	0x75b
 7652 038a 89000000 		.4byte	0x89
 7653 038e 63000000 		.4byte	.LLST3
 7654 0392 00       		.byte	0
 7655 0393 08       		.uleb128 0x8
 7656 0394 380B0000 		.4byte	.LASF35
 7657 0398 01       		.byte	0x1
 7658 0399 5F07     		.2byte	0x75f
 7659 039b 00000000 		.4byte	.LFB97
 7660 039f 18000000 		.4byte	.LFE97-.LFB97
 7661 03a3 01       		.uleb128 0x1
 7662 03a4 9C       		.byte	0x9c
 7663 03a5 D8030000 		.4byte	0x3d8
 7664 03a9 10       		.uleb128 0x10
 7665 03aa 6900     		.ascii	"i\000"
 7666 03ac 01       		.byte	0x1
 7667 03ad 6107     		.2byte	0x761
 7668 03af 89000000 		.4byte	0x89
 7669 03b3 82000000 		.4byte	.LLST4
 7670 03b7 11       		.uleb128 0x11
 7671 03b8 0D0B0000 		.4byte	.LASF36
 7672 03bc 01       		.byte	0x1
 7673 03bd 6207     		.2byte	0x762
 7674 03bf D8030000 		.4byte	0x3d8
 7675 03c3 03       		.uleb128 0x3
 7676 03c4 91       		.byte	0x91
 7677 03c5 B87F     		.sleb128 -72
 7678 03c7 0C       		.uleb128 0xc
 7679 03c8 0E000000 		.4byte	.LVL34
 7680 03cc 2D470000 		.4byte	0x472d
 7681 03d0 0B       		.uleb128 0xb
 7682 03d1 01       		.uleb128 0x1
 7683 03d2 50       		.byte	0x50
 7684 03d3 02       		.uleb128 0x2
ARM GAS  C:\Users\Revanth\AppData\Local\Temp\ccbqjHa5.s 			page 198


 7685 03d4 7D       		.byte	0x7d
 7686 03d5 00       		.sleb128 0
 7687 03d6 00       		.byte	0
 7688 03d7 00       		.byte	0
 7689 03d8 12       		.uleb128 0x12
 7690 03d9 EC000000 		.4byte	0xec
 7691 03dd E8030000 		.4byte	0x3e8
 7692 03e1 13       		.uleb128 0x13
 7693 03e2 CA000000 		.4byte	0xca
 7694 03e6 3F       		.byte	0x3f
 7695 03e7 00       		.byte	0
 7696 03e8 0D       		.uleb128 0xd
 7697 03e9 6D0A0000 		.4byte	.LASF37
 7698 03ed 01       		.byte	0x1
 7699 03ee 6807     		.2byte	0x768
 7700 03f0 00000000 		.4byte	.LFB98
 7701 03f4 2C000000 		.4byte	.LFE98-.LFB98
 7702 03f8 01       		.uleb128 0x1
 7703 03f9 9C       		.byte	0x9c
 7704 03fa 92040000 		.4byte	0x492
 7705 03fe 14       		.uleb128 0x14
 7706 03ff 53747200 		.ascii	"Str\000"
 7707 0403 01       		.byte	0x1
 7708 0404 6807     		.2byte	0x768
 7709 0406 D1000000 		.4byte	0xd1
 7710 040a A1000000 		.4byte	.LLST5
 7711 040e 15       		.uleb128 0x15
 7712 040f 04000000 		.4byte	.LBB2
 7713 0413 28000000 		.4byte	.LBE2-.LBB2
 7714 0417 11       		.uleb128 0x11
 7715 0418 34010000 		.4byte	.LASF38
 7716 041c 01       		.byte	0x1
 7717 041d 6C07     		.2byte	0x76c
 7718 041f 92040000 		.4byte	0x492
 7719 0423 05       		.uleb128 0x5
 7720 0424 03       		.byte	0x3
 7721 0425 04000000 		.4byte	Str_Last_One.9207
 7722 0429 0A       		.uleb128 0xa
 7723 042a 0E000000 		.4byte	.LVL38
 7724 042e 38470000 		.4byte	0x4738
 7725 0432 4B040000 		.4byte	0x44b
 7726 0436 0B       		.uleb128 0xb
 7727 0437 01       		.uleb128 0x1
 7728 0438 50       		.byte	0x50
 7729 0439 05       		.uleb128 0x5
 7730 043a 03       		.byte	0x3
 7731 043b 04000000 		.4byte	.LANCHOR1+4
 7732 043f 0B       		.uleb128 0xb
 7733 0440 01       		.uleb128 0x1
 7734 0441 51       		.byte	0x51
 7735 0442 02       		.uleb128 0x2
 7736 0443 74       		.byte	0x74
 7737 0444 00       		.sleb128 0
 7738 0445 0B       		.uleb128 0xb
 7739 0446 01       		.uleb128 0x1
 7740 0447 52       		.byte	0x52
 7741 0448 01       		.uleb128 0x1
ARM GAS  C:\Users\Revanth\AppData\Local\Temp\ccbqjHa5.s 			page 199


 7742 0449 3A       		.byte	0x3a
 7743 044a 00       		.byte	0
 7744 044b 0A       		.uleb128 0xa
 7745 044c 16000000 		.4byte	.LVL39
 7746 0450 43470000 		.4byte	0x4743
 7747 0454 5F040000 		.4byte	0x45f
 7748 0458 0B       		.uleb128 0xb
 7749 0459 01       		.uleb128 0x1
 7750 045a 50       		.byte	0x50
 7751 045b 02       		.uleb128 0x2
 7752 045c 74       		.byte	0x74
 7753 045d 00       		.sleb128 0
 7754 045e 00       		.byte	0
 7755 045f 0A       		.uleb128 0xa
 7756 0460 1C000000 		.4byte	.LVL40
 7757 0464 4E470000 		.4byte	0x474e
 7758 0468 72040000 		.4byte	0x472
 7759 046c 0B       		.uleb128 0xb
 7760 046d 01       		.uleb128 0x1
 7761 046e 50       		.byte	0x50
 7762 046f 01       		.uleb128 0x1
 7763 0470 31       		.byte	0x31
 7764 0471 00       		.byte	0
 7765 0472 0C       		.uleb128 0xc
 7766 0473 26000000 		.4byte	.LVL41
 7767 0477 59470000 		.4byte	0x4759
 7768 047b 0B       		.uleb128 0xb
 7769 047c 01       		.uleb128 0x1
 7770 047d 50       		.byte	0x50
 7771 047e 05       		.uleb128 0x5
 7772 047f 03       		.byte	0x3
 7773 0480 04000000 		.4byte	.LANCHOR1+4
 7774 0484 0B       		.uleb128 0xb
 7775 0485 01       		.uleb128 0x1
 7776 0486 51       		.byte	0x51
 7777 0487 02       		.uleb128 0x2
 7778 0488 74       		.byte	0x74
 7779 0489 00       		.sleb128 0
 7780 048a 0B       		.uleb128 0xb
 7781 048b 01       		.uleb128 0x1
 7782 048c 52       		.byte	0x52
 7783 048d 01       		.uleb128 0x1
 7784 048e 3A       		.byte	0x3a
 7785 048f 00       		.byte	0
 7786 0490 00       		.byte	0
 7787 0491 00       		.byte	0
 7788 0492 12       		.uleb128 0x12
 7789 0493 D7000000 		.4byte	0xd7
 7790 0497 A2040000 		.4byte	0x4a2
 7791 049b 13       		.uleb128 0x13
 7792 049c CA000000 		.4byte	0xca
 7793 04a0 0C       		.byte	0xc
 7794 04a1 00       		.byte	0
 7795 04a2 16       		.uleb128 0x16
 7796 04a3 9F060000 		.4byte	.LASF39
 7797 04a7 01       		.byte	0x1
 7798 04a8 7B04     		.2byte	0x47b
ARM GAS  C:\Users\Revanth\AppData\Local\Temp\ccbqjHa5.s 			page 200


 7799 04aa 89000000 		.4byte	0x89
 7800 04ae 00000000 		.4byte	.LFB83
 7801 04b2 24000000 		.4byte	.LFE83-.LFB83
 7802 04b6 01       		.uleb128 0x1
 7803 04b7 9C       		.byte	0x9c
 7804 04b8 0C050000 		.4byte	0x50c
 7805 04bc 0A       		.uleb128 0xa
 7806 04bd 0A000000 		.4byte	.LVL43
 7807 04c1 B4460000 		.4byte	0x46b4
 7808 04c5 D1040000 		.4byte	0x4d1
 7809 04c9 0B       		.uleb128 0xb
 7810 04ca 01       		.uleb128 0x1
 7811 04cb 50       		.byte	0x50
 7812 04cc 03       		.uleb128 0x3
 7813 04cd 0A       		.byte	0xa
 7814 04ce C409     		.2byte	0x9c4
 7815 04d0 00       		.byte	0
 7816 04d1 0A       		.uleb128 0xa
 7817 04d2 10000000 		.4byte	.LVL44
 7818 04d6 BF460000 		.4byte	0x46bf
 7819 04da E5040000 		.4byte	0x4e5
 7820 04de 0B       		.uleb128 0xb
 7821 04df 01       		.uleb128 0x1
 7822 04e0 50       		.byte	0x50
 7823 04e1 02       		.uleb128 0x2
 7824 04e2 08       		.byte	0x8
 7825 04e3 C8       		.byte	0xc8
 7826 04e4 00       		.byte	0
 7827 04e5 0A       		.uleb128 0xa
 7828 04e6 16000000 		.4byte	.LVL45
 7829 04ea B4460000 		.4byte	0x46b4
 7830 04ee F8040000 		.4byte	0x4f8
 7831 04f2 0B       		.uleb128 0xb
 7832 04f3 01       		.uleb128 0x1
 7833 04f4 50       		.byte	0x50
 7834 04f5 01       		.uleb128 0x1
 7835 04f6 30       		.byte	0x30
 7836 04f7 00       		.byte	0
 7837 04f8 0C       		.uleb128 0xc
 7838 04f9 1C000000 		.4byte	.LVL46
 7839 04fd E8030000 		.4byte	0x3e8
 7840 0501 0B       		.uleb128 0xb
 7841 0502 01       		.uleb128 0x1
 7842 0503 50       		.byte	0x50
 7843 0504 05       		.uleb128 0x5
 7844 0505 03       		.byte	0x3
 7845 0506 00000000 		.4byte	.LC0
 7846 050a 00       		.byte	0
 7847 050b 00       		.byte	0
 7848 050c 16       		.uleb128 0x16
 7849 050d 6B050000 		.4byte	.LASF40
 7850 0511 01       		.byte	0x1
 7851 0512 8404     		.2byte	0x484
 7852 0514 89000000 		.4byte	0x89
 7853 0518 00000000 		.4byte	.LFB84
 7854 051c 40000000 		.4byte	.LFE84-.LFB84
 7855 0520 01       		.uleb128 0x1
ARM GAS  C:\Users\Revanth\AppData\Local\Temp\ccbqjHa5.s 			page 201


 7856 0521 9C       		.byte	0x9c
 7857 0522 C6050000 		.4byte	0x5c6
 7858 0526 0A       		.uleb128 0xa
 7859 0527 0A000000 		.4byte	.LVL47
 7860 052b B4460000 		.4byte	0x46b4
 7861 052f 3B050000 		.4byte	0x53b
 7862 0533 0B       		.uleb128 0xb
 7863 0534 01       		.uleb128 0x1
 7864 0535 50       		.byte	0x50
 7865 0536 03       		.uleb128 0x3
 7866 0537 0A       		.byte	0xa
 7867 0538 C409     		.2byte	0x9c4
 7868 053a 00       		.byte	0
 7869 053b 0A       		.uleb128 0xa
 7870 053c 10000000 		.4byte	.LVL48
 7871 0540 BF460000 		.4byte	0x46bf
 7872 0544 4F050000 		.4byte	0x54f
 7873 0548 0B       		.uleb128 0xb
 7874 0549 01       		.uleb128 0x1
 7875 054a 50       		.byte	0x50
 7876 054b 02       		.uleb128 0x2
 7877 054c 08       		.byte	0x8
 7878 054d C8       		.byte	0xc8
 7879 054e 00       		.byte	0
 7880 054f 0A       		.uleb128 0xa
 7881 0550 16000000 		.4byte	.LVL49
 7882 0554 B4460000 		.4byte	0x46b4
 7883 0558 62050000 		.4byte	0x562
 7884 055c 0B       		.uleb128 0xb
 7885 055d 01       		.uleb128 0x1
 7886 055e 50       		.byte	0x50
 7887 055f 01       		.uleb128 0x1
 7888 0560 30       		.byte	0x30
 7889 0561 00       		.byte	0
 7890 0562 0A       		.uleb128 0xa
 7891 0563 1C000000 		.4byte	.LVL50
 7892 0567 BF460000 		.4byte	0x46bf
 7893 056b 76050000 		.4byte	0x576
 7894 056f 0B       		.uleb128 0xb
 7895 0570 01       		.uleb128 0x1
 7896 0571 50       		.byte	0x50
 7897 0572 02       		.uleb128 0x2
 7898 0573 08       		.byte	0x8
 7899 0574 C8       		.byte	0xc8
 7900 0575 00       		.byte	0
 7901 0576 0A       		.uleb128 0xa
 7902 0577 24000000 		.4byte	.LVL51
 7903 057b B4460000 		.4byte	0x46b4
 7904 057f 8B050000 		.4byte	0x58b
 7905 0583 0B       		.uleb128 0xb
 7906 0584 01       		.uleb128 0x1
 7907 0585 50       		.byte	0x50
 7908 0586 03       		.uleb128 0x3
 7909 0587 0A       		.byte	0xa
 7910 0588 C409     		.2byte	0x9c4
 7911 058a 00       		.byte	0
 7912 058b 0A       		.uleb128 0xa
ARM GAS  C:\Users\Revanth\AppData\Local\Temp\ccbqjHa5.s 			page 202


 7913 058c 2A000000 		.4byte	.LVL52
 7914 0590 BF460000 		.4byte	0x46bf
 7915 0594 9F050000 		.4byte	0x59f
 7916 0598 0B       		.uleb128 0xb
 7917 0599 01       		.uleb128 0x1
 7918 059a 50       		.byte	0x50
 7919 059b 02       		.uleb128 0x2
 7920 059c 08       		.byte	0x8
 7921 059d C8       		.byte	0xc8
 7922 059e 00       		.byte	0
 7923 059f 0A       		.uleb128 0xa
 7924 05a0 30000000 		.4byte	.LVL53
 7925 05a4 B4460000 		.4byte	0x46b4
 7926 05a8 B2050000 		.4byte	0x5b2
 7927 05ac 0B       		.uleb128 0xb
 7928 05ad 01       		.uleb128 0x1
 7929 05ae 50       		.byte	0x50
 7930 05af 01       		.uleb128 0x1
 7931 05b0 30       		.byte	0x30
 7932 05b1 00       		.byte	0
 7933 05b2 0C       		.uleb128 0xc
 7934 05b3 36000000 		.4byte	.LVL54
 7935 05b7 E8030000 		.4byte	0x3e8
 7936 05bb 0B       		.uleb128 0xb
 7937 05bc 01       		.uleb128 0x1
 7938 05bd 50       		.byte	0x50
 7939 05be 05       		.uleb128 0x5
 7940 05bf 03       		.byte	0x3
 7941 05c0 10000000 		.4byte	.LC1
 7942 05c4 00       		.byte	0
 7943 05c5 00       		.byte	0
 7944 05c6 16       		.uleb128 0x16
 7945 05c7 F7060000 		.4byte	.LASF41
 7946 05cb 01       		.byte	0x1
 7947 05cc 9104     		.2byte	0x491
 7948 05ce 89000000 		.4byte	0x89
 7949 05d2 00000000 		.4byte	.LFB85
 7950 05d6 2C000000 		.4byte	.LFE85-.LFB85
 7951 05da 01       		.uleb128 0x1
 7952 05db 9C       		.byte	0x9c
 7953 05dc 45060000 		.4byte	0x645
 7954 05e0 0A       		.uleb128 0xa
 7955 05e1 0A000000 		.4byte	.LVL55
 7956 05e5 B4460000 		.4byte	0x46b4
 7957 05e9 F5050000 		.4byte	0x5f5
 7958 05ed 0B       		.uleb128 0xb
 7959 05ee 01       		.uleb128 0x1
 7960 05ef 50       		.byte	0x50
 7961 05f0 03       		.uleb128 0x3
 7962 05f1 0A       		.byte	0xa
 7963 05f2 C409     		.2byte	0x9c4
 7964 05f4 00       		.byte	0
 7965 05f5 0A       		.uleb128 0xa
 7966 05f6 12000000 		.4byte	.LVL56
 7967 05fa BF460000 		.4byte	0x46bf
 7968 05fe 0A060000 		.4byte	0x60a
 7969 0602 0B       		.uleb128 0xb
ARM GAS  C:\Users\Revanth\AppData\Local\Temp\ccbqjHa5.s 			page 203


 7970 0603 01       		.uleb128 0x1
 7971 0604 50       		.byte	0x50
 7972 0605 03       		.uleb128 0x3
 7973 0606 0A       		.byte	0xa
 7974 0607 D007     		.2byte	0x7d0
 7975 0609 00       		.byte	0
 7976 060a 0A       		.uleb128 0xa
 7977 060b 18000000 		.4byte	.LVL57
 7978 060f B4460000 		.4byte	0x46b4
 7979 0613 1D060000 		.4byte	0x61d
 7980 0617 0B       		.uleb128 0xb
 7981 0618 01       		.uleb128 0x1
 7982 0619 50       		.byte	0x50
 7983 061a 01       		.uleb128 0x1
 7984 061b 30       		.byte	0x30
 7985 061c 00       		.byte	0
 7986 061d 0A       		.uleb128 0xa
 7987 061e 1E000000 		.4byte	.LVL58
 7988 0622 BF460000 		.4byte	0x46bf
 7989 0626 31060000 		.4byte	0x631
 7990 062a 0B       		.uleb128 0xb
 7991 062b 01       		.uleb128 0x1
 7992 062c 50       		.byte	0x50
 7993 062d 02       		.uleb128 0x2
 7994 062e 08       		.byte	0x8
 7995 062f C8       		.byte	0xc8
 7996 0630 00       		.byte	0
 7997 0631 0C       		.uleb128 0xc
 7998 0632 24000000 		.4byte	.LVL59
 7999 0636 E8030000 		.4byte	0x3e8
 8000 063a 0B       		.uleb128 0xb
 8001 063b 01       		.uleb128 0x1
 8002 063c 50       		.byte	0x50
 8003 063d 05       		.uleb128 0x5
 8004 063e 03       		.byte	0x3
 8005 063f 24000000 		.4byte	.LC2
 8006 0643 00       		.byte	0
 8007 0644 00       		.byte	0
 8008 0645 17       		.uleb128 0x17
 8009 0646 A1080000 		.4byte	.LASF42
 8010 064a 01       		.byte	0x1
 8011 064b 2406     		.2byte	0x624
 8012 064d 00000000 		.4byte	.LFB92
 8013 0651 F0020000 		.4byte	.LFE92-.LFB92
 8014 0655 01       		.uleb128 0x1
 8015 0656 9C       		.byte	0x9c
 8016 0657 A2060000 		.4byte	0x6a2
 8017 065b 0E       		.uleb128 0xe
 8018 065c 15060000 		.4byte	.LASF43
 8019 0660 01       		.byte	0x1
 8020 0661 2406     		.2byte	0x624
 8021 0663 89000000 		.4byte	0x89
 8022 0667 D8000000 		.4byte	.LLST6
 8023 066b 09       		.uleb128 0x9
 8024 066c 08000000 		.4byte	.LVL61
 8025 0670 21030000 		.4byte	0x321
 8026 0674 0A       		.uleb128 0xa
ARM GAS  C:\Users\Revanth\AppData\Local\Temp\ccbqjHa5.s 			page 204


 8027 0675 CC020000 		.4byte	.LVL67
 8028 0679 E8030000 		.4byte	0x3e8
 8029 067d 8B060000 		.4byte	0x68b
 8030 0681 0B       		.uleb128 0xb
 8031 0682 01       		.uleb128 0x1
 8032 0683 50       		.byte	0x50
 8033 0684 05       		.uleb128 0x5
 8034 0685 03       		.byte	0x3
 8035 0686 34000000 		.4byte	.LC3
 8036 068a 00       		.byte	0
 8037 068b 0C       		.uleb128 0xc
 8038 068c D4020000 		.4byte	.LVL68
 8039 0690 64470000 		.4byte	0x4764
 8040 0694 0B       		.uleb128 0xb
 8041 0695 01       		.uleb128 0x1
 8042 0696 50       		.byte	0x50
 8043 0697 02       		.uleb128 0x2
 8044 0698 74       		.byte	0x74
 8045 0699 00       		.sleb128 0
 8046 069a 0B       		.uleb128 0xb
 8047 069b 01       		.uleb128 0x1
 8048 069c 51       		.byte	0x51
 8049 069d 02       		.uleb128 0x2
 8050 069e 08       		.byte	0x8
 8051 069f 2E       		.byte	0x2e
 8052 06a0 00       		.byte	0
 8053 06a1 00       		.byte	0
 8054 06a2 08       		.uleb128 0x8
 8055 06a3 66080000 		.4byte	.LASF44
 8056 06a7 01       		.byte	0x1
 8057 06a8 3A07     		.2byte	0x73a
 8058 06aa 00000000 		.4byte	.LFB94
 8059 06ae 38000000 		.4byte	.LFE94-.LFB94
 8060 06b2 01       		.uleb128 0x1
 8061 06b3 9C       		.byte	0x9c
 8062 06b4 2D070000 		.4byte	0x72d
 8063 06b8 0A       		.uleb128 0xa
 8064 06b9 0A000000 		.4byte	.LVL69
 8065 06bd 6F470000 		.4byte	0x476f
 8066 06c1 D0060000 		.4byte	0x6d0
 8067 06c5 0B       		.uleb128 0xb
 8068 06c6 01       		.uleb128 0x1
 8069 06c7 50       		.byte	0x50
 8070 06c8 01       		.uleb128 0x1
 8071 06c9 30       		.byte	0x30
 8072 06ca 0B       		.uleb128 0xb
 8073 06cb 01       		.uleb128 0x1
 8074 06cc 51       		.byte	0x51
 8075 06cd 01       		.uleb128 0x1
 8076 06ce 31       		.byte	0x31
 8077 06cf 00       		.byte	0
 8078 06d0 0A       		.uleb128 0xa
 8079 06d1 12000000 		.4byte	.LVL70
 8080 06d5 E8030000 		.4byte	0x3e8
 8081 06d9 E7060000 		.4byte	0x6e7
 8082 06dd 0B       		.uleb128 0xb
 8083 06de 01       		.uleb128 0x1
ARM GAS  C:\Users\Revanth\AppData\Local\Temp\ccbqjHa5.s 			page 205


 8084 06df 50       		.byte	0x50
 8085 06e0 05       		.uleb128 0x5
 8086 06e1 03       		.byte	0x3
 8087 06e2 58000000 		.4byte	.LC4
 8088 06e6 00       		.byte	0
 8089 06e7 0A       		.uleb128 0xa
 8090 06e8 18000000 		.4byte	.LVL71
 8091 06ec 4E470000 		.4byte	0x474e
 8092 06f0 FA060000 		.4byte	0x6fa
 8093 06f4 0B       		.uleb128 0xb
 8094 06f5 01       		.uleb128 0x1
 8095 06f6 50       		.byte	0x50
 8096 06f7 01       		.uleb128 0x1
 8097 06f8 31       		.byte	0x31
 8098 06f9 00       		.byte	0
 8099 06fa 09       		.uleb128 0x9
 8100 06fb 1C000000 		.4byte	.LVL72
 8101 06ff 7B470000 		.4byte	0x477b
 8102 0703 09       		.uleb128 0x9
 8103 0704 24000000 		.4byte	.LVL73
 8104 0708 87470000 		.4byte	0x4787
 8105 070c 0A       		.uleb128 0xa
 8106 070d 2A000000 		.4byte	.LVL74
 8107 0711 E8030000 		.4byte	0x3e8
 8108 0715 23070000 		.4byte	0x723
 8109 0719 0B       		.uleb128 0xb
 8110 071a 01       		.uleb128 0x1
 8111 071b 50       		.byte	0x50
 8112 071c 05       		.uleb128 0x5
 8113 071d 03       		.byte	0x3
 8114 071e 7C000000 		.4byte	.LC5
 8115 0722 00       		.byte	0
 8116 0723 09       		.uleb128 0x9
 8117 0724 2E000000 		.4byte	.LVL75
 8118 0728 92470000 		.4byte	0x4792
 8119 072c 00       		.byte	0
 8120 072d 0D       		.uleb128 0xd
 8121 072e E60B0000 		.4byte	.LASF45
 8122 0732 01       		.byte	0x1
 8123 0733 7507     		.2byte	0x775
 8124 0735 00000000 		.4byte	.LFB99
 8125 0739 24000000 		.4byte	.LFE99-.LFB99
 8126 073d 01       		.uleb128 0x1
 8127 073e 9C       		.byte	0x9c
 8128 073f B4070000 		.4byte	0x7b4
 8129 0743 14       		.uleb128 0x14
 8130 0744 6E756D00 		.ascii	"num\000"
 8131 0748 01       		.byte	0x1
 8132 0749 7507     		.2byte	0x775
 8133 074b 10010000 		.4byte	0x110
 8134 074f 11010000 		.4byte	.LLST7
 8135 0753 15       		.uleb128 0x15
 8136 0754 04000000 		.4byte	.LBB3
 8137 0758 16000000 		.4byte	.LBE3-.LBB3
 8138 075c 11       		.uleb128 0x11
 8139 075d 49020000 		.4byte	.LASF46
 8140 0761 01       		.byte	0x1
ARM GAS  C:\Users\Revanth\AppData\Local\Temp\ccbqjHa5.s 			page 206


 8141 0762 7907     		.2byte	0x779
 8142 0764 B4070000 		.4byte	0x7b4
 8143 0768 02       		.uleb128 0x2
 8144 0769 91       		.byte	0x91
 8145 076a 64       		.sleb128 -28
 8146 076b 0A       		.uleb128 0xa
 8147 076c 0E000000 		.4byte	.LVL78
 8148 0770 9E470000 		.4byte	0x479e
 8149 0774 8F070000 		.4byte	0x78f
 8150 0778 0B       		.uleb128 0xb
 8151 0779 01       		.uleb128 0x1
 8152 077a 50       		.byte	0x50
 8153 077b 02       		.uleb128 0x2
 8154 077c 91       		.byte	0x91
 8155 077d 64       		.sleb128 -28
 8156 077e 0B       		.uleb128 0xb
 8157 077f 01       		.uleb128 0x1
 8158 0780 51       		.byte	0x51
 8159 0781 05       		.uleb128 0x5
 8160 0782 03       		.byte	0x3
 8161 0783 90000000 		.4byte	.LC6
 8162 0787 0B       		.uleb128 0xb
 8163 0788 01       		.uleb128 0x1
 8164 0789 52       		.byte	0x52
 8165 078a 03       		.uleb128 0x3
 8166 078b F3       		.byte	0xf3
 8167 078c 01       		.uleb128 0x1
 8168 078d 50       		.byte	0x50
 8169 078e 00       		.byte	0
 8170 078f 0A       		.uleb128 0xa
 8171 0790 14000000 		.4byte	.LVL79
 8172 0794 43470000 		.4byte	0x4743
 8173 0798 A3070000 		.4byte	0x7a3
 8174 079c 0B       		.uleb128 0xb
 8175 079d 01       		.uleb128 0x1
 8176 079e 50       		.byte	0x50
 8177 079f 02       		.uleb128 0x2
 8178 07a0 91       		.byte	0x91
 8179 07a1 64       		.sleb128 -28
 8180 07a2 00       		.byte	0
 8181 07a3 0C       		.uleb128 0xc
 8182 07a4 1A000000 		.4byte	.LVL80
 8183 07a8 4E470000 		.4byte	0x474e
 8184 07ac 0B       		.uleb128 0xb
 8185 07ad 01       		.uleb128 0x1
 8186 07ae 50       		.byte	0x50
 8187 07af 01       		.uleb128 0x1
 8188 07b0 31       		.byte	0x31
 8189 07b1 00       		.byte	0
 8190 07b2 00       		.byte	0
 8191 07b3 00       		.byte	0
 8192 07b4 12       		.uleb128 0x12
 8193 07b5 D7000000 		.4byte	0xd7
 8194 07b9 C4070000 		.4byte	0x7c4
 8195 07bd 13       		.uleb128 0x13
 8196 07be CA000000 		.4byte	0xca
 8197 07c2 13       		.byte	0x13
ARM GAS  C:\Users\Revanth\AppData\Local\Temp\ccbqjHa5.s 			page 207


 8198 07c3 00       		.byte	0
 8199 07c4 18       		.uleb128 0x18
 8200 07c5 54040000 		.4byte	.LASF47
 8201 07c9 01       		.byte	0x1
 8202 07ca 6504     		.2byte	0x465
 8203 07cc 89000000 		.4byte	0x89
 8204 07d0 00000000 		.4byte	.LFB81
 8205 07d4 70000000 		.4byte	.LFE81-.LFB81
 8206 07d8 01       		.uleb128 0x1
 8207 07d9 9C       		.byte	0x9c
 8208 07da 32080000 		.4byte	0x832
 8209 07de 09       		.uleb128 0x9
 8210 07df 30000000 		.4byte	.LVL85
 8211 07e3 9E460000 		.4byte	0x469e
 8212 07e7 0A       		.uleb128 0xa
 8213 07e8 36000000 		.4byte	.LVL86
 8214 07ec E8030000 		.4byte	0x3e8
 8215 07f0 FE070000 		.4byte	0x7fe
 8216 07f4 0B       		.uleb128 0xb
 8217 07f5 01       		.uleb128 0x1
 8218 07f6 50       		.byte	0x50
 8219 07f7 05       		.uleb128 0x5
 8220 07f8 03       		.byte	0x3
 8221 07f9 98000000 		.4byte	.LC7
 8222 07fd 00       		.byte	0
 8223 07fe 09       		.uleb128 0x9
 8224 07ff 3C000000 		.4byte	.LVL87
 8225 0803 2D070000 		.4byte	0x72d
 8226 0807 0A       		.uleb128 0xa
 8227 0808 42000000 		.4byte	.LVL88
 8228 080c E8030000 		.4byte	0x3e8
 8229 0810 1E080000 		.4byte	0x81e
 8230 0814 0B       		.uleb128 0xb
 8231 0815 01       		.uleb128 0x1
 8232 0816 50       		.byte	0x50
 8233 0817 05       		.uleb128 0x5
 8234 0818 03       		.byte	0x3
 8235 0819 B8000000 		.4byte	.LC8
 8236 081d 00       		.byte	0
 8237 081e 0C       		.uleb128 0xc
 8238 081f 48000000 		.4byte	.LVL89
 8239 0823 E8030000 		.4byte	0x3e8
 8240 0827 0B       		.uleb128 0xb
 8241 0828 01       		.uleb128 0x1
 8242 0829 50       		.byte	0x50
 8243 082a 05       		.uleb128 0x5
 8244 082b 03       		.byte	0x3
 8245 082c BC000000 		.4byte	.LC9
 8246 0830 00       		.byte	0
 8247 0831 00       		.byte	0
 8248 0832 18       		.uleb128 0x18
 8249 0833 90080000 		.4byte	.LASF48
 8250 0837 01       		.byte	0x1
 8251 0838 7004     		.2byte	0x470
 8252 083a 89000000 		.4byte	0x89
 8253 083e 00000000 		.4byte	.LFB82
 8254 0842 70000000 		.4byte	.LFE82-.LFB82
ARM GAS  C:\Users\Revanth\AppData\Local\Temp\ccbqjHa5.s 			page 208


 8255 0846 01       		.uleb128 0x1
 8256 0847 9C       		.byte	0x9c
 8257 0848 A0080000 		.4byte	0x8a0
 8258 084c 09       		.uleb128 0x9
 8259 084d 30000000 		.4byte	.LVL94
 8260 0851 88460000 		.4byte	0x4688
 8261 0855 0A       		.uleb128 0xa
 8262 0856 36000000 		.4byte	.LVL95
 8263 085a E8030000 		.4byte	0x3e8
 8264 085e 6C080000 		.4byte	0x86c
 8265 0862 0B       		.uleb128 0xb
 8266 0863 01       		.uleb128 0x1
 8267 0864 50       		.byte	0x50
 8268 0865 05       		.uleb128 0x5
 8269 0866 03       		.byte	0x3
 8270 0867 E4000000 		.4byte	.LC10
 8271 086b 00       		.byte	0
 8272 086c 09       		.uleb128 0x9
 8273 086d 3C000000 		.4byte	.LVL96
 8274 0871 2D070000 		.4byte	0x72d
 8275 0875 0A       		.uleb128 0xa
 8276 0876 42000000 		.4byte	.LVL97
 8277 087a E8030000 		.4byte	0x3e8
 8278 087e 8C080000 		.4byte	0x88c
 8279 0882 0B       		.uleb128 0xb
 8280 0883 01       		.uleb128 0x1
 8281 0884 50       		.byte	0x50
 8282 0885 05       		.uleb128 0x5
 8283 0886 03       		.byte	0x3
 8284 0887 B8000000 		.4byte	.LC8
 8285 088b 00       		.byte	0
 8286 088c 0C       		.uleb128 0xc
 8287 088d 48000000 		.4byte	.LVL98
 8288 0891 E8030000 		.4byte	0x3e8
 8289 0895 0B       		.uleb128 0xb
 8290 0896 01       		.uleb128 0x1
 8291 0897 50       		.byte	0x50
 8292 0898 05       		.uleb128 0x5
 8293 0899 03       		.byte	0x3
 8294 089a FC000000 		.4byte	.LC11
 8295 089e 00       		.byte	0
 8296 089f 00       		.byte	0
 8297 08a0 08       		.uleb128 0x8
 8298 08a1 E7040000 		.4byte	.LASF49
 8299 08a5 01       		.byte	0x1
 8300 08a6 7F07     		.2byte	0x77f
 8301 08a8 00000000 		.4byte	.LFB100
 8302 08ac 24000000 		.4byte	.LFE100-.LFB100
 8303 08b0 01       		.uleb128 0x1
 8304 08b1 9C       		.byte	0x9c
 8305 08b2 F8080000 		.4byte	0x8f8
 8306 08b6 0A       		.uleb128 0xa
 8307 08b7 08000000 		.4byte	.LVL99
 8308 08bb E8030000 		.4byte	0x3e8
 8309 08bf CD080000 		.4byte	0x8cd
 8310 08c3 0B       		.uleb128 0xb
 8311 08c4 01       		.uleb128 0x1
ARM GAS  C:\Users\Revanth\AppData\Local\Temp\ccbqjHa5.s 			page 209


 8312 08c5 50       		.byte	0x50
 8313 08c6 05       		.uleb128 0x5
 8314 08c7 03       		.byte	0x3
 8315 08c8 B8000000 		.4byte	.LC8
 8316 08cc 00       		.byte	0
 8317 08cd 0A       		.uleb128 0xa
 8318 08ce 0E000000 		.4byte	.LVL100
 8319 08d2 E8030000 		.4byte	0x3e8
 8320 08d6 E4080000 		.4byte	0x8e4
 8321 08da 0B       		.uleb128 0xb
 8322 08db 01       		.uleb128 0x1
 8323 08dc 50       		.byte	0x50
 8324 08dd 05       		.uleb128 0x5
 8325 08de 03       		.byte	0x3
 8326 08df 1C010000 		.4byte	.LC12
 8327 08e3 00       		.byte	0
 8328 08e4 0C       		.uleb128 0xc
 8329 08e5 14000000 		.4byte	.LVL101
 8330 08e9 E8030000 		.4byte	0x3e8
 8331 08ed 0B       		.uleb128 0xb
 8332 08ee 01       		.uleb128 0x1
 8333 08ef 50       		.byte	0x50
 8334 08f0 05       		.uleb128 0x5
 8335 08f1 03       		.byte	0x3
 8336 08f2 50010000 		.4byte	.LC13
 8337 08f6 00       		.byte	0
 8338 08f7 00       		.byte	0
 8339 08f8 16       		.uleb128 0x16
 8340 08f9 250B0000 		.4byte	.LASF50
 8341 08fd 01       		.byte	0x1
 8342 08fe 2E04     		.2byte	0x42e
 8343 0900 73090000 		.4byte	0x973
 8344 0904 00000000 		.4byte	.LFB79
 8345 0908 7C000000 		.4byte	.LFE79-.LFB79
 8346 090c 01       		.uleb128 0x1
 8347 090d 9C       		.byte	0x9c
 8348 090e 73090000 		.4byte	0x973
 8349 0912 0A       		.uleb128 0xa
 8350 0913 1C000000 		.4byte	.LVL102
 8351 0917 E8030000 		.4byte	0x3e8
 8352 091b 29090000 		.4byte	0x929
 8353 091f 0B       		.uleb128 0xb
 8354 0920 01       		.uleb128 0x1
 8355 0921 50       		.byte	0x50
 8356 0922 05       		.uleb128 0x5
 8357 0923 03       		.byte	0x3
 8358 0924 54010000 		.4byte	.LC14
 8359 0928 00       		.byte	0
 8360 0929 09       		.uleb128 0x9
 8361 092a 20000000 		.4byte	.LVL103
 8362 092e A0080000 		.4byte	0x8a0
 8363 0932 0A       		.uleb128 0xa
 8364 0933 3C000000 		.4byte	.LVL104
 8365 0937 E8030000 		.4byte	0x3e8
 8366 093b 49090000 		.4byte	0x949
 8367 093f 0B       		.uleb128 0xb
 8368 0940 01       		.uleb128 0x1
ARM GAS  C:\Users\Revanth\AppData\Local\Temp\ccbqjHa5.s 			page 210


 8369 0941 50       		.byte	0x50
 8370 0942 05       		.uleb128 0x5
 8371 0943 03       		.byte	0x3
 8372 0944 80010000 		.4byte	.LC15
 8373 0948 00       		.byte	0
 8374 0949 09       		.uleb128 0x9
 8375 094a 40000000 		.4byte	.LVL105
 8376 094e A0080000 		.4byte	0x8a0
 8377 0952 0A       		.uleb128 0xa
 8378 0953 5C000000 		.4byte	.LVL106
 8379 0957 E8030000 		.4byte	0x3e8
 8380 095b 69090000 		.4byte	0x969
 8381 095f 0B       		.uleb128 0xb
 8382 0960 01       		.uleb128 0x1
 8383 0961 50       		.byte	0x50
 8384 0962 05       		.uleb128 0x5
 8385 0963 03       		.byte	0x3
 8386 0964 A8010000 		.4byte	.LC16
 8387 0968 00       		.byte	0
 8388 0969 09       		.uleb128 0x9
 8389 096a 60000000 		.4byte	.LVL107
 8390 096e A0080000 		.4byte	0x8a0
 8391 0972 00       		.byte	0
 8392 0973 02       		.uleb128 0x2
 8393 0974 01       		.byte	0x1
 8394 0975 02       		.byte	0x2
 8395 0976 1E080000 		.4byte	.LASF51
 8396 097a 08       		.uleb128 0x8
 8397 097b 8F000000 		.4byte	.LASF52
 8398 097f 01       		.byte	0x1
 8399 0980 4607     		.2byte	0x746
 8400 0982 00000000 		.4byte	.LFB95
 8401 0986 40000000 		.4byte	.LFE95-.LFB95
 8402 098a 01       		.uleb128 0x1
 8403 098b 9C       		.byte	0x9c
 8404 098c FA090000 		.4byte	0x9fa
 8405 0990 11       		.uleb128 0x11
 8406 0991 28040000 		.4byte	.LASF53
 8407 0995 01       		.byte	0x1
 8408 0996 4807     		.2byte	0x748
 8409 0998 73090000 		.4byte	0x973
 8410 099c 05       		.uleb128 0x5
 8411 099d 03       		.byte	0x3
 8412 099e 28000000 		.4byte	dont_Execute_1st_Time.9190
 8413 09a2 09       		.uleb128 0x9
 8414 09a3 06000000 		.4byte	.LVL108
 8415 09a7 A9470000 		.4byte	0x47a9
 8416 09ab 09       		.uleb128 0x9
 8417 09ac 0C000000 		.4byte	.LVL109
 8418 09b0 0C050000 		.4byte	0x50c
 8419 09b4 09       		.uleb128 0x9
 8420 09b5 10000000 		.4byte	.LVL110
 8421 09b9 7B470000 		.4byte	0x477b
 8422 09bd 0A       		.uleb128 0xa
 8423 09be 20000000 		.4byte	.LVL111
 8424 09c2 E8030000 		.4byte	0x3e8
 8425 09c6 D4090000 		.4byte	0x9d4
ARM GAS  C:\Users\Revanth\AppData\Local\Temp\ccbqjHa5.s 			page 211


 8426 09ca 0B       		.uleb128 0xb
 8427 09cb 01       		.uleb128 0x1
 8428 09cc 50       		.byte	0x50
 8429 09cd 05       		.uleb128 0x5
 8430 09ce 03       		.byte	0x3
 8431 09cf D0010000 		.4byte	.LC17
 8432 09d3 00       		.byte	0
 8433 09d4 09       		.uleb128 0x9
 8434 09d5 24000000 		.4byte	.LVL112
 8435 09d9 A0080000 		.4byte	0x8a0
 8436 09dd 0A       		.uleb128 0xa
 8437 09de 2A000000 		.4byte	.LVL113
 8438 09e2 BF460000 		.4byte	0x46bf
 8439 09e6 F0090000 		.4byte	0x9f0
 8440 09ea 0B       		.uleb128 0xb
 8441 09eb 01       		.uleb128 0x1
 8442 09ec 50       		.byte	0x50
 8443 09ed 01       		.uleb128 0x1
 8444 09ee 31       		.byte	0x31
 8445 09ef 00       		.byte	0
 8446 09f0 09       		.uleb128 0x9
 8447 09f1 2E000000 		.4byte	.LVL114
 8448 09f5 B5470000 		.4byte	0x47b5
 8449 09f9 00       		.byte	0
 8450 09fa 19       		.uleb128 0x19
 8451 09fb 64030000 		.4byte	.LASF58
 8452 09ff 01       		.byte	0x1
 8453 0a00 8C07     		.2byte	0x78c
 8454 0a02 97000000 		.4byte	0x97
 8455 0a06 00000000 		.4byte	.LFB101
 8456 0a0a 10000000 		.4byte	.LFE101-.LFB101
 8457 0a0e 01       		.uleb128 0x1
 8458 0a0f 9C       		.byte	0x9c
 8459 0a10 3D0A0000 		.4byte	0xa3d
 8460 0a14 0E       		.uleb128 0xe
 8461 0a15 CF040000 		.4byte	.LASF54
 8462 0a19 01       		.byte	0x1
 8463 0a1a 8C07     		.2byte	0x78c
 8464 0a1c 97000000 		.4byte	0x97
 8465 0a20 3D010000 		.4byte	.LLST8
 8466 0a24 09       		.uleb128 0x9
 8467 0a25 06000000 		.4byte	.LVL116
 8468 0a29 C0470000 		.4byte	0x47c0
 8469 0a2d 0C       		.uleb128 0xc
 8470 0a2e 0C000000 		.4byte	.LVL117
 8471 0a32 4E470000 		.4byte	0x474e
 8472 0a36 0B       		.uleb128 0xb
 8473 0a37 01       		.uleb128 0x1
 8474 0a38 50       		.byte	0x50
 8475 0a39 01       		.uleb128 0x1
 8476 0a3a 3A       		.byte	0x3a
 8477 0a3b 00       		.byte	0
 8478 0a3c 00       		.byte	0
 8479 0a3d 0D       		.uleb128 0xd
 8480 0a3e 12040000 		.4byte	.LASF55
 8481 0a42 01       		.byte	0x1
 8482 0a43 B207     		.2byte	0x7b2
ARM GAS  C:\Users\Revanth\AppData\Local\Temp\ccbqjHa5.s 			page 212


 8483 0a45 00000000 		.4byte	.LFB102
 8484 0a49 98000000 		.4byte	.LFE102-.LFB102
 8485 0a4d 01       		.uleb128 0x1
 8486 0a4e 9C       		.byte	0x9c
 8487 0a4f C00B0000 		.4byte	0xbc0
 8488 0a53 0E       		.uleb128 0xe
 8489 0a54 0F060000 		.4byte	.LASF56
 8490 0a58 01       		.byte	0x1
 8491 0a59 B207     		.2byte	0x7b2
 8492 0a5b 97000000 		.4byte	0x97
 8493 0a5f 5E010000 		.4byte	.LLST9
 8494 0a63 0E       		.uleb128 0xe
 8495 0a64 1F0B0000 		.4byte	.LASF57
 8496 0a68 01       		.byte	0x1
 8497 0a69 B207     		.2byte	0x7b2
 8498 0a6b 97000000 		.4byte	0x97
 8499 0a6f 15020000 		.4byte	.LLST10
 8500 0a73 0A       		.uleb128 0xa
 8501 0a74 20000000 		.4byte	.LVL120
 8502 0a78 4E470000 		.4byte	0x474e
 8503 0a7c 860A0000 		.4byte	0xa86
 8504 0a80 0B       		.uleb128 0xb
 8505 0a81 01       		.uleb128 0x1
 8506 0a82 50       		.byte	0x50
 8507 0a83 01       		.uleb128 0x1
 8508 0a84 3A       		.byte	0x3a
 8509 0a85 00       		.byte	0
 8510 0a86 0A       		.uleb128 0xa
 8511 0a87 26000000 		.4byte	.LVL121
 8512 0a8b CB470000 		.4byte	0x47cb
 8513 0a8f 9A0A0000 		.4byte	0xa9a
 8514 0a93 0B       		.uleb128 0xb
 8515 0a94 01       		.uleb128 0x1
 8516 0a95 50       		.byte	0x50
 8517 0a96 02       		.uleb128 0x2
 8518 0a97 74       		.byte	0x74
 8519 0a98 00       		.sleb128 0
 8520 0a99 00       		.byte	0
 8521 0a9a 0A       		.uleb128 0xa
 8522 0a9b 2C000000 		.4byte	.LVL122
 8523 0a9f 4E470000 		.4byte	0x474e
 8524 0aa3 AD0A0000 		.4byte	0xaad
 8525 0aa7 0B       		.uleb128 0xb
 8526 0aa8 01       		.uleb128 0x1
 8527 0aa9 50       		.byte	0x50
 8528 0aaa 01       		.uleb128 0x1
 8529 0aab 3A       		.byte	0x3a
 8530 0aac 00       		.byte	0
 8531 0aad 0A       		.uleb128 0xa
 8532 0aae 34000000 		.4byte	.LVL125
 8533 0ab2 4E470000 		.4byte	0x474e
 8534 0ab6 C00A0000 		.4byte	0xac0
 8535 0aba 0B       		.uleb128 0xb
 8536 0abb 01       		.uleb128 0x1
 8537 0abc 50       		.byte	0x50
 8538 0abd 01       		.uleb128 0x1
 8539 0abe 3A       		.byte	0x3a
ARM GAS  C:\Users\Revanth\AppData\Local\Temp\ccbqjHa5.s 			page 213


 8540 0abf 00       		.byte	0
 8541 0ac0 0A       		.uleb128 0xa
 8542 0ac1 3A000000 		.4byte	.LVL126
 8543 0ac5 D6470000 		.4byte	0x47d6
 8544 0ac9 D40A0000 		.4byte	0xad4
 8545 0acd 0B       		.uleb128 0xb
 8546 0ace 01       		.uleb128 0x1
 8547 0acf 50       		.byte	0x50
 8548 0ad0 02       		.uleb128 0x2
 8549 0ad1 74       		.byte	0x74
 8550 0ad2 00       		.sleb128 0
 8551 0ad3 00       		.byte	0
 8552 0ad4 0A       		.uleb128 0xa
 8553 0ad5 40000000 		.4byte	.LVL127
 8554 0ad9 4E470000 		.4byte	0x474e
 8555 0add E70A0000 		.4byte	0xae7
 8556 0ae1 0B       		.uleb128 0xb
 8557 0ae2 01       		.uleb128 0x1
 8558 0ae3 50       		.byte	0x50
 8559 0ae4 01       		.uleb128 0x1
 8560 0ae5 3A       		.byte	0x3a
 8561 0ae6 00       		.byte	0
 8562 0ae7 0A       		.uleb128 0xa
 8563 0ae8 48000000 		.4byte	.LVL130
 8564 0aec 4E470000 		.4byte	0x474e
 8565 0af0 FA0A0000 		.4byte	0xafa
 8566 0af4 0B       		.uleb128 0xb
 8567 0af5 01       		.uleb128 0x1
 8568 0af6 50       		.byte	0x50
 8569 0af7 01       		.uleb128 0x1
 8570 0af8 3A       		.byte	0x3a
 8571 0af9 00       		.byte	0
 8572 0afa 0A       		.uleb128 0xa
 8573 0afb 4E000000 		.4byte	.LVL131
 8574 0aff E1470000 		.4byte	0x47e1
 8575 0b03 0E0B0000 		.4byte	0xb0e
 8576 0b07 0B       		.uleb128 0xb
 8577 0b08 01       		.uleb128 0x1
 8578 0b09 50       		.byte	0x50
 8579 0b0a 02       		.uleb128 0x2
 8580 0b0b 74       		.byte	0x74
 8581 0b0c 00       		.sleb128 0
 8582 0b0d 00       		.byte	0
 8583 0b0e 0A       		.uleb128 0xa
 8584 0b0f 54000000 		.4byte	.LVL132
 8585 0b13 4E470000 		.4byte	0x474e
 8586 0b17 210B0000 		.4byte	0xb21
 8587 0b1b 0B       		.uleb128 0xb
 8588 0b1c 01       		.uleb128 0x1
 8589 0b1d 50       		.byte	0x50
 8590 0b1e 01       		.uleb128 0x1
 8591 0b1f 3A       		.byte	0x3a
 8592 0b20 00       		.byte	0
 8593 0b21 0A       		.uleb128 0xa
 8594 0b22 5C000000 		.4byte	.LVL135
 8595 0b26 4E470000 		.4byte	0x474e
 8596 0b2a 340B0000 		.4byte	0xb34
ARM GAS  C:\Users\Revanth\AppData\Local\Temp\ccbqjHa5.s 			page 214


 8597 0b2e 0B       		.uleb128 0xb
 8598 0b2f 01       		.uleb128 0x1
 8599 0b30 50       		.byte	0x50
 8600 0b31 01       		.uleb128 0x1
 8601 0b32 3A       		.byte	0x3a
 8602 0b33 00       		.byte	0
 8603 0b34 0A       		.uleb128 0xa
 8604 0b35 62000000 		.4byte	.LVL136
 8605 0b39 EC470000 		.4byte	0x47ec
 8606 0b3d 480B0000 		.4byte	0xb48
 8607 0b41 0B       		.uleb128 0xb
 8608 0b42 01       		.uleb128 0x1
 8609 0b43 50       		.byte	0x50
 8610 0b44 02       		.uleb128 0x2
 8611 0b45 74       		.byte	0x74
 8612 0b46 00       		.sleb128 0
 8613 0b47 00       		.byte	0
 8614 0b48 0A       		.uleb128 0xa
 8615 0b49 68000000 		.4byte	.LVL137
 8616 0b4d 4E470000 		.4byte	0x474e
 8617 0b51 5B0B0000 		.4byte	0xb5b
 8618 0b55 0B       		.uleb128 0xb
 8619 0b56 01       		.uleb128 0x1
 8620 0b57 50       		.byte	0x50
 8621 0b58 01       		.uleb128 0x1
 8622 0b59 3A       		.byte	0x3a
 8623 0b5a 00       		.byte	0
 8624 0b5b 0A       		.uleb128 0xa
 8625 0b5c 70000000 		.4byte	.LVL140
 8626 0b60 4E470000 		.4byte	0x474e
 8627 0b64 6E0B0000 		.4byte	0xb6e
 8628 0b68 0B       		.uleb128 0xb
 8629 0b69 01       		.uleb128 0x1
 8630 0b6a 50       		.byte	0x50
 8631 0b6b 01       		.uleb128 0x1
 8632 0b6c 3A       		.byte	0x3a
 8633 0b6d 00       		.byte	0
 8634 0b6e 0A       		.uleb128 0xa
 8635 0b6f 76000000 		.4byte	.LVL141
 8636 0b73 F7470000 		.4byte	0x47f7
 8637 0b77 820B0000 		.4byte	0xb82
 8638 0b7b 0B       		.uleb128 0xb
 8639 0b7c 01       		.uleb128 0x1
 8640 0b7d 50       		.byte	0x50
 8641 0b7e 02       		.uleb128 0x2
 8642 0b7f 74       		.byte	0x74
 8643 0b80 00       		.sleb128 0
 8644 0b81 00       		.byte	0
 8645 0b82 0A       		.uleb128 0xa
 8646 0b83 7C000000 		.4byte	.LVL142
 8647 0b87 4E470000 		.4byte	0x474e
 8648 0b8b 950B0000 		.4byte	0xb95
 8649 0b8f 0B       		.uleb128 0xb
 8650 0b90 01       		.uleb128 0x1
 8651 0b91 50       		.byte	0x50
 8652 0b92 01       		.uleb128 0x1
 8653 0b93 3A       		.byte	0x3a
ARM GAS  C:\Users\Revanth\AppData\Local\Temp\ccbqjHa5.s 			page 215


 8654 0b94 00       		.byte	0
 8655 0b95 0A       		.uleb128 0xa
 8656 0b96 84000000 		.4byte	.LVL145
 8657 0b9a E8030000 		.4byte	0x3e8
 8658 0b9e AC0B0000 		.4byte	0xbac
 8659 0ba2 0B       		.uleb128 0xb
 8660 0ba3 01       		.uleb128 0x1
 8661 0ba4 50       		.byte	0x50
 8662 0ba5 05       		.uleb128 0x5
 8663 0ba6 03       		.byte	0x3
 8664 0ba7 FC010000 		.4byte	.LC18
 8665 0bab 00       		.byte	0
 8666 0bac 0C       		.uleb128 0xc
 8667 0bad 8C000000 		.4byte	.LVL148
 8668 0bb1 E8030000 		.4byte	0x3e8
 8669 0bb5 0B       		.uleb128 0xb
 8670 0bb6 01       		.uleb128 0x1
 8671 0bb7 50       		.byte	0x50
 8672 0bb8 05       		.uleb128 0x5
 8673 0bb9 03       		.byte	0x3
 8674 0bba 3C020000 		.4byte	.LC19
 8675 0bbe 00       		.byte	0
 8676 0bbf 00       		.byte	0
 8677 0bc0 19       		.uleb128 0x19
 8678 0bc1 E1030000 		.4byte	.LASF59
 8679 0bc5 01       		.byte	0x1
 8680 0bc6 1108     		.2byte	0x811
 8681 0bc8 89000000 		.4byte	0x89
 8682 0bcc 00000000 		.4byte	.LFB103
 8683 0bd0 EC000000 		.4byte	.LFE103-.LFB103
 8684 0bd4 01       		.uleb128 0x1
 8685 0bd5 9C       		.byte	0x9c
 8686 0bd6 500E0000 		.4byte	0xe50
 8687 0bda 0E       		.uleb128 0xe
 8688 0bdb 98010000 		.4byte	.LASF60
 8689 0bdf 01       		.byte	0x1
 8690 0be0 1108     		.2byte	0x811
 8691 0be2 97000000 		.4byte	0x97
 8692 0be6 CC020000 		.4byte	.LLST11
 8693 0bea 0E       		.uleb128 0xe
 8694 0beb 0F060000 		.4byte	.LASF56
 8695 0bef 01       		.byte	0x1
 8696 0bf0 1108     		.2byte	0x811
 8697 0bf2 97000000 		.4byte	0x97
 8698 0bf6 ED020000 		.4byte	.LLST12
 8699 0bfa 0E       		.uleb128 0xe
 8700 0bfb AF040000 		.4byte	.LASF61
 8701 0bff 01       		.byte	0x1
 8702 0c00 1108     		.2byte	0x811
 8703 0c02 500E0000 		.4byte	0xe50
 8704 0c06 0E030000 		.4byte	.LLST13
 8705 0c0a 1A       		.uleb128 0x1a
 8706 0c0b E90A0000 		.4byte	.LASF62
 8707 0c0f 01       		.byte	0x1
 8708 0c10 1308     		.2byte	0x813
 8709 0c12 B8000000 		.4byte	0xb8
 8710 0c16 2C030000 		.4byte	.LLST14
ARM GAS  C:\Users\Revanth\AppData\Local\Temp\ccbqjHa5.s 			page 216


 8711 0c1a 0A       		.uleb128 0xa
 8712 0c1b 10000000 		.4byte	.LVL153
 8713 0c1f 3D0A0000 		.4byte	0xa3d
 8714 0c23 330C0000 		.4byte	0xc33
 8715 0c27 0B       		.uleb128 0xb
 8716 0c28 01       		.uleb128 0x1
 8717 0c29 50       		.byte	0x50
 8718 0c2a 02       		.uleb128 0x2
 8719 0c2b 75       		.byte	0x75
 8720 0c2c 00       		.sleb128 0
 8721 0c2d 0B       		.uleb128 0xb
 8722 0c2e 01       		.uleb128 0x1
 8723 0c2f 51       		.byte	0x51
 8724 0c30 01       		.uleb128 0x1
 8725 0c31 30       		.byte	0x30
 8726 0c32 00       		.byte	0
 8727 0c33 0A       		.uleb128 0xa
 8728 0c34 1A000000 		.4byte	.LVL154
 8729 0c38 FA090000 		.4byte	0x9fa
 8730 0c3c 470C0000 		.4byte	0xc47
 8731 0c40 0B       		.uleb128 0xb
 8732 0c41 01       		.uleb128 0x1
 8733 0c42 50       		.byte	0x50
 8734 0c43 02       		.uleb128 0x2
 8735 0c44 76       		.byte	0x76
 8736 0c45 00       		.sleb128 0
 8737 0c46 00       		.byte	0
 8738 0c47 0A       		.uleb128 0xa
 8739 0c48 20000000 		.4byte	.LVL155
 8740 0c4c FA090000 		.4byte	0x9fa
 8741 0c50 5A0C0000 		.4byte	0xc5a
 8742 0c54 0B       		.uleb128 0xb
 8743 0c55 01       		.uleb128 0x1
 8744 0c56 50       		.byte	0x50
 8745 0c57 01       		.uleb128 0x1
 8746 0c58 30       		.byte	0x30
 8747 0c59 00       		.byte	0
 8748 0c5a 0A       		.uleb128 0xa
 8749 0c5b 26000000 		.4byte	.LVL156
 8750 0c5f FA090000 		.4byte	0x9fa
 8751 0c63 6D0C0000 		.4byte	0xc6d
 8752 0c67 0B       		.uleb128 0xb
 8753 0c68 01       		.uleb128 0x1
 8754 0c69 50       		.byte	0x50
 8755 0c6a 01       		.uleb128 0x1
 8756 0c6b 30       		.byte	0x30
 8757 0c6c 00       		.byte	0
 8758 0c6d 0A       		.uleb128 0xa
 8759 0c6e 2C000000 		.4byte	.LVL157
 8760 0c72 FA090000 		.4byte	0x9fa
 8761 0c76 800C0000 		.4byte	0xc80
 8762 0c7a 0B       		.uleb128 0xb
 8763 0c7b 01       		.uleb128 0x1
 8764 0c7c 50       		.byte	0x50
 8765 0c7d 01       		.uleb128 0x1
 8766 0c7e 30       		.byte	0x30
 8767 0c7f 00       		.byte	0
ARM GAS  C:\Users\Revanth\AppData\Local\Temp\ccbqjHa5.s 			page 217


 8768 0c80 0A       		.uleb128 0xa
 8769 0c81 32000000 		.4byte	.LVL158
 8770 0c85 FA090000 		.4byte	0x9fa
 8771 0c89 930C0000 		.4byte	0xc93
 8772 0c8d 0B       		.uleb128 0xb
 8773 0c8e 01       		.uleb128 0x1
 8774 0c8f 50       		.byte	0x50
 8775 0c90 01       		.uleb128 0x1
 8776 0c91 30       		.byte	0x30
 8777 0c92 00       		.byte	0
 8778 0c93 0A       		.uleb128 0xa
 8779 0c94 3A000000 		.4byte	.LVL159
 8780 0c98 3D0A0000 		.4byte	0xa3d
 8781 0c9c AD0C0000 		.4byte	0xcad
 8782 0ca0 0B       		.uleb128 0xb
 8783 0ca1 01       		.uleb128 0x1
 8784 0ca2 50       		.byte	0x50
 8785 0ca3 02       		.uleb128 0x2
 8786 0ca4 75       		.byte	0x75
 8787 0ca5 00       		.sleb128 0
 8788 0ca6 0B       		.uleb128 0xb
 8789 0ca7 01       		.uleb128 0x1
 8790 0ca8 51       		.byte	0x51
 8791 0ca9 02       		.uleb128 0x2
 8792 0caa 09       		.byte	0x9
 8793 0cab FF       		.byte	0xff
 8794 0cac 00       		.byte	0
 8795 0cad 0A       		.uleb128 0xa
 8796 0cae 40000000 		.4byte	.LVL160
 8797 0cb2 BF460000 		.4byte	0x46bf
 8798 0cb6 C00C0000 		.4byte	0xcc0
 8799 0cba 0B       		.uleb128 0xb
 8800 0cbb 01       		.uleb128 0x1
 8801 0cbc 50       		.byte	0x50
 8802 0cbd 01       		.uleb128 0x1
 8803 0cbe 31       		.byte	0x31
 8804 0cbf 00       		.byte	0
 8805 0cc0 0A       		.uleb128 0xa
 8806 0cc1 48000000 		.4byte	.LVL161
 8807 0cc5 3D0A0000 		.4byte	0xa3d
 8808 0cc9 D90C0000 		.4byte	0xcd9
 8809 0ccd 0B       		.uleb128 0xb
 8810 0cce 01       		.uleb128 0x1
 8811 0ccf 50       		.byte	0x50
 8812 0cd0 02       		.uleb128 0x2
 8813 0cd1 75       		.byte	0x75
 8814 0cd2 00       		.sleb128 0
 8815 0cd3 0B       		.uleb128 0xb
 8816 0cd4 01       		.uleb128 0x1
 8817 0cd5 51       		.byte	0x51
 8818 0cd6 01       		.uleb128 0x1
 8819 0cd7 30       		.byte	0x30
 8820 0cd8 00       		.byte	0
 8821 0cd9 0A       		.uleb128 0xa
 8822 0cda 4E000000 		.4byte	.LVL162
 8823 0cde FA090000 		.4byte	0x9fa
 8824 0ce2 ED0C0000 		.4byte	0xced
ARM GAS  C:\Users\Revanth\AppData\Local\Temp\ccbqjHa5.s 			page 218


 8825 0ce6 0B       		.uleb128 0xb
 8826 0ce7 01       		.uleb128 0x1
 8827 0ce8 50       		.byte	0x50
 8828 0ce9 02       		.uleb128 0x2
 8829 0cea 76       		.byte	0x76
 8830 0ceb 00       		.sleb128 0
 8831 0cec 00       		.byte	0
 8832 0ced 09       		.uleb128 0x9
 8833 0cee 52000000 		.4byte	.LVL163
 8834 0cf2 02480000 		.4byte	0x4802
 8835 0cf6 0A       		.uleb128 0xa
 8836 0cf7 5A000000 		.4byte	.LVL164
 8837 0cfb FA090000 		.4byte	0x9fa
 8838 0cff 090D0000 		.4byte	0xd09
 8839 0d03 0B       		.uleb128 0xb
 8840 0d04 01       		.uleb128 0x1
 8841 0d05 50       		.byte	0x50
 8842 0d06 01       		.uleb128 0x1
 8843 0d07 30       		.byte	0x30
 8844 0d08 00       		.byte	0
 8845 0d09 09       		.uleb128 0x9
 8846 0d0a 5E000000 		.4byte	.LVL165
 8847 0d0e 02480000 		.4byte	0x4802
 8848 0d12 0A       		.uleb128 0xa
 8849 0d13 66000000 		.4byte	.LVL167
 8850 0d17 FA090000 		.4byte	0x9fa
 8851 0d1b 250D0000 		.4byte	0xd25
 8852 0d1f 0B       		.uleb128 0xb
 8853 0d20 01       		.uleb128 0x1
 8854 0d21 50       		.byte	0x50
 8855 0d22 01       		.uleb128 0x1
 8856 0d23 30       		.byte	0x30
 8857 0d24 00       		.byte	0
 8858 0d25 09       		.uleb128 0x9
 8859 0d26 6A000000 		.4byte	.LVL168
 8860 0d2a 02480000 		.4byte	0x4802
 8861 0d2e 0A       		.uleb128 0xa
 8862 0d2f 74000000 		.4byte	.LVL170
 8863 0d33 FA090000 		.4byte	0x9fa
 8864 0d37 410D0000 		.4byte	0xd41
 8865 0d3b 0B       		.uleb128 0xb
 8866 0d3c 01       		.uleb128 0x1
 8867 0d3d 50       		.byte	0x50
 8868 0d3e 01       		.uleb128 0x1
 8869 0d3f 30       		.byte	0x30
 8870 0d40 00       		.byte	0
 8871 0d41 09       		.uleb128 0x9
 8872 0d42 78000000 		.4byte	.LVL171
 8873 0d46 02480000 		.4byte	0x4802
 8874 0d4a 0A       		.uleb128 0xa
 8875 0d4b 82000000 		.4byte	.LVL173
 8876 0d4f FA090000 		.4byte	0x9fa
 8877 0d53 5D0D0000 		.4byte	0xd5d
 8878 0d57 0B       		.uleb128 0xb
 8879 0d58 01       		.uleb128 0x1
 8880 0d59 50       		.byte	0x50
 8881 0d5a 01       		.uleb128 0x1
ARM GAS  C:\Users\Revanth\AppData\Local\Temp\ccbqjHa5.s 			page 219


 8882 0d5b 30       		.byte	0x30
 8883 0d5c 00       		.byte	0
 8884 0d5d 09       		.uleb128 0x9
 8885 0d5e 86000000 		.4byte	.LVL174
 8886 0d62 02480000 		.4byte	0x4802
 8887 0d66 0A       		.uleb128 0xa
 8888 0d67 90000000 		.4byte	.LVL176
 8889 0d6b 3D0A0000 		.4byte	0xa3d
 8890 0d6f 800D0000 		.4byte	0xd80
 8891 0d73 0B       		.uleb128 0xb
 8892 0d74 01       		.uleb128 0x1
 8893 0d75 50       		.byte	0x50
 8894 0d76 02       		.uleb128 0x2
 8895 0d77 75       		.byte	0x75
 8896 0d78 00       		.sleb128 0
 8897 0d79 0B       		.uleb128 0xb
 8898 0d7a 01       		.uleb128 0x1
 8899 0d7b 51       		.byte	0x51
 8900 0d7c 02       		.uleb128 0x2
 8901 0d7d 09       		.byte	0x9
 8902 0d7e FF       		.byte	0xff
 8903 0d7f 00       		.byte	0
 8904 0d80 0A       		.uleb128 0xa
 8905 0d81 96000000 		.4byte	.LVL177
 8906 0d85 BF460000 		.4byte	0x46bf
 8907 0d89 930D0000 		.4byte	0xd93
 8908 0d8d 0B       		.uleb128 0xb
 8909 0d8e 01       		.uleb128 0x1
 8910 0d8f 50       		.byte	0x50
 8911 0d90 01       		.uleb128 0x1
 8912 0d91 31       		.byte	0x31
 8913 0d92 00       		.byte	0
 8914 0d93 0A       		.uleb128 0xa
 8915 0d94 9E000000 		.4byte	.LVL178
 8916 0d98 3D0A0000 		.4byte	0xa3d
 8917 0d9c AC0D0000 		.4byte	0xdac
 8918 0da0 0B       		.uleb128 0xb
 8919 0da1 01       		.uleb128 0x1
 8920 0da2 50       		.byte	0x50
 8921 0da3 02       		.uleb128 0x2
 8922 0da4 75       		.byte	0x75
 8923 0da5 00       		.sleb128 0
 8924 0da6 0B       		.uleb128 0xb
 8925 0da7 01       		.uleb128 0x1
 8926 0da8 51       		.byte	0x51
 8927 0da9 01       		.uleb128 0x1
 8928 0daa 30       		.byte	0x30
 8929 0dab 00       		.byte	0
 8930 0dac 0A       		.uleb128 0xa
 8931 0dad A4000000 		.4byte	.LVL179
 8932 0db1 FA090000 		.4byte	0x9fa
 8933 0db5 C00D0000 		.4byte	0xdc0
 8934 0db9 0B       		.uleb128 0xb
 8935 0dba 01       		.uleb128 0x1
 8936 0dbb 50       		.byte	0x50
 8937 0dbc 02       		.uleb128 0x2
 8938 0dbd 76       		.byte	0x76
ARM GAS  C:\Users\Revanth\AppData\Local\Temp\ccbqjHa5.s 			page 220


 8939 0dbe 00       		.sleb128 0
 8940 0dbf 00       		.byte	0
 8941 0dc0 09       		.uleb128 0x9
 8942 0dc1 A8000000 		.4byte	.LVL180
 8943 0dc5 02480000 		.4byte	0x4802
 8944 0dc9 0A       		.uleb128 0xa
 8945 0dca B0000000 		.4byte	.LVL181
 8946 0dce FA090000 		.4byte	0x9fa
 8947 0dd2 DC0D0000 		.4byte	0xddc
 8948 0dd6 0B       		.uleb128 0xb
 8949 0dd7 01       		.uleb128 0x1
 8950 0dd8 50       		.byte	0x50
 8951 0dd9 01       		.uleb128 0x1
 8952 0dda 30       		.byte	0x30
 8953 0ddb 00       		.byte	0
 8954 0ddc 09       		.uleb128 0x9
 8955 0ddd B4000000 		.4byte	.LVL182
 8956 0de1 02480000 		.4byte	0x4802
 8957 0de5 0A       		.uleb128 0xa
 8958 0de6 BE000000 		.4byte	.LVL184
 8959 0dea FA090000 		.4byte	0x9fa
 8960 0dee F80D0000 		.4byte	0xdf8
 8961 0df2 0B       		.uleb128 0xb
 8962 0df3 01       		.uleb128 0x1
 8963 0df4 50       		.byte	0x50
 8964 0df5 01       		.uleb128 0x1
 8965 0df6 30       		.byte	0x30
 8966 0df7 00       		.byte	0
 8967 0df8 09       		.uleb128 0x9
 8968 0df9 C2000000 		.4byte	.LVL185
 8969 0dfd 02480000 		.4byte	0x4802
 8970 0e01 0A       		.uleb128 0xa
 8971 0e02 CC000000 		.4byte	.LVL187
 8972 0e06 FA090000 		.4byte	0x9fa
 8973 0e0a 140E0000 		.4byte	0xe14
 8974 0e0e 0B       		.uleb128 0xb
 8975 0e0f 01       		.uleb128 0x1
 8976 0e10 50       		.byte	0x50
 8977 0e11 01       		.uleb128 0x1
 8978 0e12 30       		.byte	0x30
 8979 0e13 00       		.byte	0
 8980 0e14 09       		.uleb128 0x9
 8981 0e15 D0000000 		.4byte	.LVL188
 8982 0e19 02480000 		.4byte	0x4802
 8983 0e1d 0A       		.uleb128 0xa
 8984 0e1e DA000000 		.4byte	.LVL190
 8985 0e22 FA090000 		.4byte	0x9fa
 8986 0e26 300E0000 		.4byte	0xe30
 8987 0e2a 0B       		.uleb128 0xb
 8988 0e2b 01       		.uleb128 0x1
 8989 0e2c 50       		.byte	0x50
 8990 0e2d 01       		.uleb128 0x1
 8991 0e2e 30       		.byte	0x30
 8992 0e2f 00       		.byte	0
 8993 0e30 09       		.uleb128 0x9
 8994 0e31 DE000000 		.4byte	.LVL191
 8995 0e35 02480000 		.4byte	0x4802
ARM GAS  C:\Users\Revanth\AppData\Local\Temp\ccbqjHa5.s 			page 221


 8996 0e39 0C       		.uleb128 0xc
 8997 0e3a E8000000 		.4byte	.LVL193
 8998 0e3e 3D0A0000 		.4byte	0xa3d
 8999 0e42 0B       		.uleb128 0xb
 9000 0e43 01       		.uleb128 0x1
 9001 0e44 50       		.byte	0x50
 9002 0e45 02       		.uleb128 0x2
 9003 0e46 75       		.byte	0x75
 9004 0e47 00       		.sleb128 0
 9005 0e48 0B       		.uleb128 0xb
 9006 0e49 01       		.uleb128 0x1
 9007 0e4a 51       		.byte	0x51
 9008 0e4b 02       		.uleb128 0x2
 9009 0e4c 09       		.byte	0x9
 9010 0e4d FF       		.byte	0xff
 9011 0e4e 00       		.byte	0
 9012 0e4f 00       		.byte	0
 9013 0e50 05       		.uleb128 0x5
 9014 0e51 04       		.byte	0x4
 9015 0e52 97000000 		.4byte	0x97
 9016 0e56 0D       		.uleb128 0xd
 9017 0e57 AE010000 		.4byte	.LASF63
 9018 0e5b 01       		.byte	0x1
 9019 0e5c 6E08     		.2byte	0x86e
 9020 0e5e 00000000 		.4byte	.LFB104
 9021 0e62 3E000000 		.4byte	.LFE104-.LFB104
 9022 0e66 01       		.uleb128 0x1
 9023 0e67 9C       		.byte	0x9c
 9024 0e68 410F0000 		.4byte	0xf41
 9025 0e6c 0E       		.uleb128 0xe
 9026 0e6d 98010000 		.4byte	.LASF60
 9027 0e71 01       		.byte	0x1
 9028 0e72 6E08     		.2byte	0x86e
 9029 0e74 97000000 		.4byte	0x97
 9030 0e78 4B030000 		.4byte	.LLST15
 9031 0e7c 0E       		.uleb128 0xe
 9032 0e7d CF040000 		.4byte	.LASF54
 9033 0e81 01       		.byte	0x1
 9034 0e82 6E08     		.2byte	0x86e
 9035 0e84 89000000 		.4byte	0x89
 9036 0e88 6C030000 		.4byte	.LLST16
 9037 0e8c 0E       		.uleb128 0xe
 9038 0e8d 0F060000 		.4byte	.LASF56
 9039 0e91 01       		.byte	0x1
 9040 0e92 6E08     		.2byte	0x86e
 9041 0e94 97000000 		.4byte	0x97
 9042 0e98 8A030000 		.4byte	.LLST17
 9043 0e9c 0A       		.uleb128 0xa
 9044 0e9d 10000000 		.4byte	.LVL197
 9045 0ea1 3D0A0000 		.4byte	0xa3d
 9046 0ea5 B50E0000 		.4byte	0xeb5
 9047 0ea9 0B       		.uleb128 0xb
 9048 0eaa 01       		.uleb128 0x1
 9049 0eab 50       		.byte	0x50
 9050 0eac 02       		.uleb128 0x2
 9051 0ead 75       		.byte	0x75
 9052 0eae 00       		.sleb128 0
ARM GAS  C:\Users\Revanth\AppData\Local\Temp\ccbqjHa5.s 			page 222


 9053 0eaf 0B       		.uleb128 0xb
 9054 0eb0 01       		.uleb128 0x1
 9055 0eb1 51       		.byte	0x51
 9056 0eb2 01       		.uleb128 0x1
 9057 0eb3 30       		.byte	0x30
 9058 0eb4 00       		.byte	0
 9059 0eb5 0A       		.uleb128 0xa
 9060 0eb6 18000000 		.4byte	.LVL198
 9061 0eba FA090000 		.4byte	0x9fa
 9062 0ebe CC0E0000 		.4byte	0xecc
 9063 0ec2 0B       		.uleb128 0xb
 9064 0ec3 01       		.uleb128 0x1
 9065 0ec4 50       		.byte	0x50
 9066 0ec5 05       		.uleb128 0x5
 9067 0ec6 76       		.byte	0x76
 9068 0ec7 00       		.sleb128 0
 9069 0ec8 08       		.byte	0x8
 9070 0ec9 80       		.byte	0x80
 9071 0eca 21       		.byte	0x21
 9072 0ecb 00       		.byte	0
 9073 0ecc 0A       		.uleb128 0xa
 9074 0ecd 1E000000 		.4byte	.LVL199
 9075 0ed1 FA090000 		.4byte	0x9fa
 9076 0ed5 E20E0000 		.4byte	0xee2
 9077 0ed9 0B       		.uleb128 0xb
 9078 0eda 01       		.uleb128 0x1
 9079 0edb 50       		.byte	0x50
 9080 0edc 04       		.uleb128 0x4
 9081 0edd 74       		.byte	0x74
 9082 0ede 00       		.sleb128 0
 9083 0edf 48       		.byte	0x48
 9084 0ee0 25       		.byte	0x25
 9085 0ee1 00       		.byte	0
 9086 0ee2 0A       		.uleb128 0xa
 9087 0ee3 26000000 		.4byte	.LVL200
 9088 0ee7 FA090000 		.4byte	0x9fa
 9089 0eeb FC0E0000 		.4byte	0xefc
 9090 0eef 0B       		.uleb128 0xb
 9091 0ef0 01       		.uleb128 0x1
 9092 0ef1 50       		.byte	0x50
 9093 0ef2 08       		.uleb128 0x8
 9094 0ef3 74       		.byte	0x74
 9095 0ef4 00       		.sleb128 0
 9096 0ef5 09       		.byte	0x9
 9097 0ef6 EC       		.byte	0xec
 9098 0ef7 24       		.byte	0x24
 9099 0ef8 09       		.byte	0x9
 9100 0ef9 FC       		.byte	0xfc
 9101 0efa 25       		.byte	0x25
 9102 0efb 00       		.byte	0
 9103 0efc 0A       		.uleb128 0xa
 9104 0efd 2E000000 		.4byte	.LVL201
 9105 0f01 FA090000 		.4byte	0x9fa
 9106 0f05 160F0000 		.4byte	0xf16
 9107 0f09 0B       		.uleb128 0xb
 9108 0f0a 01       		.uleb128 0x1
 9109 0f0b 50       		.byte	0x50
ARM GAS  C:\Users\Revanth\AppData\Local\Temp\ccbqjHa5.s 			page 223


 9110 0f0c 08       		.uleb128 0x8
 9111 0f0d 74       		.byte	0x74
 9112 0f0e 00       		.sleb128 0
 9113 0f0f 09       		.byte	0x9
 9114 0f10 F4       		.byte	0xf4
 9115 0f11 24       		.byte	0x24
 9116 0f12 09       		.byte	0x9
 9117 0f13 FC       		.byte	0xfc
 9118 0f14 25       		.byte	0x25
 9119 0f15 00       		.byte	0
 9120 0f16 0A       		.uleb128 0xa
 9121 0f17 34000000 		.4byte	.LVL202
 9122 0f1b FA090000 		.4byte	0x9fa
 9123 0f1f 2A0F0000 		.4byte	0xf2a
 9124 0f23 0B       		.uleb128 0xb
 9125 0f24 01       		.uleb128 0x1
 9126 0f25 50       		.byte	0x50
 9127 0f26 02       		.uleb128 0x2
 9128 0f27 74       		.byte	0x74
 9129 0f28 00       		.sleb128 0
 9130 0f29 00       		.byte	0
 9131 0f2a 0C       		.uleb128 0xc
 9132 0f2b 3C000000 		.4byte	.LVL203
 9133 0f2f 3D0A0000 		.4byte	0xa3d
 9134 0f33 0B       		.uleb128 0xb
 9135 0f34 01       		.uleb128 0x1
 9136 0f35 50       		.byte	0x50
 9137 0f36 02       		.uleb128 0x2
 9138 0f37 75       		.byte	0x75
 9139 0f38 00       		.sleb128 0
 9140 0f39 0B       		.uleb128 0xb
 9141 0f3a 01       		.uleb128 0x1
 9142 0f3b 51       		.byte	0x51
 9143 0f3c 02       		.uleb128 0x2
 9144 0f3d 09       		.byte	0x9
 9145 0f3e FF       		.byte	0xff
 9146 0f3f 00       		.byte	0
 9147 0f40 00       		.byte	0
 9148 0f41 1B       		.uleb128 0x1b
 9149 0f42 A7090000 		.4byte	.LASF64
 9150 0f46 01       		.byte	0x1
 9151 0f47 78       		.byte	0x78
 9152 0f48 00000000 		.4byte	.LFB65
 9153 0f4c 26000000 		.4byte	.LFE65-.LFB65
 9154 0f50 01       		.uleb128 0x1
 9155 0f51 9C       		.byte	0x9c
 9156 0f52 CF0F0000 		.4byte	0xfcf
 9157 0f56 1C       		.uleb128 0x1c
 9158 0f57 506F7300 		.ascii	"Pos\000"
 9159 0f5b 01       		.byte	0x1
 9160 0f5c 78       		.byte	0x78
 9161 0f5d 89000000 		.4byte	0x89
 9162 0f61 AB030000 		.4byte	.LLST18
 9163 0f65 1D       		.uleb128 0x1d
 9164 0f66 0F060000 		.4byte	.LASF56
 9165 0f6a 01       		.byte	0x1
 9166 0f6b 78       		.byte	0x78
ARM GAS  C:\Users\Revanth\AppData\Local\Temp\ccbqjHa5.s 			page 224


 9167 0f6c 97000000 		.4byte	0x97
 9168 0f70 C9030000 		.4byte	.LLST19
 9169 0f74 0A       		.uleb128 0xa
 9170 0f75 10000000 		.4byte	.LVL207
 9171 0f79 560E0000 		.4byte	0xe56
 9172 0f7d 930F0000 		.4byte	0xf93
 9173 0f81 0B       		.uleb128 0xb
 9174 0f82 01       		.uleb128 0x1
 9175 0f83 50       		.byte	0x50
 9176 0f84 02       		.uleb128 0x2
 9177 0f85 08       		.byte	0x8
 9178 0f86 20       		.byte	0x20
 9179 0f87 0B       		.uleb128 0xb
 9180 0f88 01       		.uleb128 0x1
 9181 0f89 51       		.byte	0x51
 9182 0f8a 01       		.uleb128 0x1
 9183 0f8b 30       		.byte	0x30
 9184 0f8c 0B       		.uleb128 0xb
 9185 0f8d 01       		.uleb128 0x1
 9186 0f8e 52       		.byte	0x52
 9187 0f8f 02       		.uleb128 0x2
 9188 0f90 74       		.byte	0x74
 9189 0f91 00       		.sleb128 0
 9190 0f92 00       		.byte	0
 9191 0f93 0A       		.uleb128 0xa
 9192 0f94 1A000000 		.4byte	.LVL208
 9193 0f98 560E0000 		.4byte	0xe56
 9194 0f9c B20F0000 		.4byte	0xfb2
 9195 0fa0 0B       		.uleb128 0xb
 9196 0fa1 01       		.uleb128 0x1
 9197 0fa2 50       		.byte	0x50
 9198 0fa3 01       		.uleb128 0x1
 9199 0fa4 35       		.byte	0x35
 9200 0fa5 0B       		.uleb128 0xb
 9201 0fa6 01       		.uleb128 0x1
 9202 0fa7 51       		.byte	0x51
 9203 0fa8 02       		.uleb128 0x2
 9204 0fa9 75       		.byte	0x75
 9205 0faa 00       		.sleb128 0
 9206 0fab 0B       		.uleb128 0xb
 9207 0fac 01       		.uleb128 0x1
 9208 0fad 52       		.byte	0x52
 9209 0fae 02       		.uleb128 0x2
 9210 0faf 74       		.byte	0x74
 9211 0fb0 00       		.sleb128 0
 9212 0fb1 00       		.byte	0
 9213 0fb2 0C       		.uleb128 0xc
 9214 0fb3 24000000 		.4byte	.LVL209
 9215 0fb7 560E0000 		.4byte	0xe56
 9216 0fbb 0B       		.uleb128 0xb
 9217 0fbc 01       		.uleb128 0x1
 9218 0fbd 50       		.byte	0x50
 9219 0fbe 02       		.uleb128 0x2
 9220 0fbf 08       		.byte	0x8
 9221 0fc0 2D       		.byte	0x2d
 9222 0fc1 0B       		.uleb128 0xb
 9223 0fc2 01       		.uleb128 0x1
ARM GAS  C:\Users\Revanth\AppData\Local\Temp\ccbqjHa5.s 			page 225


 9224 0fc3 51       		.byte	0x51
 9225 0fc4 02       		.uleb128 0x2
 9226 0fc5 75       		.byte	0x75
 9227 0fc6 00       		.sleb128 0
 9228 0fc7 0B       		.uleb128 0xb
 9229 0fc8 01       		.uleb128 0x1
 9230 0fc9 52       		.byte	0x52
 9231 0fca 02       		.uleb128 0x2
 9232 0fcb 74       		.byte	0x74
 9233 0fcc 00       		.sleb128 0
 9234 0fcd 00       		.byte	0
 9235 0fce 00       		.byte	0
 9236 0fcf 0D       		.uleb128 0xd
 9237 0fd0 9D010000 		.4byte	.LASF65
 9238 0fd4 01       		.byte	0x1
 9239 0fd5 7E08     		.2byte	0x87e
 9240 0fd7 00000000 		.4byte	.LFB105
 9241 0fdb 88020000 		.4byte	.LFE105-.LFB105
 9242 0fdf 01       		.uleb128 0x1
 9243 0fe0 9C       		.byte	0x9c
 9244 0fe1 C0160000 		.4byte	0x16c0
 9245 0fe5 0E       		.uleb128 0xe
 9246 0fe6 0F060000 		.4byte	.LASF56
 9247 0fea 01       		.byte	0x1
 9248 0feb 7E08     		.2byte	0x87e
 9249 0fed 97000000 		.4byte	0x97
 9250 0ff1 EA030000 		.4byte	.LLST20
 9251 0ff5 0A       		.uleb128 0xa
 9252 0ff6 0E000000 		.4byte	.LVL212
 9253 0ffa 560E0000 		.4byte	0xe56
 9254 0ffe 13100000 		.4byte	0x1013
 9255 1002 0B       		.uleb128 0xb
 9256 1003 01       		.uleb128 0x1
 9257 1004 50       		.byte	0x50
 9258 1005 01       		.uleb128 0x1
 9259 1006 31       		.byte	0x31
 9260 1007 0B       		.uleb128 0xb
 9261 1008 01       		.uleb128 0x1
 9262 1009 51       		.byte	0x51
 9263 100a 01       		.uleb128 0x1
 9264 100b 35       		.byte	0x35
 9265 100c 0B       		.uleb128 0xb
 9266 100d 01       		.uleb128 0x1
 9267 100e 52       		.byte	0x52
 9268 100f 02       		.uleb128 0x2
 9269 1010 74       		.byte	0x74
 9270 1011 00       		.sleb128 0
 9271 1012 00       		.byte	0
 9272 1013 0A       		.uleb128 0xa
 9273 1014 18000000 		.4byte	.LVL213
 9274 1018 560E0000 		.4byte	0xe56
 9275 101c 31100000 		.4byte	0x1031
 9276 1020 0B       		.uleb128 0xb
 9277 1021 01       		.uleb128 0x1
 9278 1022 50       		.byte	0x50
 9279 1023 01       		.uleb128 0x1
 9280 1024 30       		.byte	0x30
ARM GAS  C:\Users\Revanth\AppData\Local\Temp\ccbqjHa5.s 			page 226


 9281 1025 0B       		.uleb128 0xb
 9282 1026 01       		.uleb128 0x1
 9283 1027 51       		.byte	0x51
 9284 1028 01       		.uleb128 0x1
 9285 1029 38       		.byte	0x38
 9286 102a 0B       		.uleb128 0xb
 9287 102b 01       		.uleb128 0x1
 9288 102c 52       		.byte	0x52
 9289 102d 02       		.uleb128 0x2
 9290 102e 74       		.byte	0x74
 9291 102f 00       		.sleb128 0
 9292 1030 00       		.byte	0
 9293 1031 0A       		.uleb128 0xa
 9294 1032 22000000 		.4byte	.LVL214
 9295 1036 560E0000 		.4byte	0xe56
 9296 103a 4F100000 		.4byte	0x104f
 9297 103e 0B       		.uleb128 0xb
 9298 103f 01       		.uleb128 0x1
 9299 1040 50       		.byte	0x50
 9300 1041 01       		.uleb128 0x1
 9301 1042 33       		.byte	0x33
 9302 1043 0B       		.uleb128 0xb
 9303 1044 01       		.uleb128 0x1
 9304 1045 51       		.byte	0x51
 9305 1046 01       		.uleb128 0x1
 9306 1047 30       		.byte	0x30
 9307 1048 0B       		.uleb128 0xb
 9308 1049 01       		.uleb128 0x1
 9309 104a 52       		.byte	0x52
 9310 104b 02       		.uleb128 0x2
 9311 104c 74       		.byte	0x74
 9312 104d 00       		.sleb128 0
 9313 104e 00       		.byte	0
 9314 104f 0A       		.uleb128 0xa
 9315 1050 2C000000 		.4byte	.LVL215
 9316 1054 560E0000 		.4byte	0xe56
 9317 1058 6D100000 		.4byte	0x106d
 9318 105c 0B       		.uleb128 0xb
 9319 105d 01       		.uleb128 0x1
 9320 105e 50       		.byte	0x50
 9321 105f 01       		.uleb128 0x1
 9322 1060 35       		.byte	0x35
 9323 1061 0B       		.uleb128 0xb
 9324 1062 01       		.uleb128 0x1
 9325 1063 51       		.byte	0x51
 9326 1064 01       		.uleb128 0x1
 9327 1065 30       		.byte	0x30
 9328 1066 0B       		.uleb128 0xb
 9329 1067 01       		.uleb128 0x1
 9330 1068 52       		.byte	0x52
 9331 1069 02       		.uleb128 0x2
 9332 106a 74       		.byte	0x74
 9333 106b 00       		.sleb128 0
 9334 106c 00       		.byte	0
 9335 106d 0A       		.uleb128 0xa
 9336 106e 36000000 		.4byte	.LVL216
 9337 1072 560E0000 		.4byte	0xe56
ARM GAS  C:\Users\Revanth\AppData\Local\Temp\ccbqjHa5.s 			page 227


 9338 1076 8B100000 		.4byte	0x108b
 9339 107a 0B       		.uleb128 0xb
 9340 107b 01       		.uleb128 0x1
 9341 107c 50       		.byte	0x50
 9342 107d 01       		.uleb128 0x1
 9343 107e 36       		.byte	0x36
 9344 107f 0B       		.uleb128 0xb
 9345 1080 01       		.uleb128 0x1
 9346 1081 51       		.byte	0x51
 9347 1082 01       		.uleb128 0x1
 9348 1083 30       		.byte	0x30
 9349 1084 0B       		.uleb128 0xb
 9350 1085 01       		.uleb128 0x1
 9351 1086 52       		.byte	0x52
 9352 1087 02       		.uleb128 0x2
 9353 1088 74       		.byte	0x74
 9354 1089 00       		.sleb128 0
 9355 108a 00       		.byte	0
 9356 108b 0A       		.uleb128 0xa
 9357 108c 40000000 		.4byte	.LVL217
 9358 1090 560E0000 		.4byte	0xe56
 9359 1094 A9100000 		.4byte	0x10a9
 9360 1098 0B       		.uleb128 0xb
 9361 1099 01       		.uleb128 0x1
 9362 109a 50       		.byte	0x50
 9363 109b 01       		.uleb128 0x1
 9364 109c 38       		.byte	0x38
 9365 109d 0B       		.uleb128 0xb
 9366 109e 01       		.uleb128 0x1
 9367 109f 51       		.byte	0x51
 9368 10a0 01       		.uleb128 0x1
 9369 10a1 3F       		.byte	0x3f
 9370 10a2 0B       		.uleb128 0xb
 9371 10a3 01       		.uleb128 0x1
 9372 10a4 52       		.byte	0x52
 9373 10a5 02       		.uleb128 0x2
 9374 10a6 74       		.byte	0x74
 9375 10a7 00       		.sleb128 0
 9376 10a8 00       		.byte	0
 9377 10a9 0A       		.uleb128 0xa
 9378 10aa 4A000000 		.4byte	.LVL218
 9379 10ae 560E0000 		.4byte	0xe56
 9380 10b2 CB100000 		.4byte	0x10cb
 9381 10b6 0B       		.uleb128 0xb
 9382 10b7 01       		.uleb128 0x1
 9383 10b8 50       		.byte	0x50
 9384 10b9 01       		.uleb128 0x1
 9385 10ba 39       		.byte	0x39
 9386 10bb 0B       		.uleb128 0xb
 9387 10bc 01       		.uleb128 0x1
 9388 10bd 51       		.byte	0x51
 9389 10be 05       		.uleb128 0x5
 9390 10bf 0C       		.byte	0xc
 9391 10c0 06060100 		.4byte	0x10606
 9392 10c4 0B       		.uleb128 0xb
 9393 10c5 01       		.uleb128 0x1
 9394 10c6 52       		.byte	0x52
ARM GAS  C:\Users\Revanth\AppData\Local\Temp\ccbqjHa5.s 			page 228


 9395 10c7 02       		.uleb128 0x2
 9396 10c8 74       		.byte	0x74
 9397 10c9 00       		.sleb128 0
 9398 10ca 00       		.byte	0
 9399 10cb 0A       		.uleb128 0xa
 9400 10cc 54000000 		.4byte	.LVL219
 9401 10d0 560E0000 		.4byte	0xe56
 9402 10d4 ED100000 		.4byte	0x10ed
 9403 10d8 0B       		.uleb128 0xb
 9404 10d9 01       		.uleb128 0x1
 9405 10da 50       		.byte	0x50
 9406 10db 01       		.uleb128 0x1
 9407 10dc 3A       		.byte	0x3a
 9408 10dd 0B       		.uleb128 0xb
 9409 10de 01       		.uleb128 0x1
 9410 10df 51       		.byte	0x51
 9411 10e0 05       		.uleb128 0x5
 9412 10e1 0C       		.byte	0xc
 9413 10e2 00040800 		.4byte	0x80400
 9414 10e6 0B       		.uleb128 0xb
 9415 10e7 01       		.uleb128 0x1
 9416 10e8 52       		.byte	0x52
 9417 10e9 02       		.uleb128 0x2
 9418 10ea 74       		.byte	0x74
 9419 10eb 00       		.sleb128 0
 9420 10ec 00       		.byte	0
 9421 10ed 0A       		.uleb128 0xa
 9422 10ee 62000000 		.4byte	.LVL220
 9423 10f2 560E0000 		.4byte	0xe56
 9424 10f6 0B110000 		.4byte	0x110b
 9425 10fa 0B       		.uleb128 0xb
 9426 10fb 01       		.uleb128 0x1
 9427 10fc 50       		.byte	0x50
 9428 10fd 01       		.uleb128 0x1
 9429 10fe 3B       		.byte	0x3b
 9430 10ff 0B       		.uleb128 0xb
 9431 1100 01       		.uleb128 0x1
 9432 1101 51       		.byte	0x51
 9433 1102 01       		.uleb128 0x1
 9434 1103 30       		.byte	0x30
 9435 1104 0B       		.uleb128 0xb
 9436 1105 01       		.uleb128 0x1
 9437 1106 52       		.byte	0x52
 9438 1107 02       		.uleb128 0x2
 9439 1108 74       		.byte	0x74
 9440 1109 00       		.sleb128 0
 9441 110a 00       		.byte	0
 9442 110b 0A       		.uleb128 0xa
 9443 110c 6C000000 		.4byte	.LVL221
 9444 1110 560E0000 		.4byte	0xe56
 9445 1114 2D110000 		.4byte	0x112d
 9446 1118 0B       		.uleb128 0xb
 9447 1119 01       		.uleb128 0x1
 9448 111a 50       		.byte	0x50
 9449 111b 01       		.uleb128 0x1
 9450 111c 40       		.byte	0x40
 9451 111d 0B       		.uleb128 0xb
ARM GAS  C:\Users\Revanth\AppData\Local\Temp\ccbqjHa5.s 			page 229


 9452 111e 01       		.uleb128 0x1
 9453 111f 51       		.byte	0x51
 9454 1120 05       		.uleb128 0x5
 9455 1121 0C       		.byte	0xc
 9456 1122 01030700 		.4byte	0x70301
 9457 1126 0B       		.uleb128 0xb
 9458 1127 01       		.uleb128 0x1
 9459 1128 52       		.byte	0x52
 9460 1129 02       		.uleb128 0x2
 9461 112a 74       		.byte	0x74
 9462 112b 00       		.sleb128 0
 9463 112c 00       		.byte	0
 9464 112d 0A       		.uleb128 0xa
 9465 112e 7A000000 		.4byte	.LVL222
 9466 1132 560E0000 		.4byte	0xe56
 9467 1136 4C110000 		.4byte	0x114c
 9468 113a 0B       		.uleb128 0xb
 9469 113b 01       		.uleb128 0x1
 9470 113c 50       		.byte	0x50
 9471 113d 01       		.uleb128 0x1
 9472 113e 3B       		.byte	0x3b
 9473 113f 0B       		.uleb128 0xb
 9474 1140 01       		.uleb128 0x1
 9475 1141 51       		.byte	0x51
 9476 1142 02       		.uleb128 0x2
 9477 1143 08       		.byte	0x8
 9478 1144 5A       		.byte	0x5a
 9479 1145 0B       		.uleb128 0xb
 9480 1146 01       		.uleb128 0x1
 9481 1147 52       		.byte	0x52
 9482 1148 02       		.uleb128 0x2
 9483 1149 74       		.byte	0x74
 9484 114a 00       		.sleb128 0
 9485 114b 00       		.byte	0
 9486 114c 0A       		.uleb128 0xa
 9487 114d 84000000 		.4byte	.LVL223
 9488 1151 560E0000 		.4byte	0xe56
 9489 1155 6E110000 		.4byte	0x116e
 9490 1159 0B       		.uleb128 0xb
 9491 115a 01       		.uleb128 0x1
 9492 115b 50       		.byte	0x50
 9493 115c 01       		.uleb128 0x1
 9494 115d 40       		.byte	0x40
 9495 115e 0B       		.uleb128 0xb
 9496 115f 01       		.uleb128 0x1
 9497 1160 51       		.byte	0x51
 9498 1161 05       		.uleb128 0x5
 9499 1162 0C       		.byte	0xc
 9500 1163 01010700 		.4byte	0x70101
 9501 1167 0B       		.uleb128 0xb
 9502 1168 01       		.uleb128 0x1
 9503 1169 52       		.byte	0x52
 9504 116a 02       		.uleb128 0x2
 9505 116b 74       		.byte	0x74
 9506 116c 00       		.sleb128 0
 9507 116d 00       		.byte	0
 9508 116e 0A       		.uleb128 0xa
ARM GAS  C:\Users\Revanth\AppData\Local\Temp\ccbqjHa5.s 			page 230


 9509 116f 94000000 		.4byte	.LVL224
 9510 1173 560E0000 		.4byte	0xe56
 9511 1177 8D110000 		.4byte	0x118d
 9512 117b 0B       		.uleb128 0xb
 9513 117c 01       		.uleb128 0x1
 9514 117d 50       		.byte	0x50
 9515 117e 01       		.uleb128 0x1
 9516 117f 3B       		.byte	0x3b
 9517 1180 0B       		.uleb128 0xb
 9518 1181 01       		.uleb128 0x1
 9519 1182 51       		.byte	0x51
 9520 1183 02       		.uleb128 0x2
 9521 1184 08       		.byte	0x8
 9522 1185 7F       		.byte	0x7f
 9523 1186 0B       		.uleb128 0xb
 9524 1187 01       		.uleb128 0x1
 9525 1188 52       		.byte	0x52
 9526 1189 02       		.uleb128 0x2
 9527 118a 74       		.byte	0x74
 9528 118b 00       		.sleb128 0
 9529 118c 00       		.byte	0
 9530 118d 0A       		.uleb128 0xa
 9531 118e 9E000000 		.4byte	.LVL225
 9532 1192 560E0000 		.4byte	0xe56
 9533 1196 AF110000 		.4byte	0x11af
 9534 119a 0B       		.uleb128 0xb
 9535 119b 01       		.uleb128 0x1
 9536 119c 50       		.byte	0x50
 9537 119d 01       		.uleb128 0x1
 9538 119e 40       		.byte	0x40
 9539 119f 0B       		.uleb128 0xb
 9540 11a0 01       		.uleb128 0x1
 9541 11a1 51       		.byte	0x51
 9542 11a2 05       		.uleb128 0x5
 9543 11a3 0C       		.byte	0xc
 9544 11a4 01010700 		.4byte	0x70101
 9545 11a8 0B       		.uleb128 0xb
 9546 11a9 01       		.uleb128 0x1
 9547 11aa 52       		.byte	0x52
 9548 11ab 02       		.uleb128 0x2
 9549 11ac 74       		.byte	0x74
 9550 11ad 00       		.sleb128 0
 9551 11ae 00       		.byte	0
 9552 11af 0A       		.uleb128 0xa
 9553 11b0 AE000000 		.4byte	.LVL226
 9554 11b4 560E0000 		.4byte	0xe56
 9555 11b8 CE110000 		.4byte	0x11ce
 9556 11bc 0B       		.uleb128 0xb
 9557 11bd 01       		.uleb128 0x1
 9558 11be 50       		.byte	0x50
 9559 11bf 01       		.uleb128 0x1
 9560 11c0 3B       		.byte	0x3b
 9561 11c1 0B       		.uleb128 0xb
 9562 11c2 01       		.uleb128 0x1
 9563 11c3 51       		.byte	0x51
 9564 11c4 02       		.uleb128 0x2
 9565 11c5 08       		.byte	0x8
ARM GAS  C:\Users\Revanth\AppData\Local\Temp\ccbqjHa5.s 			page 231


 9566 11c6 D2       		.byte	0xd2
 9567 11c7 0B       		.uleb128 0xb
 9568 11c8 01       		.uleb128 0x1
 9569 11c9 52       		.byte	0x52
 9570 11ca 02       		.uleb128 0x2
 9571 11cb 74       		.byte	0x74
 9572 11cc 00       		.sleb128 0
 9573 11cd 00       		.byte	0
 9574 11ce 0A       		.uleb128 0xa
 9575 11cf B8000000 		.4byte	.LVL227
 9576 11d3 560E0000 		.4byte	0xe56
 9577 11d7 F0110000 		.4byte	0x11f0
 9578 11db 0B       		.uleb128 0xb
 9579 11dc 01       		.uleb128 0x1
 9580 11dd 50       		.byte	0x50
 9581 11de 01       		.uleb128 0x1
 9582 11df 40       		.byte	0x40
 9583 11e0 0B       		.uleb128 0xb
 9584 11e1 01       		.uleb128 0x1
 9585 11e2 51       		.byte	0x51
 9586 11e3 05       		.uleb128 0x5
 9587 11e4 0C       		.byte	0xc
 9588 11e5 00010700 		.4byte	0x70100
 9589 11e9 0B       		.uleb128 0xb
 9590 11ea 01       		.uleb128 0x1
 9591 11eb 52       		.byte	0x52
 9592 11ec 02       		.uleb128 0x2
 9593 11ed 74       		.byte	0x74
 9594 11ee 00       		.sleb128 0
 9595 11ef 00       		.byte	0
 9596 11f0 0A       		.uleb128 0xa
 9597 11f1 C4000000 		.4byte	.LVL228
 9598 11f5 560E0000 		.4byte	0xe56
 9599 11f9 0E120000 		.4byte	0x120e
 9600 11fd 0B       		.uleb128 0xb
 9601 11fe 01       		.uleb128 0x1
 9602 11ff 50       		.byte	0x50
 9603 1200 01       		.uleb128 0x1
 9604 1201 3B       		.byte	0x3b
 9605 1202 0B       		.uleb128 0xb
 9606 1203 01       		.uleb128 0x1
 9607 1204 51       		.byte	0x51
 9608 1205 01       		.uleb128 0x1
 9609 1206 30       		.byte	0x30
 9610 1207 0B       		.uleb128 0xb
 9611 1208 01       		.uleb128 0x1
 9612 1209 52       		.byte	0x52
 9613 120a 02       		.uleb128 0x2
 9614 120b 74       		.byte	0x74
 9615 120c 00       		.sleb128 0
 9616 120d 00       		.byte	0
 9617 120e 0A       		.uleb128 0xa
 9618 120f CE000000 		.4byte	.LVL229
 9619 1213 560E0000 		.4byte	0xe56
 9620 1217 30120000 		.4byte	0x1230
 9621 121b 0B       		.uleb128 0xb
 9622 121c 01       		.uleb128 0x1
ARM GAS  C:\Users\Revanth\AppData\Local\Temp\ccbqjHa5.s 			page 232


 9623 121d 50       		.byte	0x50
 9624 121e 01       		.uleb128 0x1
 9625 121f 40       		.byte	0x40
 9626 1220 0B       		.uleb128 0xb
 9627 1221 01       		.uleb128 0x1
 9628 1222 51       		.byte	0x51
 9629 1223 05       		.uleb128 0x5
 9630 1224 0C       		.byte	0xc
 9631 1225 01050700 		.4byte	0x70501
 9632 1229 0B       		.uleb128 0xb
 9633 122a 01       		.uleb128 0x1
 9634 122b 52       		.byte	0x52
 9635 122c 02       		.uleb128 0x2
 9636 122d 74       		.byte	0x74
 9637 122e 00       		.sleb128 0
 9638 122f 00       		.byte	0
 9639 1230 0A       		.uleb128 0xa
 9640 1231 D8000000 		.4byte	.LVL230
 9641 1235 560E0000 		.4byte	0xe56
 9642 1239 4E120000 		.4byte	0x124e
 9643 123d 0B       		.uleb128 0xb
 9644 123e 01       		.uleb128 0x1
 9645 123f 50       		.byte	0x50
 9646 1240 01       		.uleb128 0x1
 9647 1241 41       		.byte	0x41
 9648 1242 0B       		.uleb128 0xb
 9649 1243 01       		.uleb128 0x1
 9650 1244 51       		.byte	0x51
 9651 1245 01       		.uleb128 0x1
 9652 1246 3A       		.byte	0x3a
 9653 1247 0B       		.uleb128 0xb
 9654 1248 01       		.uleb128 0x1
 9655 1249 52       		.byte	0x52
 9656 124a 02       		.uleb128 0x2
 9657 124b 74       		.byte	0x74
 9658 124c 00       		.sleb128 0
 9659 124d 00       		.byte	0
 9660 124e 0A       		.uleb128 0xa
 9661 124f E2000000 		.4byte	.LVL231
 9662 1253 560E0000 		.4byte	0xe56
 9663 1257 6C120000 		.4byte	0x126c
 9664 125b 0B       		.uleb128 0xb
 9665 125c 01       		.uleb128 0x1
 9666 125d 50       		.byte	0x50
 9667 125e 01       		.uleb128 0x1
 9668 125f 43       		.byte	0x43
 9669 1260 0B       		.uleb128 0xb
 9670 1261 01       		.uleb128 0x1
 9671 1262 51       		.byte	0x51
 9672 1263 01       		.uleb128 0x1
 9673 1264 30       		.byte	0x30
 9674 1265 0B       		.uleb128 0xb
 9675 1266 01       		.uleb128 0x1
 9676 1267 52       		.byte	0x52
 9677 1268 02       		.uleb128 0x2
 9678 1269 74       		.byte	0x74
 9679 126a 00       		.sleb128 0
ARM GAS  C:\Users\Revanth\AppData\Local\Temp\ccbqjHa5.s 			page 233


 9680 126b 00       		.byte	0
 9681 126c 0A       		.uleb128 0xa
 9682 126d EC000000 		.4byte	.LVL232
 9683 1271 560E0000 		.4byte	0xe56
 9684 1275 8A120000 		.4byte	0x128a
 9685 1279 0B       		.uleb128 0xb
 9686 127a 01       		.uleb128 0x1
 9687 127b 50       		.byte	0x50
 9688 127c 01       		.uleb128 0x1
 9689 127d 44       		.byte	0x44
 9690 127e 0B       		.uleb128 0xb
 9691 127f 01       		.uleb128 0x1
 9692 1280 51       		.byte	0x51
 9693 1281 01       		.uleb128 0x1
 9694 1282 30       		.byte	0x30
 9695 1283 0B       		.uleb128 0xb
 9696 1284 01       		.uleb128 0x1
 9697 1285 52       		.byte	0x52
 9698 1286 02       		.uleb128 0x2
 9699 1287 74       		.byte	0x74
 9700 1288 00       		.sleb128 0
 9701 1289 00       		.byte	0
 9702 128a 0A       		.uleb128 0xa
 9703 128b F6000000 		.4byte	.LVL233
 9704 128f 560E0000 		.4byte	0xe56
 9705 1293 A8120000 		.4byte	0x12a8
 9706 1297 0B       		.uleb128 0xb
 9707 1298 01       		.uleb128 0x1
 9708 1299 50       		.byte	0x50
 9709 129a 01       		.uleb128 0x1
 9710 129b 45       		.byte	0x45
 9711 129c 0B       		.uleb128 0xb
 9712 129d 01       		.uleb128 0x1
 9713 129e 51       		.byte	0x51
 9714 129f 01       		.uleb128 0x1
 9715 12a0 30       		.byte	0x30
 9716 12a1 0B       		.uleb128 0xb
 9717 12a2 01       		.uleb128 0x1
 9718 12a3 52       		.byte	0x52
 9719 12a4 02       		.uleb128 0x2
 9720 12a5 74       		.byte	0x74
 9721 12a6 00       		.sleb128 0
 9722 12a7 00       		.byte	0
 9723 12a8 0A       		.uleb128 0xa
 9724 12a9 00010000 		.4byte	.LVL234
 9725 12ad 560E0000 		.4byte	0xe56
 9726 12b1 C7120000 		.4byte	0x12c7
 9727 12b5 0B       		.uleb128 0xb
 9728 12b6 01       		.uleb128 0x1
 9729 12b7 50       		.byte	0x50
 9730 12b8 02       		.uleb128 0x2
 9731 12b9 08       		.byte	0x8
 9732 12ba 21       		.byte	0x21
 9733 12bb 0B       		.uleb128 0xb
 9734 12bc 01       		.uleb128 0x1
 9735 12bd 51       		.byte	0x51
 9736 12be 01       		.uleb128 0x1
ARM GAS  C:\Users\Revanth\AppData\Local\Temp\ccbqjHa5.s 			page 234


 9737 12bf 30       		.byte	0x30
 9738 12c0 0B       		.uleb128 0xb
 9739 12c1 01       		.uleb128 0x1
 9740 12c2 52       		.byte	0x52
 9741 12c3 02       		.uleb128 0x2
 9742 12c4 74       		.byte	0x74
 9743 12c5 00       		.sleb128 0
 9744 12c6 00       		.byte	0
 9745 12c7 0A       		.uleb128 0xa
 9746 12c8 0A010000 		.4byte	.LVL235
 9747 12cc 560E0000 		.4byte	0xe56
 9748 12d0 E6120000 		.4byte	0x12e6
 9749 12d4 0B       		.uleb128 0xb
 9750 12d5 01       		.uleb128 0x1
 9751 12d6 50       		.byte	0x50
 9752 12d7 02       		.uleb128 0x2
 9753 12d8 08       		.byte	0x8
 9754 12d9 23       		.byte	0x23
 9755 12da 0B       		.uleb128 0xb
 9756 12db 01       		.uleb128 0x1
 9757 12dc 51       		.byte	0x51
 9758 12dd 01       		.uleb128 0x1
 9759 12de 30       		.byte	0x30
 9760 12df 0B       		.uleb128 0xb
 9761 12e0 01       		.uleb128 0x1
 9762 12e1 52       		.byte	0x52
 9763 12e2 02       		.uleb128 0x2
 9764 12e3 74       		.byte	0x74
 9765 12e4 00       		.sleb128 0
 9766 12e5 00       		.byte	0
 9767 12e6 0A       		.uleb128 0xa
 9768 12e7 14010000 		.4byte	.LVL236
 9769 12eb 560E0000 		.4byte	0xe56
 9770 12ef 05130000 		.4byte	0x1305
 9771 12f3 0B       		.uleb128 0xb
 9772 12f4 01       		.uleb128 0x1
 9773 12f5 50       		.byte	0x50
 9774 12f6 02       		.uleb128 0x2
 9775 12f7 08       		.byte	0x8
 9776 12f8 2C       		.byte	0x2c
 9777 12f9 0B       		.uleb128 0xb
 9778 12fa 01       		.uleb128 0x1
 9779 12fb 51       		.byte	0x51
 9780 12fc 01       		.uleb128 0x1
 9781 12fd 30       		.byte	0x30
 9782 12fe 0B       		.uleb128 0xb
 9783 12ff 01       		.uleb128 0x1
 9784 1300 52       		.byte	0x52
 9785 1301 02       		.uleb128 0x2
 9786 1302 74       		.byte	0x74
 9787 1303 00       		.sleb128 0
 9788 1304 00       		.byte	0
 9789 1305 0A       		.uleb128 0xa
 9790 1306 1E010000 		.4byte	.LVL237
 9791 130a 560E0000 		.4byte	0xe56
 9792 130e 24130000 		.4byte	0x1324
 9793 1312 0B       		.uleb128 0xb
ARM GAS  C:\Users\Revanth\AppData\Local\Temp\ccbqjHa5.s 			page 235


 9794 1313 01       		.uleb128 0x1
 9795 1314 50       		.byte	0x50
 9796 1315 02       		.uleb128 0x2
 9797 1316 08       		.byte	0x8
 9798 1317 33       		.byte	0x33
 9799 1318 0B       		.uleb128 0xb
 9800 1319 01       		.uleb128 0x1
 9801 131a 51       		.byte	0x51
 9802 131b 01       		.uleb128 0x1
 9803 131c 30       		.byte	0x30
 9804 131d 0B       		.uleb128 0xb
 9805 131e 01       		.uleb128 0x1
 9806 131f 52       		.byte	0x52
 9807 1320 02       		.uleb128 0x2
 9808 1321 74       		.byte	0x74
 9809 1322 00       		.sleb128 0
 9810 1323 00       		.byte	0
 9811 1324 0A       		.uleb128 0xa
 9812 1325 2A010000 		.4byte	.LVL238
 9813 1329 560E0000 		.4byte	0xe56
 9814 132d 45130000 		.4byte	0x1345
 9815 1331 0B       		.uleb128 0xb
 9816 1332 01       		.uleb128 0x1
 9817 1333 50       		.byte	0x50
 9818 1334 02       		.uleb128 0x2
 9819 1335 08       		.byte	0x8
 9820 1336 34       		.byte	0x34
 9821 1337 0B       		.uleb128 0xb
 9822 1338 01       		.uleb128 0x1
 9823 1339 51       		.byte	0x51
 9824 133a 03       		.uleb128 0x3
 9825 133b 0A       		.byte	0xa
 9826 133c AF02     		.2byte	0x2af
 9827 133e 0B       		.uleb128 0xb
 9828 133f 01       		.uleb128 0x1
 9829 1340 52       		.byte	0x52
 9830 1341 02       		.uleb128 0x2
 9831 1342 74       		.byte	0x74
 9832 1343 00       		.sleb128 0
 9833 1344 00       		.byte	0
 9834 1345 0A       		.uleb128 0xa
 9835 1346 34010000 		.4byte	.LVL239
 9836 134a 560E0000 		.4byte	0xe56
 9837 134e 64130000 		.4byte	0x1364
 9838 1352 0B       		.uleb128 0xb
 9839 1353 01       		.uleb128 0x1
 9840 1354 50       		.byte	0x50
 9841 1355 02       		.uleb128 0x2
 9842 1356 08       		.byte	0x8
 9843 1357 38       		.byte	0x38
 9844 1358 0B       		.uleb128 0xb
 9845 1359 01       		.uleb128 0x1
 9846 135a 51       		.byte	0x51
 9847 135b 01       		.uleb128 0x1
 9848 135c 30       		.byte	0x30
 9849 135d 0B       		.uleb128 0xb
 9850 135e 01       		.uleb128 0x1
ARM GAS  C:\Users\Revanth\AppData\Local\Temp\ccbqjHa5.s 			page 236


 9851 135f 52       		.byte	0x52
 9852 1360 02       		.uleb128 0x2
 9853 1361 74       		.byte	0x74
 9854 1362 00       		.sleb128 0
 9855 1363 00       		.byte	0
 9856 1364 0A       		.uleb128 0xa
 9857 1365 3E010000 		.4byte	.LVL240
 9858 1369 560E0000 		.4byte	0xe56
 9859 136d 83130000 		.4byte	0x1383
 9860 1371 0B       		.uleb128 0xb
 9861 1372 01       		.uleb128 0x1
 9862 1373 50       		.byte	0x50
 9863 1374 02       		.uleb128 0x2
 9864 1375 08       		.byte	0x8
 9865 1376 39       		.byte	0x39
 9866 1377 0B       		.uleb128 0xb
 9867 1378 01       		.uleb128 0x1
 9868 1379 51       		.byte	0x51
 9869 137a 01       		.uleb128 0x1
 9870 137b 30       		.byte	0x30
 9871 137c 0B       		.uleb128 0xb
 9872 137d 01       		.uleb128 0x1
 9873 137e 52       		.byte	0x52
 9874 137f 02       		.uleb128 0x2
 9875 1380 74       		.byte	0x74
 9876 1381 00       		.sleb128 0
 9877 1382 00       		.byte	0
 9878 1383 0A       		.uleb128 0xa
 9879 1384 4A010000 		.4byte	.LVL241
 9880 1388 560E0000 		.4byte	0xe56
 9881 138c A4130000 		.4byte	0x13a4
 9882 1390 0B       		.uleb128 0xb
 9883 1391 01       		.uleb128 0x1
 9884 1392 50       		.byte	0x50
 9885 1393 02       		.uleb128 0x2
 9886 1394 08       		.byte	0x8
 9887 1395 3A       		.byte	0x3a
 9888 1396 0B       		.uleb128 0xb
 9889 1397 01       		.uleb128 0x1
 9890 1398 51       		.byte	0x51
 9891 1399 03       		.uleb128 0x3
 9892 139a 40       		.byte	0x40
 9893 139b 3C       		.byte	0x3c
 9894 139c 24       		.byte	0x24
 9895 139d 0B       		.uleb128 0xb
 9896 139e 01       		.uleb128 0x1
 9897 139f 52       		.byte	0x52
 9898 13a0 02       		.uleb128 0x2
 9899 13a1 74       		.byte	0x74
 9900 13a2 00       		.sleb128 0
 9901 13a3 00       		.byte	0
 9902 13a4 0A       		.uleb128 0xa
 9903 13a5 54010000 		.4byte	.LVL242
 9904 13a9 560E0000 		.4byte	0xe56
 9905 13ad C3130000 		.4byte	0x13c3
 9906 13b1 0B       		.uleb128 0xb
 9907 13b2 01       		.uleb128 0x1
ARM GAS  C:\Users\Revanth\AppData\Local\Temp\ccbqjHa5.s 			page 237


 9908 13b3 50       		.byte	0x50
 9909 13b4 02       		.uleb128 0x2
 9910 13b5 08       		.byte	0x8
 9911 13b6 3D       		.byte	0x3d
 9912 13b7 0B       		.uleb128 0xb
 9913 13b8 01       		.uleb128 0x1
 9914 13b9 51       		.byte	0x51
 9915 13ba 01       		.uleb128 0x1
 9916 13bb 30       		.byte	0x30
 9917 13bc 0B       		.uleb128 0xb
 9918 13bd 01       		.uleb128 0x1
 9919 13be 52       		.byte	0x52
 9920 13bf 02       		.uleb128 0x2
 9921 13c0 74       		.byte	0x74
 9922 13c1 00       		.sleb128 0
 9923 13c2 00       		.byte	0
 9924 13c3 0A       		.uleb128 0xa
 9925 13c4 5E010000 		.4byte	.LVL243
 9926 13c8 560E0000 		.4byte	0xe56
 9927 13cc E7130000 		.4byte	0x13e7
 9928 13d0 0B       		.uleb128 0xb
 9929 13d1 01       		.uleb128 0x1
 9930 13d2 50       		.byte	0x50
 9931 13d3 02       		.uleb128 0x2
 9932 13d4 08       		.byte	0x8
 9933 13d5 60       		.byte	0x60
 9934 13d6 0B       		.uleb128 0xb
 9935 13d7 01       		.uleb128 0x1
 9936 13d8 51       		.byte	0x51
 9937 13d9 06       		.uleb128 0x6
 9938 13da 11       		.byte	0x11
 9939 13db D4EAAAD5 		.sleb128 -1431653036
 9939      7A
 9940 13e0 0B       		.uleb128 0xb
 9941 13e1 01       		.uleb128 0x1
 9942 13e2 52       		.byte	0x52
 9943 13e3 02       		.uleb128 0x2
 9944 13e4 74       		.byte	0x74
 9945 13e5 00       		.sleb128 0
 9946 13e6 00       		.byte	0
 9947 13e7 0A       		.uleb128 0xa
 9948 13e8 68010000 		.4byte	.LVL244
 9949 13ec 560E0000 		.4byte	0xe56
 9950 13f0 0A140000 		.4byte	0x140a
 9951 13f4 0B       		.uleb128 0xb
 9952 13f5 01       		.uleb128 0x1
 9953 13f6 50       		.byte	0x50
 9954 13f7 02       		.uleb128 0x2
 9955 13f8 08       		.byte	0x8
 9956 13f9 61       		.byte	0x61
 9957 13fa 0B       		.uleb128 0xb
 9958 13fb 01       		.uleb128 0x1
 9959 13fc 51       		.byte	0x51
 9960 13fd 05       		.uleb128 0x5
 9961 13fe 0C       		.byte	0xc
 9962 13ff AA54954A 		.4byte	0x4a9554aa
 9963 1403 0B       		.uleb128 0xb
ARM GAS  C:\Users\Revanth\AppData\Local\Temp\ccbqjHa5.s 			page 238


 9964 1404 01       		.uleb128 0x1
 9965 1405 52       		.byte	0x52
 9966 1406 02       		.uleb128 0x2
 9967 1407 74       		.byte	0x74
 9968 1408 00       		.sleb128 0
 9969 1409 00       		.byte	0
 9970 140a 0A       		.uleb128 0xa
 9971 140b 72010000 		.4byte	.LVL245
 9972 140f 560E0000 		.4byte	0xe56
 9973 1413 2D140000 		.4byte	0x142d
 9974 1417 0B       		.uleb128 0xb
 9975 1418 01       		.uleb128 0x1
 9976 1419 50       		.byte	0x50
 9977 141a 02       		.uleb128 0x2
 9978 141b 08       		.byte	0x8
 9979 141c 62       		.byte	0x62
 9980 141d 0B       		.uleb128 0xb
 9981 141e 01       		.uleb128 0x1
 9982 141f 51       		.byte	0x51
 9983 1420 05       		.uleb128 0x5
 9984 1421 0C       		.byte	0xc
 9985 1422 29294924 		.4byte	0x24492929
 9986 1426 0B       		.uleb128 0xb
 9987 1427 01       		.uleb128 0x1
 9988 1428 52       		.byte	0x52
 9989 1429 02       		.uleb128 0x2
 9990 142a 74       		.byte	0x74
 9991 142b 00       		.sleb128 0
 9992 142c 00       		.byte	0
 9993 142d 0A       		.uleb128 0xa
 9994 142e 7C010000 		.4byte	.LVL246
 9995 1432 560E0000 		.4byte	0xe56
 9996 1436 4C140000 		.4byte	0x144c
 9997 143a 0B       		.uleb128 0xb
 9998 143b 01       		.uleb128 0x1
 9999 143c 50       		.byte	0x50
 10000 143d 02       		.uleb128 0x2
 10001 143e 08       		.byte	0x8
 10002 143f 63       		.byte	0x63
 10003 1440 0B       		.uleb128 0xb
 10004 1441 01       		.uleb128 0x1
 10005 1442 51       		.byte	0x51
 10006 1443 01       		.uleb128 0x1
 10007 1444 38       		.byte	0x38
 10008 1445 0B       		.uleb128 0xb
 10009 1446 01       		.uleb128 0x1
 10010 1447 52       		.byte	0x52
 10011 1448 02       		.uleb128 0x2
 10012 1449 74       		.byte	0x74
 10013 144a 00       		.sleb128 0
 10014 144b 00       		.byte	0
 10015 144c 0A       		.uleb128 0xa
 10016 144d 88010000 		.4byte	.LVL247
 10017 1451 560E0000 		.4byte	0xe56
 10018 1455 6F140000 		.4byte	0x146f
 10019 1459 0B       		.uleb128 0xb
 10020 145a 01       		.uleb128 0x1
ARM GAS  C:\Users\Revanth\AppData\Local\Temp\ccbqjHa5.s 			page 239


 10021 145b 50       		.byte	0x50
 10022 145c 02       		.uleb128 0x2
 10023 145d 08       		.byte	0x8
 10024 145e 64       		.byte	0x64
 10025 145f 0B       		.uleb128 0xb
 10026 1460 01       		.uleb128 0x1
 10027 1461 51       		.byte	0x51
 10028 1462 05       		.uleb128 0x5
 10029 1463 11       		.byte	0x11
 10030 1464 FFFFFF5F 		.sleb128 -67108865
 10031 1468 0B       		.uleb128 0xb
 10032 1469 01       		.uleb128 0x1
 10033 146a 52       		.byte	0x52
 10034 146b 02       		.uleb128 0x2
 10035 146c 74       		.byte	0x74
 10036 146d 00       		.sleb128 0
 10037 146e 00       		.byte	0
 10038 146f 0A       		.uleb128 0xa
 10039 1470 92010000 		.4byte	.LVL248
 10040 1474 560E0000 		.4byte	0xe56
 10041 1478 93140000 		.4byte	0x1493
 10042 147c 0B       		.uleb128 0xb
 10043 147d 01       		.uleb128 0x1
 10044 147e 50       		.byte	0x50
 10045 147f 02       		.uleb128 0x2
 10046 1480 08       		.byte	0x8
 10047 1481 65       		.byte	0x65
 10048 1482 0B       		.uleb128 0xb
 10049 1483 01       		.uleb128 0x1
 10050 1484 51       		.byte	0x51
 10051 1485 06       		.uleb128 0x6
 10052 1486 11       		.byte	0x11
 10053 1487 FDEEEDAD 		.sleb128 -1246005379
 10053      7B
 10054 148c 0B       		.uleb128 0xb
 10055 148d 01       		.uleb128 0x1
 10056 148e 52       		.byte	0x52
 10057 148f 02       		.uleb128 0x2
 10058 1490 74       		.byte	0x74
 10059 1491 00       		.sleb128 0
 10060 1492 00       		.byte	0
 10061 1493 0A       		.uleb128 0xa
 10062 1494 9C010000 		.4byte	.LVL249
 10063 1498 560E0000 		.4byte	0xe56
 10064 149c B6140000 		.4byte	0x14b6
 10065 14a0 0B       		.uleb128 0xb
 10066 14a1 01       		.uleb128 0x1
 10067 14a2 50       		.byte	0x50
 10068 14a3 02       		.uleb128 0x2
 10069 14a4 08       		.byte	0x8
 10070 14a5 66       		.byte	0x66
 10071 14a6 0B       		.uleb128 0xb
 10072 14a7 01       		.uleb128 0x1
 10073 14a8 51       		.byte	0x51
 10074 14a9 05       		.uleb128 0x5
 10075 14aa 0C       		.byte	0xc
 10076 14ab 56552949 		.4byte	0x49295556
ARM GAS  C:\Users\Revanth\AppData\Local\Temp\ccbqjHa5.s 			page 240


 10077 14af 0B       		.uleb128 0xb
 10078 14b0 01       		.uleb128 0x1
 10079 14b1 52       		.byte	0x52
 10080 14b2 02       		.uleb128 0x2
 10081 14b3 74       		.byte	0x74
 10082 14b4 00       		.sleb128 0
 10083 14b5 00       		.byte	0
 10084 14b6 0A       		.uleb128 0xa
 10085 14b7 A6010000 		.4byte	.LVL250
 10086 14bb 560E0000 		.4byte	0xe56
 10087 14bf D9140000 		.4byte	0x14d9
 10088 14c3 0B       		.uleb128 0xb
 10089 14c4 01       		.uleb128 0x1
 10090 14c5 50       		.byte	0x50
 10091 14c6 02       		.uleb128 0x2
 10092 14c7 08       		.byte	0x8
 10093 14c8 67       		.byte	0x67
 10094 14c9 0B       		.uleb128 0xb
 10095 14ca 01       		.uleb128 0x1
 10096 14cb 51       		.byte	0x51
 10097 14cc 05       		.uleb128 0x5
 10098 14cd 0C       		.byte	0xc
 10099 14ce 22424000 		.4byte	0x404222
 10100 14d2 0B       		.uleb128 0xb
 10101 14d3 01       		.uleb128 0x1
 10102 14d4 52       		.byte	0x52
 10103 14d5 02       		.uleb128 0x2
 10104 14d6 74       		.byte	0x74
 10105 14d7 00       		.sleb128 0
 10106 14d8 00       		.byte	0
 10107 14d9 0A       		.uleb128 0xa
 10108 14da B0010000 		.4byte	.LVL251
 10109 14de 560E0000 		.4byte	0xe56
 10110 14e2 FA140000 		.4byte	0x14fa
 10111 14e6 0B       		.uleb128 0xb
 10112 14e7 01       		.uleb128 0x1
 10113 14e8 50       		.byte	0x50
 10114 14e9 02       		.uleb128 0x2
 10115 14ea 08       		.byte	0x8
 10116 14eb 68       		.byte	0x68
 10117 14ec 0B       		.uleb128 0xb
 10118 14ed 01       		.uleb128 0x1
 10119 14ee 51       		.byte	0x51
 10120 14ef 03       		.uleb128 0x3
 10121 14f0 0B       		.byte	0xb
 10122 14f1 5680     		.2byte	0x8056
 10123 14f3 0B       		.uleb128 0xb
 10124 14f4 01       		.uleb128 0x1
 10125 14f5 52       		.byte	0x52
 10126 14f6 02       		.uleb128 0x2
 10127 14f7 74       		.byte	0x74
 10128 14f8 00       		.sleb128 0
 10129 14f9 00       		.byte	0
 10130 14fa 0A       		.uleb128 0xa
 10131 14fb BC010000 		.4byte	.LVL252
 10132 14ff 560E0000 		.4byte	0xe56
 10133 1503 1C150000 		.4byte	0x151c
ARM GAS  C:\Users\Revanth\AppData\Local\Temp\ccbqjHa5.s 			page 241


 10134 1507 0B       		.uleb128 0xb
 10135 1508 01       		.uleb128 0x1
 10136 1509 50       		.byte	0x50
 10137 150a 02       		.uleb128 0x2
 10138 150b 08       		.byte	0x8
 10139 150c 69       		.byte	0x69
 10140 150d 0B       		.uleb128 0xb
 10141 150e 01       		.uleb128 0x1
 10142 150f 51       		.byte	0x51
 10143 1510 04       		.uleb128 0x4
 10144 1511 08       		.byte	0x8
 10145 1512 F7       		.byte	0xf7
 10146 1513 40       		.byte	0x40
 10147 1514 24       		.byte	0x24
 10148 1515 0B       		.uleb128 0xb
 10149 1516 01       		.uleb128 0x1
 10150 1517 52       		.byte	0x52
 10151 1518 02       		.uleb128 0x2
 10152 1519 74       		.byte	0x74
 10153 151a 00       		.sleb128 0
 10154 151b 00       		.byte	0
 10155 151c 0A       		.uleb128 0xa
 10156 151d C6010000 		.4byte	.LVL253
 10157 1521 560E0000 		.4byte	0xe56
 10158 1525 3F150000 		.4byte	0x153f
 10159 1529 0B       		.uleb128 0xb
 10160 152a 01       		.uleb128 0x1
 10161 152b 50       		.byte	0x50
 10162 152c 02       		.uleb128 0x2
 10163 152d 08       		.byte	0x8
 10164 152e 6C       		.byte	0x6c
 10165 152f 0B       		.uleb128 0xb
 10166 1530 01       		.uleb128 0x1
 10167 1531 51       		.byte	0x51
 10168 1532 05       		.uleb128 0x5
 10169 1533 0C       		.byte	0xc
 10170 1534 53014100 		.4byte	0x410153
 10171 1538 0B       		.uleb128 0xb
 10172 1539 01       		.uleb128 0x1
 10173 153a 52       		.byte	0x52
 10174 153b 02       		.uleb128 0x2
 10175 153c 74       		.byte	0x74
 10176 153d 00       		.sleb128 0
 10177 153e 00       		.byte	0
 10178 153f 0A       		.uleb128 0xa
 10179 1540 D0010000 		.4byte	.LVL254
 10180 1544 560E0000 		.4byte	0xe56
 10181 1548 5E150000 		.4byte	0x155e
 10182 154c 0B       		.uleb128 0xb
 10183 154d 01       		.uleb128 0x1
 10184 154e 50       		.byte	0x50
 10185 154f 02       		.uleb128 0x2
 10186 1550 08       		.byte	0x8
 10187 1551 6D       		.byte	0x6d
 10188 1552 0B       		.uleb128 0xb
 10189 1553 01       		.uleb128 0x1
 10190 1554 51       		.byte	0x51
ARM GAS  C:\Users\Revanth\AppData\Local\Temp\ccbqjHa5.s 			page 242


 10191 1555 01       		.uleb128 0x1
 10192 1556 30       		.byte	0x30
 10193 1557 0B       		.uleb128 0xb
 10194 1558 01       		.uleb128 0x1
 10195 1559 52       		.byte	0x52
 10196 155a 02       		.uleb128 0x2
 10197 155b 74       		.byte	0x74
 10198 155c 00       		.sleb128 0
 10199 155d 00       		.byte	0
 10200 155e 0A       		.uleb128 0xa
 10201 155f DA010000 		.4byte	.LVL255
 10202 1563 560E0000 		.4byte	0xe56
 10203 1567 7D150000 		.4byte	0x157d
 10204 156b 0B       		.uleb128 0xb
 10205 156c 01       		.uleb128 0x1
 10206 156d 50       		.byte	0x50
 10207 156e 02       		.uleb128 0x2
 10208 156f 08       		.byte	0x8
 10209 1570 6E       		.byte	0x6e
 10210 1571 0B       		.uleb128 0xb
 10211 1572 01       		.uleb128 0x1
 10212 1573 51       		.byte	0x51
 10213 1574 01       		.uleb128 0x1
 10214 1575 30       		.byte	0x30
 10215 1576 0B       		.uleb128 0xb
 10216 1577 01       		.uleb128 0x1
 10217 1578 52       		.byte	0x52
 10218 1579 02       		.uleb128 0x2
 10219 157a 74       		.byte	0x74
 10220 157b 00       		.sleb128 0
 10221 157c 00       		.byte	0
 10222 157d 0A       		.uleb128 0xa
 10223 157e E4010000 		.4byte	.LVL256
 10224 1582 560E0000 		.4byte	0xe56
 10225 1586 A1150000 		.4byte	0x15a1
 10226 158a 0B       		.uleb128 0xb
 10227 158b 01       		.uleb128 0x1
 10228 158c 50       		.byte	0x50
 10229 158d 02       		.uleb128 0x2
 10230 158e 08       		.byte	0x8
 10231 158f 70       		.byte	0x70
 10232 1590 0B       		.uleb128 0xb
 10233 1591 01       		.uleb128 0x1
 10234 1592 51       		.byte	0x51
 10235 1593 06       		.uleb128 0x6
 10236 1594 11       		.byte	0x11
 10237 1595 9E80B0A0 		.sleb128 -1005846498
 10237      7C
 10238 159a 0B       		.uleb128 0xb
 10239 159b 01       		.uleb128 0x1
 10240 159c 52       		.byte	0x52
 10241 159d 02       		.uleb128 0x2
 10242 159e 74       		.byte	0x74
 10243 159f 00       		.sleb128 0
 10244 15a0 00       		.byte	0
 10245 15a1 0A       		.uleb128 0xa
 10246 15a2 EE010000 		.4byte	.LVL257
ARM GAS  C:\Users\Revanth\AppData\Local\Temp\ccbqjHa5.s 			page 243


 10247 15a6 560E0000 		.4byte	0xe56
 10248 15aa C0150000 		.4byte	0x15c0
 10249 15ae 0B       		.uleb128 0xb
 10250 15af 01       		.uleb128 0x1
 10251 15b0 50       		.byte	0x50
 10252 15b1 02       		.uleb128 0x2
 10253 15b2 08       		.byte	0x8
 10254 15b3 21       		.byte	0x21
 10255 15b4 0B       		.uleb128 0xb
 10256 15b5 01       		.uleb128 0x1
 10257 15b6 51       		.byte	0x51
 10258 15b7 01       		.uleb128 0x1
 10259 15b8 30       		.byte	0x30
 10260 15b9 0B       		.uleb128 0xb
 10261 15ba 01       		.uleb128 0x1
 10262 15bb 52       		.byte	0x52
 10263 15bc 02       		.uleb128 0x2
 10264 15bd 74       		.byte	0x74
 10265 15be 00       		.sleb128 0
 10266 15bf 00       		.byte	0
 10267 15c0 0A       		.uleb128 0xa
 10268 15c1 FA010000 		.4byte	.LVL258
 10269 15c5 560E0000 		.4byte	0xe56
 10270 15c9 E1150000 		.4byte	0x15e1
 10271 15cd 0B       		.uleb128 0xb
 10272 15ce 01       		.uleb128 0x1
 10273 15cf 50       		.byte	0x50
 10274 15d0 02       		.uleb128 0x2
 10275 15d1 08       		.byte	0x8
 10276 15d2 24       		.byte	0x24
 10277 15d3 0B       		.uleb128 0xb
 10278 15d4 01       		.uleb128 0x1
 10279 15d5 51       		.byte	0x51
 10280 15d6 03       		.uleb128 0x3
 10281 15d7 0A       		.byte	0xa
 10282 15d8 FFFF     		.2byte	0xffff
 10283 15da 0B       		.uleb128 0xb
 10284 15db 01       		.uleb128 0x1
 10285 15dc 52       		.byte	0x52
 10286 15dd 02       		.uleb128 0x2
 10287 15de 74       		.byte	0x74
 10288 15df 00       		.sleb128 0
 10289 15e0 00       		.byte	0
 10290 15e1 0A       		.uleb128 0xa
 10291 15e2 06020000 		.4byte	.LVL259
 10292 15e6 560E0000 		.4byte	0xe56
 10293 15ea 02160000 		.4byte	0x1602
 10294 15ee 0B       		.uleb128 0xb
 10295 15ef 01       		.uleb128 0x1
 10296 15f0 50       		.byte	0x50
 10297 15f1 02       		.uleb128 0x2
 10298 15f2 08       		.byte	0x8
 10299 15f3 25       		.byte	0x25
 10300 15f4 0B       		.uleb128 0xb
 10301 15f5 01       		.uleb128 0x1
 10302 15f6 51       		.byte	0x51
 10303 15f7 03       		.uleb128 0x3
ARM GAS  C:\Users\Revanth\AppData\Local\Temp\ccbqjHa5.s 			page 244


 10304 15f8 0A       		.byte	0xa
 10305 15f9 FFFF     		.2byte	0xffff
 10306 15fb 0B       		.uleb128 0xb
 10307 15fc 01       		.uleb128 0x1
 10308 15fd 52       		.byte	0x52
 10309 15fe 02       		.uleb128 0x2
 10310 15ff 74       		.byte	0x74
 10311 1600 00       		.sleb128 0
 10312 1601 00       		.byte	0
 10313 1602 0A       		.uleb128 0xa
 10314 1603 12020000 		.4byte	.LVL260
 10315 1607 560E0000 		.4byte	0xe56
 10316 160b 23160000 		.4byte	0x1623
 10317 160f 0B       		.uleb128 0xb
 10318 1610 01       		.uleb128 0x1
 10319 1611 50       		.byte	0x50
 10320 1612 02       		.uleb128 0x2
 10321 1613 08       		.byte	0x8
 10322 1614 26       		.byte	0x26
 10323 1615 0B       		.uleb128 0xb
 10324 1616 01       		.uleb128 0x1
 10325 1617 51       		.byte	0x51
 10326 1618 03       		.uleb128 0x3
 10327 1619 0A       		.byte	0xa
 10328 161a FFFF     		.2byte	0xffff
 10329 161c 0B       		.uleb128 0xb
 10330 161d 01       		.uleb128 0x1
 10331 161e 52       		.byte	0x52
 10332 161f 02       		.uleb128 0x2
 10333 1620 74       		.byte	0x74
 10334 1621 00       		.sleb128 0
 10335 1622 00       		.byte	0
 10336 1623 0A       		.uleb128 0xa
 10337 1624 1C020000 		.4byte	.LVL261
 10338 1628 560E0000 		.4byte	0xe56
 10339 162c 42160000 		.4byte	0x1642
 10340 1630 0B       		.uleb128 0xb
 10341 1631 01       		.uleb128 0x1
 10342 1632 50       		.byte	0x50
 10343 1633 02       		.uleb128 0x2
 10344 1634 08       		.byte	0x8
 10345 1635 27       		.byte	0x27
 10346 1636 0B       		.uleb128 0xb
 10347 1637 01       		.uleb128 0x1
 10348 1638 51       		.byte	0x51
 10349 1639 01       		.uleb128 0x1
 10350 163a 30       		.byte	0x30
 10351 163b 0B       		.uleb128 0xb
 10352 163c 01       		.uleb128 0x1
 10353 163d 52       		.byte	0x52
 10354 163e 02       		.uleb128 0x2
 10355 163f 74       		.byte	0x74
 10356 1640 00       		.sleb128 0
 10357 1641 00       		.byte	0
 10358 1642 0A       		.uleb128 0xa
 10359 1643 28020000 		.4byte	.LVL262
 10360 1647 560E0000 		.4byte	0xe56
ARM GAS  C:\Users\Revanth\AppData\Local\Temp\ccbqjHa5.s 			page 245


 10361 164b 63160000 		.4byte	0x1663
 10362 164f 0B       		.uleb128 0xb
 10363 1650 01       		.uleb128 0x1
 10364 1651 50       		.byte	0x50
 10365 1652 02       		.uleb128 0x2
 10366 1653 08       		.byte	0x8
 10367 1654 28       		.byte	0x28
 10368 1655 0B       		.uleb128 0xb
 10369 1656 01       		.uleb128 0x1
 10370 1657 51       		.byte	0x51
 10371 1658 03       		.uleb128 0x3
 10372 1659 0A       		.byte	0xa
 10373 165a FFFF     		.2byte	0xffff
 10374 165c 0B       		.uleb128 0xb
 10375 165d 01       		.uleb128 0x1
 10376 165e 52       		.byte	0x52
 10377 165f 02       		.uleb128 0x2
 10378 1660 74       		.byte	0x74
 10379 1661 00       		.sleb128 0
 10380 1662 00       		.byte	0
 10381 1663 0A       		.uleb128 0xa
 10382 1664 34020000 		.4byte	.LVL263
 10383 1668 560E0000 		.4byte	0xe56
 10384 166c 84160000 		.4byte	0x1684
 10385 1670 0B       		.uleb128 0xb
 10386 1671 01       		.uleb128 0x1
 10387 1672 50       		.byte	0x50
 10388 1673 02       		.uleb128 0x2
 10389 1674 08       		.byte	0x8
 10390 1675 2A       		.byte	0x2a
 10391 1676 0B       		.uleb128 0xb
 10392 1677 01       		.uleb128 0x1
 10393 1678 51       		.byte	0x51
 10394 1679 03       		.uleb128 0x3
 10395 167a 0A       		.byte	0xa
 10396 167b FFFF     		.2byte	0xffff
 10397 167d 0B       		.uleb128 0xb
 10398 167e 01       		.uleb128 0x1
 10399 167f 52       		.byte	0x52
 10400 1680 02       		.uleb128 0x2
 10401 1681 74       		.byte	0x74
 10402 1682 00       		.sleb128 0
 10403 1683 00       		.byte	0
 10404 1684 0A       		.uleb128 0xa
 10405 1685 3E020000 		.4byte	.LVL264
 10406 1689 560E0000 		.4byte	0xe56
 10407 168d A4160000 		.4byte	0x16a4
 10408 1691 0B       		.uleb128 0xb
 10409 1692 01       		.uleb128 0x1
 10410 1693 50       		.byte	0x50
 10411 1694 02       		.uleb128 0x2
 10412 1695 08       		.byte	0x8
 10413 1696 2B       		.byte	0x2b
 10414 1697 0B       		.uleb128 0xb
 10415 1698 01       		.uleb128 0x1
 10416 1699 51       		.byte	0x51
 10417 169a 02       		.uleb128 0x2
ARM GAS  C:\Users\Revanth\AppData\Local\Temp\ccbqjHa5.s 			page 246


 10418 169b 08       		.byte	0x8
 10419 169c 65       		.byte	0x65
 10420 169d 0B       		.uleb128 0xb
 10421 169e 01       		.uleb128 0x1
 10422 169f 52       		.byte	0x52
 10423 16a0 02       		.uleb128 0x2
 10424 16a1 74       		.byte	0x74
 10425 16a2 00       		.sleb128 0
 10426 16a3 00       		.byte	0
 10427 16a4 0C       		.uleb128 0xc
 10428 16a5 48020000 		.4byte	.LVL265
 10429 16a9 560E0000 		.4byte	0xe56
 10430 16ad 0B       		.uleb128 0xb
 10431 16ae 01       		.uleb128 0x1
 10432 16af 50       		.byte	0x50
 10433 16b0 02       		.uleb128 0x2
 10434 16b1 08       		.byte	0x8
 10435 16b2 20       		.byte	0x20
 10436 16b3 0B       		.uleb128 0xb
 10437 16b4 01       		.uleb128 0x1
 10438 16b5 51       		.byte	0x51
 10439 16b6 01       		.uleb128 0x1
 10440 16b7 30       		.byte	0x30
 10441 16b8 0B       		.uleb128 0xb
 10442 16b9 01       		.uleb128 0x1
 10443 16ba 52       		.byte	0x52
 10444 16bb 02       		.uleb128 0x2
 10445 16bc 74       		.byte	0x74
 10446 16bd 00       		.sleb128 0
 10447 16be 00       		.byte	0
 10448 16bf 00       		.byte	0
 10449 16c0 19       		.uleb128 0x19
 10450 16c1 96070000 		.4byte	.LASF66
 10451 16c5 01       		.byte	0x1
 10452 16c6 D108     		.2byte	0x8d1
 10453 16c8 73090000 		.4byte	0x973
 10454 16cc 00000000 		.4byte	.LFB106
 10455 16d0 3C000000 		.4byte	.LFE106-.LFB106
 10456 16d4 01       		.uleb128 0x1
 10457 16d5 9C       		.byte	0x9c
 10458 16d6 5C170000 		.4byte	0x175c
 10459 16da 0E       		.uleb128 0xe
 10460 16db 0F060000 		.4byte	.LASF56
 10461 16df 01       		.byte	0x1
 10462 16e0 D108     		.2byte	0x8d1
 10463 16e2 97000000 		.4byte	0x97
 10464 16e6 0B040000 		.4byte	.LLST21
 10465 16ea 11       		.uleb128 0x11
 10466 16eb 060B0000 		.4byte	.LASF67
 10467 16ef 01       		.byte	0x1
 10468 16f0 D308     		.2byte	0x8d3
 10469 16f2 73090000 		.4byte	0x973
 10470 16f6 01       		.uleb128 0x1
 10471 16f7 50       		.byte	0x50
 10472 16f8 0A       		.uleb128 0xa
 10473 16f9 0C000000 		.4byte	.LVL268
 10474 16fd 4E470000 		.4byte	0x474e
ARM GAS  C:\Users\Revanth\AppData\Local\Temp\ccbqjHa5.s 			page 247


 10475 1701 0D170000 		.4byte	0x170d
 10476 1705 0B       		.uleb128 0xb
 10477 1706 01       		.uleb128 0x1
 10478 1707 50       		.byte	0x50
 10479 1708 03       		.uleb128 0x3
 10480 1709 0A       		.byte	0xa
 10481 170a F401     		.2byte	0x1f4
 10482 170c 00       		.byte	0
 10483 170d 0A       		.uleb128 0xa
 10484 170e 18000000 		.4byte	.LVL269
 10485 1712 C00B0000 		.4byte	0xbc0
 10486 1716 2C170000 		.4byte	0x172c
 10487 171a 0B       		.uleb128 0xb
 10488 171b 01       		.uleb128 0x1
 10489 171c 50       		.byte	0x50
 10490 171d 01       		.uleb128 0x1
 10491 171e 34       		.byte	0x34
 10492 171f 0B       		.uleb128 0xb
 10493 1720 01       		.uleb128 0x1
 10494 1721 51       		.byte	0x51
 10495 1722 02       		.uleb128 0x2
 10496 1723 75       		.byte	0x75
 10497 1724 00       		.sleb128 0
 10498 1725 0B       		.uleb128 0xb
 10499 1726 01       		.uleb128 0x1
 10500 1727 52       		.byte	0x52
 10501 1728 02       		.uleb128 0x2
 10502 1729 74       		.byte	0x74
 10503 172a 00       		.sleb128 0
 10504 172b 00       		.byte	0
 10505 172c 0A       		.uleb128 0xa
 10506 172d 1E000000 		.4byte	.LVL270
 10507 1731 4E470000 		.4byte	0x474e
 10508 1735 40170000 		.4byte	0x1740
 10509 1739 0B       		.uleb128 0xb
 10510 173a 01       		.uleb128 0x1
 10511 173b 50       		.byte	0x50
 10512 173c 02       		.uleb128 0x2
 10513 173d 08       		.byte	0x8
 10514 173e 64       		.byte	0x64
 10515 173f 00       		.byte	0
 10516 1740 0C       		.uleb128 0xc
 10517 1741 28000000 		.4byte	.LVL271
 10518 1745 C00B0000 		.4byte	0xbc0
 10519 1749 0B       		.uleb128 0xb
 10520 174a 01       		.uleb128 0x1
 10521 174b 50       		.byte	0x50
 10522 174c 01       		.uleb128 0x1
 10523 174d 34       		.byte	0x34
 10524 174e 0B       		.uleb128 0xb
 10525 174f 01       		.uleb128 0x1
 10526 1750 51       		.byte	0x51
 10527 1751 02       		.uleb128 0x2
 10528 1752 75       		.byte	0x75
 10529 1753 00       		.sleb128 0
 10530 1754 0B       		.uleb128 0xb
 10531 1755 01       		.uleb128 0x1
ARM GAS  C:\Users\Revanth\AppData\Local\Temp\ccbqjHa5.s 			page 248


 10532 1756 52       		.byte	0x52
 10533 1757 02       		.uleb128 0x2
 10534 1758 74       		.byte	0x74
 10535 1759 00       		.sleb128 0
 10536 175a 00       		.byte	0
 10537 175b 00       		.byte	0
 10538 175c 19       		.uleb128 0x19
 10539 175d 37070000 		.4byte	.LASF68
 10540 1761 01       		.byte	0x1
 10541 1762 E508     		.2byte	0x8e5
 10542 1764 89000000 		.4byte	0x89
 10543 1768 00000000 		.4byte	.LFB107
 10544 176c 54000000 		.4byte	.LFE107-.LFB107
 10545 1770 01       		.uleb128 0x1
 10546 1771 9C       		.byte	0x9c
 10547 1772 3A180000 		.4byte	0x183a
 10548 1776 0E       		.uleb128 0xe
 10549 1777 0F060000 		.4byte	.LASF56
 10550 177b 01       		.byte	0x1
 10551 177c E508     		.2byte	0x8e5
 10552 177e 97000000 		.4byte	0x97
 10553 1782 2C040000 		.4byte	.LLST22
 10554 1786 11       		.uleb128 0x11
 10555 1787 49000000 		.4byte	.LASF69
 10556 178b 01       		.byte	0x1
 10557 178c E708     		.2byte	0x8e7
 10558 178e 97000000 		.4byte	0x97
 10559 1792 02       		.uleb128 0x2
 10560 1793 91       		.byte	0x91
 10561 1794 6F       		.sleb128 -17
 10562 1795 1E       		.uleb128 0x1e
 10563 1796 060B0000 		.4byte	.LASF67
 10564 179a 01       		.byte	0x1
 10565 179b E808     		.2byte	0x8e8
 10566 179d 89000000 		.4byte	0x89
 10567 17a1 00       		.byte	0
 10568 17a2 0A       		.uleb128 0xa
 10569 17a3 16000000 		.4byte	.LVL276
 10570 17a7 4E470000 		.4byte	0x474e
 10571 17ab B7170000 		.4byte	0x17b7
 10572 17af 0B       		.uleb128 0xb
 10573 17b0 01       		.uleb128 0x1
 10574 17b1 50       		.byte	0x50
 10575 17b2 03       		.uleb128 0x3
 10576 17b3 0A       		.byte	0xa
 10577 17b4 F401     		.2byte	0x1f4
 10578 17b6 00       		.byte	0
 10579 17b7 0A       		.uleb128 0xa
 10580 17b8 20000000 		.4byte	.LVL277
 10581 17bc C00B0000 		.4byte	0xbc0
 10582 17c0 D6170000 		.4byte	0x17d6
 10583 17c4 0B       		.uleb128 0xb
 10584 17c5 01       		.uleb128 0x1
 10585 17c6 50       		.byte	0x50
 10586 17c7 01       		.uleb128 0x1
 10587 17c8 34       		.byte	0x34
 10588 17c9 0B       		.uleb128 0xb
ARM GAS  C:\Users\Revanth\AppData\Local\Temp\ccbqjHa5.s 			page 249


 10589 17ca 01       		.uleb128 0x1
 10590 17cb 51       		.byte	0x51
 10591 17cc 02       		.uleb128 0x2
 10592 17cd 74       		.byte	0x74
 10593 17ce 00       		.sleb128 0
 10594 17cf 0B       		.uleb128 0xb
 10595 17d0 01       		.uleb128 0x1
 10596 17d1 52       		.byte	0x52
 10597 17d2 02       		.uleb128 0x2
 10598 17d3 75       		.byte	0x75
 10599 17d4 00       		.sleb128 0
 10600 17d5 00       		.byte	0
 10601 17d6 0A       		.uleb128 0xa
 10602 17d7 26000000 		.4byte	.LVL278
 10603 17db 4E470000 		.4byte	0x474e
 10604 17df EA170000 		.4byte	0x17ea
 10605 17e3 0B       		.uleb128 0xb
 10606 17e4 01       		.uleb128 0x1
 10607 17e5 50       		.byte	0x50
 10608 17e6 02       		.uleb128 0x2
 10609 17e7 08       		.byte	0x8
 10610 17e8 64       		.byte	0x64
 10611 17e9 00       		.byte	0
 10612 17ea 0A       		.uleb128 0xa
 10613 17eb 30000000 		.4byte	.LVL279
 10614 17ef C00B0000 		.4byte	0xbc0
 10615 17f3 09180000 		.4byte	0x1809
 10616 17f7 0B       		.uleb128 0xb
 10617 17f8 01       		.uleb128 0x1
 10618 17f9 50       		.byte	0x50
 10619 17fa 01       		.uleb128 0x1
 10620 17fb 34       		.byte	0x34
 10621 17fc 0B       		.uleb128 0xb
 10622 17fd 01       		.uleb128 0x1
 10623 17fe 51       		.byte	0x51
 10624 17ff 02       		.uleb128 0x2
 10625 1800 74       		.byte	0x74
 10626 1801 00       		.sleb128 0
 10627 1802 0B       		.uleb128 0xb
 10628 1803 01       		.uleb128 0x1
 10629 1804 52       		.byte	0x52
 10630 1805 02       		.uleb128 0x2
 10631 1806 75       		.byte	0x75
 10632 1807 00       		.sleb128 0
 10633 1808 00       		.byte	0
 10634 1809 0A       		.uleb128 0xa
 10635 180a 3E000000 		.4byte	.LVL280
 10636 180e C00B0000 		.4byte	0xbc0
 10637 1812 29180000 		.4byte	0x1829
 10638 1816 0B       		.uleb128 0xb
 10639 1817 01       		.uleb128 0x1
 10640 1818 50       		.byte	0x50
 10641 1819 02       		.uleb128 0x2
 10642 181a 08       		.byte	0x8
 10643 181b 21       		.byte	0x21
 10644 181c 0B       		.uleb128 0xb
 10645 181d 01       		.uleb128 0x1
ARM GAS  C:\Users\Revanth\AppData\Local\Temp\ccbqjHa5.s 			page 250


 10646 181e 51       		.byte	0x51
 10647 181f 02       		.uleb128 0x2
 10648 1820 74       		.byte	0x74
 10649 1821 00       		.sleb128 0
 10650 1822 0B       		.uleb128 0xb
 10651 1823 01       		.uleb128 0x1
 10652 1824 52       		.byte	0x52
 10653 1825 02       		.uleb128 0x2
 10654 1826 91       		.byte	0x91
 10655 1827 6F       		.sleb128 -17
 10656 1828 00       		.byte	0
 10657 1829 0C       		.uleb128 0xc
 10658 182a 44000000 		.4byte	.LVL281
 10659 182e 4E470000 		.4byte	0x474e
 10660 1832 0B       		.uleb128 0xb
 10661 1833 01       		.uleb128 0x1
 10662 1834 50       		.byte	0x50
 10663 1835 02       		.uleb128 0x2
 10664 1836 08       		.byte	0x8
 10665 1837 64       		.byte	0x64
 10666 1838 00       		.byte	0
 10667 1839 00       		.byte	0
 10668 183a 1F       		.uleb128 0x1f
 10669 183b 950B0000 		.4byte	.LASF70
 10670 183f 01       		.byte	0x1
 10671 1840 8A02     		.2byte	0x28a
 10672 1842 89000000 		.4byte	0x89
 10673 1846 00000000 		.4byte	.LFB71
 10674 184a 00010000 		.4byte	.LFE71-.LFB71
 10675 184e 01       		.uleb128 0x1
 10676 184f 9C       		.byte	0x9c
 10677 1850 B3190000 		.4byte	0x19b3
 10678 1854 0E       		.uleb128 0xe
 10679 1855 190C0000 		.4byte	.LASF29
 10680 1859 01       		.byte	0x1
 10681 185a 8A02     		.2byte	0x28a
 10682 185c 10010000 		.4byte	0x110
 10683 1860 4D040000 		.4byte	.LLST23
 10684 1864 1A       		.uleb128 0x1a
 10685 1865 500A0000 		.4byte	.LASF71
 10686 1869 01       		.byte	0x1
 10687 186a 8C02     		.2byte	0x28c
 10688 186c 10010000 		.4byte	0x110
 10689 1870 79040000 		.4byte	.LLST24
 10690 1874 1A       		.uleb128 0x1a
 10691 1875 140C0000 		.4byte	.LASF72
 10692 1879 01       		.byte	0x1
 10693 187a 8D02     		.2byte	0x28d
 10694 187c 97000000 		.4byte	0x97
 10695 1880 A3040000 		.4byte	.LLST25
 10696 1884 1A       		.uleb128 0x1a
 10697 1885 470A0000 		.4byte	.LASF73
 10698 1889 01       		.byte	0x1
 10699 188a 8E02     		.2byte	0x28e
 10700 188c 10010000 		.4byte	0x110
 10701 1890 CD040000 		.4byte	.LLST26
 10702 1894 1A       		.uleb128 0x1a
ARM GAS  C:\Users\Revanth\AppData\Local\Temp\ccbqjHa5.s 			page 251


 10703 1895 CF090000 		.4byte	.LASF74
 10704 1899 01       		.byte	0x1
 10705 189a 9002     		.2byte	0x290
 10706 189c 10010000 		.4byte	0x110
 10707 18a0 07050000 		.4byte	.LLST27
 10708 18a4 09       		.uleb128 0x9
 10709 18a5 1E000000 		.4byte	.LVL289
 10710 18a9 21030000 		.4byte	0x321
 10711 18ad 0A       		.uleb128 0xa
 10712 18ae 54000000 		.4byte	.LVL298
 10713 18b2 410F0000 		.4byte	0xf41
 10714 18b6 C0180000 		.4byte	0x18c0
 10715 18ba 0B       		.uleb128 0xb
 10716 18bb 01       		.uleb128 0x1
 10717 18bc 51       		.byte	0x51
 10718 18bd 01       		.uleb128 0x1
 10719 18be 30       		.byte	0x30
 10720 18bf 00       		.byte	0
 10721 18c0 0A       		.uleb128 0xa
 10722 18c1 5A000000 		.4byte	.LVL299
 10723 18c5 5C170000 		.4byte	0x175c
 10724 18c9 D3180000 		.4byte	0x18d3
 10725 18cd 0B       		.uleb128 0xb
 10726 18ce 01       		.uleb128 0x1
 10727 18cf 50       		.byte	0x50
 10728 18d0 01       		.uleb128 0x1
 10729 18d1 30       		.byte	0x30
 10730 18d2 00       		.byte	0
 10731 18d3 0A       		.uleb128 0xa
 10732 18d4 60000000 		.4byte	.LVL300
 10733 18d8 4E470000 		.4byte	0x474e
 10734 18dc E7180000 		.4byte	0x18e7
 10735 18e0 0B       		.uleb128 0xb
 10736 18e1 01       		.uleb128 0x1
 10737 18e2 50       		.byte	0x50
 10738 18e3 02       		.uleb128 0x2
 10739 18e4 08       		.byte	0x8
 10740 18e5 32       		.byte	0x32
 10741 18e6 00       		.byte	0
 10742 18e7 0A       		.uleb128 0xa
 10743 18e8 6A000000 		.4byte	.LVL301
 10744 18ec 560E0000 		.4byte	0xe56
 10745 18f0 06190000 		.4byte	0x1906
 10746 18f4 0B       		.uleb128 0xb
 10747 18f5 01       		.uleb128 0x1
 10748 18f6 50       		.byte	0x50
 10749 18f7 02       		.uleb128 0x2
 10750 18f8 08       		.byte	0x8
 10751 18f9 21       		.byte	0x21
 10752 18fa 0B       		.uleb128 0xb
 10753 18fb 01       		.uleb128 0x1
 10754 18fc 51       		.byte	0x51
 10755 18fd 02       		.uleb128 0x2
 10756 18fe 77       		.byte	0x77
 10757 18ff 00       		.sleb128 0
 10758 1900 0B       		.uleb128 0xb
 10759 1901 01       		.uleb128 0x1
ARM GAS  C:\Users\Revanth\AppData\Local\Temp\ccbqjHa5.s 			page 252


 10760 1902 52       		.byte	0x52
 10761 1903 01       		.uleb128 0x1
 10762 1904 30       		.byte	0x30
 10763 1905 00       		.byte	0
 10764 1906 09       		.uleb128 0x9
 10765 1907 76000000 		.4byte	.LVL304
 10766 190b 21030000 		.4byte	0x321
 10767 190f 0A       		.uleb128 0xa
 10768 1910 9E000000 		.4byte	.LVL307
 10769 1914 E8030000 		.4byte	0x3e8
 10770 1918 26190000 		.4byte	0x1926
 10771 191c 0B       		.uleb128 0xb
 10772 191d 01       		.uleb128 0x1
 10773 191e 50       		.byte	0x50
 10774 191f 05       		.uleb128 0x5
 10775 1920 03       		.byte	0x3
 10776 1921 94020000 		.4byte	.LC20
 10777 1925 00       		.byte	0
 10778 1926 0A       		.uleb128 0xa
 10779 1927 A4000000 		.4byte	.LVL308
 10780 192b 0D480000 		.4byte	0x480d
 10781 192f 3A190000 		.4byte	0x193a
 10782 1933 0B       		.uleb128 0xb
 10783 1934 01       		.uleb128 0x1
 10784 1935 50       		.byte	0x50
 10785 1936 02       		.uleb128 0x2
 10786 1937 09       		.byte	0x9
 10787 1938 FF       		.byte	0xff
 10788 1939 00       		.byte	0
 10789 193a 0A       		.uleb128 0xa
 10790 193b AE000000 		.4byte	.LVL309
 10791 193f 410F0000 		.4byte	0xf41
 10792 1943 54190000 		.4byte	0x1954
 10793 1947 0B       		.uleb128 0xb
 10794 1948 01       		.uleb128 0x1
 10795 1949 50       		.byte	0x50
 10796 194a 03       		.uleb128 0x3
 10797 194b 77       		.byte	0x77
 10798 194c 9878     		.sleb128 -1000
 10799 194e 0B       		.uleb128 0xb
 10800 194f 01       		.uleb128 0x1
 10801 1950 51       		.byte	0x51
 10802 1951 01       		.uleb128 0x1
 10803 1952 30       		.byte	0x30
 10804 1953 00       		.byte	0
 10805 1954 0A       		.uleb128 0xa
 10806 1955 C2000000 		.4byte	.LVL311
 10807 1959 E8030000 		.4byte	0x3e8
 10808 195d 6B190000 		.4byte	0x196b
 10809 1961 0B       		.uleb128 0xb
 10810 1962 01       		.uleb128 0x1
 10811 1963 50       		.byte	0x50
 10812 1964 05       		.uleb128 0x5
 10813 1965 03       		.byte	0x3
 10814 1966 B0020000 		.4byte	.LC21
 10815 196a 00       		.byte	0
 10816 196b 0A       		.uleb128 0xa
ARM GAS  C:\Users\Revanth\AppData\Local\Temp\ccbqjHa5.s 			page 253


 10817 196c D0000000 		.4byte	.LVL312
 10818 1970 E8030000 		.4byte	0x3e8
 10819 1974 82190000 		.4byte	0x1982
 10820 1978 0B       		.uleb128 0xb
 10821 1979 01       		.uleb128 0x1
 10822 197a 50       		.byte	0x50
 10823 197b 05       		.uleb128 0x5
 10824 197c 03       		.byte	0x3
 10825 197d E0020000 		.4byte	.LC22
 10826 1981 00       		.byte	0
 10827 1982 0A       		.uleb128 0xa
 10828 1983 DE000000 		.4byte	.LVL313
 10829 1987 560E0000 		.4byte	0xe56
 10830 198b A1190000 		.4byte	0x19a1
 10831 198f 0B       		.uleb128 0xb
 10832 1990 01       		.uleb128 0x1
 10833 1991 50       		.byte	0x50
 10834 1992 02       		.uleb128 0x2
 10835 1993 08       		.byte	0x8
 10836 1994 21       		.byte	0x21
 10837 1995 0B       		.uleb128 0xb
 10838 1996 01       		.uleb128 0x1
 10839 1997 51       		.byte	0x51
 10840 1998 02       		.uleb128 0x2
 10841 1999 77       		.byte	0x77
 10842 199a 00       		.sleb128 0
 10843 199b 0B       		.uleb128 0xb
 10844 199c 01       		.uleb128 0x1
 10845 199d 52       		.byte	0x52
 10846 199e 01       		.uleb128 0x1
 10847 199f 30       		.byte	0x30
 10848 19a0 00       		.byte	0
 10849 19a1 0C       		.uleb128 0xc
 10850 19a2 E6000000 		.4byte	.LVL314
 10851 19a6 4E470000 		.4byte	0x474e
 10852 19aa 0B       		.uleb128 0xb
 10853 19ab 01       		.uleb128 0x1
 10854 19ac 50       		.byte	0x50
 10855 19ad 03       		.uleb128 0x3
 10856 19ae 0A       		.byte	0xa
 10857 19af F401     		.2byte	0x1f4
 10858 19b1 00       		.byte	0
 10859 19b2 00       		.byte	0
 10860 19b3 19       		.uleb128 0x19
 10861 19b4 AA050000 		.4byte	.LASF75
 10862 19b8 01       		.byte	0x1
 10863 19b9 6A02     		.2byte	0x26a
 10864 19bb 89000000 		.4byte	0x89
 10865 19bf 00000000 		.4byte	.LFB70
 10866 19c3 8C000000 		.4byte	.LFE70-.LFB70
 10867 19c7 01       		.uleb128 0x1
 10868 19c8 9C       		.byte	0x9c
 10869 19c9 FE1A0000 		.4byte	0x1afe
 10870 19cd 0E       		.uleb128 0xe
 10871 19ce 1D0A0000 		.4byte	.LASF76
 10872 19d2 01       		.byte	0x1
 10873 19d3 6A02     		.2byte	0x26a
ARM GAS  C:\Users\Revanth\AppData\Local\Temp\ccbqjHa5.s 			page 254


 10874 19d5 10010000 		.4byte	0x110
 10875 19d9 3F050000 		.4byte	.LLST28
 10876 19dd 09       		.uleb128 0x9
 10877 19de 08000000 		.4byte	.LVL317
 10878 19e2 F8080000 		.4byte	0x8f8
 10879 19e6 0A       		.uleb128 0xa
 10880 19e7 14000000 		.4byte	.LVL318
 10881 19eb 560E0000 		.4byte	0xe56
 10882 19ef 071A0000 		.4byte	0x1a07
 10883 19f3 0B       		.uleb128 0xb
 10884 19f4 01       		.uleb128 0x1
 10885 19f5 50       		.byte	0x50
 10886 19f6 01       		.uleb128 0x1
 10887 19f7 40       		.byte	0x40
 10888 19f8 0B       		.uleb128 0xb
 10889 19f9 01       		.uleb128 0x1
 10890 19fa 51       		.byte	0x51
 10891 19fb 05       		.uleb128 0x5
 10892 19fc 0C       		.byte	0xc
 10893 19fd 03010700 		.4byte	0x70103
 10894 1a01 0B       		.uleb128 0xb
 10895 1a02 01       		.uleb128 0x1
 10896 1a03 52       		.byte	0x52
 10897 1a04 01       		.uleb128 0x1
 10898 1a05 31       		.byte	0x31
 10899 1a06 00       		.byte	0
 10900 1a07 0A       		.uleb128 0xa
 10901 1a08 1E000000 		.4byte	.LVL319
 10902 1a0c 560E0000 		.4byte	0xe56
 10903 1a10 281A0000 		.4byte	0x1a28
 10904 1a14 0B       		.uleb128 0xb
 10905 1a15 01       		.uleb128 0x1
 10906 1a16 50       		.byte	0x50
 10907 1a17 01       		.uleb128 0x1
 10908 1a18 40       		.byte	0x40
 10909 1a19 0B       		.uleb128 0xb
 10910 1a1a 01       		.uleb128 0x1
 10911 1a1b 51       		.byte	0x51
 10912 1a1c 05       		.uleb128 0x5
 10913 1a1d 0C       		.byte	0xc
 10914 1a1e 02010700 		.4byte	0x70102
 10915 1a22 0B       		.uleb128 0xb
 10916 1a23 01       		.uleb128 0x1
 10917 1a24 52       		.byte	0x52
 10918 1a25 01       		.uleb128 0x1
 10919 1a26 32       		.byte	0x32
 10920 1a27 00       		.byte	0
 10921 1a28 0A       		.uleb128 0xa
 10922 1a29 28000000 		.4byte	.LVL320
 10923 1a2d 560E0000 		.4byte	0xe56
 10924 1a31 491A0000 		.4byte	0x1a49
 10925 1a35 0B       		.uleb128 0xb
 10926 1a36 01       		.uleb128 0x1
 10927 1a37 50       		.byte	0x50
 10928 1a38 01       		.uleb128 0x1
 10929 1a39 40       		.byte	0x40
 10930 1a3a 0B       		.uleb128 0xb
ARM GAS  C:\Users\Revanth\AppData\Local\Temp\ccbqjHa5.s 			page 255


 10931 1a3b 01       		.uleb128 0x1
 10932 1a3c 51       		.byte	0x51
 10933 1a3d 05       		.uleb128 0x5
 10934 1a3e 0C       		.byte	0xc
 10935 1a3f 07040700 		.4byte	0x70407
 10936 1a43 0B       		.uleb128 0xb
 10937 1a44 01       		.uleb128 0x1
 10938 1a45 52       		.byte	0x52
 10939 1a46 01       		.uleb128 0x1
 10940 1a47 30       		.byte	0x30
 10941 1a48 00       		.byte	0
 10942 1a49 09       		.uleb128 0x9
 10943 1a4a 32000000 		.4byte	.LVL321
 10944 1a4e 21030000 		.4byte	0x321
 10945 1a52 0A       		.uleb128 0xa
 10946 1a53 38000000 		.4byte	.LVL322
 10947 1a57 E8030000 		.4byte	0x3e8
 10948 1a5b 691A0000 		.4byte	0x1a69
 10949 1a5f 0B       		.uleb128 0xb
 10950 1a60 01       		.uleb128 0x1
 10951 1a61 50       		.byte	0x50
 10952 1a62 05       		.uleb128 0x5
 10953 1a63 03       		.byte	0x3
 10954 1a64 F4020000 		.4byte	.LC23
 10955 1a68 00       		.byte	0
 10956 1a69 0A       		.uleb128 0xa
 10957 1a6a 40000000 		.4byte	.LVL323
 10958 1a6e 410F0000 		.4byte	0xf41
 10959 1a72 831A0000 		.4byte	0x1a83
 10960 1a76 0B       		.uleb128 0xb
 10961 1a77 01       		.uleb128 0x1
 10962 1a78 50       		.byte	0x50
 10963 1a79 02       		.uleb128 0x2
 10964 1a7a 74       		.byte	0x74
 10965 1a7b 00       		.sleb128 0
 10966 1a7c 0B       		.uleb128 0xb
 10967 1a7d 01       		.uleb128 0x1
 10968 1a7e 51       		.byte	0x51
 10969 1a7f 02       		.uleb128 0x2
 10970 1a80 75       		.byte	0x75
 10971 1a81 00       		.sleb128 0
 10972 1a82 00       		.byte	0
 10973 1a83 0A       		.uleb128 0xa
 10974 1a84 46000000 		.4byte	.LVL324
 10975 1a88 5C170000 		.4byte	0x175c
 10976 1a8c 971A0000 		.4byte	0x1a97
 10977 1a90 0B       		.uleb128 0xb
 10978 1a91 01       		.uleb128 0x1
 10979 1a92 50       		.byte	0x50
 10980 1a93 02       		.uleb128 0x2
 10981 1a94 75       		.byte	0x75
 10982 1a95 00       		.sleb128 0
 10983 1a96 00       		.byte	0
 10984 1a97 0A       		.uleb128 0xa
 10985 1a98 4C000000 		.4byte	.LVL325
 10986 1a9c 4E470000 		.4byte	0x474e
 10987 1aa0 AB1A0000 		.4byte	0x1aab
ARM GAS  C:\Users\Revanth\AppData\Local\Temp\ccbqjHa5.s 			page 256


 10988 1aa4 0B       		.uleb128 0xb
 10989 1aa5 01       		.uleb128 0x1
 10990 1aa6 50       		.byte	0x50
 10991 1aa7 02       		.uleb128 0x2
 10992 1aa8 08       		.byte	0x8
 10993 1aa9 32       		.byte	0x32
 10994 1aaa 00       		.byte	0
 10995 1aab 0A       		.uleb128 0xa
 10996 1aac 52000000 		.4byte	.LVL326
 10997 1ab0 2D070000 		.4byte	0x72d
 10998 1ab4 BF1A0000 		.4byte	0x1abf
 10999 1ab8 0B       		.uleb128 0xb
 11000 1ab9 01       		.uleb128 0x1
 11001 1aba 50       		.byte	0x50
 11002 1abb 02       		.uleb128 0x2
 11003 1abc 74       		.byte	0x74
 11004 1abd 00       		.sleb128 0
 11005 1abe 00       		.byte	0
 11006 1abf 0A       		.uleb128 0xa
 11007 1ac0 58000000 		.4byte	.LVL327
 11008 1ac4 E8030000 		.4byte	0x3e8
 11009 1ac8 D61A0000 		.4byte	0x1ad6
 11010 1acc 0B       		.uleb128 0xb
 11011 1acd 01       		.uleb128 0x1
 11012 1ace 50       		.byte	0x50
 11013 1acf 05       		.uleb128 0x5
 11014 1ad0 03       		.byte	0x3
 11015 1ad1 10030000 		.4byte	.LC24
 11016 1ad5 00       		.byte	0
 11017 1ad6 0A       		.uleb128 0xa
 11018 1ad7 5E000000 		.4byte	.LVL328
 11019 1adb 3A180000 		.4byte	0x183a
 11020 1adf EA1A0000 		.4byte	0x1aea
 11021 1ae3 0B       		.uleb128 0xb
 11022 1ae4 01       		.uleb128 0x1
 11023 1ae5 50       		.byte	0x50
 11024 1ae6 02       		.uleb128 0x2
 11025 1ae7 74       		.byte	0x74
 11026 1ae8 00       		.sleb128 0
 11027 1ae9 00       		.byte	0
 11028 1aea 0C       		.uleb128 0xc
 11029 1aeb 68000000 		.4byte	.LVL330
 11030 1aef E8030000 		.4byte	0x3e8
 11031 1af3 0B       		.uleb128 0xb
 11032 1af4 01       		.uleb128 0x1
 11033 1af5 50       		.byte	0x50
 11034 1af6 05       		.uleb128 0x5
 11035 1af7 03       		.byte	0x3
 11036 1af8 18030000 		.4byte	.LC25
 11037 1afc 00       		.byte	0
 11038 1afd 00       		.byte	0
 11039 1afe 1F       		.uleb128 0x1f
 11040 1aff A70B0000 		.4byte	.LASF77
 11041 1b03 01       		.byte	0x1
 11042 1b04 EA02     		.2byte	0x2ea
 11043 1b06 89000000 		.4byte	0x89
 11044 1b0a 00000000 		.4byte	.LFB73
ARM GAS  C:\Users\Revanth\AppData\Local\Temp\ccbqjHa5.s 			page 257


 11045 1b0e 00010000 		.4byte	.LFE73-.LFB73
 11046 1b12 01       		.uleb128 0x1
 11047 1b13 9C       		.byte	0x9c
 11048 1b14 431C0000 		.4byte	0x1c43
 11049 1b18 0E       		.uleb128 0xe
 11050 1b19 190C0000 		.4byte	.LASF29
 11051 1b1d 01       		.byte	0x1
 11052 1b1e EA02     		.2byte	0x2ea
 11053 1b20 10010000 		.4byte	0x110
 11054 1b24 6B050000 		.4byte	.LLST29
 11055 1b28 1A       		.uleb128 0x1a
 11056 1b29 140C0000 		.4byte	.LASF72
 11057 1b2d 01       		.byte	0x1
 11058 1b2e EC02     		.2byte	0x2ec
 11059 1b30 97000000 		.4byte	0x97
 11060 1b34 97050000 		.4byte	.LLST30
 11061 1b38 1A       		.uleb128 0x1a
 11062 1b39 470A0000 		.4byte	.LASF73
 11063 1b3d 01       		.byte	0x1
 11064 1b3e ED02     		.2byte	0x2ed
 11065 1b40 10010000 		.4byte	0x110
 11066 1b44 C1050000 		.4byte	.LLST31
 11067 1b48 1A       		.uleb128 0x1a
 11068 1b49 01070000 		.4byte	.LASF78
 11069 1b4d 01       		.byte	0x1
 11070 1b4e EE02     		.2byte	0x2ee
 11071 1b50 10010000 		.4byte	0x110
 11072 1b54 FB050000 		.4byte	.LLST32
 11073 1b58 1A       		.uleb128 0x1a
 11074 1b59 CF090000 		.4byte	.LASF74
 11075 1b5d 01       		.byte	0x1
 11076 1b5e F002     		.2byte	0x2f0
 11077 1b60 10010000 		.4byte	0x110
 11078 1b64 25060000 		.4byte	.LLST33
 11079 1b68 09       		.uleb128 0x9
 11080 1b69 20000000 		.4byte	.LVL339
 11081 1b6d 21030000 		.4byte	0x321
 11082 1b71 0A       		.uleb128 0xa
 11083 1b72 5A000000 		.4byte	.LVL347
 11084 1b76 410F0000 		.4byte	0xf41
 11085 1b7a 841B0000 		.4byte	0x1b84
 11086 1b7e 0B       		.uleb128 0xb
 11087 1b7f 01       		.uleb128 0x1
 11088 1b80 51       		.byte	0x51
 11089 1b81 01       		.uleb128 0x1
 11090 1b82 31       		.byte	0x31
 11091 1b83 00       		.byte	0
 11092 1b84 0A       		.uleb128 0xa
 11093 1b85 60000000 		.4byte	.LVL348
 11094 1b89 5C170000 		.4byte	0x175c
 11095 1b8d 971B0000 		.4byte	0x1b97
 11096 1b91 0B       		.uleb128 0xb
 11097 1b92 01       		.uleb128 0x1
 11098 1b93 50       		.byte	0x50
 11099 1b94 01       		.uleb128 0x1
 11100 1b95 31       		.byte	0x31
 11101 1b96 00       		.byte	0
ARM GAS  C:\Users\Revanth\AppData\Local\Temp\ccbqjHa5.s 			page 258


 11102 1b97 0A       		.uleb128 0xa
 11103 1b98 66000000 		.4byte	.LVL349
 11104 1b9c 4E470000 		.4byte	0x474e
 11105 1ba0 AB1B0000 		.4byte	0x1bab
 11106 1ba4 0B       		.uleb128 0xb
 11107 1ba5 01       		.uleb128 0x1
 11108 1ba6 50       		.byte	0x50
 11109 1ba7 02       		.uleb128 0x2
 11110 1ba8 08       		.byte	0x8
 11111 1ba9 32       		.byte	0x32
 11112 1baa 00       		.byte	0
 11113 1bab 0A       		.uleb128 0xa
 11114 1bac 70000000 		.4byte	.LVL350
 11115 1bb0 560E0000 		.4byte	0xe56
 11116 1bb4 CA1B0000 		.4byte	0x1bca
 11117 1bb8 0B       		.uleb128 0xb
 11118 1bb9 01       		.uleb128 0x1
 11119 1bba 50       		.byte	0x50
 11120 1bbb 02       		.uleb128 0x2
 11121 1bbc 08       		.byte	0x8
 11122 1bbd 21       		.byte	0x21
 11123 1bbe 0B       		.uleb128 0xb
 11124 1bbf 01       		.uleb128 0x1
 11125 1bc0 51       		.byte	0x51
 11126 1bc1 02       		.uleb128 0x2
 11127 1bc2 76       		.byte	0x76
 11128 1bc3 00       		.sleb128 0
 11129 1bc4 0B       		.uleb128 0xb
 11130 1bc5 01       		.uleb128 0x1
 11131 1bc6 52       		.byte	0x52
 11132 1bc7 01       		.uleb128 0x1
 11133 1bc8 31       		.byte	0x31
 11134 1bc9 00       		.byte	0
 11135 1bca 09       		.uleb128 0x9
 11136 1bcb 7C000000 		.4byte	.LVL353
 11137 1bcf 21030000 		.4byte	0x321
 11138 1bd3 0A       		.uleb128 0xa
 11139 1bd4 A4000000 		.4byte	.LVL357
 11140 1bd8 E8030000 		.4byte	0x3e8
 11141 1bdc EA1B0000 		.4byte	0x1bea
 11142 1be0 0B       		.uleb128 0xb
 11143 1be1 01       		.uleb128 0x1
 11144 1be2 50       		.byte	0x50
 11145 1be3 05       		.uleb128 0x5
 11146 1be4 03       		.byte	0x3
 11147 1be5 28030000 		.4byte	.LC26
 11148 1be9 00       		.byte	0
 11149 1bea 0A       		.uleb128 0xa
 11150 1beb AE000000 		.4byte	.LVL358
 11151 1bef 410F0000 		.4byte	0xf41
 11152 1bf3 041C0000 		.4byte	0x1c04
 11153 1bf7 0B       		.uleb128 0xb
 11154 1bf8 01       		.uleb128 0x1
 11155 1bf9 50       		.byte	0x50
 11156 1bfa 03       		.uleb128 0x3
 11157 1bfb 76       		.byte	0x76
 11158 1bfc 9878     		.sleb128 -1000
ARM GAS  C:\Users\Revanth\AppData\Local\Temp\ccbqjHa5.s 			page 259


 11159 1bfe 0B       		.uleb128 0xb
 11160 1bff 01       		.uleb128 0x1
 11161 1c00 51       		.byte	0x51
 11162 1c01 01       		.uleb128 0x1
 11163 1c02 31       		.byte	0x31
 11164 1c03 00       		.byte	0
 11165 1c04 0A       		.uleb128 0xa
 11166 1c05 B4000000 		.4byte	.LVL359
 11167 1c09 0D480000 		.4byte	0x480d
 11168 1c0d 181C0000 		.4byte	0x1c18
 11169 1c11 0B       		.uleb128 0xb
 11170 1c12 01       		.uleb128 0x1
 11171 1c13 50       		.byte	0x50
 11172 1c14 02       		.uleb128 0x2
 11173 1c15 09       		.byte	0x9
 11174 1c16 FF       		.byte	0xff
 11175 1c17 00       		.byte	0
 11176 1c18 0A       		.uleb128 0xa
 11177 1c19 C8000000 		.4byte	.LVL360
 11178 1c1d E8030000 		.4byte	0x3e8
 11179 1c21 2F1C0000 		.4byte	0x1c2f
 11180 1c25 0B       		.uleb128 0xb
 11181 1c26 01       		.uleb128 0x1
 11182 1c27 50       		.byte	0x50
 11183 1c28 05       		.uleb128 0x5
 11184 1c29 03       		.byte	0x3
 11185 1c2a 44030000 		.4byte	.LC27
 11186 1c2e 00       		.byte	0
 11187 1c2f 0C       		.uleb128 0xc
 11188 1c30 D6000000 		.4byte	.LVL361
 11189 1c34 E8030000 		.4byte	0x3e8
 11190 1c38 0B       		.uleb128 0xb
 11191 1c39 01       		.uleb128 0x1
 11192 1c3a 50       		.byte	0x50
 11193 1c3b 05       		.uleb128 0x5
 11194 1c3c 03       		.byte	0x3
 11195 1c3d 74030000 		.4byte	.LC28
 11196 1c41 00       		.byte	0
 11197 1c42 00       		.byte	0
 11198 1c43 19       		.uleb128 0x19
 11199 1c44 B1050000 		.4byte	.LASF79
 11200 1c48 01       		.byte	0x1
 11201 1c49 CC02     		.2byte	0x2cc
 11202 1c4b 89000000 		.4byte	0x89
 11203 1c4f 00000000 		.4byte	.LFB72
 11204 1c53 8C000000 		.4byte	.LFE72-.LFB72
 11205 1c57 01       		.uleb128 0x1
 11206 1c58 9C       		.byte	0x9c
 11207 1c59 8C1D0000 		.4byte	0x1d8c
 11208 1c5d 0E       		.uleb128 0xe
 11209 1c5e 2A030000 		.4byte	.LASF80
 11210 1c62 01       		.byte	0x1
 11211 1c63 CC02     		.2byte	0x2cc
 11212 1c65 10010000 		.4byte	0x110
 11213 1c69 5D060000 		.4byte	.LLST34
 11214 1c6d 09       		.uleb128 0x9
 11215 1c6e 08000000 		.4byte	.LVL364
ARM GAS  C:\Users\Revanth\AppData\Local\Temp\ccbqjHa5.s 			page 260


 11216 1c72 F8080000 		.4byte	0x8f8
 11217 1c76 0A       		.uleb128 0xa
 11218 1c77 14000000 		.4byte	.LVL365
 11219 1c7b 560E0000 		.4byte	0xe56
 11220 1c7f 971C0000 		.4byte	0x1c97
 11221 1c83 0B       		.uleb128 0xb
 11222 1c84 01       		.uleb128 0x1
 11223 1c85 50       		.byte	0x50
 11224 1c86 01       		.uleb128 0x1
 11225 1c87 40       		.byte	0x40
 11226 1c88 0B       		.uleb128 0xb
 11227 1c89 01       		.uleb128 0x1
 11228 1c8a 51       		.byte	0x51
 11229 1c8b 05       		.uleb128 0x5
 11230 1c8c 0C       		.byte	0xc
 11231 1c8d 03010700 		.4byte	0x70103
 11232 1c91 0B       		.uleb128 0xb
 11233 1c92 01       		.uleb128 0x1
 11234 1c93 52       		.byte	0x52
 11235 1c94 01       		.uleb128 0x1
 11236 1c95 30       		.byte	0x30
 11237 1c96 00       		.byte	0
 11238 1c97 0A       		.uleb128 0xa
 11239 1c98 1E000000 		.4byte	.LVL366
 11240 1c9c 560E0000 		.4byte	0xe56
 11241 1ca0 B81C0000 		.4byte	0x1cb8
 11242 1ca4 0B       		.uleb128 0xb
 11243 1ca5 01       		.uleb128 0x1
 11244 1ca6 50       		.byte	0x50
 11245 1ca7 01       		.uleb128 0x1
 11246 1ca8 40       		.byte	0x40
 11247 1ca9 0B       		.uleb128 0xb
 11248 1caa 01       		.uleb128 0x1
 11249 1cab 51       		.byte	0x51
 11250 1cac 05       		.uleb128 0x5
 11251 1cad 0C       		.byte	0xc
 11252 1cae 02010700 		.4byte	0x70102
 11253 1cb2 0B       		.uleb128 0xb
 11254 1cb3 01       		.uleb128 0x1
 11255 1cb4 52       		.byte	0x52
 11256 1cb5 01       		.uleb128 0x1
 11257 1cb6 32       		.byte	0x32
 11258 1cb7 00       		.byte	0
 11259 1cb8 0A       		.uleb128 0xa
 11260 1cb9 28000000 		.4byte	.LVL367
 11261 1cbd 560E0000 		.4byte	0xe56
 11262 1cc1 D91C0000 		.4byte	0x1cd9
 11263 1cc5 0B       		.uleb128 0xb
 11264 1cc6 01       		.uleb128 0x1
 11265 1cc7 50       		.byte	0x50
 11266 1cc8 01       		.uleb128 0x1
 11267 1cc9 40       		.byte	0x40
 11268 1cca 0B       		.uleb128 0xb
 11269 1ccb 01       		.uleb128 0x1
 11270 1ccc 51       		.byte	0x51
 11271 1ccd 05       		.uleb128 0x5
 11272 1cce 0C       		.byte	0xc
ARM GAS  C:\Users\Revanth\AppData\Local\Temp\ccbqjHa5.s 			page 261


 11273 1ccf 0A020700 		.4byte	0x7020a
 11274 1cd3 0B       		.uleb128 0xb
 11275 1cd4 01       		.uleb128 0x1
 11276 1cd5 52       		.byte	0x52
 11277 1cd6 01       		.uleb128 0x1
 11278 1cd7 31       		.byte	0x31
 11279 1cd8 00       		.byte	0
 11280 1cd9 09       		.uleb128 0x9
 11281 1cda 32000000 		.4byte	.LVL368
 11282 1cde 21030000 		.4byte	0x321
 11283 1ce2 0A       		.uleb128 0xa
 11284 1ce3 38000000 		.4byte	.LVL369
 11285 1ce7 E8030000 		.4byte	0x3e8
 11286 1ceb F91C0000 		.4byte	0x1cf9
 11287 1cef 0B       		.uleb128 0xb
 11288 1cf0 01       		.uleb128 0x1
 11289 1cf1 50       		.byte	0x50
 11290 1cf2 05       		.uleb128 0x5
 11291 1cf3 03       		.byte	0x3
 11292 1cf4 F4020000 		.4byte	.LC23
 11293 1cf8 00       		.byte	0
 11294 1cf9 0A       		.uleb128 0xa
 11295 1cfa 40000000 		.4byte	.LVL370
 11296 1cfe 410F0000 		.4byte	0xf41
 11297 1d02 121D0000 		.4byte	0x1d12
 11298 1d06 0B       		.uleb128 0xb
 11299 1d07 01       		.uleb128 0x1
 11300 1d08 50       		.byte	0x50
 11301 1d09 02       		.uleb128 0x2
 11302 1d0a 74       		.byte	0x74
 11303 1d0b 00       		.sleb128 0
 11304 1d0c 0B       		.uleb128 0xb
 11305 1d0d 01       		.uleb128 0x1
 11306 1d0e 51       		.byte	0x51
 11307 1d0f 01       		.uleb128 0x1
 11308 1d10 31       		.byte	0x31
 11309 1d11 00       		.byte	0
 11310 1d12 0A       		.uleb128 0xa
 11311 1d13 46000000 		.4byte	.LVL371
 11312 1d17 5C170000 		.4byte	0x175c
 11313 1d1b 251D0000 		.4byte	0x1d25
 11314 1d1f 0B       		.uleb128 0xb
 11315 1d20 01       		.uleb128 0x1
 11316 1d21 50       		.byte	0x50
 11317 1d22 01       		.uleb128 0x1
 11318 1d23 31       		.byte	0x31
 11319 1d24 00       		.byte	0
 11320 1d25 0A       		.uleb128 0xa
 11321 1d26 4C000000 		.4byte	.LVL372
 11322 1d2a 4E470000 		.4byte	0x474e
 11323 1d2e 391D0000 		.4byte	0x1d39
 11324 1d32 0B       		.uleb128 0xb
 11325 1d33 01       		.uleb128 0x1
 11326 1d34 50       		.byte	0x50
 11327 1d35 02       		.uleb128 0x2
 11328 1d36 08       		.byte	0x8
 11329 1d37 32       		.byte	0x32
ARM GAS  C:\Users\Revanth\AppData\Local\Temp\ccbqjHa5.s 			page 262


 11330 1d38 00       		.byte	0
 11331 1d39 0A       		.uleb128 0xa
 11332 1d3a 52000000 		.4byte	.LVL373
 11333 1d3e 2D070000 		.4byte	0x72d
 11334 1d42 4D1D0000 		.4byte	0x1d4d
 11335 1d46 0B       		.uleb128 0xb
 11336 1d47 01       		.uleb128 0x1
 11337 1d48 50       		.byte	0x50
 11338 1d49 02       		.uleb128 0x2
 11339 1d4a 74       		.byte	0x74
 11340 1d4b 00       		.sleb128 0
 11341 1d4c 00       		.byte	0
 11342 1d4d 0A       		.uleb128 0xa
 11343 1d4e 58000000 		.4byte	.LVL374
 11344 1d52 E8030000 		.4byte	0x3e8
 11345 1d56 641D0000 		.4byte	0x1d64
 11346 1d5a 0B       		.uleb128 0xb
 11347 1d5b 01       		.uleb128 0x1
 11348 1d5c 50       		.byte	0x50
 11349 1d5d 05       		.uleb128 0x5
 11350 1d5e 03       		.byte	0x3
 11351 1d5f 10030000 		.4byte	.LC24
 11352 1d63 00       		.byte	0
 11353 1d64 0A       		.uleb128 0xa
 11354 1d65 5E000000 		.4byte	.LVL375
 11355 1d69 FE1A0000 		.4byte	0x1afe
 11356 1d6d 781D0000 		.4byte	0x1d78
 11357 1d71 0B       		.uleb128 0xb
 11358 1d72 01       		.uleb128 0x1
 11359 1d73 50       		.byte	0x50
 11360 1d74 02       		.uleb128 0x2
 11361 1d75 74       		.byte	0x74
 11362 1d76 00       		.sleb128 0
 11363 1d77 00       		.byte	0
 11364 1d78 0C       		.uleb128 0xc
 11365 1d79 68000000 		.4byte	.LVL377
 11366 1d7d E8030000 		.4byte	0x3e8
 11367 1d81 0B       		.uleb128 0xb
 11368 1d82 01       		.uleb128 0x1
 11369 1d83 50       		.byte	0x50
 11370 1d84 05       		.uleb128 0x5
 11371 1d85 03       		.byte	0x3
 11372 1d86 18030000 		.4byte	.LC25
 11373 1d8a 00       		.byte	0
 11374 1d8b 00       		.byte	0
 11375 1d8c 1F       		.uleb128 0x1f
 11376 1d8d B90B0000 		.4byte	.LASF81
 11377 1d91 01       		.byte	0x1
 11378 1d92 4E03     		.2byte	0x34e
 11379 1d94 89000000 		.4byte	0x89
 11380 1d98 00000000 		.4byte	.LFB75
 11381 1d9c 00010000 		.4byte	.LFE75-.LFB75
 11382 1da0 01       		.uleb128 0x1
 11383 1da1 9C       		.byte	0x9c
 11384 1da2 D11E0000 		.4byte	0x1ed1
 11385 1da6 0E       		.uleb128 0xe
 11386 1da7 190C0000 		.4byte	.LASF29
ARM GAS  C:\Users\Revanth\AppData\Local\Temp\ccbqjHa5.s 			page 263


 11387 1dab 01       		.byte	0x1
 11388 1dac 4E03     		.2byte	0x34e
 11389 1dae 10010000 		.4byte	0x110
 11390 1db2 89060000 		.4byte	.LLST35
 11391 1db6 1A       		.uleb128 0x1a
 11392 1db7 140C0000 		.4byte	.LASF72
 11393 1dbb 01       		.byte	0x1
 11394 1dbc 5003     		.2byte	0x350
 11395 1dbe 97000000 		.4byte	0x97
 11396 1dc2 B5060000 		.4byte	.LLST36
 11397 1dc6 1A       		.uleb128 0x1a
 11398 1dc7 470A0000 		.4byte	.LASF73
 11399 1dcb 01       		.byte	0x1
 11400 1dcc 5103     		.2byte	0x351
 11401 1dce 10010000 		.4byte	0x110
 11402 1dd2 DF060000 		.4byte	.LLST37
 11403 1dd6 1A       		.uleb128 0x1a
 11404 1dd7 41080000 		.4byte	.LASF82
 11405 1ddb 01       		.byte	0x1
 11406 1ddc 5203     		.2byte	0x352
 11407 1dde 10010000 		.4byte	0x110
 11408 1de2 19070000 		.4byte	.LLST38
 11409 1de6 1A       		.uleb128 0x1a
 11410 1de7 CF090000 		.4byte	.LASF74
 11411 1deb 01       		.byte	0x1
 11412 1dec 5403     		.2byte	0x354
 11413 1dee 10010000 		.4byte	0x110
 11414 1df2 43070000 		.4byte	.LLST39
 11415 1df6 09       		.uleb128 0x9
 11416 1df7 20000000 		.4byte	.LVL386
 11417 1dfb 21030000 		.4byte	0x321
 11418 1dff 0A       		.uleb128 0xa
 11419 1e00 5A000000 		.4byte	.LVL394
 11420 1e04 410F0000 		.4byte	0xf41
 11421 1e08 121E0000 		.4byte	0x1e12
 11422 1e0c 0B       		.uleb128 0xb
 11423 1e0d 01       		.uleb128 0x1
 11424 1e0e 51       		.byte	0x51
 11425 1e0f 01       		.uleb128 0x1
 11426 1e10 32       		.byte	0x32
 11427 1e11 00       		.byte	0
 11428 1e12 0A       		.uleb128 0xa
 11429 1e13 60000000 		.4byte	.LVL395
 11430 1e17 5C170000 		.4byte	0x175c
 11431 1e1b 251E0000 		.4byte	0x1e25
 11432 1e1f 0B       		.uleb128 0xb
 11433 1e20 01       		.uleb128 0x1
 11434 1e21 50       		.byte	0x50
 11435 1e22 01       		.uleb128 0x1
 11436 1e23 32       		.byte	0x32
 11437 1e24 00       		.byte	0
 11438 1e25 0A       		.uleb128 0xa
 11439 1e26 66000000 		.4byte	.LVL396
 11440 1e2a 4E470000 		.4byte	0x474e
 11441 1e2e 391E0000 		.4byte	0x1e39
 11442 1e32 0B       		.uleb128 0xb
 11443 1e33 01       		.uleb128 0x1
ARM GAS  C:\Users\Revanth\AppData\Local\Temp\ccbqjHa5.s 			page 264


 11444 1e34 50       		.byte	0x50
 11445 1e35 02       		.uleb128 0x2
 11446 1e36 08       		.byte	0x8
 11447 1e37 32       		.byte	0x32
 11448 1e38 00       		.byte	0
 11449 1e39 0A       		.uleb128 0xa
 11450 1e3a 70000000 		.4byte	.LVL397
 11451 1e3e 560E0000 		.4byte	0xe56
 11452 1e42 581E0000 		.4byte	0x1e58
 11453 1e46 0B       		.uleb128 0xb
 11454 1e47 01       		.uleb128 0x1
 11455 1e48 50       		.byte	0x50
 11456 1e49 02       		.uleb128 0x2
 11457 1e4a 08       		.byte	0x8
 11458 1e4b 21       		.byte	0x21
 11459 1e4c 0B       		.uleb128 0xb
 11460 1e4d 01       		.uleb128 0x1
 11461 1e4e 51       		.byte	0x51
 11462 1e4f 02       		.uleb128 0x2
 11463 1e50 76       		.byte	0x76
 11464 1e51 00       		.sleb128 0
 11465 1e52 0B       		.uleb128 0xb
 11466 1e53 01       		.uleb128 0x1
 11467 1e54 52       		.byte	0x52
 11468 1e55 01       		.uleb128 0x1
 11469 1e56 32       		.byte	0x32
 11470 1e57 00       		.byte	0
 11471 1e58 09       		.uleb128 0x9
 11472 1e59 7C000000 		.4byte	.LVL400
 11473 1e5d 21030000 		.4byte	0x321
 11474 1e61 0A       		.uleb128 0xa
 11475 1e62 A4000000 		.4byte	.LVL404
 11476 1e66 E8030000 		.4byte	0x3e8
 11477 1e6a 781E0000 		.4byte	0x1e78
 11478 1e6e 0B       		.uleb128 0xb
 11479 1e6f 01       		.uleb128 0x1
 11480 1e70 50       		.byte	0x50
 11481 1e71 05       		.uleb128 0x5
 11482 1e72 03       		.byte	0x3
 11483 1e73 88030000 		.4byte	.LC29
 11484 1e77 00       		.byte	0
 11485 1e78 0A       		.uleb128 0xa
 11486 1e79 AE000000 		.4byte	.LVL405
 11487 1e7d 410F0000 		.4byte	0xf41
 11488 1e81 921E0000 		.4byte	0x1e92
 11489 1e85 0B       		.uleb128 0xb
 11490 1e86 01       		.uleb128 0x1
 11491 1e87 50       		.byte	0x50
 11492 1e88 03       		.uleb128 0x3
 11493 1e89 76       		.byte	0x76
 11494 1e8a 9878     		.sleb128 -1000
 11495 1e8c 0B       		.uleb128 0xb
 11496 1e8d 01       		.uleb128 0x1
 11497 1e8e 51       		.byte	0x51
 11498 1e8f 01       		.uleb128 0x1
 11499 1e90 32       		.byte	0x32
 11500 1e91 00       		.byte	0
ARM GAS  C:\Users\Revanth\AppData\Local\Temp\ccbqjHa5.s 			page 265


 11501 1e92 0A       		.uleb128 0xa
 11502 1e93 B4000000 		.4byte	.LVL406
 11503 1e97 18480000 		.4byte	0x4818
 11504 1e9b A61E0000 		.4byte	0x1ea6
 11505 1e9f 0B       		.uleb128 0xb
 11506 1ea0 01       		.uleb128 0x1
 11507 1ea1 50       		.byte	0x50
 11508 1ea2 02       		.uleb128 0x2
 11509 1ea3 09       		.byte	0x9
 11510 1ea4 FF       		.byte	0xff
 11511 1ea5 00       		.byte	0
 11512 1ea6 0A       		.uleb128 0xa
 11513 1ea7 C8000000 		.4byte	.LVL407
 11514 1eab E8030000 		.4byte	0x3e8
 11515 1eaf BD1E0000 		.4byte	0x1ebd
 11516 1eb3 0B       		.uleb128 0xb
 11517 1eb4 01       		.uleb128 0x1
 11518 1eb5 50       		.byte	0x50
 11519 1eb6 05       		.uleb128 0x5
 11520 1eb7 03       		.byte	0x3
 11521 1eb8 A4030000 		.4byte	.LC30
 11522 1ebc 00       		.byte	0
 11523 1ebd 0C       		.uleb128 0xc
 11524 1ebe D6000000 		.4byte	.LVL408
 11525 1ec2 E8030000 		.4byte	0x3e8
 11526 1ec6 0B       		.uleb128 0xb
 11527 1ec7 01       		.uleb128 0x1
 11528 1ec8 50       		.byte	0x50
 11529 1ec9 05       		.uleb128 0x5
 11530 1eca 03       		.byte	0x3
 11531 1ecb D4030000 		.4byte	.LC31
 11532 1ecf 00       		.byte	0
 11533 1ed0 00       		.byte	0
 11534 1ed1 19       		.uleb128 0x19
 11535 1ed2 B8050000 		.4byte	.LASF83
 11536 1ed6 01       		.byte	0x1
 11537 1ed7 2D03     		.2byte	0x32d
 11538 1ed9 89000000 		.4byte	0x89
 11539 1edd 00000000 		.4byte	.LFB74
 11540 1ee1 9C000000 		.4byte	.LFE74-.LFB74
 11541 1ee5 01       		.uleb128 0x1
 11542 1ee6 9C       		.byte	0x9c
 11543 1ee7 26200000 		.4byte	0x2026
 11544 1eeb 0E       		.uleb128 0xe
 11545 1eec 430C0000 		.4byte	.LASF84
 11546 1ef0 01       		.byte	0x1
 11547 1ef1 2D03     		.2byte	0x32d
 11548 1ef3 10010000 		.4byte	0x110
 11549 1ef7 7B070000 		.4byte	.LLST40
 11550 1efb 0A       		.uleb128 0xa
 11551 1efc 10000000 		.4byte	.LVL412
 11552 1f00 560E0000 		.4byte	0xe56
 11553 1f04 191F0000 		.4byte	0x1f19
 11554 1f08 0B       		.uleb128 0xb
 11555 1f09 01       		.uleb128 0x1
 11556 1f0a 50       		.byte	0x50
 11557 1f0b 01       		.uleb128 0x1
ARM GAS  C:\Users\Revanth\AppData\Local\Temp\ccbqjHa5.s 			page 266


 11558 1f0c 40       		.byte	0x40
 11559 1f0d 0B       		.uleb128 0xb
 11560 1f0e 01       		.uleb128 0x1
 11561 1f0f 51       		.byte	0x51
 11562 1f10 02       		.uleb128 0x2
 11563 1f11 74       		.byte	0x74
 11564 1f12 00       		.sleb128 0
 11565 1f13 0B       		.uleb128 0xb
 11566 1f14 01       		.uleb128 0x1
 11567 1f15 52       		.byte	0x52
 11568 1f16 01       		.uleb128 0x1
 11569 1f17 31       		.byte	0x31
 11570 1f18 00       		.byte	0
 11571 1f19 0A       		.uleb128 0xa
 11572 1f1a 1A000000 		.4byte	.LVL413
 11573 1f1e 560E0000 		.4byte	0xe56
 11574 1f22 371F0000 		.4byte	0x1f37
 11575 1f26 0B       		.uleb128 0xb
 11576 1f27 01       		.uleb128 0x1
 11577 1f28 50       		.byte	0x50
 11578 1f29 01       		.uleb128 0x1
 11579 1f2a 40       		.byte	0x40
 11580 1f2b 0B       		.uleb128 0xb
 11581 1f2c 01       		.uleb128 0x1
 11582 1f2d 51       		.byte	0x51
 11583 1f2e 02       		.uleb128 0x2
 11584 1f2f 74       		.byte	0x74
 11585 1f30 00       		.sleb128 0
 11586 1f31 0B       		.uleb128 0xb
 11587 1f32 01       		.uleb128 0x1
 11588 1f33 52       		.byte	0x52
 11589 1f34 01       		.uleb128 0x1
 11590 1f35 30       		.byte	0x30
 11591 1f36 00       		.byte	0
 11592 1f37 0A       		.uleb128 0xa
 11593 1f38 24000000 		.4byte	.LVL414
 11594 1f3c 560E0000 		.4byte	0xe56
 11595 1f40 581F0000 		.4byte	0x1f58
 11596 1f44 0B       		.uleb128 0xb
 11597 1f45 01       		.uleb128 0x1
 11598 1f46 50       		.byte	0x50
 11599 1f47 01       		.uleb128 0x1
 11600 1f48 40       		.byte	0x40
 11601 1f49 0B       		.uleb128 0xb
 11602 1f4a 01       		.uleb128 0x1
 11603 1f4b 51       		.byte	0x51
 11604 1f4c 05       		.uleb128 0x5
 11605 1f4d 0C       		.byte	0xc
 11606 1f4e 03030700 		.4byte	0x70303
 11607 1f52 0B       		.uleb128 0xb
 11608 1f53 01       		.uleb128 0x1
 11609 1f54 52       		.byte	0x52
 11610 1f55 01       		.uleb128 0x1
 11611 1f56 32       		.byte	0x32
 11612 1f57 00       		.byte	0
 11613 1f58 09       		.uleb128 0x9
 11614 1f59 2E000000 		.4byte	.LVL415
ARM GAS  C:\Users\Revanth\AppData\Local\Temp\ccbqjHa5.s 			page 267


 11615 1f5d 7F020000 		.4byte	0x27f
 11616 1f61 09       		.uleb128 0x9
 11617 1f62 32000000 		.4byte	.LVL416
 11618 1f66 F8080000 		.4byte	0x8f8
 11619 1f6a 09       		.uleb128 0x9
 11620 1f6b 3E000000 		.4byte	.LVL417
 11621 1f6f 21030000 		.4byte	0x321
 11622 1f73 0A       		.uleb128 0xa
 11623 1f74 44000000 		.4byte	.LVL418
 11624 1f78 E8030000 		.4byte	0x3e8
 11625 1f7c 8A1F0000 		.4byte	0x1f8a
 11626 1f80 0B       		.uleb128 0xb
 11627 1f81 01       		.uleb128 0x1
 11628 1f82 50       		.byte	0x50
 11629 1f83 05       		.uleb128 0x5
 11630 1f84 03       		.byte	0x3
 11631 1f85 E8030000 		.4byte	.LC32
 11632 1f89 00       		.byte	0
 11633 1f8a 0A       		.uleb128 0xa
 11634 1f8b 4C000000 		.4byte	.LVL419
 11635 1f8f 410F0000 		.4byte	0xf41
 11636 1f93 A31F0000 		.4byte	0x1fa3
 11637 1f97 0B       		.uleb128 0xb
 11638 1f98 01       		.uleb128 0x1
 11639 1f99 50       		.byte	0x50
 11640 1f9a 02       		.uleb128 0x2
 11641 1f9b 75       		.byte	0x75
 11642 1f9c 00       		.sleb128 0
 11643 1f9d 0B       		.uleb128 0xb
 11644 1f9e 01       		.uleb128 0x1
 11645 1f9f 51       		.byte	0x51
 11646 1fa0 01       		.uleb128 0x1
 11647 1fa1 32       		.byte	0x32
 11648 1fa2 00       		.byte	0
 11649 1fa3 0A       		.uleb128 0xa
 11650 1fa4 52000000 		.4byte	.LVL420
 11651 1fa8 5C170000 		.4byte	0x175c
 11652 1fac B61F0000 		.4byte	0x1fb6
 11653 1fb0 0B       		.uleb128 0xb
 11654 1fb1 01       		.uleb128 0x1
 11655 1fb2 50       		.byte	0x50
 11656 1fb3 01       		.uleb128 0x1
 11657 1fb4 32       		.byte	0x32
 11658 1fb5 00       		.byte	0
 11659 1fb6 0A       		.uleb128 0xa
 11660 1fb7 58000000 		.4byte	.LVL421
 11661 1fbb 4E470000 		.4byte	0x474e
 11662 1fbf CA1F0000 		.4byte	0x1fca
 11663 1fc3 0B       		.uleb128 0xb
 11664 1fc4 01       		.uleb128 0x1
 11665 1fc5 50       		.byte	0x50
 11666 1fc6 02       		.uleb128 0x2
 11667 1fc7 08       		.byte	0x8
 11668 1fc8 32       		.byte	0x32
 11669 1fc9 00       		.byte	0
 11670 1fca 0A       		.uleb128 0xa
 11671 1fcb 5E000000 		.4byte	.LVL422
ARM GAS  C:\Users\Revanth\AppData\Local\Temp\ccbqjHa5.s 			page 268


 11672 1fcf 2D070000 		.4byte	0x72d
 11673 1fd3 DE1F0000 		.4byte	0x1fde
 11674 1fd7 0B       		.uleb128 0xb
 11675 1fd8 01       		.uleb128 0x1
 11676 1fd9 50       		.byte	0x50
 11677 1fda 02       		.uleb128 0x2
 11678 1fdb 75       		.byte	0x75
 11679 1fdc 00       		.sleb128 0
 11680 1fdd 00       		.byte	0
 11681 1fde 0A       		.uleb128 0xa
 11682 1fdf 64000000 		.4byte	.LVL423
 11683 1fe3 E8030000 		.4byte	0x3e8
 11684 1fe7 F51F0000 		.4byte	0x1ff5
 11685 1feb 0B       		.uleb128 0xb
 11686 1fec 01       		.uleb128 0x1
 11687 1fed 50       		.byte	0x50
 11688 1fee 05       		.uleb128 0x5
 11689 1fef 03       		.byte	0x3
 11690 1ff0 10030000 		.4byte	.LC24
 11691 1ff4 00       		.byte	0
 11692 1ff5 0A       		.uleb128 0xa
 11693 1ff6 6A000000 		.4byte	.LVL424
 11694 1ffa 8C1D0000 		.4byte	0x1d8c
 11695 1ffe 09200000 		.4byte	0x2009
 11696 2002 0B       		.uleb128 0xb
 11697 2003 01       		.uleb128 0x1
 11698 2004 50       		.byte	0x50
 11699 2005 02       		.uleb128 0x2
 11700 2006 75       		.byte	0x75
 11701 2007 00       		.sleb128 0
 11702 2008 00       		.byte	0
 11703 2009 09       		.uleb128 0x9
 11704 200a 6E000000 		.4byte	.LVL425
 11705 200e 21030000 		.4byte	0x321
 11706 2012 0C       		.uleb128 0xc
 11707 2013 7C000000 		.4byte	.LVL427
 11708 2017 E8030000 		.4byte	0x3e8
 11709 201b 0B       		.uleb128 0xb
 11710 201c 01       		.uleb128 0x1
 11711 201d 50       		.byte	0x50
 11712 201e 05       		.uleb128 0x5
 11713 201f 03       		.byte	0x3
 11714 2020 18030000 		.4byte	.LC25
 11715 2024 00       		.byte	0
 11716 2025 00       		.byte	0
 11717 2026 1F       		.uleb128 0x1f
 11718 2027 6F0B0000 		.4byte	.LASF85
 11719 202b 01       		.byte	0x1
 11720 202c B203     		.2byte	0x3b2
 11721 202e 89000000 		.4byte	0x89
 11722 2032 00000000 		.4byte	.LFB77
 11723 2036 F0000000 		.4byte	.LFE77-.LFB77
 11724 203a 01       		.uleb128 0x1
 11725 203b 9C       		.byte	0x9c
 11726 203c 3D210000 		.4byte	0x213d
 11727 2040 0E       		.uleb128 0xe
 11728 2041 190C0000 		.4byte	.LASF29
ARM GAS  C:\Users\Revanth\AppData\Local\Temp\ccbqjHa5.s 			page 269


 11729 2045 01       		.byte	0x1
 11730 2046 B203     		.2byte	0x3b2
 11731 2048 10010000 		.4byte	0x110
 11732 204c A7070000 		.4byte	.LLST41
 11733 2050 1A       		.uleb128 0x1a
 11734 2051 140C0000 		.4byte	.LASF72
 11735 2055 01       		.byte	0x1
 11736 2056 B403     		.2byte	0x3b4
 11737 2058 97000000 		.4byte	0x97
 11738 205c D3070000 		.4byte	.LLST42
 11739 2060 1A       		.uleb128 0x1a
 11740 2061 470A0000 		.4byte	.LASF73
 11741 2065 01       		.byte	0x1
 11742 2066 B503     		.2byte	0x3b5
 11743 2068 10010000 		.4byte	0x110
 11744 206c FD070000 		.4byte	.LLST43
 11745 2070 1A       		.uleb128 0x1a
 11746 2071 81090000 		.4byte	.LASF86
 11747 2075 01       		.byte	0x1
 11748 2076 B603     		.2byte	0x3b6
 11749 2078 10010000 		.4byte	0x110
 11750 207c 37080000 		.4byte	.LLST44
 11751 2080 1A       		.uleb128 0x1a
 11752 2081 CF090000 		.4byte	.LASF74
 11753 2085 01       		.byte	0x1
 11754 2086 B803     		.2byte	0x3b8
 11755 2088 10010000 		.4byte	0x110
 11756 208c 61080000 		.4byte	.LLST45
 11757 2090 09       		.uleb128 0x9
 11758 2091 20000000 		.4byte	.LVL436
 11759 2095 21030000 		.4byte	0x321
 11760 2099 0A       		.uleb128 0xa
 11761 209a 5A000000 		.4byte	.LVL444
 11762 209e 410F0000 		.4byte	0xf41
 11763 20a2 AC200000 		.4byte	0x20ac
 11764 20a6 0B       		.uleb128 0xb
 11765 20a7 01       		.uleb128 0x1
 11766 20a8 51       		.byte	0x51
 11767 20a9 01       		.uleb128 0x1
 11768 20aa 33       		.byte	0x33
 11769 20ab 00       		.byte	0
 11770 20ac 0A       		.uleb128 0xa
 11771 20ad 60000000 		.4byte	.LVL445
 11772 20b1 5C170000 		.4byte	0x175c
 11773 20b5 BF200000 		.4byte	0x20bf
 11774 20b9 0B       		.uleb128 0xb
 11775 20ba 01       		.uleb128 0x1
 11776 20bb 50       		.byte	0x50
 11777 20bc 01       		.uleb128 0x1
 11778 20bd 33       		.byte	0x33
 11779 20be 00       		.byte	0
 11780 20bf 0A       		.uleb128 0xa
 11781 20c0 66000000 		.4byte	.LVL446
 11782 20c4 4E470000 		.4byte	0x474e
 11783 20c8 D3200000 		.4byte	0x20d3
 11784 20cc 0B       		.uleb128 0xb
 11785 20cd 01       		.uleb128 0x1
ARM GAS  C:\Users\Revanth\AppData\Local\Temp\ccbqjHa5.s 			page 270


 11786 20ce 50       		.byte	0x50
 11787 20cf 02       		.uleb128 0x2
 11788 20d0 08       		.byte	0x8
 11789 20d1 32       		.byte	0x32
 11790 20d2 00       		.byte	0
 11791 20d3 0A       		.uleb128 0xa
 11792 20d4 70000000 		.4byte	.LVL447
 11793 20d8 560E0000 		.4byte	0xe56
 11794 20dc F2200000 		.4byte	0x20f2
 11795 20e0 0B       		.uleb128 0xb
 11796 20e1 01       		.uleb128 0x1
 11797 20e2 50       		.byte	0x50
 11798 20e3 02       		.uleb128 0x2
 11799 20e4 08       		.byte	0x8
 11800 20e5 21       		.byte	0x21
 11801 20e6 0B       		.uleb128 0xb
 11802 20e7 01       		.uleb128 0x1
 11803 20e8 51       		.byte	0x51
 11804 20e9 02       		.uleb128 0x2
 11805 20ea 77       		.byte	0x77
 11806 20eb 00       		.sleb128 0
 11807 20ec 0B       		.uleb128 0xb
 11808 20ed 01       		.uleb128 0x1
 11809 20ee 52       		.byte	0x52
 11810 20ef 01       		.uleb128 0x1
 11811 20f0 33       		.byte	0x33
 11812 20f1 00       		.byte	0
 11813 20f2 09       		.uleb128 0x9
 11814 20f3 7C000000 		.4byte	.LVL450
 11815 20f7 21030000 		.4byte	0x321
 11816 20fb 0A       		.uleb128 0xa
 11817 20fc A4000000 		.4byte	.LVL454
 11818 2100 E8030000 		.4byte	0x3e8
 11819 2104 12210000 		.4byte	0x2112
 11820 2108 0B       		.uleb128 0xb
 11821 2109 01       		.uleb128 0x1
 11822 210a 50       		.byte	0x50
 11823 210b 05       		.uleb128 0x5
 11824 210c 03       		.byte	0x3
 11825 210d 04040000 		.4byte	.LC33
 11826 2111 00       		.byte	0
 11827 2112 0A       		.uleb128 0xa
 11828 2113 B8000000 		.4byte	.LVL455
 11829 2117 E8030000 		.4byte	0x3e8
 11830 211b 29210000 		.4byte	0x2129
 11831 211f 0B       		.uleb128 0xb
 11832 2120 01       		.uleb128 0x1
 11833 2121 50       		.byte	0x50
 11834 2122 05       		.uleb128 0x5
 11835 2123 03       		.byte	0x3
 11836 2124 20040000 		.4byte	.LC34
 11837 2128 00       		.byte	0
 11838 2129 0C       		.uleb128 0xc
 11839 212a C6000000 		.4byte	.LVL456
 11840 212e E8030000 		.4byte	0x3e8
 11841 2132 0B       		.uleb128 0xb
 11842 2133 01       		.uleb128 0x1
ARM GAS  C:\Users\Revanth\AppData\Local\Temp\ccbqjHa5.s 			page 271


 11843 2134 50       		.byte	0x50
 11844 2135 05       		.uleb128 0x5
 11845 2136 03       		.byte	0x3
 11846 2137 50040000 		.4byte	.LC35
 11847 213b 00       		.byte	0
 11848 213c 00       		.byte	0
 11849 213d 19       		.uleb128 0x19
 11850 213e 8C050000 		.4byte	.LASF87
 11851 2142 01       		.byte	0x1
 11852 2143 9003     		.2byte	0x390
 11853 2145 89000000 		.4byte	0x89
 11854 2149 00000000 		.4byte	.LFB76
 11855 214d 9C000000 		.4byte	.LFE76-.LFB76
 11856 2151 01       		.uleb128 0x1
 11857 2152 9C       		.byte	0x9c
 11858 2153 AC220000 		.4byte	0x22ac
 11859 2157 0E       		.uleb128 0xe
 11860 2158 C3080000 		.4byte	.LASF88
 11861 215c 01       		.byte	0x1
 11862 215d 9003     		.2byte	0x390
 11863 215f 10010000 		.4byte	0x110
 11864 2163 99080000 		.4byte	.LLST46
 11865 2167 0A       		.uleb128 0xa
 11866 2168 0A000000 		.4byte	.LVL460
 11867 216c 23480000 		.4byte	0x4823
 11868 2170 7A210000 		.4byte	0x217a
 11869 2174 0B       		.uleb128 0xb
 11870 2175 01       		.uleb128 0x1
 11871 2176 50       		.byte	0x50
 11872 2177 01       		.uleb128 0x1
 11873 2178 30       		.byte	0x30
 11874 2179 00       		.byte	0
 11875 217a 0A       		.uleb128 0xa
 11876 217b 10000000 		.4byte	.LVL461
 11877 217f 4E470000 		.4byte	0x474e
 11878 2183 8E210000 		.4byte	0x218e
 11879 2187 0B       		.uleb128 0xb
 11880 2188 01       		.uleb128 0x1
 11881 2189 50       		.byte	0x50
 11882 218a 02       		.uleb128 0x2
 11883 218b 08       		.byte	0x8
 11884 218c 64       		.byte	0x64
 11885 218d 00       		.byte	0
 11886 218e 09       		.uleb128 0x9
 11887 218f 1A000000 		.4byte	.LVL462
 11888 2193 33020000 		.4byte	0x233
 11889 2197 09       		.uleb128 0x9
 11890 2198 1E000000 		.4byte	.LVL463
 11891 219c F8080000 		.4byte	0x8f8
 11892 21a0 09       		.uleb128 0x9
 11893 21a1 2A000000 		.4byte	.LVL464
 11894 21a5 21030000 		.4byte	0x321
 11895 21a9 0A       		.uleb128 0xa
 11896 21aa 30000000 		.4byte	.LVL465
 11897 21ae E8030000 		.4byte	0x3e8
 11898 21b2 C0210000 		.4byte	0x21c0
 11899 21b6 0B       		.uleb128 0xb
ARM GAS  C:\Users\Revanth\AppData\Local\Temp\ccbqjHa5.s 			page 272


 11900 21b7 01       		.uleb128 0x1
 11901 21b8 50       		.byte	0x50
 11902 21b9 05       		.uleb128 0x5
 11903 21ba 03       		.byte	0x3
 11904 21bb 64040000 		.4byte	.LC36
 11905 21bf 00       		.byte	0
 11906 21c0 0A       		.uleb128 0xa
 11907 21c1 38000000 		.4byte	.LVL466
 11908 21c5 410F0000 		.4byte	0xf41
 11909 21c9 D9210000 		.4byte	0x21d9
 11910 21cd 0B       		.uleb128 0xb
 11911 21ce 01       		.uleb128 0x1
 11912 21cf 50       		.byte	0x50
 11913 21d0 02       		.uleb128 0x2
 11914 21d1 74       		.byte	0x74
 11915 21d2 00       		.sleb128 0
 11916 21d3 0B       		.uleb128 0xb
 11917 21d4 01       		.uleb128 0x1
 11918 21d5 51       		.byte	0x51
 11919 21d6 01       		.uleb128 0x1
 11920 21d7 33       		.byte	0x33
 11921 21d8 00       		.byte	0
 11922 21d9 0A       		.uleb128 0xa
 11923 21da 3E000000 		.4byte	.LVL467
 11924 21de 5C170000 		.4byte	0x175c
 11925 21e2 EC210000 		.4byte	0x21ec
 11926 21e6 0B       		.uleb128 0xb
 11927 21e7 01       		.uleb128 0x1
 11928 21e8 50       		.byte	0x50
 11929 21e9 01       		.uleb128 0x1
 11930 21ea 33       		.byte	0x33
 11931 21eb 00       		.byte	0
 11932 21ec 0A       		.uleb128 0xa
 11933 21ed 44000000 		.4byte	.LVL468
 11934 21f1 4E470000 		.4byte	0x474e
 11935 21f5 00220000 		.4byte	0x2200
 11936 21f9 0B       		.uleb128 0xb
 11937 21fa 01       		.uleb128 0x1
 11938 21fb 50       		.byte	0x50
 11939 21fc 02       		.uleb128 0x2
 11940 21fd 08       		.byte	0x8
 11941 21fe 32       		.byte	0x32
 11942 21ff 00       		.byte	0
 11943 2200 0A       		.uleb128 0xa
 11944 2201 4A000000 		.4byte	.LVL469
 11945 2205 2D070000 		.4byte	0x72d
 11946 2209 14220000 		.4byte	0x2214
 11947 220d 0B       		.uleb128 0xb
 11948 220e 01       		.uleb128 0x1
 11949 220f 50       		.byte	0x50
 11950 2210 02       		.uleb128 0x2
 11951 2211 74       		.byte	0x74
 11952 2212 00       		.sleb128 0
 11953 2213 00       		.byte	0
 11954 2214 0A       		.uleb128 0xa
 11955 2215 50000000 		.4byte	.LVL470
 11956 2219 E8030000 		.4byte	0x3e8
ARM GAS  C:\Users\Revanth\AppData\Local\Temp\ccbqjHa5.s 			page 273


 11957 221d 2B220000 		.4byte	0x222b
 11958 2221 0B       		.uleb128 0xb
 11959 2222 01       		.uleb128 0x1
 11960 2223 50       		.byte	0x50
 11961 2224 05       		.uleb128 0x5
 11962 2225 03       		.byte	0x3
 11963 2226 10030000 		.4byte	.LC24
 11964 222a 00       		.byte	0
 11965 222b 0A       		.uleb128 0xa
 11966 222c 56000000 		.4byte	.LVL471
 11967 2230 26200000 		.4byte	0x2026
 11968 2234 3F220000 		.4byte	0x223f
 11969 2238 0B       		.uleb128 0xb
 11970 2239 01       		.uleb128 0x1
 11971 223a 50       		.byte	0x50
 11972 223b 02       		.uleb128 0x2
 11973 223c 74       		.byte	0x74
 11974 223d 00       		.sleb128 0
 11975 223e 00       		.byte	0
 11976 223f 09       		.uleb128 0x9
 11977 2240 5A000000 		.4byte	.LVL472
 11978 2244 21030000 		.4byte	0x321
 11979 2248 0A       		.uleb128 0xa
 11980 2249 64000000 		.4byte	.LVL473
 11981 224d 23480000 		.4byte	0x4823
 11982 2251 5C220000 		.4byte	0x225c
 11983 2255 0B       		.uleb128 0xb
 11984 2256 01       		.uleb128 0x1
 11985 2257 50       		.byte	0x50
 11986 2258 02       		.uleb128 0x2
 11987 2259 09       		.byte	0x9
 11988 225a FF       		.byte	0xff
 11989 225b 00       		.byte	0
 11990 225c 0A       		.uleb128 0xa
 11991 225d 6A000000 		.4byte	.LVL474
 11992 2261 4E470000 		.4byte	0x474e
 11993 2265 70220000 		.4byte	0x2270
 11994 2269 0B       		.uleb128 0xb
 11995 226a 01       		.uleb128 0x1
 11996 226b 50       		.byte	0x50
 11997 226c 02       		.uleb128 0x2
 11998 226d 08       		.byte	0x8
 11999 226e 64       		.byte	0x64
 12000 226f 00       		.byte	0
 12001 2270 0A       		.uleb128 0xa
 12002 2271 74000000 		.4byte	.LVL476
 12003 2275 E8030000 		.4byte	0x3e8
 12004 2279 87220000 		.4byte	0x2287
 12005 227d 0B       		.uleb128 0xb
 12006 227e 01       		.uleb128 0x1
 12007 227f 50       		.byte	0x50
 12008 2280 05       		.uleb128 0x5
 12009 2281 03       		.byte	0x3
 12010 2282 18030000 		.4byte	.LC25
 12011 2286 00       		.byte	0
 12012 2287 0A       		.uleb128 0xa
 12013 2288 80000000 		.4byte	.LVL478
ARM GAS  C:\Users\Revanth\AppData\Local\Temp\ccbqjHa5.s 			page 274


 12014 228c 23480000 		.4byte	0x4823
 12015 2290 9B220000 		.4byte	0x229b
 12016 2294 0B       		.uleb128 0xb
 12017 2295 01       		.uleb128 0x1
 12018 2296 50       		.byte	0x50
 12019 2297 02       		.uleb128 0x2
 12020 2298 09       		.byte	0x9
 12021 2299 FF       		.byte	0xff
 12022 229a 00       		.byte	0
 12023 229b 0C       		.uleb128 0xc
 12024 229c 86000000 		.4byte	.LVL479
 12025 22a0 4E470000 		.4byte	0x474e
 12026 22a4 0B       		.uleb128 0xb
 12027 22a5 01       		.uleb128 0x1
 12028 22a6 50       		.byte	0x50
 12029 22a7 02       		.uleb128 0x2
 12030 22a8 08       		.byte	0x8
 12031 22a9 64       		.byte	0x64
 12032 22aa 00       		.byte	0
 12033 22ab 00       		.byte	0
 12034 22ac 19       		.uleb128 0x19
 12035 22ad 2C020000 		.4byte	.LASF89
 12036 22b1 01       		.byte	0x1
 12037 22b2 F303     		.2byte	0x3f3
 12038 22b4 89000000 		.4byte	0x89
 12039 22b8 00000000 		.4byte	.LFB78
 12040 22bc A4000000 		.4byte	.LFE78-.LFB78
 12041 22c0 01       		.uleb128 0x1
 12042 22c1 9C       		.byte	0x9c
 12043 22c2 0B240000 		.4byte	0x240b
 12044 22c6 0E       		.uleb128 0xe
 12045 22c7 1D0A0000 		.4byte	.LASF76
 12046 22cb 01       		.byte	0x1
 12047 22cc F303     		.2byte	0x3f3
 12048 22ce 10010000 		.4byte	0x110
 12049 22d2 C5080000 		.4byte	.LLST47
 12050 22d6 0E       		.uleb128 0xe
 12051 22d7 2A030000 		.4byte	.LASF80
 12052 22db 01       		.byte	0x1
 12053 22dc F303     		.2byte	0x3f3
 12054 22de 10010000 		.4byte	0x110
 12055 22e2 F1080000 		.4byte	.LLST48
 12056 22e6 0E       		.uleb128 0xe
 12057 22e7 430C0000 		.4byte	.LASF84
 12058 22eb 01       		.byte	0x1
 12059 22ec F303     		.2byte	0x3f3
 12060 22ee 10010000 		.4byte	0x110
 12061 22f2 1D090000 		.4byte	.LLST49
 12062 22f6 09       		.uleb128 0x9
 12063 22f7 0C000000 		.4byte	.LVL481
 12064 22fb 21030000 		.4byte	0x321
 12065 22ff 0A       		.uleb128 0xa
 12066 2300 12000000 		.4byte	.LVL482
 12067 2304 E8030000 		.4byte	0x3e8
 12068 2308 16230000 		.4byte	0x2316
 12069 230c 0B       		.uleb128 0xb
 12070 230d 01       		.uleb128 0x1
ARM GAS  C:\Users\Revanth\AppData\Local\Temp\ccbqjHa5.s 			page 275


 12071 230e 50       		.byte	0x50
 12072 230f 05       		.uleb128 0x5
 12073 2310 03       		.byte	0x3
 12074 2311 F4020000 		.4byte	.LC23
 12075 2315 00       		.byte	0
 12076 2316 0A       		.uleb128 0xa
 12077 2317 1E000000 		.4byte	.LVL483
 12078 231b 410F0000 		.4byte	0xf41
 12079 231f 2F230000 		.4byte	0x232f
 12080 2323 0B       		.uleb128 0xb
 12081 2324 01       		.uleb128 0x1
 12082 2325 50       		.byte	0x50
 12083 2326 02       		.uleb128 0x2
 12084 2327 76       		.byte	0x76
 12085 2328 00       		.sleb128 0
 12086 2329 0B       		.uleb128 0xb
 12087 232a 01       		.uleb128 0x1
 12088 232b 51       		.byte	0x51
 12089 232c 01       		.uleb128 0x1
 12090 232d 30       		.byte	0x30
 12091 232e 00       		.byte	0
 12092 232f 0A       		.uleb128 0xa
 12093 2330 2A000000 		.4byte	.LVL484
 12094 2334 410F0000 		.4byte	0xf41
 12095 2338 48230000 		.4byte	0x2348
 12096 233c 0B       		.uleb128 0xb
 12097 233d 01       		.uleb128 0x1
 12098 233e 50       		.byte	0x50
 12099 233f 02       		.uleb128 0x2
 12100 2340 75       		.byte	0x75
 12101 2341 00       		.sleb128 0
 12102 2342 0B       		.uleb128 0xb
 12103 2343 01       		.uleb128 0x1
 12104 2344 51       		.byte	0x51
 12105 2345 01       		.uleb128 0x1
 12106 2346 31       		.byte	0x31
 12107 2347 00       		.byte	0
 12108 2348 09       		.uleb128 0x9
 12109 2349 38000000 		.4byte	.LVL485
 12110 234d 7F020000 		.4byte	0x27f
 12111 2351 0A       		.uleb128 0xa
 12112 2352 40000000 		.4byte	.LVL486
 12113 2356 410F0000 		.4byte	0xf41
 12114 235a 6A230000 		.4byte	0x236a
 12115 235e 0B       		.uleb128 0xb
 12116 235f 01       		.uleb128 0x1
 12117 2360 50       		.byte	0x50
 12118 2361 02       		.uleb128 0x2
 12119 2362 74       		.byte	0x74
 12120 2363 00       		.sleb128 0
 12121 2364 0B       		.uleb128 0xb
 12122 2365 01       		.uleb128 0x1
 12123 2366 51       		.byte	0x51
 12124 2367 01       		.uleb128 0x1
 12125 2368 32       		.byte	0x32
 12126 2369 00       		.byte	0
 12127 236a 0A       		.uleb128 0xa
ARM GAS  C:\Users\Revanth\AppData\Local\Temp\ccbqjHa5.s 			page 276


 12128 236b 4A000000 		.4byte	.LVL487
 12129 236f 5C170000 		.4byte	0x175c
 12130 2373 7D230000 		.4byte	0x237d
 12131 2377 0B       		.uleb128 0xb
 12132 2378 01       		.uleb128 0x1
 12133 2379 50       		.byte	0x50
 12134 237a 01       		.uleb128 0x1
 12135 237b 30       		.byte	0x30
 12136 237c 00       		.byte	0
 12137 237d 0A       		.uleb128 0xa
 12138 237e 54000000 		.4byte	.LVL488
 12139 2382 5C170000 		.4byte	0x175c
 12140 2386 90230000 		.4byte	0x2390
 12141 238a 0B       		.uleb128 0xb
 12142 238b 01       		.uleb128 0x1
 12143 238c 50       		.byte	0x50
 12144 238d 01       		.uleb128 0x1
 12145 238e 31       		.byte	0x31
 12146 238f 00       		.byte	0
 12147 2390 0A       		.uleb128 0xa
 12148 2391 5E000000 		.4byte	.LVL489
 12149 2395 5C170000 		.4byte	0x175c
 12150 2399 A3230000 		.4byte	0x23a3
 12151 239d 0B       		.uleb128 0xb
 12152 239e 01       		.uleb128 0x1
 12153 239f 50       		.byte	0x50
 12154 23a0 01       		.uleb128 0x1
 12155 23a1 32       		.byte	0x32
 12156 23a2 00       		.byte	0
 12157 23a3 0A       		.uleb128 0xa
 12158 23a4 68000000 		.4byte	.LVL490
 12159 23a8 3A180000 		.4byte	0x183a
 12160 23ac B7230000 		.4byte	0x23b7
 12161 23b0 0B       		.uleb128 0xb
 12162 23b1 01       		.uleb128 0x1
 12163 23b2 50       		.byte	0x50
 12164 23b3 02       		.uleb128 0x2
 12165 23b4 76       		.byte	0x76
 12166 23b5 00       		.sleb128 0
 12167 23b6 00       		.byte	0
 12168 23b7 0A       		.uleb128 0xa
 12169 23b8 72000000 		.4byte	.LVL491
 12170 23bc FE1A0000 		.4byte	0x1afe
 12171 23c0 CB230000 		.4byte	0x23cb
 12172 23c4 0B       		.uleb128 0xb
 12173 23c5 01       		.uleb128 0x1
 12174 23c6 50       		.byte	0x50
 12175 23c7 02       		.uleb128 0x2
 12176 23c8 75       		.byte	0x75
 12177 23c9 00       		.sleb128 0
 12178 23ca 00       		.byte	0
 12179 23cb 0A       		.uleb128 0xa
 12180 23cc 7C000000 		.4byte	.LVL492
 12181 23d0 8C1D0000 		.4byte	0x1d8c
 12182 23d4 DF230000 		.4byte	0x23df
 12183 23d8 0B       		.uleb128 0xb
 12184 23d9 01       		.uleb128 0x1
ARM GAS  C:\Users\Revanth\AppData\Local\Temp\ccbqjHa5.s 			page 277


 12185 23da 50       		.byte	0x50
 12186 23db 02       		.uleb128 0x2
 12187 23dc 74       		.byte	0x74
 12188 23dd 00       		.sleb128 0
 12189 23de 00       		.byte	0
 12190 23df 09       		.uleb128 0x9
 12191 23e0 80000000 		.4byte	.LVL493
 12192 23e4 21030000 		.4byte	0x321
 12193 23e8 09       		.uleb128 0x9
 12194 23e9 8A000000 		.4byte	.LVL494
 12195 23ed 21030000 		.4byte	0x321
 12196 23f1 09       		.uleb128 0x9
 12197 23f2 92000000 		.4byte	.LVL495
 12198 23f6 45060000 		.4byte	0x645
 12199 23fa 0C       		.uleb128 0xc
 12200 23fb 98000000 		.4byte	.LVL496
 12201 23ff 4E470000 		.4byte	0x474e
 12202 2403 0B       		.uleb128 0xb
 12203 2404 01       		.uleb128 0x1
 12204 2405 50       		.byte	0x50
 12205 2406 02       		.uleb128 0x2
 12206 2407 08       		.byte	0x8
 12207 2408 32       		.byte	0x32
 12208 2409 00       		.byte	0
 12209 240a 00       		.byte	0
 12210 240b 19       		.uleb128 0x19
 12211 240c 35020000 		.4byte	.LASF90
 12212 2410 01       		.byte	0x1
 12213 2411 F708     		.2byte	0x8f7
 12214 2413 89000000 		.4byte	0x89
 12215 2417 00000000 		.4byte	.LFB108
 12216 241b 10000000 		.4byte	.LFE108-.LFB108
 12217 241f 01       		.uleb128 0x1
 12218 2420 9C       		.byte	0x9c
 12219 2421 5D240000 		.4byte	0x245d
 12220 2425 0E       		.uleb128 0xe
 12221 2426 D8030000 		.4byte	.LASF91
 12222 242a 01       		.byte	0x1
 12223 242b F708     		.2byte	0x8f7
 12224 242d 89000000 		.4byte	0x89
 12225 2431 49090000 		.4byte	.LLST50
 12226 2435 0E       		.uleb128 0xe
 12227 2436 0F060000 		.4byte	.LASF56
 12228 243a 01       		.byte	0x1
 12229 243b F708     		.2byte	0x8f7
 12230 243d 97000000 		.4byte	0x97
 12231 2441 75090000 		.4byte	.LLST51
 12232 2445 0C       		.uleb128 0xc
 12233 2446 0C000000 		.4byte	.LVL501
 12234 244a 560E0000 		.4byte	0xe56
 12235 244e 0B       		.uleb128 0xb
 12236 244f 01       		.uleb128 0x1
 12237 2450 50       		.byte	0x50
 12238 2451 02       		.uleb128 0x2
 12239 2452 08       		.byte	0x8
 12240 2453 27       		.byte	0x27
 12241 2454 0B       		.uleb128 0xb
ARM GAS  C:\Users\Revanth\AppData\Local\Temp\ccbqjHa5.s 			page 278


 12242 2455 01       		.uleb128 0x1
 12243 2456 51       		.byte	0x51
 12244 2457 03       		.uleb128 0x3
 12245 2458 F3       		.byte	0xf3
 12246 2459 01       		.uleb128 0x1
 12247 245a 50       		.byte	0x50
 12248 245b 00       		.byte	0
 12249 245c 00       		.byte	0
 12250 245d 1B       		.uleb128 0x1b
 12251 245e 85040000 		.4byte	.LASF92
 12252 2462 01       		.byte	0x1
 12253 2463 A3       		.byte	0xa3
 12254 2464 00000000 		.4byte	.LFB66
 12255 2468 C0010000 		.4byte	.LFE66-.LFB66
 12256 246c 01       		.uleb128 0x1
 12257 246d 9C       		.byte	0x9c
 12258 246e FA270000 		.4byte	0x27fa
 12259 2472 1D       		.uleb128 0x1d
 12260 2473 0F060000 		.4byte	.LASF56
 12261 2477 01       		.byte	0x1
 12262 2478 A3       		.byte	0xa3
 12263 2479 97000000 		.4byte	0x97
 12264 247d 96090000 		.4byte	.LLST52
 12265 2481 0A       		.uleb128 0xa
 12266 2482 10000000 		.4byte	.LVL504
 12267 2486 560E0000 		.4byte	0xe56
 12268 248a A2240000 		.4byte	0x24a2
 12269 248e 0B       		.uleb128 0xb
 12270 248f 01       		.uleb128 0x1
 12271 2490 50       		.byte	0x50
 12272 2491 01       		.uleb128 0x1
 12273 2492 40       		.byte	0x40
 12274 2493 0B       		.uleb128 0xb
 12275 2494 01       		.uleb128 0x1
 12276 2495 51       		.byte	0x51
 12277 2496 05       		.uleb128 0x5
 12278 2497 0C       		.byte	0xc
 12279 2498 03050700 		.4byte	0x70503
 12280 249c 0B       		.uleb128 0xb
 12281 249d 01       		.uleb128 0x1
 12282 249e 52       		.byte	0x52
 12283 249f 01       		.uleb128 0x1
 12284 24a0 30       		.byte	0x30
 12285 24a1 00       		.byte	0
 12286 24a2 0A       		.uleb128 0xa
 12287 24a3 1A000000 		.4byte	.LVL505
 12288 24a7 0B240000 		.4byte	0x240b
 12289 24ab BE240000 		.4byte	0x24be
 12290 24af 0B       		.uleb128 0xb
 12291 24b0 01       		.uleb128 0x1
 12292 24b1 50       		.byte	0x50
 12293 24b2 04       		.uleb128 0x4
 12294 24b3 08       		.byte	0x8
 12295 24b4 96       		.byte	0x96
 12296 24b5 3B       		.byte	0x3b
 12297 24b6 24       		.byte	0x24
 12298 24b7 0B       		.uleb128 0xb
ARM GAS  C:\Users\Revanth\AppData\Local\Temp\ccbqjHa5.s 			page 279


 12299 24b8 01       		.uleb128 0x1
 12300 24b9 51       		.byte	0x51
 12301 24ba 02       		.uleb128 0x2
 12302 24bb 74       		.byte	0x74
 12303 24bc 00       		.sleb128 0
 12304 24bd 00       		.byte	0
 12305 24be 0A       		.uleb128 0xa
 12306 24bf 24000000 		.4byte	.LVL506
 12307 24c3 560E0000 		.4byte	0xe56
 12308 24c7 DD240000 		.4byte	0x24dd
 12309 24cb 0B       		.uleb128 0xb
 12310 24cc 01       		.uleb128 0x1
 12311 24cd 50       		.byte	0x50
 12312 24ce 02       		.uleb128 0x2
 12313 24cf 08       		.byte	0x8
 12314 24d0 20       		.byte	0x20
 12315 24d1 0B       		.uleb128 0xb
 12316 24d2 01       		.uleb128 0x1
 12317 24d3 51       		.byte	0x51
 12318 24d4 01       		.uleb128 0x1
 12319 24d5 32       		.byte	0x32
 12320 24d6 0B       		.uleb128 0xb
 12321 24d7 01       		.uleb128 0x1
 12322 24d8 52       		.byte	0x52
 12323 24d9 02       		.uleb128 0x2
 12324 24da 74       		.byte	0x74
 12325 24db 00       		.sleb128 0
 12326 24dc 00       		.byte	0
 12327 24dd 0A       		.uleb128 0xa
 12328 24de 2A000000 		.4byte	.LVL507
 12329 24e2 4E470000 		.4byte	0x474e
 12330 24e6 F1240000 		.4byte	0x24f1
 12331 24ea 0B       		.uleb128 0xb
 12332 24eb 01       		.uleb128 0x1
 12333 24ec 50       		.byte	0x50
 12334 24ed 02       		.uleb128 0x2
 12335 24ee 08       		.byte	0x8
 12336 24ef C8       		.byte	0xc8
 12337 24f0 00       		.byte	0
 12338 24f1 0A       		.uleb128 0xa
 12339 24f2 36000000 		.4byte	.LVL508
 12340 24f6 C00B0000 		.4byte	0xbc0
 12341 24fa 10250000 		.4byte	0x2510
 12342 24fe 0B       		.uleb128 0xb
 12343 24ff 01       		.uleb128 0x1
 12344 2500 50       		.byte	0x50
 12345 2501 01       		.uleb128 0x1
 12346 2502 34       		.byte	0x34
 12347 2503 0B       		.uleb128 0xb
 12348 2504 01       		.uleb128 0x1
 12349 2505 51       		.byte	0x51
 12350 2506 02       		.uleb128 0x2
 12351 2507 74       		.byte	0x74
 12352 2508 00       		.sleb128 0
 12353 2509 0B       		.uleb128 0xb
 12354 250a 01       		.uleb128 0x1
 12355 250b 52       		.byte	0x52
ARM GAS  C:\Users\Revanth\AppData\Local\Temp\ccbqjHa5.s 			page 280


 12356 250c 02       		.uleb128 0x2
 12357 250d 75       		.byte	0x75
 12358 250e 00       		.sleb128 0
 12359 250f 00       		.byte	0
 12360 2510 0A       		.uleb128 0xa
 12361 2511 3E000000 		.4byte	.LVL509
 12362 2515 4E470000 		.4byte	0x474e
 12363 2519 25250000 		.4byte	0x2525
 12364 251d 0B       		.uleb128 0xb
 12365 251e 01       		.uleb128 0x1
 12366 251f 50       		.byte	0x50
 12367 2520 03       		.uleb128 0x3
 12368 2521 0A       		.byte	0xa
 12369 2522 F401     		.2byte	0x1f4
 12370 2524 00       		.byte	0
 12371 2525 0A       		.uleb128 0xa
 12372 2526 48000000 		.4byte	.LVL510
 12373 252a C00B0000 		.4byte	0xbc0
 12374 252e 44250000 		.4byte	0x2544
 12375 2532 0B       		.uleb128 0xb
 12376 2533 01       		.uleb128 0x1
 12377 2534 50       		.byte	0x50
 12378 2535 01       		.uleb128 0x1
 12379 2536 34       		.byte	0x34
 12380 2537 0B       		.uleb128 0xb
 12381 2538 01       		.uleb128 0x1
 12382 2539 51       		.byte	0x51
 12383 253a 02       		.uleb128 0x2
 12384 253b 74       		.byte	0x74
 12385 253c 00       		.sleb128 0
 12386 253d 0B       		.uleb128 0xb
 12387 253e 01       		.uleb128 0x1
 12388 253f 52       		.byte	0x52
 12389 2540 02       		.uleb128 0x2
 12390 2541 75       		.byte	0x75
 12391 2542 00       		.sleb128 0
 12392 2543 00       		.byte	0
 12393 2544 09       		.uleb128 0x9
 12394 2545 4E000000 		.4byte	.LVL511
 12395 2549 2E480000 		.4byte	0x482e
 12396 254d 0A       		.uleb128 0xa
 12397 254e 54000000 		.4byte	.LVL512
 12398 2552 39480000 		.4byte	0x4839
 12399 2556 64250000 		.4byte	0x2564
 12400 255a 0B       		.uleb128 0xb
 12401 255b 01       		.uleb128 0x1
 12402 255c 50       		.byte	0x50
 12403 255d 05       		.uleb128 0x5
 12404 255e 03       		.byte	0x3
 12405 255f 00000000 		.4byte	wait_interrupt_Handler
 12406 2563 00       		.byte	0
 12407 2564 0A       		.uleb128 0xa
 12408 2565 5E000000 		.4byte	.LVL513
 12409 2569 C00B0000 		.4byte	0xbc0
 12410 256d 83250000 		.4byte	0x2583
 12411 2571 0B       		.uleb128 0xb
 12412 2572 01       		.uleb128 0x1
ARM GAS  C:\Users\Revanth\AppData\Local\Temp\ccbqjHa5.s 			page 281


 12413 2573 50       		.byte	0x50
 12414 2574 01       		.uleb128 0x1
 12415 2575 34       		.byte	0x34
 12416 2576 0B       		.uleb128 0xb
 12417 2577 01       		.uleb128 0x1
 12418 2578 51       		.byte	0x51
 12419 2579 02       		.uleb128 0x2
 12420 257a 74       		.byte	0x74
 12421 257b 00       		.sleb128 0
 12422 257c 0B       		.uleb128 0xb
 12423 257d 01       		.uleb128 0x1
 12424 257e 52       		.byte	0x52
 12425 257f 02       		.uleb128 0x2
 12426 2580 75       		.byte	0x75
 12427 2581 00       		.sleb128 0
 12428 2582 00       		.byte	0
 12429 2583 0A       		.uleb128 0xa
 12430 2584 64000000 		.4byte	.LVL514
 12431 2588 4E470000 		.4byte	0x474e
 12432 258c 97250000 		.4byte	0x2597
 12433 2590 0B       		.uleb128 0xb
 12434 2591 01       		.uleb128 0x1
 12435 2592 50       		.byte	0x50
 12436 2593 02       		.uleb128 0x2
 12437 2594 08       		.byte	0x8
 12438 2595 64       		.byte	0x64
 12439 2596 00       		.byte	0
 12440 2597 0A       		.uleb128 0xa
 12441 2598 74000000 		.4byte	.LVL515
 12442 259c 45060000 		.4byte	0x645
 12443 25a0 AA250000 		.4byte	0x25aa
 12444 25a4 0B       		.uleb128 0xb
 12445 25a5 01       		.uleb128 0x1
 12446 25a6 50       		.byte	0x50
 12447 25a7 01       		.uleb128 0x1
 12448 25a8 34       		.byte	0x34
 12449 25a9 00       		.byte	0
 12450 25aa 09       		.uleb128 0x9
 12451 25ab 78000000 		.4byte	.LVL516
 12452 25af 44480000 		.4byte	0x4844
 12453 25b3 0A       		.uleb128 0xa
 12454 25b4 82000000 		.4byte	.LVL517
 12455 25b8 560E0000 		.4byte	0xe56
 12456 25bc D2250000 		.4byte	0x25d2
 12457 25c0 0B       		.uleb128 0xb
 12458 25c1 01       		.uleb128 0x1
 12459 25c2 50       		.byte	0x50
 12460 25c3 02       		.uleb128 0x2
 12461 25c4 08       		.byte	0x8
 12462 25c5 20       		.byte	0x20
 12463 25c6 0B       		.uleb128 0xb
 12464 25c7 01       		.uleb128 0x1
 12465 25c8 51       		.byte	0x51
 12466 25c9 01       		.uleb128 0x1
 12467 25ca 30       		.byte	0x30
 12468 25cb 0B       		.uleb128 0xb
 12469 25cc 01       		.uleb128 0x1
ARM GAS  C:\Users\Revanth\AppData\Local\Temp\ccbqjHa5.s 			page 282


 12470 25cd 52       		.byte	0x52
 12471 25ce 02       		.uleb128 0x2
 12472 25cf 74       		.byte	0x74
 12473 25d0 00       		.sleb128 0
 12474 25d1 00       		.byte	0
 12475 25d2 0A       		.uleb128 0xa
 12476 25d3 8C000000 		.4byte	.LVL518
 12477 25d7 560E0000 		.4byte	0xe56
 12478 25db F1250000 		.4byte	0x25f1
 12479 25df 0B       		.uleb128 0xb
 12480 25e0 01       		.uleb128 0x1
 12481 25e1 50       		.byte	0x50
 12482 25e2 02       		.uleb128 0x2
 12483 25e3 08       		.byte	0x8
 12484 25e4 21       		.byte	0x21
 12485 25e5 0B       		.uleb128 0xb
 12486 25e6 01       		.uleb128 0x1
 12487 25e7 51       		.byte	0x51
 12488 25e8 01       		.uleb128 0x1
 12489 25e9 30       		.byte	0x30
 12490 25ea 0B       		.uleb128 0xb
 12491 25eb 01       		.uleb128 0x1
 12492 25ec 52       		.byte	0x52
 12493 25ed 02       		.uleb128 0x2
 12494 25ee 74       		.byte	0x74
 12495 25ef 00       		.sleb128 0
 12496 25f0 00       		.byte	0
 12497 25f1 0A       		.uleb128 0xa
 12498 25f2 96000000 		.4byte	.LVL519
 12499 25f6 560E0000 		.4byte	0xe56
 12500 25fa 10260000 		.4byte	0x2610
 12501 25fe 0B       		.uleb128 0xb
 12502 25ff 01       		.uleb128 0x1
 12503 2600 50       		.byte	0x50
 12504 2601 02       		.uleb128 0x2
 12505 2602 08       		.byte	0x8
 12506 2603 2D       		.byte	0x2d
 12507 2604 0B       		.uleb128 0xb
 12508 2605 01       		.uleb128 0x1
 12509 2606 51       		.byte	0x51
 12510 2607 01       		.uleb128 0x1
 12511 2608 30       		.byte	0x30
 12512 2609 0B       		.uleb128 0xb
 12513 260a 01       		.uleb128 0x1
 12514 260b 52       		.byte	0x52
 12515 260c 02       		.uleb128 0x2
 12516 260d 74       		.byte	0x74
 12517 260e 00       		.sleb128 0
 12518 260f 00       		.byte	0
 12519 2610 09       		.uleb128 0x9
 12520 2611 AE000000 		.4byte	.LVL520
 12521 2615 44480000 		.4byte	0x4844
 12522 2619 0A       		.uleb128 0xa
 12523 261a C2000000 		.4byte	.LVL521
 12524 261e 560E0000 		.4byte	0xe56
 12525 2622 39260000 		.4byte	0x2639
 12526 2626 0B       		.uleb128 0xb
ARM GAS  C:\Users\Revanth\AppData\Local\Temp\ccbqjHa5.s 			page 283


 12527 2627 01       		.uleb128 0x1
 12528 2628 50       		.byte	0x50
 12529 2629 02       		.uleb128 0x2
 12530 262a 08       		.byte	0x8
 12531 262b 21       		.byte	0x21
 12532 262c 0B       		.uleb128 0xb
 12533 262d 01       		.uleb128 0x1
 12534 262e 51       		.byte	0x51
 12535 262f 02       		.uleb128 0x2
 12536 2630 75       		.byte	0x75
 12537 2631 00       		.sleb128 0
 12538 2632 0B       		.uleb128 0xb
 12539 2633 01       		.uleb128 0x1
 12540 2634 52       		.byte	0x52
 12541 2635 02       		.uleb128 0x2
 12542 2636 74       		.byte	0x74
 12543 2637 00       		.sleb128 0
 12544 2638 00       		.byte	0
 12545 2639 0A       		.uleb128 0xa
 12546 263a C8000000 		.4byte	.LVL522
 12547 263e 4E470000 		.4byte	0x474e
 12548 2642 4C260000 		.4byte	0x264c
 12549 2646 0B       		.uleb128 0xb
 12550 2647 01       		.uleb128 0x1
 12551 2648 50       		.byte	0x50
 12552 2649 01       		.uleb128 0x1
 12553 264a 3A       		.byte	0x3a
 12554 264b 00       		.byte	0
 12555 264c 0A       		.uleb128 0xa
 12556 264d D2000000 		.4byte	.LVL523
 12557 2651 560E0000 		.4byte	0xe56
 12558 2655 6C260000 		.4byte	0x266c
 12559 2659 0B       		.uleb128 0xb
 12560 265a 01       		.uleb128 0x1
 12561 265b 50       		.byte	0x50
 12562 265c 02       		.uleb128 0x2
 12563 265d 08       		.byte	0x8
 12564 265e 21       		.byte	0x21
 12565 265f 0B       		.uleb128 0xb
 12566 2660 01       		.uleb128 0x1
 12567 2661 51       		.byte	0x51
 12568 2662 02       		.uleb128 0x2
 12569 2663 75       		.byte	0x75
 12570 2664 00       		.sleb128 0
 12571 2665 0B       		.uleb128 0xb
 12572 2666 01       		.uleb128 0x1
 12573 2667 52       		.byte	0x52
 12574 2668 02       		.uleb128 0x2
 12575 2669 74       		.byte	0x74
 12576 266a 00       		.sleb128 0
 12577 266b 00       		.byte	0
 12578 266c 0A       		.uleb128 0xa
 12579 266d D8000000 		.4byte	.LVL524
 12580 2671 4F480000 		.4byte	0x484f
 12581 2675 80260000 		.4byte	0x2680
 12582 2679 0B       		.uleb128 0xb
 12583 267a 01       		.uleb128 0x1
ARM GAS  C:\Users\Revanth\AppData\Local\Temp\ccbqjHa5.s 			page 284


 12584 267b 50       		.byte	0x50
 12585 267c 02       		.uleb128 0x2
 12586 267d 75       		.byte	0x75
 12587 267e 00       		.sleb128 0
 12588 267f 00       		.byte	0
 12589 2680 0A       		.uleb128 0xa
 12590 2681 F2000000 		.4byte	.LVL525
 12591 2685 4E470000 		.4byte	0x474e
 12592 2689 94260000 		.4byte	0x2694
 12593 268d 0B       		.uleb128 0xb
 12594 268e 01       		.uleb128 0x1
 12595 268f 50       		.byte	0x50
 12596 2690 02       		.uleb128 0x2
 12597 2691 08       		.byte	0x8
 12598 2692 64       		.byte	0x64
 12599 2693 00       		.byte	0
 12600 2694 0A       		.uleb128 0xa
 12601 2695 FA000000 		.4byte	.LVL526
 12602 2699 B3190000 		.4byte	0x19b3
 12603 269d A9260000 		.4byte	0x26a9
 12604 26a1 0B       		.uleb128 0xb
 12605 26a2 01       		.uleb128 0x1
 12606 26a3 50       		.byte	0x50
 12607 26a4 03       		.uleb128 0x3
 12608 26a5 0A       		.byte	0xa
 12609 26a6 00C8     		.2byte	0xc800
 12610 26a8 00       		.byte	0
 12611 26a9 0A       		.uleb128 0xa
 12612 26aa 20010000 		.4byte	.LVL527
 12613 26ae 4E470000 		.4byte	0x474e
 12614 26b2 BD260000 		.4byte	0x26bd
 12615 26b6 0B       		.uleb128 0xb
 12616 26b7 01       		.uleb128 0x1
 12617 26b8 50       		.byte	0x50
 12618 26b9 02       		.uleb128 0x2
 12619 26ba 08       		.byte	0x8
 12620 26bb 64       		.byte	0x64
 12621 26bc 00       		.byte	0
 12622 26bd 0A       		.uleb128 0xa
 12623 26be 2A010000 		.4byte	.LVL528
 12624 26c2 560E0000 		.4byte	0xe56
 12625 26c6 DD260000 		.4byte	0x26dd
 12626 26ca 0B       		.uleb128 0xb
 12627 26cb 01       		.uleb128 0x1
 12628 26cc 50       		.byte	0x50
 12629 26cd 02       		.uleb128 0x2
 12630 26ce 08       		.byte	0x8
 12631 26cf 21       		.byte	0x21
 12632 26d0 0B       		.uleb128 0xb
 12633 26d1 01       		.uleb128 0x1
 12634 26d2 51       		.byte	0x51
 12635 26d3 02       		.uleb128 0x2
 12636 26d4 75       		.byte	0x75
 12637 26d5 00       		.sleb128 0
 12638 26d6 0B       		.uleb128 0xb
 12639 26d7 01       		.uleb128 0x1
 12640 26d8 52       		.byte	0x52
ARM GAS  C:\Users\Revanth\AppData\Local\Temp\ccbqjHa5.s 			page 285


 12641 26d9 02       		.uleb128 0x2
 12642 26da 74       		.byte	0x74
 12643 26db 00       		.sleb128 0
 12644 26dc 00       		.byte	0
 12645 26dd 0A       		.uleb128 0xa
 12646 26de 34010000 		.4byte	.LVL529
 12647 26e2 560E0000 		.4byte	0xe56
 12648 26e6 FD260000 		.4byte	0x26fd
 12649 26ea 0B       		.uleb128 0xb
 12650 26eb 01       		.uleb128 0x1
 12651 26ec 50       		.byte	0x50
 12652 26ed 02       		.uleb128 0x2
 12653 26ee 08       		.byte	0x8
 12654 26ef 2D       		.byte	0x2d
 12655 26f0 0B       		.uleb128 0xb
 12656 26f1 01       		.uleb128 0x1
 12657 26f2 51       		.byte	0x51
 12658 26f3 02       		.uleb128 0x2
 12659 26f4 75       		.byte	0x75
 12660 26f5 00       		.sleb128 0
 12661 26f6 0B       		.uleb128 0xb
 12662 26f7 01       		.uleb128 0x1
 12663 26f8 52       		.byte	0x52
 12664 26f9 02       		.uleb128 0x2
 12665 26fa 74       		.byte	0x74
 12666 26fb 00       		.sleb128 0
 12667 26fc 00       		.byte	0
 12668 26fd 0A       		.uleb128 0xa
 12669 26fe 3C010000 		.4byte	.LVL530
 12670 2702 0B240000 		.4byte	0x240b
 12671 2706 1A270000 		.4byte	0x271a
 12672 270a 0B       		.uleb128 0xb
 12673 270b 01       		.uleb128 0x1
 12674 270c 50       		.byte	0x50
 12675 270d 05       		.uleb128 0x5
 12676 270e 0C       		.byte	0xc
 12677 270f FAD00500 		.4byte	0x5d0fa
 12678 2713 0B       		.uleb128 0xb
 12679 2714 01       		.uleb128 0x1
 12680 2715 51       		.byte	0x51
 12681 2716 02       		.uleb128 0x2
 12682 2717 74       		.byte	0x74
 12683 2718 00       		.sleb128 0
 12684 2719 00       		.byte	0
 12685 271a 0A       		.uleb128 0xa
 12686 271b 46010000 		.4byte	.LVL531
 12687 271f 560E0000 		.4byte	0xe56
 12688 2723 39270000 		.4byte	0x2739
 12689 2727 0B       		.uleb128 0xb
 12690 2728 01       		.uleb128 0x1
 12691 2729 50       		.byte	0x50
 12692 272a 01       		.uleb128 0x1
 12693 272b 3B       		.byte	0x3b
 12694 272c 0B       		.uleb128 0xb
 12695 272d 01       		.uleb128 0x1
 12696 272e 51       		.byte	0x51
 12697 272f 02       		.uleb128 0x2
ARM GAS  C:\Users\Revanth\AppData\Local\Temp\ccbqjHa5.s 			page 286


 12698 2730 08       		.byte	0x8
 12699 2731 96       		.byte	0x96
 12700 2732 0B       		.uleb128 0xb
 12701 2733 01       		.uleb128 0x1
 12702 2734 52       		.byte	0x52
 12703 2735 02       		.uleb128 0x2
 12704 2736 74       		.byte	0x74
 12705 2737 00       		.sleb128 0
 12706 2738 00       		.byte	0
 12707 2739 0A       		.uleb128 0xa
 12708 273a 54010000 		.4byte	.LVL532
 12709 273e 560E0000 		.4byte	0xe56
 12710 2742 58270000 		.4byte	0x2758
 12711 2746 0B       		.uleb128 0xb
 12712 2747 01       		.uleb128 0x1
 12713 2748 50       		.byte	0x50
 12714 2749 01       		.uleb128 0x1
 12715 274a 40       		.byte	0x40
 12716 274b 0B       		.uleb128 0xb
 12717 274c 01       		.uleb128 0x1
 12718 274d 51       		.byte	0x51
 12719 274e 02       		.uleb128 0x2
 12720 274f 79       		.byte	0x79
 12721 2750 00       		.sleb128 0
 12722 2751 0B       		.uleb128 0xb
 12723 2752 01       		.uleb128 0x1
 12724 2753 52       		.byte	0x52
 12725 2754 02       		.uleb128 0x2
 12726 2755 74       		.byte	0x74
 12727 2756 00       		.sleb128 0
 12728 2757 00       		.byte	0
 12729 2758 0A       		.uleb128 0xa
 12730 2759 5A010000 		.4byte	.LVL533
 12731 275d 4F480000 		.4byte	0x484f
 12732 2761 6C270000 		.4byte	0x276c
 12733 2765 0B       		.uleb128 0xb
 12734 2766 01       		.uleb128 0x1
 12735 2767 50       		.byte	0x50
 12736 2768 02       		.uleb128 0x2
 12737 2769 75       		.byte	0x75
 12738 276a 00       		.sleb128 0
 12739 276b 00       		.byte	0
 12740 276c 0A       		.uleb128 0xa
 12741 276d 6C010000 		.4byte	.LVL534
 12742 2771 E8030000 		.4byte	0x3e8
 12743 2775 83270000 		.4byte	0x2783
 12744 2779 0B       		.uleb128 0xb
 12745 277a 01       		.uleb128 0x1
 12746 277b 50       		.byte	0x50
 12747 277c 05       		.uleb128 0x5
 12748 277d 03       		.byte	0x3
 12749 277e 80040000 		.4byte	.LC37
 12750 2782 00       		.byte	0
 12751 2783 0A       		.uleb128 0xa
 12752 2784 78010000 		.4byte	.LVL535
 12753 2788 560E0000 		.4byte	0xe56
 12754 278c A2270000 		.4byte	0x27a2
ARM GAS  C:\Users\Revanth\AppData\Local\Temp\ccbqjHa5.s 			page 287


 12755 2790 0B       		.uleb128 0xb
 12756 2791 01       		.uleb128 0x1
 12757 2792 50       		.byte	0x50
 12758 2793 01       		.uleb128 0x1
 12759 2794 40       		.byte	0x40
 12760 2795 0B       		.uleb128 0xb
 12761 2796 01       		.uleb128 0x1
 12762 2797 51       		.byte	0x51
 12763 2798 02       		.uleb128 0x2
 12764 2799 74       		.byte	0x74
 12765 279a 00       		.sleb128 0
 12766 279b 0B       		.uleb128 0xb
 12767 279c 01       		.uleb128 0x1
 12768 279d 52       		.byte	0x52
 12769 279e 02       		.uleb128 0x2
 12770 279f 77       		.byte	0x77
 12771 27a0 00       		.sleb128 0
 12772 27a1 00       		.byte	0
 12773 27a2 0A       		.uleb128 0xa
 12774 27a3 82010000 		.4byte	.LVL536
 12775 27a7 560E0000 		.4byte	0xe56
 12776 27ab C0270000 		.4byte	0x27c0
 12777 27af 0B       		.uleb128 0xb
 12778 27b0 01       		.uleb128 0x1
 12779 27b1 50       		.byte	0x50
 12780 27b2 01       		.uleb128 0x1
 12781 27b3 40       		.byte	0x40
 12782 27b4 0B       		.uleb128 0xb
 12783 27b5 01       		.uleb128 0x1
 12784 27b6 51       		.byte	0x51
 12785 27b7 02       		.uleb128 0x2
 12786 27b8 79       		.byte	0x79
 12787 27b9 00       		.sleb128 0
 12788 27ba 0B       		.uleb128 0xb
 12789 27bb 01       		.uleb128 0x1
 12790 27bc 52       		.byte	0x52
 12791 27bd 01       		.uleb128 0x1
 12792 27be 32       		.byte	0x32
 12793 27bf 00       		.byte	0
 12794 27c0 0A       		.uleb128 0xa
 12795 27c1 8C010000 		.4byte	.LVL537
 12796 27c5 560E0000 		.4byte	0xe56
 12797 27c9 DF270000 		.4byte	0x27df
 12798 27cd 0B       		.uleb128 0xb
 12799 27ce 01       		.uleb128 0x1
 12800 27cf 50       		.byte	0x50
 12801 27d0 01       		.uleb128 0x1
 12802 27d1 40       		.byte	0x40
 12803 27d2 0B       		.uleb128 0xb
 12804 27d3 01       		.uleb128 0x1
 12805 27d4 51       		.byte	0x51
 12806 27d5 02       		.uleb128 0x2
 12807 27d6 74       		.byte	0x74
 12808 27d7 00       		.sleb128 0
 12809 27d8 0B       		.uleb128 0xb
 12810 27d9 01       		.uleb128 0x1
 12811 27da 52       		.byte	0x52
ARM GAS  C:\Users\Revanth\AppData\Local\Temp\ccbqjHa5.s 			page 288


 12812 27db 02       		.uleb128 0x2
 12813 27dc 75       		.byte	0x75
 12814 27dd 00       		.sleb128 0
 12815 27de 00       		.byte	0
 12816 27df 0C       		.uleb128 0xc
 12817 27e0 96010000 		.4byte	.LVL538
 12818 27e4 560E0000 		.4byte	0xe56
 12819 27e8 0B       		.uleb128 0xb
 12820 27e9 01       		.uleb128 0x1
 12821 27ea 50       		.byte	0x50
 12822 27eb 01       		.uleb128 0x1
 12823 27ec 40       		.byte	0x40
 12824 27ed 0B       		.uleb128 0xb
 12825 27ee 01       		.uleb128 0x1
 12826 27ef 51       		.byte	0x51
 12827 27f0 02       		.uleb128 0x2
 12828 27f1 74       		.byte	0x74
 12829 27f2 00       		.sleb128 0
 12830 27f3 0B       		.uleb128 0xb
 12831 27f4 01       		.uleb128 0x1
 12832 27f5 52       		.byte	0x52
 12833 27f6 01       		.uleb128 0x1
 12834 27f7 33       		.byte	0x33
 12835 27f8 00       		.byte	0
 12836 27f9 00       		.byte	0
 12837 27fa 0D       		.uleb128 0xd
 12838 27fb 8B040000 		.4byte	.LASF93
 12839 27ff 01       		.byte	0x1
 12840 2800 2701     		.2byte	0x127
 12841 2802 00000000 		.4byte	.LFB67
 12842 2806 C0010000 		.4byte	.LFE67-.LFB67
 12843 280a 01       		.uleb128 0x1
 12844 280b 9C       		.byte	0x9c
 12845 280c 992B0000 		.4byte	0x2b99
 12846 2810 0E       		.uleb128 0xe
 12847 2811 0F060000 		.4byte	.LASF56
 12848 2815 01       		.byte	0x1
 12849 2816 2701     		.2byte	0x127
 12850 2818 97000000 		.4byte	0x97
 12851 281c B7090000 		.4byte	.LLST53
 12852 2820 0A       		.uleb128 0xa
 12853 2821 10000000 		.4byte	.LVL541
 12854 2825 560E0000 		.4byte	0xe56
 12855 2829 41280000 		.4byte	0x2841
 12856 282d 0B       		.uleb128 0xb
 12857 282e 01       		.uleb128 0x1
 12858 282f 50       		.byte	0x50
 12859 2830 01       		.uleb128 0x1
 12860 2831 40       		.byte	0x40
 12861 2832 0B       		.uleb128 0xb
 12862 2833 01       		.uleb128 0x1
 12863 2834 51       		.byte	0x51
 12864 2835 05       		.uleb128 0x5
 12865 2836 0C       		.byte	0xc
 12866 2837 03020700 		.4byte	0x70203
 12867 283b 0B       		.uleb128 0xb
 12868 283c 01       		.uleb128 0x1
ARM GAS  C:\Users\Revanth\AppData\Local\Temp\ccbqjHa5.s 			page 289


 12869 283d 52       		.byte	0x52
 12870 283e 01       		.uleb128 0x1
 12871 283f 31       		.byte	0x31
 12872 2840 00       		.byte	0
 12873 2841 0A       		.uleb128 0xa
 12874 2842 1A000000 		.4byte	.LVL542
 12875 2846 0B240000 		.4byte	0x240b
 12876 284a 5D280000 		.4byte	0x285d
 12877 284e 0B       		.uleb128 0xb
 12878 284f 01       		.uleb128 0x1
 12879 2850 50       		.byte	0x50
 12880 2851 04       		.uleb128 0x4
 12881 2852 08       		.byte	0x8
 12882 2853 96       		.byte	0x96
 12883 2854 3B       		.byte	0x3b
 12884 2855 24       		.byte	0x24
 12885 2856 0B       		.uleb128 0xb
 12886 2857 01       		.uleb128 0x1
 12887 2858 51       		.byte	0x51
 12888 2859 02       		.uleb128 0x2
 12889 285a 74       		.byte	0x74
 12890 285b 00       		.sleb128 0
 12891 285c 00       		.byte	0
 12892 285d 0A       		.uleb128 0xa
 12893 285e 24000000 		.4byte	.LVL543
 12894 2862 560E0000 		.4byte	0xe56
 12895 2866 7C280000 		.4byte	0x287c
 12896 286a 0B       		.uleb128 0xb
 12897 286b 01       		.uleb128 0x1
 12898 286c 50       		.byte	0x50
 12899 286d 02       		.uleb128 0x2
 12900 286e 08       		.byte	0x8
 12901 286f 20       		.byte	0x20
 12902 2870 0B       		.uleb128 0xb
 12903 2871 01       		.uleb128 0x1
 12904 2872 51       		.byte	0x51
 12905 2873 01       		.uleb128 0x1
 12906 2874 32       		.byte	0x32
 12907 2875 0B       		.uleb128 0xb
 12908 2876 01       		.uleb128 0x1
 12909 2877 52       		.byte	0x52
 12910 2878 02       		.uleb128 0x2
 12911 2879 74       		.byte	0x74
 12912 287a 00       		.sleb128 0
 12913 287b 00       		.byte	0
 12914 287c 0A       		.uleb128 0xa
 12915 287d 2A000000 		.4byte	.LVL544
 12916 2881 4E470000 		.4byte	0x474e
 12917 2885 90280000 		.4byte	0x2890
 12918 2889 0B       		.uleb128 0xb
 12919 288a 01       		.uleb128 0x1
 12920 288b 50       		.byte	0x50
 12921 288c 02       		.uleb128 0x2
 12922 288d 08       		.byte	0x8
 12923 288e 32       		.byte	0x32
 12924 288f 00       		.byte	0
 12925 2890 0A       		.uleb128 0xa
ARM GAS  C:\Users\Revanth\AppData\Local\Temp\ccbqjHa5.s 			page 290


 12926 2891 36000000 		.4byte	.LVL545
 12927 2895 C00B0000 		.4byte	0xbc0
 12928 2899 AF280000 		.4byte	0x28af
 12929 289d 0B       		.uleb128 0xb
 12930 289e 01       		.uleb128 0x1
 12931 289f 50       		.byte	0x50
 12932 28a0 01       		.uleb128 0x1
 12933 28a1 34       		.byte	0x34
 12934 28a2 0B       		.uleb128 0xb
 12935 28a3 01       		.uleb128 0x1
 12936 28a4 51       		.byte	0x51
 12937 28a5 02       		.uleb128 0x2
 12938 28a6 74       		.byte	0x74
 12939 28a7 00       		.sleb128 0
 12940 28a8 0B       		.uleb128 0xb
 12941 28a9 01       		.uleb128 0x1
 12942 28aa 52       		.byte	0x52
 12943 28ab 02       		.uleb128 0x2
 12944 28ac 75       		.byte	0x75
 12945 28ad 00       		.sleb128 0
 12946 28ae 00       		.byte	0
 12947 28af 0A       		.uleb128 0xa
 12948 28b0 3E000000 		.4byte	.LVL546
 12949 28b4 4E470000 		.4byte	0x474e
 12950 28b8 C4280000 		.4byte	0x28c4
 12951 28bc 0B       		.uleb128 0xb
 12952 28bd 01       		.uleb128 0x1
 12953 28be 50       		.byte	0x50
 12954 28bf 03       		.uleb128 0x3
 12955 28c0 0A       		.byte	0xa
 12956 28c1 F401     		.2byte	0x1f4
 12957 28c3 00       		.byte	0
 12958 28c4 0A       		.uleb128 0xa
 12959 28c5 48000000 		.4byte	.LVL547
 12960 28c9 C00B0000 		.4byte	0xbc0
 12961 28cd E3280000 		.4byte	0x28e3
 12962 28d1 0B       		.uleb128 0xb
 12963 28d2 01       		.uleb128 0x1
 12964 28d3 50       		.byte	0x50
 12965 28d4 01       		.uleb128 0x1
 12966 28d5 34       		.byte	0x34
 12967 28d6 0B       		.uleb128 0xb
 12968 28d7 01       		.uleb128 0x1
 12969 28d8 51       		.byte	0x51
 12970 28d9 02       		.uleb128 0x2
 12971 28da 74       		.byte	0x74
 12972 28db 00       		.sleb128 0
 12973 28dc 0B       		.uleb128 0xb
 12974 28dd 01       		.uleb128 0x1
 12975 28de 52       		.byte	0x52
 12976 28df 02       		.uleb128 0x2
 12977 28e0 75       		.byte	0x75
 12978 28e1 00       		.sleb128 0
 12979 28e2 00       		.byte	0
 12980 28e3 09       		.uleb128 0x9
 12981 28e4 4E000000 		.4byte	.LVL548
 12982 28e8 2E480000 		.4byte	0x482e
ARM GAS  C:\Users\Revanth\AppData\Local\Temp\ccbqjHa5.s 			page 291


 12983 28ec 0A       		.uleb128 0xa
 12984 28ed 54000000 		.4byte	.LVL549
 12985 28f1 39480000 		.4byte	0x4839
 12986 28f5 03290000 		.4byte	0x2903
 12987 28f9 0B       		.uleb128 0xb
 12988 28fa 01       		.uleb128 0x1
 12989 28fb 50       		.byte	0x50
 12990 28fc 05       		.uleb128 0x5
 12991 28fd 03       		.byte	0x3
 12992 28fe 00000000 		.4byte	wait_interrupt_Handler
 12993 2902 00       		.byte	0
 12994 2903 0A       		.uleb128 0xa
 12995 2904 5E000000 		.4byte	.LVL550
 12996 2908 C00B0000 		.4byte	0xbc0
 12997 290c 22290000 		.4byte	0x2922
 12998 2910 0B       		.uleb128 0xb
 12999 2911 01       		.uleb128 0x1
 13000 2912 50       		.byte	0x50
 13001 2913 01       		.uleb128 0x1
 13002 2914 34       		.byte	0x34
 13003 2915 0B       		.uleb128 0xb
 13004 2916 01       		.uleb128 0x1
 13005 2917 51       		.byte	0x51
 13006 2918 02       		.uleb128 0x2
 13007 2919 74       		.byte	0x74
 13008 291a 00       		.sleb128 0
 13009 291b 0B       		.uleb128 0xb
 13010 291c 01       		.uleb128 0x1
 13011 291d 52       		.byte	0x52
 13012 291e 02       		.uleb128 0x2
 13013 291f 75       		.byte	0x75
 13014 2920 00       		.sleb128 0
 13015 2921 00       		.byte	0
 13016 2922 0A       		.uleb128 0xa
 13017 2923 6E000000 		.4byte	.LVL551
 13018 2927 45060000 		.4byte	0x645
 13019 292b 35290000 		.4byte	0x2935
 13020 292f 0B       		.uleb128 0xb
 13021 2930 01       		.uleb128 0x1
 13022 2931 50       		.byte	0x50
 13023 2932 01       		.uleb128 0x1
 13024 2933 3B       		.byte	0x3b
 13025 2934 00       		.byte	0
 13026 2935 09       		.uleb128 0x9
 13027 2936 72000000 		.4byte	.LVL552
 13028 293a 44480000 		.4byte	0x4844
 13029 293e 0A       		.uleb128 0xa
 13030 293f 7C000000 		.4byte	.LVL553
 13031 2943 560E0000 		.4byte	0xe56
 13032 2947 5D290000 		.4byte	0x295d
 13033 294b 0B       		.uleb128 0xb
 13034 294c 01       		.uleb128 0x1
 13035 294d 50       		.byte	0x50
 13036 294e 02       		.uleb128 0x2
 13037 294f 08       		.byte	0x8
 13038 2950 20       		.byte	0x20
 13039 2951 0B       		.uleb128 0xb
ARM GAS  C:\Users\Revanth\AppData\Local\Temp\ccbqjHa5.s 			page 292


 13040 2952 01       		.uleb128 0x1
 13041 2953 51       		.byte	0x51
 13042 2954 01       		.uleb128 0x1
 13043 2955 30       		.byte	0x30
 13044 2956 0B       		.uleb128 0xb
 13045 2957 01       		.uleb128 0x1
 13046 2958 52       		.byte	0x52
 13047 2959 02       		.uleb128 0x2
 13048 295a 74       		.byte	0x74
 13049 295b 00       		.sleb128 0
 13050 295c 00       		.byte	0
 13051 295d 0A       		.uleb128 0xa
 13052 295e 86000000 		.4byte	.LVL554
 13053 2962 560E0000 		.4byte	0xe56
 13054 2966 7C290000 		.4byte	0x297c
 13055 296a 0B       		.uleb128 0xb
 13056 296b 01       		.uleb128 0x1
 13057 296c 50       		.byte	0x50
 13058 296d 02       		.uleb128 0x2
 13059 296e 08       		.byte	0x8
 13060 296f 21       		.byte	0x21
 13061 2970 0B       		.uleb128 0xb
 13062 2971 01       		.uleb128 0x1
 13063 2972 51       		.byte	0x51
 13064 2973 01       		.uleb128 0x1
 13065 2974 30       		.byte	0x30
 13066 2975 0B       		.uleb128 0xb
 13067 2976 01       		.uleb128 0x1
 13068 2977 52       		.byte	0x52
 13069 2978 02       		.uleb128 0x2
 13070 2979 74       		.byte	0x74
 13071 297a 00       		.sleb128 0
 13072 297b 00       		.byte	0
 13073 297c 0A       		.uleb128 0xa
 13074 297d 90000000 		.4byte	.LVL555
 13075 2981 560E0000 		.4byte	0xe56
 13076 2985 9B290000 		.4byte	0x299b
 13077 2989 0B       		.uleb128 0xb
 13078 298a 01       		.uleb128 0x1
 13079 298b 50       		.byte	0x50
 13080 298c 02       		.uleb128 0x2
 13081 298d 08       		.byte	0x8
 13082 298e 2D       		.byte	0x2d
 13083 298f 0B       		.uleb128 0xb
 13084 2990 01       		.uleb128 0x1
 13085 2991 51       		.byte	0x51
 13086 2992 01       		.uleb128 0x1
 13087 2993 30       		.byte	0x30
 13088 2994 0B       		.uleb128 0xb
 13089 2995 01       		.uleb128 0x1
 13090 2996 52       		.byte	0x52
 13091 2997 02       		.uleb128 0x2
 13092 2998 74       		.byte	0x74
 13093 2999 00       		.sleb128 0
 13094 299a 00       		.byte	0
 13095 299b 0A       		.uleb128 0xa
 13096 299c A0000000 		.4byte	.LVL556
ARM GAS  C:\Users\Revanth\AppData\Local\Temp\ccbqjHa5.s 			page 293


 13097 29a0 4E470000 		.4byte	0x474e
 13098 29a4 AF290000 		.4byte	0x29af
 13099 29a8 0B       		.uleb128 0xb
 13100 29a9 01       		.uleb128 0x1
 13101 29aa 50       		.byte	0x50
 13102 29ab 02       		.uleb128 0x2
 13103 29ac 08       		.byte	0x8
 13104 29ad 64       		.byte	0x64
 13105 29ae 00       		.byte	0
 13106 29af 09       		.uleb128 0x9
 13107 29b0 AE000000 		.4byte	.LVL557
 13108 29b4 44480000 		.4byte	0x4844
 13109 29b8 0A       		.uleb128 0xa
 13110 29b9 C2000000 		.4byte	.LVL558
 13111 29bd 560E0000 		.4byte	0xe56
 13112 29c1 D8290000 		.4byte	0x29d8
 13113 29c5 0B       		.uleb128 0xb
 13114 29c6 01       		.uleb128 0x1
 13115 29c7 50       		.byte	0x50
 13116 29c8 02       		.uleb128 0x2
 13117 29c9 08       		.byte	0x8
 13118 29ca 21       		.byte	0x21
 13119 29cb 0B       		.uleb128 0xb
 13120 29cc 01       		.uleb128 0x1
 13121 29cd 51       		.byte	0x51
 13122 29ce 02       		.uleb128 0x2
 13123 29cf 75       		.byte	0x75
 13124 29d0 00       		.sleb128 0
 13125 29d1 0B       		.uleb128 0xb
 13126 29d2 01       		.uleb128 0x1
 13127 29d3 52       		.byte	0x52
 13128 29d4 02       		.uleb128 0x2
 13129 29d5 74       		.byte	0x74
 13130 29d6 00       		.sleb128 0
 13131 29d7 00       		.byte	0
 13132 29d8 0A       		.uleb128 0xa
 13133 29d9 C8000000 		.4byte	.LVL559
 13134 29dd 4E470000 		.4byte	0x474e
 13135 29e1 EB290000 		.4byte	0x29eb
 13136 29e5 0B       		.uleb128 0xb
 13137 29e6 01       		.uleb128 0x1
 13138 29e7 50       		.byte	0x50
 13139 29e8 01       		.uleb128 0x1
 13140 29e9 3A       		.byte	0x3a
 13141 29ea 00       		.byte	0
 13142 29eb 0A       		.uleb128 0xa
 13143 29ec D2000000 		.4byte	.LVL560
 13144 29f0 560E0000 		.4byte	0xe56
 13145 29f4 0B2A0000 		.4byte	0x2a0b
 13146 29f8 0B       		.uleb128 0xb
 13147 29f9 01       		.uleb128 0x1
 13148 29fa 50       		.byte	0x50
 13149 29fb 02       		.uleb128 0x2
 13150 29fc 08       		.byte	0x8
 13151 29fd 21       		.byte	0x21
 13152 29fe 0B       		.uleb128 0xb
 13153 29ff 01       		.uleb128 0x1
ARM GAS  C:\Users\Revanth\AppData\Local\Temp\ccbqjHa5.s 			page 294


 13154 2a00 51       		.byte	0x51
 13155 2a01 02       		.uleb128 0x2
 13156 2a02 75       		.byte	0x75
 13157 2a03 00       		.sleb128 0
 13158 2a04 0B       		.uleb128 0xb
 13159 2a05 01       		.uleb128 0x1
 13160 2a06 52       		.byte	0x52
 13161 2a07 02       		.uleb128 0x2
 13162 2a08 74       		.byte	0x74
 13163 2a09 00       		.sleb128 0
 13164 2a0a 00       		.byte	0
 13165 2a0b 0A       		.uleb128 0xa
 13166 2a0c D8000000 		.4byte	.LVL561
 13167 2a10 5A480000 		.4byte	0x485a
 13168 2a14 1F2A0000 		.4byte	0x2a1f
 13169 2a18 0B       		.uleb128 0xb
 13170 2a19 01       		.uleb128 0x1
 13171 2a1a 50       		.byte	0x50
 13172 2a1b 02       		.uleb128 0x2
 13173 2a1c 75       		.byte	0x75
 13174 2a1d 00       		.sleb128 0
 13175 2a1e 00       		.byte	0
 13176 2a1f 0A       		.uleb128 0xa
 13177 2a20 F2000000 		.4byte	.LVL562
 13178 2a24 4E470000 		.4byte	0x474e
 13179 2a28 332A0000 		.4byte	0x2a33
 13180 2a2c 0B       		.uleb128 0xb
 13181 2a2d 01       		.uleb128 0x1
 13182 2a2e 50       		.byte	0x50
 13183 2a2f 02       		.uleb128 0x2
 13184 2a30 08       		.byte	0x8
 13185 2a31 64       		.byte	0x64
 13186 2a32 00       		.byte	0
 13187 2a33 0A       		.uleb128 0xa
 13188 2a34 FA000000 		.4byte	.LVL563
 13189 2a38 431C0000 		.4byte	0x1c43
 13190 2a3c 482A0000 		.4byte	0x2a48
 13191 2a40 0B       		.uleb128 0xb
 13192 2a41 01       		.uleb128 0x1
 13193 2a42 50       		.byte	0x50
 13194 2a43 03       		.uleb128 0x3
 13195 2a44 0A       		.byte	0xa
 13196 2a45 004B     		.2byte	0x4b00
 13197 2a47 00       		.byte	0
 13198 2a48 0A       		.uleb128 0xa
 13199 2a49 20010000 		.4byte	.LVL564
 13200 2a4d 4E470000 		.4byte	0x474e
 13201 2a51 5C2A0000 		.4byte	0x2a5c
 13202 2a55 0B       		.uleb128 0xb
 13203 2a56 01       		.uleb128 0x1
 13204 2a57 50       		.byte	0x50
 13205 2a58 02       		.uleb128 0x2
 13206 2a59 08       		.byte	0x8
 13207 2a5a 64       		.byte	0x64
 13208 2a5b 00       		.byte	0
 13209 2a5c 0A       		.uleb128 0xa
 13210 2a5d 2A010000 		.4byte	.LVL565
ARM GAS  C:\Users\Revanth\AppData\Local\Temp\ccbqjHa5.s 			page 295


 13211 2a61 560E0000 		.4byte	0xe56
 13212 2a65 7C2A0000 		.4byte	0x2a7c
 13213 2a69 0B       		.uleb128 0xb
 13214 2a6a 01       		.uleb128 0x1
 13215 2a6b 50       		.byte	0x50
 13216 2a6c 02       		.uleb128 0x2
 13217 2a6d 08       		.byte	0x8
 13218 2a6e 21       		.byte	0x21
 13219 2a6f 0B       		.uleb128 0xb
 13220 2a70 01       		.uleb128 0x1
 13221 2a71 51       		.byte	0x51
 13222 2a72 02       		.uleb128 0x2
 13223 2a73 75       		.byte	0x75
 13224 2a74 00       		.sleb128 0
 13225 2a75 0B       		.uleb128 0xb
 13226 2a76 01       		.uleb128 0x1
 13227 2a77 52       		.byte	0x52
 13228 2a78 02       		.uleb128 0x2
 13229 2a79 74       		.byte	0x74
 13230 2a7a 00       		.sleb128 0
 13231 2a7b 00       		.byte	0
 13232 2a7c 0A       		.uleb128 0xa
 13233 2a7d 34010000 		.4byte	.LVL566
 13234 2a81 560E0000 		.4byte	0xe56
 13235 2a85 9C2A0000 		.4byte	0x2a9c
 13236 2a89 0B       		.uleb128 0xb
 13237 2a8a 01       		.uleb128 0x1
 13238 2a8b 50       		.byte	0x50
 13239 2a8c 02       		.uleb128 0x2
 13240 2a8d 08       		.byte	0x8
 13241 2a8e 2D       		.byte	0x2d
 13242 2a8f 0B       		.uleb128 0xb
 13243 2a90 01       		.uleb128 0x1
 13244 2a91 51       		.byte	0x51
 13245 2a92 02       		.uleb128 0x2
 13246 2a93 75       		.byte	0x75
 13247 2a94 00       		.sleb128 0
 13248 2a95 0B       		.uleb128 0xb
 13249 2a96 01       		.uleb128 0x1
 13250 2a97 52       		.byte	0x52
 13251 2a98 02       		.uleb128 0x2
 13252 2a99 74       		.byte	0x74
 13253 2a9a 00       		.sleb128 0
 13254 2a9b 00       		.byte	0
 13255 2a9c 0A       		.uleb128 0xa
 13256 2a9d 3C010000 		.4byte	.LVL567
 13257 2aa1 0B240000 		.4byte	0x240b
 13258 2aa5 B92A0000 		.4byte	0x2ab9
 13259 2aa9 0B       		.uleb128 0xb
 13260 2aaa 01       		.uleb128 0x1
 13261 2aab 50       		.byte	0x50
 13262 2aac 05       		.uleb128 0x5
 13263 2aad 0C       		.byte	0xc
 13264 2aae FAD00500 		.4byte	0x5d0fa
 13265 2ab2 0B       		.uleb128 0xb
 13266 2ab3 01       		.uleb128 0x1
 13267 2ab4 51       		.byte	0x51
ARM GAS  C:\Users\Revanth\AppData\Local\Temp\ccbqjHa5.s 			page 296


 13268 2ab5 02       		.uleb128 0x2
 13269 2ab6 74       		.byte	0x74
 13270 2ab7 00       		.sleb128 0
 13271 2ab8 00       		.byte	0
 13272 2ab9 0A       		.uleb128 0xa
 13273 2aba 46010000 		.4byte	.LVL568
 13274 2abe 560E0000 		.4byte	0xe56
 13275 2ac2 D82A0000 		.4byte	0x2ad8
 13276 2ac6 0B       		.uleb128 0xb
 13277 2ac7 01       		.uleb128 0x1
 13278 2ac8 50       		.byte	0x50
 13279 2ac9 01       		.uleb128 0x1
 13280 2aca 3B       		.byte	0x3b
 13281 2acb 0B       		.uleb128 0xb
 13282 2acc 01       		.uleb128 0x1
 13283 2acd 51       		.byte	0x51
 13284 2ace 02       		.uleb128 0x2
 13285 2acf 75       		.byte	0x75
 13286 2ad0 00       		.sleb128 0
 13287 2ad1 0B       		.uleb128 0xb
 13288 2ad2 01       		.uleb128 0x1
 13289 2ad3 52       		.byte	0x52
 13290 2ad4 02       		.uleb128 0x2
 13291 2ad5 74       		.byte	0x74
 13292 2ad6 00       		.sleb128 0
 13293 2ad7 00       		.byte	0
 13294 2ad8 0A       		.uleb128 0xa
 13295 2ad9 54010000 		.4byte	.LVL569
 13296 2add 560E0000 		.4byte	0xe56
 13297 2ae1 F72A0000 		.4byte	0x2af7
 13298 2ae5 0B       		.uleb128 0xb
 13299 2ae6 01       		.uleb128 0x1
 13300 2ae7 50       		.byte	0x50
 13301 2ae8 01       		.uleb128 0x1
 13302 2ae9 40       		.byte	0x40
 13303 2aea 0B       		.uleb128 0xb
 13304 2aeb 01       		.uleb128 0x1
 13305 2aec 51       		.byte	0x51
 13306 2aed 02       		.uleb128 0x2
 13307 2aee 79       		.byte	0x79
 13308 2aef 00       		.sleb128 0
 13309 2af0 0B       		.uleb128 0xb
 13310 2af1 01       		.uleb128 0x1
 13311 2af2 52       		.byte	0x52
 13312 2af3 02       		.uleb128 0x2
 13313 2af4 74       		.byte	0x74
 13314 2af5 00       		.sleb128 0
 13315 2af6 00       		.byte	0
 13316 2af7 0A       		.uleb128 0xa
 13317 2af8 5A010000 		.4byte	.LVL570
 13318 2afc 5A480000 		.4byte	0x485a
 13319 2b00 0B2B0000 		.4byte	0x2b0b
 13320 2b04 0B       		.uleb128 0xb
 13321 2b05 01       		.uleb128 0x1
 13322 2b06 50       		.byte	0x50
 13323 2b07 02       		.uleb128 0x2
 13324 2b08 75       		.byte	0x75
ARM GAS  C:\Users\Revanth\AppData\Local\Temp\ccbqjHa5.s 			page 297


 13325 2b09 00       		.sleb128 0
 13326 2b0a 00       		.byte	0
 13327 2b0b 0A       		.uleb128 0xa
 13328 2b0c 6C010000 		.4byte	.LVL571
 13329 2b10 E8030000 		.4byte	0x3e8
 13330 2b14 222B0000 		.4byte	0x2b22
 13331 2b18 0B       		.uleb128 0xb
 13332 2b19 01       		.uleb128 0x1
 13333 2b1a 50       		.byte	0x50
 13334 2b1b 05       		.uleb128 0x5
 13335 2b1c 03       		.byte	0x3
 13336 2b1d 94040000 		.4byte	.LC38
 13337 2b21 00       		.byte	0
 13338 2b22 0A       		.uleb128 0xa
 13339 2b23 78010000 		.4byte	.LVL572
 13340 2b27 560E0000 		.4byte	0xe56
 13341 2b2b 412B0000 		.4byte	0x2b41
 13342 2b2f 0B       		.uleb128 0xb
 13343 2b30 01       		.uleb128 0x1
 13344 2b31 50       		.byte	0x50
 13345 2b32 01       		.uleb128 0x1
 13346 2b33 40       		.byte	0x40
 13347 2b34 0B       		.uleb128 0xb
 13348 2b35 01       		.uleb128 0x1
 13349 2b36 51       		.byte	0x51
 13350 2b37 02       		.uleb128 0x2
 13351 2b38 74       		.byte	0x74
 13352 2b39 00       		.sleb128 0
 13353 2b3a 0B       		.uleb128 0xb
 13354 2b3b 01       		.uleb128 0x1
 13355 2b3c 52       		.byte	0x52
 13356 2b3d 02       		.uleb128 0x2
 13357 2b3e 77       		.byte	0x77
 13358 2b3f 00       		.sleb128 0
 13359 2b40 00       		.byte	0
 13360 2b41 0A       		.uleb128 0xa
 13361 2b42 82010000 		.4byte	.LVL573
 13362 2b46 560E0000 		.4byte	0xe56
 13363 2b4a 5F2B0000 		.4byte	0x2b5f
 13364 2b4e 0B       		.uleb128 0xb
 13365 2b4f 01       		.uleb128 0x1
 13366 2b50 50       		.byte	0x50
 13367 2b51 01       		.uleb128 0x1
 13368 2b52 40       		.byte	0x40
 13369 2b53 0B       		.uleb128 0xb
 13370 2b54 01       		.uleb128 0x1
 13371 2b55 51       		.byte	0x51
 13372 2b56 02       		.uleb128 0x2
 13373 2b57 79       		.byte	0x79
 13374 2b58 00       		.sleb128 0
 13375 2b59 0B       		.uleb128 0xb
 13376 2b5a 01       		.uleb128 0x1
 13377 2b5b 52       		.byte	0x52
 13378 2b5c 01       		.uleb128 0x1
 13379 2b5d 32       		.byte	0x32
 13380 2b5e 00       		.byte	0
 13381 2b5f 0A       		.uleb128 0xa
ARM GAS  C:\Users\Revanth\AppData\Local\Temp\ccbqjHa5.s 			page 298


 13382 2b60 8C010000 		.4byte	.LVL574
 13383 2b64 560E0000 		.4byte	0xe56
 13384 2b68 7E2B0000 		.4byte	0x2b7e
 13385 2b6c 0B       		.uleb128 0xb
 13386 2b6d 01       		.uleb128 0x1
 13387 2b6e 50       		.byte	0x50
 13388 2b6f 01       		.uleb128 0x1
 13389 2b70 40       		.byte	0x40
 13390 2b71 0B       		.uleb128 0xb
 13391 2b72 01       		.uleb128 0x1
 13392 2b73 51       		.byte	0x51
 13393 2b74 02       		.uleb128 0x2
 13394 2b75 74       		.byte	0x74
 13395 2b76 00       		.sleb128 0
 13396 2b77 0B       		.uleb128 0xb
 13397 2b78 01       		.uleb128 0x1
 13398 2b79 52       		.byte	0x52
 13399 2b7a 02       		.uleb128 0x2
 13400 2b7b 75       		.byte	0x75
 13401 2b7c 00       		.sleb128 0
 13402 2b7d 00       		.byte	0
 13403 2b7e 0C       		.uleb128 0xc
 13404 2b7f 96010000 		.4byte	.LVL575
 13405 2b83 560E0000 		.4byte	0xe56
 13406 2b87 0B       		.uleb128 0xb
 13407 2b88 01       		.uleb128 0x1
 13408 2b89 50       		.byte	0x50
 13409 2b8a 01       		.uleb128 0x1
 13410 2b8b 40       		.byte	0x40
 13411 2b8c 0B       		.uleb128 0xb
 13412 2b8d 01       		.uleb128 0x1
 13413 2b8e 51       		.byte	0x51
 13414 2b8f 02       		.uleb128 0x2
 13415 2b90 74       		.byte	0x74
 13416 2b91 00       		.sleb128 0
 13417 2b92 0B       		.uleb128 0xb
 13418 2b93 01       		.uleb128 0x1
 13419 2b94 52       		.byte	0x52
 13420 2b95 01       		.uleb128 0x1
 13421 2b96 33       		.byte	0x33
 13422 2b97 00       		.byte	0
 13423 2b98 00       		.byte	0
 13424 2b99 0D       		.uleb128 0xd
 13425 2b9a 91040000 		.4byte	.LASF94
 13426 2b9e 01       		.byte	0x1
 13427 2b9f AB01     		.2byte	0x1ab
 13428 2ba1 00000000 		.4byte	.LFB68
 13429 2ba5 B4010000 		.4byte	.LFE68-.LFB68
 13430 2ba9 01       		.uleb128 0x1
 13431 2baa 9C       		.byte	0x9c
 13432 2bab 1B2F0000 		.4byte	0x2f1b
 13433 2baf 0E       		.uleb128 0xe
 13434 2bb0 0F060000 		.4byte	.LASF56
 13435 2bb4 01       		.byte	0x1
 13436 2bb5 AB01     		.2byte	0x1ab
 13437 2bb7 97000000 		.4byte	0x97
 13438 2bbb D8090000 		.4byte	.LLST54
ARM GAS  C:\Users\Revanth\AppData\Local\Temp\ccbqjHa5.s 			page 299


 13439 2bbf 0A       		.uleb128 0xa
 13440 2bc0 10000000 		.4byte	.LVL578
 13441 2bc4 560E0000 		.4byte	0xe56
 13442 2bc8 E02B0000 		.4byte	0x2be0
 13443 2bcc 0B       		.uleb128 0xb
 13444 2bcd 01       		.uleb128 0x1
 13445 2bce 50       		.byte	0x50
 13446 2bcf 01       		.uleb128 0x1
 13447 2bd0 40       		.byte	0x40
 13448 2bd1 0B       		.uleb128 0xb
 13449 2bd2 01       		.uleb128 0x1
 13450 2bd3 51       		.byte	0x51
 13451 2bd4 05       		.uleb128 0x5
 13452 2bd5 0C       		.byte	0xc
 13453 2bd6 03020700 		.4byte	0x70203
 13454 2bda 0B       		.uleb128 0xb
 13455 2bdb 01       		.uleb128 0x1
 13456 2bdc 52       		.byte	0x52
 13457 2bdd 01       		.uleb128 0x1
 13458 2bde 32       		.byte	0x32
 13459 2bdf 00       		.byte	0
 13460 2be0 0A       		.uleb128 0xa
 13461 2be1 18000000 		.4byte	.LVL579
 13462 2be5 0B240000 		.4byte	0x240b
 13463 2be9 FD2B0000 		.4byte	0x2bfd
 13464 2bed 0B       		.uleb128 0xb
 13465 2bee 01       		.uleb128 0x1
 13466 2bef 50       		.byte	0x50
 13467 2bf0 05       		.uleb128 0x5
 13468 2bf1 0C       		.byte	0xc
 13469 2bf2 6EA30100 		.4byte	0x1a36e
 13470 2bf6 0B       		.uleb128 0xb
 13471 2bf7 01       		.uleb128 0x1
 13472 2bf8 51       		.byte	0x51
 13473 2bf9 02       		.uleb128 0x2
 13474 2bfa 74       		.byte	0x74
 13475 2bfb 00       		.sleb128 0
 13476 2bfc 00       		.byte	0
 13477 2bfd 09       		.uleb128 0x9
 13478 2bfe 22000000 		.4byte	.LVL580
 13479 2c02 7F020000 		.4byte	0x27f
 13480 2c06 0A       		.uleb128 0xa
 13481 2c07 2C000000 		.4byte	.LVL581
 13482 2c0b 560E0000 		.4byte	0xe56
 13483 2c0f 252C0000 		.4byte	0x2c25
 13484 2c13 0B       		.uleb128 0xb
 13485 2c14 01       		.uleb128 0x1
 13486 2c15 50       		.byte	0x50
 13487 2c16 02       		.uleb128 0x2
 13488 2c17 08       		.byte	0x8
 13489 2c18 20       		.byte	0x20
 13490 2c19 0B       		.uleb128 0xb
 13491 2c1a 01       		.uleb128 0x1
 13492 2c1b 51       		.byte	0x51
 13493 2c1c 01       		.uleb128 0x1
 13494 2c1d 32       		.byte	0x32
 13495 2c1e 0B       		.uleb128 0xb
ARM GAS  C:\Users\Revanth\AppData\Local\Temp\ccbqjHa5.s 			page 300


 13496 2c1f 01       		.uleb128 0x1
 13497 2c20 52       		.byte	0x52
 13498 2c21 02       		.uleb128 0x2
 13499 2c22 74       		.byte	0x74
 13500 2c23 00       		.sleb128 0
 13501 2c24 00       		.byte	0
 13502 2c25 0A       		.uleb128 0xa
 13503 2c26 32000000 		.4byte	.LVL582
 13504 2c2a 4E470000 		.4byte	0x474e
 13505 2c2e 392C0000 		.4byte	0x2c39
 13506 2c32 0B       		.uleb128 0xb
 13507 2c33 01       		.uleb128 0x1
 13508 2c34 50       		.byte	0x50
 13509 2c35 02       		.uleb128 0x2
 13510 2c36 08       		.byte	0x8
 13511 2c37 32       		.byte	0x32
 13512 2c38 00       		.byte	0
 13513 2c39 0A       		.uleb128 0xa
 13514 2c3a 3E000000 		.4byte	.LVL583
 13515 2c3e C00B0000 		.4byte	0xbc0
 13516 2c42 582C0000 		.4byte	0x2c58
 13517 2c46 0B       		.uleb128 0xb
 13518 2c47 01       		.uleb128 0x1
 13519 2c48 50       		.byte	0x50
 13520 2c49 01       		.uleb128 0x1
 13521 2c4a 34       		.byte	0x34
 13522 2c4b 0B       		.uleb128 0xb
 13523 2c4c 01       		.uleb128 0x1
 13524 2c4d 51       		.byte	0x51
 13525 2c4e 02       		.uleb128 0x2
 13526 2c4f 74       		.byte	0x74
 13527 2c50 00       		.sleb128 0
 13528 2c51 0B       		.uleb128 0xb
 13529 2c52 01       		.uleb128 0x1
 13530 2c53 52       		.byte	0x52
 13531 2c54 02       		.uleb128 0x2
 13532 2c55 75       		.byte	0x75
 13533 2c56 00       		.sleb128 0
 13534 2c57 00       		.byte	0
 13535 2c58 0A       		.uleb128 0xa
 13536 2c59 46000000 		.4byte	.LVL584
 13537 2c5d 4E470000 		.4byte	0x474e
 13538 2c61 6D2C0000 		.4byte	0x2c6d
 13539 2c65 0B       		.uleb128 0xb
 13540 2c66 01       		.uleb128 0x1
 13541 2c67 50       		.byte	0x50
 13542 2c68 03       		.uleb128 0x3
 13543 2c69 0A       		.byte	0xa
 13544 2c6a F401     		.2byte	0x1f4
 13545 2c6c 00       		.byte	0
 13546 2c6d 0A       		.uleb128 0xa
 13547 2c6e 50000000 		.4byte	.LVL585
 13548 2c72 C00B0000 		.4byte	0xbc0
 13549 2c76 8C2C0000 		.4byte	0x2c8c
 13550 2c7a 0B       		.uleb128 0xb
 13551 2c7b 01       		.uleb128 0x1
 13552 2c7c 50       		.byte	0x50
ARM GAS  C:\Users\Revanth\AppData\Local\Temp\ccbqjHa5.s 			page 301


 13553 2c7d 01       		.uleb128 0x1
 13554 2c7e 34       		.byte	0x34
 13555 2c7f 0B       		.uleb128 0xb
 13556 2c80 01       		.uleb128 0x1
 13557 2c81 51       		.byte	0x51
 13558 2c82 02       		.uleb128 0x2
 13559 2c83 74       		.byte	0x74
 13560 2c84 00       		.sleb128 0
 13561 2c85 0B       		.uleb128 0xb
 13562 2c86 01       		.uleb128 0x1
 13563 2c87 52       		.byte	0x52
 13564 2c88 02       		.uleb128 0x2
 13565 2c89 75       		.byte	0x75
 13566 2c8a 00       		.sleb128 0
 13567 2c8b 00       		.byte	0
 13568 2c8c 09       		.uleb128 0x9
 13569 2c8d 56000000 		.4byte	.LVL586
 13570 2c91 2E480000 		.4byte	0x482e
 13571 2c95 0A       		.uleb128 0xa
 13572 2c96 5C000000 		.4byte	.LVL587
 13573 2c9a 39480000 		.4byte	0x4839
 13574 2c9e AC2C0000 		.4byte	0x2cac
 13575 2ca2 0B       		.uleb128 0xb
 13576 2ca3 01       		.uleb128 0x1
 13577 2ca4 50       		.byte	0x50
 13578 2ca5 05       		.uleb128 0x5
 13579 2ca6 03       		.byte	0x3
 13580 2ca7 00000000 		.4byte	wait_interrupt_Handler
 13581 2cab 00       		.byte	0
 13582 2cac 0A       		.uleb128 0xa
 13583 2cad 66000000 		.4byte	.LVL588
 13584 2cb1 C00B0000 		.4byte	0xbc0
 13585 2cb5 CB2C0000 		.4byte	0x2ccb
 13586 2cb9 0B       		.uleb128 0xb
 13587 2cba 01       		.uleb128 0x1
 13588 2cbb 50       		.byte	0x50
 13589 2cbc 01       		.uleb128 0x1
 13590 2cbd 34       		.byte	0x34
 13591 2cbe 0B       		.uleb128 0xb
 13592 2cbf 01       		.uleb128 0x1
 13593 2cc0 51       		.byte	0x51
 13594 2cc1 02       		.uleb128 0x2
 13595 2cc2 74       		.byte	0x74
 13596 2cc3 00       		.sleb128 0
 13597 2cc4 0B       		.uleb128 0xb
 13598 2cc5 01       		.uleb128 0x1
 13599 2cc6 52       		.byte	0x52
 13600 2cc7 02       		.uleb128 0x2
 13601 2cc8 75       		.byte	0x75
 13602 2cc9 00       		.sleb128 0
 13603 2cca 00       		.byte	0
 13604 2ccb 0A       		.uleb128 0xa
 13605 2ccc 76000000 		.4byte	.LVL589
 13606 2cd0 45060000 		.4byte	0x645
 13607 2cd4 DE2C0000 		.4byte	0x2cde
 13608 2cd8 0B       		.uleb128 0xb
 13609 2cd9 01       		.uleb128 0x1
ARM GAS  C:\Users\Revanth\AppData\Local\Temp\ccbqjHa5.s 			page 302


 13610 2cda 50       		.byte	0x50
 13611 2cdb 01       		.uleb128 0x1
 13612 2cdc 42       		.byte	0x42
 13613 2cdd 00       		.byte	0
 13614 2cde 09       		.uleb128 0x9
 13615 2cdf 7A000000 		.4byte	.LVL590
 13616 2ce3 44480000 		.4byte	0x4844
 13617 2ce7 0A       		.uleb128 0xa
 13618 2ce8 84000000 		.4byte	.LVL591
 13619 2cec 560E0000 		.4byte	0xe56
 13620 2cf0 062D0000 		.4byte	0x2d06
 13621 2cf4 0B       		.uleb128 0xb
 13622 2cf5 01       		.uleb128 0x1
 13623 2cf6 50       		.byte	0x50
 13624 2cf7 02       		.uleb128 0x2
 13625 2cf8 08       		.byte	0x8
 13626 2cf9 20       		.byte	0x20
 13627 2cfa 0B       		.uleb128 0xb
 13628 2cfb 01       		.uleb128 0x1
 13629 2cfc 51       		.byte	0x51
 13630 2cfd 01       		.uleb128 0x1
 13631 2cfe 30       		.byte	0x30
 13632 2cff 0B       		.uleb128 0xb
 13633 2d00 01       		.uleb128 0x1
 13634 2d01 52       		.byte	0x52
 13635 2d02 02       		.uleb128 0x2
 13636 2d03 74       		.byte	0x74
 13637 2d04 00       		.sleb128 0
 13638 2d05 00       		.byte	0
 13639 2d06 0A       		.uleb128 0xa
 13640 2d07 8E000000 		.4byte	.LVL592
 13641 2d0b 560E0000 		.4byte	0xe56
 13642 2d0f 252D0000 		.4byte	0x2d25
 13643 2d13 0B       		.uleb128 0xb
 13644 2d14 01       		.uleb128 0x1
 13645 2d15 50       		.byte	0x50
 13646 2d16 02       		.uleb128 0x2
 13647 2d17 08       		.byte	0x8
 13648 2d18 21       		.byte	0x21
 13649 2d19 0B       		.uleb128 0xb
 13650 2d1a 01       		.uleb128 0x1
 13651 2d1b 51       		.byte	0x51
 13652 2d1c 01       		.uleb128 0x1
 13653 2d1d 30       		.byte	0x30
 13654 2d1e 0B       		.uleb128 0xb
 13655 2d1f 01       		.uleb128 0x1
 13656 2d20 52       		.byte	0x52
 13657 2d21 02       		.uleb128 0x2
 13658 2d22 74       		.byte	0x74
 13659 2d23 00       		.sleb128 0
 13660 2d24 00       		.byte	0
 13661 2d25 0A       		.uleb128 0xa
 13662 2d26 98000000 		.4byte	.LVL593
 13663 2d2a 560E0000 		.4byte	0xe56
 13664 2d2e 442D0000 		.4byte	0x2d44
 13665 2d32 0B       		.uleb128 0xb
 13666 2d33 01       		.uleb128 0x1
ARM GAS  C:\Users\Revanth\AppData\Local\Temp\ccbqjHa5.s 			page 303


 13667 2d34 50       		.byte	0x50
 13668 2d35 02       		.uleb128 0x2
 13669 2d36 08       		.byte	0x8
 13670 2d37 2D       		.byte	0x2d
 13671 2d38 0B       		.uleb128 0xb
 13672 2d39 01       		.uleb128 0x1
 13673 2d3a 51       		.byte	0x51
 13674 2d3b 01       		.uleb128 0x1
 13675 2d3c 30       		.byte	0x30
 13676 2d3d 0B       		.uleb128 0xb
 13677 2d3e 01       		.uleb128 0x1
 13678 2d3f 52       		.byte	0x52
 13679 2d40 02       		.uleb128 0x2
 13680 2d41 74       		.byte	0x74
 13681 2d42 00       		.sleb128 0
 13682 2d43 00       		.byte	0
 13683 2d44 0A       		.uleb128 0xa
 13684 2d45 A6000000 		.4byte	.LVL594
 13685 2d49 4E470000 		.4byte	0x474e
 13686 2d4d 582D0000 		.4byte	0x2d58
 13687 2d51 0B       		.uleb128 0xb
 13688 2d52 01       		.uleb128 0x1
 13689 2d53 50       		.byte	0x50
 13690 2d54 02       		.uleb128 0x2
 13691 2d55 08       		.byte	0x8
 13692 2d56 64       		.byte	0x64
 13693 2d57 00       		.byte	0
 13694 2d58 09       		.uleb128 0x9
 13695 2d59 B4000000 		.4byte	.LVL595
 13696 2d5d 44480000 		.4byte	0x4844
 13697 2d61 0A       		.uleb128 0xa
 13698 2d62 C4000000 		.4byte	.LVL596
 13699 2d66 560E0000 		.4byte	0xe56
 13700 2d6a 812D0000 		.4byte	0x2d81
 13701 2d6e 0B       		.uleb128 0xb
 13702 2d6f 01       		.uleb128 0x1
 13703 2d70 50       		.byte	0x50
 13704 2d71 02       		.uleb128 0x2
 13705 2d72 08       		.byte	0x8
 13706 2d73 21       		.byte	0x21
 13707 2d74 0B       		.uleb128 0xb
 13708 2d75 01       		.uleb128 0x1
 13709 2d76 51       		.byte	0x51
 13710 2d77 02       		.uleb128 0x2
 13711 2d78 75       		.byte	0x75
 13712 2d79 00       		.sleb128 0
 13713 2d7a 0B       		.uleb128 0xb
 13714 2d7b 01       		.uleb128 0x1
 13715 2d7c 52       		.byte	0x52
 13716 2d7d 02       		.uleb128 0x2
 13717 2d7e 74       		.byte	0x74
 13718 2d7f 00       		.sleb128 0
 13719 2d80 00       		.byte	0
 13720 2d81 0A       		.uleb128 0xa
 13721 2d82 CA000000 		.4byte	.LVL597
 13722 2d86 7F020000 		.4byte	0x27f
 13723 2d8a 952D0000 		.4byte	0x2d95
ARM GAS  C:\Users\Revanth\AppData\Local\Temp\ccbqjHa5.s 			page 304


 13724 2d8e 0B       		.uleb128 0xb
 13725 2d8f 01       		.uleb128 0x1
 13726 2d90 50       		.byte	0x50
 13727 2d91 02       		.uleb128 0x2
 13728 2d92 75       		.byte	0x75
 13729 2d93 00       		.sleb128 0
 13730 2d94 00       		.byte	0
 13731 2d95 0A       		.uleb128 0xa
 13732 2d96 D2000000 		.4byte	.LVL598
 13733 2d9a 4E470000 		.4byte	0x474e
 13734 2d9e A82D0000 		.4byte	0x2da8
 13735 2da2 0B       		.uleb128 0xb
 13736 2da3 01       		.uleb128 0x1
 13737 2da4 50       		.byte	0x50
 13738 2da5 01       		.uleb128 0x1
 13739 2da6 3A       		.byte	0x3a
 13740 2da7 00       		.byte	0
 13741 2da8 0A       		.uleb128 0xa
 13742 2da9 DC000000 		.4byte	.LVL599
 13743 2dad 560E0000 		.4byte	0xe56
 13744 2db1 C82D0000 		.4byte	0x2dc8
 13745 2db5 0B       		.uleb128 0xb
 13746 2db6 01       		.uleb128 0x1
 13747 2db7 50       		.byte	0x50
 13748 2db8 02       		.uleb128 0x2
 13749 2db9 08       		.byte	0x8
 13750 2dba 21       		.byte	0x21
 13751 2dbb 0B       		.uleb128 0xb
 13752 2dbc 01       		.uleb128 0x1
 13753 2dbd 51       		.byte	0x51
 13754 2dbe 02       		.uleb128 0x2
 13755 2dbf 75       		.byte	0x75
 13756 2dc0 00       		.sleb128 0
 13757 2dc1 0B       		.uleb128 0xb
 13758 2dc2 01       		.uleb128 0x1
 13759 2dc3 52       		.byte	0x52
 13760 2dc4 02       		.uleb128 0x2
 13761 2dc5 74       		.byte	0x74
 13762 2dc6 00       		.sleb128 0
 13763 2dc7 00       		.byte	0
 13764 2dc8 0A       		.uleb128 0xa
 13765 2dc9 E2000000 		.4byte	.LVL600
 13766 2dcd 7F020000 		.4byte	0x27f
 13767 2dd1 DC2D0000 		.4byte	0x2ddc
 13768 2dd5 0B       		.uleb128 0xb
 13769 2dd6 01       		.uleb128 0x1
 13770 2dd7 50       		.byte	0x50
 13771 2dd8 02       		.uleb128 0x2
 13772 2dd9 75       		.byte	0x75
 13773 2dda 00       		.sleb128 0
 13774 2ddb 00       		.byte	0
 13775 2ddc 0A       		.uleb128 0xa
 13776 2ddd 00010000 		.4byte	.LVL601
 13777 2de1 4E470000 		.4byte	0x474e
 13778 2de5 F02D0000 		.4byte	0x2df0
 13779 2de9 0B       		.uleb128 0xb
 13780 2dea 01       		.uleb128 0x1
ARM GAS  C:\Users\Revanth\AppData\Local\Temp\ccbqjHa5.s 			page 305


 13781 2deb 50       		.byte	0x50
 13782 2dec 02       		.uleb128 0x2
 13783 2ded 08       		.byte	0x8
 13784 2dee 64       		.byte	0x64
 13785 2def 00       		.byte	0
 13786 2df0 0A       		.uleb128 0xa
 13787 2df1 08010000 		.4byte	.LVL602
 13788 2df5 D11E0000 		.4byte	0x1ed1
 13789 2df9 052E0000 		.4byte	0x2e05
 13790 2dfd 0B       		.uleb128 0xb
 13791 2dfe 01       		.uleb128 0x1
 13792 2dff 50       		.byte	0x50
 13793 2e00 03       		.uleb128 0x3
 13794 2e01 0A       		.byte	0xa
 13795 2e02 00C8     		.2byte	0xc800
 13796 2e04 00       		.byte	0
 13797 2e05 0A       		.uleb128 0xa
 13798 2e06 30010000 		.4byte	.LVL603
 13799 2e0a 4E470000 		.4byte	0x474e
 13800 2e0e 192E0000 		.4byte	0x2e19
 13801 2e12 0B       		.uleb128 0xb
 13802 2e13 01       		.uleb128 0x1
 13803 2e14 50       		.byte	0x50
 13804 2e15 02       		.uleb128 0x2
 13805 2e16 08       		.byte	0x8
 13806 2e17 64       		.byte	0x64
 13807 2e18 00       		.byte	0
 13808 2e19 0A       		.uleb128 0xa
 13809 2e1a 3A010000 		.4byte	.LVL604
 13810 2e1e 560E0000 		.4byte	0xe56
 13811 2e22 392E0000 		.4byte	0x2e39
 13812 2e26 0B       		.uleb128 0xb
 13813 2e27 01       		.uleb128 0x1
 13814 2e28 50       		.byte	0x50
 13815 2e29 02       		.uleb128 0x2
 13816 2e2a 08       		.byte	0x8
 13817 2e2b 21       		.byte	0x21
 13818 2e2c 0B       		.uleb128 0xb
 13819 2e2d 01       		.uleb128 0x1
 13820 2e2e 51       		.byte	0x51
 13821 2e2f 02       		.uleb128 0x2
 13822 2e30 75       		.byte	0x75
 13823 2e31 00       		.sleb128 0
 13824 2e32 0B       		.uleb128 0xb
 13825 2e33 01       		.uleb128 0x1
 13826 2e34 52       		.byte	0x52
 13827 2e35 02       		.uleb128 0x2
 13828 2e36 74       		.byte	0x74
 13829 2e37 00       		.sleb128 0
 13830 2e38 00       		.byte	0
 13831 2e39 0A       		.uleb128 0xa
 13832 2e3a 44010000 		.4byte	.LVL605
 13833 2e3e 560E0000 		.4byte	0xe56
 13834 2e42 592E0000 		.4byte	0x2e59
 13835 2e46 0B       		.uleb128 0xb
 13836 2e47 01       		.uleb128 0x1
 13837 2e48 50       		.byte	0x50
ARM GAS  C:\Users\Revanth\AppData\Local\Temp\ccbqjHa5.s 			page 306


 13838 2e49 02       		.uleb128 0x2
 13839 2e4a 08       		.byte	0x8
 13840 2e4b 2D       		.byte	0x2d
 13841 2e4c 0B       		.uleb128 0xb
 13842 2e4d 01       		.uleb128 0x1
 13843 2e4e 51       		.byte	0x51
 13844 2e4f 02       		.uleb128 0x2
 13845 2e50 75       		.byte	0x75
 13846 2e51 00       		.sleb128 0
 13847 2e52 0B       		.uleb128 0xb
 13848 2e53 01       		.uleb128 0x1
 13849 2e54 52       		.byte	0x52
 13850 2e55 02       		.uleb128 0x2
 13851 2e56 74       		.byte	0x74
 13852 2e57 00       		.sleb128 0
 13853 2e58 00       		.byte	0
 13854 2e59 0A       		.uleb128 0xa
 13855 2e5a 4C010000 		.4byte	.LVL606
 13856 2e5e 0B240000 		.4byte	0x240b
 13857 2e62 762E0000 		.4byte	0x2e76
 13858 2e66 0B       		.uleb128 0xb
 13859 2e67 01       		.uleb128 0x1
 13860 2e68 50       		.byte	0x50
 13861 2e69 05       		.uleb128 0x5
 13862 2e6a 0C       		.byte	0xc
 13863 2e6b 6EA30100 		.4byte	0x1a36e
 13864 2e6f 0B       		.uleb128 0xb
 13865 2e70 01       		.uleb128 0x1
 13866 2e71 51       		.byte	0x51
 13867 2e72 02       		.uleb128 0x2
 13868 2e73 74       		.byte	0x74
 13869 2e74 00       		.sleb128 0
 13870 2e75 00       		.byte	0
 13871 2e76 0A       		.uleb128 0xa
 13872 2e77 52010000 		.4byte	.LVL607
 13873 2e7b 7F020000 		.4byte	0x27f
 13874 2e7f 8A2E0000 		.4byte	0x2e8a
 13875 2e83 0B       		.uleb128 0xb
 13876 2e84 01       		.uleb128 0x1
 13877 2e85 50       		.byte	0x50
 13878 2e86 02       		.uleb128 0x2
 13879 2e87 75       		.byte	0x75
 13880 2e88 00       		.sleb128 0
 13881 2e89 00       		.byte	0
 13882 2e8a 0A       		.uleb128 0xa
 13883 2e8b 62010000 		.4byte	.LVL608
 13884 2e8f E8030000 		.4byte	0x3e8
 13885 2e93 A12E0000 		.4byte	0x2ea1
 13886 2e97 0B       		.uleb128 0xb
 13887 2e98 01       		.uleb128 0x1
 13888 2e99 50       		.byte	0x50
 13889 2e9a 05       		.uleb128 0x5
 13890 2e9b 03       		.byte	0x3
 13891 2e9c A8040000 		.4byte	.LC39
 13892 2ea0 00       		.byte	0
 13893 2ea1 0A       		.uleb128 0xa
 13894 2ea2 6E010000 		.4byte	.LVL609
ARM GAS  C:\Users\Revanth\AppData\Local\Temp\ccbqjHa5.s 			page 307


 13895 2ea6 560E0000 		.4byte	0xe56
 13896 2eaa C02E0000 		.4byte	0x2ec0
 13897 2eae 0B       		.uleb128 0xb
 13898 2eaf 01       		.uleb128 0x1
 13899 2eb0 50       		.byte	0x50
 13900 2eb1 01       		.uleb128 0x1
 13901 2eb2 40       		.byte	0x40
 13902 2eb3 0B       		.uleb128 0xb
 13903 2eb4 01       		.uleb128 0x1
 13904 2eb5 51       		.byte	0x51
 13905 2eb6 02       		.uleb128 0x2
 13906 2eb7 74       		.byte	0x74
 13907 2eb8 00       		.sleb128 0
 13908 2eb9 0B       		.uleb128 0xb
 13909 2eba 01       		.uleb128 0x1
 13910 2ebb 52       		.byte	0x52
 13911 2ebc 02       		.uleb128 0x2
 13912 2ebd 78       		.byte	0x78
 13913 2ebe 00       		.sleb128 0
 13914 2ebf 00       		.byte	0
 13915 2ec0 0A       		.uleb128 0xa
 13916 2ec1 78010000 		.4byte	.LVL610
 13917 2ec5 560E0000 		.4byte	0xe56
 13918 2ec9 E12E0000 		.4byte	0x2ee1
 13919 2ecd 0B       		.uleb128 0xb
 13920 2ece 01       		.uleb128 0x1
 13921 2ecf 50       		.byte	0x50
 13922 2ed0 01       		.uleb128 0x1
 13923 2ed1 40       		.byte	0x40
 13924 2ed2 0B       		.uleb128 0xb
 13925 2ed3 01       		.uleb128 0x1
 13926 2ed4 51       		.byte	0x51
 13927 2ed5 05       		.uleb128 0x5
 13928 2ed6 0C       		.byte	0xc
 13929 2ed7 01010700 		.4byte	0x70101
 13930 2edb 0B       		.uleb128 0xb
 13931 2edc 01       		.uleb128 0x1
 13932 2edd 52       		.byte	0x52
 13933 2ede 01       		.uleb128 0x1
 13934 2edf 32       		.byte	0x32
 13935 2ee0 00       		.byte	0
 13936 2ee1 0A       		.uleb128 0xa
 13937 2ee2 82010000 		.4byte	.LVL611
 13938 2ee6 560E0000 		.4byte	0xe56
 13939 2eea 002F0000 		.4byte	0x2f00
 13940 2eee 0B       		.uleb128 0xb
 13941 2eef 01       		.uleb128 0x1
 13942 2ef0 50       		.byte	0x50
 13943 2ef1 01       		.uleb128 0x1
 13944 2ef2 40       		.byte	0x40
 13945 2ef3 0B       		.uleb128 0xb
 13946 2ef4 01       		.uleb128 0x1
 13947 2ef5 51       		.byte	0x51
 13948 2ef6 02       		.uleb128 0x2
 13949 2ef7 74       		.byte	0x74
 13950 2ef8 00       		.sleb128 0
 13951 2ef9 0B       		.uleb128 0xb
ARM GAS  C:\Users\Revanth\AppData\Local\Temp\ccbqjHa5.s 			page 308


 13952 2efa 01       		.uleb128 0x1
 13953 2efb 52       		.byte	0x52
 13954 2efc 02       		.uleb128 0x2
 13955 2efd 75       		.byte	0x75
 13956 2efe 00       		.sleb128 0
 13957 2eff 00       		.byte	0
 13958 2f00 0C       		.uleb128 0xc
 13959 2f01 8C010000 		.4byte	.LVL612
 13960 2f05 560E0000 		.4byte	0xe56
 13961 2f09 0B       		.uleb128 0xb
 13962 2f0a 01       		.uleb128 0x1
 13963 2f0b 50       		.byte	0x50
 13964 2f0c 01       		.uleb128 0x1
 13965 2f0d 40       		.byte	0x40
 13966 2f0e 0B       		.uleb128 0xb
 13967 2f0f 01       		.uleb128 0x1
 13968 2f10 51       		.byte	0x51
 13969 2f11 02       		.uleb128 0x2
 13970 2f12 74       		.byte	0x74
 13971 2f13 00       		.sleb128 0
 13972 2f14 0B       		.uleb128 0xb
 13973 2f15 01       		.uleb128 0x1
 13974 2f16 52       		.byte	0x52
 13975 2f17 01       		.uleb128 0x1
 13976 2f18 33       		.byte	0x33
 13977 2f19 00       		.byte	0
 13978 2f1a 00       		.byte	0
 13979 2f1b 0D       		.uleb128 0xd
 13980 2f1c 6D040000 		.4byte	.LASF95
 13981 2f20 01       		.byte	0x1
 13982 2f21 0E02     		.2byte	0x20e
 13983 2f23 00000000 		.4byte	.LFB69
 13984 2f27 84010000 		.4byte	.LFE69-.LFB69
 13985 2f2b 01       		.uleb128 0x1
 13986 2f2c 9C       		.byte	0x9c
 13987 2f2d 36320000 		.4byte	0x3236
 13988 2f31 0E       		.uleb128 0xe
 13989 2f32 0F060000 		.4byte	.LASF56
 13990 2f36 01       		.byte	0x1
 13991 2f37 0E02     		.2byte	0x20e
 13992 2f39 97000000 		.4byte	0x97
 13993 2f3d F9090000 		.4byte	.LLST55
 13994 2f41 0A       		.uleb128 0xa
 13995 2f42 0C000000 		.4byte	.LVL615
 13996 2f46 23480000 		.4byte	0x4823
 13997 2f4a 542F0000 		.4byte	0x2f54
 13998 2f4e 0B       		.uleb128 0xb
 13999 2f4f 01       		.uleb128 0x1
 14000 2f50 50       		.byte	0x50
 14001 2f51 01       		.uleb128 0x1
 14002 2f52 30       		.byte	0x30
 14003 2f53 00       		.byte	0
 14004 2f54 0A       		.uleb128 0xa
 14005 2f55 12000000 		.4byte	.LVL616
 14006 2f59 4E470000 		.4byte	0x474e
 14007 2f5d 682F0000 		.4byte	0x2f68
 14008 2f61 0B       		.uleb128 0xb
ARM GAS  C:\Users\Revanth\AppData\Local\Temp\ccbqjHa5.s 			page 309


 14009 2f62 01       		.uleb128 0x1
 14010 2f63 50       		.byte	0x50
 14011 2f64 02       		.uleb128 0x2
 14012 2f65 08       		.byte	0x8
 14013 2f66 64       		.byte	0x64
 14014 2f67 00       		.byte	0
 14015 2f68 0A       		.uleb128 0xa
 14016 2f69 1C000000 		.4byte	.LVL617
 14017 2f6d 0B240000 		.4byte	0x240b
 14018 2f71 832F0000 		.4byte	0x2f83
 14019 2f75 0B       		.uleb128 0xb
 14020 2f76 01       		.uleb128 0x1
 14021 2f77 50       		.byte	0x50
 14022 2f78 03       		.uleb128 0x3
 14023 2f79 0A       		.byte	0xa
 14024 2f7a 0032     		.2byte	0x3200
 14025 2f7c 0B       		.uleb128 0xb
 14026 2f7d 01       		.uleb128 0x1
 14027 2f7e 51       		.byte	0x51
 14028 2f7f 02       		.uleb128 0x2
 14029 2f80 74       		.byte	0x74
 14030 2f81 00       		.sleb128 0
 14031 2f82 00       		.byte	0
 14032 2f83 09       		.uleb128 0x9
 14033 2f84 26000000 		.4byte	.LVL618
 14034 2f88 33020000 		.4byte	0x233
 14035 2f8c 0A       		.uleb128 0xa
 14036 2f8d 30000000 		.4byte	.LVL619
 14037 2f91 560E0000 		.4byte	0xe56
 14038 2f95 AB2F0000 		.4byte	0x2fab
 14039 2f99 0B       		.uleb128 0xb
 14040 2f9a 01       		.uleb128 0x1
 14041 2f9b 50       		.byte	0x50
 14042 2f9c 02       		.uleb128 0x2
 14043 2f9d 08       		.byte	0x8
 14044 2f9e 20       		.byte	0x20
 14045 2f9f 0B       		.uleb128 0xb
 14046 2fa0 01       		.uleb128 0x1
 14047 2fa1 51       		.byte	0x51
 14048 2fa2 01       		.uleb128 0x1
 14049 2fa3 32       		.byte	0x32
 14050 2fa4 0B       		.uleb128 0xb
 14051 2fa5 01       		.uleb128 0x1
 14052 2fa6 52       		.byte	0x52
 14053 2fa7 02       		.uleb128 0x2
 14054 2fa8 74       		.byte	0x74
 14055 2fa9 00       		.sleb128 0
 14056 2faa 00       		.byte	0
 14057 2fab 0A       		.uleb128 0xa
 14058 2fac 36000000 		.4byte	.LVL620
 14059 2fb0 4E470000 		.4byte	0x474e
 14060 2fb4 BF2F0000 		.4byte	0x2fbf
 14061 2fb8 0B       		.uleb128 0xb
 14062 2fb9 01       		.uleb128 0x1
 14063 2fba 50       		.byte	0x50
 14064 2fbb 02       		.uleb128 0x2
 14065 2fbc 08       		.byte	0x8
ARM GAS  C:\Users\Revanth\AppData\Local\Temp\ccbqjHa5.s 			page 310


 14066 2fbd 32       		.byte	0x32
 14067 2fbe 00       		.byte	0
 14068 2fbf 0A       		.uleb128 0xa
 14069 2fc0 42000000 		.4byte	.LVL621
 14070 2fc4 C00B0000 		.4byte	0xbc0
 14071 2fc8 DE2F0000 		.4byte	0x2fde
 14072 2fcc 0B       		.uleb128 0xb
 14073 2fcd 01       		.uleb128 0x1
 14074 2fce 50       		.byte	0x50
 14075 2fcf 01       		.uleb128 0x1
 14076 2fd0 34       		.byte	0x34
 14077 2fd1 0B       		.uleb128 0xb
 14078 2fd2 01       		.uleb128 0x1
 14079 2fd3 51       		.byte	0x51
 14080 2fd4 02       		.uleb128 0x2
 14081 2fd5 74       		.byte	0x74
 14082 2fd6 00       		.sleb128 0
 14083 2fd7 0B       		.uleb128 0xb
 14084 2fd8 01       		.uleb128 0x1
 14085 2fd9 52       		.byte	0x52
 14086 2fda 02       		.uleb128 0x2
 14087 2fdb 75       		.byte	0x75
 14088 2fdc 00       		.sleb128 0
 14089 2fdd 00       		.byte	0
 14090 2fde 0A       		.uleb128 0xa
 14091 2fdf 4A000000 		.4byte	.LVL622
 14092 2fe3 4E470000 		.4byte	0x474e
 14093 2fe7 F32F0000 		.4byte	0x2ff3
 14094 2feb 0B       		.uleb128 0xb
 14095 2fec 01       		.uleb128 0x1
 14096 2fed 50       		.byte	0x50
 14097 2fee 03       		.uleb128 0x3
 14098 2fef 0A       		.byte	0xa
 14099 2ff0 F401     		.2byte	0x1f4
 14100 2ff2 00       		.byte	0
 14101 2ff3 0A       		.uleb128 0xa
 14102 2ff4 54000000 		.4byte	.LVL623
 14103 2ff8 C00B0000 		.4byte	0xbc0
 14104 2ffc 12300000 		.4byte	0x3012
 14105 3000 0B       		.uleb128 0xb
 14106 3001 01       		.uleb128 0x1
 14107 3002 50       		.byte	0x50
 14108 3003 01       		.uleb128 0x1
 14109 3004 34       		.byte	0x34
 14110 3005 0B       		.uleb128 0xb
 14111 3006 01       		.uleb128 0x1
 14112 3007 51       		.byte	0x51
 14113 3008 02       		.uleb128 0x2
 14114 3009 74       		.byte	0x74
 14115 300a 00       		.sleb128 0
 14116 300b 0B       		.uleb128 0xb
 14117 300c 01       		.uleb128 0x1
 14118 300d 52       		.byte	0x52
 14119 300e 02       		.uleb128 0x2
 14120 300f 75       		.byte	0x75
 14121 3010 00       		.sleb128 0
 14122 3011 00       		.byte	0
ARM GAS  C:\Users\Revanth\AppData\Local\Temp\ccbqjHa5.s 			page 311


 14123 3012 09       		.uleb128 0x9
 14124 3013 5A000000 		.4byte	.LVL624
 14125 3017 2E480000 		.4byte	0x482e
 14126 301b 0A       		.uleb128 0xa
 14127 301c 60000000 		.4byte	.LVL625
 14128 3020 39480000 		.4byte	0x4839
 14129 3024 32300000 		.4byte	0x3032
 14130 3028 0B       		.uleb128 0xb
 14131 3029 01       		.uleb128 0x1
 14132 302a 50       		.byte	0x50
 14133 302b 05       		.uleb128 0x5
 14134 302c 03       		.byte	0x3
 14135 302d 00000000 		.4byte	wait_interrupt_Handler
 14136 3031 00       		.byte	0
 14137 3032 0A       		.uleb128 0xa
 14138 3033 6A000000 		.4byte	.LVL626
 14139 3037 C00B0000 		.4byte	0xbc0
 14140 303b 51300000 		.4byte	0x3051
 14141 303f 0B       		.uleb128 0xb
 14142 3040 01       		.uleb128 0x1
 14143 3041 50       		.byte	0x50
 14144 3042 01       		.uleb128 0x1
 14145 3043 34       		.byte	0x34
 14146 3044 0B       		.uleb128 0xb
 14147 3045 01       		.uleb128 0x1
 14148 3046 51       		.byte	0x51
 14149 3047 02       		.uleb128 0x2
 14150 3048 74       		.byte	0x74
 14151 3049 00       		.sleb128 0
 14152 304a 0B       		.uleb128 0xb
 14153 304b 01       		.uleb128 0x1
 14154 304c 52       		.byte	0x52
 14155 304d 02       		.uleb128 0x2
 14156 304e 75       		.byte	0x75
 14157 304f 00       		.sleb128 0
 14158 3050 00       		.byte	0
 14159 3051 0A       		.uleb128 0xa
 14160 3052 7A000000 		.4byte	.LVL627
 14161 3056 45060000 		.4byte	0x645
 14162 305a 64300000 		.4byte	0x3064
 14163 305e 0B       		.uleb128 0xb
 14164 305f 01       		.uleb128 0x1
 14165 3060 50       		.byte	0x50
 14166 3061 01       		.uleb128 0x1
 14167 3062 46       		.byte	0x46
 14168 3063 00       		.byte	0
 14169 3064 09       		.uleb128 0x9
 14170 3065 7E000000 		.4byte	.LVL628
 14171 3069 44480000 		.4byte	0x4844
 14172 306d 0A       		.uleb128 0xa
 14173 306e 88000000 		.4byte	.LVL629
 14174 3072 560E0000 		.4byte	0xe56
 14175 3076 8C300000 		.4byte	0x308c
 14176 307a 0B       		.uleb128 0xb
 14177 307b 01       		.uleb128 0x1
 14178 307c 50       		.byte	0x50
 14179 307d 02       		.uleb128 0x2
ARM GAS  C:\Users\Revanth\AppData\Local\Temp\ccbqjHa5.s 			page 312


 14180 307e 08       		.byte	0x8
 14181 307f 20       		.byte	0x20
 14182 3080 0B       		.uleb128 0xb
 14183 3081 01       		.uleb128 0x1
 14184 3082 51       		.byte	0x51
 14185 3083 01       		.uleb128 0x1
 14186 3084 30       		.byte	0x30
 14187 3085 0B       		.uleb128 0xb
 14188 3086 01       		.uleb128 0x1
 14189 3087 52       		.byte	0x52
 14190 3088 02       		.uleb128 0x2
 14191 3089 74       		.byte	0x74
 14192 308a 00       		.sleb128 0
 14193 308b 00       		.byte	0
 14194 308c 0A       		.uleb128 0xa
 14195 308d 92000000 		.4byte	.LVL630
 14196 3091 560E0000 		.4byte	0xe56
 14197 3095 AB300000 		.4byte	0x30ab
 14198 3099 0B       		.uleb128 0xb
 14199 309a 01       		.uleb128 0x1
 14200 309b 50       		.byte	0x50
 14201 309c 02       		.uleb128 0x2
 14202 309d 08       		.byte	0x8
 14203 309e 21       		.byte	0x21
 14204 309f 0B       		.uleb128 0xb
 14205 30a0 01       		.uleb128 0x1
 14206 30a1 51       		.byte	0x51
 14207 30a2 01       		.uleb128 0x1
 14208 30a3 30       		.byte	0x30
 14209 30a4 0B       		.uleb128 0xb
 14210 30a5 01       		.uleb128 0x1
 14211 30a6 52       		.byte	0x52
 14212 30a7 02       		.uleb128 0x2
 14213 30a8 74       		.byte	0x74
 14214 30a9 00       		.sleb128 0
 14215 30aa 00       		.byte	0
 14216 30ab 0A       		.uleb128 0xa
 14217 30ac 9C000000 		.4byte	.LVL631
 14218 30b0 560E0000 		.4byte	0xe56
 14219 30b4 CA300000 		.4byte	0x30ca
 14220 30b8 0B       		.uleb128 0xb
 14221 30b9 01       		.uleb128 0x1
 14222 30ba 50       		.byte	0x50
 14223 30bb 02       		.uleb128 0x2
 14224 30bc 08       		.byte	0x8
 14225 30bd 2D       		.byte	0x2d
 14226 30be 0B       		.uleb128 0xb
 14227 30bf 01       		.uleb128 0x1
 14228 30c0 51       		.byte	0x51
 14229 30c1 01       		.uleb128 0x1
 14230 30c2 30       		.byte	0x30
 14231 30c3 0B       		.uleb128 0xb
 14232 30c4 01       		.uleb128 0x1
 14233 30c5 52       		.byte	0x52
 14234 30c6 02       		.uleb128 0x2
 14235 30c7 74       		.byte	0x74
 14236 30c8 00       		.sleb128 0
ARM GAS  C:\Users\Revanth\AppData\Local\Temp\ccbqjHa5.s 			page 313


 14237 30c9 00       		.byte	0
 14238 30ca 0A       		.uleb128 0xa
 14239 30cb AC000000 		.4byte	.LVL632
 14240 30cf 4E470000 		.4byte	0x474e
 14241 30d3 DE300000 		.4byte	0x30de
 14242 30d7 0B       		.uleb128 0xb
 14243 30d8 01       		.uleb128 0x1
 14244 30d9 50       		.byte	0x50
 14245 30da 02       		.uleb128 0x2
 14246 30db 08       		.byte	0x8
 14247 30dc 64       		.byte	0x64
 14248 30dd 00       		.byte	0
 14249 30de 09       		.uleb128 0x9
 14250 30df BA000000 		.4byte	.LVL633
 14251 30e3 44480000 		.4byte	0x4844
 14252 30e7 0A       		.uleb128 0xa
 14253 30e8 CA000000 		.4byte	.LVL634
 14254 30ec 560E0000 		.4byte	0xe56
 14255 30f0 07310000 		.4byte	0x3107
 14256 30f4 0B       		.uleb128 0xb
 14257 30f5 01       		.uleb128 0x1
 14258 30f6 50       		.byte	0x50
 14259 30f7 02       		.uleb128 0x2
 14260 30f8 08       		.byte	0x8
 14261 30f9 21       		.byte	0x21
 14262 30fa 0B       		.uleb128 0xb
 14263 30fb 01       		.uleb128 0x1
 14264 30fc 51       		.byte	0x51
 14265 30fd 02       		.uleb128 0x2
 14266 30fe 76       		.byte	0x76
 14267 30ff 00       		.sleb128 0
 14268 3100 0B       		.uleb128 0xb
 14269 3101 01       		.uleb128 0x1
 14270 3102 52       		.byte	0x52
 14271 3103 02       		.uleb128 0x2
 14272 3104 74       		.byte	0x74
 14273 3105 00       		.sleb128 0
 14274 3106 00       		.byte	0
 14275 3107 0A       		.uleb128 0xa
 14276 3108 D0000000 		.4byte	.LVL635
 14277 310c 4E470000 		.4byte	0x474e
 14278 3110 1A310000 		.4byte	0x311a
 14279 3114 0B       		.uleb128 0xb
 14280 3115 01       		.uleb128 0x1
 14281 3116 50       		.byte	0x50
 14282 3117 01       		.uleb128 0x1
 14283 3118 3A       		.byte	0x3a
 14284 3119 00       		.byte	0
 14285 311a 0A       		.uleb128 0xa
 14286 311b DA000000 		.4byte	.LVL636
 14287 311f 560E0000 		.4byte	0xe56
 14288 3123 3A310000 		.4byte	0x313a
 14289 3127 0B       		.uleb128 0xb
 14290 3128 01       		.uleb128 0x1
 14291 3129 50       		.byte	0x50
 14292 312a 02       		.uleb128 0x2
 14293 312b 08       		.byte	0x8
ARM GAS  C:\Users\Revanth\AppData\Local\Temp\ccbqjHa5.s 			page 314


 14294 312c 21       		.byte	0x21
 14295 312d 0B       		.uleb128 0xb
 14296 312e 01       		.uleb128 0x1
 14297 312f 51       		.byte	0x51
 14298 3130 02       		.uleb128 0x2
 14299 3131 76       		.byte	0x76
 14300 3132 00       		.sleb128 0
 14301 3133 0B       		.uleb128 0xb
 14302 3134 01       		.uleb128 0x1
 14303 3135 52       		.byte	0x52
 14304 3136 02       		.uleb128 0x2
 14305 3137 74       		.byte	0x74
 14306 3138 00       		.sleb128 0
 14307 3139 00       		.byte	0
 14308 313a 0A       		.uleb128 0xa
 14309 313b E0000000 		.4byte	.LVL637
 14310 313f 33020000 		.4byte	0x233
 14311 3143 4E310000 		.4byte	0x314e
 14312 3147 0B       		.uleb128 0xb
 14313 3148 01       		.uleb128 0x1
 14314 3149 50       		.byte	0x50
 14315 314a 02       		.uleb128 0x2
 14316 314b 76       		.byte	0x76
 14317 314c 00       		.sleb128 0
 14318 314d 00       		.byte	0
 14319 314e 0A       		.uleb128 0xa
 14320 314f FE000000 		.4byte	.LVL638
 14321 3153 4E470000 		.4byte	0x474e
 14322 3157 62310000 		.4byte	0x3162
 14323 315b 0B       		.uleb128 0xb
 14324 315c 01       		.uleb128 0x1
 14325 315d 50       		.byte	0x50
 14326 315e 02       		.uleb128 0x2
 14327 315f 08       		.byte	0x8
 14328 3160 64       		.byte	0x64
 14329 3161 00       		.byte	0
 14330 3162 0A       		.uleb128 0xa
 14331 3163 06010000 		.4byte	.LVL639
 14332 3167 3D210000 		.4byte	0x213d
 14333 316b 77310000 		.4byte	0x3177
 14334 316f 0B       		.uleb128 0xb
 14335 3170 01       		.uleb128 0x1
 14336 3171 50       		.byte	0x50
 14337 3172 03       		.uleb128 0x3
 14338 3173 0A       		.byte	0xa
 14339 3174 D80E     		.2byte	0xed8
 14340 3176 00       		.byte	0
 14341 3177 0A       		.uleb128 0xa
 14342 3178 2C010000 		.4byte	.LVL640
 14343 317c 4E470000 		.4byte	0x474e
 14344 3180 8B310000 		.4byte	0x318b
 14345 3184 0B       		.uleb128 0xb
 14346 3185 01       		.uleb128 0x1
 14347 3186 50       		.byte	0x50
 14348 3187 02       		.uleb128 0x2
 14349 3188 08       		.byte	0x8
 14350 3189 64       		.byte	0x64
ARM GAS  C:\Users\Revanth\AppData\Local\Temp\ccbqjHa5.s 			page 315


 14351 318a 00       		.byte	0
 14352 318b 0A       		.uleb128 0xa
 14353 318c 36010000 		.4byte	.LVL641
 14354 3190 560E0000 		.4byte	0xe56
 14355 3194 AB310000 		.4byte	0x31ab
 14356 3198 0B       		.uleb128 0xb
 14357 3199 01       		.uleb128 0x1
 14358 319a 50       		.byte	0x50
 14359 319b 02       		.uleb128 0x2
 14360 319c 08       		.byte	0x8
 14361 319d 21       		.byte	0x21
 14362 319e 0B       		.uleb128 0xb
 14363 319f 01       		.uleb128 0x1
 14364 31a0 51       		.byte	0x51
 14365 31a1 02       		.uleb128 0x2
 14366 31a2 76       		.byte	0x76
 14367 31a3 00       		.sleb128 0
 14368 31a4 0B       		.uleb128 0xb
 14369 31a5 01       		.uleb128 0x1
 14370 31a6 52       		.byte	0x52
 14371 31a7 02       		.uleb128 0x2
 14372 31a8 74       		.byte	0x74
 14373 31a9 00       		.sleb128 0
 14374 31aa 00       		.byte	0
 14375 31ab 0A       		.uleb128 0xa
 14376 31ac 40010000 		.4byte	.LVL642
 14377 31b0 560E0000 		.4byte	0xe56
 14378 31b4 CB310000 		.4byte	0x31cb
 14379 31b8 0B       		.uleb128 0xb
 14380 31b9 01       		.uleb128 0x1
 14381 31ba 50       		.byte	0x50
 14382 31bb 02       		.uleb128 0x2
 14383 31bc 08       		.byte	0x8
 14384 31bd 2D       		.byte	0x2d
 14385 31be 0B       		.uleb128 0xb
 14386 31bf 01       		.uleb128 0x1
 14387 31c0 51       		.byte	0x51
 14388 31c1 02       		.uleb128 0x2
 14389 31c2 76       		.byte	0x76
 14390 31c3 00       		.sleb128 0
 14391 31c4 0B       		.uleb128 0xb
 14392 31c5 01       		.uleb128 0x1
 14393 31c6 52       		.byte	0x52
 14394 31c7 02       		.uleb128 0x2
 14395 31c8 74       		.byte	0x74
 14396 31c9 00       		.sleb128 0
 14397 31ca 00       		.byte	0
 14398 31cb 0A       		.uleb128 0xa
 14399 31cc 4A010000 		.4byte	.LVL643
 14400 31d0 0B240000 		.4byte	0x240b
 14401 31d4 E6310000 		.4byte	0x31e6
 14402 31d8 0B       		.uleb128 0xb
 14403 31d9 01       		.uleb128 0x1
 14404 31da 50       		.byte	0x50
 14405 31db 03       		.uleb128 0x3
 14406 31dc 0A       		.byte	0xa
 14407 31dd 0032     		.2byte	0x3200
ARM GAS  C:\Users\Revanth\AppData\Local\Temp\ccbqjHa5.s 			page 316


 14408 31df 0B       		.uleb128 0xb
 14409 31e0 01       		.uleb128 0x1
 14410 31e1 51       		.byte	0x51
 14411 31e2 02       		.uleb128 0x2
 14412 31e3 74       		.byte	0x74
 14413 31e4 00       		.sleb128 0
 14414 31e5 00       		.byte	0
 14415 31e6 0A       		.uleb128 0xa
 14416 31e7 50010000 		.4byte	.LVL644
 14417 31eb 33020000 		.4byte	0x233
 14418 31ef FA310000 		.4byte	0x31fa
 14419 31f3 0B       		.uleb128 0xb
 14420 31f4 01       		.uleb128 0x1
 14421 31f5 50       		.byte	0x50
 14422 31f6 02       		.uleb128 0x2
 14423 31f7 76       		.byte	0x76
 14424 31f8 00       		.sleb128 0
 14425 31f9 00       		.byte	0
 14426 31fa 0A       		.uleb128 0xa
 14427 31fb 60010000 		.4byte	.LVL645
 14428 31ff E8030000 		.4byte	0x3e8
 14429 3203 11320000 		.4byte	0x3211
 14430 3207 0B       		.uleb128 0xb
 14431 3208 01       		.uleb128 0x1
 14432 3209 50       		.byte	0x50
 14433 320a 05       		.uleb128 0x5
 14434 320b 03       		.byte	0x3
 14435 320c BC040000 		.4byte	.LC40
 14436 3210 00       		.byte	0
 14437 3211 0A       		.uleb128 0xa
 14438 3212 66010000 		.4byte	.LVL646
 14439 3216 23480000 		.4byte	0x4823
 14440 321a 25320000 		.4byte	0x3225
 14441 321e 0B       		.uleb128 0xb
 14442 321f 01       		.uleb128 0x1
 14443 3220 50       		.byte	0x50
 14444 3221 02       		.uleb128 0x2
 14445 3222 09       		.byte	0x9
 14446 3223 FF       		.byte	0xff
 14447 3224 00       		.byte	0
 14448 3225 0C       		.uleb128 0xc
 14449 3226 6C010000 		.4byte	.LVL647
 14450 322a 4E470000 		.4byte	0x474e
 14451 322e 0B       		.uleb128 0xb
 14452 322f 01       		.uleb128 0x1
 14453 3230 50       		.byte	0x50
 14454 3231 02       		.uleb128 0x2
 14455 3232 08       		.byte	0x8
 14456 3233 64       		.byte	0x64
 14457 3234 00       		.byte	0
 14458 3235 00       		.byte	0
 14459 3236 19       		.uleb128 0x19
 14460 3237 A2030000 		.4byte	.LASF96
 14461 323b 01       		.byte	0x1
 14462 323c FD08     		.2byte	0x8fd
 14463 323e 89000000 		.4byte	0x89
 14464 3242 00000000 		.4byte	.LFB109
ARM GAS  C:\Users\Revanth\AppData\Local\Temp\ccbqjHa5.s 			page 317


 14465 3246 10000000 		.4byte	.LFE109-.LFB109
 14466 324a 01       		.uleb128 0x1
 14467 324b 9C       		.byte	0x9c
 14468 324c 88320000 		.4byte	0x3288
 14469 3250 0E       		.uleb128 0xe
 14470 3251 C8070000 		.4byte	.LASF97
 14471 3255 01       		.byte	0x1
 14472 3256 FD08     		.2byte	0x8fd
 14473 3258 89000000 		.4byte	0x89
 14474 325c 1A0A0000 		.4byte	.LLST56
 14475 3260 0E       		.uleb128 0xe
 14476 3261 0F060000 		.4byte	.LASF56
 14477 3265 01       		.byte	0x1
 14478 3266 FD08     		.2byte	0x8fd
 14479 3268 97000000 		.4byte	0x97
 14480 326c 460A0000 		.4byte	.LLST57
 14481 3270 0C       		.uleb128 0xc
 14482 3271 0C000000 		.4byte	.LVL651
 14483 3275 560E0000 		.4byte	0xe56
 14484 3279 0B       		.uleb128 0xb
 14485 327a 01       		.uleb128 0x1
 14486 327b 50       		.byte	0x50
 14487 327c 02       		.uleb128 0x2
 14488 327d 08       		.byte	0x8
 14489 327e 26       		.byte	0x26
 14490 327f 0B       		.uleb128 0xb
 14491 3280 01       		.uleb128 0x1
 14492 3281 51       		.byte	0x51
 14493 3282 03       		.uleb128 0x3
 14494 3283 F3       		.byte	0xf3
 14495 3284 01       		.uleb128 0x1
 14496 3285 50       		.byte	0x50
 14497 3286 00       		.byte	0
 14498 3287 00       		.byte	0
 14499 3288 19       		.uleb128 0x19
 14500 3289 09080000 		.4byte	.LASF98
 14501 328d 01       		.byte	0x1
 14502 328e 0309     		.2byte	0x903
 14503 3290 89000000 		.4byte	0x89
 14504 3294 00000000 		.4byte	.LFB110
 14505 3298 B8010000 		.4byte	.LFE110-.LFB110
 14506 329c 01       		.uleb128 0x1
 14507 329d 9C       		.byte	0x9c
 14508 329e 6E360000 		.4byte	0x366e
 14509 32a2 0E       		.uleb128 0xe
 14510 32a3 9B020000 		.4byte	.LASF99
 14511 32a7 01       		.byte	0x1
 14512 32a8 0309     		.2byte	0x903
 14513 32aa 89000000 		.4byte	0x89
 14514 32ae 670A0000 		.4byte	.LLST58
 14515 32b2 0E       		.uleb128 0xe
 14516 32b3 85000000 		.4byte	.LASF100
 14517 32b7 01       		.byte	0x1
 14518 32b8 0309     		.2byte	0x903
 14519 32ba 97000000 		.4byte	0x97
 14520 32be B80A0000 		.4byte	.LLST59
 14521 32c2 0A       		.uleb128 0xa
ARM GAS  C:\Users\Revanth\AppData\Local\Temp\ccbqjHa5.s 			page 318


 14522 32c3 10000000 		.4byte	.LVL655
 14523 32c7 560E0000 		.4byte	0xe56
 14524 32cb E0320000 		.4byte	0x32e0
 14525 32cf 0B       		.uleb128 0xb
 14526 32d0 01       		.uleb128 0x1
 14527 32d1 50       		.byte	0x50
 14528 32d2 02       		.uleb128 0x2
 14529 32d3 08       		.byte	0x8
 14530 32d4 20       		.byte	0x20
 14531 32d5 0B       		.uleb128 0xb
 14532 32d6 01       		.uleb128 0x1
 14533 32d7 51       		.byte	0x51
 14534 32d8 01       		.uleb128 0x1
 14535 32d9 30       		.byte	0x30
 14536 32da 0B       		.uleb128 0xb
 14537 32db 01       		.uleb128 0x1
 14538 32dc 52       		.byte	0x52
 14539 32dd 01       		.uleb128 0x1
 14540 32de 34       		.byte	0x34
 14541 32df 00       		.byte	0
 14542 32e0 0A       		.uleb128 0xa
 14543 32e1 1A000000 		.4byte	.LVL656
 14544 32e5 560E0000 		.4byte	0xe56
 14545 32e9 FE320000 		.4byte	0x32fe
 14546 32ed 0B       		.uleb128 0xb
 14547 32ee 01       		.uleb128 0x1
 14548 32ef 50       		.byte	0x50
 14549 32f0 02       		.uleb128 0x2
 14550 32f1 08       		.byte	0x8
 14551 32f2 21       		.byte	0x21
 14552 32f3 0B       		.uleb128 0xb
 14553 32f4 01       		.uleb128 0x1
 14554 32f5 51       		.byte	0x51
 14555 32f6 01       		.uleb128 0x1
 14556 32f7 30       		.byte	0x30
 14557 32f8 0B       		.uleb128 0xb
 14558 32f9 01       		.uleb128 0x1
 14559 32fa 52       		.byte	0x52
 14560 32fb 01       		.uleb128 0x1
 14561 32fc 34       		.byte	0x34
 14562 32fd 00       		.byte	0
 14563 32fe 0A       		.uleb128 0xa
 14564 32ff 22000000 		.4byte	.LVL657
 14565 3303 0B240000 		.4byte	0x240b
 14566 3307 1A330000 		.4byte	0x331a
 14567 330b 0B       		.uleb128 0xb
 14568 330c 01       		.uleb128 0x1
 14569 330d 50       		.byte	0x50
 14570 330e 05       		.uleb128 0x5
 14571 330f 0C       		.byte	0xc
 14572 3310 6EA30100 		.4byte	0x1a36e
 14573 3314 0B       		.uleb128 0xb
 14574 3315 01       		.uleb128 0x1
 14575 3316 51       		.byte	0x51
 14576 3317 01       		.uleb128 0x1
 14577 3318 34       		.byte	0x34
 14578 3319 00       		.byte	0
ARM GAS  C:\Users\Revanth\AppData\Local\Temp\ccbqjHa5.s 			page 319


 14579 331a 0A       		.uleb128 0xa
 14580 331b 28000000 		.4byte	.LVL658
 14581 331f 65480000 		.4byte	0x4865
 14582 3323 2D330000 		.4byte	0x332d
 14583 3327 0B       		.uleb128 0xb
 14584 3328 01       		.uleb128 0x1
 14585 3329 50       		.byte	0x50
 14586 332a 01       		.uleb128 0x1
 14587 332b 30       		.byte	0x30
 14588 332c 00       		.byte	0
 14589 332d 0A       		.uleb128 0xa
 14590 332e 2E000000 		.4byte	.LVL659
 14591 3332 BF460000 		.4byte	0x46bf
 14592 3336 40330000 		.4byte	0x3340
 14593 333a 0B       		.uleb128 0xb
 14594 333b 01       		.uleb128 0x1
 14595 333c 50       		.byte	0x50
 14596 333d 01       		.uleb128 0x1
 14597 333e 3F       		.byte	0x3f
 14598 333f 00       		.byte	0
 14599 3340 0A       		.uleb128 0xa
 14600 3341 38000000 		.4byte	.LVL660
 14601 3345 BF460000 		.4byte	0x46bf
 14602 3349 53330000 		.4byte	0x3353
 14603 334d 0B       		.uleb128 0xb
 14604 334e 01       		.uleb128 0x1
 14605 334f 50       		.byte	0x50
 14606 3350 01       		.uleb128 0x1
 14607 3351 31       		.byte	0x31
 14608 3352 00       		.byte	0
 14609 3353 0A       		.uleb128 0xa
 14610 3354 4E000000 		.4byte	.LVL662
 14611 3358 410F0000 		.4byte	0xf41
 14612 335c 6C330000 		.4byte	0x336c
 14613 3360 0B       		.uleb128 0xb
 14614 3361 01       		.uleb128 0x1
 14615 3362 50       		.byte	0x50
 14616 3363 02       		.uleb128 0x2
 14617 3364 75       		.byte	0x75
 14618 3365 00       		.sleb128 0
 14619 3366 0B       		.uleb128 0xb
 14620 3367 01       		.uleb128 0x1
 14621 3368 51       		.byte	0x51
 14622 3369 01       		.uleb128 0x1
 14623 336a 34       		.byte	0x34
 14624 336b 00       		.byte	0
 14625 336c 0A       		.uleb128 0xa
 14626 336d 5A000000 		.4byte	.LVL664
 14627 3371 C00B0000 		.4byte	0xbc0
 14628 3375 8A330000 		.4byte	0x338a
 14629 3379 0B       		.uleb128 0xb
 14630 337a 01       		.uleb128 0x1
 14631 337b 50       		.byte	0x50
 14632 337c 01       		.uleb128 0x1
 14633 337d 34       		.byte	0x34
 14634 337e 0B       		.uleb128 0xb
 14635 337f 01       		.uleb128 0x1
ARM GAS  C:\Users\Revanth\AppData\Local\Temp\ccbqjHa5.s 			page 320


 14636 3380 51       		.byte	0x51
 14637 3381 01       		.uleb128 0x1
 14638 3382 34       		.byte	0x34
 14639 3383 0B       		.uleb128 0xb
 14640 3384 01       		.uleb128 0x1
 14641 3385 52       		.byte	0x52
 14642 3386 02       		.uleb128 0x2
 14643 3387 74       		.byte	0x74
 14644 3388 00       		.sleb128 0
 14645 3389 00       		.byte	0
 14646 338a 0A       		.uleb128 0xa
 14647 338b 62000000 		.4byte	.LVL665
 14648 338f 4E470000 		.4byte	0x474e
 14649 3393 9F330000 		.4byte	0x339f
 14650 3397 0B       		.uleb128 0xb
 14651 3398 01       		.uleb128 0x1
 14652 3399 50       		.byte	0x50
 14653 339a 03       		.uleb128 0x3
 14654 339b 0A       		.byte	0xa
 14655 339c F401     		.2byte	0x1f4
 14656 339e 00       		.byte	0
 14657 339f 0A       		.uleb128 0xa
 14658 33a0 6C000000 		.4byte	.LVL666
 14659 33a4 C00B0000 		.4byte	0xbc0
 14660 33a8 BD330000 		.4byte	0x33bd
 14661 33ac 0B       		.uleb128 0xb
 14662 33ad 01       		.uleb128 0x1
 14663 33ae 50       		.byte	0x50
 14664 33af 01       		.uleb128 0x1
 14665 33b0 34       		.byte	0x34
 14666 33b1 0B       		.uleb128 0xb
 14667 33b2 01       		.uleb128 0x1
 14668 33b3 51       		.byte	0x51
 14669 33b4 01       		.uleb128 0x1
 14670 33b5 34       		.byte	0x34
 14671 33b6 0B       		.uleb128 0xb
 14672 33b7 01       		.uleb128 0x1
 14673 33b8 52       		.byte	0x52
 14674 33b9 02       		.uleb128 0x2
 14675 33ba 74       		.byte	0x74
 14676 33bb 00       		.sleb128 0
 14677 33bc 00       		.byte	0
 14678 33bd 09       		.uleb128 0x9
 14679 33be 72000000 		.4byte	.LVL667
 14680 33c2 2E480000 		.4byte	0x482e
 14681 33c6 0A       		.uleb128 0xa
 14682 33c7 78000000 		.4byte	.LVL668
 14683 33cb 39480000 		.4byte	0x4839
 14684 33cf DD330000 		.4byte	0x33dd
 14685 33d3 0B       		.uleb128 0xb
 14686 33d4 01       		.uleb128 0x1
 14687 33d5 50       		.byte	0x50
 14688 33d6 05       		.uleb128 0x5
 14689 33d7 03       		.byte	0x3
 14690 33d8 00000000 		.4byte	wait_interrupt_Handler
 14691 33dc 00       		.byte	0
 14692 33dd 0A       		.uleb128 0xa
ARM GAS  C:\Users\Revanth\AppData\Local\Temp\ccbqjHa5.s 			page 321


 14693 33de 82000000 		.4byte	.LVL669
 14694 33e2 C00B0000 		.4byte	0xbc0
 14695 33e6 FB330000 		.4byte	0x33fb
 14696 33ea 0B       		.uleb128 0xb
 14697 33eb 01       		.uleb128 0x1
 14698 33ec 50       		.byte	0x50
 14699 33ed 01       		.uleb128 0x1
 14700 33ee 34       		.byte	0x34
 14701 33ef 0B       		.uleb128 0xb
 14702 33f0 01       		.uleb128 0x1
 14703 33f1 51       		.byte	0x51
 14704 33f2 01       		.uleb128 0x1
 14705 33f3 34       		.byte	0x34
 14706 33f4 0B       		.uleb128 0xb
 14707 33f5 01       		.uleb128 0x1
 14708 33f6 52       		.byte	0x52
 14709 33f7 02       		.uleb128 0x2
 14710 33f8 74       		.byte	0x74
 14711 33f9 00       		.sleb128 0
 14712 33fa 00       		.byte	0
 14713 33fb 0A       		.uleb128 0xa
 14714 33fc 90000000 		.4byte	.LVL670
 14715 3400 45060000 		.4byte	0x645
 14716 3404 10340000 		.4byte	0x3410
 14717 3408 0B       		.uleb128 0xb
 14718 3409 01       		.uleb128 0x1
 14719 340a 50       		.byte	0x50
 14720 340b 03       		.uleb128 0x3
 14721 340c 0A       		.byte	0xa
 14722 340d 1DFA     		.2byte	0xfa1d
 14723 340f 00       		.byte	0
 14724 3410 09       		.uleb128 0x9
 14725 3411 94000000 		.4byte	.LVL671
 14726 3415 44480000 		.4byte	0x4844
 14727 3419 0A       		.uleb128 0xa
 14728 341a 9E000000 		.4byte	.LVL672
 14729 341e 560E0000 		.4byte	0xe56
 14730 3422 37340000 		.4byte	0x3437
 14731 3426 0B       		.uleb128 0xb
 14732 3427 01       		.uleb128 0x1
 14733 3428 50       		.byte	0x50
 14734 3429 02       		.uleb128 0x2
 14735 342a 08       		.byte	0x8
 14736 342b 20       		.byte	0x20
 14737 342c 0B       		.uleb128 0xb
 14738 342d 01       		.uleb128 0x1
 14739 342e 51       		.byte	0x51
 14740 342f 01       		.uleb128 0x1
 14741 3430 30       		.byte	0x30
 14742 3431 0B       		.uleb128 0xb
 14743 3432 01       		.uleb128 0x1
 14744 3433 52       		.byte	0x52
 14745 3434 01       		.uleb128 0x1
 14746 3435 34       		.byte	0x34
 14747 3436 00       		.byte	0
 14748 3437 0A       		.uleb128 0xa
 14749 3438 A8000000 		.4byte	.LVL673
ARM GAS  C:\Users\Revanth\AppData\Local\Temp\ccbqjHa5.s 			page 322


 14750 343c 560E0000 		.4byte	0xe56
 14751 3440 55340000 		.4byte	0x3455
 14752 3444 0B       		.uleb128 0xb
 14753 3445 01       		.uleb128 0x1
 14754 3446 50       		.byte	0x50
 14755 3447 02       		.uleb128 0x2
 14756 3448 08       		.byte	0x8
 14757 3449 21       		.byte	0x21
 14758 344a 0B       		.uleb128 0xb
 14759 344b 01       		.uleb128 0x1
 14760 344c 51       		.byte	0x51
 14761 344d 01       		.uleb128 0x1
 14762 344e 30       		.byte	0x30
 14763 344f 0B       		.uleb128 0xb
 14764 3450 01       		.uleb128 0x1
 14765 3451 52       		.byte	0x52
 14766 3452 01       		.uleb128 0x1
 14767 3453 34       		.byte	0x34
 14768 3454 00       		.byte	0
 14769 3455 0A       		.uleb128 0xa
 14770 3456 B2000000 		.4byte	.LVL674
 14771 345a 560E0000 		.4byte	0xe56
 14772 345e 73340000 		.4byte	0x3473
 14773 3462 0B       		.uleb128 0xb
 14774 3463 01       		.uleb128 0x1
 14775 3464 50       		.byte	0x50
 14776 3465 02       		.uleb128 0x2
 14777 3466 08       		.byte	0x8
 14778 3467 2D       		.byte	0x2d
 14779 3468 0B       		.uleb128 0xb
 14780 3469 01       		.uleb128 0x1
 14781 346a 51       		.byte	0x51
 14782 346b 01       		.uleb128 0x1
 14783 346c 30       		.byte	0x30
 14784 346d 0B       		.uleb128 0xb
 14785 346e 01       		.uleb128 0x1
 14786 346f 52       		.byte	0x52
 14787 3470 01       		.uleb128 0x1
 14788 3471 34       		.byte	0x34
 14789 3472 00       		.byte	0
 14790 3473 0A       		.uleb128 0xa
 14791 3474 C2000000 		.4byte	.LVL675
 14792 3478 65480000 		.4byte	0x4865
 14793 347c 87340000 		.4byte	0x3487
 14794 3480 0B       		.uleb128 0xb
 14795 3481 01       		.uleb128 0x1
 14796 3482 50       		.byte	0x50
 14797 3483 02       		.uleb128 0x2
 14798 3484 09       		.byte	0x9
 14799 3485 FF       		.byte	0xff
 14800 3486 00       		.byte	0
 14801 3487 0A       		.uleb128 0xa
 14802 3488 CC000000 		.4byte	.LVL677
 14803 348c 4E470000 		.4byte	0x474e
 14804 3490 9B340000 		.4byte	0x349b
 14805 3494 0B       		.uleb128 0xb
 14806 3495 01       		.uleb128 0x1
ARM GAS  C:\Users\Revanth\AppData\Local\Temp\ccbqjHa5.s 			page 323


 14807 3496 50       		.byte	0x50
 14808 3497 02       		.uleb128 0x2
 14809 3498 08       		.byte	0x8
 14810 3499 64       		.byte	0x64
 14811 349a 00       		.byte	0
 14812 349b 09       		.uleb128 0x9
 14813 349c DA000000 		.4byte	.LVL678
 14814 34a0 44480000 		.4byte	0x4844
 14815 34a4 0A       		.uleb128 0xa
 14816 34a5 EA000000 		.4byte	.LVL681
 14817 34a9 410F0000 		.4byte	0xf41
 14818 34ad BE340000 		.4byte	0x34be
 14819 34b1 0B       		.uleb128 0xb
 14820 34b2 01       		.uleb128 0x1
 14821 34b3 50       		.byte	0x50
 14822 34b4 03       		.uleb128 0x3
 14823 34b5 75       		.byte	0x75
 14824 34b6 00       		.sleb128 0
 14825 34b7 1F       		.byte	0x1f
 14826 34b8 0B       		.uleb128 0xb
 14827 34b9 01       		.uleb128 0x1
 14828 34ba 51       		.byte	0x51
 14829 34bb 01       		.uleb128 0x1
 14830 34bc 34       		.byte	0x34
 14831 34bd 00       		.byte	0
 14832 34be 0A       		.uleb128 0xa
 14833 34bf F6000000 		.4byte	.LVL683
 14834 34c3 C00B0000 		.4byte	0xbc0
 14835 34c7 DC340000 		.4byte	0x34dc
 14836 34cb 0B       		.uleb128 0xb
 14837 34cc 01       		.uleb128 0x1
 14838 34cd 50       		.byte	0x50
 14839 34ce 01       		.uleb128 0x1
 14840 34cf 34       		.byte	0x34
 14841 34d0 0B       		.uleb128 0xb
 14842 34d1 01       		.uleb128 0x1
 14843 34d2 51       		.byte	0x51
 14844 34d3 01       		.uleb128 0x1
 14845 34d4 34       		.byte	0x34
 14846 34d5 0B       		.uleb128 0xb
 14847 34d6 01       		.uleb128 0x1
 14848 34d7 52       		.byte	0x52
 14849 34d8 02       		.uleb128 0x2
 14850 34d9 74       		.byte	0x74
 14851 34da 00       		.sleb128 0
 14852 34db 00       		.byte	0
 14853 34dc 0A       		.uleb128 0xa
 14854 34dd FE000000 		.4byte	.LVL684
 14855 34e1 4E470000 		.4byte	0x474e
 14856 34e5 F1340000 		.4byte	0x34f1
 14857 34e9 0B       		.uleb128 0xb
 14858 34ea 01       		.uleb128 0x1
 14859 34eb 50       		.byte	0x50
 14860 34ec 03       		.uleb128 0x3
 14861 34ed 0A       		.byte	0xa
 14862 34ee F401     		.2byte	0x1f4
 14863 34f0 00       		.byte	0
ARM GAS  C:\Users\Revanth\AppData\Local\Temp\ccbqjHa5.s 			page 324


 14864 34f1 0A       		.uleb128 0xa
 14865 34f2 08010000 		.4byte	.LVL685
 14866 34f6 C00B0000 		.4byte	0xbc0
 14867 34fa 0F350000 		.4byte	0x350f
 14868 34fe 0B       		.uleb128 0xb
 14869 34ff 01       		.uleb128 0x1
 14870 3500 50       		.byte	0x50
 14871 3501 01       		.uleb128 0x1
 14872 3502 34       		.byte	0x34
 14873 3503 0B       		.uleb128 0xb
 14874 3504 01       		.uleb128 0x1
 14875 3505 51       		.byte	0x51
 14876 3506 01       		.uleb128 0x1
 14877 3507 34       		.byte	0x34
 14878 3508 0B       		.uleb128 0xb
 14879 3509 01       		.uleb128 0x1
 14880 350a 52       		.byte	0x52
 14881 350b 02       		.uleb128 0x2
 14882 350c 74       		.byte	0x74
 14883 350d 00       		.sleb128 0
 14884 350e 00       		.byte	0
 14885 350f 09       		.uleb128 0x9
 14886 3510 0E010000 		.4byte	.LVL686
 14887 3514 2E480000 		.4byte	0x482e
 14888 3518 0A       		.uleb128 0xa
 14889 3519 14010000 		.4byte	.LVL687
 14890 351d 39480000 		.4byte	0x4839
 14891 3521 2F350000 		.4byte	0x352f
 14892 3525 0B       		.uleb128 0xb
 14893 3526 01       		.uleb128 0x1
 14894 3527 50       		.byte	0x50
 14895 3528 05       		.uleb128 0x5
 14896 3529 03       		.byte	0x3
 14897 352a 00000000 		.4byte	wait_interrupt_Handler
 14898 352e 00       		.byte	0
 14899 352f 0A       		.uleb128 0xa
 14900 3530 1E010000 		.4byte	.LVL688
 14901 3534 C00B0000 		.4byte	0xbc0
 14902 3538 4D350000 		.4byte	0x354d
 14903 353c 0B       		.uleb128 0xb
 14904 353d 01       		.uleb128 0x1
 14905 353e 50       		.byte	0x50
 14906 353f 01       		.uleb128 0x1
 14907 3540 34       		.byte	0x34
 14908 3541 0B       		.uleb128 0xb
 14909 3542 01       		.uleb128 0x1
 14910 3543 51       		.byte	0x51
 14911 3544 01       		.uleb128 0x1
 14912 3545 34       		.byte	0x34
 14913 3546 0B       		.uleb128 0xb
 14914 3547 01       		.uleb128 0x1
 14915 3548 52       		.byte	0x52
 14916 3549 02       		.uleb128 0x2
 14917 354a 74       		.byte	0x74
 14918 354b 00       		.sleb128 0
 14919 354c 00       		.byte	0
 14920 354d 0A       		.uleb128 0xa
ARM GAS  C:\Users\Revanth\AppData\Local\Temp\ccbqjHa5.s 			page 325


 14921 354e 2C010000 		.4byte	.LVL689
 14922 3552 45060000 		.4byte	0x645
 14923 3556 62350000 		.4byte	0x3562
 14924 355a 0B       		.uleb128 0xb
 14925 355b 01       		.uleb128 0x1
 14926 355c 50       		.byte	0x50
 14927 355d 03       		.uleb128 0x3
 14928 355e 0A       		.byte	0xa
 14929 355f 1DFA     		.2byte	0xfa1d
 14930 3561 00       		.byte	0
 14931 3562 09       		.uleb128 0x9
 14932 3563 30010000 		.4byte	.LVL690
 14933 3567 44480000 		.4byte	0x4844
 14934 356b 0A       		.uleb128 0xa
 14935 356c 3A010000 		.4byte	.LVL691
 14936 3570 560E0000 		.4byte	0xe56
 14937 3574 89350000 		.4byte	0x3589
 14938 3578 0B       		.uleb128 0xb
 14939 3579 01       		.uleb128 0x1
 14940 357a 50       		.byte	0x50
 14941 357b 02       		.uleb128 0x2
 14942 357c 08       		.byte	0x8
 14943 357d 20       		.byte	0x20
 14944 357e 0B       		.uleb128 0xb
 14945 357f 01       		.uleb128 0x1
 14946 3580 51       		.byte	0x51
 14947 3581 01       		.uleb128 0x1
 14948 3582 30       		.byte	0x30
 14949 3583 0B       		.uleb128 0xb
 14950 3584 01       		.uleb128 0x1
 14951 3585 52       		.byte	0x52
 14952 3586 01       		.uleb128 0x1
 14953 3587 34       		.byte	0x34
 14954 3588 00       		.byte	0
 14955 3589 0A       		.uleb128 0xa
 14956 358a 44010000 		.4byte	.LVL692
 14957 358e 560E0000 		.4byte	0xe56
 14958 3592 A7350000 		.4byte	0x35a7
 14959 3596 0B       		.uleb128 0xb
 14960 3597 01       		.uleb128 0x1
 14961 3598 50       		.byte	0x50
 14962 3599 02       		.uleb128 0x2
 14963 359a 08       		.byte	0x8
 14964 359b 21       		.byte	0x21
 14965 359c 0B       		.uleb128 0xb
 14966 359d 01       		.uleb128 0x1
 14967 359e 51       		.byte	0x51
 14968 359f 01       		.uleb128 0x1
 14969 35a0 30       		.byte	0x30
 14970 35a1 0B       		.uleb128 0xb
 14971 35a2 01       		.uleb128 0x1
 14972 35a3 52       		.byte	0x52
 14973 35a4 01       		.uleb128 0x1
 14974 35a5 34       		.byte	0x34
 14975 35a6 00       		.byte	0
 14976 35a7 0A       		.uleb128 0xa
 14977 35a8 4E010000 		.4byte	.LVL693
ARM GAS  C:\Users\Revanth\AppData\Local\Temp\ccbqjHa5.s 			page 326


 14978 35ac 560E0000 		.4byte	0xe56
 14979 35b0 C5350000 		.4byte	0x35c5
 14980 35b4 0B       		.uleb128 0xb
 14981 35b5 01       		.uleb128 0x1
 14982 35b6 50       		.byte	0x50
 14983 35b7 02       		.uleb128 0x2
 14984 35b8 08       		.byte	0x8
 14985 35b9 2D       		.byte	0x2d
 14986 35ba 0B       		.uleb128 0xb
 14987 35bb 01       		.uleb128 0x1
 14988 35bc 51       		.byte	0x51
 14989 35bd 01       		.uleb128 0x1
 14990 35be 30       		.byte	0x30
 14991 35bf 0B       		.uleb128 0xb
 14992 35c0 01       		.uleb128 0x1
 14993 35c1 52       		.byte	0x52
 14994 35c2 01       		.uleb128 0x1
 14995 35c3 34       		.byte	0x34
 14996 35c4 00       		.byte	0
 14997 35c5 0A       		.uleb128 0xa
 14998 35c6 5E010000 		.4byte	.LVL694
 14999 35ca 65480000 		.4byte	0x4865
 15000 35ce D9350000 		.4byte	0x35d9
 15001 35d2 0B       		.uleb128 0xb
 15002 35d3 01       		.uleb128 0x1
 15003 35d4 50       		.byte	0x50
 15004 35d5 02       		.uleb128 0x2
 15005 35d6 09       		.byte	0x9
 15006 35d7 FF       		.byte	0xff
 15007 35d8 00       		.byte	0
 15008 35d9 0A       		.uleb128 0xa
 15009 35da 68010000 		.4byte	.LVL696
 15010 35de 4E470000 		.4byte	0x474e
 15011 35e2 ED350000 		.4byte	0x35ed
 15012 35e6 0B       		.uleb128 0xb
 15013 35e7 01       		.uleb128 0x1
 15014 35e8 50       		.byte	0x50
 15015 35e9 02       		.uleb128 0x2
 15016 35ea 08       		.byte	0x8
 15017 35eb 64       		.byte	0x64
 15018 35ec 00       		.byte	0
 15019 35ed 09       		.uleb128 0x9
 15020 35ee 76010000 		.4byte	.LVL697
 15021 35f2 44480000 		.4byte	0x4844
 15022 35f6 0A       		.uleb128 0xa
 15023 35f7 84010000 		.4byte	.LVL699
 15024 35fb 0B240000 		.4byte	0x240b
 15025 35ff 0E360000 		.4byte	0x360e
 15026 3603 0B       		.uleb128 0xb
 15027 3604 01       		.uleb128 0x1
 15028 3605 50       		.byte	0x50
 15029 3606 01       		.uleb128 0x1
 15030 3607 30       		.byte	0x30
 15031 3608 0B       		.uleb128 0xb
 15032 3609 01       		.uleb128 0x1
 15033 360a 51       		.byte	0x51
 15034 360b 01       		.uleb128 0x1
ARM GAS  C:\Users\Revanth\AppData\Local\Temp\ccbqjHa5.s 			page 327


 15035 360c 34       		.byte	0x34
 15036 360d 00       		.byte	0
 15037 360e 0A       		.uleb128 0xa
 15038 360f 8E010000 		.4byte	.LVL700
 15039 3613 560E0000 		.4byte	0xe56
 15040 3617 2C360000 		.4byte	0x362c
 15041 361b 0B       		.uleb128 0xb
 15042 361c 01       		.uleb128 0x1
 15043 361d 50       		.byte	0x50
 15044 361e 02       		.uleb128 0x2
 15045 361f 08       		.byte	0x8
 15046 3620 21       		.byte	0x21
 15047 3621 0B       		.uleb128 0xb
 15048 3622 01       		.uleb128 0x1
 15049 3623 51       		.byte	0x51
 15050 3624 01       		.uleb128 0x1
 15051 3625 30       		.byte	0x30
 15052 3626 0B       		.uleb128 0xb
 15053 3627 01       		.uleb128 0x1
 15054 3628 52       		.byte	0x52
 15055 3629 01       		.uleb128 0x1
 15056 362a 34       		.byte	0x34
 15057 362b 00       		.byte	0
 15058 362c 0A       		.uleb128 0xa
 15059 362d 98010000 		.4byte	.LVL701
 15060 3631 560E0000 		.4byte	0xe56
 15061 3635 4A360000 		.4byte	0x364a
 15062 3639 0B       		.uleb128 0xb
 15063 363a 01       		.uleb128 0x1
 15064 363b 50       		.byte	0x50
 15065 363c 02       		.uleb128 0x2
 15066 363d 08       		.byte	0x8
 15067 363e 20       		.byte	0x20
 15068 363f 0B       		.uleb128 0xb
 15069 3640 01       		.uleb128 0x1
 15070 3641 51       		.byte	0x51
 15071 3642 01       		.uleb128 0x1
 15072 3643 30       		.byte	0x30
 15073 3644 0B       		.uleb128 0xb
 15074 3645 01       		.uleb128 0x1
 15075 3646 52       		.byte	0x52
 15076 3647 01       		.uleb128 0x1
 15077 3648 34       		.byte	0x34
 15078 3649 00       		.byte	0
 15079 364a 0A       		.uleb128 0xa
 15080 364b 9E010000 		.4byte	.LVL702
 15081 364f BF460000 		.4byte	0x46bf
 15082 3653 5D360000 		.4byte	0x365d
 15083 3657 0B       		.uleb128 0xb
 15084 3658 01       		.uleb128 0x1
 15085 3659 50       		.byte	0x50
 15086 365a 01       		.uleb128 0x1
 15087 365b 35       		.byte	0x35
 15088 365c 00       		.byte	0
 15089 365d 0C       		.uleb128 0xc
 15090 365e A4010000 		.4byte	.LVL703
 15091 3662 65480000 		.4byte	0x4865
ARM GAS  C:\Users\Revanth\AppData\Local\Temp\ccbqjHa5.s 			page 328


 15092 3666 0B       		.uleb128 0xb
 15093 3667 01       		.uleb128 0x1
 15094 3668 50       		.byte	0x50
 15095 3669 02       		.uleb128 0x2
 15096 366a 09       		.byte	0x9
 15097 366b FF       		.byte	0xff
 15098 366c 00       		.byte	0
 15099 366d 00       		.byte	0
 15100 366e 19       		.uleb128 0x19
 15101 366f 320A0000 		.4byte	.LASF101
 15102 3673 01       		.byte	0x1
 15103 3674 6209     		.2byte	0x962
 15104 3676 89000000 		.4byte	0x89
 15105 367a 00000000 		.4byte	.LFB111
 15106 367e 80000000 		.4byte	.LFE111-.LFB111
 15107 3682 01       		.uleb128 0x1
 15108 3683 9C       		.byte	0x9c
 15109 3684 04380000 		.4byte	0x3804
 15110 3688 0E       		.uleb128 0xe
 15111 3689 9B020000 		.4byte	.LASF99
 15112 368d 01       		.byte	0x1
 15113 368e 6209     		.2byte	0x962
 15114 3690 89000000 		.4byte	0x89
 15115 3694 EF0A0000 		.4byte	.LLST60
 15116 3698 0E       		.uleb128 0xe
 15117 3699 690B0000 		.4byte	.LASF102
 15118 369d 01       		.byte	0x1
 15119 369e 6209     		.2byte	0x962
 15120 36a0 89000000 		.4byte	0x89
 15121 36a4 340B0000 		.4byte	.LLST61
 15122 36a8 0E       		.uleb128 0xe
 15123 36a9 85000000 		.4byte	.LASF100
 15124 36ad 01       		.byte	0x1
 15125 36ae 6209     		.2byte	0x962
 15126 36b0 97000000 		.4byte	0x97
 15127 36b4 520B0000 		.4byte	.LLST62
 15128 36b8 0A       		.uleb128 0xa
 15129 36b9 12000000 		.4byte	.LVL708
 15130 36bd 560E0000 		.4byte	0xe56
 15131 36c1 D6360000 		.4byte	0x36d6
 15132 36c5 0B       		.uleb128 0xb
 15133 36c6 01       		.uleb128 0x1
 15134 36c7 50       		.byte	0x50
 15135 36c8 02       		.uleb128 0x2
 15136 36c9 08       		.byte	0x8
 15137 36ca 20       		.byte	0x20
 15138 36cb 0B       		.uleb128 0xb
 15139 36cc 01       		.uleb128 0x1
 15140 36cd 51       		.byte	0x51
 15141 36ce 01       		.uleb128 0x1
 15142 36cf 30       		.byte	0x30
 15143 36d0 0B       		.uleb128 0xb
 15144 36d1 01       		.uleb128 0x1
 15145 36d2 52       		.byte	0x52
 15146 36d3 01       		.uleb128 0x1
 15147 36d4 34       		.byte	0x34
 15148 36d5 00       		.byte	0
ARM GAS  C:\Users\Revanth\AppData\Local\Temp\ccbqjHa5.s 			page 329


 15149 36d6 0A       		.uleb128 0xa
 15150 36d7 1C000000 		.4byte	.LVL709
 15151 36db 560E0000 		.4byte	0xe56
 15152 36df F4360000 		.4byte	0x36f4
 15153 36e3 0B       		.uleb128 0xb
 15154 36e4 01       		.uleb128 0x1
 15155 36e5 50       		.byte	0x50
 15156 36e6 02       		.uleb128 0x2
 15157 36e7 08       		.byte	0x8
 15158 36e8 21       		.byte	0x21
 15159 36e9 0B       		.uleb128 0xb
 15160 36ea 01       		.uleb128 0x1
 15161 36eb 51       		.byte	0x51
 15162 36ec 01       		.uleb128 0x1
 15163 36ed 30       		.byte	0x30
 15164 36ee 0B       		.uleb128 0xb
 15165 36ef 01       		.uleb128 0x1
 15166 36f0 52       		.byte	0x52
 15167 36f1 01       		.uleb128 0x1
 15168 36f2 34       		.byte	0x34
 15169 36f3 00       		.byte	0
 15170 36f4 0A       		.uleb128 0xa
 15171 36f5 24000000 		.4byte	.LVL710
 15172 36f9 0B240000 		.4byte	0x240b
 15173 36fd 0D370000 		.4byte	0x370d
 15174 3701 0B       		.uleb128 0xb
 15175 3702 01       		.uleb128 0x1
 15176 3703 50       		.byte	0x50
 15177 3704 02       		.uleb128 0x2
 15178 3705 75       		.byte	0x75
 15179 3706 00       		.sleb128 0
 15180 3707 0B       		.uleb128 0xb
 15181 3708 01       		.uleb128 0x1
 15182 3709 51       		.byte	0x51
 15183 370a 01       		.uleb128 0x1
 15184 370b 34       		.byte	0x34
 15185 370c 00       		.byte	0
 15186 370d 0A       		.uleb128 0xa
 15187 370e 2A000000 		.4byte	.LVL711
 15188 3712 65480000 		.4byte	0x4865
 15189 3716 20370000 		.4byte	0x3720
 15190 371a 0B       		.uleb128 0xb
 15191 371b 01       		.uleb128 0x1
 15192 371c 50       		.byte	0x50
 15193 371d 01       		.uleb128 0x1
 15194 371e 30       		.byte	0x30
 15195 371f 00       		.byte	0
 15196 3720 0A       		.uleb128 0xa
 15197 3721 30000000 		.4byte	.LVL712
 15198 3725 BF460000 		.4byte	0x46bf
 15199 3729 33370000 		.4byte	0x3733
 15200 372d 0B       		.uleb128 0xb
 15201 372e 01       		.uleb128 0x1
 15202 372f 50       		.byte	0x50
 15203 3730 01       		.uleb128 0x1
 15204 3731 3A       		.byte	0x3a
 15205 3732 00       		.byte	0
ARM GAS  C:\Users\Revanth\AppData\Local\Temp\ccbqjHa5.s 			page 330


 15206 3733 0A       		.uleb128 0xa
 15207 3734 3E000000 		.4byte	.LVL713
 15208 3738 410F0000 		.4byte	0xf41
 15209 373c 4C370000 		.4byte	0x374c
 15210 3740 0B       		.uleb128 0xb
 15211 3741 01       		.uleb128 0x1
 15212 3742 50       		.byte	0x50
 15213 3743 02       		.uleb128 0x2
 15214 3744 76       		.byte	0x76
 15215 3745 00       		.sleb128 0
 15216 3746 0B       		.uleb128 0xb
 15217 3747 01       		.uleb128 0x1
 15218 3748 51       		.byte	0x51
 15219 3749 01       		.uleb128 0x1
 15220 374a 34       		.byte	0x34
 15221 374b 00       		.byte	0
 15222 374c 0A       		.uleb128 0xa
 15223 374d 44000000 		.4byte	.LVL714
 15224 3751 5C170000 		.4byte	0x175c
 15225 3755 5F370000 		.4byte	0x375f
 15226 3759 0B       		.uleb128 0xb
 15227 375a 01       		.uleb128 0x1
 15228 375b 50       		.byte	0x50
 15229 375c 01       		.uleb128 0x1
 15230 375d 34       		.byte	0x34
 15231 375e 00       		.byte	0
 15232 375f 0A       		.uleb128 0xa
 15233 3760 4E000000 		.4byte	.LVL717
 15234 3764 410F0000 		.4byte	0xf41
 15235 3768 79370000 		.4byte	0x3779
 15236 376c 0B       		.uleb128 0xb
 15237 376d 01       		.uleb128 0x1
 15238 376e 50       		.byte	0x50
 15239 376f 03       		.uleb128 0x3
 15240 3770 76       		.byte	0x76
 15241 3771 00       		.sleb128 0
 15242 3772 1F       		.byte	0x1f
 15243 3773 0B       		.uleb128 0xb
 15244 3774 01       		.uleb128 0x1
 15245 3775 51       		.byte	0x51
 15246 3776 01       		.uleb128 0x1
 15247 3777 34       		.byte	0x34
 15248 3778 00       		.byte	0
 15249 3779 0A       		.uleb128 0xa
 15250 377a 54000000 		.4byte	.LVL718
 15251 377e 5C170000 		.4byte	0x175c
 15252 3782 8C370000 		.4byte	0x378c
 15253 3786 0B       		.uleb128 0xb
 15254 3787 01       		.uleb128 0x1
 15255 3788 50       		.byte	0x50
 15256 3789 01       		.uleb128 0x1
 15257 378a 34       		.byte	0x34
 15258 378b 00       		.byte	0
 15259 378c 0A       		.uleb128 0xa
 15260 378d 5C000000 		.4byte	.LVL719
 15261 3791 0B240000 		.4byte	0x240b
 15262 3795 A4370000 		.4byte	0x37a4
ARM GAS  C:\Users\Revanth\AppData\Local\Temp\ccbqjHa5.s 			page 331


 15263 3799 0B       		.uleb128 0xb
 15264 379a 01       		.uleb128 0x1
 15265 379b 50       		.byte	0x50
 15266 379c 01       		.uleb128 0x1
 15267 379d 30       		.byte	0x30
 15268 379e 0B       		.uleb128 0xb
 15269 379f 01       		.uleb128 0x1
 15270 37a0 51       		.byte	0x51
 15271 37a1 01       		.uleb128 0x1
 15272 37a2 34       		.byte	0x34
 15273 37a3 00       		.byte	0
 15274 37a4 0A       		.uleb128 0xa
 15275 37a5 66000000 		.4byte	.LVL720
 15276 37a9 560E0000 		.4byte	0xe56
 15277 37ad C2370000 		.4byte	0x37c2
 15278 37b1 0B       		.uleb128 0xb
 15279 37b2 01       		.uleb128 0x1
 15280 37b3 50       		.byte	0x50
 15281 37b4 02       		.uleb128 0x2
 15282 37b5 08       		.byte	0x8
 15283 37b6 21       		.byte	0x21
 15284 37b7 0B       		.uleb128 0xb
 15285 37b8 01       		.uleb128 0x1
 15286 37b9 51       		.byte	0x51
 15287 37ba 01       		.uleb128 0x1
 15288 37bb 30       		.byte	0x30
 15289 37bc 0B       		.uleb128 0xb
 15290 37bd 01       		.uleb128 0x1
 15291 37be 52       		.byte	0x52
 15292 37bf 01       		.uleb128 0x1
 15293 37c0 34       		.byte	0x34
 15294 37c1 00       		.byte	0
 15295 37c2 0A       		.uleb128 0xa
 15296 37c3 70000000 		.4byte	.LVL721
 15297 37c7 560E0000 		.4byte	0xe56
 15298 37cb E0370000 		.4byte	0x37e0
 15299 37cf 0B       		.uleb128 0xb
 15300 37d0 01       		.uleb128 0x1
 15301 37d1 50       		.byte	0x50
 15302 37d2 02       		.uleb128 0x2
 15303 37d3 08       		.byte	0x8
 15304 37d4 20       		.byte	0x20
 15305 37d5 0B       		.uleb128 0xb
 15306 37d6 01       		.uleb128 0x1
 15307 37d7 51       		.byte	0x51
 15308 37d8 01       		.uleb128 0x1
 15309 37d9 31       		.byte	0x31
 15310 37da 0B       		.uleb128 0xb
 15311 37db 01       		.uleb128 0x1
 15312 37dc 52       		.byte	0x52
 15313 37dd 01       		.uleb128 0x1
 15314 37de 34       		.byte	0x34
 15315 37df 00       		.byte	0
 15316 37e0 0A       		.uleb128 0xa
 15317 37e1 76000000 		.4byte	.LVL722
 15318 37e5 BF460000 		.4byte	0x46bf
 15319 37e9 F3370000 		.4byte	0x37f3
ARM GAS  C:\Users\Revanth\AppData\Local\Temp\ccbqjHa5.s 			page 332


 15320 37ed 0B       		.uleb128 0xb
 15321 37ee 01       		.uleb128 0x1
 15322 37ef 50       		.byte	0x50
 15323 37f0 01       		.uleb128 0x1
 15324 37f1 35       		.byte	0x35
 15325 37f2 00       		.byte	0
 15326 37f3 0C       		.uleb128 0xc
 15327 37f4 7C000000 		.4byte	.LVL723
 15328 37f8 65480000 		.4byte	0x4865
 15329 37fc 0B       		.uleb128 0xb
 15330 37fd 01       		.uleb128 0x1
 15331 37fe 50       		.byte	0x50
 15332 37ff 02       		.uleb128 0x2
 15333 3800 09       		.byte	0x9
 15334 3801 FF       		.byte	0xff
 15335 3802 00       		.byte	0
 15336 3803 00       		.byte	0
 15337 3804 20       		.uleb128 0x20
 15338 3805 A8070000 		.4byte	.LASF103
 15339 3809 01       		.byte	0x1
 15340 380a D404     		.2byte	0x4d4
 15341 380c 00000000 		.4byte	.LFB91
 15342 3810 D8080000 		.4byte	.LFE91-.LFB91
 15343 3814 01       		.uleb128 0x1
 15344 3815 9C       		.byte	0x9c
 15345 3816 8E430000 		.4byte	0x438e
 15346 381a 21       		.uleb128 0x21
 15347 381b DA030000 		.4byte	.LBB4
 15348 381f 3C000000 		.4byte	.LBE4-.LBB4
 15349 3823 78380000 		.4byte	0x3878
 15350 3827 1A       		.uleb128 0x1a
 15351 3828 9B020000 		.4byte	.LASF99
 15352 382c 01       		.byte	0x1
 15353 382d 6705     		.2byte	0x567
 15354 382f 89000000 		.4byte	0x89
 15355 3833 730B0000 		.4byte	.LLST63
 15356 3837 1A       		.uleb128 0x1a
 15357 3838 85000000 		.4byte	.LASF100
 15358 383c 01       		.byte	0x1
 15359 383d 6805     		.2byte	0x568
 15360 383f 97000000 		.4byte	0x97
 15361 3843 920B0000 		.4byte	.LLST64
 15362 3847 0A       		.uleb128 0xa
 15363 3848 FC030000 		.4byte	.LVL819
 15364 384c 4E470000 		.4byte	0x474e
 15365 3850 5A380000 		.4byte	0x385a
 15366 3854 0B       		.uleb128 0xb
 15367 3855 01       		.uleb128 0x1
 15368 3856 50       		.byte	0x50
 15369 3857 01       		.uleb128 0x1
 15370 3858 3A       		.byte	0x3a
 15371 3859 00       		.byte	0
 15372 385a 0A       		.uleb128 0xa
 15373 385b 0E040000 		.4byte	.LVL821
 15374 385f 88320000 		.4byte	0x3288
 15375 3863 6E380000 		.4byte	0x386e
 15376 3867 0B       		.uleb128 0xb
ARM GAS  C:\Users\Revanth\AppData\Local\Temp\ccbqjHa5.s 			page 333


 15377 3868 01       		.uleb128 0x1
 15378 3869 50       		.byte	0x50
 15379 386a 02       		.uleb128 0x2
 15380 386b 74       		.byte	0x74
 15381 386c 00       		.sleb128 0
 15382 386d 00       		.byte	0
 15383 386e 09       		.uleb128 0x9
 15384 386f 16040000 		.4byte	.LVL822
 15385 3873 45060000 		.4byte	0x645
 15386 3877 00       		.byte	0
 15387 3878 21       		.uleb128 0x21
 15388 3879 4C050000 		.4byte	.LBB5
 15389 387d 22000000 		.4byte	.LBE5-.LBB5
 15390 3881 CA380000 		.4byte	0x38ca
 15391 3885 1A       		.uleb128 0x1a
 15392 3886 D2030000 		.4byte	.LASF28
 15393 388a 01       		.byte	0x1
 15394 388b A705     		.2byte	0x5a7
 15395 388d 97000000 		.4byte	0x97
 15396 3891 B50B0000 		.4byte	.LLST65
 15397 3895 0A       		.uleb128 0xa
 15398 3896 5C050000 		.4byte	.LVL848
 15399 389a E8030000 		.4byte	0x3e8
 15400 389e AC380000 		.4byte	0x38ac
 15401 38a2 0B       		.uleb128 0xb
 15402 38a3 01       		.uleb128 0x1
 15403 38a4 50       		.byte	0x50
 15404 38a5 05       		.uleb128 0x5
 15405 38a6 03       		.byte	0x3
 15406 38a7 D0040000 		.4byte	.LC41
 15407 38ab 00       		.byte	0
 15408 38ac 0A       		.uleb128 0xa
 15409 38ad 66050000 		.4byte	.LVL850
 15410 38b1 CA460000 		.4byte	0x46ca
 15411 38b5 C0380000 		.4byte	0x38c0
 15412 38b9 0B       		.uleb128 0xb
 15413 38ba 01       		.uleb128 0x1
 15414 38bb 50       		.byte	0x50
 15415 38bc 02       		.uleb128 0x2
 15416 38bd 74       		.byte	0x74
 15417 38be 00       		.sleb128 0
 15418 38bf 00       		.byte	0
 15419 38c0 09       		.uleb128 0x9
 15420 38c1 6E050000 		.4byte	.LVL851
 15421 38c5 45060000 		.4byte	0x645
 15422 38c9 00       		.byte	0
 15423 38ca 0A       		.uleb128 0xa
 15424 38cb 20000000 		.4byte	.LVL724
 15425 38cf 70480000 		.4byte	0x4870
 15426 38d3 DE380000 		.4byte	0x38de
 15427 38d7 0B       		.uleb128 0xb
 15428 38d8 01       		.uleb128 0x1
 15429 38d9 50       		.byte	0x50
 15430 38da 02       		.uleb128 0x2
 15431 38db 09       		.byte	0x9
 15432 38dc FF       		.byte	0xff
 15433 38dd 00       		.byte	0
ARM GAS  C:\Users\Revanth\AppData\Local\Temp\ccbqjHa5.s 			page 334


 15434 38de 0A       		.uleb128 0xa
 15435 38df 28000000 		.4byte	.LVL725
 15436 38e3 4E470000 		.4byte	0x474e
 15437 38e7 F3380000 		.4byte	0x38f3
 15438 38eb 0B       		.uleb128 0xb
 15439 38ec 01       		.uleb128 0x1
 15440 38ed 50       		.byte	0x50
 15441 38ee 03       		.uleb128 0x3
 15442 38ef 0A       		.byte	0xa
 15443 38f0 F401     		.2byte	0x1f4
 15444 38f2 00       		.byte	0
 15445 38f3 0A       		.uleb128 0xa
 15446 38f4 2E000000 		.4byte	.LVL726
 15447 38f8 7B480000 		.4byte	0x487b
 15448 38fc 07390000 		.4byte	0x3907
 15449 3900 0B       		.uleb128 0xb
 15450 3901 01       		.uleb128 0x1
 15451 3902 50       		.byte	0x50
 15452 3903 02       		.uleb128 0x2
 15453 3904 09       		.byte	0x9
 15454 3905 FF       		.byte	0xff
 15455 3906 00       		.byte	0
 15456 3907 0A       		.uleb128 0xa
 15457 3908 36000000 		.4byte	.LVL727
 15458 390c 4E470000 		.4byte	0x474e
 15459 3910 1C390000 		.4byte	0x391c
 15460 3914 0B       		.uleb128 0xb
 15461 3915 01       		.uleb128 0x1
 15462 3916 50       		.byte	0x50
 15463 3917 03       		.uleb128 0x3
 15464 3918 0A       		.byte	0xa
 15465 3919 F401     		.2byte	0x1f4
 15466 391b 00       		.byte	0
 15467 391c 0A       		.uleb128 0xa
 15468 391d 3C000000 		.4byte	.LVL728
 15469 3921 86480000 		.4byte	0x4886
 15470 3925 2F390000 		.4byte	0x392f
 15471 3929 0B       		.uleb128 0xb
 15472 392a 01       		.uleb128 0x1
 15473 392b 50       		.byte	0x50
 15474 392c 01       		.uleb128 0x1
 15475 392d 30       		.byte	0x30
 15476 392e 00       		.byte	0
 15477 392f 0A       		.uleb128 0xa
 15478 3930 44000000 		.4byte	.LVL729
 15479 3934 4E470000 		.4byte	0x474e
 15480 3938 44390000 		.4byte	0x3944
 15481 393c 0B       		.uleb128 0xb
 15482 393d 01       		.uleb128 0x1
 15483 393e 50       		.byte	0x50
 15484 393f 03       		.uleb128 0x3
 15485 3940 0A       		.byte	0xa
 15486 3941 F401     		.2byte	0x1f4
 15487 3943 00       		.byte	0
 15488 3944 0A       		.uleb128 0xa
 15489 3945 4C000000 		.4byte	.LVL730
 15490 3949 0B240000 		.4byte	0x240b
ARM GAS  C:\Users\Revanth\AppData\Local\Temp\ccbqjHa5.s 			page 335


 15491 394d 60390000 		.4byte	0x3960
 15492 3951 0B       		.uleb128 0xb
 15493 3952 01       		.uleb128 0x1
 15494 3953 50       		.byte	0x50
 15495 3954 05       		.uleb128 0x5
 15496 3955 0C       		.byte	0xc
 15497 3956 FAD00500 		.4byte	0x5d0fa
 15498 395a 0B       		.uleb128 0xb
 15499 395b 01       		.uleb128 0x1
 15500 395c 51       		.byte	0x51
 15501 395d 01       		.uleb128 0x1
 15502 395e 30       		.byte	0x30
 15503 395f 00       		.byte	0
 15504 3960 0A       		.uleb128 0xa
 15505 3961 52000000 		.4byte	.LVL731
 15506 3965 BF460000 		.4byte	0x46bf
 15507 3969 73390000 		.4byte	0x3973
 15508 396d 0B       		.uleb128 0xb
 15509 396e 01       		.uleb128 0x1
 15510 396f 50       		.byte	0x50
 15511 3970 01       		.uleb128 0x1
 15512 3971 31       		.byte	0x31
 15513 3972 00       		.byte	0
 15514 3973 0A       		.uleb128 0xa
 15515 3974 58000000 		.4byte	.LVL732
 15516 3978 B3190000 		.4byte	0x19b3
 15517 397c 86390000 		.4byte	0x3986
 15518 3980 0B       		.uleb128 0xb
 15519 3981 01       		.uleb128 0x1
 15520 3982 50       		.byte	0x50
 15521 3983 01       		.uleb128 0x1
 15522 3984 30       		.byte	0x30
 15523 3985 00       		.byte	0
 15524 3986 0A       		.uleb128 0xa
 15525 3987 64000000 		.4byte	.LVL733
 15526 398b 560E0000 		.4byte	0xe56
 15527 398f A4390000 		.4byte	0x39a4
 15528 3993 0B       		.uleb128 0xb
 15529 3994 01       		.uleb128 0x1
 15530 3995 50       		.byte	0x50
 15531 3996 01       		.uleb128 0x1
 15532 3997 40       		.byte	0x40
 15533 3998 0B       		.uleb128 0xb
 15534 3999 01       		.uleb128 0x1
 15535 399a 51       		.byte	0x51
 15536 399b 02       		.uleb128 0x2
 15537 399c 74       		.byte	0x74
 15538 399d 00       		.sleb128 0
 15539 399e 0B       		.uleb128 0xb
 15540 399f 01       		.uleb128 0x1
 15541 39a0 52       		.byte	0x52
 15542 39a1 01       		.uleb128 0x1
 15543 39a2 31       		.byte	0x31
 15544 39a3 00       		.byte	0
 15545 39a4 0A       		.uleb128 0xa
 15546 39a5 6E000000 		.4byte	.LVL734
 15547 39a9 560E0000 		.4byte	0xe56
ARM GAS  C:\Users\Revanth\AppData\Local\Temp\ccbqjHa5.s 			page 336


 15548 39ad C2390000 		.4byte	0x39c2
 15549 39b1 0B       		.uleb128 0xb
 15550 39b2 01       		.uleb128 0x1
 15551 39b3 50       		.byte	0x50
 15552 39b4 01       		.uleb128 0x1
 15553 39b5 40       		.byte	0x40
 15554 39b6 0B       		.uleb128 0xb
 15555 39b7 01       		.uleb128 0x1
 15556 39b8 51       		.byte	0x51
 15557 39b9 02       		.uleb128 0x2
 15558 39ba 74       		.byte	0x74
 15559 39bb 00       		.sleb128 0
 15560 39bc 0B       		.uleb128 0xb
 15561 39bd 01       		.uleb128 0x1
 15562 39be 52       		.byte	0x52
 15563 39bf 01       		.uleb128 0x1
 15564 39c0 32       		.byte	0x32
 15565 39c1 00       		.byte	0
 15566 39c2 0A       		.uleb128 0xa
 15567 39c3 78000000 		.4byte	.LVL735
 15568 39c7 560E0000 		.4byte	0xe56
 15569 39cb E3390000 		.4byte	0x39e3
 15570 39cf 0B       		.uleb128 0xb
 15571 39d0 01       		.uleb128 0x1
 15572 39d1 50       		.byte	0x50
 15573 39d2 01       		.uleb128 0x1
 15574 39d3 40       		.byte	0x40
 15575 39d4 0B       		.uleb128 0xb
 15576 39d5 01       		.uleb128 0x1
 15577 39d6 51       		.byte	0x51
 15578 39d7 05       		.uleb128 0x5
 15579 39d8 0C       		.byte	0xc
 15580 39d9 07040700 		.4byte	0x70407
 15581 39dd 0B       		.uleb128 0xb
 15582 39de 01       		.uleb128 0x1
 15583 39df 52       		.byte	0x52
 15584 39e0 01       		.uleb128 0x1
 15585 39e1 30       		.byte	0x30
 15586 39e2 00       		.byte	0
 15587 39e3 0A       		.uleb128 0xa
 15588 39e4 7E000000 		.4byte	.LVL736
 15589 39e8 5D240000 		.4byte	0x245d
 15590 39ec F6390000 		.4byte	0x39f6
 15591 39f0 0B       		.uleb128 0xb
 15592 39f1 01       		.uleb128 0x1
 15593 39f2 50       		.byte	0x50
 15594 39f3 01       		.uleb128 0x1
 15595 39f4 30       		.byte	0x30
 15596 39f5 00       		.byte	0
 15597 39f6 0A       		.uleb128 0xa
 15598 39f7 88000000 		.4byte	.LVL737
 15599 39fb 560E0000 		.4byte	0xe56
 15600 39ff 173A0000 		.4byte	0x3a17
 15601 3a03 0B       		.uleb128 0xb
 15602 3a04 01       		.uleb128 0x1
 15603 3a05 50       		.byte	0x50
 15604 3a06 01       		.uleb128 0x1
ARM GAS  C:\Users\Revanth\AppData\Local\Temp\ccbqjHa5.s 			page 337


 15605 3a07 40       		.byte	0x40
 15606 3a08 0B       		.uleb128 0xb
 15607 3a09 01       		.uleb128 0x1
 15608 3a0a 51       		.byte	0x51
 15609 3a0b 05       		.uleb128 0x5
 15610 3a0c 0C       		.byte	0xc
 15611 3a0d 01030700 		.4byte	0x70301
 15612 3a11 0B       		.uleb128 0xb
 15613 3a12 01       		.uleb128 0x1
 15614 3a13 52       		.byte	0x52
 15615 3a14 01       		.uleb128 0x1
 15616 3a15 30       		.byte	0x30
 15617 3a16 00       		.byte	0
 15618 3a17 0A       		.uleb128 0xa
 15619 3a18 90000000 		.4byte	.LVL738
 15620 3a1c 4E470000 		.4byte	0x474e
 15621 3a20 2C3A0000 		.4byte	0x3a2c
 15622 3a24 0B       		.uleb128 0xb
 15623 3a25 01       		.uleb128 0x1
 15624 3a26 50       		.byte	0x50
 15625 3a27 03       		.uleb128 0x3
 15626 3a28 0A       		.byte	0xa
 15627 3a29 F401     		.2byte	0x1f4
 15628 3a2b 00       		.byte	0
 15629 3a2c 0A       		.uleb128 0xa
 15630 3a2d 96000000 		.4byte	.LVL739
 15631 3a31 70480000 		.4byte	0x4870
 15632 3a35 3F3A0000 		.4byte	0x3a3f
 15633 3a39 0B       		.uleb128 0xb
 15634 3a3a 01       		.uleb128 0x1
 15635 3a3b 50       		.byte	0x50
 15636 3a3c 01       		.uleb128 0x1
 15637 3a3d 30       		.byte	0x30
 15638 3a3e 00       		.byte	0
 15639 3a3f 0A       		.uleb128 0xa
 15640 3a40 9E000000 		.4byte	.LVL740
 15641 3a44 4E470000 		.4byte	0x474e
 15642 3a48 543A0000 		.4byte	0x3a54
 15643 3a4c 0B       		.uleb128 0xb
 15644 3a4d 01       		.uleb128 0x1
 15645 3a4e 50       		.byte	0x50
 15646 3a4f 03       		.uleb128 0x3
 15647 3a50 0A       		.byte	0xa
 15648 3a51 F401     		.2byte	0x1f4
 15649 3a53 00       		.byte	0
 15650 3a54 0A       		.uleb128 0xa
 15651 3a55 A4000000 		.4byte	.LVL741
 15652 3a59 7B480000 		.4byte	0x487b
 15653 3a5d 673A0000 		.4byte	0x3a67
 15654 3a61 0B       		.uleb128 0xb
 15655 3a62 01       		.uleb128 0x1
 15656 3a63 50       		.byte	0x50
 15657 3a64 01       		.uleb128 0x1
 15658 3a65 30       		.byte	0x30
 15659 3a66 00       		.byte	0
 15660 3a67 0A       		.uleb128 0xa
 15661 3a68 AC000000 		.4byte	.LVL742
ARM GAS  C:\Users\Revanth\AppData\Local\Temp\ccbqjHa5.s 			page 338


 15662 3a6c 4E470000 		.4byte	0x474e
 15663 3a70 7C3A0000 		.4byte	0x3a7c
 15664 3a74 0B       		.uleb128 0xb
 15665 3a75 01       		.uleb128 0x1
 15666 3a76 50       		.byte	0x50
 15667 3a77 03       		.uleb128 0x3
 15668 3a78 0A       		.byte	0xa
 15669 3a79 F401     		.2byte	0x1f4
 15670 3a7b 00       		.byte	0
 15671 3a7c 09       		.uleb128 0x9
 15672 3a7d B4000000 		.4byte	.LVL743
 15673 3a81 45060000 		.4byte	0x645
 15674 3a85 0A       		.uleb128 0xa
 15675 3a86 C0000000 		.4byte	.LVL744
 15676 3a8a 70480000 		.4byte	0x4870
 15677 3a8e 993A0000 		.4byte	0x3a99
 15678 3a92 0B       		.uleb128 0xb
 15679 3a93 01       		.uleb128 0x1
 15680 3a94 50       		.byte	0x50
 15681 3a95 02       		.uleb128 0x2
 15682 3a96 09       		.byte	0x9
 15683 3a97 FF       		.byte	0xff
 15684 3a98 00       		.byte	0
 15685 3a99 0A       		.uleb128 0xa
 15686 3a9a C8000000 		.4byte	.LVL745
 15687 3a9e 4E470000 		.4byte	0x474e
 15688 3aa2 AE3A0000 		.4byte	0x3aae
 15689 3aa6 0B       		.uleb128 0xb
 15690 3aa7 01       		.uleb128 0x1
 15691 3aa8 50       		.byte	0x50
 15692 3aa9 03       		.uleb128 0x3
 15693 3aaa 0A       		.byte	0xa
 15694 3aab F401     		.2byte	0x1f4
 15695 3aad 00       		.byte	0
 15696 3aae 0A       		.uleb128 0xa
 15697 3aaf CE000000 		.4byte	.LVL746
 15698 3ab3 86480000 		.4byte	0x4886
 15699 3ab7 C23A0000 		.4byte	0x3ac2
 15700 3abb 0B       		.uleb128 0xb
 15701 3abc 01       		.uleb128 0x1
 15702 3abd 50       		.byte	0x50
 15703 3abe 02       		.uleb128 0x2
 15704 3abf 09       		.byte	0x9
 15705 3ac0 FF       		.byte	0xff
 15706 3ac1 00       		.byte	0
 15707 3ac2 0A       		.uleb128 0xa
 15708 3ac3 D6000000 		.4byte	.LVL747
 15709 3ac7 4E470000 		.4byte	0x474e
 15710 3acb D73A0000 		.4byte	0x3ad7
 15711 3acf 0B       		.uleb128 0xb
 15712 3ad0 01       		.uleb128 0x1
 15713 3ad1 50       		.byte	0x50
 15714 3ad2 03       		.uleb128 0x3
 15715 3ad3 0A       		.byte	0xa
 15716 3ad4 F401     		.2byte	0x1f4
 15717 3ad6 00       		.byte	0
 15718 3ad7 0A       		.uleb128 0xa
ARM GAS  C:\Users\Revanth\AppData\Local\Temp\ccbqjHa5.s 			page 339


 15719 3ad8 DC000000 		.4byte	.LVL748
 15720 3adc 7B480000 		.4byte	0x487b
 15721 3ae0 EA3A0000 		.4byte	0x3aea
 15722 3ae4 0B       		.uleb128 0xb
 15723 3ae5 01       		.uleb128 0x1
 15724 3ae6 50       		.byte	0x50
 15725 3ae7 01       		.uleb128 0x1
 15726 3ae8 30       		.byte	0x30
 15727 3ae9 00       		.byte	0
 15728 3aea 0A       		.uleb128 0xa
 15729 3aeb E4000000 		.4byte	.LVL749
 15730 3aef 4E470000 		.4byte	0x474e
 15731 3af3 FF3A0000 		.4byte	0x3aff
 15732 3af7 0B       		.uleb128 0xb
 15733 3af8 01       		.uleb128 0x1
 15734 3af9 50       		.byte	0x50
 15735 3afa 03       		.uleb128 0x3
 15736 3afb 0A       		.byte	0xa
 15737 3afc F401     		.2byte	0x1f4
 15738 3afe 00       		.byte	0
 15739 3aff 0A       		.uleb128 0xa
 15740 3b00 EC000000 		.4byte	.LVL750
 15741 3b04 0B240000 		.4byte	0x240b
 15742 3b08 1B3B0000 		.4byte	0x3b1b
 15743 3b0c 0B       		.uleb128 0xb
 15744 3b0d 01       		.uleb128 0x1
 15745 3b0e 50       		.byte	0x50
 15746 3b0f 05       		.uleb128 0x5
 15747 3b10 0C       		.byte	0xc
 15748 3b11 FAD00500 		.4byte	0x5d0fa
 15749 3b15 0B       		.uleb128 0xb
 15750 3b16 01       		.uleb128 0x1
 15751 3b17 51       		.byte	0x51
 15752 3b18 01       		.uleb128 0x1
 15753 3b19 31       		.byte	0x31
 15754 3b1a 00       		.byte	0
 15755 3b1b 0A       		.uleb128 0xa
 15756 3b1c F2000000 		.4byte	.LVL751
 15757 3b20 BF460000 		.4byte	0x46bf
 15758 3b24 2E3B0000 		.4byte	0x3b2e
 15759 3b28 0B       		.uleb128 0xb
 15760 3b29 01       		.uleb128 0x1
 15761 3b2a 50       		.byte	0x50
 15762 3b2b 01       		.uleb128 0x1
 15763 3b2c 31       		.byte	0x31
 15764 3b2d 00       		.byte	0
 15765 3b2e 0A       		.uleb128 0xa
 15766 3b2f F8000000 		.4byte	.LVL752
 15767 3b33 431C0000 		.4byte	0x1c43
 15768 3b37 413B0000 		.4byte	0x3b41
 15769 3b3b 0B       		.uleb128 0xb
 15770 3b3c 01       		.uleb128 0x1
 15771 3b3d 50       		.byte	0x50
 15772 3b3e 01       		.uleb128 0x1
 15773 3b3f 30       		.byte	0x30
 15774 3b40 00       		.byte	0
 15775 3b41 0A       		.uleb128 0xa
ARM GAS  C:\Users\Revanth\AppData\Local\Temp\ccbqjHa5.s 			page 340


 15776 3b42 02010000 		.4byte	.LVL753
 15777 3b46 560E0000 		.4byte	0xe56
 15778 3b4a 623B0000 		.4byte	0x3b62
 15779 3b4e 0B       		.uleb128 0xb
 15780 3b4f 01       		.uleb128 0x1
 15781 3b50 50       		.byte	0x50
 15782 3b51 01       		.uleb128 0x1
 15783 3b52 40       		.byte	0x40
 15784 3b53 0B       		.uleb128 0xb
 15785 3b54 01       		.uleb128 0x1
 15786 3b55 51       		.byte	0x51
 15787 3b56 05       		.uleb128 0x5
 15788 3b57 0C       		.byte	0xc
 15789 3b58 03020700 		.4byte	0x70203
 15790 3b5c 0B       		.uleb128 0xb
 15791 3b5d 01       		.uleb128 0x1
 15792 3b5e 52       		.byte	0x52
 15793 3b5f 01       		.uleb128 0x1
 15794 3b60 31       		.byte	0x31
 15795 3b61 00       		.byte	0
 15796 3b62 0A       		.uleb128 0xa
 15797 3b63 0C010000 		.4byte	.LVL754
 15798 3b67 560E0000 		.4byte	0xe56
 15799 3b6b 833B0000 		.4byte	0x3b83
 15800 3b6f 0B       		.uleb128 0xb
 15801 3b70 01       		.uleb128 0x1
 15802 3b71 50       		.byte	0x50
 15803 3b72 01       		.uleb128 0x1
 15804 3b73 40       		.byte	0x40
 15805 3b74 0B       		.uleb128 0xb
 15806 3b75 01       		.uleb128 0x1
 15807 3b76 51       		.byte	0x51
 15808 3b77 05       		.uleb128 0x5
 15809 3b78 0C       		.byte	0xc
 15810 3b79 01010700 		.4byte	0x70101
 15811 3b7d 0B       		.uleb128 0xb
 15812 3b7e 01       		.uleb128 0x1
 15813 3b7f 52       		.byte	0x52
 15814 3b80 01       		.uleb128 0x1
 15815 3b81 32       		.byte	0x32
 15816 3b82 00       		.byte	0
 15817 3b83 0A       		.uleb128 0xa
 15818 3b84 18010000 		.4byte	.LVL755
 15819 3b88 560E0000 		.4byte	0xe56
 15820 3b8c A13B0000 		.4byte	0x3ba1
 15821 3b90 0B       		.uleb128 0xb
 15822 3b91 01       		.uleb128 0x1
 15823 3b92 50       		.byte	0x50
 15824 3b93 01       		.uleb128 0x1
 15825 3b94 40       		.byte	0x40
 15826 3b95 0B       		.uleb128 0xb
 15827 3b96 01       		.uleb128 0x1
 15828 3b97 51       		.byte	0x51
 15829 3b98 02       		.uleb128 0x2
 15830 3b99 74       		.byte	0x74
 15831 3b9a 00       		.sleb128 0
 15832 3b9b 0B       		.uleb128 0xb
ARM GAS  C:\Users\Revanth\AppData\Local\Temp\ccbqjHa5.s 			page 341


 15833 3b9c 01       		.uleb128 0x1
 15834 3b9d 52       		.byte	0x52
 15835 3b9e 01       		.uleb128 0x1
 15836 3b9f 30       		.byte	0x30
 15837 3ba0 00       		.byte	0
 15838 3ba1 0A       		.uleb128 0xa
 15839 3ba2 1E010000 		.4byte	.LVL756
 15840 3ba6 FA270000 		.4byte	0x27fa
 15841 3baa B43B0000 		.4byte	0x3bb4
 15842 3bae 0B       		.uleb128 0xb
 15843 3baf 01       		.uleb128 0x1
 15844 3bb0 50       		.byte	0x50
 15845 3bb1 01       		.uleb128 0x1
 15846 3bb2 31       		.byte	0x31
 15847 3bb3 00       		.byte	0
 15848 3bb4 0A       		.uleb128 0xa
 15849 3bb5 28010000 		.4byte	.LVL757
 15850 3bb9 560E0000 		.4byte	0xe56
 15851 3bbd D23B0000 		.4byte	0x3bd2
 15852 3bc1 0B       		.uleb128 0xb
 15853 3bc2 01       		.uleb128 0x1
 15854 3bc3 50       		.byte	0x50
 15855 3bc4 01       		.uleb128 0x1
 15856 3bc5 40       		.byte	0x40
 15857 3bc6 0B       		.uleb128 0xb
 15858 3bc7 01       		.uleb128 0x1
 15859 3bc8 51       		.byte	0x51
 15860 3bc9 02       		.uleb128 0x2
 15861 3bca 74       		.byte	0x74
 15862 3bcb 00       		.sleb128 0
 15863 3bcc 0B       		.uleb128 0xb
 15864 3bcd 01       		.uleb128 0x1
 15865 3bce 52       		.byte	0x52
 15866 3bcf 01       		.uleb128 0x1
 15867 3bd0 31       		.byte	0x31
 15868 3bd1 00       		.byte	0
 15869 3bd2 0A       		.uleb128 0xa
 15870 3bd3 30010000 		.4byte	.LVL758
 15871 3bd7 4E470000 		.4byte	0x474e
 15872 3bdb E73B0000 		.4byte	0x3be7
 15873 3bdf 0B       		.uleb128 0xb
 15874 3be0 01       		.uleb128 0x1
 15875 3be1 50       		.byte	0x50
 15876 3be2 03       		.uleb128 0x3
 15877 3be3 0A       		.byte	0xa
 15878 3be4 F401     		.2byte	0x1f4
 15879 3be6 00       		.byte	0
 15880 3be7 0A       		.uleb128 0xa
 15881 3be8 36010000 		.4byte	.LVL759
 15882 3bec 70480000 		.4byte	0x4870
 15883 3bf0 FA3B0000 		.4byte	0x3bfa
 15884 3bf4 0B       		.uleb128 0xb
 15885 3bf5 01       		.uleb128 0x1
 15886 3bf6 50       		.byte	0x50
 15887 3bf7 01       		.uleb128 0x1
 15888 3bf8 30       		.byte	0x30
 15889 3bf9 00       		.byte	0
ARM GAS  C:\Users\Revanth\AppData\Local\Temp\ccbqjHa5.s 			page 342


 15890 3bfa 0A       		.uleb128 0xa
 15891 3bfb 3E010000 		.4byte	.LVL760
 15892 3bff 4E470000 		.4byte	0x474e
 15893 3c03 0F3C0000 		.4byte	0x3c0f
 15894 3c07 0B       		.uleb128 0xb
 15895 3c08 01       		.uleb128 0x1
 15896 3c09 50       		.byte	0x50
 15897 3c0a 03       		.uleb128 0x3
 15898 3c0b 0A       		.byte	0xa
 15899 3c0c F401     		.2byte	0x1f4
 15900 3c0e 00       		.byte	0
 15901 3c0f 0A       		.uleb128 0xa
 15902 3c10 44010000 		.4byte	.LVL761
 15903 3c14 86480000 		.4byte	0x4886
 15904 3c18 223C0000 		.4byte	0x3c22
 15905 3c1c 0B       		.uleb128 0xb
 15906 3c1d 01       		.uleb128 0x1
 15907 3c1e 50       		.byte	0x50
 15908 3c1f 01       		.uleb128 0x1
 15909 3c20 30       		.byte	0x30
 15910 3c21 00       		.byte	0
 15911 3c22 0A       		.uleb128 0xa
 15912 3c23 4C010000 		.4byte	.LVL762
 15913 3c27 4E470000 		.4byte	0x474e
 15914 3c2b 373C0000 		.4byte	0x3c37
 15915 3c2f 0B       		.uleb128 0xb
 15916 3c30 01       		.uleb128 0x1
 15917 3c31 50       		.byte	0x50
 15918 3c32 03       		.uleb128 0x3
 15919 3c33 0A       		.byte	0xa
 15920 3c34 F401     		.2byte	0x1f4
 15921 3c36 00       		.byte	0
 15922 3c37 09       		.uleb128 0x9
 15923 3c38 54010000 		.4byte	.LVL763
 15924 3c3c 45060000 		.4byte	0x645
 15925 3c40 0A       		.uleb128 0xa
 15926 3c41 60010000 		.4byte	.LVL764
 15927 3c45 7B480000 		.4byte	0x487b
 15928 3c49 543C0000 		.4byte	0x3c54
 15929 3c4d 0B       		.uleb128 0xb
 15930 3c4e 01       		.uleb128 0x1
 15931 3c4f 50       		.byte	0x50
 15932 3c50 02       		.uleb128 0x2
 15933 3c51 09       		.byte	0x9
 15934 3c52 FF       		.byte	0xff
 15935 3c53 00       		.byte	0
 15936 3c54 0A       		.uleb128 0xa
 15937 3c55 68010000 		.4byte	.LVL765
 15938 3c59 4E470000 		.4byte	0x474e
 15939 3c5d 693C0000 		.4byte	0x3c69
 15940 3c61 0B       		.uleb128 0xb
 15941 3c62 01       		.uleb128 0x1
 15942 3c63 50       		.byte	0x50
 15943 3c64 03       		.uleb128 0x3
 15944 3c65 0A       		.byte	0xa
 15945 3c66 F401     		.2byte	0x1f4
 15946 3c68 00       		.byte	0
ARM GAS  C:\Users\Revanth\AppData\Local\Temp\ccbqjHa5.s 			page 343


 15947 3c69 0A       		.uleb128 0xa
 15948 3c6a 6E010000 		.4byte	.LVL766
 15949 3c6e 86480000 		.4byte	0x4886
 15950 3c72 7D3C0000 		.4byte	0x3c7d
 15951 3c76 0B       		.uleb128 0xb
 15952 3c77 01       		.uleb128 0x1
 15953 3c78 50       		.byte	0x50
 15954 3c79 02       		.uleb128 0x2
 15955 3c7a 09       		.byte	0x9
 15956 3c7b FF       		.byte	0xff
 15957 3c7c 00       		.byte	0
 15958 3c7d 0A       		.uleb128 0xa
 15959 3c7e 76010000 		.4byte	.LVL767
 15960 3c82 4E470000 		.4byte	0x474e
 15961 3c86 923C0000 		.4byte	0x3c92
 15962 3c8a 0B       		.uleb128 0xb
 15963 3c8b 01       		.uleb128 0x1
 15964 3c8c 50       		.byte	0x50
 15965 3c8d 03       		.uleb128 0x3
 15966 3c8e 0A       		.byte	0xa
 15967 3c8f F401     		.2byte	0x1f4
 15968 3c91 00       		.byte	0
 15969 3c92 0A       		.uleb128 0xa
 15970 3c93 7C010000 		.4byte	.LVL768
 15971 3c97 70480000 		.4byte	0x4870
 15972 3c9b A53C0000 		.4byte	0x3ca5
 15973 3c9f 0B       		.uleb128 0xb
 15974 3ca0 01       		.uleb128 0x1
 15975 3ca1 50       		.byte	0x50
 15976 3ca2 01       		.uleb128 0x1
 15977 3ca3 30       		.byte	0x30
 15978 3ca4 00       		.byte	0
 15979 3ca5 0A       		.uleb128 0xa
 15980 3ca6 84010000 		.4byte	.LVL769
 15981 3caa 4E470000 		.4byte	0x474e
 15982 3cae BA3C0000 		.4byte	0x3cba
 15983 3cb2 0B       		.uleb128 0xb
 15984 3cb3 01       		.uleb128 0x1
 15985 3cb4 50       		.byte	0x50
 15986 3cb5 03       		.uleb128 0x3
 15987 3cb6 0A       		.byte	0xa
 15988 3cb7 F401     		.2byte	0x1f4
 15989 3cb9 00       		.byte	0
 15990 3cba 0A       		.uleb128 0xa
 15991 3cbb 8C010000 		.4byte	.LVL770
 15992 3cbf 0B240000 		.4byte	0x240b
 15993 3cc3 D63C0000 		.4byte	0x3cd6
 15994 3cc7 0B       		.uleb128 0xb
 15995 3cc8 01       		.uleb128 0x1
 15996 3cc9 50       		.byte	0x50
 15997 3cca 05       		.uleb128 0x5
 15998 3ccb 0C       		.byte	0xc
 15999 3ccc 6EA30100 		.4byte	0x1a36e
 16000 3cd0 0B       		.uleb128 0xb
 16001 3cd1 01       		.uleb128 0x1
 16002 3cd2 51       		.byte	0x51
 16003 3cd3 01       		.uleb128 0x1
ARM GAS  C:\Users\Revanth\AppData\Local\Temp\ccbqjHa5.s 			page 344


 16004 3cd4 32       		.byte	0x32
 16005 3cd5 00       		.byte	0
 16006 3cd6 0A       		.uleb128 0xa
 16007 3cd7 92010000 		.4byte	.LVL771
 16008 3cdb BF460000 		.4byte	0x46bf
 16009 3cdf E93C0000 		.4byte	0x3ce9
 16010 3ce3 0B       		.uleb128 0xb
 16011 3ce4 01       		.uleb128 0x1
 16012 3ce5 50       		.byte	0x50
 16013 3ce6 01       		.uleb128 0x1
 16014 3ce7 31       		.byte	0x31
 16015 3ce8 00       		.byte	0
 16016 3ce9 0A       		.uleb128 0xa
 16017 3cea 98010000 		.4byte	.LVL772
 16018 3cee D11E0000 		.4byte	0x1ed1
 16019 3cf2 FC3C0000 		.4byte	0x3cfc
 16020 3cf6 0B       		.uleb128 0xb
 16021 3cf7 01       		.uleb128 0x1
 16022 3cf8 50       		.byte	0x50
 16023 3cf9 01       		.uleb128 0x1
 16024 3cfa 30       		.byte	0x30
 16025 3cfb 00       		.byte	0
 16026 3cfc 0A       		.uleb128 0xa
 16027 3cfd A2010000 		.4byte	.LVL773
 16028 3d01 560E0000 		.4byte	0xe56
 16029 3d05 1D3D0000 		.4byte	0x3d1d
 16030 3d09 0B       		.uleb128 0xb
 16031 3d0a 01       		.uleb128 0x1
 16032 3d0b 50       		.byte	0x50
 16033 3d0c 01       		.uleb128 0x1
 16034 3d0d 40       		.byte	0x40
 16035 3d0e 0B       		.uleb128 0xb
 16036 3d0f 01       		.uleb128 0x1
 16037 3d10 51       		.byte	0x51
 16038 3d11 05       		.uleb128 0x5
 16039 3d12 0C       		.byte	0xc
 16040 3d13 01010700 		.4byte	0x70101
 16041 3d17 0B       		.uleb128 0xb
 16042 3d18 01       		.uleb128 0x1
 16043 3d19 52       		.byte	0x52
 16044 3d1a 01       		.uleb128 0x1
 16045 3d1b 31       		.byte	0x31
 16046 3d1c 00       		.byte	0
 16047 3d1d 0A       		.uleb128 0xa
 16048 3d1e AC010000 		.4byte	.LVL774
 16049 3d22 560E0000 		.4byte	0xe56
 16050 3d26 3E3D0000 		.4byte	0x3d3e
 16051 3d2a 0B       		.uleb128 0xb
 16052 3d2b 01       		.uleb128 0x1
 16053 3d2c 50       		.byte	0x50
 16054 3d2d 01       		.uleb128 0x1
 16055 3d2e 40       		.byte	0x40
 16056 3d2f 0B       		.uleb128 0xb
 16057 3d30 01       		.uleb128 0x1
 16058 3d31 51       		.byte	0x51
 16059 3d32 05       		.uleb128 0x5
 16060 3d33 0C       		.byte	0xc
ARM GAS  C:\Users\Revanth\AppData\Local\Temp\ccbqjHa5.s 			page 345


 16061 3d34 03030700 		.4byte	0x70303
 16062 3d38 0B       		.uleb128 0xb
 16063 3d39 01       		.uleb128 0x1
 16064 3d3a 52       		.byte	0x52
 16065 3d3b 01       		.uleb128 0x1
 16066 3d3c 32       		.byte	0x32
 16067 3d3d 00       		.byte	0
 16068 3d3e 0A       		.uleb128 0xa
 16069 3d3f B6010000 		.4byte	.LVL775
 16070 3d43 560E0000 		.4byte	0xe56
 16071 3d47 5F3D0000 		.4byte	0x3d5f
 16072 3d4b 0B       		.uleb128 0xb
 16073 3d4c 01       		.uleb128 0x1
 16074 3d4d 50       		.byte	0x50
 16075 3d4e 01       		.uleb128 0x1
 16076 3d4f 40       		.byte	0x40
 16077 3d50 0B       		.uleb128 0xb
 16078 3d51 01       		.uleb128 0x1
 16079 3d52 51       		.byte	0x51
 16080 3d53 05       		.uleb128 0x5
 16081 3d54 0C       		.byte	0xc
 16082 3d55 01030700 		.4byte	0x70301
 16083 3d59 0B       		.uleb128 0xb
 16084 3d5a 01       		.uleb128 0x1
 16085 3d5b 52       		.byte	0x52
 16086 3d5c 01       		.uleb128 0x1
 16087 3d5d 30       		.byte	0x30
 16088 3d5e 00       		.byte	0
 16089 3d5f 0A       		.uleb128 0xa
 16090 3d60 BC010000 		.4byte	.LVL776
 16091 3d64 992B0000 		.4byte	0x2b99
 16092 3d68 723D0000 		.4byte	0x3d72
 16093 3d6c 0B       		.uleb128 0xb
 16094 3d6d 01       		.uleb128 0x1
 16095 3d6e 50       		.byte	0x50
 16096 3d6f 01       		.uleb128 0x1
 16097 3d70 32       		.byte	0x32
 16098 3d71 00       		.byte	0
 16099 3d72 0A       		.uleb128 0xa
 16100 3d73 C2010000 		.4byte	.LVL777
 16101 3d77 7B480000 		.4byte	0x487b
 16102 3d7b 853D0000 		.4byte	0x3d85
 16103 3d7f 0B       		.uleb128 0xb
 16104 3d80 01       		.uleb128 0x1
 16105 3d81 50       		.byte	0x50
 16106 3d82 01       		.uleb128 0x1
 16107 3d83 30       		.byte	0x30
 16108 3d84 00       		.byte	0
 16109 3d85 0A       		.uleb128 0xa
 16110 3d86 CA010000 		.4byte	.LVL778
 16111 3d8a 4E470000 		.4byte	0x474e
 16112 3d8e 9A3D0000 		.4byte	0x3d9a
 16113 3d92 0B       		.uleb128 0xb
 16114 3d93 01       		.uleb128 0x1
 16115 3d94 50       		.byte	0x50
 16116 3d95 03       		.uleb128 0x3
 16117 3d96 0A       		.byte	0xa
ARM GAS  C:\Users\Revanth\AppData\Local\Temp\ccbqjHa5.s 			page 346


 16118 3d97 F401     		.2byte	0x1f4
 16119 3d99 00       		.byte	0
 16120 3d9a 0A       		.uleb128 0xa
 16121 3d9b D0010000 		.4byte	.LVL779
 16122 3d9f 86480000 		.4byte	0x4886
 16123 3da3 AD3D0000 		.4byte	0x3dad
 16124 3da7 0B       		.uleb128 0xb
 16125 3da8 01       		.uleb128 0x1
 16126 3da9 50       		.byte	0x50
 16127 3daa 01       		.uleb128 0x1
 16128 3dab 30       		.byte	0x30
 16129 3dac 00       		.byte	0
 16130 3dad 09       		.uleb128 0x9
 16131 3dae D8010000 		.4byte	.LVL780
 16132 3db2 45060000 		.4byte	0x645
 16133 3db6 0A       		.uleb128 0xa
 16134 3db7 E8010000 		.4byte	.LVL781
 16135 3dbb 560E0000 		.4byte	0xe56
 16136 3dbf D73D0000 		.4byte	0x3dd7
 16137 3dc3 0B       		.uleb128 0xb
 16138 3dc4 01       		.uleb128 0x1
 16139 3dc5 50       		.byte	0x50
 16140 3dc6 01       		.uleb128 0x1
 16141 3dc7 40       		.byte	0x40
 16142 3dc8 0B       		.uleb128 0xb
 16143 3dc9 01       		.uleb128 0x1
 16144 3dca 51       		.byte	0x51
 16145 3dcb 05       		.uleb128 0x5
 16146 3dcc 0C       		.byte	0xc
 16147 3dcd 03050700 		.4byte	0x70503
 16148 3dd1 0B       		.uleb128 0xb
 16149 3dd2 01       		.uleb128 0x1
 16150 3dd3 52       		.byte	0x52
 16151 3dd4 01       		.uleb128 0x1
 16152 3dd5 33       		.byte	0x33
 16153 3dd6 00       		.byte	0
 16154 3dd7 0A       		.uleb128 0xa
 16155 3dd8 EE010000 		.4byte	.LVL782
 16156 3ddc BF460000 		.4byte	0x46bf
 16157 3de0 EA3D0000 		.4byte	0x3dea
 16158 3de4 0B       		.uleb128 0xb
 16159 3de5 01       		.uleb128 0x1
 16160 3de6 50       		.byte	0x50
 16161 3de7 01       		.uleb128 0x1
 16162 3de8 3A       		.byte	0x3a
 16163 3de9 00       		.byte	0
 16164 3dea 0A       		.uleb128 0xa
 16165 3deb F4010000 		.4byte	.LVL783
 16166 3def 3D210000 		.4byte	0x213d
 16167 3df3 FD3D0000 		.4byte	0x3dfd
 16168 3df7 0B       		.uleb128 0xb
 16169 3df8 01       		.uleb128 0x1
 16170 3df9 50       		.byte	0x50
 16171 3dfa 01       		.uleb128 0x1
 16172 3dfb 30       		.byte	0x30
 16173 3dfc 00       		.byte	0
 16174 3dfd 0A       		.uleb128 0xa
ARM GAS  C:\Users\Revanth\AppData\Local\Temp\ccbqjHa5.s 			page 347


 16175 3dfe FA010000 		.4byte	.LVL784
 16176 3e02 1B2F0000 		.4byte	0x2f1b
 16177 3e06 103E0000 		.4byte	0x3e10
 16178 3e0a 0B       		.uleb128 0xb
 16179 3e0b 01       		.uleb128 0x1
 16180 3e0c 50       		.byte	0x50
 16181 3e0d 01       		.uleb128 0x1
 16182 3e0e 33       		.byte	0x33
 16183 3e0f 00       		.byte	0
 16184 3e10 09       		.uleb128 0x9
 16185 3e11 02020000 		.4byte	.LVL785
 16186 3e15 45060000 		.4byte	0x645
 16187 3e19 09       		.uleb128 0x9
 16188 3e1a 44020000 		.4byte	.LVL789
 16189 3e1e B3190000 		.4byte	0x19b3
 16190 3e22 0A       		.uleb128 0xa
 16191 3e23 50020000 		.4byte	.LVL790
 16192 3e27 560E0000 		.4byte	0xe56
 16193 3e2b 433E0000 		.4byte	0x3e43
 16194 3e2f 0B       		.uleb128 0xb
 16195 3e30 01       		.uleb128 0x1
 16196 3e31 50       		.byte	0x50
 16197 3e32 01       		.uleb128 0x1
 16198 3e33 40       		.byte	0x40
 16199 3e34 0B       		.uleb128 0xb
 16200 3e35 01       		.uleb128 0x1
 16201 3e36 51       		.byte	0x51
 16202 3e37 05       		.uleb128 0x5
 16203 3e38 0C       		.byte	0xc
 16204 3e39 0A010700 		.4byte	0x7010a
 16205 3e3d 0B       		.uleb128 0xb
 16206 3e3e 01       		.uleb128 0x1
 16207 3e3f 52       		.byte	0x52
 16208 3e40 01       		.uleb128 0x1
 16209 3e41 30       		.byte	0x30
 16210 3e42 00       		.byte	0
 16211 3e43 0A       		.uleb128 0xa
 16212 3e44 56020000 		.4byte	.LVL791
 16213 3e48 BF460000 		.4byte	0x46bf
 16214 3e4c 563E0000 		.4byte	0x3e56
 16215 3e50 0B       		.uleb128 0xb
 16216 3e51 01       		.uleb128 0x1
 16217 3e52 50       		.byte	0x50
 16218 3e53 01       		.uleb128 0x1
 16219 3e54 3A       		.byte	0x3a
 16220 3e55 00       		.byte	0
 16221 3e56 0A       		.uleb128 0xa
 16222 3e57 62020000 		.4byte	.LVL792
 16223 3e5b 560E0000 		.4byte	0xe56
 16224 3e5f 743E0000 		.4byte	0x3e74
 16225 3e63 0B       		.uleb128 0xb
 16226 3e64 01       		.uleb128 0x1
 16227 3e65 50       		.byte	0x50
 16228 3e66 01       		.uleb128 0x1
 16229 3e67 40       		.byte	0x40
 16230 3e68 0B       		.uleb128 0xb
 16231 3e69 01       		.uleb128 0x1
ARM GAS  C:\Users\Revanth\AppData\Local\Temp\ccbqjHa5.s 			page 348


 16232 3e6a 51       		.byte	0x51
 16233 3e6b 02       		.uleb128 0x2
 16234 3e6c 74       		.byte	0x74
 16235 3e6d 00       		.sleb128 0
 16236 3e6e 0B       		.uleb128 0xb
 16237 3e6f 01       		.uleb128 0x1
 16238 3e70 52       		.byte	0x52
 16239 3e71 01       		.uleb128 0x1
 16240 3e72 31       		.byte	0x31
 16241 3e73 00       		.byte	0
 16242 3e74 0A       		.uleb128 0xa
 16243 3e75 6C020000 		.4byte	.LVL793
 16244 3e79 560E0000 		.4byte	0xe56
 16245 3e7d 923E0000 		.4byte	0x3e92
 16246 3e81 0B       		.uleb128 0xb
 16247 3e82 01       		.uleb128 0x1
 16248 3e83 50       		.byte	0x50
 16249 3e84 01       		.uleb128 0x1
 16250 3e85 40       		.byte	0x40
 16251 3e86 0B       		.uleb128 0xb
 16252 3e87 01       		.uleb128 0x1
 16253 3e88 51       		.byte	0x51
 16254 3e89 02       		.uleb128 0x2
 16255 3e8a 74       		.byte	0x74
 16256 3e8b 00       		.sleb128 0
 16257 3e8c 0B       		.uleb128 0xb
 16258 3e8d 01       		.uleb128 0x1
 16259 3e8e 52       		.byte	0x52
 16260 3e8f 01       		.uleb128 0x1
 16261 3e90 32       		.byte	0x32
 16262 3e91 00       		.byte	0
 16263 3e92 0A       		.uleb128 0xa
 16264 3e93 76020000 		.4byte	.LVL794
 16265 3e97 560E0000 		.4byte	0xe56
 16266 3e9b B03E0000 		.4byte	0x3eb0
 16267 3e9f 0B       		.uleb128 0xb
 16268 3ea0 01       		.uleb128 0x1
 16269 3ea1 50       		.byte	0x50
 16270 3ea2 01       		.uleb128 0x1
 16271 3ea3 40       		.byte	0x40
 16272 3ea4 0B       		.uleb128 0xb
 16273 3ea5 01       		.uleb128 0x1
 16274 3ea6 51       		.byte	0x51
 16275 3ea7 02       		.uleb128 0x2
 16276 3ea8 74       		.byte	0x74
 16277 3ea9 00       		.sleb128 0
 16278 3eaa 0B       		.uleb128 0xb
 16279 3eab 01       		.uleb128 0x1
 16280 3eac 52       		.byte	0x52
 16281 3ead 01       		.uleb128 0x1
 16282 3eae 30       		.byte	0x30
 16283 3eaf 00       		.byte	0
 16284 3eb0 0A       		.uleb128 0xa
 16285 3eb1 80020000 		.4byte	.LVL795
 16286 3eb5 560E0000 		.4byte	0xe56
 16287 3eb9 CE3E0000 		.4byte	0x3ece
 16288 3ebd 0B       		.uleb128 0xb
ARM GAS  C:\Users\Revanth\AppData\Local\Temp\ccbqjHa5.s 			page 349


 16289 3ebe 01       		.uleb128 0x1
 16290 3ebf 50       		.byte	0x50
 16291 3ec0 01       		.uleb128 0x1
 16292 3ec1 40       		.byte	0x40
 16293 3ec2 0B       		.uleb128 0xb
 16294 3ec3 01       		.uleb128 0x1
 16295 3ec4 51       		.byte	0x51
 16296 3ec5 02       		.uleb128 0x2
 16297 3ec6 74       		.byte	0x74
 16298 3ec7 00       		.sleb128 0
 16299 3ec8 0B       		.uleb128 0xb
 16300 3ec9 01       		.uleb128 0x1
 16301 3eca 52       		.byte	0x52
 16302 3ecb 01       		.uleb128 0x1
 16303 3ecc 33       		.byte	0x33
 16304 3ecd 00       		.byte	0
 16305 3ece 09       		.uleb128 0x9
 16306 3ecf 86020000 		.4byte	.LVL796
 16307 3ed3 45060000 		.4byte	0x645
 16308 3ed7 09       		.uleb128 0x9
 16309 3ed8 C8020000 		.4byte	.LVL800
 16310 3edc 431C0000 		.4byte	0x1c43
 16311 3ee0 0A       		.uleb128 0xa
 16312 3ee1 D4020000 		.4byte	.LVL801
 16313 3ee5 560E0000 		.4byte	0xe56
 16314 3ee9 013F0000 		.4byte	0x3f01
 16315 3eed 0B       		.uleb128 0xb
 16316 3eee 01       		.uleb128 0x1
 16317 3eef 50       		.byte	0x50
 16318 3ef0 01       		.uleb128 0x1
 16319 3ef1 40       		.byte	0x40
 16320 3ef2 0B       		.uleb128 0xb
 16321 3ef3 01       		.uleb128 0x1
 16322 3ef4 51       		.byte	0x51
 16323 3ef5 05       		.uleb128 0x5
 16324 3ef6 0C       		.byte	0xc
 16325 3ef7 0A010700 		.4byte	0x7010a
 16326 3efb 0B       		.uleb128 0xb
 16327 3efc 01       		.uleb128 0x1
 16328 3efd 52       		.byte	0x52
 16329 3efe 01       		.uleb128 0x1
 16330 3eff 31       		.byte	0x31
 16331 3f00 00       		.byte	0
 16332 3f01 0A       		.uleb128 0xa
 16333 3f02 DA020000 		.4byte	.LVL802
 16334 3f06 BF460000 		.4byte	0x46bf
 16335 3f0a 143F0000 		.4byte	0x3f14
 16336 3f0e 0B       		.uleb128 0xb
 16337 3f0f 01       		.uleb128 0x1
 16338 3f10 50       		.byte	0x50
 16339 3f11 01       		.uleb128 0x1
 16340 3f12 3A       		.byte	0x3a
 16341 3f13 00       		.byte	0
 16342 3f14 0A       		.uleb128 0xa
 16343 3f15 E6020000 		.4byte	.LVL803
 16344 3f19 560E0000 		.4byte	0xe56
 16345 3f1d 323F0000 		.4byte	0x3f32
ARM GAS  C:\Users\Revanth\AppData\Local\Temp\ccbqjHa5.s 			page 350


 16346 3f21 0B       		.uleb128 0xb
 16347 3f22 01       		.uleb128 0x1
 16348 3f23 50       		.byte	0x50
 16349 3f24 01       		.uleb128 0x1
 16350 3f25 40       		.byte	0x40
 16351 3f26 0B       		.uleb128 0xb
 16352 3f27 01       		.uleb128 0x1
 16353 3f28 51       		.byte	0x51
 16354 3f29 02       		.uleb128 0x2
 16355 3f2a 74       		.byte	0x74
 16356 3f2b 00       		.sleb128 0
 16357 3f2c 0B       		.uleb128 0xb
 16358 3f2d 01       		.uleb128 0x1
 16359 3f2e 52       		.byte	0x52
 16360 3f2f 01       		.uleb128 0x1
 16361 3f30 31       		.byte	0x31
 16362 3f31 00       		.byte	0
 16363 3f32 0A       		.uleb128 0xa
 16364 3f33 F0020000 		.4byte	.LVL804
 16365 3f37 560E0000 		.4byte	0xe56
 16366 3f3b 503F0000 		.4byte	0x3f50
 16367 3f3f 0B       		.uleb128 0xb
 16368 3f40 01       		.uleb128 0x1
 16369 3f41 50       		.byte	0x50
 16370 3f42 01       		.uleb128 0x1
 16371 3f43 40       		.byte	0x40
 16372 3f44 0B       		.uleb128 0xb
 16373 3f45 01       		.uleb128 0x1
 16374 3f46 51       		.byte	0x51
 16375 3f47 02       		.uleb128 0x2
 16376 3f48 74       		.byte	0x74
 16377 3f49 00       		.sleb128 0
 16378 3f4a 0B       		.uleb128 0xb
 16379 3f4b 01       		.uleb128 0x1
 16380 3f4c 52       		.byte	0x52
 16381 3f4d 01       		.uleb128 0x1
 16382 3f4e 32       		.byte	0x32
 16383 3f4f 00       		.byte	0
 16384 3f50 0A       		.uleb128 0xa
 16385 3f51 FA020000 		.4byte	.LVL805
 16386 3f55 560E0000 		.4byte	0xe56
 16387 3f59 6E3F0000 		.4byte	0x3f6e
 16388 3f5d 0B       		.uleb128 0xb
 16389 3f5e 01       		.uleb128 0x1
 16390 3f5f 50       		.byte	0x50
 16391 3f60 01       		.uleb128 0x1
 16392 3f61 40       		.byte	0x40
 16393 3f62 0B       		.uleb128 0xb
 16394 3f63 01       		.uleb128 0x1
 16395 3f64 51       		.byte	0x51
 16396 3f65 02       		.uleb128 0x2
 16397 3f66 74       		.byte	0x74
 16398 3f67 00       		.sleb128 0
 16399 3f68 0B       		.uleb128 0xb
 16400 3f69 01       		.uleb128 0x1
 16401 3f6a 52       		.byte	0x52
 16402 3f6b 01       		.uleb128 0x1
ARM GAS  C:\Users\Revanth\AppData\Local\Temp\ccbqjHa5.s 			page 351


 16403 3f6c 30       		.byte	0x30
 16404 3f6d 00       		.byte	0
 16405 3f6e 0A       		.uleb128 0xa
 16406 3f6f 04030000 		.4byte	.LVL806
 16407 3f73 560E0000 		.4byte	0xe56
 16408 3f77 8C3F0000 		.4byte	0x3f8c
 16409 3f7b 0B       		.uleb128 0xb
 16410 3f7c 01       		.uleb128 0x1
 16411 3f7d 50       		.byte	0x50
 16412 3f7e 01       		.uleb128 0x1
 16413 3f7f 40       		.byte	0x40
 16414 3f80 0B       		.uleb128 0xb
 16415 3f81 01       		.uleb128 0x1
 16416 3f82 51       		.byte	0x51
 16417 3f83 02       		.uleb128 0x2
 16418 3f84 74       		.byte	0x74
 16419 3f85 00       		.sleb128 0
 16420 3f86 0B       		.uleb128 0xb
 16421 3f87 01       		.uleb128 0x1
 16422 3f88 52       		.byte	0x52
 16423 3f89 01       		.uleb128 0x1
 16424 3f8a 33       		.byte	0x33
 16425 3f8b 00       		.byte	0
 16426 3f8c 09       		.uleb128 0x9
 16427 3f8d 0A030000 		.4byte	.LVL807
 16428 3f91 45060000 		.4byte	0x645
 16429 3f95 09       		.uleb128 0x9
 16430 3f96 8E030000 		.4byte	.LVL811
 16431 3f9a D11E0000 		.4byte	0x1ed1
 16432 3f9e 09       		.uleb128 0x9
 16433 3f9f 94030000 		.4byte	.LVL812
 16434 3fa3 45060000 		.4byte	0x645
 16435 3fa7 0A       		.uleb128 0xa
 16436 3fa8 A6030000 		.4byte	.LVL813
 16437 3fac 560E0000 		.4byte	0xe56
 16438 3fb0 C83F0000 		.4byte	0x3fc8
 16439 3fb4 0B       		.uleb128 0xb
 16440 3fb5 01       		.uleb128 0x1
 16441 3fb6 50       		.byte	0x50
 16442 3fb7 01       		.uleb128 0x1
 16443 3fb8 40       		.byte	0x40
 16444 3fb9 0B       		.uleb128 0xb
 16445 3fba 01       		.uleb128 0x1
 16446 3fbb 51       		.byte	0x51
 16447 3fbc 05       		.uleb128 0x5
 16448 3fbd 0C       		.byte	0xc
 16449 3fbe 03050700 		.4byte	0x70503
 16450 3fc2 0B       		.uleb128 0xb
 16451 3fc3 01       		.uleb128 0x1
 16452 3fc4 52       		.byte	0x52
 16453 3fc5 01       		.uleb128 0x1
 16454 3fc6 33       		.byte	0x33
 16455 3fc7 00       		.byte	0
 16456 3fc8 09       		.uleb128 0x9
 16457 3fc9 C4030000 		.4byte	.LVL814
 16458 3fcd 3D210000 		.4byte	0x213d
 16459 3fd1 09       		.uleb128 0x9
ARM GAS  C:\Users\Revanth\AppData\Local\Temp\ccbqjHa5.s 			page 352


 16460 3fd2 CA030000 		.4byte	.LVL815
 16461 3fd6 45060000 		.4byte	0x645
 16462 3fda 0A       		.uleb128 0xa
 16463 3fdb D4030000 		.4byte	.LVL816
 16464 3fdf 560E0000 		.4byte	0xe56
 16465 3fe3 FB3F0000 		.4byte	0x3ffb
 16466 3fe7 0B       		.uleb128 0xb
 16467 3fe8 01       		.uleb128 0x1
 16468 3fe9 50       		.byte	0x50
 16469 3fea 01       		.uleb128 0x1
 16470 3feb 40       		.byte	0x40
 16471 3fec 0B       		.uleb128 0xb
 16472 3fed 01       		.uleb128 0x1
 16473 3fee 51       		.byte	0x51
 16474 3fef 05       		.uleb128 0x5
 16475 3ff0 0C       		.byte	0xc
 16476 3ff1 03030700 		.4byte	0x70303
 16477 3ff5 0B       		.uleb128 0xb
 16478 3ff6 01       		.uleb128 0x1
 16479 3ff7 52       		.byte	0x52
 16480 3ff8 01       		.uleb128 0x1
 16481 3ff9 33       		.byte	0x33
 16482 3ffa 00       		.byte	0
 16483 3ffb 09       		.uleb128 0x9
 16484 3ffc D8040000 		.4byte	.LVL833
 16485 4000 AC220000 		.4byte	0x22ac
 16486 4004 0A       		.uleb128 0xa
 16487 4005 E0040000 		.4byte	.LVL834
 16488 4009 BF460000 		.4byte	0x46bf
 16489 400d 17400000 		.4byte	0x4017
 16490 4011 0B       		.uleb128 0xb
 16491 4012 01       		.uleb128 0x1
 16492 4013 50       		.byte	0x50
 16493 4014 01       		.uleb128 0x1
 16494 4015 3A       		.byte	0x3a
 16495 4016 00       		.byte	0
 16496 4017 0A       		.uleb128 0xa
 16497 4018 EC040000 		.4byte	.LVL835
 16498 401c 560E0000 		.4byte	0xe56
 16499 4020 35400000 		.4byte	0x4035
 16500 4024 0B       		.uleb128 0xb
 16501 4025 01       		.uleb128 0x1
 16502 4026 50       		.byte	0x50
 16503 4027 01       		.uleb128 0x1
 16504 4028 40       		.byte	0x40
 16505 4029 0B       		.uleb128 0xb
 16506 402a 01       		.uleb128 0x1
 16507 402b 51       		.byte	0x51
 16508 402c 02       		.uleb128 0x2
 16509 402d 75       		.byte	0x75
 16510 402e 00       		.sleb128 0
 16511 402f 0B       		.uleb128 0xb
 16512 4030 01       		.uleb128 0x1
 16513 4031 52       		.byte	0x52
 16514 4032 01       		.uleb128 0x1
 16515 4033 31       		.byte	0x31
 16516 4034 00       		.byte	0
ARM GAS  C:\Users\Revanth\AppData\Local\Temp\ccbqjHa5.s 			page 353


 16517 4035 0A       		.uleb128 0xa
 16518 4036 F6040000 		.4byte	.LVL836
 16519 403a 560E0000 		.4byte	0xe56
 16520 403e 53400000 		.4byte	0x4053
 16521 4042 0B       		.uleb128 0xb
 16522 4043 01       		.uleb128 0x1
 16523 4044 50       		.byte	0x50
 16524 4045 01       		.uleb128 0x1
 16525 4046 40       		.byte	0x40
 16526 4047 0B       		.uleb128 0xb
 16527 4048 01       		.uleb128 0x1
 16528 4049 51       		.byte	0x51
 16529 404a 02       		.uleb128 0x2
 16530 404b 75       		.byte	0x75
 16531 404c 00       		.sleb128 0
 16532 404d 0B       		.uleb128 0xb
 16533 404e 01       		.uleb128 0x1
 16534 404f 52       		.byte	0x52
 16535 4050 01       		.uleb128 0x1
 16536 4051 32       		.byte	0x32
 16537 4052 00       		.byte	0
 16538 4053 0A       		.uleb128 0xa
 16539 4054 00050000 		.4byte	.LVL837
 16540 4058 560E0000 		.4byte	0xe56
 16541 405c 71400000 		.4byte	0x4071
 16542 4060 0B       		.uleb128 0xb
 16543 4061 01       		.uleb128 0x1
 16544 4062 50       		.byte	0x50
 16545 4063 01       		.uleb128 0x1
 16546 4064 40       		.byte	0x40
 16547 4065 0B       		.uleb128 0xb
 16548 4066 01       		.uleb128 0x1
 16549 4067 51       		.byte	0x51
 16550 4068 02       		.uleb128 0x2
 16551 4069 75       		.byte	0x75
 16552 406a 00       		.sleb128 0
 16553 406b 0B       		.uleb128 0xb
 16554 406c 01       		.uleb128 0x1
 16555 406d 52       		.byte	0x52
 16556 406e 01       		.uleb128 0x1
 16557 406f 30       		.byte	0x30
 16558 4070 00       		.byte	0
 16559 4071 0A       		.uleb128 0xa
 16560 4072 0A050000 		.4byte	.LVL838
 16561 4076 560E0000 		.4byte	0xe56
 16562 407a 8F400000 		.4byte	0x408f
 16563 407e 0B       		.uleb128 0xb
 16564 407f 01       		.uleb128 0x1
 16565 4080 50       		.byte	0x50
 16566 4081 01       		.uleb128 0x1
 16567 4082 40       		.byte	0x40
 16568 4083 0B       		.uleb128 0xb
 16569 4084 01       		.uleb128 0x1
 16570 4085 51       		.byte	0x51
 16571 4086 02       		.uleb128 0x2
 16572 4087 75       		.byte	0x75
 16573 4088 00       		.sleb128 0
ARM GAS  C:\Users\Revanth\AppData\Local\Temp\ccbqjHa5.s 			page 354


 16574 4089 0B       		.uleb128 0xb
 16575 408a 01       		.uleb128 0x1
 16576 408b 52       		.byte	0x52
 16577 408c 01       		.uleb128 0x1
 16578 408d 33       		.byte	0x33
 16579 408e 00       		.byte	0
 16580 408f 09       		.uleb128 0x9
 16581 4090 10050000 		.4byte	.LVL839
 16582 4094 45060000 		.4byte	0x645
 16583 4098 09       		.uleb128 0x9
 16584 4099 1C050000 		.4byte	.LVL840
 16585 409d 32080000 		.4byte	0x832
 16586 40a1 0A       		.uleb128 0xa
 16587 40a2 22050000 		.4byte	.LVL841
 16588 40a6 BF460000 		.4byte	0x46bf
 16589 40aa B5400000 		.4byte	0x40b5
 16590 40ae 0B       		.uleb128 0xb
 16591 40af 01       		.uleb128 0x1
 16592 40b0 50       		.byte	0x50
 16593 40b1 02       		.uleb128 0x2
 16594 40b2 08       		.byte	0x8
 16595 40b3 64       		.byte	0x64
 16596 40b4 00       		.byte	0
 16597 40b5 09       		.uleb128 0x9
 16598 40b6 2A050000 		.4byte	.LVL842
 16599 40ba 45060000 		.4byte	0x645
 16600 40be 09       		.uleb128 0x9
 16601 40bf 36050000 		.4byte	.LVL843
 16602 40c3 C4070000 		.4byte	0x7c4
 16603 40c7 0A       		.uleb128 0xa
 16604 40c8 3C050000 		.4byte	.LVL844
 16605 40cc BF460000 		.4byte	0x46bf
 16606 40d0 DB400000 		.4byte	0x40db
 16607 40d4 0B       		.uleb128 0xb
 16608 40d5 01       		.uleb128 0x1
 16609 40d6 50       		.byte	0x50
 16610 40d7 02       		.uleb128 0x2
 16611 40d8 08       		.byte	0x8
 16612 40d9 64       		.byte	0x64
 16613 40da 00       		.byte	0
 16614 40db 09       		.uleb128 0x9
 16615 40dc 44050000 		.4byte	.LVL845
 16616 40e0 45060000 		.4byte	0x645
 16617 40e4 0A       		.uleb128 0xa
 16618 40e5 7A050000 		.4byte	.LVL853
 16619 40e9 E8030000 		.4byte	0x3e8
 16620 40ed FB400000 		.4byte	0x40fb
 16621 40f1 0B       		.uleb128 0xb
 16622 40f2 01       		.uleb128 0x1
 16623 40f3 50       		.byte	0x50
 16624 40f4 05       		.uleb128 0x5
 16625 40f5 03       		.byte	0x3
 16626 40f6 F8040000 		.4byte	.LC42
 16627 40fa 00       		.byte	0
 16628 40fb 0A       		.uleb128 0xa
 16629 40fc 80050000 		.4byte	.LVL854
 16630 4100 E8030000 		.4byte	0x3e8
ARM GAS  C:\Users\Revanth\AppData\Local\Temp\ccbqjHa5.s 			page 355


 16631 4104 12410000 		.4byte	0x4112
 16632 4108 0B       		.uleb128 0xb
 16633 4109 01       		.uleb128 0x1
 16634 410a 50       		.byte	0x50
 16635 410b 05       		.uleb128 0x5
 16636 410c 03       		.byte	0x3
 16637 410d B8000000 		.4byte	.LC8
 16638 4111 00       		.byte	0
 16639 4112 0A       		.uleb128 0xa
 16640 4113 88050000 		.4byte	.LVL855
 16641 4117 BF460000 		.4byte	0x46bf
 16642 411b 27410000 		.4byte	0x4127
 16643 411f 0B       		.uleb128 0xb
 16644 4120 01       		.uleb128 0x1
 16645 4121 50       		.byte	0x50
 16646 4122 03       		.uleb128 0x3
 16647 4123 0A       		.byte	0xa
 16648 4124 F401     		.2byte	0x1f4
 16649 4126 00       		.byte	0
 16650 4127 0A       		.uleb128 0xa
 16651 4128 8E050000 		.4byte	.LVL856
 16652 412c 45060000 		.4byte	0x645
 16653 4130 3A410000 		.4byte	0x413a
 16654 4134 0B       		.uleb128 0xb
 16655 4135 01       		.uleb128 0x1
 16656 4136 50       		.byte	0x50
 16657 4137 01       		.uleb128 0x1
 16658 4138 30       		.byte	0x30
 16659 4139 00       		.byte	0
 16660 413a 0A       		.uleb128 0xa
 16661 413b 96050000 		.4byte	.LVL857
 16662 413f BF460000 		.4byte	0x46bf
 16663 4143 4F410000 		.4byte	0x414f
 16664 4147 0B       		.uleb128 0xb
 16665 4148 01       		.uleb128 0x1
 16666 4149 50       		.byte	0x50
 16667 414a 03       		.uleb128 0x3
 16668 414b 0A       		.byte	0xa
 16669 414c F401     		.2byte	0x1f4
 16670 414e 00       		.byte	0
 16671 414f 09       		.uleb128 0x9
 16672 4150 9A050000 		.4byte	.LVL858
 16673 4154 B5470000 		.4byte	0x47b5
 16674 4158 0A       		.uleb128 0xa
 16675 4159 22060000 		.4byte	.LVL859
 16676 415d E8030000 		.4byte	0x3e8
 16677 4161 6F410000 		.4byte	0x416f
 16678 4165 0B       		.uleb128 0xb
 16679 4166 01       		.uleb128 0x1
 16680 4167 50       		.byte	0x50
 16681 4168 05       		.uleb128 0x5
 16682 4169 03       		.byte	0x3
 16683 416a 18050000 		.4byte	.LC43
 16684 416e 00       		.byte	0
 16685 416f 0A       		.uleb128 0xa
 16686 4170 2A060000 		.4byte	.LVL860
 16687 4174 0B240000 		.4byte	0x240b
ARM GAS  C:\Users\Revanth\AppData\Local\Temp\ccbqjHa5.s 			page 356


 16688 4178 82410000 		.4byte	0x4182
 16689 417c 0B       		.uleb128 0xb
 16690 417d 01       		.uleb128 0x1
 16691 417e 51       		.byte	0x51
 16692 417f 01       		.uleb128 0x1
 16693 4180 30       		.byte	0x30
 16694 4181 00       		.byte	0
 16695 4182 0A       		.uleb128 0xa
 16696 4183 32060000 		.4byte	.LVL861
 16697 4187 0B240000 		.4byte	0x240b
 16698 418b 95410000 		.4byte	0x4195
 16699 418f 0B       		.uleb128 0xb
 16700 4190 01       		.uleb128 0x1
 16701 4191 51       		.byte	0x51
 16702 4192 01       		.uleb128 0x1
 16703 4193 31       		.byte	0x31
 16704 4194 00       		.byte	0
 16705 4195 0A       		.uleb128 0xa
 16706 4196 3A060000 		.4byte	.LVL862
 16707 419a 0B240000 		.4byte	0x240b
 16708 419e A8410000 		.4byte	0x41a8
 16709 41a2 0B       		.uleb128 0xb
 16710 41a3 01       		.uleb128 0x1
 16711 41a4 51       		.byte	0x51
 16712 41a5 01       		.uleb128 0x1
 16713 41a6 32       		.byte	0x32
 16714 41a7 00       		.byte	0
 16715 41a8 0A       		.uleb128 0xa
 16716 41a9 40060000 		.4byte	.LVL863
 16717 41ad E8030000 		.4byte	0x3e8
 16718 41b1 BF410000 		.4byte	0x41bf
 16719 41b5 0B       		.uleb128 0xb
 16720 41b6 01       		.uleb128 0x1
 16721 41b7 50       		.byte	0x50
 16722 41b8 05       		.uleb128 0x5
 16723 41b9 03       		.byte	0x3
 16724 41ba 40050000 		.4byte	.LC44
 16725 41be 00       		.byte	0
 16726 41bf 09       		.uleb128 0x9
 16727 41c0 46060000 		.4byte	.LVL864
 16728 41c4 2D070000 		.4byte	0x72d
 16729 41c8 0A       		.uleb128 0xa
 16730 41c9 4E060000 		.4byte	.LVL865
 16731 41cd E8030000 		.4byte	0x3e8
 16732 41d1 DC410000 		.4byte	0x41dc
 16733 41d5 0B       		.uleb128 0xb
 16734 41d6 01       		.uleb128 0x1
 16735 41d7 50       		.byte	0x50
 16736 41d8 02       		.uleb128 0x2
 16737 41d9 75       		.byte	0x75
 16738 41da 00       		.sleb128 0
 16739 41db 00       		.byte	0
 16740 41dc 09       		.uleb128 0x9
 16741 41dd 54060000 		.4byte	.LVL866
 16742 41e1 2D070000 		.4byte	0x72d
 16743 41e5 0A       		.uleb128 0xa
 16744 41e6 5A060000 		.4byte	.LVL867
ARM GAS  C:\Users\Revanth\AppData\Local\Temp\ccbqjHa5.s 			page 357


 16745 41ea E8030000 		.4byte	0x3e8
 16746 41ee F9410000 		.4byte	0x41f9
 16747 41f2 0B       		.uleb128 0xb
 16748 41f3 01       		.uleb128 0x1
 16749 41f4 50       		.byte	0x50
 16750 41f5 02       		.uleb128 0x2
 16751 41f6 75       		.byte	0x75
 16752 41f7 00       		.sleb128 0
 16753 41f8 00       		.byte	0
 16754 41f9 09       		.uleb128 0x9
 16755 41fa 60060000 		.4byte	.LVL868
 16756 41fe 2D070000 		.4byte	0x72d
 16757 4202 0A       		.uleb128 0xa
 16758 4203 66060000 		.4byte	.LVL869
 16759 4207 E8030000 		.4byte	0x3e8
 16760 420b 16420000 		.4byte	0x4216
 16761 420f 0B       		.uleb128 0xb
 16762 4210 01       		.uleb128 0x1
 16763 4211 50       		.byte	0x50
 16764 4212 02       		.uleb128 0x2
 16765 4213 75       		.byte	0x75
 16766 4214 00       		.sleb128 0
 16767 4215 00       		.byte	0
 16768 4216 09       		.uleb128 0x9
 16769 4217 6E060000 		.4byte	.LVL870
 16770 421b 45060000 		.4byte	0x645
 16771 421f 0A       		.uleb128 0xa
 16772 4220 B0060000 		.4byte	.LVL871
 16773 4224 0B240000 		.4byte	0x240b
 16774 4228 32420000 		.4byte	0x4232
 16775 422c 0B       		.uleb128 0xb
 16776 422d 01       		.uleb128 0x1
 16777 422e 51       		.byte	0x51
 16778 422f 01       		.uleb128 0x1
 16779 4230 32       		.byte	0x32
 16780 4231 00       		.byte	0
 16781 4232 09       		.uleb128 0x9
 16782 4233 D4060000 		.4byte	.LVL875
 16783 4237 D11E0000 		.4byte	0x1ed1
 16784 423b 09       		.uleb128 0x9
 16785 423c DA060000 		.4byte	.LVL876
 16786 4240 45060000 		.4byte	0x645
 16787 4244 09       		.uleb128 0x9
 16788 4245 1C070000 		.4byte	.LVL877
 16789 4249 6E360000 		.4byte	0x366e
 16790 424d 0A       		.uleb128 0xa
 16791 424e 24070000 		.4byte	.LVL878
 16792 4252 45060000 		.4byte	0x645
 16793 4256 60420000 		.4byte	0x4260
 16794 425a 0B       		.uleb128 0xb
 16795 425b 01       		.uleb128 0x1
 16796 425c 50       		.byte	0x50
 16797 425d 01       		.uleb128 0x1
 16798 425e 30       		.byte	0x30
 16799 425f 00       		.byte	0
 16800 4260 0A       		.uleb128 0xa
 16801 4261 C0070000 		.4byte	.LVL879
ARM GAS  C:\Users\Revanth\AppData\Local\Temp\ccbqjHa5.s 			page 358


 16802 4265 4E470000 		.4byte	0x474e
 16803 4269 73420000 		.4byte	0x4273
 16804 426d 0B       		.uleb128 0xb
 16805 426e 01       		.uleb128 0x1
 16806 426f 50       		.byte	0x50
 16807 4270 01       		.uleb128 0x1
 16808 4271 3A       		.byte	0x3a
 16809 4272 00       		.byte	0
 16810 4273 0A       		.uleb128 0xa
 16811 4274 C8070000 		.4byte	.LVL880
 16812 4278 0B240000 		.4byte	0x240b
 16813 427c 86420000 		.4byte	0x4286
 16814 4280 0B       		.uleb128 0xb
 16815 4281 01       		.uleb128 0x1
 16816 4282 51       		.byte	0x51
 16817 4283 01       		.uleb128 0x1
 16818 4284 30       		.byte	0x30
 16819 4285 00       		.byte	0
 16820 4286 0A       		.uleb128 0xa
 16821 4287 D0070000 		.4byte	.LVL881
 16822 428b 0B240000 		.4byte	0x240b
 16823 428f 99420000 		.4byte	0x4299
 16824 4293 0B       		.uleb128 0xb
 16825 4294 01       		.uleb128 0x1
 16826 4295 51       		.byte	0x51
 16827 4296 01       		.uleb128 0x1
 16828 4297 31       		.byte	0x31
 16829 4298 00       		.byte	0
 16830 4299 0A       		.uleb128 0xa
 16831 429a D8070000 		.4byte	.LVL882
 16832 429e 0B240000 		.4byte	0x240b
 16833 42a2 AC420000 		.4byte	0x42ac
 16834 42a6 0B       		.uleb128 0xb
 16835 42a7 01       		.uleb128 0x1
 16836 42a8 51       		.byte	0x51
 16837 42a9 01       		.uleb128 0x1
 16838 42aa 32       		.byte	0x32
 16839 42ab 00       		.byte	0
 16840 42ac 0A       		.uleb128 0xa
 16841 42ad 3E080000 		.4byte	.LVL892
 16842 42b1 4E470000 		.4byte	0x474e
 16843 42b5 C0420000 		.4byte	0x42c0
 16844 42b9 0B       		.uleb128 0xb
 16845 42ba 01       		.uleb128 0x1
 16846 42bb 50       		.byte	0x50
 16847 42bc 02       		.uleb128 0x2
 16848 42bd 08       		.byte	0x8
 16849 42be 64       		.byte	0x64
 16850 42bf 00       		.byte	0
 16851 42c0 09       		.uleb128 0x9
 16852 42c1 48080000 		.4byte	.LVL893
 16853 42c5 AC220000 		.4byte	0x22ac
 16854 42c9 0A       		.uleb128 0xa
 16855 42ca 50080000 		.4byte	.LVL894
 16856 42ce BF460000 		.4byte	0x46bf
 16857 42d2 DD420000 		.4byte	0x42dd
 16858 42d6 0B       		.uleb128 0xb
ARM GAS  C:\Users\Revanth\AppData\Local\Temp\ccbqjHa5.s 			page 359


 16859 42d7 01       		.uleb128 0x1
 16860 42d8 50       		.byte	0x50
 16861 42d9 02       		.uleb128 0x2
 16862 42da 08       		.byte	0x8
 16863 42db 64       		.byte	0x64
 16864 42dc 00       		.byte	0
 16865 42dd 09       		.uleb128 0x9
 16866 42de 56080000 		.4byte	.LVL895
 16867 42e2 45060000 		.4byte	0x645
 16868 42e6 0A       		.uleb128 0xa
 16869 42e7 64080000 		.4byte	.LVL896
 16870 42eb 45060000 		.4byte	0x645
 16871 42ef F9420000 		.4byte	0x42f9
 16872 42f3 0B       		.uleb128 0xb
 16873 42f4 01       		.uleb128 0x1
 16874 42f5 50       		.byte	0x50
 16875 42f6 01       		.uleb128 0x1
 16876 42f7 30       		.byte	0x30
 16877 42f8 00       		.byte	0
 16878 42f9 0A       		.uleb128 0xa
 16879 42fa 70080000 		.4byte	.LVL897
 16880 42fe 0D480000 		.4byte	0x480d
 16881 4302 0D430000 		.4byte	0x430d
 16882 4306 0B       		.uleb128 0xb
 16883 4307 01       		.uleb128 0x1
 16884 4308 50       		.byte	0x50
 16885 4309 02       		.uleb128 0x2
 16886 430a 09       		.byte	0x9
 16887 430b FF       		.byte	0xff
 16888 430c 00       		.byte	0
 16889 430d 0A       		.uleb128 0xa
 16890 430e 76080000 		.4byte	.LVL898
 16891 4312 E8030000 		.4byte	0x3e8
 16892 4316 24430000 		.4byte	0x4324
 16893 431a 0B       		.uleb128 0xb
 16894 431b 01       		.uleb128 0x1
 16895 431c 50       		.byte	0x50
 16896 431d 05       		.uleb128 0x5
 16897 431e 03       		.byte	0x3
 16898 431f 6C050000 		.4byte	.LC46
 16899 4323 00       		.byte	0
 16900 4324 0A       		.uleb128 0xa
 16901 4325 7C080000 		.4byte	.LVL899
 16902 4329 BF460000 		.4byte	0x46bf
 16903 432d 37430000 		.4byte	0x4337
 16904 4331 0B       		.uleb128 0xb
 16905 4332 01       		.uleb128 0x1
 16906 4333 50       		.byte	0x50
 16907 4334 01       		.uleb128 0x1
 16908 4335 3A       		.byte	0x3a
 16909 4336 00       		.byte	0
 16910 4337 0A       		.uleb128 0xa
 16911 4338 82080000 		.4byte	.LVL900
 16912 433c 45060000 		.4byte	0x645
 16913 4340 4A430000 		.4byte	0x434a
 16914 4344 0B       		.uleb128 0xb
 16915 4345 01       		.uleb128 0x1
ARM GAS  C:\Users\Revanth\AppData\Local\Temp\ccbqjHa5.s 			page 360


 16916 4346 50       		.byte	0x50
 16917 4347 01       		.uleb128 0x1
 16918 4348 30       		.byte	0x30
 16919 4349 00       		.byte	0
 16920 434a 0A       		.uleb128 0xa
 16921 434b 88080000 		.4byte	.LVL901
 16922 434f 0D480000 		.4byte	0x480d
 16923 4353 5D430000 		.4byte	0x435d
 16924 4357 0B       		.uleb128 0xb
 16925 4358 01       		.uleb128 0x1
 16926 4359 50       		.byte	0x50
 16927 435a 01       		.uleb128 0x1
 16928 435b 30       		.byte	0x30
 16929 435c 00       		.byte	0
 16930 435d 0A       		.uleb128 0xa
 16931 435e 96080000 		.4byte	.LVL902
 16932 4362 E8030000 		.4byte	0x3e8
 16933 4366 74430000 		.4byte	0x4374
 16934 436a 0B       		.uleb128 0xb
 16935 436b 01       		.uleb128 0x1
 16936 436c 50       		.byte	0x50
 16937 436d 05       		.uleb128 0x5
 16938 436e 03       		.byte	0x3
 16939 436f 8C050000 		.4byte	.LC47
 16940 4373 00       		.byte	0
 16941 4374 09       		.uleb128 0x9
 16942 4375 9A080000 		.4byte	.LVL903
 16943 4379 A0080000 		.4byte	0x8a0
 16944 437d 0C       		.uleb128 0xc
 16945 437e A0080000 		.4byte	.LVL904
 16946 4382 45060000 		.4byte	0x645
 16947 4386 0B       		.uleb128 0xb
 16948 4387 01       		.uleb128 0x1
 16949 4388 50       		.byte	0x50
 16950 4389 02       		.uleb128 0x2
 16951 438a 74       		.byte	0x74
 16952 438b 00       		.sleb128 0
 16953 438c 00       		.byte	0
 16954 438d 00       		.byte	0
 16955 438e 22       		.uleb128 0x22
 16956 438f 60010000 		.4byte	.LASF104
 16957 4393 05       		.byte	0x5
 16958 4394 1207     		.2byte	0x712
 16959 4396 9A430000 		.4byte	0x439a
 16960 439a 23       		.uleb128 0x23
 16961 439b AD000000 		.4byte	0xad
 16962 439f 24       		.uleb128 0x24
 16963 43a0 830A0000 		.4byte	.LASF105
 16964 43a4 06       		.byte	0x6
 16965 43a5 16       		.byte	0x16
 16966 43a6 73090000 		.4byte	0x973
 16967 43aa 05       		.uleb128 0x5
 16968 43ab 03       		.byte	0x3
 16969 43ac 00000000 		.4byte	Is_Slide_On_Gripper
 16970 43b0 24       		.uleb128 0x24
 16971 43b1 17000000 		.4byte	.LASF106
 16972 43b5 06       		.byte	0x6
ARM GAS  C:\Users\Revanth\AppData\Local\Temp\ccbqjHa5.s 			page 361


 16973 43b6 17       		.byte	0x17
 16974 43b7 F8000000 		.4byte	0xf8
 16975 43bb 05       		.uleb128 0x5
 16976 43bc 03       		.byte	0x3
 16977 43bd 00000000 		.4byte	count
 16978 43c1 24       		.uleb128 0x24
 16979 43c2 4F070000 		.4byte	.LASF107
 16980 43c6 06       		.byte	0x6
 16981 43c7 18       		.byte	0x18
 16982 43c8 D8030000 		.4byte	0x3d8
 16983 43cc 05       		.uleb128 0x5
 16984 43cd 03       		.byte	0x3
 16985 43ce 00000000 		.4byte	USB_received
 16986 43d2 12       		.uleb128 0x12
 16987 43d3 04010000 		.4byte	0x104
 16988 43d7 E2430000 		.4byte	0x43e2
 16989 43db 13       		.uleb128 0x13
 16990 43dc CA000000 		.4byte	0xca
 16991 43e0 39       		.byte	0x39
 16992 43e1 00       		.byte	0
 16993 43e2 24       		.uleb128 0x24
 16994 43e3 B6080000 		.4byte	.LASF108
 16995 43e7 06       		.byte	0x6
 16996 43e8 19       		.byte	0x19
 16997 43e9 D2430000 		.4byte	0x43d2
 16998 43ed 05       		.uleb128 0x5
 16999 43ee 03       		.byte	0x3
 17000 43ef 00000000 		.4byte	USB_transmit
 17001 43f3 24       		.uleb128 0x24
 17002 43f4 8C020000 		.4byte	.LASF109
 17003 43f8 01       		.byte	0x1
 17004 43f9 14       		.byte	0x14
 17005 43fa 73090000 		.4byte	0x973
 17006 43fe 05       		.uleb128 0x5
 17007 43ff 03       		.byte	0x3
 17008 4400 00000000 		.4byte	Time_Out_Error
 17009 4404 24       		.uleb128 0x24
 17010 4405 4C040000 		.4byte	.LASF110
 17011 4409 01       		.byte	0x1
 17012 440a 15       		.byte	0x15
 17013 440b 90000000 		.4byte	0x90
 17014 440f 05       		.uleb128 0x5
 17015 4410 03       		.byte	0x3
 17016 4411 00000000 		.4byte	command
 17017 4415 24       		.uleb128 0x24
 17018 4416 15060000 		.4byte	.LASF43
 17019 441a 01       		.byte	0x1
 17020 441b 16       		.byte	0x16
 17021 441c 89000000 		.4byte	0x89
 17022 4420 05       		.uleb128 0x5
 17023 4421 03       		.byte	0x3
 17024 4422 00000000 		.4byte	Error
 17025 4426 24       		.uleb128 0x24
 17026 4427 2A030000 		.4byte	.LASF80
 17027 442b 01       		.byte	0x1
 17028 442c 18       		.byte	0x18
 17029 442d 10010000 		.4byte	0x110
ARM GAS  C:\Users\Revanth\AppData\Local\Temp\ccbqjHa5.s 			page 362


 17030 4431 05       		.uleb128 0x5
 17031 4432 03       		.byte	0x3
 17032 4433 00000000 		.4byte	Position_Y_Requested
 17033 4437 24       		.uleb128 0x24
 17034 4438 1D0A0000 		.4byte	.LASF76
 17035 443c 01       		.byte	0x1
 17036 443d 19       		.byte	0x19
 17037 443e 10010000 		.4byte	0x110
 17038 4442 05       		.uleb128 0x5
 17039 4443 03       		.byte	0x3
 17040 4444 00000000 		.4byte	Position_X_Requested
 17041 4448 24       		.uleb128 0x24
 17042 4449 430C0000 		.4byte	.LASF84
 17043 444d 01       		.byte	0x1
 17044 444e 1A       		.byte	0x1a
 17045 444f 10010000 		.4byte	0x110
 17046 4453 05       		.uleb128 0x5
 17047 4454 03       		.byte	0x3
 17048 4455 00000000 		.4byte	Position_Z_Requested
 17049 4459 24       		.uleb128 0x24
 17050 445a C3080000 		.4byte	.LASF88
 17051 445e 01       		.byte	0x1
 17052 445f 1B       		.byte	0x1b
 17053 4460 10010000 		.4byte	0x110
 17054 4464 05       		.uleb128 0x5
 17055 4465 03       		.byte	0x3
 17056 4466 00000000 		.4byte	Position_T_Requested
 17057 446a 24       		.uleb128 0x24
 17058 446b 9B020000 		.4byte	.LASF99
 17059 446f 01       		.byte	0x1
 17060 4470 1D       		.byte	0x1d
 17061 4471 10010000 		.4byte	0x110
 17062 4475 05       		.uleb128 0x5
 17063 4476 03       		.byte	0x3
 17064 4477 00000000 		.4byte	time_ms
 17065 447b 24       		.uleb128 0x24
 17066 447c 1C020000 		.4byte	.LASF111
 17067 4480 01       		.byte	0x1
 17068 4481 1E       		.byte	0x1e
 17069 4482 10010000 		.4byte	0x110
 17070 4486 05       		.uleb128 0x5
 17071 4487 03       		.byte	0x3
 17072 4488 00000000 		.4byte	oil_speed
 17073 448c 24       		.uleb128 0x24
 17074 448d F5020000 		.4byte	.LASF112
 17075 4491 01       		.byte	0x1
 17076 4492 1F       		.byte	0x1f
 17077 4493 10010000 		.4byte	0x110
 17078 4497 05       		.uleb128 0x5
 17079 4498 03       		.byte	0x3
 17080 4499 00000000 		.4byte	oil_dir
 17081 449d 24       		.uleb128 0x24
 17082 449e FA070000 		.4byte	.LASF113
 17083 44a2 01       		.byte	0x1
 17084 44a3 21       		.byte	0x21
 17085 44a4 AE440000 		.4byte	0x44ae
 17086 44a8 05       		.uleb128 0x5
ARM GAS  C:\Users\Revanth\AppData\Local\Temp\ccbqjHa5.s 			page 363


 17087 44a9 03       		.byte	0x3
 17088 44aa 00000000 		.4byte	X_QuadPosition
 17089 44ae 23       		.uleb128 0x23
 17090 44af 10010000 		.4byte	0x110
 17091 44b3 24       		.uleb128 0x24
 17092 44b4 E8060000 		.4byte	.LASF114
 17093 44b8 01       		.byte	0x1
 17094 44b9 22       		.byte	0x22
 17095 44ba AE440000 		.4byte	0x44ae
 17096 44be 05       		.uleb128 0x5
 17097 44bf 03       		.byte	0x3
 17098 44c0 00000000 		.4byte	Y_QuadPosition
 17099 44c4 24       		.uleb128 0x24
 17100 44c5 EF000000 		.4byte	.LASF115
 17101 44c9 01       		.byte	0x1
 17102 44ca 23       		.byte	0x23
 17103 44cb AE440000 		.4byte	0x44ae
 17104 44cf 05       		.uleb128 0x5
 17105 44d0 03       		.byte	0x3
 17106 44d1 00000000 		.4byte	Z_QuadPosition
 17107 44d5 24       		.uleb128 0x24
 17108 44d6 B9070000 		.4byte	.LASF116
 17109 44da 01       		.byte	0x1
 17110 44db 24       		.byte	0x24
 17111 44dc AE440000 		.4byte	0x44ae
 17112 44e0 05       		.uleb128 0x5
 17113 44e1 03       		.byte	0x3
 17114 44e2 00000000 		.4byte	T_QuadPosition
 17115 44e6 24       		.uleb128 0x24
 17116 44e7 55020000 		.4byte	.LASF117
 17117 44eb 01       		.byte	0x1
 17118 44ec 25       		.byte	0x25
 17119 44ed 89000000 		.4byte	0x89
 17120 44f1 05       		.uleb128 0x5
 17121 44f2 03       		.byte	0x3
 17122 44f3 00000000 		.4byte	EncoderTZSelect
 17123 44f7 24       		.uleb128 0x24
 17124 44f8 D9020000 		.4byte	.LASF118
 17125 44fc 01       		.byte	0x1
 17126 44fd 26       		.byte	0x26
 17127 44fe 89000000 		.4byte	0x89
 17128 4502 05       		.uleb128 0x5
 17129 4503 03       		.byte	0x3
 17130 4504 00000000 		.4byte	Buffer_Z_QuadPosition
 17131 4508 24       		.uleb128 0x24
 17132 4509 76050000 		.4byte	.LASF119
 17133 450d 01       		.byte	0x1
 17134 450e 27       		.byte	0x27
 17135 450f 89000000 		.4byte	0x89
 17136 4513 05       		.uleb128 0x5
 17137 4514 03       		.byte	0x3
 17138 4515 00000000 		.4byte	Buffer_T_QuadPosition
 17139 4519 24       		.uleb128 0x24
 17140 451a CA050000 		.4byte	.LASF120
 17141 451e 01       		.byte	0x1
 17142 451f 29       		.byte	0x29
 17143 4520 E5000000 		.4byte	0xe5
ARM GAS  C:\Users\Revanth\AppData\Local\Temp\ccbqjHa5.s 			page 364


 17144 4524 05       		.uleb128 0x5
 17145 4525 03       		.byte	0x3
 17146 4526 00000000 		.4byte	X_Pitchfactor
 17147 452a 24       		.uleb128 0x24
 17148 452b F80A0000 		.4byte	.LASF121
 17149 452f 01       		.byte	0x1
 17150 4530 2A       		.byte	0x2a
 17151 4531 E5000000 		.4byte	0xe5
 17152 4535 05       		.uleb128 0x5
 17153 4536 03       		.byte	0x3
 17154 4537 00000000 		.4byte	Y_Pitchfactor
 17155 453b 24       		.uleb128 0x24
 17156 453c 3E040000 		.4byte	.LASF122
 17157 4540 01       		.byte	0x1
 17158 4541 2B       		.byte	0x2b
 17159 4542 E5000000 		.4byte	0xe5
 17160 4546 05       		.uleb128 0x5
 17161 4547 03       		.byte	0x3
 17162 4548 00000000 		.4byte	Z_Pitchfactor
 17163 454c 24       		.uleb128 0x24
 17164 454d FC010000 		.4byte	.LASF123
 17165 4551 01       		.byte	0x1
 17166 4552 2C       		.byte	0x2c
 17167 4553 E5000000 		.4byte	0xe5
 17168 4557 05       		.uleb128 0x5
 17169 4558 03       		.byte	0x3
 17170 4559 00000000 		.4byte	T_Pitchfactor
 17171 455d 24       		.uleb128 0x24
 17172 455e 5C070000 		.4byte	.LASF124
 17173 4562 01       		.byte	0x1
 17174 4563 2E       		.byte	0x2e
 17175 4564 90000000 		.4byte	0x90
 17176 4568 05       		.uleb128 0x5
 17177 4569 03       		.byte	0x3
 17178 456a 00000000 		.4byte	Motor_Speed_X
 17179 456e 24       		.uleb128 0x24
 17180 456f 6A070000 		.4byte	.LASF125
 17181 4573 01       		.byte	0x1
 17182 4574 2F       		.byte	0x2f
 17183 4575 90000000 		.4byte	0x90
 17184 4579 05       		.uleb128 0x5
 17185 457a 03       		.byte	0x3
 17186 457b 00000000 		.4byte	Motor_Speed_Y
 17187 457f 24       		.uleb128 0x24
 17188 4580 78070000 		.4byte	.LASF126
 17189 4584 01       		.byte	0x1
 17190 4585 30       		.byte	0x30
 17191 4586 90000000 		.4byte	0x90
 17192 458a 05       		.uleb128 0x5
 17193 458b 03       		.byte	0x3
 17194 458c 00000000 		.4byte	Motor_Speed_Z
 17195 4590 24       		.uleb128 0x24
 17196 4591 E3090000 		.4byte	.LASF127
 17197 4595 01       		.byte	0x1
 17198 4596 32       		.byte	0x32
 17199 4597 73090000 		.4byte	0x973
 17200 459b 05       		.uleb128 0x5
ARM GAS  C:\Users\Revanth\AppData\Local\Temp\ccbqjHa5.s 			page 365


 17201 459c 03       		.byte	0x3
 17202 459d 00000000 		.4byte	HomeX_done
 17203 45a1 24       		.uleb128 0x24
 17204 45a2 7D010000 		.4byte	.LASF128
 17205 45a6 01       		.byte	0x1
 17206 45a7 33       		.byte	0x33
 17207 45a8 73090000 		.4byte	0x973
 17208 45ac 05       		.uleb128 0x5
 17209 45ad 03       		.byte	0x3
 17210 45ae 00000000 		.4byte	HomeY_done
 17211 45b2 24       		.uleb128 0x24
 17212 45b3 D8050000 		.4byte	.LASF129
 17213 45b7 01       		.byte	0x1
 17214 45b8 34       		.byte	0x34
 17215 45b9 73090000 		.4byte	0x973
 17216 45bd 05       		.uleb128 0x5
 17217 45be 03       		.byte	0x3
 17218 45bf 00000000 		.4byte	HomeZ_done
 17219 45c3 24       		.uleb128 0x24
 17220 45c4 31050000 		.4byte	.LASF130
 17221 45c8 01       		.byte	0x1
 17222 45c9 35       		.byte	0x35
 17223 45ca 73090000 		.4byte	0x973
 17224 45ce 05       		.uleb128 0x5
 17225 45cf 03       		.byte	0x3
 17226 45d0 00000000 		.4byte	HomeT_done
 17227 45d4 24       		.uleb128 0x24
 17228 45d5 B5060000 		.4byte	.LASF131
 17229 45d9 01       		.byte	0x1
 17230 45da 37       		.byte	0x37
 17231 45db 73090000 		.4byte	0x973
 17232 45df 05       		.uleb128 0x5
 17233 45e0 03       		.byte	0x3
 17234 45e1 00000000 		.4byte	HomeX_done_Buffer
 17235 45e5 24       		.uleb128 0x24
 17236 45e6 52030000 		.4byte	.LASF132
 17237 45ea 01       		.byte	0x1
 17238 45eb 38       		.byte	0x38
 17239 45ec 73090000 		.4byte	0x973
 17240 45f0 05       		.uleb128 0x5
 17241 45f1 03       		.byte	0x3
 17242 45f2 00000000 		.4byte	HomeY_done_Buffer
 17243 45f6 24       		.uleb128 0x24
 17244 45f7 2F000000 		.4byte	.LASF133
 17245 45fb 01       		.byte	0x1
 17246 45fc 39       		.byte	0x39
 17247 45fd 73090000 		.4byte	0x973
 17248 4601 05       		.uleb128 0x5
 17249 4602 03       		.byte	0x3
 17250 4603 00000000 		.4byte	HomeZ_done_Buffer
 17251 4607 24       		.uleb128 0x24
 17252 4608 570B0000 		.4byte	.LASF134
 17253 460c 01       		.byte	0x1
 17254 460d 3A       		.byte	0x3a
 17255 460e 73090000 		.4byte	0x973
 17256 4612 05       		.uleb128 0x5
 17257 4613 03       		.byte	0x3
ARM GAS  C:\Users\Revanth\AppData\Local\Temp\ccbqjHa5.s 			page 366


 17258 4614 00000000 		.4byte	HomeT_done_Buffer
 17259 4618 24       		.uleb128 0x24
 17260 4619 CB0B0000 		.4byte	.LASF135
 17261 461d 01       		.byte	0x1
 17262 461e 3D       		.byte	0x3d
 17263 461f 89000000 		.4byte	0x89
 17264 4623 05       		.uleb128 0x5
 17265 4624 03       		.byte	0x3
 17266 4625 00000000 		.4byte	PWM_Condenser_comare_value
 17267 4629 24       		.uleb128 0x24
 17268 462a FB0B0000 		.4byte	.LASF136
 17269 462e 01       		.byte	0x1
 17270 462f 3E       		.byte	0x3e
 17271 4630 89000000 		.4byte	0x89
 17272 4634 05       		.uleb128 0x5
 17273 4635 03       		.byte	0x3
 17274 4636 00000000 		.4byte	PWM_barcode_comare_value
 17275 463a 25       		.uleb128 0x25
 17276 463b A3020000 		.4byte	.LASF137
 17277 463f 01       		.byte	0x1
 17278 4640 41       		.byte	0x41
 17279 4641 97000000 		.4byte	0x97
 17280 4645 25       		.uleb128 0x25
 17281 4646 AC020000 		.4byte	.LASF138
 17282 464a 01       		.byte	0x1
 17283 464b 42       		.byte	0x42
 17284 464c 97000000 		.4byte	0x97
 17285 4650 25       		.uleb128 0x25
 17286 4651 B5020000 		.4byte	.LASF139
 17287 4655 01       		.byte	0x1
 17288 4656 43       		.byte	0x43
 17289 4657 97000000 		.4byte	0x97
 17290 465b 24       		.uleb128 0x24
 17291 465c 21030000 		.4byte	.LASF140
 17292 4660 01       		.byte	0x1
 17293 4661 47       		.byte	0x47
 17294 4662 A2000000 		.4byte	0xa2
 17295 4666 05       		.uleb128 0x5
 17296 4667 03       		.byte	0x3
 17297 4668 00000000 		.4byte	ms_count
 17298 466c 24       		.uleb128 0x24
 17299 466d 1F0C0000 		.4byte	.LASF141
 17300 4671 01       		.byte	0x1
 17301 4672 48       		.byte	0x48
 17302 4673 73090000 		.4byte	0x973
 17303 4677 05       		.uleb128 0x5
 17304 4678 03       		.byte	0x3
 17305 4679 00000000 		.4byte	exit_loop
 17306 467d 26       		.uleb128 0x26
 17307 467e D20A0000 		.4byte	.LASF142
 17308 4682 D20A0000 		.4byte	.LASF142
 17309 4686 07       		.byte	0x7
 17310 4687 92       		.byte	0x92
 17311 4688 26       		.uleb128 0x26
 17312 4689 65020000 		.4byte	.LASF143
 17313 468d 65020000 		.4byte	.LASF143
 17314 4691 07       		.byte	0x7
ARM GAS  C:\Users\Revanth\AppData\Local\Temp\ccbqjHa5.s 			page 367


 17315 4692 C3       		.byte	0xc3
 17316 4693 26       		.uleb128 0x26
 17317 4694 FE000000 		.4byte	.LASF144
 17318 4698 FE000000 		.4byte	.LASF144
 17319 469c 08       		.byte	0x8
 17320 469d 92       		.byte	0x92
 17321 469e 26       		.uleb128 0x26
 17322 469f 5F000000 		.4byte	.LASF145
 17323 46a3 5F000000 		.4byte	.LASF145
 17324 46a7 08       		.byte	0x8
 17325 46a8 C3       		.byte	0xc3
 17326 46a9 26       		.uleb128 0x26
 17327 46aa 70090000 		.4byte	.LASF146
 17328 46ae 70090000 		.4byte	.LASF146
 17329 46b2 09       		.byte	0x9
 17330 46b3 92       		.byte	0x92
 17331 46b4 26       		.uleb128 0x26
 17332 46b5 F7050000 		.4byte	.LASF147
 17333 46b9 F7050000 		.4byte	.LASF147
 17334 46bd 09       		.byte	0x9
 17335 46be C3       		.byte	0xc3
 17336 46bf 26       		.uleb128 0x26
 17337 46c0 2F070000 		.4byte	.LASF148
 17338 46c4 2F070000 		.4byte	.LASF148
 17339 46c8 0A       		.byte	0xa
 17340 46c9 76       		.byte	0x76
 17341 46ca 26       		.uleb128 0x26
 17342 46cb 810B0000 		.4byte	.LASF149
 17343 46cf 810B0000 		.4byte	.LASF149
 17344 46d3 0B       		.byte	0xb
 17345 46d4 26       		.byte	0x26
 17346 46d5 26       		.uleb128 0x26
 17347 46d6 C7060000 		.4byte	.LASF150
 17348 46da C7060000 		.4byte	.LASF150
 17349 46de 0C       		.byte	0xc
 17350 46df 4F       		.byte	0x4f
 17351 46e0 26       		.uleb128 0x26
 17352 46e1 040A0000 		.4byte	.LASF151
 17353 46e5 040A0000 		.4byte	.LASF151
 17354 46e9 0D       		.byte	0xd
 17355 46ea 2F       		.byte	0x2f
 17356 46eb 26       		.uleb128 0x26
 17357 46ec 02050000 		.4byte	.LASF152
 17358 46f0 02050000 		.4byte	.LASF152
 17359 46f4 0C       		.byte	0xc
 17360 46f5 48       		.byte	0x48
 17361 46f6 26       		.uleb128 0x26
 17362 46f7 41010000 		.4byte	.LASF153
 17363 46fb 41010000 		.4byte	.LASF153
 17364 46ff 0E       		.byte	0xe
 17365 4700 48       		.byte	0x48
 17366 4701 26       		.uleb128 0x26
 17367 4702 86070000 		.4byte	.LASF154
 17368 4706 86070000 		.4byte	.LASF154
 17369 470a 0F       		.byte	0xf
 17370 470b 48       		.byte	0x48
 17371 470c 26       		.uleb128 0x26
ARM GAS  C:\Users\Revanth\AppData\Local\Temp\ccbqjHa5.s 			page 368


 17372 470d EE090000 		.4byte	.LASF155
 17373 4711 EE090000 		.4byte	.LASF155
 17374 4715 0C       		.byte	0xc
 17375 4716 4E       		.byte	0x4e
 17376 4717 26       		.uleb128 0x26
 17377 4718 AF090000 		.4byte	.LASF156
 17378 471c AF090000 		.4byte	.LASF156
 17379 4720 0F       		.byte	0xf
 17380 4721 4E       		.byte	0x4e
 17381 4722 26       		.uleb128 0x26
 17382 4723 E7010000 		.4byte	.LASF157
 17383 4727 E7010000 		.4byte	.LASF157
 17384 472b 0E       		.byte	0xe
 17385 472c 4E       		.byte	0x4e
 17386 472d 26       		.uleb128 0x26
 17387 472e BF050000 		.4byte	.LASF158
 17388 4732 BF050000 		.4byte	.LASF158
 17389 4736 10       		.byte	0x10
 17390 4737 2B       		.byte	0x2b
 17391 4738 26       		.uleb128 0x26
 17392 4739 5E080000 		.4byte	.LASF159
 17393 473d 5E080000 		.4byte	.LASF159
 17394 4741 11       		.byte	0x11
 17395 4742 23       		.byte	0x23
 17396 4743 26       		.uleb128 0x26
 17397 4744 93050000 		.4byte	.LASF160
 17398 4748 93050000 		.4byte	.LASF160
 17399 474c 12       		.byte	0x12
 17400 474d 8B       		.byte	0x8b
 17401 474e 26       		.uleb128 0x26
 17402 474f 66090000 		.4byte	.LASF161
 17403 4753 66090000 		.4byte	.LASF161
 17404 4757 0A       		.byte	0xa
 17405 4758 77       		.byte	0x77
 17406 4759 26       		.uleb128 0x26
 17407 475a 9F000000 		.4byte	.LASF162
 17408 475e 9F000000 		.4byte	.LASF162
 17409 4762 11       		.byte	0x11
 17410 4763 24       		.byte	0x24
 17411 4764 26       		.uleb128 0x26
 17412 4765 12080000 		.4byte	.LASF163
 17413 4769 12080000 		.4byte	.LASF163
 17414 476d 10       		.byte	0x10
 17415 476e 23       		.byte	0x23
 17416 476f 27       		.uleb128 0x27
 17417 4770 3C050000 		.4byte	.LASF164
 17418 4774 3C050000 		.4byte	.LASF164
 17419 4778 13       		.byte	0x13
 17420 4779 2E01     		.2byte	0x12e
 17421 477b 27       		.uleb128 0x27
 17422 477c D5070000 		.4byte	.LASF165
 17423 4780 D5070000 		.4byte	.LASF165
 17424 4784 13       		.byte	0x13
 17425 4785 3101     		.2byte	0x131
 17426 4787 26       		.uleb128 0x26
 17427 4788 0B030000 		.4byte	.LASF166
 17428 478c 0B030000 		.4byte	.LASF166
ARM GAS  C:\Users\Revanth\AppData\Local\Temp\ccbqjHa5.s 			page 369


 17429 4790 10       		.byte	0x10
 17430 4791 22       		.byte	0x22
 17431 4792 27       		.uleb128 0x27
 17432 4793 7F080000 		.4byte	.LASF167
 17433 4797 7F080000 		.4byte	.LASF167
 17434 479b 13       		.byte	0x13
 17435 479c 4301     		.2byte	0x143
 17436 479e 26       		.uleb128 0x26
 17437 479f 41000000 		.4byte	.LASF168
 17438 47a3 41000000 		.4byte	.LASF168
 17439 47a7 14       		.byte	0x14
 17440 47a8 E7       		.byte	0xe7
 17441 47a9 27       		.uleb128 0x27
 17442 47aa BE020000 		.4byte	.LASF169
 17443 47ae BE020000 		.4byte	.LASF169
 17444 47b2 13       		.byte	0x13
 17445 47b3 3201     		.2byte	0x132
 17446 47b5 26       		.uleb128 0x26
 17447 47b6 6D010000 		.4byte	.LASF170
 17448 47ba 6D010000 		.4byte	.LASF170
 17449 47be 0A       		.byte	0xa
 17450 47bf 7B       		.byte	0x7b
 17451 47c0 26       		.uleb128 0x26
 17452 47c1 01040000 		.4byte	.LASF171
 17453 47c5 01040000 		.4byte	.LASF171
 17454 47c9 15       		.byte	0x15
 17455 47ca 5E       		.byte	0x5e
 17456 47cb 26       		.uleb128 0x26
 17457 47cc 970A0000 		.4byte	.LASF172
 17458 47d0 970A0000 		.4byte	.LASF172
 17459 47d4 16       		.byte	0x16
 17460 47d5 26       		.byte	0x26
 17461 47d6 26       		.uleb128 0x26
 17462 47d7 AA0A0000 		.4byte	.LASF173
 17463 47db AA0A0000 		.4byte	.LASF173
 17464 47df 17       		.byte	0x17
 17465 47e0 26       		.byte	0x26
 17466 47e1 26       		.uleb128 0x26
 17467 47e2 BC040000 		.4byte	.LASF174
 17468 47e6 BC040000 		.4byte	.LASF174
 17469 47ea 18       		.byte	0x18
 17470 47eb 26       		.byte	0x26
 17471 47ec 26       		.uleb128 0x26
 17472 47ed 290C0000 		.4byte	.LASF175
 17473 47f1 290C0000 		.4byte	.LASF175
 17474 47f5 19       		.byte	0x19
 17475 47f6 26       		.byte	0x26
 17476 47f7 26       		.uleb128 0x26
 17477 47f8 3F030000 		.4byte	.LASF176
 17478 47fc 3F030000 		.4byte	.LASF176
 17479 4800 1A       		.byte	0x1a
 17480 4801 26       		.byte	0x26
 17481 4802 26       		.uleb128 0x26
 17482 4803 EA070000 		.4byte	.LASF177
 17483 4807 EA070000 		.4byte	.LASF177
 17484 480b 15       		.byte	0x15
 17485 480c 60       		.byte	0x60
ARM GAS  C:\Users\Revanth\AppData\Local\Temp\ccbqjHa5.s 			page 370


 17486 480d 26       		.uleb128 0x26
 17487 480e DD060000 		.4byte	.LASF178
 17488 4812 DD060000 		.4byte	.LASF178
 17489 4816 1B       		.byte	0x1b
 17490 4817 26       		.byte	0x26
 17491 4818 26       		.uleb128 0x26
 17492 4819 24000000 		.4byte	.LASF179
 17493 481d 24000000 		.4byte	.LASF179
 17494 4821 1C       		.byte	0x1c
 17495 4822 26       		.byte	0x26
 17496 4823 26       		.uleb128 0x26
 17497 4824 97040000 		.4byte	.LASF180
 17498 4828 97040000 		.4byte	.LASF180
 17499 482c 1D       		.byte	0x1d
 17500 482d 26       		.byte	0x26
 17501 482e 26       		.uleb128 0x26
 17502 482f 1E070000 		.4byte	.LASF181
 17503 4833 1E070000 		.4byte	.LASF181
 17504 4837 1E       		.byte	0x1e
 17505 4838 5A       		.byte	0x5a
 17506 4839 26       		.uleb128 0x26
 17507 483a 00000000 		.4byte	.LASF182
 17508 483e 00000000 		.4byte	.LASF182
 17509 4842 1F       		.byte	0x1f
 17510 4843 18       		.byte	0x18
 17511 4844 26       		.uleb128 0x26
 17512 4845 88010000 		.4byte	.LASF183
 17513 4849 88010000 		.4byte	.LASF183
 17514 484d 1E       		.byte	0x1e
 17515 484e 5B       		.byte	0x5b
 17516 484f 26       		.uleb128 0x26
 17517 4850 70060000 		.4byte	.LASF184
 17518 4854 70060000 		.4byte	.LASF184
 17519 4858 0F       		.byte	0xf
 17520 4859 4F       		.byte	0x4f
 17521 485a 26       		.uleb128 0x26
 17522 485b BD0A0000 		.4byte	.LASF185
 17523 485f BD0A0000 		.4byte	.LASF185
 17524 4863 0E       		.byte	0xe
 17525 4864 4F       		.byte	0x4f
 17526 4865 26       		.uleb128 0x26
 17527 4866 BA030000 		.4byte	.LASF186
 17528 486a BA030000 		.4byte	.LASF186
 17529 486e 20       		.byte	0x20
 17530 486f 26       		.byte	0x26
 17531 4870 26       		.uleb128 0x26
 17532 4871 D7000000 		.4byte	.LASF187
 17533 4875 D7000000 		.4byte	.LASF187
 17534 4879 21       		.byte	0x21
 17535 487a 26       		.byte	0x26
 17536 487b 26       		.uleb128 0x26
 17537 487c BF000000 		.4byte	.LASF188
 17538 4880 BF000000 		.4byte	.LASF188
 17539 4884 22       		.byte	0x22
 17540 4885 26       		.byte	0x26
 17541 4886 26       		.uleb128 0x26
 17542 4887 A7000000 		.4byte	.LASF189
ARM GAS  C:\Users\Revanth\AppData\Local\Temp\ccbqjHa5.s 			page 371


 17543 488b A7000000 		.4byte	.LASF189
 17544 488f 23       		.byte	0x23
 17545 4890 26       		.byte	0x26
 17546 4891 00       		.byte	0
 17547              		.section	.debug_abbrev,"",%progbits
 17548              	.Ldebug_abbrev0:
 17549 0000 01       		.uleb128 0x1
 17550 0001 11       		.uleb128 0x11
 17551 0002 01       		.byte	0x1
 17552 0003 25       		.uleb128 0x25
 17553 0004 0E       		.uleb128 0xe
 17554 0005 13       		.uleb128 0x13
 17555 0006 0B       		.uleb128 0xb
 17556 0007 03       		.uleb128 0x3
 17557 0008 0E       		.uleb128 0xe
 17558 0009 1B       		.uleb128 0x1b
 17559 000a 0E       		.uleb128 0xe
 17560 000b 55       		.uleb128 0x55
 17561 000c 17       		.uleb128 0x17
 17562 000d 11       		.uleb128 0x11
 17563 000e 01       		.uleb128 0x1
 17564 000f 10       		.uleb128 0x10
 17565 0010 17       		.uleb128 0x17
 17566 0011 00       		.byte	0
 17567 0012 00       		.byte	0
 17568 0013 02       		.uleb128 0x2
 17569 0014 24       		.uleb128 0x24
 17570 0015 00       		.byte	0
 17571 0016 0B       		.uleb128 0xb
 17572 0017 0B       		.uleb128 0xb
 17573 0018 3E       		.uleb128 0x3e
 17574 0019 0B       		.uleb128 0xb
 17575 001a 03       		.uleb128 0x3
 17576 001b 0E       		.uleb128 0xe
 17577 001c 00       		.byte	0
 17578 001d 00       		.byte	0
 17579 001e 03       		.uleb128 0x3
 17580 001f 16       		.uleb128 0x16
 17581 0020 00       		.byte	0
 17582 0021 03       		.uleb128 0x3
 17583 0022 0E       		.uleb128 0xe
 17584 0023 3A       		.uleb128 0x3a
 17585 0024 0B       		.uleb128 0xb
 17586 0025 3B       		.uleb128 0x3b
 17587 0026 0B       		.uleb128 0xb
 17588 0027 49       		.uleb128 0x49
 17589 0028 13       		.uleb128 0x13
 17590 0029 00       		.byte	0
 17591 002a 00       		.byte	0
 17592 002b 04       		.uleb128 0x4
 17593 002c 24       		.uleb128 0x24
 17594 002d 00       		.byte	0
 17595 002e 0B       		.uleb128 0xb
 17596 002f 0B       		.uleb128 0xb
 17597 0030 3E       		.uleb128 0x3e
 17598 0031 0B       		.uleb128 0xb
 17599 0032 03       		.uleb128 0x3
ARM GAS  C:\Users\Revanth\AppData\Local\Temp\ccbqjHa5.s 			page 372


 17600 0033 08       		.uleb128 0x8
 17601 0034 00       		.byte	0
 17602 0035 00       		.byte	0
 17603 0036 05       		.uleb128 0x5
 17604 0037 0F       		.uleb128 0xf
 17605 0038 00       		.byte	0
 17606 0039 0B       		.uleb128 0xb
 17607 003a 0B       		.uleb128 0xb
 17608 003b 49       		.uleb128 0x49
 17609 003c 13       		.uleb128 0x13
 17610 003d 00       		.byte	0
 17611 003e 00       		.byte	0
 17612 003f 06       		.uleb128 0x6
 17613 0040 16       		.uleb128 0x16
 17614 0041 00       		.byte	0
 17615 0042 03       		.uleb128 0x3
 17616 0043 0E       		.uleb128 0xe
 17617 0044 3A       		.uleb128 0x3a
 17618 0045 0B       		.uleb128 0xb
 17619 0046 3B       		.uleb128 0x3b
 17620 0047 05       		.uleb128 0x5
 17621 0048 49       		.uleb128 0x49
 17622 0049 13       		.uleb128 0x13
 17623 004a 00       		.byte	0
 17624 004b 00       		.byte	0
 17625 004c 07       		.uleb128 0x7
 17626 004d 2E       		.uleb128 0x2e
 17627 004e 00       		.byte	0
 17628 004f 3F       		.uleb128 0x3f
 17629 0050 19       		.uleb128 0x19
 17630 0051 03       		.uleb128 0x3
 17631 0052 0E       		.uleb128 0xe
 17632 0053 3A       		.uleb128 0x3a
 17633 0054 0B       		.uleb128 0xb
 17634 0055 3B       		.uleb128 0x3b
 17635 0056 0B       		.uleb128 0xb
 17636 0057 27       		.uleb128 0x27
 17637 0058 19       		.uleb128 0x19
 17638 0059 11       		.uleb128 0x11
 17639 005a 01       		.uleb128 0x1
 17640 005b 12       		.uleb128 0x12
 17641 005c 06       		.uleb128 0x6
 17642 005d 40       		.uleb128 0x40
 17643 005e 18       		.uleb128 0x18
 17644 005f 9742     		.uleb128 0x2117
 17645 0061 19       		.uleb128 0x19
 17646 0062 00       		.byte	0
 17647 0063 00       		.byte	0
 17648 0064 08       		.uleb128 0x8
 17649 0065 2E       		.uleb128 0x2e
 17650 0066 01       		.byte	0x1
 17651 0067 3F       		.uleb128 0x3f
 17652 0068 19       		.uleb128 0x19
 17653 0069 03       		.uleb128 0x3
 17654 006a 0E       		.uleb128 0xe
 17655 006b 3A       		.uleb128 0x3a
 17656 006c 0B       		.uleb128 0xb
ARM GAS  C:\Users\Revanth\AppData\Local\Temp\ccbqjHa5.s 			page 373


 17657 006d 3B       		.uleb128 0x3b
 17658 006e 05       		.uleb128 0x5
 17659 006f 11       		.uleb128 0x11
 17660 0070 01       		.uleb128 0x1
 17661 0071 12       		.uleb128 0x12
 17662 0072 06       		.uleb128 0x6
 17663 0073 40       		.uleb128 0x40
 17664 0074 18       		.uleb128 0x18
 17665 0075 9742     		.uleb128 0x2117
 17666 0077 19       		.uleb128 0x19
 17667 0078 01       		.uleb128 0x1
 17668 0079 13       		.uleb128 0x13
 17669 007a 00       		.byte	0
 17670 007b 00       		.byte	0
 17671 007c 09       		.uleb128 0x9
 17672 007d 898201   		.uleb128 0x4109
 17673 0080 00       		.byte	0
 17674 0081 11       		.uleb128 0x11
 17675 0082 01       		.uleb128 0x1
 17676 0083 31       		.uleb128 0x31
 17677 0084 13       		.uleb128 0x13
 17678 0085 00       		.byte	0
 17679 0086 00       		.byte	0
 17680 0087 0A       		.uleb128 0xa
 17681 0088 898201   		.uleb128 0x4109
 17682 008b 01       		.byte	0x1
 17683 008c 11       		.uleb128 0x11
 17684 008d 01       		.uleb128 0x1
 17685 008e 31       		.uleb128 0x31
 17686 008f 13       		.uleb128 0x13
 17687 0090 01       		.uleb128 0x1
 17688 0091 13       		.uleb128 0x13
 17689 0092 00       		.byte	0
 17690 0093 00       		.byte	0
 17691 0094 0B       		.uleb128 0xb
 17692 0095 8A8201   		.uleb128 0x410a
 17693 0098 00       		.byte	0
 17694 0099 02       		.uleb128 0x2
 17695 009a 18       		.uleb128 0x18
 17696 009b 9142     		.uleb128 0x2111
 17697 009d 18       		.uleb128 0x18
 17698 009e 00       		.byte	0
 17699 009f 00       		.byte	0
 17700 00a0 0C       		.uleb128 0xc
 17701 00a1 898201   		.uleb128 0x4109
 17702 00a4 01       		.byte	0x1
 17703 00a5 11       		.uleb128 0x11
 17704 00a6 01       		.uleb128 0x1
 17705 00a7 31       		.uleb128 0x31
 17706 00a8 13       		.uleb128 0x13
 17707 00a9 00       		.byte	0
 17708 00aa 00       		.byte	0
 17709 00ab 0D       		.uleb128 0xd
 17710 00ac 2E       		.uleb128 0x2e
 17711 00ad 01       		.byte	0x1
 17712 00ae 3F       		.uleb128 0x3f
 17713 00af 19       		.uleb128 0x19
ARM GAS  C:\Users\Revanth\AppData\Local\Temp\ccbqjHa5.s 			page 374


 17714 00b0 03       		.uleb128 0x3
 17715 00b1 0E       		.uleb128 0xe
 17716 00b2 3A       		.uleb128 0x3a
 17717 00b3 0B       		.uleb128 0xb
 17718 00b4 3B       		.uleb128 0x3b
 17719 00b5 05       		.uleb128 0x5
 17720 00b6 27       		.uleb128 0x27
 17721 00b7 19       		.uleb128 0x19
 17722 00b8 11       		.uleb128 0x11
 17723 00b9 01       		.uleb128 0x1
 17724 00ba 12       		.uleb128 0x12
 17725 00bb 06       		.uleb128 0x6
 17726 00bc 40       		.uleb128 0x40
 17727 00bd 18       		.uleb128 0x18
 17728 00be 9742     		.uleb128 0x2117
 17729 00c0 19       		.uleb128 0x19
 17730 00c1 01       		.uleb128 0x1
 17731 00c2 13       		.uleb128 0x13
 17732 00c3 00       		.byte	0
 17733 00c4 00       		.byte	0
 17734 00c5 0E       		.uleb128 0xe
 17735 00c6 05       		.uleb128 0x5
 17736 00c7 00       		.byte	0
 17737 00c8 03       		.uleb128 0x3
 17738 00c9 0E       		.uleb128 0xe
 17739 00ca 3A       		.uleb128 0x3a
 17740 00cb 0B       		.uleb128 0xb
 17741 00cc 3B       		.uleb128 0x3b
 17742 00cd 05       		.uleb128 0x5
 17743 00ce 49       		.uleb128 0x49
 17744 00cf 13       		.uleb128 0x13
 17745 00d0 02       		.uleb128 0x2
 17746 00d1 17       		.uleb128 0x17
 17747 00d2 00       		.byte	0
 17748 00d3 00       		.byte	0
 17749 00d4 0F       		.uleb128 0xf
 17750 00d5 2E       		.uleb128 0x2e
 17751 00d6 00       		.byte	0
 17752 00d7 3F       		.uleb128 0x3f
 17753 00d8 19       		.uleb128 0x19
 17754 00d9 03       		.uleb128 0x3
 17755 00da 0E       		.uleb128 0xe
 17756 00db 3A       		.uleb128 0x3a
 17757 00dc 0B       		.uleb128 0xb
 17758 00dd 3B       		.uleb128 0x3b
 17759 00de 05       		.uleb128 0x5
 17760 00df 11       		.uleb128 0x11
 17761 00e0 01       		.uleb128 0x1
 17762 00e1 12       		.uleb128 0x12
 17763 00e2 06       		.uleb128 0x6
 17764 00e3 40       		.uleb128 0x40
 17765 00e4 18       		.uleb128 0x18
 17766 00e5 9742     		.uleb128 0x2117
 17767 00e7 19       		.uleb128 0x19
 17768 00e8 00       		.byte	0
 17769 00e9 00       		.byte	0
 17770 00ea 10       		.uleb128 0x10
ARM GAS  C:\Users\Revanth\AppData\Local\Temp\ccbqjHa5.s 			page 375


 17771 00eb 34       		.uleb128 0x34
 17772 00ec 00       		.byte	0
 17773 00ed 03       		.uleb128 0x3
 17774 00ee 08       		.uleb128 0x8
 17775 00ef 3A       		.uleb128 0x3a
 17776 00f0 0B       		.uleb128 0xb
 17777 00f1 3B       		.uleb128 0x3b
 17778 00f2 05       		.uleb128 0x5
 17779 00f3 49       		.uleb128 0x49
 17780 00f4 13       		.uleb128 0x13
 17781 00f5 02       		.uleb128 0x2
 17782 00f6 17       		.uleb128 0x17
 17783 00f7 00       		.byte	0
 17784 00f8 00       		.byte	0
 17785 00f9 11       		.uleb128 0x11
 17786 00fa 34       		.uleb128 0x34
 17787 00fb 00       		.byte	0
 17788 00fc 03       		.uleb128 0x3
 17789 00fd 0E       		.uleb128 0xe
 17790 00fe 3A       		.uleb128 0x3a
 17791 00ff 0B       		.uleb128 0xb
 17792 0100 3B       		.uleb128 0x3b
 17793 0101 05       		.uleb128 0x5
 17794 0102 49       		.uleb128 0x49
 17795 0103 13       		.uleb128 0x13
 17796 0104 02       		.uleb128 0x2
 17797 0105 18       		.uleb128 0x18
 17798 0106 00       		.byte	0
 17799 0107 00       		.byte	0
 17800 0108 12       		.uleb128 0x12
 17801 0109 01       		.uleb128 0x1
 17802 010a 01       		.byte	0x1
 17803 010b 49       		.uleb128 0x49
 17804 010c 13       		.uleb128 0x13
 17805 010d 01       		.uleb128 0x1
 17806 010e 13       		.uleb128 0x13
 17807 010f 00       		.byte	0
 17808 0110 00       		.byte	0
 17809 0111 13       		.uleb128 0x13
 17810 0112 21       		.uleb128 0x21
 17811 0113 00       		.byte	0
 17812 0114 49       		.uleb128 0x49
 17813 0115 13       		.uleb128 0x13
 17814 0116 2F       		.uleb128 0x2f
 17815 0117 0B       		.uleb128 0xb
 17816 0118 00       		.byte	0
 17817 0119 00       		.byte	0
 17818 011a 14       		.uleb128 0x14
 17819 011b 05       		.uleb128 0x5
 17820 011c 00       		.byte	0
 17821 011d 03       		.uleb128 0x3
 17822 011e 08       		.uleb128 0x8
 17823 011f 3A       		.uleb128 0x3a
 17824 0120 0B       		.uleb128 0xb
 17825 0121 3B       		.uleb128 0x3b
 17826 0122 05       		.uleb128 0x5
 17827 0123 49       		.uleb128 0x49
ARM GAS  C:\Users\Revanth\AppData\Local\Temp\ccbqjHa5.s 			page 376


 17828 0124 13       		.uleb128 0x13
 17829 0125 02       		.uleb128 0x2
 17830 0126 17       		.uleb128 0x17
 17831 0127 00       		.byte	0
 17832 0128 00       		.byte	0
 17833 0129 15       		.uleb128 0x15
 17834 012a 0B       		.uleb128 0xb
 17835 012b 01       		.byte	0x1
 17836 012c 11       		.uleb128 0x11
 17837 012d 01       		.uleb128 0x1
 17838 012e 12       		.uleb128 0x12
 17839 012f 06       		.uleb128 0x6
 17840 0130 00       		.byte	0
 17841 0131 00       		.byte	0
 17842 0132 16       		.uleb128 0x16
 17843 0133 2E       		.uleb128 0x2e
 17844 0134 01       		.byte	0x1
 17845 0135 3F       		.uleb128 0x3f
 17846 0136 19       		.uleb128 0x19
 17847 0137 03       		.uleb128 0x3
 17848 0138 0E       		.uleb128 0xe
 17849 0139 3A       		.uleb128 0x3a
 17850 013a 0B       		.uleb128 0xb
 17851 013b 3B       		.uleb128 0x3b
 17852 013c 05       		.uleb128 0x5
 17853 013d 49       		.uleb128 0x49
 17854 013e 13       		.uleb128 0x13
 17855 013f 11       		.uleb128 0x11
 17856 0140 01       		.uleb128 0x1
 17857 0141 12       		.uleb128 0x12
 17858 0142 06       		.uleb128 0x6
 17859 0143 40       		.uleb128 0x40
 17860 0144 18       		.uleb128 0x18
 17861 0145 9742     		.uleb128 0x2117
 17862 0147 19       		.uleb128 0x19
 17863 0148 01       		.uleb128 0x1
 17864 0149 13       		.uleb128 0x13
 17865 014a 00       		.byte	0
 17866 014b 00       		.byte	0
 17867 014c 17       		.uleb128 0x17
 17868 014d 2E       		.uleb128 0x2e
 17869 014e 01       		.byte	0x1
 17870 014f 3F       		.uleb128 0x3f
 17871 0150 19       		.uleb128 0x19
 17872 0151 03       		.uleb128 0x3
 17873 0152 0E       		.uleb128 0xe
 17874 0153 3A       		.uleb128 0x3a
 17875 0154 0B       		.uleb128 0xb
 17876 0155 3B       		.uleb128 0x3b
 17877 0156 05       		.uleb128 0x5
 17878 0157 27       		.uleb128 0x27
 17879 0158 19       		.uleb128 0x19
 17880 0159 11       		.uleb128 0x11
 17881 015a 01       		.uleb128 0x1
 17882 015b 12       		.uleb128 0x12
 17883 015c 06       		.uleb128 0x6
 17884 015d 40       		.uleb128 0x40
ARM GAS  C:\Users\Revanth\AppData\Local\Temp\ccbqjHa5.s 			page 377


 17885 015e 18       		.uleb128 0x18
 17886 015f 9642     		.uleb128 0x2116
 17887 0161 19       		.uleb128 0x19
 17888 0162 01       		.uleb128 0x1
 17889 0163 13       		.uleb128 0x13
 17890 0164 00       		.byte	0
 17891 0165 00       		.byte	0
 17892 0166 18       		.uleb128 0x18
 17893 0167 2E       		.uleb128 0x2e
 17894 0168 01       		.byte	0x1
 17895 0169 3F       		.uleb128 0x3f
 17896 016a 19       		.uleb128 0x19
 17897 016b 03       		.uleb128 0x3
 17898 016c 0E       		.uleb128 0xe
 17899 016d 3A       		.uleb128 0x3a
 17900 016e 0B       		.uleb128 0xb
 17901 016f 3B       		.uleb128 0x3b
 17902 0170 05       		.uleb128 0x5
 17903 0171 49       		.uleb128 0x49
 17904 0172 13       		.uleb128 0x13
 17905 0173 11       		.uleb128 0x11
 17906 0174 01       		.uleb128 0x1
 17907 0175 12       		.uleb128 0x12
 17908 0176 06       		.uleb128 0x6
 17909 0177 40       		.uleb128 0x40
 17910 0178 18       		.uleb128 0x18
 17911 0179 9642     		.uleb128 0x2116
 17912 017b 19       		.uleb128 0x19
 17913 017c 01       		.uleb128 0x1
 17914 017d 13       		.uleb128 0x13
 17915 017e 00       		.byte	0
 17916 017f 00       		.byte	0
 17917 0180 19       		.uleb128 0x19
 17918 0181 2E       		.uleb128 0x2e
 17919 0182 01       		.byte	0x1
 17920 0183 3F       		.uleb128 0x3f
 17921 0184 19       		.uleb128 0x19
 17922 0185 03       		.uleb128 0x3
 17923 0186 0E       		.uleb128 0xe
 17924 0187 3A       		.uleb128 0x3a
 17925 0188 0B       		.uleb128 0xb
 17926 0189 3B       		.uleb128 0x3b
 17927 018a 05       		.uleb128 0x5
 17928 018b 27       		.uleb128 0x27
 17929 018c 19       		.uleb128 0x19
 17930 018d 49       		.uleb128 0x49
 17931 018e 13       		.uleb128 0x13
 17932 018f 11       		.uleb128 0x11
 17933 0190 01       		.uleb128 0x1
 17934 0191 12       		.uleb128 0x12
 17935 0192 06       		.uleb128 0x6
 17936 0193 40       		.uleb128 0x40
 17937 0194 18       		.uleb128 0x18
 17938 0195 9742     		.uleb128 0x2117
 17939 0197 19       		.uleb128 0x19
 17940 0198 01       		.uleb128 0x1
 17941 0199 13       		.uleb128 0x13
ARM GAS  C:\Users\Revanth\AppData\Local\Temp\ccbqjHa5.s 			page 378


 17942 019a 00       		.byte	0
 17943 019b 00       		.byte	0
 17944 019c 1A       		.uleb128 0x1a
 17945 019d 34       		.uleb128 0x34
 17946 019e 00       		.byte	0
 17947 019f 03       		.uleb128 0x3
 17948 01a0 0E       		.uleb128 0xe
 17949 01a1 3A       		.uleb128 0x3a
 17950 01a2 0B       		.uleb128 0xb
 17951 01a3 3B       		.uleb128 0x3b
 17952 01a4 05       		.uleb128 0x5
 17953 01a5 49       		.uleb128 0x49
 17954 01a6 13       		.uleb128 0x13
 17955 01a7 02       		.uleb128 0x2
 17956 01a8 17       		.uleb128 0x17
 17957 01a9 00       		.byte	0
 17958 01aa 00       		.byte	0
 17959 01ab 1B       		.uleb128 0x1b
 17960 01ac 2E       		.uleb128 0x2e
 17961 01ad 01       		.byte	0x1
 17962 01ae 3F       		.uleb128 0x3f
 17963 01af 19       		.uleb128 0x19
 17964 01b0 03       		.uleb128 0x3
 17965 01b1 0E       		.uleb128 0xe
 17966 01b2 3A       		.uleb128 0x3a
 17967 01b3 0B       		.uleb128 0xb
 17968 01b4 3B       		.uleb128 0x3b
 17969 01b5 0B       		.uleb128 0xb
 17970 01b6 27       		.uleb128 0x27
 17971 01b7 19       		.uleb128 0x19
 17972 01b8 11       		.uleb128 0x11
 17973 01b9 01       		.uleb128 0x1
 17974 01ba 12       		.uleb128 0x12
 17975 01bb 06       		.uleb128 0x6
 17976 01bc 40       		.uleb128 0x40
 17977 01bd 18       		.uleb128 0x18
 17978 01be 9742     		.uleb128 0x2117
 17979 01c0 19       		.uleb128 0x19
 17980 01c1 01       		.uleb128 0x1
 17981 01c2 13       		.uleb128 0x13
 17982 01c3 00       		.byte	0
 17983 01c4 00       		.byte	0
 17984 01c5 1C       		.uleb128 0x1c
 17985 01c6 05       		.uleb128 0x5
 17986 01c7 00       		.byte	0
 17987 01c8 03       		.uleb128 0x3
 17988 01c9 08       		.uleb128 0x8
 17989 01ca 3A       		.uleb128 0x3a
 17990 01cb 0B       		.uleb128 0xb
 17991 01cc 3B       		.uleb128 0x3b
 17992 01cd 0B       		.uleb128 0xb
 17993 01ce 49       		.uleb128 0x49
 17994 01cf 13       		.uleb128 0x13
 17995 01d0 02       		.uleb128 0x2
 17996 01d1 17       		.uleb128 0x17
 17997 01d2 00       		.byte	0
 17998 01d3 00       		.byte	0
ARM GAS  C:\Users\Revanth\AppData\Local\Temp\ccbqjHa5.s 			page 379


 17999 01d4 1D       		.uleb128 0x1d
 18000 01d5 05       		.uleb128 0x5
 18001 01d6 00       		.byte	0
 18002 01d7 03       		.uleb128 0x3
 18003 01d8 0E       		.uleb128 0xe
 18004 01d9 3A       		.uleb128 0x3a
 18005 01da 0B       		.uleb128 0xb
 18006 01db 3B       		.uleb128 0x3b
 18007 01dc 0B       		.uleb128 0xb
 18008 01dd 49       		.uleb128 0x49
 18009 01de 13       		.uleb128 0x13
 18010 01df 02       		.uleb128 0x2
 18011 01e0 17       		.uleb128 0x17
 18012 01e1 00       		.byte	0
 18013 01e2 00       		.byte	0
 18014 01e3 1E       		.uleb128 0x1e
 18015 01e4 34       		.uleb128 0x34
 18016 01e5 00       		.byte	0
 18017 01e6 03       		.uleb128 0x3
 18018 01e7 0E       		.uleb128 0xe
 18019 01e8 3A       		.uleb128 0x3a
 18020 01e9 0B       		.uleb128 0xb
 18021 01ea 3B       		.uleb128 0x3b
 18022 01eb 05       		.uleb128 0x5
 18023 01ec 49       		.uleb128 0x49
 18024 01ed 13       		.uleb128 0x13
 18025 01ee 1C       		.uleb128 0x1c
 18026 01ef 0B       		.uleb128 0xb
 18027 01f0 00       		.byte	0
 18028 01f1 00       		.byte	0
 18029 01f2 1F       		.uleb128 0x1f
 18030 01f3 2E       		.uleb128 0x2e
 18031 01f4 01       		.byte	0x1
 18032 01f5 3F       		.uleb128 0x3f
 18033 01f6 19       		.uleb128 0x19
 18034 01f7 03       		.uleb128 0x3
 18035 01f8 0E       		.uleb128 0xe
 18036 01f9 3A       		.uleb128 0x3a
 18037 01fa 0B       		.uleb128 0xb
 18038 01fb 3B       		.uleb128 0x3b
 18039 01fc 05       		.uleb128 0x5
 18040 01fd 27       		.uleb128 0x27
 18041 01fe 19       		.uleb128 0x19
 18042 01ff 49       		.uleb128 0x49
 18043 0200 13       		.uleb128 0x13
 18044 0201 11       		.uleb128 0x11
 18045 0202 01       		.uleb128 0x1
 18046 0203 12       		.uleb128 0x12
 18047 0204 06       		.uleb128 0x6
 18048 0205 40       		.uleb128 0x40
 18049 0206 18       		.uleb128 0x18
 18050 0207 9642     		.uleb128 0x2116
 18051 0209 19       		.uleb128 0x19
 18052 020a 01       		.uleb128 0x1
 18053 020b 13       		.uleb128 0x13
 18054 020c 00       		.byte	0
 18055 020d 00       		.byte	0
ARM GAS  C:\Users\Revanth\AppData\Local\Temp\ccbqjHa5.s 			page 380


 18056 020e 20       		.uleb128 0x20
 18057 020f 2E       		.uleb128 0x2e
 18058 0210 01       		.byte	0x1
 18059 0211 3F       		.uleb128 0x3f
 18060 0212 19       		.uleb128 0x19
 18061 0213 03       		.uleb128 0x3
 18062 0214 0E       		.uleb128 0xe
 18063 0215 3A       		.uleb128 0x3a
 18064 0216 0B       		.uleb128 0xb
 18065 0217 3B       		.uleb128 0x3b
 18066 0218 05       		.uleb128 0x5
 18067 0219 11       		.uleb128 0x11
 18068 021a 01       		.uleb128 0x1
 18069 021b 12       		.uleb128 0x12
 18070 021c 06       		.uleb128 0x6
 18071 021d 40       		.uleb128 0x40
 18072 021e 18       		.uleb128 0x18
 18073 021f 9642     		.uleb128 0x2116
 18074 0221 19       		.uleb128 0x19
 18075 0222 01       		.uleb128 0x1
 18076 0223 13       		.uleb128 0x13
 18077 0224 00       		.byte	0
 18078 0225 00       		.byte	0
 18079 0226 21       		.uleb128 0x21
 18080 0227 0B       		.uleb128 0xb
 18081 0228 01       		.byte	0x1
 18082 0229 11       		.uleb128 0x11
 18083 022a 01       		.uleb128 0x1
 18084 022b 12       		.uleb128 0x12
 18085 022c 06       		.uleb128 0x6
 18086 022d 01       		.uleb128 0x1
 18087 022e 13       		.uleb128 0x13
 18088 022f 00       		.byte	0
 18089 0230 00       		.byte	0
 18090 0231 22       		.uleb128 0x22
 18091 0232 34       		.uleb128 0x34
 18092 0233 00       		.byte	0
 18093 0234 03       		.uleb128 0x3
 18094 0235 0E       		.uleb128 0xe
 18095 0236 3A       		.uleb128 0x3a
 18096 0237 0B       		.uleb128 0xb
 18097 0238 3B       		.uleb128 0x3b
 18098 0239 05       		.uleb128 0x5
 18099 023a 49       		.uleb128 0x49
 18100 023b 13       		.uleb128 0x13
 18101 023c 3F       		.uleb128 0x3f
 18102 023d 19       		.uleb128 0x19
 18103 023e 3C       		.uleb128 0x3c
 18104 023f 19       		.uleb128 0x19
 18105 0240 00       		.byte	0
 18106 0241 00       		.byte	0
 18107 0242 23       		.uleb128 0x23
 18108 0243 35       		.uleb128 0x35
 18109 0244 00       		.byte	0
 18110 0245 49       		.uleb128 0x49
 18111 0246 13       		.uleb128 0x13
 18112 0247 00       		.byte	0
ARM GAS  C:\Users\Revanth\AppData\Local\Temp\ccbqjHa5.s 			page 381


 18113 0248 00       		.byte	0
 18114 0249 24       		.uleb128 0x24
 18115 024a 34       		.uleb128 0x34
 18116 024b 00       		.byte	0
 18117 024c 03       		.uleb128 0x3
 18118 024d 0E       		.uleb128 0xe
 18119 024e 3A       		.uleb128 0x3a
 18120 024f 0B       		.uleb128 0xb
 18121 0250 3B       		.uleb128 0x3b
 18122 0251 0B       		.uleb128 0xb
 18123 0252 49       		.uleb128 0x49
 18124 0253 13       		.uleb128 0x13
 18125 0254 3F       		.uleb128 0x3f
 18126 0255 19       		.uleb128 0x19
 18127 0256 02       		.uleb128 0x2
 18128 0257 18       		.uleb128 0x18
 18129 0258 00       		.byte	0
 18130 0259 00       		.byte	0
 18131 025a 25       		.uleb128 0x25
 18132 025b 34       		.uleb128 0x34
 18133 025c 00       		.byte	0
 18134 025d 03       		.uleb128 0x3
 18135 025e 0E       		.uleb128 0xe
 18136 025f 3A       		.uleb128 0x3a
 18137 0260 0B       		.uleb128 0xb
 18138 0261 3B       		.uleb128 0x3b
 18139 0262 0B       		.uleb128 0xb
 18140 0263 49       		.uleb128 0x49
 18141 0264 13       		.uleb128 0x13
 18142 0265 3F       		.uleb128 0x3f
 18143 0266 19       		.uleb128 0x19
 18144 0267 3C       		.uleb128 0x3c
 18145 0268 19       		.uleb128 0x19
 18146 0269 00       		.byte	0
 18147 026a 00       		.byte	0
 18148 026b 26       		.uleb128 0x26
 18149 026c 2E       		.uleb128 0x2e
 18150 026d 00       		.byte	0
 18151 026e 3F       		.uleb128 0x3f
 18152 026f 19       		.uleb128 0x19
 18153 0270 3C       		.uleb128 0x3c
 18154 0271 19       		.uleb128 0x19
 18155 0272 6E       		.uleb128 0x6e
 18156 0273 0E       		.uleb128 0xe
 18157 0274 03       		.uleb128 0x3
 18158 0275 0E       		.uleb128 0xe
 18159 0276 3A       		.uleb128 0x3a
 18160 0277 0B       		.uleb128 0xb
 18161 0278 3B       		.uleb128 0x3b
 18162 0279 0B       		.uleb128 0xb
 18163 027a 00       		.byte	0
 18164 027b 00       		.byte	0
 18165 027c 27       		.uleb128 0x27
 18166 027d 2E       		.uleb128 0x2e
 18167 027e 00       		.byte	0
 18168 027f 3F       		.uleb128 0x3f
 18169 0280 19       		.uleb128 0x19
ARM GAS  C:\Users\Revanth\AppData\Local\Temp\ccbqjHa5.s 			page 382


 18170 0281 3C       		.uleb128 0x3c
 18171 0282 19       		.uleb128 0x19
 18172 0283 6E       		.uleb128 0x6e
 18173 0284 0E       		.uleb128 0xe
 18174 0285 03       		.uleb128 0x3
 18175 0286 0E       		.uleb128 0xe
 18176 0287 3A       		.uleb128 0x3a
 18177 0288 0B       		.uleb128 0xb
 18178 0289 3B       		.uleb128 0x3b
 18179 028a 05       		.uleb128 0x5
 18180 028b 00       		.byte	0
 18181 028c 00       		.byte	0
 18182 028d 00       		.byte	0
 18183              		.section	.debug_loc,"",%progbits
 18184              	.Ldebug_loc0:
 18185              	.LLST0:
 18186 0000 00000000 		.4byte	.LVL12
 18187 0004 05000000 		.4byte	.LVL13-1
 18188 0008 0100     		.2byte	0x1
 18189 000a 50       		.byte	0x50
 18190 000b 05000000 		.4byte	.LVL13-1
 18191 000f 08000000 		.4byte	.LFE86
 18192 0013 0400     		.2byte	0x4
 18193 0015 F3       		.byte	0xf3
 18194 0016 01       		.uleb128 0x1
 18195 0017 50       		.byte	0x50
 18196 0018 9F       		.byte	0x9f
 18197 0019 00000000 		.4byte	0
 18198 001d 00000000 		.4byte	0
 18199              	.LLST1:
 18200 0021 00000000 		.4byte	.LVL14
 18201 0025 0B000000 		.4byte	.LVL15-1
 18202 0029 0100     		.2byte	0x1
 18203 002b 50       		.byte	0x50
 18204 002c 0B000000 		.4byte	.LVL15-1
 18205 0030 18000000 		.4byte	.LFE88
 18206 0034 0400     		.2byte	0x4
 18207 0036 F3       		.byte	0xf3
 18208 0037 01       		.uleb128 0x1
 18209 0038 50       		.byte	0x50
 18210 0039 9F       		.byte	0x9f
 18211 003a 00000000 		.4byte	0
 18212 003e 00000000 		.4byte	0
 18213              	.LLST2:
 18214 0042 00000000 		.4byte	.LVL17
 18215 0046 0B000000 		.4byte	.LVL18-1
 18216 004a 0100     		.2byte	0x1
 18217 004c 50       		.byte	0x50
 18218 004d 0B000000 		.4byte	.LVL18-1
 18219 0051 18000000 		.4byte	.LFE89
 18220 0055 0400     		.2byte	0x4
 18221 0057 F3       		.byte	0xf3
 18222 0058 01       		.uleb128 0x1
 18223 0059 50       		.byte	0x50
 18224 005a 9F       		.byte	0x9f
 18225 005b 00000000 		.4byte	0
 18226 005f 00000000 		.4byte	0
ARM GAS  C:\Users\Revanth\AppData\Local\Temp\ccbqjHa5.s 			page 383


 18227              	.LLST3:
 18228 0063 00000000 		.4byte	.LVL29
 18229 0067 04000000 		.4byte	.LVL30
 18230 006b 0200     		.2byte	0x2
 18231 006d 30       		.byte	0x30
 18232 006e 9F       		.byte	0x9f
 18233 006f 04000000 		.4byte	.LVL30
 18234 0073 18000000 		.4byte	.LFE96
 18235 0077 0100     		.2byte	0x1
 18236 0079 53       		.byte	0x53
 18237 007a 00000000 		.4byte	0
 18238 007e 00000000 		.4byte	0
 18239              	.LLST4:
 18240 0082 04000000 		.4byte	.LVL32
 18241 0086 08000000 		.4byte	.LVL33
 18242 008a 0200     		.2byte	0x2
 18243 008c 30       		.byte	0x30
 18244 008d 9F       		.byte	0x9f
 18245 008e 08000000 		.4byte	.LVL33
 18246 0092 18000000 		.4byte	.LFE97
 18247 0096 0100     		.2byte	0x1
 18248 0098 54       		.byte	0x54
 18249 0099 00000000 		.4byte	0
 18250 009d 00000000 		.4byte	0
 18251              	.LLST5:
 18252 00a1 00000000 		.4byte	.LVL36
 18253 00a5 0A000000 		.4byte	.LVL37
 18254 00a9 0100     		.2byte	0x1
 18255 00ab 50       		.byte	0x50
 18256 00ac 0A000000 		.4byte	.LVL37
 18257 00b0 0D000000 		.4byte	.LVL38-1
 18258 00b4 0100     		.2byte	0x1
 18259 00b6 51       		.byte	0x51
 18260 00b7 0D000000 		.4byte	.LVL38-1
 18261 00bb 28000000 		.4byte	.LVL42
 18262 00bf 0100     		.2byte	0x1
 18263 00c1 54       		.byte	0x54
 18264 00c2 28000000 		.4byte	.LVL42
 18265 00c6 2C000000 		.4byte	.LFE98
 18266 00ca 0400     		.2byte	0x4
 18267 00cc F3       		.byte	0xf3
 18268 00cd 01       		.uleb128 0x1
 18269 00ce 50       		.byte	0x50
 18270 00cf 9F       		.byte	0x9f
 18271 00d0 00000000 		.4byte	0
 18272 00d4 00000000 		.4byte	0
 18273              	.LLST6:
 18274 00d8 00000000 		.4byte	.LVL60
 18275 00dc 07000000 		.4byte	.LVL61-1
 18276 00e0 0100     		.2byte	0x1
 18277 00e2 50       		.byte	0x50
 18278 00e3 07000000 		.4byte	.LVL61-1
 18279 00e7 22000000 		.4byte	.LVL62
 18280 00eb 0100     		.2byte	0x1
 18281 00ed 54       		.byte	0x54
 18282 00ee 22000000 		.4byte	.LVL62
 18283 00f2 E2010000 		.4byte	.LVL63
ARM GAS  C:\Users\Revanth\AppData\Local\Temp\ccbqjHa5.s 			page 384


 18284 00f6 0300     		.2byte	0x3
 18285 00f8 74       		.byte	0x74
 18286 00f9 01       		.sleb128 1
 18287 00fa 9F       		.byte	0x9f
 18288 00fb E2010000 		.4byte	.LVL63
 18289 00ff F0020000 		.4byte	.LFE92
 18290 0103 0400     		.2byte	0x4
 18291 0105 F3       		.byte	0xf3
 18292 0106 01       		.uleb128 0x1
 18293 0107 50       		.byte	0x50
 18294 0108 9F       		.byte	0x9f
 18295 0109 00000000 		.4byte	0
 18296 010d 00000000 		.4byte	0
 18297              	.LLST7:
 18298 0111 00000000 		.4byte	.LVL76
 18299 0115 0A000000 		.4byte	.LVL77
 18300 0119 0100     		.2byte	0x1
 18301 011b 50       		.byte	0x50
 18302 011c 0A000000 		.4byte	.LVL77
 18303 0120 0D000000 		.4byte	.LVL78-1
 18304 0124 0100     		.2byte	0x1
 18305 0126 52       		.byte	0x52
 18306 0127 0D000000 		.4byte	.LVL78-1
 18307 012b 24000000 		.4byte	.LFE99
 18308 012f 0400     		.2byte	0x4
 18309 0131 F3       		.byte	0xf3
 18310 0132 01       		.uleb128 0x1
 18311 0133 50       		.byte	0x50
 18312 0134 9F       		.byte	0x9f
 18313 0135 00000000 		.4byte	0
 18314 0139 00000000 		.4byte	0
 18315              	.LLST8:
 18316 013d 00000000 		.4byte	.LVL115
 18317 0141 05000000 		.4byte	.LVL116-1
 18318 0145 0100     		.2byte	0x1
 18319 0147 50       		.byte	0x50
 18320 0148 05000000 		.4byte	.LVL116-1
 18321 014c 10000000 		.4byte	.LFE101
 18322 0150 0400     		.2byte	0x4
 18323 0152 F3       		.byte	0xf3
 18324 0153 01       		.uleb128 0x1
 18325 0154 50       		.byte	0x50
 18326 0155 9F       		.byte	0x9f
 18327 0156 00000000 		.4byte	0
 18328 015a 00000000 		.4byte	0
 18329              	.LLST9:
 18330 015e 00000000 		.4byte	.LVL118
 18331 0162 1C000000 		.4byte	.LVL119
 18332 0166 0100     		.2byte	0x1
 18333 0168 50       		.byte	0x50
 18334 0169 1C000000 		.4byte	.LVL119
 18335 016d 2E000000 		.4byte	.LVL123
 18336 0171 0400     		.2byte	0x4
 18337 0173 F3       		.byte	0xf3
 18338 0174 01       		.uleb128 0x1
 18339 0175 50       		.byte	0x50
 18340 0176 9F       		.byte	0x9f
ARM GAS  C:\Users\Revanth\AppData\Local\Temp\ccbqjHa5.s 			page 385


 18341 0177 2E000000 		.4byte	.LVL123
 18342 017b 30000000 		.4byte	.LVL124
 18343 017f 0100     		.2byte	0x1
 18344 0181 50       		.byte	0x50
 18345 0182 30000000 		.4byte	.LVL124
 18346 0186 42000000 		.4byte	.LVL128
 18347 018a 0400     		.2byte	0x4
 18348 018c F3       		.byte	0xf3
 18349 018d 01       		.uleb128 0x1
 18350 018e 50       		.byte	0x50
 18351 018f 9F       		.byte	0x9f
 18352 0190 42000000 		.4byte	.LVL128
 18353 0194 44000000 		.4byte	.LVL129
 18354 0198 0100     		.2byte	0x1
 18355 019a 50       		.byte	0x50
 18356 019b 44000000 		.4byte	.LVL129
 18357 019f 56000000 		.4byte	.LVL133
 18358 01a3 0400     		.2byte	0x4
 18359 01a5 F3       		.byte	0xf3
 18360 01a6 01       		.uleb128 0x1
 18361 01a7 50       		.byte	0x50
 18362 01a8 9F       		.byte	0x9f
 18363 01a9 56000000 		.4byte	.LVL133
 18364 01ad 58000000 		.4byte	.LVL134
 18365 01b1 0100     		.2byte	0x1
 18366 01b3 50       		.byte	0x50
 18367 01b4 58000000 		.4byte	.LVL134
 18368 01b8 6A000000 		.4byte	.LVL138
 18369 01bc 0400     		.2byte	0x4
 18370 01be F3       		.byte	0xf3
 18371 01bf 01       		.uleb128 0x1
 18372 01c0 50       		.byte	0x50
 18373 01c1 9F       		.byte	0x9f
 18374 01c2 6A000000 		.4byte	.LVL138
 18375 01c6 6C000000 		.4byte	.LVL139
 18376 01ca 0100     		.2byte	0x1
 18377 01cc 50       		.byte	0x50
 18378 01cd 6C000000 		.4byte	.LVL139
 18379 01d1 7E000000 		.4byte	.LVL143
 18380 01d5 0400     		.2byte	0x4
 18381 01d7 F3       		.byte	0xf3
 18382 01d8 01       		.uleb128 0x1
 18383 01d9 50       		.byte	0x50
 18384 01da 9F       		.byte	0x9f
 18385 01db 7E000000 		.4byte	.LVL143
 18386 01df 80000000 		.4byte	.LVL144
 18387 01e3 0100     		.2byte	0x1
 18388 01e5 50       		.byte	0x50
 18389 01e6 80000000 		.4byte	.LVL144
 18390 01ea 86000000 		.4byte	.LVL146
 18391 01ee 0400     		.2byte	0x4
 18392 01f0 F3       		.byte	0xf3
 18393 01f1 01       		.uleb128 0x1
 18394 01f2 50       		.byte	0x50
 18395 01f3 9F       		.byte	0x9f
 18396 01f4 86000000 		.4byte	.LVL146
 18397 01f8 88000000 		.4byte	.LVL147
ARM GAS  C:\Users\Revanth\AppData\Local\Temp\ccbqjHa5.s 			page 386


 18398 01fc 0100     		.2byte	0x1
 18399 01fe 50       		.byte	0x50
 18400 01ff 88000000 		.4byte	.LVL147
 18401 0203 98000000 		.4byte	.LFE102
 18402 0207 0400     		.2byte	0x4
 18403 0209 F3       		.byte	0xf3
 18404 020a 01       		.uleb128 0x1
 18405 020b 50       		.byte	0x50
 18406 020c 9F       		.byte	0x9f
 18407 020d 00000000 		.4byte	0
 18408 0211 00000000 		.4byte	0
 18409              	.LLST10:
 18410 0215 00000000 		.4byte	.LVL118
 18411 0219 1F000000 		.4byte	.LVL120-1
 18412 021d 0100     		.2byte	0x1
 18413 021f 51       		.byte	0x51
 18414 0220 1F000000 		.4byte	.LVL120-1
 18415 0224 2E000000 		.4byte	.LVL123
 18416 0228 0400     		.2byte	0x4
 18417 022a F3       		.byte	0xf3
 18418 022b 01       		.uleb128 0x1
 18419 022c 51       		.byte	0x51
 18420 022d 9F       		.byte	0x9f
 18421 022e 2E000000 		.4byte	.LVL123
 18422 0232 33000000 		.4byte	.LVL125-1
 18423 0236 0100     		.2byte	0x1
 18424 0238 51       		.byte	0x51
 18425 0239 33000000 		.4byte	.LVL125-1
 18426 023d 42000000 		.4byte	.LVL128
 18427 0241 0400     		.2byte	0x4
 18428 0243 F3       		.byte	0xf3
 18429 0244 01       		.uleb128 0x1
 18430 0245 51       		.byte	0x51
 18431 0246 9F       		.byte	0x9f
 18432 0247 42000000 		.4byte	.LVL128
 18433 024b 47000000 		.4byte	.LVL130-1
 18434 024f 0100     		.2byte	0x1
 18435 0251 51       		.byte	0x51
 18436 0252 47000000 		.4byte	.LVL130-1
 18437 0256 56000000 		.4byte	.LVL133
 18438 025a 0400     		.2byte	0x4
 18439 025c F3       		.byte	0xf3
 18440 025d 01       		.uleb128 0x1
 18441 025e 51       		.byte	0x51
 18442 025f 9F       		.byte	0x9f
 18443 0260 56000000 		.4byte	.LVL133
 18444 0264 5B000000 		.4byte	.LVL135-1
 18445 0268 0100     		.2byte	0x1
 18446 026a 51       		.byte	0x51
 18447 026b 5B000000 		.4byte	.LVL135-1
 18448 026f 6A000000 		.4byte	.LVL138
 18449 0273 0400     		.2byte	0x4
 18450 0275 F3       		.byte	0xf3
 18451 0276 01       		.uleb128 0x1
 18452 0277 51       		.byte	0x51
 18453 0278 9F       		.byte	0x9f
 18454 0279 6A000000 		.4byte	.LVL138
ARM GAS  C:\Users\Revanth\AppData\Local\Temp\ccbqjHa5.s 			page 387


 18455 027d 6F000000 		.4byte	.LVL140-1
 18456 0281 0100     		.2byte	0x1
 18457 0283 51       		.byte	0x51
 18458 0284 6F000000 		.4byte	.LVL140-1
 18459 0288 7E000000 		.4byte	.LVL143
 18460 028c 0400     		.2byte	0x4
 18461 028e F3       		.byte	0xf3
 18462 028f 01       		.uleb128 0x1
 18463 0290 51       		.byte	0x51
 18464 0291 9F       		.byte	0x9f
 18465 0292 7E000000 		.4byte	.LVL143
 18466 0296 83000000 		.4byte	.LVL145-1
 18467 029a 0100     		.2byte	0x1
 18468 029c 51       		.byte	0x51
 18469 029d 83000000 		.4byte	.LVL145-1
 18470 02a1 86000000 		.4byte	.LVL146
 18471 02a5 0400     		.2byte	0x4
 18472 02a7 F3       		.byte	0xf3
 18473 02a8 01       		.uleb128 0x1
 18474 02a9 51       		.byte	0x51
 18475 02aa 9F       		.byte	0x9f
 18476 02ab 86000000 		.4byte	.LVL146
 18477 02af 8B000000 		.4byte	.LVL148-1
 18478 02b3 0100     		.2byte	0x1
 18479 02b5 51       		.byte	0x51
 18480 02b6 8B000000 		.4byte	.LVL148-1
 18481 02ba 98000000 		.4byte	.LFE102
 18482 02be 0400     		.2byte	0x4
 18483 02c0 F3       		.byte	0xf3
 18484 02c1 01       		.uleb128 0x1
 18485 02c2 51       		.byte	0x51
 18486 02c3 9F       		.byte	0x9f
 18487 02c4 00000000 		.4byte	0
 18488 02c8 00000000 		.4byte	0
 18489              	.LLST11:
 18490 02cc 00000000 		.4byte	.LVL149
 18491 02d0 0C000000 		.4byte	.LVL152
 18492 02d4 0100     		.2byte	0x1
 18493 02d6 50       		.byte	0x50
 18494 02d7 0C000000 		.4byte	.LVL152
 18495 02db EC000000 		.4byte	.LFE103
 18496 02df 0400     		.2byte	0x4
 18497 02e1 F3       		.byte	0xf3
 18498 02e2 01       		.uleb128 0x1
 18499 02e3 50       		.byte	0x50
 18500 02e4 9F       		.byte	0x9f
 18501 02e5 00000000 		.4byte	0
 18502 02e9 00000000 		.4byte	0
 18503              	.LLST12:
 18504 02ed 00000000 		.4byte	.LVL149
 18505 02f1 0A000000 		.4byte	.LVL151
 18506 02f5 0100     		.2byte	0x1
 18507 02f7 51       		.byte	0x51
 18508 02f8 0A000000 		.4byte	.LVL151
 18509 02fc EC000000 		.4byte	.LFE103
 18510 0300 0400     		.2byte	0x4
 18511 0302 F3       		.byte	0xf3
ARM GAS  C:\Users\Revanth\AppData\Local\Temp\ccbqjHa5.s 			page 388


 18512 0303 01       		.uleb128 0x1
 18513 0304 51       		.byte	0x51
 18514 0305 9F       		.byte	0x9f
 18515 0306 00000000 		.4byte	0
 18516 030a 00000000 		.4byte	0
 18517              	.LLST13:
 18518 030e 00000000 		.4byte	.LVL149
 18519 0312 0F000000 		.4byte	.LVL153-1
 18520 0316 0100     		.2byte	0x1
 18521 0318 52       		.byte	0x52
 18522 0319 0F000000 		.4byte	.LVL153-1
 18523 031d EC000000 		.4byte	.LFE103
 18524 0321 0100     		.2byte	0x1
 18525 0323 57       		.byte	0x57
 18526 0324 00000000 		.4byte	0
 18527 0328 00000000 		.4byte	0
 18528              	.LLST14:
 18529 032c 08000000 		.4byte	.LVL150
 18530 0330 60000000 		.4byte	.LVL166
 18531 0334 0200     		.2byte	0x2
 18532 0336 30       		.byte	0x30
 18533 0337 9F       		.byte	0x9f
 18534 0338 60000000 		.4byte	.LVL166
 18535 033c EC000000 		.4byte	.LFE103
 18536 0340 0100     		.2byte	0x1
 18537 0342 54       		.byte	0x54
 18538 0343 00000000 		.4byte	0
 18539 0347 00000000 		.4byte	0
 18540              	.LLST15:
 18541 034b 00000000 		.4byte	.LVL194
 18542 034f 0C000000 		.4byte	.LVL196
 18543 0353 0100     		.2byte	0x1
 18544 0355 50       		.byte	0x50
 18545 0356 0C000000 		.4byte	.LVL196
 18546 035a 3E000000 		.4byte	.LFE104
 18547 035e 0400     		.2byte	0x4
 18548 0360 F3       		.byte	0xf3
 18549 0361 01       		.uleb128 0x1
 18550 0362 50       		.byte	0x50
 18551 0363 9F       		.byte	0x9f
 18552 0364 00000000 		.4byte	0
 18553 0368 00000000 		.4byte	0
 18554              	.LLST16:
 18555 036c 00000000 		.4byte	.LVL194
 18556 0370 0A000000 		.4byte	.LVL195
 18557 0374 0100     		.2byte	0x1
 18558 0376 51       		.byte	0x51
 18559 0377 0A000000 		.4byte	.LVL195
 18560 037b 3E000000 		.4byte	.LFE104
 18561 037f 0100     		.2byte	0x1
 18562 0381 54       		.byte	0x54
 18563 0382 00000000 		.4byte	0
 18564 0386 00000000 		.4byte	0
 18565              	.LLST17:
 18566 038a 00000000 		.4byte	.LVL194
 18567 038e 0F000000 		.4byte	.LVL197-1
 18568 0392 0100     		.2byte	0x1
ARM GAS  C:\Users\Revanth\AppData\Local\Temp\ccbqjHa5.s 			page 389


 18569 0394 52       		.byte	0x52
 18570 0395 0F000000 		.4byte	.LVL197-1
 18571 0399 3E000000 		.4byte	.LFE104
 18572 039d 0400     		.2byte	0x4
 18573 039f F3       		.byte	0xf3
 18574 03a0 01       		.uleb128 0x1
 18575 03a1 52       		.byte	0x52
 18576 03a2 9F       		.byte	0x9f
 18577 03a3 00000000 		.4byte	0
 18578 03a7 00000000 		.4byte	0
 18579              	.LLST18:
 18580 03ab 00000000 		.4byte	.LVL204
 18581 03af 0C000000 		.4byte	.LVL206
 18582 03b3 0100     		.2byte	0x1
 18583 03b5 50       		.byte	0x50
 18584 03b6 0C000000 		.4byte	.LVL206
 18585 03ba 26000000 		.4byte	.LFE65
 18586 03be 0100     		.2byte	0x1
 18587 03c0 55       		.byte	0x55
 18588 03c1 00000000 		.4byte	0
 18589 03c5 00000000 		.4byte	0
 18590              	.LLST19:
 18591 03c9 00000000 		.4byte	.LVL204
 18592 03cd 0A000000 		.4byte	.LVL205
 18593 03d1 0100     		.2byte	0x1
 18594 03d3 51       		.byte	0x51
 18595 03d4 0A000000 		.4byte	.LVL205
 18596 03d8 26000000 		.4byte	.LFE65
 18597 03dc 0400     		.2byte	0x4
 18598 03de F3       		.byte	0xf3
 18599 03df 01       		.uleb128 0x1
 18600 03e0 51       		.byte	0x51
 18601 03e1 9F       		.byte	0x9f
 18602 03e2 00000000 		.4byte	0
 18603 03e6 00000000 		.4byte	0
 18604              	.LLST20:
 18605 03ea 00000000 		.4byte	.LVL210
 18606 03ee 0A000000 		.4byte	.LVL211
 18607 03f2 0100     		.2byte	0x1
 18608 03f4 50       		.byte	0x50
 18609 03f5 0A000000 		.4byte	.LVL211
 18610 03f9 88020000 		.4byte	.LFE105
 18611 03fd 0400     		.2byte	0x4
 18612 03ff F3       		.byte	0xf3
 18613 0400 01       		.uleb128 0x1
 18614 0401 50       		.byte	0x50
 18615 0402 9F       		.byte	0x9f
 18616 0403 00000000 		.4byte	0
 18617 0407 00000000 		.4byte	0
 18618              	.LLST21:
 18619 040b 00000000 		.4byte	.LVL266
 18620 040f 08000000 		.4byte	.LVL267
 18621 0413 0100     		.2byte	0x1
 18622 0415 50       		.byte	0x50
 18623 0416 08000000 		.4byte	.LVL267
 18624 041a 3C000000 		.4byte	.LFE106
 18625 041e 0400     		.2byte	0x4
ARM GAS  C:\Users\Revanth\AppData\Local\Temp\ccbqjHa5.s 			page 390


 18626 0420 F3       		.byte	0xf3
 18627 0421 01       		.uleb128 0x1
 18628 0422 50       		.byte	0x50
 18629 0423 9F       		.byte	0x9f
 18630 0424 00000000 		.4byte	0
 18631 0428 00000000 		.4byte	0
 18632              	.LLST22:
 18633 042c 00000000 		.4byte	.LVL273
 18634 0430 12000000 		.4byte	.LVL275
 18635 0434 0100     		.2byte	0x1
 18636 0436 50       		.byte	0x50
 18637 0437 12000000 		.4byte	.LVL275
 18638 043b 54000000 		.4byte	.LFE107
 18639 043f 0400     		.2byte	0x4
 18640 0441 F3       		.byte	0xf3
 18641 0442 01       		.uleb128 0x1
 18642 0443 50       		.byte	0x50
 18643 0444 9F       		.byte	0x9f
 18644 0445 00000000 		.4byte	0
 18645 0449 00000000 		.4byte	0
 18646              	.LLST23:
 18647 044d 00000000 		.4byte	.LVL282
 18648 0451 07000000 		.4byte	.LVL284-1
 18649 0455 0100     		.2byte	0x1
 18650 0457 50       		.byte	0x50
 18651 0458 07000000 		.4byte	.LVL284-1
 18652 045c EC000000 		.4byte	.LVL315
 18653 0460 0100     		.2byte	0x1
 18654 0462 57       		.byte	0x57
 18655 0463 EC000000 		.4byte	.LVL315
 18656 0467 00010000 		.4byte	.LFE71
 18657 046b 0400     		.2byte	0x4
 18658 046d F3       		.byte	0xf3
 18659 046e 01       		.uleb128 0x1
 18660 046f 50       		.byte	0x50
 18661 0470 9F       		.byte	0x9f
 18662 0471 00000000 		.4byte	0
 18663 0475 00000000 		.4byte	0
 18664              	.LLST24:
 18665 0479 04000000 		.4byte	.LVL283
 18666 047d 16000000 		.4byte	.LVL287
 18667 0481 0200     		.2byte	0x2
 18668 0483 30       		.byte	0x30
 18669 0484 9F       		.byte	0x9f
 18670 0485 16000000 		.4byte	.LVL287
 18671 0489 1A000000 		.4byte	.LVL288
 18672 048d 0100     		.2byte	0x1
 18673 048f 50       		.byte	0x50
 18674 0490 1A000000 		.4byte	.LVL288
 18675 0494 7C000000 		.4byte	.LVL305
 18676 0498 0100     		.2byte	0x1
 18677 049a 56       		.byte	0x56
 18678 049b 00000000 		.4byte	0
 18679 049f 00000000 		.4byte	0
 18680              	.LLST25:
 18681 04a3 16000000 		.4byte	.LVL287
 18682 04a7 1A000000 		.4byte	.LVL288
ARM GAS  C:\Users\Revanth\AppData\Local\Temp\ccbqjHa5.s 			page 391


 18683 04ab 0200     		.2byte	0x2
 18684 04ad 30       		.byte	0x30
 18685 04ae 9F       		.byte	0x9f
 18686 04af 1A000000 		.4byte	.LVL288
 18687 04b3 6C000000 		.4byte	.LVL302
 18688 04b7 0100     		.2byte	0x1
 18689 04b9 55       		.byte	0x55
 18690 04ba 6E000000 		.4byte	.LVL303
 18691 04be EC000000 		.4byte	.LVL315
 18692 04c2 0100     		.2byte	0x1
 18693 04c4 55       		.byte	0x55
 18694 04c5 00000000 		.4byte	0
 18695 04c9 00000000 		.4byte	0
 18696              	.LLST26:
 18697 04cd 04000000 		.4byte	.LVL283
 18698 04d1 1A000000 		.4byte	.LVL288
 18699 04d5 0200     		.2byte	0x2
 18700 04d7 30       		.byte	0x30
 18701 04d8 9F       		.byte	0x9f
 18702 04d9 42000000 		.4byte	.LVL294
 18703 04dd 4C000000 		.4byte	.LVL296
 18704 04e1 0100     		.2byte	0x1
 18705 04e3 50       		.byte	0x50
 18706 04e4 4C000000 		.4byte	.LVL296
 18707 04e8 50000000 		.4byte	.LVL297
 18708 04ec 0600     		.2byte	0x6
 18709 04ee 77       		.byte	0x77
 18710 04ef 00       		.sleb128 0
 18711 04f0 70       		.byte	0x70
 18712 04f1 00       		.sleb128 0
 18713 04f2 22       		.byte	0x22
 18714 04f3 9F       		.byte	0x9f
 18715 04f4 50000000 		.4byte	.LVL297
 18716 04f8 53000000 		.4byte	.LVL298-1
 18717 04fc 0100     		.2byte	0x1
 18718 04fe 50       		.byte	0x50
 18719 04ff 00000000 		.4byte	0
 18720 0503 00000000 		.4byte	0
 18721              	.LLST27:
 18722 0507 04000000 		.4byte	.LVL283
 18723 050b 1A000000 		.4byte	.LVL288
 18724 050f 0200     		.2byte	0x2
 18725 0511 30       		.byte	0x30
 18726 0512 9F       		.byte	0x9f
 18727 0513 24000000 		.4byte	.LVL290
 18728 0517 48000000 		.4byte	.LVL295
 18729 051b 0100     		.2byte	0x1
 18730 051d 54       		.byte	0x54
 18731 051e 7C000000 		.4byte	.LVL305
 18732 0522 90000000 		.4byte	.LVL306
 18733 0526 0100     		.2byte	0x1
 18734 0528 56       		.byte	0x56
 18735 0529 90000000 		.4byte	.LVL306
 18736 052d B6000000 		.4byte	.LVL310
 18737 0531 0400     		.2byte	0x4
 18738 0533 76       		.byte	0x76
 18739 0534 B170     		.sleb128 -1999
ARM GAS  C:\Users\Revanth\AppData\Local\Temp\ccbqjHa5.s 			page 392


 18740 0536 9F       		.byte	0x9f
 18741 0537 00000000 		.4byte	0
 18742 053b 00000000 		.4byte	0
 18743              	.LLST28:
 18744 053f 00000000 		.4byte	.LVL316
 18745 0543 07000000 		.4byte	.LVL317-1
 18746 0547 0100     		.2byte	0x1
 18747 0549 50       		.byte	0x50
 18748 054a 07000000 		.4byte	.LVL317-1
 18749 054e 70000000 		.4byte	.LVL331
 18750 0552 0100     		.2byte	0x1
 18751 0554 54       		.byte	0x54
 18752 0555 70000000 		.4byte	.LVL331
 18753 0559 8C000000 		.4byte	.LFE70
 18754 055d 0400     		.2byte	0x4
 18755 055f F3       		.byte	0xf3
 18756 0560 01       		.uleb128 0x1
 18757 0561 50       		.byte	0x50
 18758 0562 9F       		.byte	0x9f
 18759 0563 00000000 		.4byte	0
 18760 0567 00000000 		.4byte	0
 18761              	.LLST29:
 18762 056b 00000000 		.4byte	.LVL332
 18763 056f 07000000 		.4byte	.LVL334-1
 18764 0573 0100     		.2byte	0x1
 18765 0575 50       		.byte	0x50
 18766 0576 07000000 		.4byte	.LVL334-1
 18767 057a E2000000 		.4byte	.LVL362
 18768 057e 0100     		.2byte	0x1
 18769 0580 56       		.byte	0x56
 18770 0581 E2000000 		.4byte	.LVL362
 18771 0585 00010000 		.4byte	.LFE73
 18772 0589 0400     		.2byte	0x4
 18773 058b F3       		.byte	0xf3
 18774 058c 01       		.uleb128 0x1
 18775 058d 50       		.byte	0x50
 18776 058e 9F       		.byte	0x9f
 18777 058f 00000000 		.4byte	0
 18778 0593 00000000 		.4byte	0
 18779              	.LLST30:
 18780 0597 04000000 		.4byte	.LVL333
 18781 059b 1C000000 		.4byte	.LVL338
 18782 059f 0200     		.2byte	0x2
 18783 05a1 30       		.byte	0x30
 18784 05a2 9F       		.byte	0x9f
 18785 05a3 1C000000 		.4byte	.LVL338
 18786 05a7 72000000 		.4byte	.LVL351
 18787 05ab 0100     		.2byte	0x1
 18788 05ad 55       		.byte	0x55
 18789 05ae 74000000 		.4byte	.LVL352
 18790 05b2 E2000000 		.4byte	.LVL362
 18791 05b6 0100     		.2byte	0x1
 18792 05b8 55       		.byte	0x55
 18793 05b9 00000000 		.4byte	0
 18794 05bd 00000000 		.4byte	0
 18795              	.LLST31:
 18796 05c1 04000000 		.4byte	.LVL333
ARM GAS  C:\Users\Revanth\AppData\Local\Temp\ccbqjHa5.s 			page 393


 18797 05c5 1C000000 		.4byte	.LVL338
 18798 05c9 0200     		.2byte	0x2
 18799 05cb 30       		.byte	0x30
 18800 05cc 9F       		.byte	0x9f
 18801 05cd 3A000000 		.4byte	.LVL343
 18802 05d1 52000000 		.4byte	.LVL345
 18803 05d5 0100     		.2byte	0x1
 18804 05d7 50       		.byte	0x50
 18805 05d8 52000000 		.4byte	.LVL345
 18806 05dc 56000000 		.4byte	.LVL346
 18807 05e0 0600     		.2byte	0x6
 18808 05e2 76       		.byte	0x76
 18809 05e3 00       		.sleb128 0
 18810 05e4 70       		.byte	0x70
 18811 05e5 00       		.sleb128 0
 18812 05e6 22       		.byte	0x22
 18813 05e7 9F       		.byte	0x9f
 18814 05e8 56000000 		.4byte	.LVL346
 18815 05ec 59000000 		.4byte	.LVL347-1
 18816 05f0 0100     		.2byte	0x1
 18817 05f2 50       		.byte	0x50
 18818 05f3 00000000 		.4byte	0
 18819 05f7 00000000 		.4byte	0
 18820              	.LLST32:
 18821 05fb 04000000 		.4byte	.LVL333
 18822 05ff 18000000 		.4byte	.LVL337
 18823 0603 0200     		.2byte	0x2
 18824 0605 30       		.byte	0x30
 18825 0606 9F       		.byte	0x9f
 18826 0607 18000000 		.4byte	.LVL337
 18827 060b 1C000000 		.4byte	.LVL338
 18828 060f 0100     		.2byte	0x1
 18829 0611 50       		.byte	0x50
 18830 0612 1C000000 		.4byte	.LVL338
 18831 0616 E2000000 		.4byte	.LVL362
 18832 061a 0100     		.2byte	0x1
 18833 061c 57       		.byte	0x57
 18834 061d 00000000 		.4byte	0
 18835 0621 00000000 		.4byte	0
 18836              	.LLST33:
 18837 0625 04000000 		.4byte	.LVL333
 18838 0629 1C000000 		.4byte	.LVL338
 18839 062d 0200     		.2byte	0x2
 18840 062f 30       		.byte	0x30
 18841 0630 9F       		.byte	0x9f
 18842 0631 26000000 		.4byte	.LVL340
 18843 0635 4E000000 		.4byte	.LVL344
 18844 0639 0100     		.2byte	0x1
 18845 063b 54       		.byte	0x54
 18846 063c 82000000 		.4byte	.LVL354
 18847 0640 96000000 		.4byte	.LVL355
 18848 0644 0100     		.2byte	0x1
 18849 0646 50       		.byte	0x50
 18850 0647 96000000 		.4byte	.LVL355
 18851 064b A0000000 		.4byte	.LVL356
 18852 064f 0400     		.2byte	0x4
 18853 0651 70       		.byte	0x70
ARM GAS  C:\Users\Revanth\AppData\Local\Temp\ccbqjHa5.s 			page 394


 18854 0652 B170     		.sleb128 -1999
 18855 0654 9F       		.byte	0x9f
 18856 0655 00000000 		.4byte	0
 18857 0659 00000000 		.4byte	0
 18858              	.LLST34:
 18859 065d 00000000 		.4byte	.LVL363
 18860 0661 07000000 		.4byte	.LVL364-1
 18861 0665 0100     		.2byte	0x1
 18862 0667 50       		.byte	0x50
 18863 0668 07000000 		.4byte	.LVL364-1
 18864 066c 70000000 		.4byte	.LVL378
 18865 0670 0100     		.2byte	0x1
 18866 0672 54       		.byte	0x54
 18867 0673 70000000 		.4byte	.LVL378
 18868 0677 8C000000 		.4byte	.LFE72
 18869 067b 0400     		.2byte	0x4
 18870 067d F3       		.byte	0xf3
 18871 067e 01       		.uleb128 0x1
 18872 067f 50       		.byte	0x50
 18873 0680 9F       		.byte	0x9f
 18874 0681 00000000 		.4byte	0
 18875 0685 00000000 		.4byte	0
 18876              	.LLST35:
 18877 0689 00000000 		.4byte	.LVL379
 18878 068d 07000000 		.4byte	.LVL381-1
 18879 0691 0100     		.2byte	0x1
 18880 0693 50       		.byte	0x50
 18881 0694 07000000 		.4byte	.LVL381-1
 18882 0698 E2000000 		.4byte	.LVL409
 18883 069c 0100     		.2byte	0x1
 18884 069e 56       		.byte	0x56
 18885 069f E2000000 		.4byte	.LVL409
 18886 06a3 00010000 		.4byte	.LFE75
 18887 06a7 0400     		.2byte	0x4
 18888 06a9 F3       		.byte	0xf3
 18889 06aa 01       		.uleb128 0x1
 18890 06ab 50       		.byte	0x50
 18891 06ac 9F       		.byte	0x9f
 18892 06ad 00000000 		.4byte	0
 18893 06b1 00000000 		.4byte	0
 18894              	.LLST36:
 18895 06b5 04000000 		.4byte	.LVL380
 18896 06b9 1C000000 		.4byte	.LVL385
 18897 06bd 0200     		.2byte	0x2
 18898 06bf 30       		.byte	0x30
 18899 06c0 9F       		.byte	0x9f
 18900 06c1 1C000000 		.4byte	.LVL385
 18901 06c5 72000000 		.4byte	.LVL398
 18902 06c9 0100     		.2byte	0x1
 18903 06cb 55       		.byte	0x55
 18904 06cc 74000000 		.4byte	.LVL399
 18905 06d0 E2000000 		.4byte	.LVL409
 18906 06d4 0100     		.2byte	0x1
 18907 06d6 55       		.byte	0x55
 18908 06d7 00000000 		.4byte	0
 18909 06db 00000000 		.4byte	0
 18910              	.LLST37:
ARM GAS  C:\Users\Revanth\AppData\Local\Temp\ccbqjHa5.s 			page 395


 18911 06df 04000000 		.4byte	.LVL380
 18912 06e3 1C000000 		.4byte	.LVL385
 18913 06e7 0200     		.2byte	0x2
 18914 06e9 30       		.byte	0x30
 18915 06ea 9F       		.byte	0x9f
 18916 06eb 3A000000 		.4byte	.LVL390
 18917 06ef 52000000 		.4byte	.LVL392
 18918 06f3 0100     		.2byte	0x1
 18919 06f5 50       		.byte	0x50
 18920 06f6 52000000 		.4byte	.LVL392
 18921 06fa 56000000 		.4byte	.LVL393
 18922 06fe 0600     		.2byte	0x6
 18923 0700 76       		.byte	0x76
 18924 0701 00       		.sleb128 0
 18925 0702 70       		.byte	0x70
 18926 0703 00       		.sleb128 0
 18927 0704 22       		.byte	0x22
 18928 0705 9F       		.byte	0x9f
 18929 0706 56000000 		.4byte	.LVL393
 18930 070a 59000000 		.4byte	.LVL394-1
 18931 070e 0100     		.2byte	0x1
 18932 0710 50       		.byte	0x50
 18933 0711 00000000 		.4byte	0
 18934 0715 00000000 		.4byte	0
 18935              	.LLST38:
 18936 0719 04000000 		.4byte	.LVL380
 18937 071d 18000000 		.4byte	.LVL384
 18938 0721 0200     		.2byte	0x2
 18939 0723 30       		.byte	0x30
 18940 0724 9F       		.byte	0x9f
 18941 0725 18000000 		.4byte	.LVL384
 18942 0729 1C000000 		.4byte	.LVL385
 18943 072d 0100     		.2byte	0x1
 18944 072f 50       		.byte	0x50
 18945 0730 1C000000 		.4byte	.LVL385
 18946 0734 E2000000 		.4byte	.LVL409
 18947 0738 0100     		.2byte	0x1
 18948 073a 57       		.byte	0x57
 18949 073b 00000000 		.4byte	0
 18950 073f 00000000 		.4byte	0
 18951              	.LLST39:
 18952 0743 04000000 		.4byte	.LVL380
 18953 0747 1C000000 		.4byte	.LVL385
 18954 074b 0200     		.2byte	0x2
 18955 074d 30       		.byte	0x30
 18956 074e 9F       		.byte	0x9f
 18957 074f 26000000 		.4byte	.LVL387
 18958 0753 4E000000 		.4byte	.LVL391
 18959 0757 0100     		.2byte	0x1
 18960 0759 54       		.byte	0x54
 18961 075a 82000000 		.4byte	.LVL401
 18962 075e 96000000 		.4byte	.LVL402
 18963 0762 0100     		.2byte	0x1
 18964 0764 50       		.byte	0x50
 18965 0765 96000000 		.4byte	.LVL402
 18966 0769 A0000000 		.4byte	.LVL403
 18967 076d 0400     		.2byte	0x4
ARM GAS  C:\Users\Revanth\AppData\Local\Temp\ccbqjHa5.s 			page 396


 18968 076f 70       		.byte	0x70
 18969 0770 E160     		.sleb128 -3999
 18970 0772 9F       		.byte	0x9f
 18971 0773 00000000 		.4byte	0
 18972 0777 00000000 		.4byte	0
 18973              	.LLST40:
 18974 077b 00000000 		.4byte	.LVL410
 18975 077f 0C000000 		.4byte	.LVL411
 18976 0783 0100     		.2byte	0x1
 18977 0785 50       		.byte	0x50
 18978 0786 0C000000 		.4byte	.LVL411
 18979 078a 84000000 		.4byte	.LVL428
 18980 078e 0100     		.2byte	0x1
 18981 0790 55       		.byte	0x55
 18982 0791 84000000 		.4byte	.LVL428
 18983 0795 9C000000 		.4byte	.LFE74
 18984 0799 0400     		.2byte	0x4
 18985 079b F3       		.byte	0xf3
 18986 079c 01       		.uleb128 0x1
 18987 079d 50       		.byte	0x50
 18988 079e 9F       		.byte	0x9f
 18989 079f 00000000 		.4byte	0
 18990 07a3 00000000 		.4byte	0
 18991              	.LLST41:
 18992 07a7 00000000 		.4byte	.LVL429
 18993 07ab 07000000 		.4byte	.LVL431-1
 18994 07af 0100     		.2byte	0x1
 18995 07b1 50       		.byte	0x50
 18996 07b2 07000000 		.4byte	.LVL431-1
 18997 07b6 D2000000 		.4byte	.LVL457
 18998 07ba 0100     		.2byte	0x1
 18999 07bc 57       		.byte	0x57
 19000 07bd D2000000 		.4byte	.LVL457
 19001 07c1 F0000000 		.4byte	.LFE77
 19002 07c5 0400     		.2byte	0x4
 19003 07c7 F3       		.byte	0xf3
 19004 07c8 01       		.uleb128 0x1
 19005 07c9 50       		.byte	0x50
 19006 07ca 9F       		.byte	0x9f
 19007 07cb 00000000 		.4byte	0
 19008 07cf 00000000 		.4byte	0
 19009              	.LLST42:
 19010 07d3 04000000 		.4byte	.LVL430
 19011 07d7 1C000000 		.4byte	.LVL435
 19012 07db 0200     		.2byte	0x2
 19013 07dd 30       		.byte	0x30
 19014 07de 9F       		.byte	0x9f
 19015 07df 1C000000 		.4byte	.LVL435
 19016 07e3 72000000 		.4byte	.LVL448
 19017 07e7 0100     		.2byte	0x1
 19018 07e9 55       		.byte	0x55
 19019 07ea 74000000 		.4byte	.LVL449
 19020 07ee D2000000 		.4byte	.LVL457
 19021 07f2 0100     		.2byte	0x1
 19022 07f4 55       		.byte	0x55
 19023 07f5 00000000 		.4byte	0
 19024 07f9 00000000 		.4byte	0
ARM GAS  C:\Users\Revanth\AppData\Local\Temp\ccbqjHa5.s 			page 397


 19025              	.LLST43:
 19026 07fd 04000000 		.4byte	.LVL430
 19027 0801 1C000000 		.4byte	.LVL435
 19028 0805 0200     		.2byte	0x2
 19029 0807 30       		.byte	0x30
 19030 0808 9F       		.byte	0x9f
 19031 0809 3A000000 		.4byte	.LVL440
 19032 080d 52000000 		.4byte	.LVL442
 19033 0811 0100     		.2byte	0x1
 19034 0813 50       		.byte	0x50
 19035 0814 52000000 		.4byte	.LVL442
 19036 0818 56000000 		.4byte	.LVL443
 19037 081c 0600     		.2byte	0x6
 19038 081e 77       		.byte	0x77
 19039 081f 00       		.sleb128 0
 19040 0820 70       		.byte	0x70
 19041 0821 00       		.sleb128 0
 19042 0822 22       		.byte	0x22
 19043 0823 9F       		.byte	0x9f
 19044 0824 56000000 		.4byte	.LVL443
 19045 0828 59000000 		.4byte	.LVL444-1
 19046 082c 0100     		.2byte	0x1
 19047 082e 50       		.byte	0x50
 19048 082f 00000000 		.4byte	0
 19049 0833 00000000 		.4byte	0
 19050              	.LLST44:
 19051 0837 04000000 		.4byte	.LVL430
 19052 083b 18000000 		.4byte	.LVL434
 19053 083f 0200     		.2byte	0x2
 19054 0841 30       		.byte	0x30
 19055 0842 9F       		.byte	0x9f
 19056 0843 18000000 		.4byte	.LVL434
 19057 0847 1C000000 		.4byte	.LVL435
 19058 084b 0100     		.2byte	0x1
 19059 084d 50       		.byte	0x50
 19060 084e 1C000000 		.4byte	.LVL435
 19061 0852 D2000000 		.4byte	.LVL457
 19062 0856 0100     		.2byte	0x1
 19063 0858 56       		.byte	0x56
 19064 0859 00000000 		.4byte	0
 19065 085d 00000000 		.4byte	0
 19066              	.LLST45:
 19067 0861 04000000 		.4byte	.LVL430
 19068 0865 1C000000 		.4byte	.LVL435
 19069 0869 0200     		.2byte	0x2
 19070 086b 30       		.byte	0x30
 19071 086c 9F       		.byte	0x9f
 19072 086d 26000000 		.4byte	.LVL437
 19073 0871 4E000000 		.4byte	.LVL441
 19074 0875 0100     		.2byte	0x1
 19075 0877 54       		.byte	0x54
 19076 0878 82000000 		.4byte	.LVL451
 19077 087c 96000000 		.4byte	.LVL452
 19078 0880 0100     		.2byte	0x1
 19079 0882 50       		.byte	0x50
 19080 0883 96000000 		.4byte	.LVL452
 19081 0887 A0000000 		.4byte	.LVL453
ARM GAS  C:\Users\Revanth\AppData\Local\Temp\ccbqjHa5.s 			page 398


 19082 088b 0400     		.2byte	0x4
 19083 088d 70       		.byte	0x70
 19084 088e E160     		.sleb128 -3999
 19085 0890 9F       		.byte	0x9f
 19086 0891 00000000 		.4byte	0
 19087 0895 00000000 		.4byte	0
 19088              	.LLST46:
 19089 0899 00000000 		.4byte	.LVL458
 19090 089d 06000000 		.4byte	.LVL459
 19091 08a1 0100     		.2byte	0x1
 19092 08a3 50       		.byte	0x50
 19093 08a4 06000000 		.4byte	.LVL459
 19094 08a8 76000000 		.4byte	.LVL477
 19095 08ac 0100     		.2byte	0x1
 19096 08ae 54       		.byte	0x54
 19097 08af 76000000 		.4byte	.LVL477
 19098 08b3 9C000000 		.4byte	.LFE76
 19099 08b7 0400     		.2byte	0x4
 19100 08b9 F3       		.byte	0xf3
 19101 08ba 01       		.uleb128 0x1
 19102 08bb 50       		.byte	0x50
 19103 08bc 9F       		.byte	0x9f
 19104 08bd 00000000 		.4byte	0
 19105 08c1 00000000 		.4byte	0
 19106              	.LLST47:
 19107 08c5 00000000 		.4byte	.LVL480
 19108 08c9 0B000000 		.4byte	.LVL481-1
 19109 08cd 0100     		.2byte	0x1
 19110 08cf 50       		.byte	0x50
 19111 08d0 0B000000 		.4byte	.LVL481-1
 19112 08d4 9C000000 		.4byte	.LVL497
 19113 08d8 0100     		.2byte	0x1
 19114 08da 56       		.byte	0x56
 19115 08db 9C000000 		.4byte	.LVL497
 19116 08df A4000000 		.4byte	.LFE78
 19117 08e3 0400     		.2byte	0x4
 19118 08e5 F3       		.byte	0xf3
 19119 08e6 01       		.uleb128 0x1
 19120 08e7 50       		.byte	0x50
 19121 08e8 9F       		.byte	0x9f
 19122 08e9 00000000 		.4byte	0
 19123 08ed 00000000 		.4byte	0
 19124              	.LLST48:
 19125 08f1 00000000 		.4byte	.LVL480
 19126 08f5 0B000000 		.4byte	.LVL481-1
 19127 08f9 0100     		.2byte	0x1
 19128 08fb 51       		.byte	0x51
 19129 08fc 0B000000 		.4byte	.LVL481-1
 19130 0900 9C000000 		.4byte	.LVL497
 19131 0904 0100     		.2byte	0x1
 19132 0906 55       		.byte	0x55
 19133 0907 9C000000 		.4byte	.LVL497
 19134 090b A4000000 		.4byte	.LFE78
 19135 090f 0400     		.2byte	0x4
 19136 0911 F3       		.byte	0xf3
 19137 0912 01       		.uleb128 0x1
 19138 0913 51       		.byte	0x51
ARM GAS  C:\Users\Revanth\AppData\Local\Temp\ccbqjHa5.s 			page 399


 19139 0914 9F       		.byte	0x9f
 19140 0915 00000000 		.4byte	0
 19141 0919 00000000 		.4byte	0
 19142              	.LLST49:
 19143 091d 00000000 		.4byte	.LVL480
 19144 0921 0B000000 		.4byte	.LVL481-1
 19145 0925 0100     		.2byte	0x1
 19146 0927 52       		.byte	0x52
 19147 0928 0B000000 		.4byte	.LVL481-1
 19148 092c 9C000000 		.4byte	.LVL497
 19149 0930 0100     		.2byte	0x1
 19150 0932 54       		.byte	0x54
 19151 0933 9C000000 		.4byte	.LVL497
 19152 0937 A4000000 		.4byte	.LFE78
 19153 093b 0400     		.2byte	0x4
 19154 093d F3       		.byte	0xf3
 19155 093e 01       		.uleb128 0x1
 19156 093f 52       		.byte	0x52
 19157 0940 9F       		.byte	0x9f
 19158 0941 00000000 		.4byte	0
 19159 0945 00000000 		.4byte	0
 19160              	.LLST50:
 19161 0949 00000000 		.4byte	.LVL498
 19162 094d 08000000 		.4byte	.LVL500
 19163 0951 0100     		.2byte	0x1
 19164 0953 50       		.byte	0x50
 19165 0954 08000000 		.4byte	.LVL500
 19166 0958 0B000000 		.4byte	.LVL501-1
 19167 095c 0100     		.2byte	0x1
 19168 095e 51       		.byte	0x51
 19169 095f 0B000000 		.4byte	.LVL501-1
 19170 0963 10000000 		.4byte	.LFE108
 19171 0967 0400     		.2byte	0x4
 19172 0969 F3       		.byte	0xf3
 19173 096a 01       		.uleb128 0x1
 19174 096b 50       		.byte	0x50
 19175 096c 9F       		.byte	0x9f
 19176 096d 00000000 		.4byte	0
 19177 0971 00000000 		.4byte	0
 19178              	.LLST51:
 19179 0975 00000000 		.4byte	.LVL498
 19180 0979 06000000 		.4byte	.LVL499
 19181 097d 0100     		.2byte	0x1
 19182 097f 51       		.byte	0x51
 19183 0980 06000000 		.4byte	.LVL499
 19184 0984 10000000 		.4byte	.LFE108
 19185 0988 0400     		.2byte	0x4
 19186 098a F3       		.byte	0xf3
 19187 098b 01       		.uleb128 0x1
 19188 098c 51       		.byte	0x51
 19189 098d 9F       		.byte	0x9f
 19190 098e 00000000 		.4byte	0
 19191 0992 00000000 		.4byte	0
 19192              	.LLST52:
 19193 0996 00000000 		.4byte	.LVL502
 19194 099a 0C000000 		.4byte	.LVL503
 19195 099e 0100     		.2byte	0x1
ARM GAS  C:\Users\Revanth\AppData\Local\Temp\ccbqjHa5.s 			page 400


 19196 09a0 50       		.byte	0x50
 19197 09a1 0C000000 		.4byte	.LVL503
 19198 09a5 C0010000 		.4byte	.LFE66
 19199 09a9 0400     		.2byte	0x4
 19200 09ab F3       		.byte	0xf3
 19201 09ac 01       		.uleb128 0x1
 19202 09ad 50       		.byte	0x50
 19203 09ae 9F       		.byte	0x9f
 19204 09af 00000000 		.4byte	0
 19205 09b3 00000000 		.4byte	0
 19206              	.LLST53:
 19207 09b7 00000000 		.4byte	.LVL539
 19208 09bb 0C000000 		.4byte	.LVL540
 19209 09bf 0100     		.2byte	0x1
 19210 09c1 50       		.byte	0x50
 19211 09c2 0C000000 		.4byte	.LVL540
 19212 09c6 C0010000 		.4byte	.LFE67
 19213 09ca 0400     		.2byte	0x4
 19214 09cc F3       		.byte	0xf3
 19215 09cd 01       		.uleb128 0x1
 19216 09ce 50       		.byte	0x50
 19217 09cf 9F       		.byte	0x9f
 19218 09d0 00000000 		.4byte	0
 19219 09d4 00000000 		.4byte	0
 19220              	.LLST54:
 19221 09d8 00000000 		.4byte	.LVL576
 19222 09dc 0C000000 		.4byte	.LVL577
 19223 09e0 0100     		.2byte	0x1
 19224 09e2 50       		.byte	0x50
 19225 09e3 0C000000 		.4byte	.LVL577
 19226 09e7 B4010000 		.4byte	.LFE68
 19227 09eb 0400     		.2byte	0x4
 19228 09ed F3       		.byte	0xf3
 19229 09ee 01       		.uleb128 0x1
 19230 09ef 50       		.byte	0x50
 19231 09f0 9F       		.byte	0x9f
 19232 09f1 00000000 		.4byte	0
 19233 09f5 00000000 		.4byte	0
 19234              	.LLST55:
 19235 09f9 00000000 		.4byte	.LVL613
 19236 09fd 08000000 		.4byte	.LVL614
 19237 0a01 0100     		.2byte	0x1
 19238 0a03 50       		.byte	0x50
 19239 0a04 08000000 		.4byte	.LVL614
 19240 0a08 84010000 		.4byte	.LFE69
 19241 0a0c 0400     		.2byte	0x4
 19242 0a0e F3       		.byte	0xf3
 19243 0a0f 01       		.uleb128 0x1
 19244 0a10 50       		.byte	0x50
 19245 0a11 9F       		.byte	0x9f
 19246 0a12 00000000 		.4byte	0
 19247 0a16 00000000 		.4byte	0
 19248              	.LLST56:
 19249 0a1a 00000000 		.4byte	.LVL648
 19250 0a1e 08000000 		.4byte	.LVL650
 19251 0a22 0100     		.2byte	0x1
 19252 0a24 50       		.byte	0x50
ARM GAS  C:\Users\Revanth\AppData\Local\Temp\ccbqjHa5.s 			page 401


 19253 0a25 08000000 		.4byte	.LVL650
 19254 0a29 0B000000 		.4byte	.LVL651-1
 19255 0a2d 0100     		.2byte	0x1
 19256 0a2f 51       		.byte	0x51
 19257 0a30 0B000000 		.4byte	.LVL651-1
 19258 0a34 10000000 		.4byte	.LFE109
 19259 0a38 0400     		.2byte	0x4
 19260 0a3a F3       		.byte	0xf3
 19261 0a3b 01       		.uleb128 0x1
 19262 0a3c 50       		.byte	0x50
 19263 0a3d 9F       		.byte	0x9f
 19264 0a3e 00000000 		.4byte	0
 19265 0a42 00000000 		.4byte	0
 19266              	.LLST57:
 19267 0a46 00000000 		.4byte	.LVL648
 19268 0a4a 06000000 		.4byte	.LVL649
 19269 0a4e 0100     		.2byte	0x1
 19270 0a50 51       		.byte	0x51
 19271 0a51 06000000 		.4byte	.LVL649
 19272 0a55 10000000 		.4byte	.LFE109
 19273 0a59 0400     		.2byte	0x4
 19274 0a5b F3       		.byte	0xf3
 19275 0a5c 01       		.uleb128 0x1
 19276 0a5d 51       		.byte	0x51
 19277 0a5e 9F       		.byte	0x9f
 19278 0a5f 00000000 		.4byte	0
 19279 0a63 00000000 		.4byte	0
 19280              	.LLST58:
 19281 0a67 00000000 		.4byte	.LVL652
 19282 0a6b 0C000000 		.4byte	.LVL654
 19283 0a6f 0100     		.2byte	0x1
 19284 0a71 50       		.byte	0x50
 19285 0a72 0C000000 		.4byte	.LVL654
 19286 0a76 E2000000 		.4byte	.LVL679
 19287 0a7a 0100     		.2byte	0x1
 19288 0a7c 55       		.byte	0x55
 19289 0a7d E2000000 		.4byte	.LVL679
 19290 0a81 E6000000 		.4byte	.LVL680
 19291 0a85 0400     		.2byte	0x4
 19292 0a87 75       		.byte	0x75
 19293 0a88 00       		.sleb128 0
 19294 0a89 1F       		.byte	0x1f
 19295 0a8a 9F       		.byte	0x9f
 19296 0a8b E6000000 		.4byte	.LVL680
 19297 0a8f E9000000 		.4byte	.LVL681-1
 19298 0a93 0100     		.2byte	0x1
 19299 0a95 50       		.byte	0x50
 19300 0a96 E9000000 		.4byte	.LVL681-1
 19301 0a9a 7C010000 		.4byte	.LVL698
 19302 0a9e 0400     		.2byte	0x4
 19303 0aa0 75       		.byte	0x75
 19304 0aa1 00       		.sleb128 0
 19305 0aa2 1F       		.byte	0x1f
 19306 0aa3 9F       		.byte	0x9f
 19307 0aa4 7C010000 		.4byte	.LVL698
 19308 0aa8 B8010000 		.4byte	.LFE110
 19309 0aac 0200     		.2byte	0x2
ARM GAS  C:\Users\Revanth\AppData\Local\Temp\ccbqjHa5.s 			page 402


 19310 0aae 30       		.byte	0x30
 19311 0aaf 9F       		.byte	0x9f
 19312 0ab0 00000000 		.4byte	0
 19313 0ab4 00000000 		.4byte	0
 19314              	.LLST59:
 19315 0ab8 00000000 		.4byte	.LVL652
 19316 0abc 0A000000 		.4byte	.LVL653
 19317 0ac0 0100     		.2byte	0x1
 19318 0ac2 51       		.byte	0x51
 19319 0ac3 0A000000 		.4byte	.LVL653
 19320 0ac7 3C000000 		.4byte	.LVL661
 19321 0acb 0400     		.2byte	0x4
 19322 0acd F3       		.byte	0xf3
 19323 0ace 01       		.uleb128 0x1
 19324 0acf 51       		.byte	0x51
 19325 0ad0 9F       		.byte	0x9f
 19326 0ad1 3C000000 		.4byte	.LVL661
 19327 0ad5 50000000 		.4byte	.LVL663
 19328 0ad9 0100     		.2byte	0x1
 19329 0adb 54       		.byte	0x54
 19330 0adc E2000000 		.4byte	.LVL679
 19331 0ae0 EC000000 		.4byte	.LVL682
 19332 0ae4 0100     		.2byte	0x1
 19333 0ae6 54       		.byte	0x54
 19334 0ae7 00000000 		.4byte	0
 19335 0aeb 00000000 		.4byte	0
 19336              	.LLST60:
 19337 0aef 00000000 		.4byte	.LVL704
 19338 0af3 0E000000 		.4byte	.LVL707
 19339 0af7 0100     		.2byte	0x1
 19340 0af9 50       		.byte	0x50
 19341 0afa 0E000000 		.4byte	.LVL707
 19342 0afe 46000000 		.4byte	.LVL715
 19343 0b02 0100     		.2byte	0x1
 19344 0b04 56       		.byte	0x56
 19345 0b05 46000000 		.4byte	.LVL715
 19346 0b09 4A000000 		.4byte	.LVL716
 19347 0b0d 0400     		.2byte	0x4
 19348 0b0f 76       		.byte	0x76
 19349 0b10 00       		.sleb128 0
 19350 0b11 1F       		.byte	0x1f
 19351 0b12 9F       		.byte	0x9f
 19352 0b13 4A000000 		.4byte	.LVL716
 19353 0b17 4D000000 		.4byte	.LVL717-1
 19354 0b1b 0100     		.2byte	0x1
 19355 0b1d 50       		.byte	0x50
 19356 0b1e 4D000000 		.4byte	.LVL717-1
 19357 0b22 54000000 		.4byte	.LVL718
 19358 0b26 0400     		.2byte	0x4
 19359 0b28 76       		.byte	0x76
 19360 0b29 00       		.sleb128 0
 19361 0b2a 1F       		.byte	0x1f
 19362 0b2b 9F       		.byte	0x9f
 19363 0b2c 00000000 		.4byte	0
 19364 0b30 00000000 		.4byte	0
 19365              	.LLST61:
 19366 0b34 00000000 		.4byte	.LVL704
ARM GAS  C:\Users\Revanth\AppData\Local\Temp\ccbqjHa5.s 			page 403


 19367 0b38 0C000000 		.4byte	.LVL706
 19368 0b3c 0100     		.2byte	0x1
 19369 0b3e 51       		.byte	0x51
 19370 0b3f 0C000000 		.4byte	.LVL706
 19371 0b43 80000000 		.4byte	.LFE111
 19372 0b47 0100     		.2byte	0x1
 19373 0b49 55       		.byte	0x55
 19374 0b4a 00000000 		.4byte	0
 19375 0b4e 00000000 		.4byte	0
 19376              	.LLST62:
 19377 0b52 00000000 		.4byte	.LVL704
 19378 0b56 0A000000 		.4byte	.LVL705
 19379 0b5a 0100     		.2byte	0x1
 19380 0b5c 52       		.byte	0x52
 19381 0b5d 0A000000 		.4byte	.LVL705
 19382 0b61 80000000 		.4byte	.LFE111
 19383 0b65 0400     		.2byte	0x4
 19384 0b67 F3       		.byte	0xf3
 19385 0b68 01       		.uleb128 0x1
 19386 0b69 52       		.byte	0x52
 19387 0b6a 9F       		.byte	0x9f
 19388 0b6b 00000000 		.4byte	0
 19389 0b6f 00000000 		.4byte	0
 19390              	.LLST63:
 19391 0b73 DA030000 		.4byte	.LVL817
 19392 0b77 F0030000 		.4byte	.LVL818
 19393 0b7b 0200     		.2byte	0x2
 19394 0b7d 30       		.byte	0x30
 19395 0b7e 9F       		.byte	0x9f
 19396 0b7f F0030000 		.4byte	.LVL818
 19397 0b83 18040000 		.4byte	.LVL823
 19398 0b87 0100     		.2byte	0x1
 19399 0b89 54       		.byte	0x54
 19400 0b8a 00000000 		.4byte	0
 19401 0b8e 00000000 		.4byte	0
 19402              	.LLST64:
 19403 0b92 DA030000 		.4byte	.LVL817
 19404 0b96 04040000 		.4byte	.LVL820
 19405 0b9a 0200     		.2byte	0x2
 19406 0b9c 30       		.byte	0x30
 19407 0b9d 9F       		.byte	0x9f
 19408 0b9e 04040000 		.4byte	.LVL820
 19409 0ba2 0D040000 		.4byte	.LVL821-1
 19410 0ba6 0500     		.2byte	0x5
 19411 0ba8 03       		.byte	0x3
 19412 0ba9 06000000 		.4byte	USB_received+6
 19413 0bad 00000000 		.4byte	0
 19414 0bb1 00000000 		.4byte	0
 19415              	.LLST65:
 19416 0bb5 4C050000 		.4byte	.LVL846
 19417 0bb9 50050000 		.4byte	.LVL847
 19418 0bbd 0200     		.2byte	0x2
 19419 0bbf 30       		.byte	0x30
 19420 0bc0 9F       		.byte	0x9f
 19421 0bc1 50050000 		.4byte	.LVL847
 19422 0bc5 70050000 		.4byte	.LVL852
 19423 0bc9 0100     		.2byte	0x1
ARM GAS  C:\Users\Revanth\AppData\Local\Temp\ccbqjHa5.s 			page 404


 19424 0bcb 54       		.byte	0x54
 19425 0bcc 00000000 		.4byte	0
 19426 0bd0 00000000 		.4byte	0
 19427              		.section	.debug_aranges,"",%progbits
 19428 0000 94010000 		.4byte	0x194
 19429 0004 0200     		.2byte	0x2
 19430 0006 00000000 		.4byte	.Ldebug_info0
 19431 000a 04       		.byte	0x4
 19432 000b 00       		.byte	0
 19433 000c 0000     		.2byte	0
 19434 000e 0000     		.2byte	0
 19435 0010 00000000 		.4byte	.LFB64
 19436 0014 24000000 		.4byte	.LFE64-.LFB64
 19437 0018 00000000 		.4byte	.LFB80
 19438 001c 50000000 		.4byte	.LFE80-.LFB80
 19439 0020 00000000 		.4byte	.LFB86
 19440 0024 08000000 		.4byte	.LFE86-.LFB86
 19441 0028 00000000 		.4byte	.LFB88
 19442 002c 18000000 		.4byte	.LFE88-.LFB88
 19443 0030 00000000 		.4byte	.LFB89
 19444 0034 18000000 		.4byte	.LFE89-.LFB89
 19445 0038 00000000 		.4byte	.LFB87
 19446 003c 2C000000 		.4byte	.LFE87-.LFB87
 19447 0040 00000000 		.4byte	.LFB90
 19448 0044 44000000 		.4byte	.LFE90-.LFB90
 19449 0048 00000000 		.4byte	.LFB93
 19450 004c 02000000 		.4byte	.LFE93-.LFB93
 19451 0050 00000000 		.4byte	.LFB96
 19452 0054 18000000 		.4byte	.LFE96-.LFB96
 19453 0058 00000000 		.4byte	.LFB97
 19454 005c 18000000 		.4byte	.LFE97-.LFB97
 19455 0060 00000000 		.4byte	.LFB98
 19456 0064 2C000000 		.4byte	.LFE98-.LFB98
 19457 0068 00000000 		.4byte	.LFB83
 19458 006c 24000000 		.4byte	.LFE83-.LFB83
 19459 0070 00000000 		.4byte	.LFB84
 19460 0074 40000000 		.4byte	.LFE84-.LFB84
 19461 0078 00000000 		.4byte	.LFB85
 19462 007c 2C000000 		.4byte	.LFE85-.LFB85
 19463 0080 00000000 		.4byte	.LFB92
 19464 0084 F0020000 		.4byte	.LFE92-.LFB92
 19465 0088 00000000 		.4byte	.LFB94
 19466 008c 38000000 		.4byte	.LFE94-.LFB94
 19467 0090 00000000 		.4byte	.LFB99
 19468 0094 24000000 		.4byte	.LFE99-.LFB99
 19469 0098 00000000 		.4byte	.LFB81
 19470 009c 70000000 		.4byte	.LFE81-.LFB81
 19471 00a0 00000000 		.4byte	.LFB82
 19472 00a4 70000000 		.4byte	.LFE82-.LFB82
 19473 00a8 00000000 		.4byte	.LFB100
 19474 00ac 24000000 		.4byte	.LFE100-.LFB100
 19475 00b0 00000000 		.4byte	.LFB79
 19476 00b4 7C000000 		.4byte	.LFE79-.LFB79
 19477 00b8 00000000 		.4byte	.LFB95
 19478 00bc 40000000 		.4byte	.LFE95-.LFB95
 19479 00c0 00000000 		.4byte	.LFB101
 19480 00c4 10000000 		.4byte	.LFE101-.LFB101
ARM GAS  C:\Users\Revanth\AppData\Local\Temp\ccbqjHa5.s 			page 405


 19481 00c8 00000000 		.4byte	.LFB102
 19482 00cc 98000000 		.4byte	.LFE102-.LFB102
 19483 00d0 00000000 		.4byte	.LFB103
 19484 00d4 EC000000 		.4byte	.LFE103-.LFB103
 19485 00d8 00000000 		.4byte	.LFB104
 19486 00dc 3E000000 		.4byte	.LFE104-.LFB104
 19487 00e0 00000000 		.4byte	.LFB65
 19488 00e4 26000000 		.4byte	.LFE65-.LFB65
 19489 00e8 00000000 		.4byte	.LFB105
 19490 00ec 88020000 		.4byte	.LFE105-.LFB105
 19491 00f0 00000000 		.4byte	.LFB106
 19492 00f4 3C000000 		.4byte	.LFE106-.LFB106
 19493 00f8 00000000 		.4byte	.LFB107
 19494 00fc 54000000 		.4byte	.LFE107-.LFB107
 19495 0100 00000000 		.4byte	.LFB71
 19496 0104 00010000 		.4byte	.LFE71-.LFB71
 19497 0108 00000000 		.4byte	.LFB70
 19498 010c 8C000000 		.4byte	.LFE70-.LFB70
 19499 0110 00000000 		.4byte	.LFB73
 19500 0114 00010000 		.4byte	.LFE73-.LFB73
 19501 0118 00000000 		.4byte	.LFB72
 19502 011c 8C000000 		.4byte	.LFE72-.LFB72
 19503 0120 00000000 		.4byte	.LFB75
 19504 0124 00010000 		.4byte	.LFE75-.LFB75
 19505 0128 00000000 		.4byte	.LFB74
 19506 012c 9C000000 		.4byte	.LFE74-.LFB74
 19507 0130 00000000 		.4byte	.LFB77
 19508 0134 F0000000 		.4byte	.LFE77-.LFB77
 19509 0138 00000000 		.4byte	.LFB76
 19510 013c 9C000000 		.4byte	.LFE76-.LFB76
 19511 0140 00000000 		.4byte	.LFB78
 19512 0144 A4000000 		.4byte	.LFE78-.LFB78
 19513 0148 00000000 		.4byte	.LFB108
 19514 014c 10000000 		.4byte	.LFE108-.LFB108
 19515 0150 00000000 		.4byte	.LFB66
 19516 0154 C0010000 		.4byte	.LFE66-.LFB66
 19517 0158 00000000 		.4byte	.LFB67
 19518 015c C0010000 		.4byte	.LFE67-.LFB67
 19519 0160 00000000 		.4byte	.LFB68
 19520 0164 B4010000 		.4byte	.LFE68-.LFB68
 19521 0168 00000000 		.4byte	.LFB69
 19522 016c 84010000 		.4byte	.LFE69-.LFB69
 19523 0170 00000000 		.4byte	.LFB109
 19524 0174 10000000 		.4byte	.LFE109-.LFB109
 19525 0178 00000000 		.4byte	.LFB110
 19526 017c B8010000 		.4byte	.LFE110-.LFB110
 19527 0180 00000000 		.4byte	.LFB111
 19528 0184 80000000 		.4byte	.LFE111-.LFB111
 19529 0188 00000000 		.4byte	.LFB91
 19530 018c D8080000 		.4byte	.LFE91-.LFB91
 19531 0190 00000000 		.4byte	0
 19532 0194 00000000 		.4byte	0
 19533              		.section	.debug_ranges,"",%progbits
 19534              	.Ldebug_ranges0:
 19535 0000 00000000 		.4byte	.LFB64
 19536 0004 24000000 		.4byte	.LFE64
 19537 0008 00000000 		.4byte	.LFB80
ARM GAS  C:\Users\Revanth\AppData\Local\Temp\ccbqjHa5.s 			page 406


 19538 000c 50000000 		.4byte	.LFE80
 19539 0010 00000000 		.4byte	.LFB86
 19540 0014 08000000 		.4byte	.LFE86
 19541 0018 00000000 		.4byte	.LFB88
 19542 001c 18000000 		.4byte	.LFE88
 19543 0020 00000000 		.4byte	.LFB89
 19544 0024 18000000 		.4byte	.LFE89
 19545 0028 00000000 		.4byte	.LFB87
 19546 002c 2C000000 		.4byte	.LFE87
 19547 0030 00000000 		.4byte	.LFB90
 19548 0034 44000000 		.4byte	.LFE90
 19549 0038 00000000 		.4byte	.LFB93
 19550 003c 02000000 		.4byte	.LFE93
 19551 0040 00000000 		.4byte	.LFB96
 19552 0044 18000000 		.4byte	.LFE96
 19553 0048 00000000 		.4byte	.LFB97
 19554 004c 18000000 		.4byte	.LFE97
 19555 0050 00000000 		.4byte	.LFB98
 19556 0054 2C000000 		.4byte	.LFE98
 19557 0058 00000000 		.4byte	.LFB83
 19558 005c 24000000 		.4byte	.LFE83
 19559 0060 00000000 		.4byte	.LFB84
 19560 0064 40000000 		.4byte	.LFE84
 19561 0068 00000000 		.4byte	.LFB85
 19562 006c 2C000000 		.4byte	.LFE85
 19563 0070 00000000 		.4byte	.LFB92
 19564 0074 F0020000 		.4byte	.LFE92
 19565 0078 00000000 		.4byte	.LFB94
 19566 007c 38000000 		.4byte	.LFE94
 19567 0080 00000000 		.4byte	.LFB99
 19568 0084 24000000 		.4byte	.LFE99
 19569 0088 00000000 		.4byte	.LFB81
 19570 008c 70000000 		.4byte	.LFE81
 19571 0090 00000000 		.4byte	.LFB82
 19572 0094 70000000 		.4byte	.LFE82
 19573 0098 00000000 		.4byte	.LFB100
 19574 009c 24000000 		.4byte	.LFE100
 19575 00a0 00000000 		.4byte	.LFB79
 19576 00a4 7C000000 		.4byte	.LFE79
 19577 00a8 00000000 		.4byte	.LFB95
 19578 00ac 40000000 		.4byte	.LFE95
 19579 00b0 00000000 		.4byte	.LFB101
 19580 00b4 10000000 		.4byte	.LFE101
 19581 00b8 00000000 		.4byte	.LFB102
 19582 00bc 98000000 		.4byte	.LFE102
 19583 00c0 00000000 		.4byte	.LFB103
 19584 00c4 EC000000 		.4byte	.LFE103
 19585 00c8 00000000 		.4byte	.LFB104
 19586 00cc 3E000000 		.4byte	.LFE104
 19587 00d0 00000000 		.4byte	.LFB65
 19588 00d4 26000000 		.4byte	.LFE65
 19589 00d8 00000000 		.4byte	.LFB105
 19590 00dc 88020000 		.4byte	.LFE105
 19591 00e0 00000000 		.4byte	.LFB106
 19592 00e4 3C000000 		.4byte	.LFE106
 19593 00e8 00000000 		.4byte	.LFB107
 19594 00ec 54000000 		.4byte	.LFE107
ARM GAS  C:\Users\Revanth\AppData\Local\Temp\ccbqjHa5.s 			page 407


 19595 00f0 00000000 		.4byte	.LFB71
 19596 00f4 00010000 		.4byte	.LFE71
 19597 00f8 00000000 		.4byte	.LFB70
 19598 00fc 8C000000 		.4byte	.LFE70
 19599 0100 00000000 		.4byte	.LFB73
 19600 0104 00010000 		.4byte	.LFE73
 19601 0108 00000000 		.4byte	.LFB72
 19602 010c 8C000000 		.4byte	.LFE72
 19603 0110 00000000 		.4byte	.LFB75
 19604 0114 00010000 		.4byte	.LFE75
 19605 0118 00000000 		.4byte	.LFB74
 19606 011c 9C000000 		.4byte	.LFE74
 19607 0120 00000000 		.4byte	.LFB77
 19608 0124 F0000000 		.4byte	.LFE77
 19609 0128 00000000 		.4byte	.LFB76
 19610 012c 9C000000 		.4byte	.LFE76
 19611 0130 00000000 		.4byte	.LFB78
 19612 0134 A4000000 		.4byte	.LFE78
 19613 0138 00000000 		.4byte	.LFB108
 19614 013c 10000000 		.4byte	.LFE108
 19615 0140 00000000 		.4byte	.LFB66
 19616 0144 C0010000 		.4byte	.LFE66
 19617 0148 00000000 		.4byte	.LFB67
 19618 014c C0010000 		.4byte	.LFE67
 19619 0150 00000000 		.4byte	.LFB68
 19620 0154 B4010000 		.4byte	.LFE68
 19621 0158 00000000 		.4byte	.LFB69
 19622 015c 84010000 		.4byte	.LFE69
 19623 0160 00000000 		.4byte	.LFB109
 19624 0164 10000000 		.4byte	.LFE109
 19625 0168 00000000 		.4byte	.LFB110
 19626 016c B8010000 		.4byte	.LFE110
 19627 0170 00000000 		.4byte	.LFB111
 19628 0174 80000000 		.4byte	.LFE111
 19629 0178 00000000 		.4byte	.LFB91
 19630 017c D8080000 		.4byte	.LFE91
 19631 0180 00000000 		.4byte	0
 19632 0184 00000000 		.4byte	0
 19633              		.section	.debug_line,"",%progbits
 19634              	.Ldebug_line0:
 19635 0000 F90B0000 		.section	.debug_str,"MS",%progbits,1
 19635      0200B903 
 19635      00000201 
 19635      FB0E0D00 
 19635      01010101 
 19636              	.LASF182:
 19637 0000 77616974 		.ascii	"wait_interrupt_StartEx\000"
 19637      5F696E74 
 19637      65727275 
 19637      70745F53 
 19637      74617274 
 19638              	.LASF106:
 19639 0017 636F756E 		.ascii	"count\000"
 19639      7400
 19640              	.LASF23:
 19641 001d 75696E74 		.ascii	"uint16\000"
 19641      313600
ARM GAS  C:\Users\Revanth\AppData\Local\Temp\ccbqjHa5.s 			page 408


 19642              	.LASF179:
 19643 0024 4C454432 		.ascii	"LED2_Write\000"
 19643      5F577269 
 19643      746500
 19644              	.LASF133:
 19645 002f 486F6D65 		.ascii	"HomeZ_done_Buffer\000"
 19645      5A5F646F 
 19645      6E655F42 
 19645      75666665 
 19645      7200
 19646              	.LASF168:
 19647 0041 73707269 		.ascii	"sprintf\000"
 19647      6E746600 
 19648              	.LASF69:
 19649 0049 77616974 		.ascii	"wait_status\000"
 19649      5F737461 
 19649      74757300 
 19650              	.LASF3:
 19651 0055 5F5F7569 		.ascii	"__uint8_t\000"
 19651      6E74385F 
 19651      7400
 19652              	.LASF145:
 19653 005f 50574D5F 		.ascii	"PWM_BarcodeCondenser_LED_WriteCompare\000"
 19653      42617263 
 19653      6F646543 
 19653      6F6E6465 
 19653      6E736572 
 19654              	.LASF100:
 19655 0085 64697265 		.ascii	"direction\000"
 19655      6374696F 
 19655      6E00
 19656              	.LASF52:
 19657 008f 49735F55 		.ascii	"Is_USB_Unpluged\000"
 19657      53425F55 
 19657      6E706C75 
 19657      67656400 
 19658              	.LASF162:
 19659 009f 7374726E 		.ascii	"strncpy\000"
 19659      63707900 
 19660              	.LASF189:
 19661 00a7 544D4335 		.ascii	"TMC5160_MotorX_EN_Write\000"
 19661      3136305F 
 19661      4D6F746F 
 19661      72585F45 
 19661      4E5F5772 
 19662              	.LASF188:
 19663 00bf 544D4335 		.ascii	"TMC5160_MotorY_EN_Write\000"
 19663      3136305F 
 19663      4D6F746F 
 19663      72595F45 
 19663      4E5F5772 
 19664              	.LASF187:
 19665 00d7 544D4335 		.ascii	"TMC5160_MotorZ_EN_Write\000"
 19665      3136305F 
 19665      4D6F746F 
 19665      725A5F45 
 19665      4E5F5772 
ARM GAS  C:\Users\Revanth\AppData\Local\Temp\ccbqjHa5.s 			page 409


 19666              	.LASF115:
 19667 00ef 5A5F5175 		.ascii	"Z_QuadPosition\000"
 19667      6164506F 
 19667      73697469 
 19667      6F6E00
 19668              	.LASF144:
 19669 00fe 50574D5F 		.ascii	"PWM_BarcodeCondenser_LED_Start\000"
 19669      42617263 
 19669      6F646543 
 19669      6F6E6465 
 19669      6E736572 
 19670              	.LASF11:
 19671 011d 6C6F6E67 		.ascii	"long long unsigned int\000"
 19671      206C6F6E 
 19671      6720756E 
 19671      7369676E 
 19671      65642069 
 19672              	.LASF38:
 19673 0134 5374725F 		.ascii	"Str_Last_One\000"
 19673      4C617374 
 19673      5F4F6E65 
 19673      00
 19674              	.LASF153:
 19675 0141 51756164 		.ascii	"QuadDec_Y_Start\000"
 19675      4465635F 
 19675      595F5374 
 19675      61727400 
 19676              	.LASF31:
 19677 0151 496E6974 		.ascii	"Initialize_PWM\000"
 19677      69616C69 
 19677      7A655F50 
 19677      574D00
 19678              	.LASF104:
 19679 0160 49544D5F 		.ascii	"ITM_RxBuffer\000"
 19679      52784275 
 19679      66666572 
 19679      00
 19680              	.LASF170:
 19681 016d 4379536F 		.ascii	"CySoftwareReset\000"
 19681      66747761 
 19681      72655265 
 19681      73657400 
 19682              	.LASF128:
 19683 017d 486F6D65 		.ascii	"HomeY_done\000"
 19683      595F646F 
 19683      6E6500
 19684              	.LASF183:
 19685 0188 77616974 		.ascii	"wait_timer_Stop\000"
 19685      5F74696D 
 19685      65725F53 
 19685      746F7000 
 19686              	.LASF60:
 19687 0198 41444452 		.ascii	"ADDR\000"
 19687      00
 19688              	.LASF65:
 19689 019d 496E6974 		.ascii	"Initialize_Motor\000"
 19689      69616C69 
ARM GAS  C:\Users\Revanth\AppData\Local\Temp\ccbqjHa5.s 			page 410


 19689      7A655F4D 
 19689      6F746F72 
 19689      00
 19690              	.LASF63:
 19691 01ae 57726974 		.ascii	"Write_32bitSPI_DATA\000"
 19691      655F3332 
 19691      62697453 
 19691      50495F44 
 19691      41544100 
 19692              	.LASF0:
 19693 01c2 7369676E 		.ascii	"signed char\000"
 19693      65642063 
 19693      68617200 
 19694              	.LASF33:
 19695 01ce 52656164 		.ascii	"Read_All_Optical_Encoder\000"
 19695      5F416C6C 
 19695      5F4F7074 
 19695      6963616C 
 19695      5F456E63 
 19696              	.LASF157:
 19697 01e7 51756164 		.ascii	"QuadDec_Y_GetCounter\000"
 19697      4465635F 
 19697      595F4765 
 19697      74436F75 
 19697      6E746572 
 19698              	.LASF123:
 19699 01fc 545F5069 		.ascii	"T_Pitchfactor\000"
 19699      74636866 
 19699      6163746F 
 19699      7200
 19700              	.LASF26:
 19701 020a 5365745F 		.ascii	"Set_Backlight_LED\000"
 19701      4261636B 
 19701      6C696768 
 19701      745F4C45 
 19701      4400
 19702              	.LASF111:
 19703 021c 6F696C5F 		.ascii	"oil_speed\000"
 19703      73706565 
 19703      6400
 19704              	.LASF25:
 19705 0226 696E7433 		.ascii	"int32\000"
 19705      3200
 19706              	.LASF89:
 19707 022c 676F546F 		.ascii	"goTo_XYZ\000"
 19707      5F58595A 
 19707      00
 19708              	.LASF90:
 19709 0235 75706461 		.ascii	"update_max_velocity\000"
 19709      74655F6D 
 19709      61785F76 
 19709      656C6F63 
 19709      69747900 
 19710              	.LASF46:
 19711 0249 75617274 		.ascii	"uart_Buffer\000"
 19711      5F427566 
 19711      66657200 
ARM GAS  C:\Users\Revanth\AppData\Local\Temp\ccbqjHa5.s 			page 411


 19712              	.LASF117:
 19713 0255 456E636F 		.ascii	"EncoderTZSelect\000"
 19713      64657254 
 19713      5A53656C 
 19713      65637400 
 19714              	.LASF143:
 19715 0265 50574D5F 		.ascii	"PWM_CondenserLED_WriteCompare\000"
 19715      436F6E64 
 19715      656E7365 
 19715      724C4544 
 19715      5F577269 
 19716              	.LASF7:
 19717 0283 6C6F6E67 		.ascii	"long int\000"
 19717      20696E74 
 19717      00
 19718              	.LASF109:
 19719 028c 54696D65 		.ascii	"Time_Out_Error\000"
 19719      5F4F7574 
 19719      5F457272 
 19719      6F7200
 19720              	.LASF99:
 19721 029b 74696D65 		.ascii	"time_ms\000"
 19721      5F6D7300 
 19722              	.LASF137:
 19723 02a3 73746174 		.ascii	"status_x\000"
 19723      75735F78 
 19723      00
 19724              	.LASF138:
 19725 02ac 73746174 		.ascii	"status_y\000"
 19725      75735F79 
 19725      00
 19726              	.LASF139:
 19727 02b5 73746174 		.ascii	"status_z\000"
 19727      75735F7A 
 19727      00
 19728              	.LASF169:
 19729 02be 5553425F 		.ascii	"USB_IsConfigurationChanged\000"
 19729      4973436F 
 19729      6E666967 
 19729      75726174 
 19729      696F6E43 
 19730              	.LASF118:
 19731 02d9 42756666 		.ascii	"Buffer_Z_QuadPosition\000"
 19731      65725F5A 
 19731      5F517561 
 19731      64506F73 
 19731      6974696F 
 19732              	.LASF22:
 19733 02ef 75696E74 		.ascii	"uint8\000"
 19733      3800
 19734              	.LASF112:
 19735 02f5 6F696C5F 		.ascii	"oil_dir\000"
 19735      64697200 
 19736              	.LASF10:
 19737 02fd 6C6F6E67 		.ascii	"long long int\000"
 19737      206C6F6E 
 19737      6720696E 
ARM GAS  C:\Users\Revanth\AppData\Local\Temp\ccbqjHa5.s 			page 412


 19737      7400
 19738              	.LASF166:
 19739 030b 5553425F 		.ascii	"USB_CDC_Init\000"
 19739      4344435F 
 19739      496E6974 
 19739      00
 19740              	.LASF14:
 19741 0318 75696E74 		.ascii	"uint16_t\000"
 19741      31365F74 
 19741      00
 19742              	.LASF140:
 19743 0321 6D735F63 		.ascii	"ms_count\000"
 19743      6F756E74 
 19743      00
 19744              	.LASF80:
 19745 032a 506F7369 		.ascii	"Position_Y_Requested\000"
 19745      74696F6E 
 19745      5F595F52 
 19745      65717565 
 19745      73746564 
 19746              	.LASF176:
 19747 033f 50696E5F 		.ascii	"Pin_CSMotorO_Write\000"
 19747      43534D6F 
 19747      746F724F 
 19747      5F577269 
 19747      746500
 19748              	.LASF132:
 19749 0352 486F6D65 		.ascii	"HomeY_done_Buffer\000"
 19749      595F646F 
 19749      6E655F42 
 19749      75666665 
 19749      7200
 19750              	.LASF58:
 19751 0364 44617461 		.ascii	"Data_To_Transfer\000"
 19751      5F546F5F 
 19751      5472616E 
 19751      73666572 
 19751      00
 19752              	.LASF193:
 19753 0375 77616974 		.ascii	"wait_interrupt_Handler\000"
 19753      5F696E74 
 19753      65727275 
 19753      70745F48 
 19753      616E646C 
 19754              	.LASF4:
 19755 038c 5F5F7569 		.ascii	"__uint16_t\000"
 19755      6E743136 
 19755      5F7400
 19756              	.LASF8:
 19757 0397 5F5F7569 		.ascii	"__uint32_t\000"
 19757      6E743332 
 19757      5F7400
 19758              	.LASF96:
 19759 03a2 75706461 		.ascii	"update_max_accelaration\000"
 19759      74655F6D 
 19759      61785F61 
 19759      6363656C 
ARM GAS  C:\Users\Revanth\AppData\Local\Temp\ccbqjHa5.s 			page 413


 19759      61726174 
 19760              	.LASF186:
 19761 03ba 544D4335 		.ascii	"TMC5160_MotorO_EN_Write\000"
 19761      3136305F 
 19761      4D6F746F 
 19761      724F5F45 
 19761      4E5F5772 
 19762              	.LASF28:
 19763 03d2 76616C75 		.ascii	"value\000"
 19763      6500
 19764              	.LASF91:
 19765 03d8 76656C6F 		.ascii	"velocity\000"
 19765      63697479 
 19765      00
 19766              	.LASF59:
 19767 03e1 52656164 		.ascii	"Read_32bitSPI_DATA\000"
 19767      5F333262 
 19767      69745350 
 19767      495F4441 
 19767      544100
 19768              	.LASF12:
 19769 03f4 756E7369 		.ascii	"unsigned int\000"
 19769      676E6564 
 19769      20696E74 
 19769      00
 19770              	.LASF171:
 19771 0401 5350494D 		.ascii	"SPIM_WriteTxData\000"
 19771      5F577269 
 19771      74655478 
 19771      44617461 
 19771      00
 19772              	.LASF55:
 19773 0412 5350495F 		.ascii	"SPI_MOTOR_CHIP_SELECT\000"
 19773      4D4F544F 
 19773      525F4348 
 19773      49505F53 
 19773      454C4543 
 19774              	.LASF53:
 19775 0428 646F6E74 		.ascii	"dont_Execute_1st_Time\000"
 19775      5F457865 
 19775      63757465 
 19775      5F317374 
 19775      5F54696D 
 19776              	.LASF122:
 19777 043e 5A5F5069 		.ascii	"Z_Pitchfactor\000"
 19777      74636866 
 19777      6163746F 
 19777      7200
 19778              	.LASF110:
 19779 044c 636F6D6D 		.ascii	"command\000"
 19779      616E6400 
 19780              	.LASF47:
 19781 0454 7365745F 		.ascii	"set_BarcodeCondenser_LED\000"
 19781      42617263 
 19781      6F646543 
 19781      6F6E6465 
 19781      6E736572 
ARM GAS  C:\Users\Revanth\AppData\Local\Temp\ccbqjHa5.s 			page 414


 19782              	.LASF95:
 19783 046d 686F6D65 		.ascii	"homeT\000"
 19783      5400
 19784              	.LASF9:
 19785 0473 6C6F6E67 		.ascii	"long unsigned int\000"
 19785      20756E73 
 19785      69676E65 
 19785      6420696E 
 19785      7400
 19786              	.LASF92:
 19787 0485 686F6D65 		.ascii	"homeX\000"
 19787      5800
 19788              	.LASF93:
 19789 048b 686F6D65 		.ascii	"homeY\000"
 19789      5900
 19790              	.LASF94:
 19791 0491 686F6D65 		.ascii	"homeZ\000"
 19791      5A00
 19792              	.LASF180:
 19793 0497 544D4335 		.ascii	"TMC5160_MotorT_EN_Write\000"
 19793      3136305F 
 19793      4D6F746F 
 19793      72545F45 
 19793      4E5F5772 
 19794              	.LASF61:
 19795 04af 6D6F746F 		.ascii	"motor_status\000"
 19795      725F7374 
 19795      61747573 
 19795      00
 19796              	.LASF174:
 19797 04bc 50696E5F 		.ascii	"Pin_CSMotorZ_Write\000"
 19797      43534D6F 
 19797      746F725A 
 19797      5F577269 
 19797      746500
 19798              	.LASF54:
 19799 04cf 64617461 		.ascii	"data\000"
 19799      00
 19800              	.LASF5:
 19801 04d4 73686F72 		.ascii	"short unsigned int\000"
 19801      7420756E 
 19801      7369676E 
 19801      65642069 
 19801      6E7400
 19802              	.LASF49:
 19803 04e7 55415254 		.ascii	"UART_print_all_values\000"
 19803      5F707269 
 19803      6E745F61 
 19803      6C6C5F76 
 19803      616C7565 
 19804              	.LASF24:
 19805 04fd 696E7438 		.ascii	"int8\000"
 19805      00
 19806              	.LASF152:
 19807 0502 51756164 		.ascii	"QuadDec_TZ_Start\000"
 19807      4465635F 
 19807      545A5F53 
ARM GAS  C:\Users\Revanth\AppData\Local\Temp\ccbqjHa5.s 			page 415


 19807      74617274 
 19807      00
 19808              	.LASF194:
 19809 0513 5553425F 		.ascii	"USB_Detect_Indication_Via_LED\000"
 19809      44657465 
 19809      63745F49 
 19809      6E646963 
 19809      6174696F 
 19810              	.LASF130:
 19811 0531 486F6D65 		.ascii	"HomeT_done\000"
 19811      545F646F 
 19811      6E6500
 19812              	.LASF164:
 19813 053c 5553425F 		.ascii	"USB_Start\000"
 19813      53746172 
 19813      7400
 19814              	.LASF32:
 19815 0546 496E6974 		.ascii	"Initialize_And_Start_All_Opt_Encoder\000"
 19815      69616C69 
 19815      7A655F41 
 19815      6E645F53 
 19815      74617274 
 19816              	.LASF40:
 19817 056b 42656570 		.ascii	"Beep_Twice\000"
 19817      5F547769 
 19817      636500
 19818              	.LASF119:
 19819 0576 42756666 		.ascii	"Buffer_T_QuadPosition\000"
 19819      65725F54 
 19819      5F517561 
 19819      64506F73 
 19819      6974696F 
 19820              	.LASF87:
 19821 058c 676F546F 		.ascii	"goTo_T\000"
 19821      5F5400
 19822              	.LASF160:
 19823 0593 55415254 		.ascii	"UART_PCB_LOG_PutString\000"
 19823      5F504342 
 19823      5F4C4F47 
 19823      5F507574 
 19823      53747269 
 19824              	.LASF75:
 19825 05aa 676F546F 		.ascii	"goTo_X\000"
 19825      5F5800
 19826              	.LASF79:
 19827 05b1 676F546F 		.ascii	"goTo_Y\000"
 19827      5F5900
 19828              	.LASF83:
 19829 05b8 676F546F 		.ascii	"goTo_Z\000"
 19829      5F5A00
 19830              	.LASF158:
 19831 05bf 5553425F 		.ascii	"USB_GetAll\000"
 19831      47657441 
 19831      6C6C00
 19832              	.LASF120:
 19833 05ca 585F5069 		.ascii	"X_Pitchfactor\000"
 19833      74636866 
ARM GAS  C:\Users\Revanth\AppData\Local\Temp\ccbqjHa5.s 			page 416


 19833      6163746F 
 19833      7200
 19834              	.LASF129:
 19835 05d8 486F6D65 		.ascii	"HomeZ_done\000"
 19835      5A5F646F 
 19835      6E6500
 19836              	.LASF34:
 19837 05e3 436C6561 		.ascii	"Clear_USB_RX_Buffer\000"
 19837      725F5553 
 19837      425F5258 
 19837      5F427566 
 19837      66657200 
 19838              	.LASF147:
 19839 05f7 50574D5F 		.ascii	"PWM_Buzzer_WriteCompare\000"
 19839      42757A7A 
 19839      65725F57 
 19839      72697465 
 19839      436F6D70 
 19840              	.LASF56:
 19841 060f 4D6F746F 		.ascii	"Motor\000"
 19841      7200
 19842              	.LASF43:
 19843 0615 4572726F 		.ascii	"Error\000"
 19843      7200
 19844              	.LASF27:
 19845 061b 456E6162 		.ascii	"Enable_Encoder_T\000"
 19845      6C655F45 
 19845      6E636F64 
 19845      65725F54 
 19845      00
 19846              	.LASF192:
 19847 062c 433A5C55 		.ascii	"C:\\Users\\Revanth\\Documents\\GitHub\\AS76_FFP\\AS"
 19847      73657273 
 19847      5C526576 
 19847      616E7468 
 19847      5C446F63 
 19848 0659 37365F46 		.ascii	"76_FFP\\AS76_FFP5.cydsn\000"
 19848      46505C41 
 19848      5337365F 
 19848      46465035 
 19848      2E637964 
 19849              	.LASF184:
 19850 0670 51756164 		.ascii	"QuadDec_X_SetCounter\000"
 19850      4465635F 
 19850      585F5365 
 19850      74436F75 
 19850      6E746572 
 19851              	.LASF30:
 19852 0685 456E6162 		.ascii	"Enable_Encoder_Z\000"
 19852      6C655F45 
 19852      6E636F64 
 19852      65725F5A 
 19852      00
 19853              	.LASF18:
 19854 0696 73697A65 		.ascii	"sizetype\000"
 19854      74797065 
 19854      00
ARM GAS  C:\Users\Revanth\AppData\Local\Temp\ccbqjHa5.s 			page 417


 19855              	.LASF39:
 19856 069f 42656570 		.ascii	"Beep_Once\000"
 19856      5F4F6E63 
 19856      6500
 19857              	.LASF17:
 19858 06a9 6C6F6E67 		.ascii	"long double\000"
 19858      20646F75 
 19858      626C6500 
 19859              	.LASF131:
 19860 06b5 486F6D65 		.ascii	"HomeX_done_Buffer\000"
 19860      585F646F 
 19860      6E655F42 
 19860      75666665 
 19860      7200
 19861              	.LASF150:
 19862 06c7 51756164 		.ascii	"QuadDec_TZ_SetCounter\000"
 19862      4465635F 
 19862      545A5F53 
 19862      6574436F 
 19862      756E7465 
 19863              	.LASF178:
 19864 06dd 4C454433 		.ascii	"LED3_Write\000"
 19864      5F577269 
 19864      746500
 19865              	.LASF114:
 19866 06e8 595F5175 		.ascii	"Y_QuadPosition\000"
 19866      6164506F 
 19866      73697469 
 19866      6F6E00
 19867              	.LASF41:
 19868 06f7 4C6F6E67 		.ascii	"Long_Beep\000"
 19868      5F426565 
 19868      7000
 19869              	.LASF78:
 19870 0701 456E636F 		.ascii	"Encoder_Position_Y_Requested\000"
 19870      6465725F 
 19870      506F7369 
 19870      74696F6E 
 19870      5F595F52 
 19871              	.LASF181:
 19872 071e 77616974 		.ascii	"wait_timer_Start\000"
 19872      5F74696D 
 19872      65725F53 
 19872      74617274 
 19872      00
 19873              	.LASF148:
 19874 072f 43794465 		.ascii	"CyDelay\000"
 19874      6C617900 
 19875              	.LASF68:
 19876 0737 57616974 		.ascii	"WaitTillPositionReached\000"
 19876      54696C6C 
 19876      506F7369 
 19876      74696F6E 
 19876      52656163 
 19877              	.LASF107:
 19878 074f 5553425F 		.ascii	"USB_received\000"
 19878      72656365 
ARM GAS  C:\Users\Revanth\AppData\Local\Temp\ccbqjHa5.s 			page 418


 19878      69766564 
 19878      00
 19879              	.LASF124:
 19880 075c 4D6F746F 		.ascii	"Motor_Speed_X\000"
 19880      725F5370 
 19880      6565645F 
 19880      5800
 19881              	.LASF125:
 19882 076a 4D6F746F 		.ascii	"Motor_Speed_Y\000"
 19882      725F5370 
 19882      6565645F 
 19882      5900
 19883              	.LASF126:
 19884 0778 4D6F746F 		.ascii	"Motor_Speed_Z\000"
 19884      725F5370 
 19884      6565645F 
 19884      5A00
 19885              	.LASF154:
 19886 0786 51756164 		.ascii	"QuadDec_X_Start\000"
 19886      4465635F 
 19886      585F5374 
 19886      61727400 
 19887              	.LASF66:
 19888 0796 4973506F 		.ascii	"IsPositionReached\000"
 19888      73697469 
 19888      6F6E5265 
 19888      61636865 
 19888      6400
 19889              	.LASF103:
 19890 07a8 50726F63 		.ascii	"Process_USB_Data\000"
 19890      6573735F 
 19890      5553425F 
 19890      44617461 
 19890      00
 19891              	.LASF116:
 19892 07b9 545F5175 		.ascii	"T_QuadPosition\000"
 19892      6164506F 
 19892      73697469 
 19892      6F6E00
 19893              	.LASF97:
 19894 07c8 61636365 		.ascii	"accelaration\000"
 19894      6C617261 
 19894      74696F6E 
 19894      00
 19895              	.LASF165:
 19896 07d5 5553425F 		.ascii	"USB_GetConfiguration\000"
 19896      47657443 
 19896      6F6E6669 
 19896      67757261 
 19896      74696F6E 
 19897              	.LASF177:
 19898 07ea 5350494D 		.ascii	"SPIM_ReadRxData\000"
 19898      5F526561 
 19898      64527844 
 19898      61746100 
 19899              	.LASF113:
 19900 07fa 585F5175 		.ascii	"X_QuadPosition\000"
ARM GAS  C:\Users\Revanth\AppData\Local\Temp\ccbqjHa5.s 			page 419


 19900      6164506F 
 19900      73697469 
 19900      6F6E00
 19901              	.LASF98:
 19902 0809 72756E5F 		.ascii	"run_pump\000"
 19902      70756D70 
 19902      00
 19903              	.LASF163:
 19904 0812 5553425F 		.ascii	"USB_PutData\000"
 19904      50757444 
 19904      61746100 
 19905              	.LASF51:
 19906 081e 5F426F6F 		.ascii	"_Bool\000"
 19906      6C00
 19907              	.LASF15:
 19908 0824 696E7433 		.ascii	"int32_t\000"
 19908      325F7400 
 19909              	.LASF1:
 19910 082c 756E7369 		.ascii	"unsigned char\000"
 19910      676E6564 
 19910      20636861 
 19910      7200
 19911              	.LASF191:
 19912 083a 41533736 		.ascii	"AS76.c\000"
 19912      2E6300
 19913              	.LASF82:
 19914 0841 456E636F 		.ascii	"Encoder_Position_Z_Requested\000"
 19914      6465725F 
 19914      506F7369 
 19914      74696F6E 
 19914      5F5A5F52 
 19915              	.LASF159:
 19916 085e 7374726E 		.ascii	"strncmp\000"
 19916      636D7000 
 19917              	.LASF44:
 19918 0866 496E6974 		.ascii	"Initialize_USB\000"
 19918      69616C69 
 19918      7A655F55 
 19918      534200
 19919              	.LASF2:
 19920 0875 73686F72 		.ascii	"short int\000"
 19920      7420696E 
 19920      7400
 19921              	.LASF167:
 19922 087f 5553425F 		.ascii	"USB_EnableSofInt\000"
 19922      456E6162 
 19922      6C65536F 
 19922      66496E74 
 19922      00
 19923              	.LASF48:
 19924 0890 7365745F 		.ascii	"set_CondenserLED\000"
 19924      436F6E64 
 19924      656E7365 
 19924      724C4544 
 19924      00
 19925              	.LASF42:
 19926 08a1 53656E64 		.ascii	"Send_Feedback_to_USB\000"
ARM GAS  C:\Users\Revanth\AppData\Local\Temp\ccbqjHa5.s 			page 420


 19926      5F466565 
 19926      64626163 
 19926      6B5F746F 
 19926      5F555342 
 19927              	.LASF108:
 19928 08b6 5553425F 		.ascii	"USB_transmit\000"
 19928      7472616E 
 19928      736D6974 
 19928      00
 19929              	.LASF88:
 19930 08c3 506F7369 		.ascii	"Position_T_Requested\000"
 19930      74696F6E 
 19930      5F545F52 
 19930      65717565 
 19930      73746564 
 19931              	.LASF190:
 19932 08d8 474E5520 		.ascii	"GNU C11 5.4.1 20160609 (release) [ARM/embedded-5-br"
 19932      43313120 
 19932      352E342E 
 19932      31203230 
 19932      31363036 
 19933 090b 616E6368 		.ascii	"anch revision 237715] -mcpu=cortex-m3 -mthumb -g -O"
 19933      20726576 
 19933      6973696F 
 19933      6E203233 
 19933      37373135 
 19934 093e 67202D66 		.ascii	"g -ffunction-sections -ffat-lto-objects\000"
 19934      66756E63 
 19934      74696F6E 
 19934      2D736563 
 19934      74696F6E 
 19935              	.LASF161:
 19936 0966 43794465 		.ascii	"CyDelayUs\000"
 19936      6C617955 
 19936      7300
 19937              	.LASF146:
 19938 0970 50574D5F 		.ascii	"PWM_Buzzer_Start\000"
 19938      42757A7A 
 19938      65725F53 
 19938      74617274 
 19938      00
 19939              	.LASF86:
 19940 0981 456E636F 		.ascii	"Encoder_Position_T_Requested\000"
 19940      6465725F 
 19940      506F7369 
 19940      74696F6E 
 19940      5F545F52 
 19941              	.LASF16:
 19942 099e 75696E74 		.ascii	"uint32_t\000"
 19942      33325F74 
 19942      00
 19943              	.LASF64:
 19944 09a7 476F746F 		.ascii	"GotoPos\000"
 19944      506F7300 
 19945              	.LASF156:
 19946 09af 51756164 		.ascii	"QuadDec_X_GetCounter\000"
 19946      4465635F 
ARM GAS  C:\Users\Revanth\AppData\Local\Temp\ccbqjHa5.s 			page 421


 19946      585F4765 
 19946      74436F75 
 19946      6E746572 
 19947              	.LASF21:
 19948 09c4 666C6F61 		.ascii	"float\000"
 19948      7400
 19949              	.LASF19:
 19950 09ca 63686172 		.ascii	"char\000"
 19950      00
 19951              	.LASF74:
 19952 09cf 656E636F 		.ascii	"encoder_error_value\000"
 19952      6465725F 
 19952      6572726F 
 19952      725F7661 
 19952      6C756500 
 19953              	.LASF127:
 19954 09e3 486F6D65 		.ascii	"HomeX_done\000"
 19954      585F646F 
 19954      6E6500
 19955              	.LASF155:
 19956 09ee 51756164 		.ascii	"QuadDec_TZ_GetCounter\000"
 19956      4465635F 
 19956      545A5F47 
 19956      6574436F 
 19956      756E7465 
 19957              	.LASF151:
 19958 0a04 456E636F 		.ascii	"Encoder_T_Z_Select_Write\000"
 19958      6465725F 
 19958      545F5A5F 
 19958      53656C65 
 19958      63745F57 
 19959              	.LASF76:
 19960 0a1d 506F7369 		.ascii	"Position_X_Requested\000"
 19960      74696F6E 
 19960      5F585F52 
 19960      65717565 
 19960      73746564 
 19961              	.LASF101:
 19962 0a32 72756E5F 		.ascii	"run_pumpvs\000"
 19962      70756D70 
 19962      767300
 19963              	.LASF6:
 19964 0a3d 5F5F696E 		.ascii	"__int32_t\000"
 19964      7433325F 
 19964      7400
 19965              	.LASF73:
 19966 0a47 6E65775F 		.ascii	"new_step\000"
 19966      73746570 
 19966      00
 19967              	.LASF71:
 19968 0a50 456E636F 		.ascii	"Encoder_Position_X_Requested\000"
 19968      6465725F 
 19968      506F7369 
 19968      74696F6E 
 19968      5F585F52 
 19969              	.LASF37:
 19970 0a6d 57726974 		.ascii	"Write_Debug_UART_Char\000"
ARM GAS  C:\Users\Revanth\AppData\Local\Temp\ccbqjHa5.s 			page 422


 19970      655F4465 
 19970      6275675F 
 19970      55415254 
 19970      5F436861 
 19971              	.LASF105:
 19972 0a83 49735F53 		.ascii	"Is_Slide_On_Gripper\000"
 19972      6C696465 
 19972      5F4F6E5F 
 19972      47726970 
 19972      70657200 
 19973              	.LASF172:
 19974 0a97 50696E5F 		.ascii	"Pin_CSMotorX_Write\000"
 19974      43534D6F 
 19974      746F7258 
 19974      5F577269 
 19974      746500
 19975              	.LASF173:
 19976 0aaa 50696E5F 		.ascii	"Pin_CSMotorY_Write\000"
 19976      43534D6F 
 19976      746F7259 
 19976      5F577269 
 19976      746500
 19977              	.LASF185:
 19978 0abd 51756164 		.ascii	"QuadDec_Y_SetCounter\000"
 19978      4465635F 
 19978      595F5365 
 19978      74436F75 
 19978      6E746572 
 19979              	.LASF142:
 19980 0ad2 50574D5F 		.ascii	"PWM_CondenserLED_Start\000"
 19980      436F6E64 
 19980      656E7365 
 19980      724C4544 
 19980      5F537461 
 19981              	.LASF62:
 19982 0ae9 5350495F 		.ascii	"SPI_DATA_VALUE\000"
 19982      44415441 
 19982      5F56414C 
 19982      554500
 19983              	.LASF121:
 19984 0af8 595F5069 		.ascii	"Y_Pitchfactor\000"
 19984      74636866 
 19984      6163746F 
 19984      7200
 19985              	.LASF67:
 19986 0b06 73746174 		.ascii	"status\000"
 19986      757300
 19987              	.LASF36:
 19988 0b0d 5553425F 		.ascii	"USB_received_temp\000"
 19988      72656365 
 19988      69766564 
 19988      5F74656D 
 19988      7000
 19989              	.LASF57:
 19990 0b1f 56616C75 		.ascii	"Value\000"
 19990      6500
 19991              	.LASF50:
ARM GAS  C:\Users\Revanth\AppData\Local\Temp\ccbqjHa5.s 			page 423


 19992 0b25 69665F61 		.ascii	"if_all_homing_done\000"
 19992      6C6C5F68 
 19992      6F6D696E 
 19992      675F646F 
 19992      6E6500
 19993              	.LASF35:
 19994 0b38 436C6561 		.ascii	"Clear_Pending_USB_Data\000"
 19994      725F5065 
 19994      6E64696E 
 19994      675F5553 
 19994      425F4461 
 19995              	.LASF13:
 19996 0b4f 75696E74 		.ascii	"uint8_t\000"
 19996      385F7400 
 19997              	.LASF134:
 19998 0b57 486F6D65 		.ascii	"HomeT_done_Buffer\000"
 19998      545F646F 
 19998      6E655F42 
 19998      75666665 
 19998      7200
 19999              	.LASF102:
 20000 0b69 73706565 		.ascii	"speed\000"
 20000      6400
 20001              	.LASF85:
 20002 0b6f 53746570 		.ascii	"Step_correction_t\000"
 20002      5F636F72 
 20002      72656374 
 20002      696F6E5F 
 20002      7400
 20003              	.LASF149:
 20004 0b81 50696E5F 		.ascii	"Pin_Backlight_Write\000"
 20004      4261636B 
 20004      6C696768 
 20004      745F5772 
 20004      69746500 
 20005              	.LASF70:
 20006 0b95 53746570 		.ascii	"Step_correction_x\000"
 20006      5F636F72 
 20006      72656374 
 20006      696F6E5F 
 20006      7800
 20007              	.LASF77:
 20008 0ba7 53746570 		.ascii	"Step_correction_y\000"
 20008      5F636F72 
 20008      72656374 
 20008      696F6E5F 
 20008      7900
 20009              	.LASF81:
 20010 0bb9 53746570 		.ascii	"Step_correction_z\000"
 20010      5F636F72 
 20010      72656374 
 20010      696F6E5F 
 20010      7A00
 20011              	.LASF135:
 20012 0bcb 50574D5F 		.ascii	"PWM_Condenser_comare_value\000"
 20012      436F6E64 
 20012      656E7365 
ARM GAS  C:\Users\Revanth\AppData\Local\Temp\ccbqjHa5.s 			page 424


 20012      725F636F 
 20012      6D617265 
 20013              	.LASF45:
 20014 0be6 57726974 		.ascii	"Write_Debug_UART_Int\000"
 20014      655F4465 
 20014      6275675F 
 20014      55415254 
 20014      5F496E74 
 20015              	.LASF136:
 20016 0bfb 50574D5F 		.ascii	"PWM_barcode_comare_value\000"
 20016      62617263 
 20016      6F64655F 
 20016      636F6D61 
 20016      72655F76 
 20017              	.LASF72:
 20018 0c14 74656D70 		.ascii	"temp\000"
 20018      00
 20019              	.LASF29:
 20020 0c19 73746570 		.ascii	"steps\000"
 20020      7300
 20021              	.LASF141:
 20022 0c1f 65786974 		.ascii	"exit_loop\000"
 20022      5F6C6F6F 
 20022      7000
 20023              	.LASF175:
 20024 0c29 50696E5F 		.ascii	"Pin_CSMotorT_Write\000"
 20024      43534D6F 
 20024      746F7254 
 20024      5F577269 
 20024      746500
 20025              	.LASF20:
 20026 0c3c 646F7562 		.ascii	"double\000"
 20026      6C6500
 20027              	.LASF84:
 20028 0c43 506F7369 		.ascii	"Position_Z_Requested\000"
 20028      74696F6E 
 20028      5F5A5F52 
 20028      65717565 
 20028      73746564 
 20029              		.ident	"GCC: (GNU Tools for ARM Embedded Processors) 5.4.1 20160609 (release) [ARM/embedded-5-bran
