ARM GAS  C:\Users\Revanth\AppData\Local\Temp\ccZixbSH.s 			page 1


   1              		.syntax unified
   2              		.cpu cortex-m3
   3              		.fpu softvfp
   4              		.eabi_attribute 20, 1
   5              		.eabi_attribute 21, 1
   6              		.eabi_attribute 23, 3
   7              		.eabi_attribute 24, 1
   8              		.eabi_attribute 25, 1
   9              		.eabi_attribute 26, 1
  10              		.eabi_attribute 30, 1
  11              		.eabi_attribute 34, 1
  12              		.eabi_attribute 18, 4
  13              		.thumb
  14              		.syntax unified
  15              		.file	"AS76.c"
  16              		.text
  17              	.Ltext0:
  18              		.cfi_sections	.debug_frame
  19              		.section	.text.wait_interrupt_Handler,"ax",%progbits
  20              		.align	2
  21              		.global	wait_interrupt_Handler
  22              		.thumb
  23              		.thumb_func
  24              		.type	wait_interrupt_Handler, %function
  25              	wait_interrupt_Handler:
  26              	.LFB64:
  27              		.file 1 "AS76.c"
   1:AS76.c        **** 
   2:AS76.c        **** /* ========================================
   3:AS76.c        **** 
   4:AS76.c        ****    Copyright Sigtuple, 2022
   5:AS76.c        ****    All Rights Reserved
   6:AS76.c        ****    UNPUBLISHED, LICENSED SOFTWARE.
   7:AS76.c        **** 
   8:AS76.c        ****    CONFIDENTIAL AND PROPRIETARY INFORMATION
   9:AS76.c        ****    WHICH IS THE PROPERTY OF SIGTUPLE.
  10:AS76.c        **** 
  11:AS76.c        ****    ========================================
  12:AS76.c        **** */
  13:AS76.c        **** #include "AS76.h"
  14:AS76.c        **** #include "variables.h"
  15:AS76.c        **** #include "project.h"
  16:AS76.c        **** #include "math.h"
  17:AS76.c        **** #include "configuration.h"
  18:AS76.c        **** #include <stdlib.h>
  19:AS76.c        **** 
  20:AS76.c        **** bool Time_Out_Error = true;
  21:AS76.c        **** unsigned int command;
  22:AS76.c        **** int Error = 0;
  23:AS76.c        **** 
  24:AS76.c        **** int32 Position_Y_Requested = 0; // Variable to hold position of Motor X in uSteps 51200 uSteps = 1 
  25:AS76.c        **** int32 Position_X_Requested = 0; // Variable to hold position of Motor X in uSteps 51200 uSteps = 1 
  26:AS76.c        **** int32 Position_Z_Requested = 0; // Variable to hold position of Motor X in uSteps 51200 uSteps = 1 
  27:AS76.c        **** int32 Position_T_Requested = 0; // Variable to hold position of Motor X in uSteps 51200 uSteps = 1 
  28:AS76.c        **** 
  29:AS76.c        **** int32 time_ms   = 0;
  30:AS76.c        **** int32 oil_speed = 0;
ARM GAS  C:\Users\Revanth\AppData\Local\Temp\ccZixbSH.s 			page 2


  31:AS76.c        **** int32 oil_dir   = 0;
  32:AS76.c        **** 
  33:AS76.c        **** volatile int32 X_QuadPosition = 0; // Variable to hold position of Motor X in encoder steps, this v
  34:AS76.c        **** volatile int32 Y_QuadPosition = 0; // Variable to hold position of Motor Y in encoder steps, this v
  35:AS76.c        **** volatile int32 Z_QuadPosition = 0; // Variable to hold position of Motor Z in encoder steps, this v
  36:AS76.c        **** volatile int32 T_QuadPosition = 0; // Variable to hold position of Motor T in encoder steps, this v
  37:AS76.c        **** int EncoderTZSelect = 0; //Variable to indicate which encoder is being currently selected Z or T
  38:AS76.c        **** int Buffer_Z_QuadPosition = 0; //Buffer variable to store Z Encoder value when T Encoder channel is
  39:AS76.c        **** int Buffer_T_QuadPosition = 0; //Buffer variable to store T Encoder value when Z Encoder channel is
  40:AS76.c        **** 
  41:AS76.c        **** float X_Pitchfactor = 12.8; //Pitchfactor = 51200/(Encoder CPR * 4), where 51200 is the uStep requi
  42:AS76.c        **** float Y_Pitchfactor = 12.8; //Pitchfactor = 51200/(Encoder CPR * 4), where 51200 is the uStep requi
  43:AS76.c        **** float Z_Pitchfactor = 3.2;  //Pitchfactor = 51200/(Encoder CPR * 4), where 51200 is the uStep requi
  44:AS76.c        **** float T_Pitchfactor = 3.2;  //Pitchfactor = 51200/(Encoder CPR * 4), where 51200 is the uStep requi
  45:AS76.c        **** 
  46:AS76.c        **** unsigned int Motor_Speed_X = (51200*6); //Default_X_Motor_Speed - 6 Rotations per second;
  47:AS76.c        **** unsigned int Motor_Speed_Y = (51200*6); //Default_Y_Motor_Speed - 6 Rotations per second;
  48:AS76.c        **** unsigned int Motor_Speed_Z = (51200*6); //Default_Z_Motor_Speed - 3 Rotations per second;
  49:AS76.c        **** 
  50:AS76.c        **** bool HomeX_done = true; //Variable to indicate if Homing procedure done  or not in X Motor, intial 
  51:AS76.c        **** bool HomeY_done = true; //Variable to indicate if Homing procedure done  or not in Y Motor, intial 
  52:AS76.c        **** bool HomeZ_done = true; //Variable to indicate if Homing procedure done  or not in Z Motor, intial 
  53:AS76.c        **** bool HomeT_done = true; //Variable to indicate if Homing procedure done  or not in T Motor, intial 
  54:AS76.c        **** 
  55:AS76.c        **** bool HomeX_done_Buffer = false; //Variable to indicate if Homing procedure done  or not in X Motor,
  56:AS76.c        **** bool HomeY_done_Buffer = false; //Variable to indicate if Homing procedure done  or not in Y Motor,
  57:AS76.c        **** bool HomeZ_done_Buffer = false; //Variable to indicate if Homing procedure done  or not in Z Motor,
  58:AS76.c        **** bool HomeT_done_Buffer = false; //Variable to indicate if Homing procedure done  or not in T Motor,
  59:AS76.c        **** 
  60:AS76.c        **** // PWM Value for Condenser LED and Barcode LED
  61:AS76.c        **** int PWM_Condenser_comare_value = 200;
  62:AS76.c        **** int PWM_barcode_comare_value = 0;
  63:AS76.c        **** 
  64:AS76.c        **** // Variable to store the status byte of the corresponding motor driver
  65:AS76.c        **** extern uint8_t status_x;
  66:AS76.c        **** extern uint8_t status_y;
  67:AS76.c        **** extern uint8_t status_z;
  68:AS76.c        **** extern uint8_t status_t;
  69:AS76.c        **** 
  70:AS76.c        **** 
  71:AS76.c        **** uint16_t ms_count = 0;
  72:AS76.c        **** bool exit_loop =0;
  73:AS76.c        **** CY_ISR(wait_interrupt_Handler) {
  28              		.loc 1 73 0
  29              		.cfi_startproc
  30              		@ args = 0, pretend = 0, frame = 0
  31              		@ frame_needed = 0, uses_anonymous_args = 0
  32              		@ link register save eliminated.
  74:AS76.c        ****     ms_count++;
  33              		.loc 1 74 0
  34 0000 074A     		ldr	r2, .L3
  35 0002 1388     		ldrh	r3, [r2]
  36 0004 0133     		adds	r3, r3, #1
  37 0006 9BB2     		uxth	r3, r3
  38 0008 1380     		strh	r3, [r2]	@ movhi
  75:AS76.c        ****      
  76:AS76.c        ****     if(ms_count == 11000) 
ARM GAS  C:\Users\Revanth\AppData\Local\Temp\ccZixbSH.s 			page 3


  39              		.loc 1 76 0
  40 000a 42F6F822 		movw	r2, #11000
  41 000e 9342     		cmp	r3, r2
  42 0010 04D1     		bne	.L1
  77:AS76.c        ****     { // ~30 second
  78:AS76.c        ****         
  79:AS76.c        ****         exit_loop = 1;
  43              		.loc 1 79 0
  44 0012 034B     		ldr	r3, .L3
  45 0014 0122     		movs	r2, #1
  46 0016 9A70     		strb	r2, [r3, #2]
  80:AS76.c        ****         ms_count = 0; // reset ms counter
  47              		.loc 1 80 0
  48 0018 0022     		movs	r2, #0
  49 001a 1A80     		strh	r2, [r3]	@ movhi
  50              	.L1:
  51 001c 7047     		bx	lr
  52              	.L4:
  53 001e 00BF     		.align	2
  54              	.L3:
  55 0020 00000000 		.word	.LANCHOR0
  56              		.cfi_endproc
  57              	.LFE64:
  58              		.size	wait_interrupt_Handler, .-wait_interrupt_Handler
  59              		.section	.text.Initialize_PWM,"ax",%progbits
  60              		.align	2
  61              		.global	Initialize_PWM
  62              		.thumb
  63              		.thumb_func
  64              		.type	Initialize_PWM, %function
  65              	Initialize_PWM:
  66              	.LFB80:
  81:AS76.c        ****     }
  82:AS76.c        **** }
  83:AS76.c        **** 
  84:AS76.c        **** //Motor Movment Functions Start-------------------------------------------------------
  85:AS76.c        **** 
  86:AS76.c        **** /* --------------------------------------------------------------------------------------------
  87:AS76.c        **** Function Name        : GotoPos
  88:AS76.c        **** 
  89:AS76.c        **** Prerequist Knowledge : TMC5160 Register Sets, Stepper Motor
  90:AS76.c        **** 
  91:AS76.c        **** Function Description : This Function is used to move the stepper motor to a desired position in the
  92:AS76.c        ****                        provided axis
  93:AS76.c        **** 
  94:AS76.c        **** Return Type & Data   : Void
  95:AS76.c        **** 
  96:AS76.c        **** Variable Updation:   : Nil
  97:AS76.c        **** 
  98:AS76.c        **** Numnber of Arguments : 2
  99:AS76.c        **** 
 100:AS76.c        **** -----Argument 1-----
 101:AS76.c        **** Name                 : Pos
 102:AS76.c        **** Tupe                 : int
 103:AS76.c        **** Description          : This Argument Represents the Target postion in 1/256 microsteps to which the
 104:AS76.c        ****                        stepper should move
 105:AS76.c        **** Condition            : Nil                       
ARM GAS  C:\Users\Revanth\AppData\Local\Temp\ccZixbSH.s 			page 4


 106:AS76.c        **** --------------------
 107:AS76.c        **** 
 108:AS76.c        **** -----Argument 2-----
 109:AS76.c        **** Name                 : Motor
 110:AS76.c        **** Tupe                 : uint8_t
 111:AS76.c        **** Description          : This Argument Represents the driver channel
 112:AS76.c        **** Condition            : This Value must range from 0x00 to 0x04 since there are only 5 channels
 113:AS76.c        ****                        available in AS76 System Configuration, condition to be checked in 
 114:AS76.c        ****                        SPI_MOTOR_CHIP_SELECT Function                       
 115:AS76.c        **** --------------------
 116:AS76.c        **** 
 117:AS76.c        **** 
 118:AS76.c        **** 
 119:AS76.c        **** ---------------------------------------------------------------------------------------------*/
 120:AS76.c        **** void GotoPos(int Pos, uint8_t Motor)
 121:AS76.c        **** {
 122:AS76.c        ****     Write_32bitSPI_DATA (0x20  , (int) 0x00000000, Motor );
 123:AS76.c        ****     Write_32bitSPI_DATA (0x05  , Pos, Motor );
 124:AS76.c        ****     Write_32bitSPI_DATA (0x2D  , Pos, Motor );   
 125:AS76.c        **** 
 126:AS76.c        **** }
 127:AS76.c        **** 
 128:AS76.c        **** ///////////////////////////////////////////////////////////////////////////////////////
 129:AS76.c        **** 
 130:AS76.c        **** /////////////////////////////////////Homing X//////////////////////////////////////////
 131:AS76.c        **** 
 132:AS76.c        **** /* --------------------------------------------------------------------------------------------
 133:AS76.c        **** Function Name        : homeX
 134:AS76.c        **** 
 135:AS76.c        **** Prerequist Knowledge : Homing of stepper motor system, TM5160 Datasheet, Encoders
 136:AS76.c        **** 
 137:AS76.c        **** Function Description : This Function is used to home the motor X, where motor moves at specific
 138:AS76.c        ****                        Low speed towards left until it hits the limit switch on the left side then 
 139:AS76.c        ****                        motor rotates 1 rotation next the motor moves at specific Low speed towards 
 140:AS76.c        ****                        left until it hits the limit switch then motor gain moves 1 rotaion with ste
 141:AS76.c        ****                        loss correction and that point TMC5160 marks as position 0 and resets the X 
 142:AS76.c        ****                        Channel encoder.
 143:AS76.c        **** 
 144:AS76.c        **** Return Type & Data   :Void
 145:AS76.c        **** 
 146:AS76.c        **** Variable Updation: status_x, Error, X_QuadPosition
 147:AS76.c        **** 
 148:AS76.c        **** Numnber of Arguments : 1
 149:AS76.c        **** 
 150:AS76.c        **** -----Argument 1-----
 151:AS76.c        **** Name                 : Motor
 152:AS76.c        **** Tupe                 : uint8_t
 153:AS76.c        **** Description          : This Argument Represents the driver channel
 154:AS76.c        **** Condition            : This Value must range from 0x00 to 0x04 since there are only 5 channels
 155:AS76.c        ****                        available in AS76 System Configuration, condition to be checked in 
 156:AS76.c        ****                        SPI_MOTOR_CHIP_SELECT Function                       
 157:AS76.c        **** --------------------
 158:AS76.c        **** 
 159:AS76.c        **** 
 160:AS76.c        **** 
 161:AS76.c        **** ---------------------------------------------------------------------------------------------*/
 162:AS76.c        **** 
ARM GAS  C:\Users\Revanth\AppData\Local\Temp\ccZixbSH.s 			page 5


 163:AS76.c        **** void homeX(uint8_t Motor)
 164:AS76.c        **** {
 165:AS76.c        ****     Write_32bitSPI_DATA (0x10  , (int) 0x00070503, TMC5160_nCS_MotorX );
 166:AS76.c        ****     update_max_velocity((307200), Motor); // Set Motor to low speed
 167:AS76.c        ****     Write_32bitSPI_DATA (0x20  , (int) 0x00000002, Motor ); // Move the motor to Left continuously
 168:AS76.c        ****     CyDelayUs(200);
 169:AS76.c        ****     Read_32bitSPI_DATA(0x04, Motor, &status_x); // Read the status register of TMC5160
 170:AS76.c        ****     CyDelayUs(500);
 171:AS76.c        ****     Read_32bitSPI_DATA(0x04, Motor, &status_x); // Read the status register of TMC5160
 172:AS76.c        ****     Write_Debug_UART_Char("Limit Switch X going to press \n");
 173:AS76.c        ****     while ( (status_x & 0x40) == 0x00) // Condition to check if the Left limit switch is pressed or
 174:AS76.c        ****     {
 175:AS76.c        ****        wait_timer_Start();
 176:AS76.c        ****        wait_interrupt_StartEx(wait_interrupt_Handler);
 177:AS76.c        ****        Read_32bitSPI_DATA(0x04, Motor, &status_x); // Read the status register of TMC5160
 178:AS76.c        ****        CyDelayUs(100);
 179:AS76.c        ****        if(exit_loop == 1)
 180:AS76.c        ****        {
 181:AS76.c        ****         Error = 4;
 182:AS76.c        ****         Send_Feedback_to_USB(Error);
 183:AS76.c        ****         wait_timer_Stop();
 184:AS76.c        ****         Write_32bitSPI_DATA (0x20  , (int) 0x00000000, Motor );
 185:AS76.c        ****         Write_32bitSPI_DATA (0x21  , (int) 0x0000000, Motor); // Mark the current postion as 0
 186:AS76.c        ****         Write_32bitSPI_DATA (0x2D  , 0x00000000, Motor ); // Set thye target position as 0
 187:AS76.c        ****         exit_loop = 0;
 188:AS76.c        ****         Error =0;
 189:AS76.c        ****         Write_Debug_UART_Char("Home X Stuck in Lopp and terminated due to timeout \n");
 190:AS76.c        ****         return;        
 191:AS76.c        ****     }
 192:AS76.c        ****     }    
 193:AS76.c        ****     wait_timer_Stop();
 194:AS76.c        ****     exit_loop =0;
 195:AS76.c        ****     Write_Debug_UART_Char("Limit Switch X Pressed \n");
 196:AS76.c        ****     
 197:AS76.c        ****     
 198:AS76.c        ****     Write_32bitSPI_DATA (0x21  , (int) 0x0000000, Motor); //Write the X_Actual Register of TMC5160 
 199:AS76.c        ****     CyDelayUs(10);
 200:AS76.c        ****     /*
 201:AS76.c        ****     GotoPos(((256*200)*2), Motor); // Move the motor 2 rotations (102400 uSteps)
 202:AS76.c        ****     CyDelayUs(500);
 203:AS76.c        ****     // Read the status byte register to whther the required position is reached by the motor or not
 204:AS76.c        ****     Read_32bitSPI_DATA(0x04, Motor, &status_x); // Read the status register of TMC5160
 205:AS76.c        ****     CyDelayUs(500);
 206:AS76.c        ****     Read_32bitSPI_DATA(0x04, Motor, &status_x); // Read the status register of TMC5160
 207:AS76.c        ****     while ( (status_x & 0x20) == 0x00) // Check if target position is reached or not
 208:AS76.c        ****     {
 209:AS76.c        ****         Read_32bitSPI_DATA(0x04, Motor, &status_x); // Read the status register of TMC5160
 210:AS76.c        ****         CyDelayUs(100);
 211:AS76.c        ****        
 212:AS76.c        ****     }
 213:AS76.c        ****     
 214:AS76.c        ****     // Till the above point of code 1st homing is done repeat the same procedure at lower speed to 
 215:AS76.c        ****     Write_32bitSPI_DATA (0x0B  , (int) 127, Motor );
 216:AS76.c        ****     Write_32bitSPI_DATA (0x11  , (int) 0x00070103, Motor );
 217:AS76.c        ****     update_max_velocity((53687), Motor); // Update motor speed to 1 rotation/second
 218:AS76.c        ****     Write_32bitSPI_DATA (0x20  , (int) 0x00000002, Motor ); // // Move the motor to Left continuous
 219:AS76.c        ****     CyDelayUs(200);
ARM GAS  C:\Users\Revanth\AppData\Local\Temp\ccZixbSH.s 			page 6


 220:AS76.c        ****     Read_32bitSPI_DATA(0x04, Motor, &status_x);
 221:AS76.c        ****     CyDelayUs(500);
 222:AS76.c        ****     Read_32bitSPI_DATA(0x04, Motor, &status_x);
 223:AS76.c        ****     while ( (status_x & 0x40) == 0x00)
 224:AS76.c        ****     {
 225:AS76.c        ****        Read_32bitSPI_DATA(0x04, Motor, &status_x);
 226:AS76.c        ****        CyDelayUs(100);
 227:AS76.c        ****     }
 228:AS76.c        **** */
 229:AS76.c        ****     Write_32bitSPI_DATA (0x21  , (int) 0x0000000, Motor);
 230:AS76.c        ****     //X_last_position = 0;
 231:AS76.c        ****     QuadDec_X_SetCounter(0);
 232:AS76.c        ****     HomeX_done = true;
 233:AS76.c        ****     HomeY_done = true;
 234:AS76.c        ****     HomeZ_done = true;
 235:AS76.c        ****     HomeT_done = true;
 236:AS76.c        ****     CyDelayUs(100);
 237:AS76.c        ****     goTo_X((256*200)*1); // Move the motor 1 rotation with error corrction mechanism based on encod
 238:AS76.c        ****     Write_Debug_UART_Char("Error in Home X Before Goto home pos : ");
 239:AS76.c        ****     Write_Debug_UART_Int(Error);
 240:AS76.c        ****     Write_Debug_UART_Char("\n");
 241:AS76.c        ****     HomeX_done = HomeX_done_Buffer;
 242:AS76.c        ****     HomeY_done = HomeY_done_Buffer;
 243:AS76.c        ****     HomeZ_done = HomeZ_done_Buffer;
 244:AS76.c        ****     HomeT_done = HomeT_done_Buffer;
 245:AS76.c        ****     CyDelayUs(100);
 246:AS76.c        ****     Write_32bitSPI_DATA (0x21  , (int) 0x0000000, Motor); // Mark the current postion as 0
 247:AS76.c        ****     Write_32bitSPI_DATA (0x2D  , 0x00000000, Motor ); // Set thye target position as 0
 248:AS76.c        ****     update_max_velocity(381178, Motor); // update the motor speed to to 10 rotations per second 536
 249:AS76.c        ****     Write_32bitSPI_DATA (0x0B  , (int) 150, Motor );
 250:AS76.c        ****     Write_32bitSPI_DATA (0x10  , (int) 0x00070101, Motor );
 251:AS76.c        ****     //Write_32bitSPI_DATA (0x25  , (51200*5)-100, Motor );
 252:AS76.c        **** 
 253:AS76.c        **** 
 254:AS76.c        ****     QuadDec_X_SetCounter(0); //set the encoder counter value as 0
 255:AS76.c        ****     X_QuadPosition =0 ; // set the encoder variable to 0
 256:AS76.c        ****     HomeX_done = true;
 257:AS76.c        ****     HomeX_done_Buffer = true;
 258:AS76.c        ****     Write_Debug_UART_Char("HomeX executed  \r\n");
 259:AS76.c        ****     Write_32bitSPI_DATA (0x10  , (int) 0x00070103, TMC5160_nCS_MotorY );
 260:AS76.c        ****     Write_32bitSPI_DATA (0x10  , (int) 0x00070101, TMC5160_nCS_MotorZ );
 261:AS76.c        ****     Write_32bitSPI_DATA (0x10  , (int) 0x00070103, TMC5160_nCS_MotorX );
 262:AS76.c        ****     Write_32bitSPI_DATA (0x10  , (int) 0x00070103, TMC5160_nCS_MotorT ); 
 263:AS76.c        **** 
 264:AS76.c        **** }
 265:AS76.c        **** 
 266:AS76.c        **** ///////////////////////////////////////////////////////////////////////////////////////
 267:AS76.c        **** 
 268:AS76.c        **** /////////////////////////////////////Homing Y//////////////////////////////////////////
 269:AS76.c        **** 
 270:AS76.c        **** /* --------------------------------------------------------------------------------------------
 271:AS76.c        **** Function Name        : homeY
 272:AS76.c        **** 
 273:AS76.c        **** Prerequist Knowledge : Homing of stepper motor system, TM5160 Datasheet, Encoders
 274:AS76.c        **** 
 275:AS76.c        **** Function Description : This Function is used to home the motor Y, where motor moves at specific
 276:AS76.c        ****                        Low speed towards left until it hits the limit switch on the left side then 
ARM GAS  C:\Users\Revanth\AppData\Local\Temp\ccZixbSH.s 			page 7


 277:AS76.c        ****                        motor rotates 1 rotation next the motor moves at specific Low speed towards 
 278:AS76.c        ****                        left until it hits the limit switch then motor gain moves 1 rotaion with ste
 279:AS76.c        ****                        loss correction and that point TMC5160 marks as position 0 and resets the Y 
 280:AS76.c        ****                        Channel encoder.
 281:AS76.c        **** 
 282:AS76.c        **** Return Type & Data   :Void
 283:AS76.c        **** 
 284:AS76.c        **** Variable Updation: status_y, Error, Y_QuadPosition
 285:AS76.c        **** 
 286:AS76.c        **** Numnber of Arguments : 1
 287:AS76.c        **** 
 288:AS76.c        **** -----Argument 1-----
 289:AS76.c        **** Name                 : Motor
 290:AS76.c        **** Tupe                 : uint8_t
 291:AS76.c        **** Description          : This Argument Represents the driver channel
 292:AS76.c        **** Condition            : This Value must range from 0x00 to 0x04 since there are only 5 channels
 293:AS76.c        ****                        available in AS76 System Configuration, condition to be checked in 
 294:AS76.c        ****                        SPI_MOTOR_CHIP_SELECT Function                       
 295:AS76.c        **** --------------------
 296:AS76.c        **** 
 297:AS76.c        **** 
 298:AS76.c        **** 
 299:AS76.c        **** ---------------------------------------------------------------------------------------------*/
 300:AS76.c        **** 
 301:AS76.c        **** void homeY(uint8_t Motor)
 302:AS76.c        **** {
 303:AS76.c        ****     Write_32bitSPI_DATA (0x10  , (int) 0x00070203, TMC5160_nCS_MotorY );
 304:AS76.c        ****     update_max_velocity((307200), Motor);
 305:AS76.c        ****     Write_32bitSPI_DATA (0x20  , (int) 0x00000002, Motor );
 306:AS76.c        ****     CyDelayUs(50);
 307:AS76.c        ****     Read_32bitSPI_DATA(0x04, Motor, &status_y);
 308:AS76.c        ****     CyDelayUs(500);
 309:AS76.c        ****     Read_32bitSPI_DATA(0x04, Motor, &status_y);
 310:AS76.c        ****     Write_Debug_UART_Char("Limit Switch Y going to press \n");
 311:AS76.c        ****     while ( (status_y & 0x40) == 0x00)
 312:AS76.c        ****     {
 313:AS76.c        ****         wait_timer_Start();
 314:AS76.c        ****         wait_interrupt_StartEx(wait_interrupt_Handler);
 315:AS76.c        ****         Read_32bitSPI_DATA(0x04, Motor, &status_y);
 316:AS76.c        ****        
 317:AS76.c        ****         if(exit_loop == 1)
 318:AS76.c        ****         {
 319:AS76.c        ****         Error = 11;
 320:AS76.c        ****         Send_Feedback_to_USB(Error);
 321:AS76.c        ****         wait_timer_Stop();
 322:AS76.c        ****         Write_32bitSPI_DATA (0x20  , (int) 0x00000000, Motor );
 323:AS76.c        ****         Write_32bitSPI_DATA (0x21  , (int) 0x0000000, Motor); // Mark the current postion as 0
 324:AS76.c        ****         Write_32bitSPI_DATA (0x2D  , 0x00000000, Motor ); // Set thye target position as 0
 325:AS76.c        ****         exit_loop = 0;
 326:AS76.c        ****         Error = 0;
 327:AS76.c        ****         Write_Debug_UART_Char("Home Y Stuck in Lopp and terminated due to timeout \n");
 328:AS76.c        ****         return;
 329:AS76.c        ****         }
 330:AS76.c        ****     CyDelayUs(100);
 331:AS76.c        ****     }
 332:AS76.c        ****     wait_timer_Stop();
 333:AS76.c        ****     exit_loop =0;
ARM GAS  C:\Users\Revanth\AppData\Local\Temp\ccZixbSH.s 			page 8


 334:AS76.c        ****     Write_Debug_UART_Char("Limit Switch Y Pressed \n");
 335:AS76.c        ****     
 336:AS76.c        ****     Write_32bitSPI_DATA (0x21  , (int) 0x0000000, Motor);
 337:AS76.c        ****     CyDelayUs(10);
 338:AS76.c        ****     /*
 339:AS76.c        ****     GotoPos(((256*200)*1), Motor);
 340:AS76.c        ****     CyDelayUs(500);
 341:AS76.c        ****     Read_32bitSPI_DATA(0x04, Motor, &status_y);
 342:AS76.c        ****     CyDelayUs(500);
 343:AS76.c        ****     Read_32bitSPI_DATA(0x04, Motor, &status_y);
 344:AS76.c        ****     while ( (status_y & 0x20) == 0x00)
 345:AS76.c        ****     {
 346:AS76.c        ****        Read_32bitSPI_DATA(0x04, Motor, &status_y);
 347:AS76.c        ****         CyDelayUs(100);
 348:AS76.c        ****        
 349:AS76.c        ****     }
 350:AS76.c        ****     Write_32bitSPI_DATA (0x0B  , (int) 180, Motor );
 351:AS76.c        ****     Write_32bitSPI_DATA (0x10  , (int) 0x00070103, Motor );
 352:AS76.c        ****     update_max_velocity(53687, Motor);
 353:AS76.c        ****     Write_32bitSPI_DATA (0x20  , (int) 0x00000002, Motor );
 354:AS76.c        ****     CyDelayUs(200);
 355:AS76.c        ****     Read_32bitSPI_DATA(0x04, Motor, &status_y);
 356:AS76.c        ****     CyDelayUs(500);
 357:AS76.c        ****     Read_32bitSPI_DATA(0x04, Motor, &status_y);
 358:AS76.c        ****     while ( (status_y & 0x40) == 0x00)
 359:AS76.c        ****     {
 360:AS76.c        ****        Read_32bitSPI_DATA(0x04, Motor, &status_y);
 361:AS76.c        ****        CyDelayUs(100);
 362:AS76.c        ****     }
 363:AS76.c        ****     */
 364:AS76.c        **** 
 365:AS76.c        ****     Write_32bitSPI_DATA (0x21  , (int) 0x0000000, Motor);
 366:AS76.c        ****     //Y_last_position = 0;
 367:AS76.c        ****     QuadDec_Y_SetCounter(0);
 368:AS76.c        ****     HomeX_done = true;
 369:AS76.c        ****     HomeY_done = true;
 370:AS76.c        ****     HomeZ_done = true;
 371:AS76.c        ****     HomeT_done = true;
 372:AS76.c        ****     CyDelayUs(100);
 373:AS76.c        ****     //goTo_Y((256*200)*1);
 374:AS76.c        ****     goTo_Y(19200);
 375:AS76.c        ****     Write_Debug_UART_Char("Error in Home Y Before Goto home pos : ");
 376:AS76.c        ****     Write_Debug_UART_Int(Error);
 377:AS76.c        ****     Write_Debug_UART_Char("\n");
 378:AS76.c        ****     HomeX_done = HomeX_done_Buffer;
 379:AS76.c        ****     HomeY_done = HomeY_done_Buffer;
 380:AS76.c        ****     HomeZ_done = HomeZ_done_Buffer;
 381:AS76.c        ****     HomeT_done = HomeT_done_Buffer;
 382:AS76.c        ****     CyDelayUs(100);
 383:AS76.c        ****     Write_32bitSPI_DATA (0x21  , (int) 0x0000000, Motor); 
 384:AS76.c        ****     Write_32bitSPI_DATA (0x2D  , 0x00000000, Motor );
 385:AS76.c        ****     update_max_velocity(381178, Motor);
 386:AS76.c        ****     Write_32bitSPI_DATA (0x0B  , 0, Motor );
 387:AS76.c        ****     Write_32bitSPI_DATA (0x10  , (int) 0x00070101, Motor );
 388:AS76.c        ****     //Write_32bitSPI_DATA (0x25  , (51200*5)-100, Motor );
 389:AS76.c        **** 
 390:AS76.c        ****     //Y_last_position = 0;
ARM GAS  C:\Users\Revanth\AppData\Local\Temp\ccZixbSH.s 			page 9


 391:AS76.c        ****     QuadDec_Y_SetCounter(0);
 392:AS76.c        ****     X_QuadPosition =0 ;
 393:AS76.c        ****     HomeY_done = true;
 394:AS76.c        ****     HomeY_done_Buffer = true;
 395:AS76.c        ****     Write_Debug_UART_Char("HomeY executed  \r\n");
 396:AS76.c        ****     Write_32bitSPI_DATA (0x10  , (int) 0x00070103, TMC5160_nCS_MotorY );
 397:AS76.c        ****     Write_32bitSPI_DATA (0x10  , (int) 0x00070101, TMC5160_nCS_MotorZ );
 398:AS76.c        ****     Write_32bitSPI_DATA (0x10  , (int) 0x00070103, TMC5160_nCS_MotorX );
 399:AS76.c        ****     Write_32bitSPI_DATA (0x10  , (int) 0x00070103, TMC5160_nCS_MotorT ); 
 400:AS76.c        **** 
 401:AS76.c        **** }
 402:AS76.c        **** 
 403:AS76.c        **** ////////////////////////////////////////////////////////////////////////////////////////////
 404:AS76.c        **** 
 405:AS76.c        **** //////////////////////////////////////////Homing Z//////////////////////////////////////////
 406:AS76.c        **** 
 407:AS76.c        **** /* --------------------------------------------------------------------------------------------
 408:AS76.c        **** Function Name        : homeZ
 409:AS76.c        **** 
 410:AS76.c        **** Prerequist Knowledge : Homing of stepper motor system, TM5160 Datasheet, Encoders
 411:AS76.c        **** 
 412:AS76.c        **** Function Description : This Function is used to home the motor Z, where motor moves at specific
 413:AS76.c        ****                        Low speed towards left until it hits the limit switch on the left side then 
 414:AS76.c        ****                        motor rotates 1 rotation next the motor moves at specific Low speed towards 
 415:AS76.c        ****                        left until it hits the limit switch then motor gain moves 1 rotaion with ste
 416:AS76.c        ****                        loss correction and that point TMC5160 marks as position 0 and resets the Z 
 417:AS76.c        ****                        Channel encoder.
 418:AS76.c        **** 
 419:AS76.c        **** Return Type & Data   :Void
 420:AS76.c        **** 
 421:AS76.c        **** Variable Updation: status_z, Error, Z_QuadPosition
 422:AS76.c        **** 
 423:AS76.c        **** Numnber of Arguments : 1
 424:AS76.c        **** 
 425:AS76.c        **** -----Argument 1-----
 426:AS76.c        **** Name                 : Motor
 427:AS76.c        **** Tupe                 : uint8_t
 428:AS76.c        **** Description          : This Argument Represents the driver channel
 429:AS76.c        **** Condition            : This Value must range from 0x00 to 0x04 since there are only 5 channels
 430:AS76.c        ****                        available in AS76 System Configuration, condition to be checked in 
 431:AS76.c        ****                        SPI_MOTOR_CHIP_SELECT Function                       
 432:AS76.c        **** --------------------
 433:AS76.c        **** 
 434:AS76.c        **** 
 435:AS76.c        **** 
 436:AS76.c        **** ---------------------------------------------------------------------------------------------*/
 437:AS76.c        **** 
 438:AS76.c        **** void homeZ(uint8_t Motor)
 439:AS76.c        **** {
 440:AS76.c        ****     Write_32bitSPI_DATA (0x10  , (int) 0x00070203, TMC5160_nCS_MotorZ );
 441:AS76.c        ****     update_max_velocity((53687*2), Motor);
 442:AS76.c        ****     Enable_Encoder_Z(-Buffer_Z_QuadPosition);
 443:AS76.c        ****     Write_32bitSPI_DATA (0x20  , (int) 0x00000002, Motor );
 444:AS76.c        ****     CyDelayUs(50);
 445:AS76.c        ****     Read_32bitSPI_DATA(0x04, Motor, &status_z);
 446:AS76.c        ****     CyDelayUs(500);
 447:AS76.c        ****     Read_32bitSPI_DATA(0x04, Motor, &status_z);
ARM GAS  C:\Users\Revanth\AppData\Local\Temp\ccZixbSH.s 			page 10


 448:AS76.c        ****     Write_Debug_UART_Char("Limit Switch Z going to press \n");
 449:AS76.c        ****     while ( (status_z & 0x40) == 0x00)
 450:AS76.c        ****     {
 451:AS76.c        ****        wait_timer_Start();
 452:AS76.c        ****        wait_interrupt_StartEx(wait_interrupt_Handler);
 453:AS76.c        ****        Read_32bitSPI_DATA(0x04, Motor, &status_z);
 454:AS76.c        ****        if(exit_loop == 1)
 455:AS76.c        ****             {
 456:AS76.c        ****             Error = 18;
 457:AS76.c        ****             Send_Feedback_to_USB(Error);
 458:AS76.c        ****             wait_timer_Stop();
 459:AS76.c        ****             Write_32bitSPI_DATA (0x20  , (int) 0x00000000, Motor );
 460:AS76.c        ****             Write_32bitSPI_DATA (0x21  , (int) 0x0000000, Motor); // Mark the current postion as 0
 461:AS76.c        ****             Write_32bitSPI_DATA (0x2D  , 0x00000000, Motor ); // Set thye target position as 0
 462:AS76.c        ****             exit_loop = 0;
 463:AS76.c        ****             Write_Debug_UART_Char("Home Z Stuck in Lopp and terminated due to timeout \n");
 464:AS76.c        ****             return;
 465:AS76.c        ****             //break;
 466:AS76.c        ****             }
 467:AS76.c        ****        CyDelayUs(100);
 468:AS76.c        ****     }
 469:AS76.c        ****     wait_timer_Stop();
 470:AS76.c        ****     exit_loop =0;
 471:AS76.c        ****     Write_Debug_UART_Char("Limit Switch Z Pressed \n");
 472:AS76.c        ****     
 473:AS76.c        ****     Write_32bitSPI_DATA (0x21  , (int) 0x0000000, Motor);
 474:AS76.c        ****     //Z_last_position = 0;
 475:AS76.c        ****     Enable_Encoder_Z(0);
 476:AS76.c        ****     Buffer_Z_QuadPosition=0;
 477:AS76.c        ****     CyDelayUs(10);
 478:AS76.c        ****     /*
 479:AS76.c        ****     GotoPos(((256*200)*1), Motor);
 480:AS76.c        ****     CyDelayUs(500);
 481:AS76.c        ****     Read_32bitSPI_DATA(0x04, Motor, &status_z);
 482:AS76.c        ****     CyDelayUs(500);
 483:AS76.c        ****     Read_32bitSPI_DATA(0x04, Motor, &status_z);
 484:AS76.c        ****     while ( (status_z & 0x20) == 0x00)
 485:AS76.c        ****     {
 486:AS76.c        ****        Read_32bitSPI_DATA(0x04, Motor, &status_z);
 487:AS76.c        ****         CyDelayUs(100);
 488:AS76.c        ****        
 489:AS76.c        ****     }
 490:AS76.c        ****     update_max_velocity(53687, Motor);
 491:AS76.c        ****     Write_32bitSPI_DATA (0x20  , (int) 0x00000002, Motor );
 492:AS76.c        ****     CyDelayUs(200);
 493:AS76.c        ****     Read_32bitSPI_DATA(0x04, Motor, &status_z);
 494:AS76.c        ****     CyDelayUs(500);
 495:AS76.c        ****     Read_32bitSPI_DATA(0x04, Motor, &status_z);
 496:AS76.c        ****     while ( (status_z & 0x40) == 0x00)
 497:AS76.c        ****     {
 498:AS76.c        ****        Read_32bitSPI_DATA(0x04, Motor, &status_z);
 499:AS76.c        ****        CyDelayUs(100);
 500:AS76.c        ****     }
 501:AS76.c        ****     */
 502:AS76.c        **** 
 503:AS76.c        ****     Write_32bitSPI_DATA (0x21  , (int) 0x0000000, Motor);
 504:AS76.c        ****     //Z_last_position = 0;
ARM GAS  C:\Users\Revanth\AppData\Local\Temp\ccZixbSH.s 			page 11


 505:AS76.c        ****     Enable_Encoder_Z(0);
 506:AS76.c        ****     Buffer_Z_QuadPosition=0;
 507:AS76.c        ****     HomeX_done = true;
 508:AS76.c        ****     HomeY_done = true;
 509:AS76.c        ****     HomeZ_done = true;
 510:AS76.c        ****     HomeT_done = true;
 511:AS76.c        ****     CyDelayUs(100);
 512:AS76.c        ****     goTo_Z(((256*200)*1));
 513:AS76.c        ****     Write_Debug_UART_Char("Error in Home Z Before Goto home pos : ");
 514:AS76.c        ****     Write_Debug_UART_Int(Error);
 515:AS76.c        ****     Write_Debug_UART_Char("\n");
 516:AS76.c        ****     Error =0;
 517:AS76.c        ****     HomeX_done = HomeX_done_Buffer;
 518:AS76.c        ****     HomeY_done = HomeY_done_Buffer;
 519:AS76.c        ****     HomeZ_done = HomeZ_done_Buffer;
 520:AS76.c        ****     HomeT_done = HomeT_done_Buffer;
 521:AS76.c        ****     CyDelayUs(100);
 522:AS76.c        ****     Write_32bitSPI_DATA (0x21  , (int) 0x0000000, Motor); 
 523:AS76.c        ****     Write_32bitSPI_DATA (0x2D  , 0x00000000, Motor );
 524:AS76.c        ****     update_max_velocity(53687*2, Motor);
 525:AS76.c        **** 
 526:AS76.c        ****     //Z_last_position = 0;
 527:AS76.c        ****     Enable_Encoder_Z(0);
 528:AS76.c        ****     Buffer_Z_QuadPosition=0;
 529:AS76.c        ****     HomeZ_done = true;
 530:AS76.c        ****     HomeZ_done_Buffer = true;
 531:AS76.c        ****     Write_Debug_UART_Char("HomeZ executed  \r\n");
 532:AS76.c        ****     Write_32bitSPI_DATA (0x10  , (int) 0x00070103, TMC5160_nCS_MotorY );
 533:AS76.c        ****     Write_32bitSPI_DATA (0x10  , (int) 0x00070101, TMC5160_nCS_MotorZ );
 534:AS76.c        ****     Write_32bitSPI_DATA (0x10  , (int) 0x00070103, TMC5160_nCS_MotorX );
 535:AS76.c        ****     Write_32bitSPI_DATA (0x10  , (int) 0x00070103, TMC5160_nCS_MotorT ); 
 536:AS76.c        **** 
 537:AS76.c        **** }
 538:AS76.c        **** 
 539:AS76.c        **** ///////////////////////////////////////////////////////////////////////////////////////
 540:AS76.c        **** 
 541:AS76.c        **** /////////////////////////////////////Homing T//////////////////////////////////////////
 542:AS76.c        **** 
 543:AS76.c        **** void homeT(uint8_t Motor)
 544:AS76.c        **** {
 545:AS76.c        ****     TMC5160_MotorT_EN_Write(0x00);
 546:AS76.c        ****     CyDelayUs(100);
 547:AS76.c        ****     update_max_velocity(12800, Motor);
 548:AS76.c        ****     Enable_Encoder_T(-Buffer_T_QuadPosition);
 549:AS76.c        ****     Write_32bitSPI_DATA (0x20  , (int) 0x00000002, Motor );
 550:AS76.c        ****     CyDelayUs(50);
 551:AS76.c        ****     Read_32bitSPI_DATA(0x04, Motor, &status_z);
 552:AS76.c        ****     CyDelayUs(500);
 553:AS76.c        ****     Read_32bitSPI_DATA(0x04, Motor, &status_z);
 554:AS76.c        ****     while ( (status_z & 0x40) == 0x00)
 555:AS76.c        ****     {
 556:AS76.c        ****        wait_timer_Start();
 557:AS76.c        ****        wait_interrupt_StartEx(wait_interrupt_Handler);
 558:AS76.c        ****        Read_32bitSPI_DATA(0x04, Motor, &status_z);
 559:AS76.c        ****        if(exit_loop == 1)
 560:AS76.c        ****             {
 561:AS76.c        ****             Error = 22;
ARM GAS  C:\Users\Revanth\AppData\Local\Temp\ccZixbSH.s 			page 12


 562:AS76.c        ****             Send_Feedback_to_USB(Error);
 563:AS76.c        ****             wait_timer_Stop();
 564:AS76.c        ****             Write_32bitSPI_DATA (0x20  , (int) 0x00000000, Motor );
 565:AS76.c        ****             Write_32bitSPI_DATA (0x21  , (int) 0x0000000, Motor); // Mark the current postion as 0
 566:AS76.c        ****             Write_32bitSPI_DATA (0x2D  , 0x00000000, Motor ); // Set thye target position as 0
 567:AS76.c        ****             exit_loop = 0;
 568:AS76.c        ****             Error =0;
 569:AS76.c        ****             return;
 570:AS76.c        ****             //break;
 571:AS76.c        ****             }
 572:AS76.c        ****        CyDelayUs(100);
 573:AS76.c        ****     }
 574:AS76.c        ****     wait_timer_Stop();
 575:AS76.c        ****     exit_loop =0;
 576:AS76.c        ****     
 577:AS76.c        ****     Write_32bitSPI_DATA (0x21  , (int) 0x0000000, Motor);
 578:AS76.c        ****     CyDelayUs(10);
 579:AS76.c        ****     /*
 580:AS76.c        ****     GotoPos((12800), Motor);
 581:AS76.c        ****     CyDelayUs(500);
 582:AS76.c        ****     Read_32bitSPI_DATA(0x04, Motor, &status_z);
 583:AS76.c        ****     CyDelayUs(500);
 584:AS76.c        ****     Read_32bitSPI_DATA(0x04, Motor, &status_z);
 585:AS76.c        ****     while ( (status_z & 0x20) == 0x00)
 586:AS76.c        ****     {
 587:AS76.c        ****        Read_32bitSPI_DATA(0x04, Motor, &status_z);
 588:AS76.c        ****         CyDelayUs(100);
 589:AS76.c        ****        
 590:AS76.c        ****     }
 591:AS76.c        ****     update_max_velocity(12800, Motor);
 592:AS76.c        ****     Write_32bitSPI_DATA (0x20  , (int) 0x00000002, Motor );
 593:AS76.c        ****     CyDelayUs(200);
 594:AS76.c        ****     Read_32bitSPI_DATA(0x04, Motor, &status_y);
 595:AS76.c        ****     CyDelay0Us(500);
 596:AS76.c        ****     Read_32bitSPI_DATA(0x04, Motor, &status_y);
 597:AS76.c        ****     while ( (status_y & 0x40) == 0x00)
 598:AS76.c        ****     {
 599:AS76.c        ****        Read_32bitSPI_DATA(0x04, Motor, &status_y);
 600:AS76.c        ****        CyDelayUs(100);
 601:AS76.c        ****     }
 602:AS76.c        ****     */
 603:AS76.c        ****     Write_32bitSPI_DATA (0x21  , (int) 0x0000000, Motor);
 604:AS76.c        ****     //T_last_position = 0;
 605:AS76.c        ****     Enable_Encoder_T(0);
 606:AS76.c        ****     Buffer_T_QuadPosition=0;
 607:AS76.c        ****     HomeX_done = true;
 608:AS76.c        ****     HomeY_done = true;
 609:AS76.c        ****     HomeZ_done = true;
 610:AS76.c        ****     HomeT_done = true;
 611:AS76.c        ****     CyDelayUs(100); 
 612:AS76.c        ****     goTo_T(3800);
 613:AS76.c        ****     HomeX_done = HomeX_done_Buffer;
 614:AS76.c        ****     HomeY_done = HomeY_done_Buffer;
 615:AS76.c        ****     HomeZ_done = HomeZ_done_Buffer;
 616:AS76.c        ****     HomeT_done = HomeT_done_Buffer;
 617:AS76.c        ****     CyDelayUs(100);
 618:AS76.c        ****     Write_32bitSPI_DATA (0x21  , (int) 0x0000000, Motor); 
ARM GAS  C:\Users\Revanth\AppData\Local\Temp\ccZixbSH.s 			page 13


 619:AS76.c        ****     Write_32bitSPI_DATA (0x2D  , 0x00000000, Motor );
 620:AS76.c        ****     update_max_velocity(12800, Motor);
 621:AS76.c        **** 
 622:AS76.c        ****     //T_last_position = 0;
 623:AS76.c        ****     Enable_Encoder_T(0);
 624:AS76.c        ****     Buffer_T_QuadPosition=0;
 625:AS76.c        ****     HomeT_done = true;
 626:AS76.c        ****     HomeT_done_Buffer = true;
 627:AS76.c        ****     Write_Debug_UART_Char("HomeT executed  \r\n");
 628:AS76.c        ****     TMC5160_MotorT_EN_Write(0xFF);
 629:AS76.c        ****     CyDelayUs(100);
 630:AS76.c        **** }
 631:AS76.c        **** 
 632:AS76.c        **** ///////////////////////////////////////////////////////////////////////////////////////////////////
 633:AS76.c        **** /////////////////////////////////////Go to Position in X Axis//////////////////////////////////////
 634:AS76.c        **** 
 635:AS76.c        **** int goTo_X(int32 Position_X_Requested)
 636:AS76.c        **** {
 637:AS76.c        ****       
 638:AS76.c        ****     if(if_all_homing_done())
 639:AS76.c        ****     
 640:AS76.c        ****     {
 641:AS76.c        ****         Write_32bitSPI_DATA (0x10  , (int) 0x00070103, TMC5160_nCS_MotorY );
 642:AS76.c        ****         Write_32bitSPI_DATA (0x10  , (int) 0x00070102, TMC5160_nCS_MotorZ );
 643:AS76.c        ****         Write_32bitSPI_DATA (0x10  , (int) 0x00070305, TMC5160_nCS_MotorX );
 644:AS76.c        ****         //Position_X_Move = Position_X_Move + Position_X_Requested;
 645:AS76.c        ****         Error = 0;
 646:AS76.c        ****         Read_All_Optical_Encoder();
 647:AS76.c        ****         //X_last_position = X_QuadPosition;
 648:AS76.c        ****         //Write_Debug_UART_Char("GotoX Command Recived--->");
 649:AS76.c        ****         GotoPos(Position_X_Requested, TMC5160_nCS_MotorX); // If provided value is position and not
 650:AS76.c        ****         WaitTillPositionReached (TMC5160_nCS_MotorX);
 651:AS76.c        ****         CyDelayUs(50);
 652:AS76.c        ****         //GotoPos(Position_X_Move, TMC5160_nCS_MotorX); // If provided value is steps to move and n
 653:AS76.c        ****         //Write_Debug_UART_Int(Position_X_Requested);
 654:AS76.c        ****         Write_Debug_UART_Char("  \r\n");
 655:AS76.c        ****         Step_correction_x(Position_X_Requested);
 656:AS76.c        ****         return Error;
 657:AS76.c        ****     }
 658:AS76.c        ****     else
 659:AS76.c        ****     {
 660:AS76.c        ****         Write_Debug_UART_Char("Homing Not Done");
 661:AS76.c        ****         Error = 32;
 662:AS76.c        ****         return Error;
 663:AS76.c        ****     }
 664:AS76.c        ****     
 665:AS76.c        **** }
 666:AS76.c        **** 
 667:AS76.c        **** int Step_correction_x(int32 steps)
 668:AS76.c        **** {  
 669:AS76.c        ****     int32 Encoder_Position_X_Requested =0;
 670:AS76.c        ****     uint8_t temp;
 671:AS76.c        ****     int32 new_step=0;
 672:AS76.c        ****     //int32 diff_encoder_value=0;
 673:AS76.c        ****     int32 encoder_error_value = 0;
 674:AS76.c        ****     Encoder_Position_X_Requested = steps/X_Pitchfactor;
 675:AS76.c        ****       Read_All_Optical_Encoder();    
ARM GAS  C:\Users\Revanth\AppData\Local\Temp\ccZixbSH.s 			page 14


 676:AS76.c        ****       Write_Debug_UART_Char("Initial Error X Quadposition: ");
 677:AS76.c        ****       Write_Debug_UART_Int(X_QuadPosition);
 678:AS76.c        ****       Write_Debug_UART_Char("\n");
 679:AS76.c        ****     
 680:AS76.c        ****     for(temp=0; temp<=5; temp++)
 681:AS76.c        ****     {
 682:AS76.c        ****     Write_Debug_UART_Char("X Loop Count: ");
 683:AS76.c        ****     Write_Debug_UART_Int(temp);
 684:AS76.c        ****     Write_Debug_UART_Char("\n");
 685:AS76.c        ****     
 686:AS76.c        ****     Read_All_Optical_Encoder();
 687:AS76.c        ****     
 688:AS76.c        ****     encoder_error_value = Encoder_Position_X_Requested - X_QuadPosition;
 689:AS76.c        ****     if(encoder_error_value >= 2000)
 690:AS76.c        ****     {
 691:AS76.c        ****         Error=  2;
 692:AS76.c        ****         return Error;
 693:AS76.c        ****     }
 694:AS76.c        ****     new_step= encoder_error_value* X_Pitchfactor ;
 695:AS76.c        ****     
 696:AS76.c        ****        
 697:AS76.c        ****     if((abs(encoder_error_value))>= 10 )
 698:AS76.c        ****     {
 699:AS76.c        ****       Write_Debug_UART_Char("X Loop Error difference: ");
 700:AS76.c        ****       Write_Debug_UART_Int(encoder_error_value);
 701:AS76.c        ****       Write_Debug_UART_Char("\n");
 702:AS76.c        ****       new_step = new_step+steps;     
 703:AS76.c        ****       GotoPos(new_step, TMC5160_nCS_MotorX);
 704:AS76.c        ****       WaitTillPositionReached (TMC5160_nCS_MotorX);
 705:AS76.c        ****       CyDelayUs(50);
 706:AS76.c        ****       Write_32bitSPI_DATA (0x21  , steps, TMC5160_nCS_MotorX );
 707:AS76.c        ****     }
 708:AS76.c        ****     }
 709:AS76.c        ****     Read_All_Optical_Encoder();
 710:AS76.c        ****     encoder_error_value = Encoder_Position_X_Requested - X_QuadPosition;
 711:AS76.c        ****     if((temp>5))
 712:AS76.c        ****     {
 713:AS76.c        ****      if(((abs(encoder_error_value))>= 12 ) && ((abs(encoder_error_value))<2000))
 714:AS76.c        ****      {
 715:AS76.c        ****         Write_Debug_UART_Char("Fail to reach X position, Error difference: ");
 716:AS76.c        ****         Write_Debug_UART_Int(encoder_error_value);
 717:AS76.c        ****         Write_Debug_UART_Char("\n Quadposition :  ");
 718:AS76.c        ****         Write_Debug_UART_Int(X_QuadPosition);
 719:AS76.c        ****         Write_Debug_UART_Char("\n");
 720:AS76.c        ****         LED3_Write(0xFF);
 721:AS76.c        ****         //GotoPos((steps-1000),TMC5160_nCS_MotorX);
 722:AS76.c        ****         Error=  1;
 723:AS76.c        ****      }
 724:AS76.c        ****     
 725:AS76.c        ****      else if ( ((abs(encoder_error_value))>2000))
 726:AS76.c        ****      {
 727:AS76.c        ****        Write_Debug_UART_Char("X Encoder or X Motor Might Not be Working \r\n");
 728:AS76.c        ****        Error=  2;
 729:AS76.c        ****      }
 730:AS76.c        ****     
 731:AS76.c        ****      else
 732:AS76.c        ****      {
ARM GAS  C:\Users\Revanth\AppData\Local\Temp\ccZixbSH.s 			page 15


 733:AS76.c        ****         Write_Debug_UART_Char("X position Reached");
 734:AS76.c        ****         Error = 0;
 735:AS76.c        ****         Write_32bitSPI_DATA (0x21  , steps, TMC5160_nCS_MotorX );
 736:AS76.c        ****         CyDelayUs(500);
 737:AS76.c        ****         
 738:AS76.c        ****      }
 739:AS76.c        ****     
 740:AS76.c        ****     }
 741:AS76.c        ****     
 742:AS76.c        ****     return Error;
 743:AS76.c        **** }
 744:AS76.c        **** 
 745:AS76.c        **** ///////////////////////////////////////////////////////////////////////////////////////////////////
 746:AS76.c        **** /////////////////////////////////////Go to Position in Y Axis//////////////////////////////////////
 747:AS76.c        **** 
 748:AS76.c        **** int goTo_Y(int32 Position_Y_Requested)
 749:AS76.c        **** {   
 750:AS76.c        ****     if(if_all_homing_done())
 751:AS76.c        ****     {
 752:AS76.c        ****         Write_32bitSPI_DATA (0x10  , (int) 0x00070103, TMC5160_nCS_MotorX );
 753:AS76.c        ****         Write_32bitSPI_DATA (0x10  , (int) 0x00070102, TMC5160_nCS_MotorZ );
 754:AS76.c        ****         Write_32bitSPI_DATA (0x10  , (int) 0x00070205, TMC5160_nCS_MotorY );
 755:AS76.c        ****         
 756:AS76.c        ****         //Position_Y_Move = Position_Y_Move + Position_Y_Requested;
 757:AS76.c        ****         Error = 0;
 758:AS76.c        ****         Read_All_Optical_Encoder();
 759:AS76.c        ****         //Y_last_position = Y_QuadPosition;
 760:AS76.c        ****         //Write_Debug_UART_Char("GotoX Command Recived--->");
 761:AS76.c        ****         GotoPos(Position_Y_Requested, TMC5160_nCS_MotorY); // If provided value is position and not
 762:AS76.c        ****         WaitTillPositionReached (TMC5160_nCS_MotorY);
 763:AS76.c        ****         CyDelayUs(50);
 764:AS76.c        ****         //GotoPos(Position_X_Move, TMC5160_nCS_MotorX); // If provided value is steps to move and n
 765:AS76.c        ****         //Write_Debug_UART_Int(Position_Y_Requested);
 766:AS76.c        ****         //Write_Debug_UART_Char("  \r\n");
 767:AS76.c        ****         Step_correction_y(Position_Y_Requested);
 768:AS76.c        ****         return Error;
 769:AS76.c        ****     }
 770:AS76.c        ****     else
 771:AS76.c        ****     {
 772:AS76.c        ****         Write_Debug_UART_Char("Homing Not Done");
 773:AS76.c        ****         Error = 32;
 774:AS76.c        ****         return Error;
 775:AS76.c        ****     }
 776:AS76.c        **** }
 777:AS76.c        **** 
 778:AS76.c        **** int Step_correction_y(int32 steps)
 779:AS76.c        **** {  
 780:AS76.c        ****     uint8_t temp=0;
 781:AS76.c        ****     int32 new_step=0;
 782:AS76.c        ****     int32 Encoder_Position_Y_Requested =0;
 783:AS76.c        ****     //int32 diff_encoder_value=0;
 784:AS76.c        ****     int32 encoder_error_value = 0;
 785:AS76.c        ****     Encoder_Position_Y_Requested = steps/12.8;
 786:AS76.c        ****     Read_All_Optical_Encoder();
 787:AS76.c        ****     Write_Debug_UART_Char("Initial Error Y Quadposition: ");
 788:AS76.c        ****     Write_Debug_UART_Int(Y_QuadPosition);
 789:AS76.c        ****     Write_Debug_UART_Char("/n");
ARM GAS  C:\Users\Revanth\AppData\Local\Temp\ccZixbSH.s 			page 16


 790:AS76.c        ****     
 791:AS76.c        ****     for(temp=0; temp<=5; temp++)
 792:AS76.c        ****     {
 793:AS76.c        ****     Write_Debug_UART_Char("Y Loop Count: ");
 794:AS76.c        ****     Write_Debug_UART_Int(temp);
 795:AS76.c        ****     Write_Debug_UART_Char("\n");
 796:AS76.c        ****     Read_All_Optical_Encoder();
 797:AS76.c        ****     //diff_encoder_value = (X_QuadPosition - X_last_position);
 798:AS76.c        ****     encoder_error_value = Encoder_Position_Y_Requested - Y_QuadPosition;
 799:AS76.c        ****     new_step= encoder_error_value*12.8;
 800:AS76.c        ****     if(encoder_error_value >= 4000)
 801:AS76.c        ****     {
 802:AS76.c        ****         Error=  9;
 803:AS76.c        ****         break;
 804:AS76.c        ****     }
 805:AS76.c        ****     if((abs(encoder_error_value))>=10)
 806:AS76.c        ****     {
 807:AS76.c        ****       Write_Debug_UART_Char("Y Loop Error difference: ");
 808:AS76.c        ****       Write_Debug_UART_Int(encoder_error_value);
 809:AS76.c        ****       Write_Debug_UART_Char("\n");
 810:AS76.c        ****       new_step = new_step+steps;     
 811:AS76.c        ****       GotoPos(new_step, TMC5160_nCS_MotorY);
 812:AS76.c        ****       WaitTillPositionReached (TMC5160_nCS_MotorY);
 813:AS76.c        ****       CyDelayUs(50);
 814:AS76.c        ****       Write_32bitSPI_DATA (0x21  , steps, TMC5160_nCS_MotorY );
 815:AS76.c        ****     }
 816:AS76.c        ****     
 817:AS76.c        ****     }
 818:AS76.c        ****     
 819:AS76.c        ****     
 820:AS76.c        ****     Read_All_Optical_Encoder();
 821:AS76.c        ****     encoder_error_value = Encoder_Position_Y_Requested - Y_QuadPosition;
 822:AS76.c        ****     
 823:AS76.c        ****     if(temp>=4)
 824:AS76.c        ****     {
 825:AS76.c        ****      if(((abs(encoder_error_value))>12) && ((abs(encoder_error_value))<2000) )
 826:AS76.c        ****      {
 827:AS76.c        ****         Write_Debug_UART_Char("Fail to reach Y position, Error difference: ");
 828:AS76.c        ****         Write_Debug_UART_Int(encoder_error_value);
 829:AS76.c        ****         Write_Debug_UART_Char("\n Quadposition :  ");
 830:AS76.c        ****         Write_Debug_UART_Int(Y_QuadPosition);
 831:AS76.c        ****         Write_Debug_UART_Char("\n");
 832:AS76.c        ****         //GotoPos((steps-1000),TMC5160_nCS_MotorY);
 833:AS76.c        ****         LED3_Write(0xFF);
 834:AS76.c        ****         Error=  8;
 835:AS76.c        ****      }
 836:AS76.c        ****     
 837:AS76.c        ****      else if ( ((abs(encoder_error_value))>2000))
 838:AS76.c        ****      {
 839:AS76.c        ****        Write_Debug_UART_Char("Y Encoder or Y Motor Might Not be Working \r\n"); 
 840:AS76.c        ****        Error=  9;
 841:AS76.c        ****      }
 842:AS76.c        ****     
 843:AS76.c        ****      else
 844:AS76.c        ****      {
 845:AS76.c        ****         Write_Debug_UART_Char("Y position Reached");
 846:AS76.c        ****         Error = 0;
ARM GAS  C:\Users\Revanth\AppData\Local\Temp\ccZixbSH.s 			page 17


 847:AS76.c        ****         
 848:AS76.c        ****      }
 849:AS76.c        ****     
 850:AS76.c        ****     }
 851:AS76.c        ****     
 852:AS76.c        ****     return Error;
 853:AS76.c        **** }
 854:AS76.c        **** 
 855:AS76.c        **** ///////////////////////////////////////////////////////////////////////////////////////////////////
 856:AS76.c        **** /////////////////////////////////////Go to Position in Z Axis//////////////////////////////////////
 857:AS76.c        **** 
 858:AS76.c        **** 
 859:AS76.c        **** int goTo_Z(int32 Position_Z_Requested)
 860:AS76.c        **** {
 861:AS76.c        ****     Write_32bitSPI_DATA (0x10  , (int) 0x00070103, TMC5160_nCS_MotorY );
 862:AS76.c        ****     Write_32bitSPI_DATA (0x10  , (int) 0x00070103, TMC5160_nCS_MotorX );
 863:AS76.c        ****     Write_32bitSPI_DATA (0x10  , (int) 0x00070202, TMC5160_nCS_MotorZ );
 864:AS76.c        ****     Position_Z_Requested =  Position_Z_Requested;
 865:AS76.c        ****     Enable_Encoder_Z(-Buffer_Z_QuadPosition);
 866:AS76.c        ****     if(if_all_homing_done())
 867:AS76.c        ****     {
 868:AS76.c        ****         Error = 0;
 869:AS76.c        ****         Read_All_Optical_Encoder();
 870:AS76.c        ****         //Z_last_position = Z_QuadPosition;
 871:AS76.c        ****         //Write_Debug_UART_Char("GotoZ Command Recived--->");
 872:AS76.c        ****         GotoPos(Position_Z_Requested, TMC5160_nCS_MotorZ); // If provided value is position and not
 873:AS76.c        ****         WaitTillPositionReached (TMC5160_nCS_MotorZ);
 874:AS76.c        ****         CyDelayUs(50);
 875:AS76.c        ****         //GotoPos(Position_X_Move, TMC5160_nCS_MotorX); // If provided value is steps to move and n
 876:AS76.c        ****         //Write_Debug_UART_Int(Position_Z_Requested);
 877:AS76.c        ****         //Write_Debug_UART_Char("  \r\n");
 878:AS76.c        ****         Step_correction_z(Position_Z_Requested);
 879:AS76.c        ****         Read_All_Optical_Encoder();
 880:AS76.c        ****         Buffer_Z_QuadPosition = Z_QuadPosition;
 881:AS76.c        ****         return Error;
 882:AS76.c        ****     }
 883:AS76.c        ****     else
 884:AS76.c        ****     {
 885:AS76.c        ****         Write_Debug_UART_Char("Homing Not Done");
 886:AS76.c        ****         Error = 32;
 887:AS76.c        ****         return Error;
 888:AS76.c        ****     }
 889:AS76.c        **** 
 890:AS76.c        **** }
 891:AS76.c        **** 
 892:AS76.c        **** int Step_correction_z(int32 steps)
 893:AS76.c        **** {  
 894:AS76.c        ****     uint8_t temp=0;
 895:AS76.c        ****     int32 new_step=0;
 896:AS76.c        ****     int32 Encoder_Position_Z_Requested =0;
 897:AS76.c        ****     //int32 diff_encoder_value=0;
 898:AS76.c        ****     int32 encoder_error_value = 0;
 899:AS76.c        ****       Encoder_Position_Z_Requested = steps/12.8;
 900:AS76.c        ****       Read_All_Optical_Encoder();
 901:AS76.c        ****       Write_Debug_UART_Char("Initial Error Z Quadposition: ");
 902:AS76.c        ****       Write_Debug_UART_Int(Z_QuadPosition);
 903:AS76.c        ****       Write_Debug_UART_Char("\n");
ARM GAS  C:\Users\Revanth\AppData\Local\Temp\ccZixbSH.s 			page 18


 904:AS76.c        ****    
 905:AS76.c        ****     for(temp=0; temp<=5; temp++)
 906:AS76.c        ****     {
 907:AS76.c        ****     Write_Debug_UART_Char("Z Loop Count: ");
 908:AS76.c        ****     Write_Debug_UART_Int(temp);
 909:AS76.c        ****     Write_Debug_UART_Char("\n");
 910:AS76.c        ****     Read_All_Optical_Encoder();
 911:AS76.c        ****     //diff_encoder_value = (X_QuadPosition - X_last_position);
 912:AS76.c        ****     encoder_error_value = Encoder_Position_Z_Requested - Z_QuadPosition;
 913:AS76.c        ****     new_step= encoder_error_value*12.8;
 914:AS76.c        ****     if(encoder_error_value >= 4000)
 915:AS76.c        ****     {
 916:AS76.c        ****         Error=  16;
 917:AS76.c        ****         break;
 918:AS76.c        ****     }
 919:AS76.c        ****     if((abs(encoder_error_value))>3)
 920:AS76.c        ****     {
 921:AS76.c        ****       Write_Debug_UART_Char("Y Loop Error difference: ");
 922:AS76.c        ****       Write_Debug_UART_Int(encoder_error_value);
 923:AS76.c        ****       Write_Debug_UART_Char("\n");
 924:AS76.c        ****       new_step = new_step+steps;    
 925:AS76.c        ****       GotoPos(new_step, TMC5160_nCS_MotorZ);
 926:AS76.c        ****       WaitTillPositionReached (TMC5160_nCS_MotorZ);
 927:AS76.c        ****       CyDelayUs(50);
 928:AS76.c        ****       Write_32bitSPI_DATA (0x21  , steps, TMC5160_nCS_MotorZ );
 929:AS76.c        ****     }
 930:AS76.c        ****    
 931:AS76.c        ****     }
 932:AS76.c        ****    
 933:AS76.c        ****    
 934:AS76.c        ****     Read_All_Optical_Encoder();
 935:AS76.c        ****     encoder_error_value = Encoder_Position_Z_Requested - Z_QuadPosition;
 936:AS76.c        ****    
 937:AS76.c        ****     if(temp>=4)
 938:AS76.c        ****     {
 939:AS76.c        ****      if(((abs(encoder_error_value))>7) && ((abs(encoder_error_value))<4000) )
 940:AS76.c        ****      {
 941:AS76.c        ****         Write_Debug_UART_Char("Fail to reach Z position, Error difference: ");
 942:AS76.c        ****         Write_Debug_UART_Int(encoder_error_value);
 943:AS76.c        ****         Write_Debug_UART_Char("\n Quadposition :  ");
 944:AS76.c        ****         Write_Debug_UART_Int(Z_QuadPosition);
 945:AS76.c        ****         Write_Debug_UART_Char("\n");
 946:AS76.c        ****         //GotoPos((steps-1000),TMC5160_nCS_MotorZ);
 947:AS76.c        ****         LED2_Write(0xFF);
 948:AS76.c        ****         Error = 15;
 949:AS76.c        ****      }
 950:AS76.c        ****    
 951:AS76.c        ****      else if ( ((abs(encoder_error_value))>4000))
 952:AS76.c        ****      {
 953:AS76.c        ****        Write_Debug_UART_Char("Z Encoder or Z Motor Might Not be Working \r\n");
 954:AS76.c        ****        Error = 16;
 955:AS76.c        ****      }
 956:AS76.c        ****    
 957:AS76.c        ****      else
 958:AS76.c        ****      {
 959:AS76.c        ****        Write_Debug_UART_Char("Z position Reached");
 960:AS76.c        ****        Error = 0;
ARM GAS  C:\Users\Revanth\AppData\Local\Temp\ccZixbSH.s 			page 19


 961:AS76.c        ****        
 962:AS76.c        ****      }
 963:AS76.c        ****    
 964:AS76.c        ****     }
 965:AS76.c        ****    
 966:AS76.c        ****     return Error;
 967:AS76.c        **** }
 968:AS76.c        **** 
 969:AS76.c        **** /////////////////////////////////////Go to Position in T Axis//////////////////////////////////////
 970:AS76.c        **** 
 971:AS76.c        **** int goTo_T(int32 Position_T_Requested)
 972:AS76.c        **** {
 973:AS76.c        ****     TMC5160_MotorT_EN_Write(0x00);
 974:AS76.c        ****     CyDelayUs(100);
 975:AS76.c        ****     Enable_Encoder_T(-Buffer_T_QuadPosition);
 976:AS76.c        ****     if(if_all_homing_done())
 977:AS76.c        ****     {
 978:AS76.c        ****         Error = 0;
 979:AS76.c        ****         Read_All_Optical_Encoder();        
 980:AS76.c        ****         Write_Debug_UART_Char("GotoT Command Recived--->");
 981:AS76.c        ****         GotoPos(Position_T_Requested, TMC5160_nCS_MotorT); // If provided value is position and not
 982:AS76.c        ****         WaitTillPositionReached (TMC5160_nCS_MotorT);
 983:AS76.c        ****         CyDelayUs(50);
 984:AS76.c        ****         //GotoPos(Position_X_Move, TMC5160_nCS_MotorX); // If provided value is steps to move and n
 985:AS76.c        ****         Write_Debug_UART_Int(Position_T_Requested);
 986:AS76.c        ****         Write_Debug_UART_Char("  \r\n");
 987:AS76.c        ****         Step_correction_t(Position_T_Requested);
 988:AS76.c        ****         Read_All_Optical_Encoder();
 989:AS76.c        ****         Buffer_T_QuadPosition = T_QuadPosition;
 990:AS76.c        ****         TMC5160_MotorT_EN_Write(0xFF);
 991:AS76.c        ****         CyDelayUs (100);
 992:AS76.c        ****         return Error;
 993:AS76.c        ****     }
 994:AS76.c        ****     else
 995:AS76.c        ****     {
 996:AS76.c        ****         Write_Debug_UART_Char("Homing Not Done");
 997:AS76.c        ****         Error = 32;
 998:AS76.c        ****          TMC5160_MotorT_EN_Write(0xFF);
 999:AS76.c        ****         CyDelayUs(100);
1000:AS76.c        ****         return Error;
1001:AS76.c        ****     }
1002:AS76.c        ****     //Buffer_T_QuadPosition = T_QuadPosition;
1003:AS76.c        **** }
1004:AS76.c        **** 
1005:AS76.c        **** int Step_correction_t(int32 steps)
1006:AS76.c        **** {  
1007:AS76.c        ****     uint8_t temp=0;
1008:AS76.c        ****     int32 new_step=0;
1009:AS76.c        ****     int32 Encoder_Position_T_Requested =0;
1010:AS76.c        ****     //int32 diff_encoder_value=0;
1011:AS76.c        ****     int32 encoder_error_value = 0;
1012:AS76.c        ****     Encoder_Position_T_Requested = steps/3.2;
1013:AS76.c        ****     
1014:AS76.c        ****     for(temp=0; temp<=3; temp++)
1015:AS76.c        ****     {
1016:AS76.c        ****     Read_All_Optical_Encoder();
1017:AS76.c        ****     //diff_encoder_value = (X_QuadPosition - X_last_position);
ARM GAS  C:\Users\Revanth\AppData\Local\Temp\ccZixbSH.s 			page 20


1018:AS76.c        ****     encoder_error_value = Encoder_Position_T_Requested - T_QuadPosition;
1019:AS76.c        ****     new_step= encoder_error_value*3.2;
1020:AS76.c        ****     if(encoder_error_value >= 4000)
1021:AS76.c        ****     {
1022:AS76.c        ****         Error=  23;
1023:AS76.c        ****         break;
1024:AS76.c        ****     }
1025:AS76.c        ****     
1026:AS76.c        ****     if((abs(encoder_error_value))>=5)
1027:AS76.c        ****     {
1028:AS76.c        ****       new_step = new_step+steps;     
1029:AS76.c        ****       GotoPos(new_step, TMC5160_nCS_MotorT);
1030:AS76.c        ****       WaitTillPositionReached (TMC5160_nCS_MotorT);
1031:AS76.c        ****       CyDelayUs(50);
1032:AS76.c        ****       Write_32bitSPI_DATA (0x21  , steps, TMC5160_nCS_MotorT );
1033:AS76.c        ****     }
1034:AS76.c        ****     
1035:AS76.c        ****     }
1036:AS76.c        ****     
1037:AS76.c        ****     Read_All_Optical_Encoder();
1038:AS76.c        ****     encoder_error_value = Encoder_Position_T_Requested - T_QuadPosition;
1039:AS76.c        ****     
1040:AS76.c        ****     if(temp>=4)
1041:AS76.c        ****     {
1042:AS76.c        ****      if(((abs(encoder_error_value))>=5) && ((abs(encoder_error_value))<4000) )
1043:AS76.c        ****      {
1044:AS76.c        ****         Write_Debug_UART_Char("Fail to reach T position \r\n");
1045:AS76.c        ****         Error = 22;
1046:AS76.c        ****      }
1047:AS76.c        ****     
1048:AS76.c        ****      else if ( ((abs(encoder_error_value))>4000))
1049:AS76.c        ****      {
1050:AS76.c        ****        Write_Debug_UART_Char("T Encoder or T Motor Might Not be Working \r\n"); 
1051:AS76.c        ****        Error = 23;
1052:AS76.c        ****      }
1053:AS76.c        ****     
1054:AS76.c        ****      else
1055:AS76.c        ****      {
1056:AS76.c        ****         Write_Debug_UART_Char("T position Reached");
1057:AS76.c        ****         Error = 0;
1058:AS76.c        ****         
1059:AS76.c        ****      }
1060:AS76.c        ****     
1061:AS76.c        ****     }
1062:AS76.c        ****     
1063:AS76.c        ****     return Error;
1064:AS76.c        **** }
1065:AS76.c        **** 
1066:AS76.c        **** 
1067:AS76.c        **** ///////////////////////////////////////////////////////////////////////////////////////////////////
1068:AS76.c        **** /////////////////////////////////////Go to Position in XYZ Axis////////////////////////////////////
1069:AS76.c        **** 
1070:AS76.c        **** int goTo_XYZ(int32 Position_X_Requested,int32 Position_Y_Requested,int32 Position_Z_Requested)
1071:AS76.c        **** {
1072:AS76.c        ****     Read_All_Optical_Encoder();
1073:AS76.c        ****     //X_last_position = X_QuadPosition;
1074:AS76.c        ****     Write_Debug_UART_Char("GotoX Command Recived--->");
ARM GAS  C:\Users\Revanth\AppData\Local\Temp\ccZixbSH.s 			page 21


1075:AS76.c        ****     if(Position_X_Requested >= 0)
1076:AS76.c        ****     { 
1077:AS76.c        ****     GotoPos(Position_X_Requested, TMC5160_nCS_MotorX); // If provided value is position and not the
1078:AS76.c        ****     }
1079:AS76.c        ****     if(Position_Y_Requested >= 0)
1080:AS76.c        ****     { 
1081:AS76.c        ****     GotoPos(Position_Y_Requested, TMC5160_nCS_MotorY);
1082:AS76.c        ****     }
1083:AS76.c        ****     if(Position_Z_Requested >= 0)
1084:AS76.c        ****     { 
1085:AS76.c        ****     Enable_Encoder_Z(-Buffer_Z_QuadPosition);
1086:AS76.c        ****     GotoPos(Position_Z_Requested, TMC5160_nCS_MotorZ);
1087:AS76.c        ****     }
1088:AS76.c        ****     
1089:AS76.c        ****     if(Position_X_Requested >= 0)
1090:AS76.c        ****     {
1091:AS76.c        ****     WaitTillPositionReached (TMC5160_nCS_MotorX);
1092:AS76.c        ****     }
1093:AS76.c        ****     if(Position_Y_Requested >= 0)
1094:AS76.c        ****     {
1095:AS76.c        ****     WaitTillPositionReached (TMC5160_nCS_MotorY);
1096:AS76.c        ****     }
1097:AS76.c        ****     if(Position_Z_Requested >= 0)
1098:AS76.c        ****     {
1099:AS76.c        ****     WaitTillPositionReached (TMC5160_nCS_MotorZ);
1100:AS76.c        ****     }
1101:AS76.c        ****     
1102:AS76.c        ****     if(Position_X_Requested >= 0)
1103:AS76.c        ****     {
1104:AS76.c        ****     Step_correction_x(Position_X_Requested);
1105:AS76.c        ****     //Read_All_Optical_Encoder();
1106:AS76.c        ****     }
1107:AS76.c        ****     //Send_Feedback_to_USB(Error);
1108:AS76.c        ****     if(Position_Y_Requested >= 0)
1109:AS76.c        ****     {
1110:AS76.c        ****     Step_correction_y(Position_Y_Requested);
1111:AS76.c        ****     //Read_All_Optical_Encoder();
1112:AS76.c        ****     }
1113:AS76.c        ****     //Send_Feedback_to_USB(Error);
1114:AS76.c        ****     if(Position_Z_Requested >= 0)
1115:AS76.c        ****     {
1116:AS76.c        ****     Step_correction_z(Position_Z_Requested);    
1117:AS76.c        ****     Read_All_Optical_Encoder();
1118:AS76.c        ****     Buffer_Z_QuadPosition = Z_QuadPosition;
1119:AS76.c        ****     }
1120:AS76.c        ****     Read_All_Optical_Encoder();
1121:AS76.c        ****     Send_Feedback_to_USB(Error);
1122:AS76.c        ****     
1123:AS76.c        ****     CyDelayUs(50);
1124:AS76.c        ****     return 0;  
1125:AS76.c        ****         
1126:AS76.c        **** }
1127:AS76.c        **** 
1128:AS76.c        **** 
1129:AS76.c        **** bool if_all_homing_done()
1130:AS76.c        **** {
1131:AS76.c        ****     if((HomeY_done == false)&&(Error == 0))
ARM GAS  C:\Users\Revanth\AppData\Local\Temp\ccZixbSH.s 			page 22


1132:AS76.c        ****     {
1133:AS76.c        ****         Error = 12;//Y_Homing_Not_Done_Yet
1134:AS76.c        ****         Write_Debug_UART_Char("Y_Homing_Not_Done_Yet***********[x12]  \r\n");
1135:AS76.c        ****         UART_print_all_values();
1136:AS76.c        ****         return false;
1137:AS76.c        ****     }
1138:AS76.c        ****     else if((HomeX_done == false)&&(Error == 0))
1139:AS76.c        ****     {
1140:AS76.c        ****         Error = 6;//X_Homing_Not_Done_Yet
1141:AS76.c        ****         Write_Debug_UART_Char("X_Homing_Not_Done_Yet***********  \r\n");
1142:AS76.c        ****         UART_print_all_values();
1143:AS76.c        ****         return false;
1144:AS76.c        ****     }
1145:AS76.c        ****     else if((HomeZ_done == false)&&(Error == 0))
1146:AS76.c        ****     {
1147:AS76.c        ****         Error = 18;//Z_Homing_Not_Done_Yet
1148:AS76.c        ****         Write_Debug_UART_Char("Z_Homing_Not_Done_Yet***********  \r\n");
1149:AS76.c        ****         UART_print_all_values();
1150:AS76.c        ****         return false;
1151:AS76.c        ****     } 
1152:AS76.c        ****    /* else if((HomeT_done == false)&&(Error == 0))
1153:AS76.c        ****     {
1154:AS76.c        ****         Error = 27;//T_Homing_Not_Done_Yet
1155:AS76.c        ****         Write_Debug_UART_Char("Z_Homing_Not_Done_Yet***********  \r\n");
1156:AS76.c        ****         UART_print_all_values();
1157:AS76.c        ****         return false;
1158:AS76.c        ****     } */
1159:AS76.c        ****     else
1160:AS76.c        ****     {
1161:AS76.c        ****         return true;
1162:AS76.c        ****     }
1163:AS76.c        **** }
1164:AS76.c        **** 
1165:AS76.c        **** ///////////////////////////////////////////////////////////////////////////////////////////////////
1166:AS76.c        **** //PWM Functions Start-------------------------------------------------------
1167:AS76.c        **** void Initialize_PWM()
1168:AS76.c        **** {
  67              		.loc 1 1168 0
  68              		.cfi_startproc
  69              		@ args = 0, pretend = 0, frame = 0
  70              		@ frame_needed = 0, uses_anonymous_args = 0
  71 0000 08B5     		push	{r3, lr}
  72              		.cfi_def_cfa_offset 8
  73              		.cfi_offset 3, -8
  74              		.cfi_offset 14, -4
1169:AS76.c        ****     PWM_CondenserLED_Start();
  75              		.loc 1 1169 0
  76 0002 FFF7FEFF 		bl	PWM_CondenserLED_Start
  77              	.LVL0:
1170:AS76.c        ****     PWM_CondenserLED_WriteCompare(PWM_Condenser_comare_value); 
  78              		.loc 1 1170 0
  79 0006 114B     		ldr	r3, .L7
  80 0008 1888     		ldrh	r0, [r3]
  81 000a FFF7FEFF 		bl	PWM_CondenserLED_WriteCompare
  82              	.LVL1:
1171:AS76.c        ****     
1172:AS76.c        ****     PWM_BarcodeCondenser_LED_Start();
ARM GAS  C:\Users\Revanth\AppData\Local\Temp\ccZixbSH.s 			page 23


  83              		.loc 1 1172 0
  84 000e FFF7FEFF 		bl	PWM_BarcodeCondenser_LED_Start
  85              	.LVL2:
1173:AS76.c        ****     PWM_BarcodeCondenser_LED_WriteCompare(2);
  86              		.loc 1 1173 0
  87 0012 0220     		movs	r0, #2
  88 0014 FFF7FEFF 		bl	PWM_BarcodeCondenser_LED_WriteCompare
  89              	.LVL3:
1174:AS76.c        ****     
1175:AS76.c        ****     PWM_Buzzer_Start();
  90              		.loc 1 1175 0
  91 0018 FFF7FEFF 		bl	PWM_Buzzer_Start
  92              	.LVL4:
1176:AS76.c        ****     PWM_Buzzer_WriteCompare(2500);
  93              		.loc 1 1176 0
  94 001c 40F6C410 		movw	r0, #2500
  95 0020 FFF7FEFF 		bl	PWM_Buzzer_WriteCompare
  96              	.LVL5:
1177:AS76.c        ****     CyDelay(200);
  97              		.loc 1 1177 0
  98 0024 C820     		movs	r0, #200
  99 0026 FFF7FEFF 		bl	CyDelay
 100              	.LVL6:
1178:AS76.c        ****     PWM_Buzzer_WriteCompare(0);
 101              		.loc 1 1178 0
 102 002a 0020     		movs	r0, #0
 103 002c FFF7FEFF 		bl	PWM_Buzzer_WriteCompare
 104              	.LVL7:
1179:AS76.c        ****     CyDelay(200);
 105              		.loc 1 1179 0
 106 0030 C820     		movs	r0, #200
 107 0032 FFF7FEFF 		bl	CyDelay
 108              	.LVL8:
1180:AS76.c        ****     PWM_Buzzer_WriteCompare(2500);
 109              		.loc 1 1180 0
 110 0036 40F6C410 		movw	r0, #2500
 111 003a FFF7FEFF 		bl	PWM_Buzzer_WriteCompare
 112              	.LVL9:
1181:AS76.c        ****     CyDelay(200);
 113              		.loc 1 1181 0
 114 003e C820     		movs	r0, #200
 115 0040 FFF7FEFF 		bl	CyDelay
 116              	.LVL10:
1182:AS76.c        ****     PWM_Buzzer_WriteCompare(0);
 117              		.loc 1 1182 0
 118 0044 0020     		movs	r0, #0
 119 0046 FFF7FEFF 		bl	PWM_Buzzer_WriteCompare
 120              	.LVL11:
 121 004a 08BD     		pop	{r3, pc}
 122              	.L8:
 123              		.align	2
 124              	.L7:
 125 004c 00000000 		.word	.LANCHOR1
 126              		.cfi_endproc
 127              	.LFE80:
 128              		.size	Initialize_PWM, .-Initialize_PWM
 129              		.section	.text.Set_Backlight_LED,"ax",%progbits
ARM GAS  C:\Users\Revanth\AppData\Local\Temp\ccZixbSH.s 			page 24


 130              		.align	2
 131              		.global	Set_Backlight_LED
 132              		.thumb
 133              		.thumb_func
 134              		.type	Set_Backlight_LED, %function
 135              	Set_Backlight_LED:
 136              	.LFB86:
1183:AS76.c        **** }
1184:AS76.c        **** int set_BarcodeCondenser_LED()//Set Barcode Condenser LED light intensity
1185:AS76.c        **** {
1186:AS76.c        ****     PWM_barcode_comare_value = ((unsigned int)USB_received[3] << 8) + USB_received[2];  //Read LED 
1187:AS76.c        ****     PWM_BarcodeCondenser_LED_WriteCompare((PWM_barcode_comare_value*0.6)/10);    //Writing LED valu
1188:AS76.c        ****     Write_Debug_UART_Char("LED Barcode Value Recived--->");
1189:AS76.c        ****     Write_Debug_UART_Int(PWM_barcode_comare_value);
1190:AS76.c        ****     Write_Debug_UART_Char("\r\n");
1191:AS76.c        ****     Write_Debug_UART_Char("Set Barcode LED Command Executed  \r\n");
1192:AS76.c        ****     return 0;
1193:AS76.c        **** }
1194:AS76.c        **** 
1195:AS76.c        **** int set_CondenserLED()//Set Condenser LED light intensity
1196:AS76.c        **** {
1197:AS76.c        ****     PWM_Condenser_comare_value = ((unsigned int)USB_received[3] << 8) + USB_received[2];  //Read LE
1198:AS76.c        ****     PWM_CondenserLED_WriteCompare((PWM_Condenser_comare_value*0.6)/10);    //Writing LED value in t
1199:AS76.c        ****     Write_Debug_UART_Char(" LED Value Recived--->");
1200:AS76.c        ****     Write_Debug_UART_Int(PWM_Condenser_comare_value);
1201:AS76.c        ****     Write_Debug_UART_Char("\r\n");
1202:AS76.c        ****     Write_Debug_UART_Char("Set LED Command Executed  \r\n");
1203:AS76.c        ****     return 0;
1204:AS76.c        **** }
1205:AS76.c        **** 
1206:AS76.c        **** int Beep_Once()//Set Condenser LED light intensity
1207:AS76.c        **** {
1208:AS76.c        ****     PWM_Buzzer_WriteCompare(2500);
1209:AS76.c        ****     CyDelay(200);
1210:AS76.c        ****     PWM_Buzzer_WriteCompare(0);
1211:AS76.c        ****     Write_Debug_UART_Char("Beeped Once  \r\n");
1212:AS76.c        ****     return 0;
1213:AS76.c        **** }
1214:AS76.c        **** 
1215:AS76.c        **** int Beep_Twice()//Set Condenser LED light intensity
1216:AS76.c        **** {
1217:AS76.c        ****     PWM_Buzzer_WriteCompare(2500);
1218:AS76.c        ****     CyDelay(200);
1219:AS76.c        ****     PWM_Buzzer_WriteCompare(0);
1220:AS76.c        ****     CyDelay(200);
1221:AS76.c        ****     PWM_Buzzer_WriteCompare(2500);
1222:AS76.c        ****     CyDelay(200);
1223:AS76.c        ****     PWM_Buzzer_WriteCompare(0);
1224:AS76.c        ****     Write_Debug_UART_Char("Beeped Twice  \r\n");
1225:AS76.c        ****     return 0;
1226:AS76.c        **** }
1227:AS76.c        **** 
1228:AS76.c        **** int Long_Beep()//Set Condenser LED light intensity
1229:AS76.c        **** {
1230:AS76.c        ****     PWM_Buzzer_WriteCompare(2500);
1231:AS76.c        ****     CyDelay(2000);
1232:AS76.c        ****     PWM_Buzzer_WriteCompare(0);
ARM GAS  C:\Users\Revanth\AppData\Local\Temp\ccZixbSH.s 			page 25


1233:AS76.c        ****     CyDelay(200);
1234:AS76.c        ****     
1235:AS76.c        ****     Write_Debug_UART_Char("Beeped Long  \r\n");
1236:AS76.c        ****     return 0;
1237:AS76.c        **** }
1238:AS76.c        **** 
1239:AS76.c        **** //PWM Functions Stop-------------------------------------------------------
1240:AS76.c        **** 
1241:AS76.c        **** void Set_Backlight_LED(uint8_t value)
1242:AS76.c        **** {
 137              		.loc 1 1242 0
 138              		.cfi_startproc
 139              		@ args = 0, pretend = 0, frame = 0
 140              		@ frame_needed = 0, uses_anonymous_args = 0
 141              	.LVL12:
 142 0000 08B5     		push	{r3, lr}
 143              		.cfi_def_cfa_offset 8
 144              		.cfi_offset 3, -8
 145              		.cfi_offset 14, -4
1243:AS76.c        ****     Pin_Backlight_Write(value);
 146              		.loc 1 1243 0
 147 0002 FFF7FEFF 		bl	Pin_Backlight_Write
 148              	.LVL13:
 149 0006 08BD     		pop	{r3, pc}
 150              		.cfi_endproc
 151              	.LFE86:
 152              		.size	Set_Backlight_LED, .-Set_Backlight_LED
 153              		.section	.text.Enable_Encoder_T,"ax",%progbits
 154              		.align	2
 155              		.global	Enable_Encoder_T
 156              		.thumb
 157              		.thumb_func
 158              		.type	Enable_Encoder_T, %function
 159              	Enable_Encoder_T:
 160              	.LFB88:
1244:AS76.c        **** }
1245:AS76.c        **** 
1246:AS76.c        **** //Optical Decoder Functions Start-------------------------------------------------------
1247:AS76.c        **** void Initialize_And_Start_All_Opt_Encoder()//Initialize and start Interrupt for XY encoder count an
1248:AS76.c        **** {   
1249:AS76.c        ****     X_QuadPosition = 0;
1250:AS76.c        ****     Y_QuadPosition = 0;
1251:AS76.c        ****     Z_QuadPosition =0 ;
1252:AS76.c        ****     T_QuadPosition=0;
1253:AS76.c        ****     QuadDec_TZ_Start();
1254:AS76.c        ****     QuadDec_Y_Start();
1255:AS76.c        ****     QuadDec_X_Start();
1256:AS76.c        **** 
1257:AS76.c        ****     Enable_Encoder_Z(0);
1258:AS76.c        ****     Enable_Encoder_T(0);
1259:AS76.c        **** }
1260:AS76.c        **** 
1261:AS76.c        **** 
1262:AS76.c        **** void Enable_Encoder_T(int steps)
1263:AS76.c        **** {
 161              		.loc 1 1263 0
 162              		.cfi_startproc
ARM GAS  C:\Users\Revanth\AppData\Local\Temp\ccZixbSH.s 			page 26


 163              		@ args = 0, pretend = 0, frame = 0
 164              		@ frame_needed = 0, uses_anonymous_args = 0
 165              	.LVL14:
 166 0000 10B5     		push	{r4, lr}
 167              		.cfi_def_cfa_offset 8
 168              		.cfi_offset 4, -8
 169              		.cfi_offset 14, -4
1264:AS76.c        ****     EncoderTZSelect = 0; // 0 for T and 1 for Z
 170              		.loc 1 1264 0
 171 0002 0024     		movs	r4, #0
 172 0004 034B     		ldr	r3, .L13
 173 0006 5C60     		str	r4, [r3, #4]
1265:AS76.c        ****     QuadDec_TZ_SetCounter(steps);      
 174              		.loc 1 1265 0
 175 0008 FFF7FEFF 		bl	QuadDec_TZ_SetCounter
 176              	.LVL15:
1266:AS76.c        ****     Encoder_T_Z_Select_Write(0);
 177              		.loc 1 1266 0
 178 000c 2046     		mov	r0, r4
 179 000e FFF7FEFF 		bl	Encoder_T_Z_Select_Write
 180              	.LVL16:
 181 0012 10BD     		pop	{r4, pc}
 182              	.L14:
 183              		.align	2
 184              	.L13:
 185 0014 00000000 		.word	.LANCHOR0
 186              		.cfi_endproc
 187              	.LFE88:
 188              		.size	Enable_Encoder_T, .-Enable_Encoder_T
 189              		.section	.text.Enable_Encoder_Z,"ax",%progbits
 190              		.align	2
 191              		.global	Enable_Encoder_Z
 192              		.thumb
 193              		.thumb_func
 194              		.type	Enable_Encoder_Z, %function
 195              	Enable_Encoder_Z:
 196              	.LFB89:
1267:AS76.c        **** }
1268:AS76.c        **** 
1269:AS76.c        **** void Enable_Encoder_Z(int steps)
1270:AS76.c        **** {
 197              		.loc 1 1270 0
 198              		.cfi_startproc
 199              		@ args = 0, pretend = 0, frame = 0
 200              		@ frame_needed = 0, uses_anonymous_args = 0
 201              	.LVL17:
 202 0000 10B5     		push	{r4, lr}
 203              		.cfi_def_cfa_offset 8
 204              		.cfi_offset 4, -8
 205              		.cfi_offset 14, -4
1271:AS76.c        ****     EncoderTZSelect = 1; // 0 for T and 1 for Z
 206              		.loc 1 1271 0
 207 0002 0124     		movs	r4, #1
 208 0004 034B     		ldr	r3, .L17
 209 0006 5C60     		str	r4, [r3, #4]
1272:AS76.c        ****     QuadDec_TZ_SetCounter(steps);
 210              		.loc 1 1272 0
ARM GAS  C:\Users\Revanth\AppData\Local\Temp\ccZixbSH.s 			page 27


 211 0008 FFF7FEFF 		bl	QuadDec_TZ_SetCounter
 212              	.LVL18:
1273:AS76.c        ****     Encoder_T_Z_Select_Write(1);
 213              		.loc 1 1273 0
 214 000c 2046     		mov	r0, r4
 215 000e FFF7FEFF 		bl	Encoder_T_Z_Select_Write
 216              	.LVL19:
 217 0012 10BD     		pop	{r4, pc}
 218              	.L18:
 219              		.align	2
 220              	.L17:
 221 0014 00000000 		.word	.LANCHOR0
 222              		.cfi_endproc
 223              	.LFE89:
 224              		.size	Enable_Encoder_Z, .-Enable_Encoder_Z
 225              		.section	.text.Initialize_And_Start_All_Opt_Encoder,"ax",%progbits
 226              		.align	2
 227              		.global	Initialize_And_Start_All_Opt_Encoder
 228              		.thumb
 229              		.thumb_func
 230              		.type	Initialize_And_Start_All_Opt_Encoder, %function
 231              	Initialize_And_Start_All_Opt_Encoder:
 232              	.LFB87:
1248:AS76.c        ****     X_QuadPosition = 0;
 233              		.loc 1 1248 0
 234              		.cfi_startproc
 235              		@ args = 0, pretend = 0, frame = 0
 236              		@ frame_needed = 0, uses_anonymous_args = 0
 237 0000 10B5     		push	{r4, lr}
 238              		.cfi_def_cfa_offset 8
 239              		.cfi_offset 4, -8
 240              		.cfi_offset 14, -4
1249:AS76.c        ****     Y_QuadPosition = 0;
 241              		.loc 1 1249 0
 242 0002 094B     		ldr	r3, .L21
 243 0004 0024     		movs	r4, #0
 244 0006 9C60     		str	r4, [r3, #8]
1250:AS76.c        ****     Z_QuadPosition =0 ;
 245              		.loc 1 1250 0
 246 0008 DC60     		str	r4, [r3, #12]
1251:AS76.c        ****     T_QuadPosition=0;
 247              		.loc 1 1251 0
 248 000a 1C61     		str	r4, [r3, #16]
1252:AS76.c        ****     QuadDec_TZ_Start();
 249              		.loc 1 1252 0
 250 000c 5C61     		str	r4, [r3, #20]
1253:AS76.c        ****     QuadDec_Y_Start();
 251              		.loc 1 1253 0
 252 000e FFF7FEFF 		bl	QuadDec_TZ_Start
 253              	.LVL20:
1254:AS76.c        ****     QuadDec_X_Start();
 254              		.loc 1 1254 0
 255 0012 FFF7FEFF 		bl	QuadDec_Y_Start
 256              	.LVL21:
1255:AS76.c        **** 
 257              		.loc 1 1255 0
 258 0016 FFF7FEFF 		bl	QuadDec_X_Start
ARM GAS  C:\Users\Revanth\AppData\Local\Temp\ccZixbSH.s 			page 28


 259              	.LVL22:
1257:AS76.c        ****     Enable_Encoder_T(0);
 260              		.loc 1 1257 0
 261 001a 2046     		mov	r0, r4
 262 001c FFF7FEFF 		bl	Enable_Encoder_Z
 263              	.LVL23:
1258:AS76.c        **** }
 264              		.loc 1 1258 0
 265 0020 2046     		mov	r0, r4
 266 0022 FFF7FEFF 		bl	Enable_Encoder_T
 267              	.LVL24:
 268 0026 10BD     		pop	{r4, pc}
 269              	.L22:
 270              		.align	2
 271              	.L21:
 272 0028 00000000 		.word	.LANCHOR0
 273              		.cfi_endproc
 274              	.LFE87:
 275              		.size	Initialize_And_Start_All_Opt_Encoder, .-Initialize_And_Start_All_Opt_Encoder
 276              		.section	.text.Read_All_Optical_Encoder,"ax",%progbits
 277              		.align	2
 278              		.global	Read_All_Optical_Encoder
 279              		.thumb
 280              		.thumb_func
 281              		.type	Read_All_Optical_Encoder, %function
 282              	Read_All_Optical_Encoder:
 283              	.LFB90:
1274:AS76.c        **** }
1275:AS76.c        **** 
1276:AS76.c        **** void Read_All_Optical_Encoder()//Read all optical encoder value and update XYZ value
1277:AS76.c        **** {
 284              		.loc 1 1277 0
 285              		.cfi_startproc
 286              		@ args = 0, pretend = 0, frame = 0
 287              		@ frame_needed = 0, uses_anonymous_args = 0
 288 0000 10B5     		push	{r4, lr}
 289              		.cfi_def_cfa_offset 8
 290              		.cfi_offset 4, -8
 291              		.cfi_offset 14, -4
1278:AS76.c        ****     if(EncoderTZSelect == 0)
 292              		.loc 1 1278 0
 293 0002 0F4B     		ldr	r3, .L27
 294 0004 5B68     		ldr	r3, [r3, #4]
 295 0006 33B9     		cbnz	r3, .L24
1279:AS76.c        ****     {
1280:AS76.c        ****         T_QuadPosition = -QuadDec_TZ_GetCounter();
 296              		.loc 1 1280 0
 297 0008 FFF7FEFF 		bl	QuadDec_TZ_GetCounter
 298              	.LVL25:
 299 000c 4042     		negs	r0, r0
 300 000e 0C4B     		ldr	r3, .L27
 301 0010 5861     		str	r0, [r3, #20]
1281:AS76.c        ****         Z_QuadPosition = Buffer_Z_QuadPosition;
 302              		.loc 1 1281 0
 303 0012 9A69     		ldr	r2, [r3, #24]
 304 0014 1A61     		str	r2, [r3, #16]
 305              	.L24:
ARM GAS  C:\Users\Revanth\AppData\Local\Temp\ccZixbSH.s 			page 29


1282:AS76.c        ****     }
1283:AS76.c        ****     if(EncoderTZSelect == 1)
 306              		.loc 1 1283 0
 307 0016 0A4B     		ldr	r3, .L27
 308 0018 5B68     		ldr	r3, [r3, #4]
 309 001a 012B     		cmp	r3, #1
 310 001c 06D1     		bne	.L25
1284:AS76.c        ****     {
1285:AS76.c        ****         T_QuadPosition = Buffer_T_QuadPosition;
 311              		.loc 1 1285 0
 312 001e 084C     		ldr	r4, .L27
 313 0020 E369     		ldr	r3, [r4, #28]
 314 0022 6361     		str	r3, [r4, #20]
1286:AS76.c        ****         Z_QuadPosition = -QuadDec_TZ_GetCounter();
 315              		.loc 1 1286 0
 316 0024 FFF7FEFF 		bl	QuadDec_TZ_GetCounter
 317              	.LVL26:
 318 0028 4042     		negs	r0, r0
 319 002a 2061     		str	r0, [r4, #16]
 320              	.L25:
1287:AS76.c        ****     }
1288:AS76.c        ****     X_QuadPosition = -QuadDec_X_GetCounter();
 321              		.loc 1 1288 0
 322 002c FFF7FEFF 		bl	QuadDec_X_GetCounter
 323              	.LVL27:
 324 0030 4042     		negs	r0, r0
 325 0032 034C     		ldr	r4, .L27
 326 0034 A060     		str	r0, [r4, #8]
1289:AS76.c        ****     Y_QuadPosition = -QuadDec_Y_GetCounter();
 327              		.loc 1 1289 0
 328 0036 FFF7FEFF 		bl	QuadDec_Y_GetCounter
 329              	.LVL28:
 330 003a 4042     		negs	r0, r0
 331 003c E060     		str	r0, [r4, #12]
 332 003e 10BD     		pop	{r4, pc}
 333              	.L28:
 334              		.align	2
 335              	.L27:
 336 0040 00000000 		.word	.LANCHOR0
 337              		.cfi_endproc
 338              	.LFE90:
 339              		.size	Read_All_Optical_Encoder, .-Read_All_Optical_Encoder
 340              		.section	.text.USB_Detect_Indication_Via_LED,"ax",%progbits
 341              		.align	2
 342              		.global	USB_Detect_Indication_Via_LED
 343              		.thumb
 344              		.thumb_func
 345              		.type	USB_Detect_Indication_Via_LED, %function
 346              	USB_Detect_Indication_Via_LED:
 347              	.LFB93:
1290:AS76.c        **** }    
1291:AS76.c        **** //Optical Decoder Functions Stop-------------------------------------------------------
1292:AS76.c        **** 
1293:AS76.c        **** 
1294:AS76.c        **** //USB Functions Start-------------------------------------------------------
1295:AS76.c        **** void Process_USB_Data()/* Process USB incoming data command. */
1296:AS76.c        **** {
ARM GAS  C:\Users\Revanth\AppData\Local\Temp\ccZixbSH.s 			page 30


1297:AS76.c        ****     //Pin_USB_RX_TX_Indicator_LED_Write(1); /* turn ON LED as a indicator to start process the comm
1298:AS76.c        ****     Error = 0;
1299:AS76.c        ****     command = ((unsigned int)USB_received[1] << 8) + USB_received[0];   /* Reading USB data. */
1300:AS76.c        ****     /*Compare USB data and execute the command*/
1301:AS76.c        **** 
1302:AS76.c        ****     if (command == HomeX)                                          
1303:AS76.c        ****     {
1304:AS76.c        ****         Write_Debug_UART_Char("\n\n\n\n\nHome X Starting \n");
1305:AS76.c        ****         
1306:AS76.c        ****         TMC5160_MotorZ_EN_Write(0xFF);
1307:AS76.c        ****         CyDelayUs(500);
1308:AS76.c        ****         TMC5160_MotorY_EN_Write(0xFF);
1309:AS76.c        ****         CyDelayUs(500);
1310:AS76.c        ****         TMC5160_MotorX_EN_Write(0x00);
1311:AS76.c        ****         CyDelayUs(500);
1312:AS76.c        ****         update_max_velocity(381178, TMC5160_nCS_MotorX);
1313:AS76.c        ****         //Write_32bitSPI_DATA (0x26  , (int) 45000, TMC5160_nCS_MotorX );
1314:AS76.c        ****         CyDelay(1);
1315:AS76.c        ****         goTo_X(0);
1316:AS76.c        ****         Write_32bitSPI_DATA (0x10  , (int) 0x00070101, TMC5160_nCS_MotorY );
1317:AS76.c        ****         Write_32bitSPI_DATA (0x10  , (int) 0x00070101, TMC5160_nCS_MotorZ );
1318:AS76.c        ****         Write_32bitSPI_DATA (0x10  , (int) 0x00070407, TMC5160_nCS_MotorX );
1319:AS76.c        ****         homeX(TMC5160_nCS_MotorX);   
1320:AS76.c        ****         //Write_32bitSPI_DATA (0x26  , (int) 0x0000FFFF, TMC5160_nCS_MotorX );
1321:AS76.c        ****         Write_32bitSPI_DATA (0x10  , (int) 0x00070301, TMC5160_nCS_MotorX );
1322:AS76.c        ****         CyDelay(50);
1323:AS76.c        ****         TMC5160_MotorZ_EN_Write(0x00);
1324:AS76.c        ****         CyDelay(50);
1325:AS76.c        ****         TMC5160_MotorY_EN_Write(0x00);
1326:AS76.c        ****         CyDelayUs(500);
1327:AS76.c        ****         Send_Feedback_to_USB(Error);
1328:AS76.c        ****     
1329:AS76.c        ****     }
1330:AS76.c        ****     else if (command == HomeY)                           
1331:AS76.c        ****     {
1332:AS76.c        ****         Write_Debug_UART_Char("\n\n\n\n\nHome Y Starting \n");
1333:AS76.c        ****         TMC5160_MotorZ_EN_Write(0xFF);
1334:AS76.c        ****         CyDelayUs(500);
1335:AS76.c        ****         TMC5160_MotorX_EN_Write(0xFF);
1336:AS76.c        ****         CyDelayUs(500);
1337:AS76.c        ****         TMC5160_MotorY_EN_Write(0x00);
1338:AS76.c        ****         CyDelayUs(500);
1339:AS76.c        ****         //Write_32bitSPI_DATA (0x26  , (int) 45000, TMC5160_nCS_MotorY );
1340:AS76.c        ****         update_max_velocity(381178, TMC5160_nCS_MotorY);
1341:AS76.c        ****         CyDelay(1);
1342:AS76.c        ****         goTo_Y(0);
1343:AS76.c        ****         Write_32bitSPI_DATA (0x10  , (int) 0x00070203, TMC5160_nCS_MotorY );
1344:AS76.c        ****         Write_32bitSPI_DATA (0x10  , (int) 0x00070101, TMC5160_nCS_MotorZ );
1345:AS76.c        ****         Write_32bitSPI_DATA (0x10  , (int) 0x00070301, TMC5160_nCS_MotorX );
1346:AS76.c        ****         homeY(TMC5160_nCS_MotorY);
1347:AS76.c        ****         Write_32bitSPI_DATA (0x10  , (int) 0x00070301, TMC5160_nCS_MotorY );
1348:AS76.c        ****         CyDelay(50);
1349:AS76.c        ****         TMC5160_MotorZ_EN_Write(0x00);
1350:AS76.c        ****         CyDelay(50);
1351:AS76.c        ****         TMC5160_MotorX_EN_Write(0x00);
1352:AS76.c        ****         CyDelay(50);
1353:AS76.c        ****         Send_Feedback_to_USB(Error);
ARM GAS  C:\Users\Revanth\AppData\Local\Temp\ccZixbSH.s 			page 31


1354:AS76.c        ****         
1355:AS76.c        ****     }
1356:AS76.c        ****     else if (command == HomeZ)                           
1357:AS76.c        ****     {
1358:AS76.c        ****         Write_Debug_UART_Char("\n\n\n\n\nHome Z Starting \n");
1359:AS76.c        ****         TMC5160_MotorY_EN_Write(0xFF);
1360:AS76.c        ****         CyDelayUs(500);
1361:AS76.c        ****         TMC5160_MotorX_EN_Write(0xFF);
1362:AS76.c        ****         CyDelayUs(500);
1363:AS76.c        ****         TMC5160_MotorZ_EN_Write(0x00);
1364:AS76.c        ****         CyDelayUs(500);
1365:AS76.c        ****         //Write_32bitSPI_DATA (0x26  , (int) 45000, TMC5160_nCS_MotorZ );
1366:AS76.c        ****         update_max_velocity(53687*2, TMC5160_nCS_MotorZ);
1367:AS76.c        ****         CyDelay(1);
1368:AS76.c        ****         goTo_Z(0);
1369:AS76.c        ****         Write_32bitSPI_DATA (0x10  , (int) 0x00070101, TMC5160_nCS_MotorY );
1370:AS76.c        ****         Write_32bitSPI_DATA (0x10  , (int) 0x00070303, TMC5160_nCS_MotorZ );
1371:AS76.c        ****         Write_32bitSPI_DATA (0x10  , (int) 0x00070301, TMC5160_nCS_MotorX );
1372:AS76.c        ****         homeZ(TMC5160_nCS_MotorZ);
1373:AS76.c        ****         CyDelay(50);
1374:AS76.c        ****         TMC5160_MotorY_EN_Write(0x00);
1375:AS76.c        ****         CyDelay(50);
1376:AS76.c        ****         TMC5160_MotorX_EN_Write(0x00);
1377:AS76.c        ****         //Write_32bitSPI_DATA (0x26  , (int) 0x0000FFFF, TMC5160_nCS_MotorZ );
1378:AS76.c        ****         Send_Feedback_to_USB(Error);
1379:AS76.c        ****     }
1380:AS76.c        ****     else if (command == HomeT)                           
1381:AS76.c        ****     {
1382:AS76.c        ****         Write_32bitSPI_DATA (0x10  , (int) 0x00070503, TMC5160_nCS_MotorT ); 
1383:AS76.c        ****         CyDelay(10);
1384:AS76.c        ****         goTo_T(0);
1385:AS76.c        ****         homeT(TMC5160_nCS_MotorT);
1386:AS76.c        ****         Send_Feedback_to_USB(Error);
1387:AS76.c        ****     }
1388:AS76.c        ****     else if (command == GotoX)                           
1389:AS76.c        ****     {
1390:AS76.c        ****         Write_Debug_UART_Char("\n\n\n\n\nGoto X Starting \n");
1391:AS76.c        ****         Position_X_Requested = ((int32)USB_received[5] << 24) + ((int32)USB_received[4] << 16) + ((
1392:AS76.c        ****         Write_Debug_UART_Char("Requested Position :");
1393:AS76.c        ****         Write_Debug_UART_Int(Position_X_Requested);
1394:AS76.c        ****         Write_Debug_UART_Char("\n");
1395:AS76.c        ****         
1396:AS76.c        ****         {
1397:AS76.c        ****             Position_X_Requested = (int)(Position_X_Requested / 4);
1398:AS76.c        ****             Position_X_Requested = (int)Position_X_Requested * 12.8;
1399:AS76.c        ****             Error = goTo_X(Position_X_Requested);
1400:AS76.c        ****         }
1401:AS76.c        ****         
1402:AS76.c        ****         
1403:AS76.c        ****         
1404:AS76.c        ****         
1405:AS76.c        ****         //Write_32bitSPI_DATA (0x10  , (int) 0x00070105, TMC5160_nCS_MotorX );
1406:AS76.c        ****         CyDelay(10);
1407:AS76.c        ****         Write_32bitSPI_DATA (0x10  , (int) 0x00070102, TMC5160_nCS_MotorY );
1408:AS76.c        ****         Write_32bitSPI_DATA (0x10  , (int) 0x00070102, TMC5160_nCS_MotorZ );
1409:AS76.c        ****         Write_32bitSPI_DATA (0x10  , (int) 0x00070102, TMC5160_nCS_MotorX );
1410:AS76.c        ****         Write_32bitSPI_DATA (0x10  , (int) 0x00070102, TMC5160_nCS_MotorT ); 
ARM GAS  C:\Users\Revanth\AppData\Local\Temp\ccZixbSH.s 			page 32


1411:AS76.c        ****         Send_Feedback_to_USB(Error);
1412:AS76.c        ****         
1413:AS76.c        ****         
1414:AS76.c        ****     }
1415:AS76.c        ****     else if (command == GotoY)          
1416:AS76.c        ****     {
1417:AS76.c        ****         Write_Debug_UART_Char("\n\n\n\n\nGoto Y Starting \n");
1418:AS76.c        ****         Position_Y_Requested = ((int32)USB_received[5] << 24) + ((int32)USB_received[4] << 16) + ((
1419:AS76.c        ****         Write_Debug_UART_Char("Requested Position :");
1420:AS76.c        ****         Write_Debug_UART_Int(Position_Y_Requested);
1421:AS76.c        ****         Write_Debug_UART_Char("\n");
1422:AS76.c        ****         Position_Y_Requested = (int)(Position_Y_Requested / 4);
1423:AS76.c        ****         Position_Y_Requested = (int)(Position_Y_Requested * 12.8);
1424:AS76.c        ****         Error = goTo_Y(Position_Y_Requested);
1425:AS76.c        ****                
1426:AS76.c        ****         //Write_32bitSPI_DATA (0x10  , (int) 0x00070105, TMC5160_nCS_MotorY );
1427:AS76.c        ****         CyDelay(10);        
1428:AS76.c        ****         Write_32bitSPI_DATA (0x10  , (int) 0x00070102, TMC5160_nCS_MotorY );
1429:AS76.c        ****         Write_32bitSPI_DATA (0x10  , (int) 0x00070102, TMC5160_nCS_MotorZ );
1430:AS76.c        ****         Write_32bitSPI_DATA (0x10  , (int) 0x00070102, TMC5160_nCS_MotorX );
1431:AS76.c        ****         Write_32bitSPI_DATA (0x10  , (int) 0x00070102, TMC5160_nCS_MotorT ); 
1432:AS76.c        ****         Send_Feedback_to_USB(Error);
1433:AS76.c        ****     }
1434:AS76.c        ****     else if (command == GotoZ)        
1435:AS76.c        ****     {
1436:AS76.c        ****         Write_Debug_UART_Char("\n\n\n\n\nGoto Z Starting \n");
1437:AS76.c        ****         update_max_velocity(107374,TMC5160_nCS_MotorZ);
1438:AS76.c        ****         Position_Z_Requested = ((int32)USB_received[5] << 24) + ((int32)USB_received[4] << 16) + ((
1439:AS76.c        ****         Write_Debug_UART_Char("Requested Position :");
1440:AS76.c        ****         Write_Debug_UART_Int(Position_Z_Requested);
1441:AS76.c        ****         Write_Debug_UART_Char("\n");
1442:AS76.c        ****         Position_Z_Requested = (Position_Z_Requested / 16);
1443:AS76.c        ****         Position_Z_Requested = Position_Z_Requested * 51.2;
1444:AS76.c        ****         Error = goTo_Z(Position_Z_Requested);
1445:AS76.c        ****         Send_Feedback_to_USB(Error);
1446:AS76.c        ****     }
1447:AS76.c        ****     else if (command == GotoT)        
1448:AS76.c        ****     {
1449:AS76.c        ****         Write_Debug_UART_Char("\n\n\n\n\nGoto T Starting \n");
1450:AS76.c        ****         Write_32bitSPI_DATA (0x10  , (int) 0x00070503, TMC5160_nCS_MotorT ); 
1451:AS76.c        ****         Position_T_Requested = ((int32)USB_received[5] << 24) + ((int32)USB_received[4] << 16) + ((
1452:AS76.c        ****         Position_T_Requested = (Position_T_Requested / 1);
1453:AS76.c        ****         Position_T_Requested = Position_T_Requested * 1;
1454:AS76.c        ****         Error = goTo_T(Position_T_Requested);
1455:AS76.c        ****         Send_Feedback_to_USB(Error);
1456:AS76.c        ****         Write_32bitSPI_DATA (0x10  , (int) 0x00070303, TMC5160_nCS_MotorT );
1457:AS76.c        ****    
1458:AS76.c        ****     }
1459:AS76.c        ****     else if ( command == Set_OilDispenser )
1460:AS76.c        ****     {
1461:AS76.c        ****         Write_Debug_UART_Char("\n\n\n\n\nOil Pump Starting \n");
1462:AS76.c        ****         int time_ms=0;
1463:AS76.c        ****         uint8_t direction=0;
1464:AS76.c        ****         time_ms = ((int32)USB_received[5] << 24) + ((int32)USB_received[4] << 16) + ((int32)USB_rec
1465:AS76.c        ****         if((USB_received[6] == 0x00) || (USB_received[6] == 0x01))
1466:AS76.c        ****         {
1467:AS76.c        ****             CyDelayUs(10);
ARM GAS  C:\Users\Revanth\AppData\Local\Temp\ccZixbSH.s 			page 33


1468:AS76.c        ****         }
1469:AS76.c        ****         else
1470:AS76.c        ****         {
1471:AS76.c        ****           USB_received[6] = 0x00;
1472:AS76.c        ****         }
1473:AS76.c        ****         
1474:AS76.c        ****         direction = USB_received[6];
1475:AS76.c        ****         run_pump (time_ms, direction);
1476:AS76.c        ****         Send_Feedback_to_USB(Error);
1477:AS76.c        ****     }
1478:AS76.c        ****     
1479:AS76.c        ****     else if (command == GotoXYZ)
1480:AS76.c        ****     {
1481:AS76.c        ****         update_max_velocity(107374,TMC5160_nCS_MotorZ);
1482:AS76.c        ****         Write_Debug_UART_Char("\n\n\n\n\nGoto XYZ Starting \n");
1483:AS76.c        ****         Position_X_Requested = ((int32)USB_received[5] << 24) + ((int32)USB_received[4] << 16) + ((
1484:AS76.c        ****         Position_Y_Requested = ((int32)USB_received[9] << 24) + ((int32)USB_received[8] << 16) + ((
1485:AS76.c        ****         Position_Z_Requested = ((int32)USB_received[13] << 24) + ((int32)USB_received[12] << 16) + 
1486:AS76.c        ****         //Input_Position_X_Temp = Position_X_Requested;
1487:AS76.c        ****         
1488:AS76.c        ****         if(Position_X_Requested >= 0)
1489:AS76.c        ****         {        
1490:AS76.c        ****         Position_X_Requested = (Position_X_Requested / 4);
1491:AS76.c        ****         Position_X_Requested = Position_X_Requested * 12.8;
1492:AS76.c        ****         }
1493:AS76.c        ****         if(Position_Y_Requested >= 0)
1494:AS76.c        ****         { 
1495:AS76.c        ****         Position_Y_Requested = (Position_Y_Requested / 4);
1496:AS76.c        ****         Position_Y_Requested = Position_Y_Requested * 12.8;
1497:AS76.c        ****         }
1498:AS76.c        ****         if(Position_Z_Requested >= 0)
1499:AS76.c        ****         { 
1500:AS76.c        ****         Position_Z_Requested = (Position_Z_Requested / 16);
1501:AS76.c        ****         Position_Z_Requested = Position_Z_Requested * 51.2;
1502:AS76.c        ****         }
1503:AS76.c        ****         
1504:AS76.c        ****         Error = goTo_XYZ(Position_X_Requested, Position_Y_Requested, Position_Z_Requested);
1505:AS76.c        ****         CyDelay(10);
1506:AS76.c        ****         Write_32bitSPI_DATA (0x10  , (int) 0x00070103, TMC5160_nCS_MotorY );
1507:AS76.c        ****         Write_32bitSPI_DATA (0x10  , (int) 0x00070103, TMC5160_nCS_MotorZ );
1508:AS76.c        ****         Write_32bitSPI_DATA (0x10  , (int) 0x00070103, TMC5160_nCS_MotorX );
1509:AS76.c        ****         Write_32bitSPI_DATA (0x10  , (int) 0x00070103, TMC5160_nCS_MotorT );
1510:AS76.c        ****         Send_Feedback_to_USB(Error);
1511:AS76.c        ****     }
1512:AS76.c        ****     
1513:AS76.c        ****     else if (command == Set_LED_voltage)
1514:AS76.c        ****     { 
1515:AS76.c        ****         Write_Debug_UART_Char("\n\n\n\n\nSet condender Starting \n");
1516:AS76.c        ****         set_CondenserLED();
1517:AS76.c        ****         CyDelay(100);
1518:AS76.c        ****         Send_Feedback_to_USB(Error);  
1519:AS76.c        ****     }
1520:AS76.c        ****     
1521:AS76.c        ****     else if (command == Set_BarClight)
1522:AS76.c        ****     {
1523:AS76.c        ****         Write_Debug_UART_Char("\n\n\n\n\nBarcode ligt Starting \n");
1524:AS76.c        ****         set_BarcodeCondenser_LED();
ARM GAS  C:\Users\Revanth\AppData\Local\Temp\ccZixbSH.s 			page 34


1525:AS76.c        ****         CyDelay(100);
1526:AS76.c        ****         Send_Feedback_to_USB(Error);  
1527:AS76.c        ****     }
1528:AS76.c        ****     
1529:AS76.c        ****     else if (command == Set_Backlight)
1530:AS76.c        ****     {
1531:AS76.c        ****         Write_Debug_UART_Char("\n\n\n\n\nSet Backlight Starting \n");
1532:AS76.c        ****         uint8_t value=0;
1533:AS76.c        ****         value = USB_received[2];
1534:AS76.c        ****         if(value == 0)
1535:AS76.c        ****         {
1536:AS76.c        ****         value = 0x00;
1537:AS76.c        ****         }
1538:AS76.c        ****         else if(value == 1)
1539:AS76.c        ****         {
1540:AS76.c        ****         value =0xFF;
1541:AS76.c        ****         }
1542:AS76.c        ****         else
1543:AS76.c        ****         {
1544:AS76.c        ****         Write_Debug_UART_Char("Backlight LED wrong Value Provided  \r\n");
1545:AS76.c        ****         }
1546:AS76.c        ****        
1547:AS76.c        ****         Pin_Backlight_Write(value);
1548:AS76.c        ****         Send_Feedback_to_USB(Error);
1549:AS76.c        ****     }
1550:AS76.c        ****     
1551:AS76.c        ****     else if (command == PCB_Reset)                     
1552:AS76.c        ****     {
1553:AS76.c        ****         Write_Debug_UART_Char("PCB Reset Command Recived  \r\n");
1554:AS76.c        ****         Write_Debug_UART_Char("\r\n");
1555:AS76.c        ****         CyDelay(500);
1556:AS76.c        ****         Send_Feedback_to_USB(0);
1557:AS76.c        ****         CyDelay(500);
1558:AS76.c        ****         CySoftwareReset();
1559:AS76.c        ****     }
1560:AS76.c        ****     else if(command == SetSpeed)  
1561:AS76.c        ****     {
1562:AS76.c        ****         
1563:AS76.c        ****         Motor_Speed_X = ((int32)USB_received[5] << 24) + ((int32)USB_received[4] << 16) + ((int32)U
1564:AS76.c        ****         Motor_Speed_Y = ((int32)USB_received[9] << 24) + ((int32)USB_received[8] << 16) + ((int32)U
1565:AS76.c        ****         Motor_Speed_Z = ((int32)USB_received[13] << 24) + ((int32)USB_received[12] << 16) + ((int32
1566:AS76.c        ****         
1567:AS76.c        ****         Write_Debug_UART_Char("SetNoOfExecution Command Recived  \r\n");
1568:AS76.c        ****         
1569:AS76.c        ****         update_max_velocity(Motor_Speed_X, TMC5160_nCS_MotorX);        
1570:AS76.c        ****         update_max_velocity(Motor_Speed_Y, TMC5160_nCS_MotorY);        
1571:AS76.c        ****         update_max_velocity(Motor_Speed_Z, TMC5160_nCS_MotorZ);
1572:AS76.c        ****         Write_Debug_UART_Char("Value received for x,y and z is --->");
1573:AS76.c        ****         Write_Debug_UART_Int(Motor_Speed_X);
1574:AS76.c        ****         Write_Debug_UART_Char(",");
1575:AS76.c        ****         Write_Debug_UART_Int(Motor_Speed_Y);
1576:AS76.c        ****         Write_Debug_UART_Char(",");
1577:AS76.c        ****         Write_Debug_UART_Int(Motor_Speed_Z);
1578:AS76.c        ****         Write_Debug_UART_Char(",");
1579:AS76.c        ****         Send_Feedback_to_USB(Error);
1580:AS76.c        ****     }
1581:AS76.c        ****     
ARM GAS  C:\Users\Revanth\AppData\Local\Temp\ccZixbSH.s 			page 35


1582:AS76.c        ****     else if(command == GotoZ_Vs)
1583:AS76.c        ****     {
1584:AS76.c        ****     Position_Z_Requested = ((int32)USB_received[5] << 24) + ((int32)USB_received[4] << 16) + ((int3
1585:AS76.c        ****     Motor_Speed_Z = ((int32)USB_received[9] << 24) + ((int32)USB_received[8] << 16) + ((int32)USB_r
1586:AS76.c        ****     update_max_velocity(Motor_Speed_Z,TMC5160_nCS_MotorZ);    
1587:AS76.c        ****     Position_Z_Requested = (Position_Z_Requested / 16);
1588:AS76.c        ****     Position_Z_Requested = Position_Z_Requested * 51.2;
1589:AS76.c        ****     goTo_Z(Position_Z_Requested);
1590:AS76.c        ****     //CyDelayUs(10);
1591:AS76.c        ****     //update_max_velocity(53687*2, TMC5160_nCS_MotorZ);
1592:AS76.c        ****     Send_Feedback_to_USB(Error);
1593:AS76.c        ****     }
1594:AS76.c        ****     
1595:AS76.c        ****     else if(command == GotoO_Vs)
1596:AS76.c        ****     {        
1597:AS76.c        ****     time_ms   = ((int32)USB_received[5] << 24) + ((int32)USB_received[4] << 16) + ((int32)USB_recei
1598:AS76.c        ****     oil_speed = ((int32)USB_received[9] << 24) + ((int32)USB_received[8] << 16) + ((int32)USB_recei
1599:AS76.c        ****     oil_dir   = USB_received[10];
1600:AS76.c        ****     run_pumpvs (time_ms, oil_speed, oil_dir);
1601:AS76.c        ****     Error = 0;
1602:AS76.c        ****     Send_Feedback_to_USB(Error);
1603:AS76.c        ****     }
1604:AS76.c        ****     
1605:AS76.c        ****     else if (command == GotoXYZ_Vs)
1606:AS76.c        ****     {
1607:AS76.c        ****         Position_X_Requested = ((int32)USB_received[5] << 24) + ((int32)USB_received[4] << 16) + ((
1608:AS76.c        ****         Position_Y_Requested = ((int32)USB_received[9] << 24) + ((int32)USB_received[8] << 16) + ((
1609:AS76.c        ****         Position_Z_Requested = ((int32)USB_received[13] << 24) + ((int32)USB_received[12] << 16) + 
1610:AS76.c        ****         
1611:AS76.c        ****         Motor_Speed_X = ((int32)USB_received[17] << 24) + ((int32)USB_received[16] << 16) + ((int32
1612:AS76.c        ****         Motor_Speed_Y = ((int32)USB_received[21] << 24) + ((int32)USB_received[20] << 16) + ((int32
1613:AS76.c        ****         Motor_Speed_Z = ((int32)USB_received[25] << 24) + ((int32)USB_received[24] << 16) + ((int32
1614:AS76.c        ****         
1615:AS76.c        ****         CyDelayUs(10);
1616:AS76.c        ****         
1617:AS76.c        ****         update_max_velocity(Motor_Speed_X, TMC5160_nCS_MotorX);        
1618:AS76.c        ****         update_max_velocity(Motor_Speed_Y, TMC5160_nCS_MotorY);        
1619:AS76.c        ****         update_max_velocity(Motor_Speed_Z, TMC5160_nCS_MotorZ);
1620:AS76.c        ****         
1621:AS76.c        ****         Position_X_Requested = (Position_X_Requested / 4);
1622:AS76.c        ****         Position_X_Requested = Position_X_Requested * 12.8;
1623:AS76.c        ****         
1624:AS76.c        ****         Position_Y_Requested = (Position_Y_Requested / 4);
1625:AS76.c        ****         Position_Y_Requested = Position_Y_Requested * 12.8;
1626:AS76.c        ****         
1627:AS76.c        ****         Position_Z_Requested = (Position_Z_Requested / 16);
1628:AS76.c        ****         Position_Z_Requested = Position_Z_Requested * 51.2;
1629:AS76.c        ****         
1630:AS76.c        ****         CyDelayUs(100);
1631:AS76.c        ****         
1632:AS76.c        ****         Error = goTo_XYZ(Position_X_Requested, Position_Y_Requested, Position_Z_Requested);
1633:AS76.c        ****         CyDelay(100);
1634:AS76.c        ****         Send_Feedback_to_USB(Error);
1635:AS76.c        ****     }
1636:AS76.c        ****     else if (command == SetNoOfExecution)
1637:AS76.c        ****     {
1638:AS76.c        ****         //set_no_of_execution();
ARM GAS  C:\Users\Revanth\AppData\Local\Temp\ccZixbSH.s 			page 36


1639:AS76.c        ****         
1640:AS76.c        ****         Send_Feedback_to_USB(Error);   
1641:AS76.c        ****     }
1642:AS76.c        ****     else if (command == Get_Status)                          
1643:AS76.c        ****     {
1644:AS76.c        ****         LED3_Write(0xFF);
1645:AS76.c        ****         Write_Debug_UART_Char("Get Status Command Recived  \r\n");
1646:AS76.c        ****         CyDelay(10);
1647:AS76.c        ****         Send_Feedback_to_USB(0);
1648:AS76.c        ****         LED3_Write(0x00);
1649:AS76.c        ****     }
1650:AS76.c        ****     else
1651:AS76.c        ****     {
1652:AS76.c        ****         Error = 19;//Wrong_Command_Received
1653:AS76.c        ****         Write_Debug_UART_Char("Wrong Command Received*********** \r\n");
1654:AS76.c        ****         UART_print_all_values();
1655:AS76.c        ****         Send_Feedback_to_USB(19);
1656:AS76.c        ****     }
1657:AS76.c        ****     //Pin_USB_RX_TX_Indicator_LED_Write(0);/* turn OFF LED as a indicator to stop process the comma
1658:AS76.c        **** }
1659:AS76.c        **** void Send_Feedback_to_USB(int Error)//Send Feedback to USB if USB command executed correctely 
1660:AS76.c        **** {
1661:AS76.c        ****      Read_All_Optical_Encoder();
1662:AS76.c        **** 
1663:AS76.c        ****     
1664:AS76.c        ****     
1665:AS76.c        ****         if(Error == 0)
1666:AS76.c        ****         {            
1667:AS76.c        ****             USB_transmit[0] = command;
1668:AS76.c        ****             USB_transmit[1] = (command >> 8);
1669:AS76.c        ****             USB_transmit[2] = No_Error;
1670:AS76.c        ****             USB_transmit[3] = No_Error >> 8;
1671:AS76.c        ****         }
1672:AS76.c        ****         else
1673:AS76.c        ****         {
1674:AS76.c        ****             switch(Error)
1675:AS76.c        ****             {
1676:AS76.c        ****                 case 1:
1677:AS76.c        ****                 {
1678:AS76.c        ****                     USB_transmit[2] = X_Motor_Not_Working;
1679:AS76.c        ****                     USB_transmit[3] = X_Motor_Not_Working >> 8; 
1680:AS76.c        ****                     break;
1681:AS76.c        ****                 }
1682:AS76.c        ****                 case 2:
1683:AS76.c        ****                 {
1684:AS76.c        ****                     USB_transmit[2] = X_Encoder_Not_Working;
1685:AS76.c        ****                     USB_transmit[3] = X_Encoder_Not_Working >> 8; 
1686:AS76.c        ****                     break;
1687:AS76.c        ****                 }
1688:AS76.c        ****                 case 3:
1689:AS76.c        ****                 {
1690:AS76.c        ****                     USB_transmit[2] = X_Switch_Not_Working;
1691:AS76.c        ****                     USB_transmit[3] = X_Switch_Not_Working >> 8; 
1692:AS76.c        ****                     break;
1693:AS76.c        ****                 }
1694:AS76.c        ****                 case 4:
1695:AS76.c        ****                 {
ARM GAS  C:\Users\Revanth\AppData\Local\Temp\ccZixbSH.s 			page 37


1696:AS76.c        ****                     USB_transmit[2] = X_Motor_Driver_Fault;
1697:AS76.c        ****                     USB_transmit[3] = X_Motor_Driver_Fault >> 8; 
1698:AS76.c        ****                     break;
1699:AS76.c        ****                 }
1700:AS76.c        ****                 case 5:
1701:AS76.c        ****                 {
1702:AS76.c        ****                     USB_transmit[2] = Requested_X_Step_Exceeding_The_Limit;
1703:AS76.c        ****                     USB_transmit[3] = Requested_X_Step_Exceeding_The_Limit >> 8; 
1704:AS76.c        ****                     break;
1705:AS76.c        ****                 }
1706:AS76.c        ****                 case 6:
1707:AS76.c        ****                 {
1708:AS76.c        ****                     USB_transmit[2] = X_Homing_Not_Done_Yet;
1709:AS76.c        ****                     USB_transmit[3] = X_Homing_Not_Done_Yet >> 8; 
1710:AS76.c        ****                     break;
1711:AS76.c        ****                 }
1712:AS76.c        ****                 case 7:
1713:AS76.c        ****                 {
1714:AS76.c        ****                     USB_transmit[2] = X_Motor_Busy ;
1715:AS76.c        ****                     USB_transmit[3] = X_Motor_Busy >> 8; 
1716:AS76.c        ****                     break;
1717:AS76.c        ****                 }
1718:AS76.c        ****                 case 8:
1719:AS76.c        ****                 {
1720:AS76.c        ****                     USB_transmit[2] = Y_Motor_Not_Working;
1721:AS76.c        ****                     USB_transmit[3] = Y_Motor_Not_Working >> 8; 
1722:AS76.c        ****                     break;
1723:AS76.c        ****                 }
1724:AS76.c        ****                 case 9:
1725:AS76.c        ****                 {
1726:AS76.c        ****                     USB_transmit[2] = Y_Encoder_Not_Working;
1727:AS76.c        ****                     USB_transmit[3] = Y_Encoder_Not_Working >> 8; 
1728:AS76.c        ****                     break;
1729:AS76.c        ****                 }
1730:AS76.c        ****                 case 10:
1731:AS76.c        ****                 {
1732:AS76.c        ****                     USB_transmit[2] = Y_Switch_Not_Working;
1733:AS76.c        ****                     USB_transmit[3] = Y_Switch_Not_Working >> 8; 
1734:AS76.c        ****                     break;
1735:AS76.c        ****                 }
1736:AS76.c        ****                 case 11:
1737:AS76.c        ****                 {
1738:AS76.c        ****                     USB_transmit[2] = Y_Motor_Driver_Fault;
1739:AS76.c        ****                     USB_transmit[3] = Y_Motor_Driver_Fault >> 8; 
1740:AS76.c        ****                     break;
1741:AS76.c        ****                 }
1742:AS76.c        ****                 case 12:
1743:AS76.c        ****                 {
1744:AS76.c        ****                     USB_transmit[2] = Requested_Y_Step_Exceeding_The_Limit;
1745:AS76.c        ****                     USB_transmit[3] = Requested_Y_Step_Exceeding_The_Limit >> 8; 
1746:AS76.c        ****                     break;
1747:AS76.c        ****                 }
1748:AS76.c        ****                 case 13:
1749:AS76.c        ****                 {
1750:AS76.c        ****                     USB_transmit[2] = Y_Homing_Not_Done_Yet;
1751:AS76.c        ****                     USB_transmit[3] = Y_Homing_Not_Done_Yet >> 8; 
1752:AS76.c        ****                     break;
ARM GAS  C:\Users\Revanth\AppData\Local\Temp\ccZixbSH.s 			page 38


1753:AS76.c        ****                 }
1754:AS76.c        ****                 case 14:
1755:AS76.c        ****                 {
1756:AS76.c        ****                     USB_transmit[2] = Y_Motor_Busy;
1757:AS76.c        ****                     USB_transmit[3] = Y_Motor_Busy >> 8; 
1758:AS76.c        ****                     break;
1759:AS76.c        ****                 }
1760:AS76.c        ****                 case 15:
1761:AS76.c        ****                 {
1762:AS76.c        ****                     USB_transmit[2] = Z_Motor_Not_Working ;
1763:AS76.c        ****                     USB_transmit[3] = Z_Motor_Not_Working >> 8; 
1764:AS76.c        ****                     break;
1765:AS76.c        ****                 }
1766:AS76.c        ****                 case 16:
1767:AS76.c        ****                 {
1768:AS76.c        ****                     USB_transmit[2] = Z_Encoder_Not_Working ;
1769:AS76.c        ****                     USB_transmit[3] = Z_Encoder_Not_Working >> 8; 
1770:AS76.c        ****                     break;
1771:AS76.c        ****                 }
1772:AS76.c        ****                 case 17:
1773:AS76.c        ****                 {
1774:AS76.c        ****                     USB_transmit[2] = Z_Switch_Not_Working;
1775:AS76.c        ****                     USB_transmit[3] = Z_Switch_Not_Working >> 8; 
1776:AS76.c        ****                     break;
1777:AS76.c        ****                 }
1778:AS76.c        ****                 case 18:
1779:AS76.c        ****                 {
1780:AS76.c        ****                     USB_transmit[2] = Z_Motor_Driver_Fault;
1781:AS76.c        ****                     USB_transmit[3] = Z_Motor_Driver_Fault >> 8; 
1782:AS76.c        ****                     break;
1783:AS76.c        ****                 }
1784:AS76.c        ****                 case 19:
1785:AS76.c        ****                 {
1786:AS76.c        ****                     USB_transmit[2] = Requested_Z_Step_Exceeding_The_Limit;
1787:AS76.c        ****                     USB_transmit[3] = Requested_Z_Step_Exceeding_The_Limit >> 8; 
1788:AS76.c        ****                     break;
1789:AS76.c        ****                 }
1790:AS76.c        ****                 case 20:
1791:AS76.c        ****                 {
1792:AS76.c        ****                     USB_transmit[2] = Z_Homing_Not_Done_Yet;
1793:AS76.c        ****                     USB_transmit[3] = Z_Homing_Not_Done_Yet >> 8; 
1794:AS76.c        ****                     break;
1795:AS76.c        ****                 }
1796:AS76.c        ****                 case 21:
1797:AS76.c        ****                 {
1798:AS76.c        ****                     USB_transmit[2] = Z_Motor_Busy;
1799:AS76.c        ****                     USB_transmit[3] = Z_Motor_Busy >> 8; 
1800:AS76.c        ****                     break;
1801:AS76.c        ****                 }
1802:AS76.c        ****                 case 22:
1803:AS76.c        ****                 {
1804:AS76.c        ****                     USB_transmit[2] = T_Motor_Not_Working;
1805:AS76.c        ****                     USB_transmit[3] =  T_Motor_Not_Working>> 8; 
1806:AS76.c        ****                     break;
1807:AS76.c        ****                 }
1808:AS76.c        ****                 case 23:
1809:AS76.c        ****                 {
ARM GAS  C:\Users\Revanth\AppData\Local\Temp\ccZixbSH.s 			page 39


1810:AS76.c        ****                     USB_transmit[2] = T_Encoder_Not_Working;
1811:AS76.c        ****                     USB_transmit[3] =  T_Encoder_Not_Working>> 8; 
1812:AS76.c        ****                     break;
1813:AS76.c        ****                 }
1814:AS76.c        ****                 case 24:
1815:AS76.c        ****                 {
1816:AS76.c        ****                     USB_transmit[2] = T_Switch_Not_Working;
1817:AS76.c        ****                     USB_transmit[3] =  T_Switch_Not_Working>> 8; 
1818:AS76.c        ****                     break;
1819:AS76.c        ****                 }
1820:AS76.c        ****                 
1821:AS76.c        ****                 case 25:
1822:AS76.c        ****                 {
1823:AS76.c        ****                     USB_transmit[2] = T_Motor_Driver_Fault;
1824:AS76.c        ****                     USB_transmit[3] =  T_Motor_Driver_Fault>> 8; 
1825:AS76.c        ****                     break;
1826:AS76.c        ****                 }
1827:AS76.c        ****                 case 26:
1828:AS76.c        ****                 {
1829:AS76.c        ****                     USB_transmit[2] = Requested_T_Step_Exceeding_The_Limit;
1830:AS76.c        ****                     USB_transmit[3] =  Requested_T_Step_Exceeding_The_Limit>> 8; 
1831:AS76.c        ****                     break;
1832:AS76.c        ****                 }
1833:AS76.c        ****                 case 27:
1834:AS76.c        ****                 {
1835:AS76.c        ****                     USB_transmit[2] = T_Homing_Not_Done_Yet;
1836:AS76.c        ****                     USB_transmit[3] =  T_Homing_Not_Done_Yet>> 8; 
1837:AS76.c        ****                     break;
1838:AS76.c        ****                 }
1839:AS76.c        ****                 case 28:
1840:AS76.c        ****                 {
1841:AS76.c        ****                     USB_transmit[2] = T_Motor_Busy;
1842:AS76.c        ****                     USB_transmit[3] = T_Motor_Busy >> 8; 
1843:AS76.c        ****                     break;
1844:AS76.c        ****                 }
1845:AS76.c        ****                 case 29:
1846:AS76.c        ****                 {
1847:AS76.c        ****                     USB_transmit[2] = Wrong_Command_Received;
1848:AS76.c        ****                     USB_transmit[3] = Wrong_Command_Received >> 8; 
1849:AS76.c        ****                     break;
1850:AS76.c        ****                 }
1851:AS76.c        ****                 case 30:
1852:AS76.c        ****                 {
1853:AS76.c        ****                     USB_transmit[2] = PCB_Paused;
1854:AS76.c        ****                     USB_transmit[3] = PCB_Paused >> 8; 
1855:AS76.c        ****                     break;
1856:AS76.c        ****                 }
1857:AS76.c        ****                 case 31:
1858:AS76.c        ****                 {
1859:AS76.c        ****                     USB_transmit[2] = PCB_Busy;
1860:AS76.c        ****                     USB_transmit[3] = PCB_Busy >> 8; 
1861:AS76.c        ****                     break;
1862:AS76.c        ****                 }
1863:AS76.c        ****                 case 32:
1864:AS76.c        ****                 {
1865:AS76.c        ****                     USB_transmit[2] = All_Motors_Homing_Not_Done;
1866:AS76.c        ****                     USB_transmit[3] = All_Motors_Homing_Not_Done >> 8; 
ARM GAS  C:\Users\Revanth\AppData\Local\Temp\ccZixbSH.s 			page 40


1867:AS76.c        ****                     break;
1868:AS76.c        ****                 }
1869:AS76.c        ****                 
1870:AS76.c        ****                 case 33:
1871:AS76.c        ****                 {
1872:AS76.c        ****                     USB_transmit[2] = O_Motor_Not_Working;
1873:AS76.c        ****                     USB_transmit[3] = O_Motor_Not_Working >> 8; 
1874:AS76.c        ****                     break;
1875:AS76.c        ****                 }
1876:AS76.c        ****             }
1877:AS76.c        ****         }
1878:AS76.c        ****         
1879:AS76.c        ****         X_QuadPosition = (X_QuadPosition * 4);
1880:AS76.c        ****         Y_QuadPosition = (Y_QuadPosition * 4);   
1881:AS76.c        ****         Z_QuadPosition = (Z_QuadPosition * 4);
1882:AS76.c        ****         T_QuadPosition = (int)(T_QuadPosition * 3.2); 
1883:AS76.c        ****         USB_transmit[4] = (X_QuadPosition);
1884:AS76.c        ****         USB_transmit[5] = (X_QuadPosition) >> 8;
1885:AS76.c        ****         USB_transmit[6] = (X_QuadPosition) >> 16;
1886:AS76.c        ****         USB_transmit[7] = (X_QuadPosition) >> 24;
1887:AS76.c        ****         USB_transmit[8] = (Y_QuadPosition);
1888:AS76.c        ****         USB_transmit[9] = (Y_QuadPosition) >> 8;
1889:AS76.c        ****         USB_transmit[10] =(Y_QuadPosition) >> 16;
1890:AS76.c        ****         USB_transmit[11] =(Y_QuadPosition) >> 24;
1891:AS76.c        ****         USB_transmit[12] = Z_QuadPosition;
1892:AS76.c        ****         USB_transmit[13] = Z_QuadPosition >> 8;
1893:AS76.c        ****         USB_transmit[14] = Z_QuadPosition >> 16;
1894:AS76.c        ****         USB_transmit[15] = Z_QuadPosition >> 24;
1895:AS76.c        ****         USB_transmit[16] = T_QuadPosition;
1896:AS76.c        ****         USB_transmit[17] = T_QuadPosition >> 8;
1897:AS76.c        ****         USB_transmit[18] = T_QuadPosition >> 16;
1898:AS76.c        ****         USB_transmit[19] = T_QuadPosition >> 24;
1899:AS76.c        ****         USB_transmit[20] = PWM_Condenser_comare_value;
1900:AS76.c        ****         USB_transmit[21] = PWM_Condenser_comare_value >> 8;
1901:AS76.c        ****         USB_transmit[22] = 0;
1902:AS76.c        ****         USB_transmit[23] = 0;
1903:AS76.c        ****         USB_transmit[24] = 0;
1904:AS76.c        ****         USB_transmit[25] = 0;
1905:AS76.c        ****         USB_transmit[26] = 0;
1906:AS76.c        ****         USB_transmit[27] = 0;
1907:AS76.c        ****         USB_transmit[28] = Motor_Speed_X;
1908:AS76.c        ****         USB_transmit[29] = Motor_Speed_X >> 8;
1909:AS76.c        ****         USB_transmit[30] = Motor_Speed_Y;
1910:AS76.c        ****         USB_transmit[31] = Motor_Speed_Y >> 8;
1911:AS76.c        ****         USB_transmit[32] = Motor_Speed_Z;
1912:AS76.c        ****         USB_transmit[33] = Motor_Speed_Z >> 8;
1913:AS76.c        ****         USB_transmit[34] = 0x00;
1914:AS76.c        ****         USB_transmit[35] = 0x00 >> 8;
1915:AS76.c        ****         USB_transmit[36] = 0x00;
1916:AS76.c        ****         USB_transmit[37] = 0x00;
1917:AS76.c        ****         USB_transmit[38] = 0x00;
1918:AS76.c        ****         USB_transmit[39] = Firmware_Version;
1919:AS76.c        ****         USB_transmit[40] = 0;
1920:AS76.c        ****         USB_transmit[41] = 0;
1921:AS76.c        ****         USB_transmit[42] = 0;
1922:AS76.c        ****         USB_transmit[43] = 0;
1923:AS76.c        ****         USB_transmit[44] = 0;
ARM GAS  C:\Users\Revanth\AppData\Local\Temp\ccZixbSH.s 			page 41


1924:AS76.c        ****         USB_transmit[45] = 0;
1925:AS76.c        ****         
1926:AS76.c        ****         
1927:AS76.c        ****         
1928:AS76.c        ****         
1929:AS76.c        ****         
1930:AS76.c        ****         Write_Debug_UART_Char("Feedback Sent to Motherboard  \r\n");
1931:AS76.c        ****         USB_PutData(USB_transmit, 46);  //send data back to usb
1932:AS76.c        ****     
1933:AS76.c        **** }
1934:AS76.c        **** void USB_Detect_Indication_Via_LED()/* LED Indicator for USB detection. */
1935:AS76.c        **** {
 348              		.loc 1 1935 0
 349              		.cfi_startproc
 350              		@ args = 0, pretend = 0, frame = 0
 351              		@ frame_needed = 0, uses_anonymous_args = 0
 352              		@ link register save eliminated.
 353 0000 7047     		bx	lr
 354              		.cfi_endproc
 355              	.LFE93:
 356              		.size	USB_Detect_Indication_Via_LED, .-USB_Detect_Indication_Via_LED
 357 0002 00BF     		.section	.text.Clear_USB_RX_Buffer,"ax",%progbits
 358              		.align	2
 359              		.global	Clear_USB_RX_Buffer
 360              		.thumb
 361              		.thumb_func
 362              		.type	Clear_USB_RX_Buffer, %function
 363              	Clear_USB_RX_Buffer:
 364              	.LFB96:
1936:AS76.c        **** 
1937:AS76.c        **** }
1938:AS76.c        **** void Initialize_USB()/* Start the USB. */
1939:AS76.c        **** {
1940:AS76.c        ****     USB_Start(0, USB_5V_OPERATION);   
1941:AS76.c        ****     while (0 == USB_GetConfiguration()) /* wait untill USB not found. */
1942:AS76.c        ****     {
1943:AS76.c        ****         Write_Debug_UART_Char("USB not Connected***********  \r\n");
1944:AS76.c        ****         CyDelayUs(1);
1945:AS76.c        ****     }
1946:AS76.c        ****     USB_CDC_Init();
1947:AS76.c        ****     Write_Debug_UART_Char("USB Connected  \r\n");
1948:AS76.c        ****     USB_EnableSofInt();  
1949:AS76.c        **** }
1950:AS76.c        **** void Is_USB_Unpluged()/* Check for changes in USB port reset if USB changes. */
1951:AS76.c        **** {
1952:AS76.c        ****    static bool dont_Execute_1st_Time=false;
1953:AS76.c        ****    if(USB_IsConfigurationChanged() != 0)
1954:AS76.c        ****    {
1955:AS76.c        ****     Beep_Twice();
1956:AS76.c        ****        if(USB_GetConfiguration() != 0)
1957:AS76.c        ****        {
1958:AS76.c        ****             if(dont_Execute_1st_Time)/* Ignore for the first time. */
1959:AS76.c        ****             {
1960:AS76.c        ****                 Write_Debug_UART_Char("USB Unpluged PCB resetting ***********  \r\n");
1961:AS76.c        ****                 UART_print_all_values();
1962:AS76.c        ****                 CyDelay(1);
1963:AS76.c        ****                 CySoftwareReset();
ARM GAS  C:\Users\Revanth\AppData\Local\Temp\ccZixbSH.s 			page 42


1964:AS76.c        ****             }
1965:AS76.c        ****             dont_Execute_1st_Time = true;
1966:AS76.c        ****        }
1967:AS76.c        ****    }  
1968:AS76.c        **** }
1969:AS76.c        **** void Clear_USB_RX_Buffer()/* Initialize all USB_received 64 bits to 0. */
1970:AS76.c        **** {
 365              		.loc 1 1970 0
 366              		.cfi_startproc
 367              		@ args = 0, pretend = 0, frame = 0
 368              		@ frame_needed = 0, uses_anonymous_args = 0
 369              		@ link register save eliminated.
 370              	.LVL29:
1971:AS76.c        ****     int i =0;
1972:AS76.c        ****     for(i=0;i<65;i++)   //Initializing all bites to 0
 371              		.loc 1 1972 0
 372 0000 0023     		movs	r3, #0
 373 0002 03E0     		b	.L31
 374              	.LVL30:
 375              	.L32:
1973:AS76.c        ****         USB_received[i] = 0;   
 376              		.loc 1 1973 0 discriminator 3
 377 0004 0021     		movs	r1, #0
 378 0006 034A     		ldr	r2, .L33
 379 0008 D154     		strb	r1, [r2, r3]
1972:AS76.c        ****         USB_received[i] = 0;   
 380              		.loc 1 1972 0 discriminator 3
 381 000a 0133     		adds	r3, r3, #1
 382              	.LVL31:
 383              	.L31:
1972:AS76.c        ****         USB_received[i] = 0;   
 384              		.loc 1 1972 0 is_stmt 0 discriminator 1
 385 000c 402B     		cmp	r3, #64
 386 000e F9DD     		ble	.L32
1974:AS76.c        **** }
 387              		.loc 1 1974 0 is_stmt 1
 388 0010 7047     		bx	lr
 389              	.L34:
 390 0012 00BF     		.align	2
 391              	.L33:
 392 0014 00000000 		.word	USB_received
 393              		.cfi_endproc
 394              	.LFE96:
 395              		.size	Clear_USB_RX_Buffer, .-Clear_USB_RX_Buffer
 396              		.section	.text.Clear_Pending_USB_Data,"ax",%progbits
 397              		.align	2
 398              		.global	Clear_Pending_USB_Data
 399              		.thumb
 400              		.thumb_func
 401              		.type	Clear_Pending_USB_Data, %function
 402              	Clear_Pending_USB_Data:
 403              	.LFB97:
1975:AS76.c        **** void Clear_Pending_USB_Data()/* Clear all pending data on usb RX buffer. */
1976:AS76.c        **** {
 404              		.loc 1 1976 0
 405              		.cfi_startproc
 406              		@ args = 0, pretend = 0, frame = 64
ARM GAS  C:\Users\Revanth\AppData\Local\Temp\ccZixbSH.s 			page 43


 407              		@ frame_needed = 0, uses_anonymous_args = 0
 408 0000 10B5     		push	{r4, lr}
 409              		.cfi_def_cfa_offset 8
 410              		.cfi_offset 4, -8
 411              		.cfi_offset 14, -4
 412 0002 90B0     		sub	sp, sp, #64
 413              		.cfi_def_cfa_offset 72
 414              	.LVL32:
1977:AS76.c        ****     int i;
1978:AS76.c        ****     uint8 USB_received_temp[64];
1979:AS76.c        ****     for(i=0;i<5;i++)
 415              		.loc 1 1979 0
 416 0004 0024     		movs	r4, #0
 417 0006 03E0     		b	.L36
 418              	.LVL33:
 419              	.L37:
1980:AS76.c        ****         {       
1981:AS76.c        ****             USB_GetAll(USB_received_temp);/* read and clear all Pending data. */
 420              		.loc 1 1981 0 discriminator 3
 421 0008 6846     		mov	r0, sp
 422 000a FFF7FEFF 		bl	USB_GetAll
 423              	.LVL34:
1979:AS76.c        ****         {       
 424              		.loc 1 1979 0 discriminator 3
 425 000e 0134     		adds	r4, r4, #1
 426              	.LVL35:
 427              	.L36:
1979:AS76.c        ****         {       
 428              		.loc 1 1979 0 is_stmt 0 discriminator 1
 429 0010 042C     		cmp	r4, #4
 430 0012 F9DD     		ble	.L37
1982:AS76.c        ****         }    
1983:AS76.c        **** }
 431              		.loc 1 1983 0 is_stmt 1
 432 0014 10B0     		add	sp, sp, #64
 433              		.cfi_def_cfa_offset 8
 434              		@ sp needed
 435 0016 10BD     		pop	{r4, pc}
 436              		.cfi_endproc
 437              	.LFE97:
 438              		.size	Clear_Pending_USB_Data, .-Clear_Pending_USB_Data
 439              		.section	.text.Write_Debug_UART_Char,"ax",%progbits
 440              		.align	2
 441              		.global	Write_Debug_UART_Char
 442              		.thumb
 443              		.thumb_func
 444              		.type	Write_Debug_UART_Char, %function
 445              	Write_Debug_UART_Char:
 446              	.LFB98:
1984:AS76.c        **** void Write_Debug_UART_Char(char Str[])
1985:AS76.c        **** {
 447              		.loc 1 1985 0
 448              		.cfi_startproc
 449              		@ args = 0, pretend = 0, frame = 0
 450              		@ frame_needed = 0, uses_anonymous_args = 0
 451              	.LVL36:
 452 0000 10B5     		push	{r4, lr}
ARM GAS  C:\Users\Revanth\AppData\Local\Temp\ccZixbSH.s 			page 44


 453              		.cfi_def_cfa_offset 8
 454              		.cfi_offset 4, -8
 455              		.cfi_offset 14, -4
 456 0002 0446     		mov	r4, r0
 457              	.LBB2:
1986:AS76.c        ****     //if(Pin_UART_Enable_Read()==0)
1987:AS76.c        ****     {
1988:AS76.c        ****         static char Str_Last_One[] = "ShonitV2.2\r\n";
1989:AS76.c        ****         if((strncmp(Str_Last_One, Str, 10)!=0))
 458              		.loc 1 1989 0
 459 0004 0A22     		movs	r2, #10
 460 0006 0146     		mov	r1, r0
 461 0008 0748     		ldr	r0, .L42
 462              	.LVL37:
 463 000a FFF7FEFF 		bl	strncmp
 464              	.LVL38:
 465 000e 50B1     		cbz	r0, .L39
1990:AS76.c        ****     	{
1991:AS76.c        ****             UART_PCB_LOG_PutString(Str);
 466              		.loc 1 1991 0
 467 0010 2046     		mov	r0, r4
 468 0012 FFF7FEFF 		bl	UART_PCB_LOG_PutString
 469              	.LVL39:
1992:AS76.c        ****             CyDelayUs(1);
 470              		.loc 1 1992 0
 471 0016 0120     		movs	r0, #1
 472 0018 FFF7FEFF 		bl	CyDelayUs
 473              	.LVL40:
1993:AS76.c        ****             strncpy(Str_Last_One, Str, 10); 
 474              		.loc 1 1993 0
 475 001c 0A22     		movs	r2, #10
 476 001e 2146     		mov	r1, r4
 477 0020 0148     		ldr	r0, .L42
 478 0022 FFF7FEFF 		bl	strncpy
 479              	.LVL41:
 480              	.L39:
 481 0026 10BD     		pop	{r4, pc}
 482              	.LVL42:
 483              	.L43:
 484              		.align	2
 485              	.L42:
 486 0028 04000000 		.word	.LANCHOR1+4
 487              	.LBE2:
 488              		.cfi_endproc
 489              	.LFE98:
 490              		.size	Write_Debug_UART_Char, .-Write_Debug_UART_Char
 491              		.section	.text.Beep_Once,"ax",%progbits
 492              		.align	2
 493              		.global	Beep_Once
 494              		.thumb
 495              		.thumb_func
 496              		.type	Beep_Once, %function
 497              	Beep_Once:
 498              	.LFB83:
1207:AS76.c        ****     PWM_Buzzer_WriteCompare(2500);
 499              		.loc 1 1207 0
 500              		.cfi_startproc
ARM GAS  C:\Users\Revanth\AppData\Local\Temp\ccZixbSH.s 			page 45


 501              		@ args = 0, pretend = 0, frame = 0
 502              		@ frame_needed = 0, uses_anonymous_args = 0
 503 0000 08B5     		push	{r3, lr}
 504              		.cfi_def_cfa_offset 8
 505              		.cfi_offset 3, -8
 506              		.cfi_offset 14, -4
1208:AS76.c        ****     CyDelay(200);
 507              		.loc 1 1208 0
 508 0002 40F6C410 		movw	r0, #2500
 509 0006 FFF7FEFF 		bl	PWM_Buzzer_WriteCompare
 510              	.LVL43:
1209:AS76.c        ****     PWM_Buzzer_WriteCompare(0);
 511              		.loc 1 1209 0
 512 000a C820     		movs	r0, #200
 513 000c FFF7FEFF 		bl	CyDelay
 514              	.LVL44:
1210:AS76.c        ****     Write_Debug_UART_Char("Beeped Once  \r\n");
 515              		.loc 1 1210 0
 516 0010 0020     		movs	r0, #0
 517 0012 FFF7FEFF 		bl	PWM_Buzzer_WriteCompare
 518              	.LVL45:
1211:AS76.c        ****     return 0;
 519              		.loc 1 1211 0
 520 0016 0248     		ldr	r0, .L46
 521 0018 FFF7FEFF 		bl	Write_Debug_UART_Char
 522              	.LVL46:
1213:AS76.c        **** 
 523              		.loc 1 1213 0
 524 001c 0020     		movs	r0, #0
 525 001e 08BD     		pop	{r3, pc}
 526              	.L47:
 527              		.align	2
 528              	.L46:
 529 0020 00000000 		.word	.LC0
 530              		.cfi_endproc
 531              	.LFE83:
 532              		.size	Beep_Once, .-Beep_Once
 533              		.section	.text.Beep_Twice,"ax",%progbits
 534              		.align	2
 535              		.global	Beep_Twice
 536              		.thumb
 537              		.thumb_func
 538              		.type	Beep_Twice, %function
 539              	Beep_Twice:
 540              	.LFB84:
1216:AS76.c        ****     PWM_Buzzer_WriteCompare(2500);
 541              		.loc 1 1216 0
 542              		.cfi_startproc
 543              		@ args = 0, pretend = 0, frame = 0
 544              		@ frame_needed = 0, uses_anonymous_args = 0
 545 0000 08B5     		push	{r3, lr}
 546              		.cfi_def_cfa_offset 8
 547              		.cfi_offset 3, -8
 548              		.cfi_offset 14, -4
1217:AS76.c        ****     CyDelay(200);
 549              		.loc 1 1217 0
 550 0002 40F6C410 		movw	r0, #2500
ARM GAS  C:\Users\Revanth\AppData\Local\Temp\ccZixbSH.s 			page 46


 551 0006 FFF7FEFF 		bl	PWM_Buzzer_WriteCompare
 552              	.LVL47:
1218:AS76.c        ****     PWM_Buzzer_WriteCompare(0);
 553              		.loc 1 1218 0
 554 000a C820     		movs	r0, #200
 555 000c FFF7FEFF 		bl	CyDelay
 556              	.LVL48:
1219:AS76.c        ****     CyDelay(200);
 557              		.loc 1 1219 0
 558 0010 0020     		movs	r0, #0
 559 0012 FFF7FEFF 		bl	PWM_Buzzer_WriteCompare
 560              	.LVL49:
1220:AS76.c        ****     PWM_Buzzer_WriteCompare(2500);
 561              		.loc 1 1220 0
 562 0016 C820     		movs	r0, #200
 563 0018 FFF7FEFF 		bl	CyDelay
 564              	.LVL50:
1221:AS76.c        ****     CyDelay(200);
 565              		.loc 1 1221 0
 566 001c 40F6C410 		movw	r0, #2500
 567 0020 FFF7FEFF 		bl	PWM_Buzzer_WriteCompare
 568              	.LVL51:
1222:AS76.c        ****     PWM_Buzzer_WriteCompare(0);
 569              		.loc 1 1222 0
 570 0024 C820     		movs	r0, #200
 571 0026 FFF7FEFF 		bl	CyDelay
 572              	.LVL52:
1223:AS76.c        ****     Write_Debug_UART_Char("Beeped Twice  \r\n");
 573              		.loc 1 1223 0
 574 002a 0020     		movs	r0, #0
 575 002c FFF7FEFF 		bl	PWM_Buzzer_WriteCompare
 576              	.LVL53:
1224:AS76.c        ****     return 0;
 577              		.loc 1 1224 0
 578 0030 0248     		ldr	r0, .L50
 579 0032 FFF7FEFF 		bl	Write_Debug_UART_Char
 580              	.LVL54:
1226:AS76.c        **** 
 581              		.loc 1 1226 0
 582 0036 0020     		movs	r0, #0
 583 0038 08BD     		pop	{r3, pc}
 584              	.L51:
 585 003a 00BF     		.align	2
 586              	.L50:
 587 003c 10000000 		.word	.LC1
 588              		.cfi_endproc
 589              	.LFE84:
 590              		.size	Beep_Twice, .-Beep_Twice
 591              		.section	.text.Long_Beep,"ax",%progbits
 592              		.align	2
 593              		.global	Long_Beep
 594              		.thumb
 595              		.thumb_func
 596              		.type	Long_Beep, %function
 597              	Long_Beep:
 598              	.LFB85:
1229:AS76.c        ****     PWM_Buzzer_WriteCompare(2500);
ARM GAS  C:\Users\Revanth\AppData\Local\Temp\ccZixbSH.s 			page 47


 599              		.loc 1 1229 0
 600              		.cfi_startproc
 601              		@ args = 0, pretend = 0, frame = 0
 602              		@ frame_needed = 0, uses_anonymous_args = 0
 603 0000 08B5     		push	{r3, lr}
 604              		.cfi_def_cfa_offset 8
 605              		.cfi_offset 3, -8
 606              		.cfi_offset 14, -4
1230:AS76.c        ****     CyDelay(2000);
 607              		.loc 1 1230 0
 608 0002 40F6C410 		movw	r0, #2500
 609 0006 FFF7FEFF 		bl	PWM_Buzzer_WriteCompare
 610              	.LVL55:
1231:AS76.c        ****     PWM_Buzzer_WriteCompare(0);
 611              		.loc 1 1231 0
 612 000a 4FF4FA60 		mov	r0, #2000
 613 000e FFF7FEFF 		bl	CyDelay
 614              	.LVL56:
1232:AS76.c        ****     CyDelay(200);
 615              		.loc 1 1232 0
 616 0012 0020     		movs	r0, #0
 617 0014 FFF7FEFF 		bl	PWM_Buzzer_WriteCompare
 618              	.LVL57:
1233:AS76.c        ****     
 619              		.loc 1 1233 0
 620 0018 C820     		movs	r0, #200
 621 001a FFF7FEFF 		bl	CyDelay
 622              	.LVL58:
1235:AS76.c        ****     return 0;
 623              		.loc 1 1235 0
 624 001e 0248     		ldr	r0, .L54
 625 0020 FFF7FEFF 		bl	Write_Debug_UART_Char
 626              	.LVL59:
1237:AS76.c        **** 
 627              		.loc 1 1237 0
 628 0024 0020     		movs	r0, #0
 629 0026 08BD     		pop	{r3, pc}
 630              	.L55:
 631              		.align	2
 632              	.L54:
 633 0028 24000000 		.word	.LC2
 634              		.cfi_endproc
 635              	.LFE85:
 636              		.size	Long_Beep, .-Long_Beep
 637              		.global	__aeabi_i2d
 638              		.global	__aeabi_dmul
 639              		.global	__aeabi_d2iz
 640              		.section	.text.Send_Feedback_to_USB,"ax",%progbits
 641              		.align	2
 642              		.global	Send_Feedback_to_USB
 643              		.thumb
 644              		.thumb_func
 645              		.type	Send_Feedback_to_USB, %function
 646              	Send_Feedback_to_USB:
 647              	.LFB92:
1660:AS76.c        ****      Read_All_Optical_Encoder();
 648              		.loc 1 1660 0
ARM GAS  C:\Users\Revanth\AppData\Local\Temp\ccZixbSH.s 			page 48


 649              		.cfi_startproc
 650              		@ args = 0, pretend = 0, frame = 0
 651              		@ frame_needed = 0, uses_anonymous_args = 0
 652              	.LVL60:
 653 0000 38B5     		push	{r3, r4, r5, lr}
 654              		.cfi_def_cfa_offset 16
 655              		.cfi_offset 3, -16
 656              		.cfi_offset 4, -12
 657              		.cfi_offset 5, -8
 658              		.cfi_offset 14, -4
 659 0002 0446     		mov	r4, r0
1661:AS76.c        **** 
 660              		.loc 1 1661 0
 661 0004 FFF7FEFF 		bl	Read_All_Optical_Encoder
 662              	.LVL61:
1665:AS76.c        ****         {            
 663              		.loc 1 1665 0
 664 0008 54B9     		cbnz	r4, .L57
1667:AS76.c        ****             USB_transmit[1] = (command >> 8);
 665              		.loc 1 1667 0
 666 000a 714B     		ldr	r3, .L94
 667 000c 1A68     		ldr	r2, [r3]
 668 000e 714B     		ldr	r3, .L94+4
 669 0010 1A70     		strb	r2, [r3]
1668:AS76.c        ****             USB_transmit[2] = No_Error;
 670              		.loc 1 1668 0
 671 0012 120A     		lsrs	r2, r2, #8
 672 0014 5A70     		strb	r2, [r3, #1]
1669:AS76.c        ****             USB_transmit[3] = No_Error >> 8;
 673              		.loc 1 1669 0
 674 0016 0022     		movs	r2, #0
 675 0018 9A70     		strb	r2, [r3, #2]
1670:AS76.c        ****         }
 676              		.loc 1 1670 0
 677 001a FA22     		movs	r2, #250
 678 001c DA70     		strb	r2, [r3, #3]
 679 001e E0E0     		b	.L58
 680              	.L57:
1674:AS76.c        ****             {
 681              		.loc 1 1674 0
 682 0020 013C     		subs	r4, r4, #1
 683              	.LVL62:
 684 0022 202C     		cmp	r4, #32
 685 0024 00F2DD80 		bhi	.L58
 686 0028 DFE804F0 		tbb	[pc, r4]
 687              	.L60:
 688 002c 11       		.byte	(.L59-.L60)/2
 689 002d 17       		.byte	(.L61-.L60)/2
 690 002e 1D       		.byte	(.L62-.L60)/2
 691 002f 23       		.byte	(.L63-.L60)/2
 692 0030 29       		.byte	(.L64-.L60)/2
 693 0031 2F       		.byte	(.L65-.L60)/2
 694 0032 35       		.byte	(.L66-.L60)/2
 695 0033 3B       		.byte	(.L67-.L60)/2
 696 0034 41       		.byte	(.L68-.L60)/2
 697 0035 47       		.byte	(.L69-.L60)/2
 698 0036 4D       		.byte	(.L70-.L60)/2
ARM GAS  C:\Users\Revanth\AppData\Local\Temp\ccZixbSH.s 			page 49


 699 0037 53       		.byte	(.L71-.L60)/2
 700 0038 59       		.byte	(.L72-.L60)/2
 701 0039 5F       		.byte	(.L73-.L60)/2
 702 003a 65       		.byte	(.L74-.L60)/2
 703 003b 6B       		.byte	(.L75-.L60)/2
 704 003c 71       		.byte	(.L76-.L60)/2
 705 003d 77       		.byte	(.L77-.L60)/2
 706 003e 7D       		.byte	(.L78-.L60)/2
 707 003f 83       		.byte	(.L79-.L60)/2
 708 0040 89       		.byte	(.L80-.L60)/2
 709 0041 8F       		.byte	(.L81-.L60)/2
 710 0042 95       		.byte	(.L82-.L60)/2
 711 0043 9B       		.byte	(.L83-.L60)/2
 712 0044 A1       		.byte	(.L84-.L60)/2
 713 0045 A7       		.byte	(.L85-.L60)/2
 714 0046 AD       		.byte	(.L86-.L60)/2
 715 0047 B3       		.byte	(.L87-.L60)/2
 716 0048 B9       		.byte	(.L88-.L60)/2
 717 0049 BF       		.byte	(.L89-.L60)/2
 718 004a C5       		.byte	(.L90-.L60)/2
 719 004b CB       		.byte	(.L91-.L60)/2
 720 004c D6       		.byte	(.L92-.L60)/2
 721 004d 00       		.p2align 1
 722              	.L59:
1678:AS76.c        ****                     USB_transmit[3] = X_Motor_Not_Working >> 8; 
 723              		.loc 1 1678 0
 724 004e 614B     		ldr	r3, .L94+4
 725 0050 0122     		movs	r2, #1
 726 0052 9A70     		strb	r2, [r3, #2]
1679:AS76.c        ****                     break;
 727              		.loc 1 1679 0
 728 0054 FA22     		movs	r2, #250
 729 0056 DA70     		strb	r2, [r3, #3]
1680:AS76.c        ****                 }
 730              		.loc 1 1680 0
 731 0058 C3E0     		b	.L58
 732              	.L61:
1684:AS76.c        ****                     USB_transmit[3] = X_Encoder_Not_Working >> 8; 
 733              		.loc 1 1684 0
 734 005a 5E4B     		ldr	r3, .L94+4
 735 005c 0222     		movs	r2, #2
 736 005e 9A70     		strb	r2, [r3, #2]
1685:AS76.c        ****                     break;
 737              		.loc 1 1685 0
 738 0060 FA22     		movs	r2, #250
 739 0062 DA70     		strb	r2, [r3, #3]
1686:AS76.c        ****                 }
 740              		.loc 1 1686 0
 741 0064 BDE0     		b	.L58
 742              	.L62:
1690:AS76.c        ****                     USB_transmit[3] = X_Switch_Not_Working >> 8; 
 743              		.loc 1 1690 0
 744 0066 5B4B     		ldr	r3, .L94+4
 745 0068 1722     		movs	r2, #23
 746 006a 9A70     		strb	r2, [r3, #2]
1691:AS76.c        ****                     break;
 747              		.loc 1 1691 0
ARM GAS  C:\Users\Revanth\AppData\Local\Temp\ccZixbSH.s 			page 50


 748 006c FA22     		movs	r2, #250
 749 006e DA70     		strb	r2, [r3, #3]
1692:AS76.c        ****                 }
 750              		.loc 1 1692 0
 751 0070 B7E0     		b	.L58
 752              	.L63:
1696:AS76.c        ****                     USB_transmit[3] = X_Motor_Driver_Fault >> 8; 
 753              		.loc 1 1696 0
 754 0072 584B     		ldr	r3, .L94+4
 755 0074 0722     		movs	r2, #7
 756 0076 9A70     		strb	r2, [r3, #2]
1697:AS76.c        ****                     break;
 757              		.loc 1 1697 0
 758 0078 FA22     		movs	r2, #250
 759 007a DA70     		strb	r2, [r3, #3]
1698:AS76.c        ****                 }
 760              		.loc 1 1698 0
 761 007c B1E0     		b	.L58
 762              	.L64:
1702:AS76.c        ****                     USB_transmit[3] = Requested_X_Step_Exceeding_The_Limit >> 8; 
 763              		.loc 1 1702 0
 764 007e 554B     		ldr	r3, .L94+4
 765 0080 1122     		movs	r2, #17
 766 0082 9A70     		strb	r2, [r3, #2]
1703:AS76.c        ****                     break;
 767              		.loc 1 1703 0
 768 0084 FA22     		movs	r2, #250
 769 0086 DA70     		strb	r2, [r3, #3]
1704:AS76.c        ****                 }
 770              		.loc 1 1704 0
 771 0088 ABE0     		b	.L58
 772              	.L65:
1708:AS76.c        ****                     USB_transmit[3] = X_Homing_Not_Done_Yet >> 8; 
 773              		.loc 1 1708 0
 774 008a 524B     		ldr	r3, .L94+4
 775 008c 1D22     		movs	r2, #29
 776 008e 9A70     		strb	r2, [r3, #2]
1709:AS76.c        ****                     break;
 777              		.loc 1 1709 0
 778 0090 FA22     		movs	r2, #250
 779 0092 DA70     		strb	r2, [r3, #3]
1710:AS76.c        ****                 }
 780              		.loc 1 1710 0
 781 0094 A5E0     		b	.L58
 782              	.L66:
1714:AS76.c        ****                     USB_transmit[3] = X_Motor_Busy >> 8; 
 783              		.loc 1 1714 0
 784 0096 4F4B     		ldr	r3, .L94+4
 785 0098 2522     		movs	r2, #37
 786 009a 9A70     		strb	r2, [r3, #2]
1715:AS76.c        ****                     break;
 787              		.loc 1 1715 0
 788 009c FA22     		movs	r2, #250
 789 009e DA70     		strb	r2, [r3, #3]
1716:AS76.c        ****                 }
 790              		.loc 1 1716 0
 791 00a0 9FE0     		b	.L58
ARM GAS  C:\Users\Revanth\AppData\Local\Temp\ccZixbSH.s 			page 51


 792              	.L67:
1720:AS76.c        ****                     USB_transmit[3] = Y_Motor_Not_Working >> 8; 
 793              		.loc 1 1720 0
 794 00a2 4C4B     		ldr	r3, .L94+4
 795 00a4 0322     		movs	r2, #3
 796 00a6 9A70     		strb	r2, [r3, #2]
1721:AS76.c        ****                     break;
 797              		.loc 1 1721 0
 798 00a8 FA22     		movs	r2, #250
 799 00aa DA70     		strb	r2, [r3, #3]
1722:AS76.c        ****                 }
 800              		.loc 1 1722 0
 801 00ac 99E0     		b	.L58
 802              	.L68:
1726:AS76.c        ****                     USB_transmit[3] = Y_Encoder_Not_Working >> 8; 
 803              		.loc 1 1726 0
 804 00ae 494B     		ldr	r3, .L94+4
 805 00b0 0422     		movs	r2, #4
 806 00b2 9A70     		strb	r2, [r3, #2]
1727:AS76.c        ****                     break;
 807              		.loc 1 1727 0
 808 00b4 FA22     		movs	r2, #250
 809 00b6 DA70     		strb	r2, [r3, #3]
1728:AS76.c        ****                 }
 810              		.loc 1 1728 0
 811 00b8 93E0     		b	.L58
 812              	.L69:
1732:AS76.c        ****                     USB_transmit[3] = Y_Switch_Not_Working >> 8; 
 813              		.loc 1 1732 0
 814 00ba 464B     		ldr	r3, .L94+4
 815 00bc 1822     		movs	r2, #24
 816 00be 9A70     		strb	r2, [r3, #2]
1733:AS76.c        ****                     break;
 817              		.loc 1 1733 0
 818 00c0 FA22     		movs	r2, #250
 819 00c2 DA70     		strb	r2, [r3, #3]
1734:AS76.c        ****                 }
 820              		.loc 1 1734 0
 821 00c4 8DE0     		b	.L58
 822              	.L70:
1738:AS76.c        ****                     USB_transmit[3] = Y_Motor_Driver_Fault >> 8; 
 823              		.loc 1 1738 0
 824 00c6 434B     		ldr	r3, .L94+4
 825 00c8 0822     		movs	r2, #8
 826 00ca 9A70     		strb	r2, [r3, #2]
1739:AS76.c        ****                     break;
 827              		.loc 1 1739 0
 828 00cc FA22     		movs	r2, #250
 829 00ce DA70     		strb	r2, [r3, #3]
1740:AS76.c        ****                 }
 830              		.loc 1 1740 0
 831 00d0 87E0     		b	.L58
 832              	.L71:
1744:AS76.c        ****                     USB_transmit[3] = Requested_Y_Step_Exceeding_The_Limit >> 8; 
 833              		.loc 1 1744 0
 834 00d2 404B     		ldr	r3, .L94+4
 835 00d4 1222     		movs	r2, #18
ARM GAS  C:\Users\Revanth\AppData\Local\Temp\ccZixbSH.s 			page 52


 836 00d6 9A70     		strb	r2, [r3, #2]
1745:AS76.c        ****                     break;
 837              		.loc 1 1745 0
 838 00d8 FA22     		movs	r2, #250
 839 00da DA70     		strb	r2, [r3, #3]
1746:AS76.c        ****                 }
 840              		.loc 1 1746 0
 841 00dc 81E0     		b	.L58
 842              	.L72:
1750:AS76.c        ****                     USB_transmit[3] = Y_Homing_Not_Done_Yet >> 8; 
 843              		.loc 1 1750 0
 844 00de 3D4B     		ldr	r3, .L94+4
 845 00e0 1E22     		movs	r2, #30
 846 00e2 9A70     		strb	r2, [r3, #2]
1751:AS76.c        ****                     break;
 847              		.loc 1 1751 0
 848 00e4 FA22     		movs	r2, #250
 849 00e6 DA70     		strb	r2, [r3, #3]
1752:AS76.c        ****                 }
 850              		.loc 1 1752 0
 851 00e8 7BE0     		b	.L58
 852              	.L73:
1756:AS76.c        ****                     USB_transmit[3] = Y_Motor_Busy >> 8; 
 853              		.loc 1 1756 0
 854 00ea 3A4B     		ldr	r3, .L94+4
 855 00ec 2622     		movs	r2, #38
 856 00ee 9A70     		strb	r2, [r3, #2]
1757:AS76.c        ****                     break;
 857              		.loc 1 1757 0
 858 00f0 FA22     		movs	r2, #250
 859 00f2 DA70     		strb	r2, [r3, #3]
1758:AS76.c        ****                 }
 860              		.loc 1 1758 0
 861 00f4 75E0     		b	.L58
 862              	.L74:
1762:AS76.c        ****                     USB_transmit[3] = Z_Motor_Not_Working >> 8; 
 863              		.loc 1 1762 0
 864 00f6 374B     		ldr	r3, .L94+4
 865 00f8 0522     		movs	r2, #5
 866 00fa 9A70     		strb	r2, [r3, #2]
1763:AS76.c        ****                     break;
 867              		.loc 1 1763 0
 868 00fc FA22     		movs	r2, #250
 869 00fe DA70     		strb	r2, [r3, #3]
1764:AS76.c        ****                 }
 870              		.loc 1 1764 0
 871 0100 6FE0     		b	.L58
 872              	.L75:
1768:AS76.c        ****                     USB_transmit[3] = Z_Encoder_Not_Working >> 8; 
 873              		.loc 1 1768 0
 874 0102 344B     		ldr	r3, .L94+4
 875 0104 0622     		movs	r2, #6
 876 0106 9A70     		strb	r2, [r3, #2]
1769:AS76.c        ****                     break;
 877              		.loc 1 1769 0
 878 0108 FA22     		movs	r2, #250
 879 010a DA70     		strb	r2, [r3, #3]
ARM GAS  C:\Users\Revanth\AppData\Local\Temp\ccZixbSH.s 			page 53


1770:AS76.c        ****                 }
 880              		.loc 1 1770 0
 881 010c 69E0     		b	.L58
 882              	.L76:
1774:AS76.c        ****                     USB_transmit[3] = Z_Switch_Not_Working >> 8; 
 883              		.loc 1 1774 0
 884 010e 314B     		ldr	r3, .L94+4
 885 0110 1922     		movs	r2, #25
 886 0112 9A70     		strb	r2, [r3, #2]
1775:AS76.c        ****                     break;
 887              		.loc 1 1775 0
 888 0114 FA22     		movs	r2, #250
 889 0116 DA70     		strb	r2, [r3, #3]
1776:AS76.c        ****                 }
 890              		.loc 1 1776 0
 891 0118 63E0     		b	.L58
 892              	.L77:
1780:AS76.c        ****                     USB_transmit[3] = Z_Motor_Driver_Fault >> 8; 
 893              		.loc 1 1780 0
 894 011a 2E4B     		ldr	r3, .L94+4
 895 011c 0922     		movs	r2, #9
 896 011e 9A70     		strb	r2, [r3, #2]
1781:AS76.c        ****                     break;
 897              		.loc 1 1781 0
 898 0120 FA22     		movs	r2, #250
 899 0122 DA70     		strb	r2, [r3, #3]
1782:AS76.c        ****                 }
 900              		.loc 1 1782 0
 901 0124 5DE0     		b	.L58
 902              	.L78:
1786:AS76.c        ****                     USB_transmit[3] = Requested_Z_Step_Exceeding_The_Limit >> 8; 
 903              		.loc 1 1786 0
 904 0126 2B4B     		ldr	r3, .L94+4
 905 0128 1322     		movs	r2, #19
 906 012a 9A70     		strb	r2, [r3, #2]
1787:AS76.c        ****                     break;
 907              		.loc 1 1787 0
 908 012c FA22     		movs	r2, #250
 909 012e DA70     		strb	r2, [r3, #3]
1788:AS76.c        ****                 }
 910              		.loc 1 1788 0
 911 0130 57E0     		b	.L58
 912              	.L79:
1792:AS76.c        ****                     USB_transmit[3] = Z_Homing_Not_Done_Yet >> 8; 
 913              		.loc 1 1792 0
 914 0132 284B     		ldr	r3, .L94+4
 915 0134 1F22     		movs	r2, #31
 916 0136 9A70     		strb	r2, [r3, #2]
1793:AS76.c        ****                     break;
 917              		.loc 1 1793 0
 918 0138 FA22     		movs	r2, #250
 919 013a DA70     		strb	r2, [r3, #3]
1794:AS76.c        ****                 }
 920              		.loc 1 1794 0
 921 013c 51E0     		b	.L58
 922              	.L80:
1798:AS76.c        ****                     USB_transmit[3] = Z_Motor_Busy >> 8; 
ARM GAS  C:\Users\Revanth\AppData\Local\Temp\ccZixbSH.s 			page 54


 923              		.loc 1 1798 0
 924 013e 254B     		ldr	r3, .L94+4
 925 0140 2722     		movs	r2, #39
 926 0142 9A70     		strb	r2, [r3, #2]
1799:AS76.c        ****                     break;
 927              		.loc 1 1799 0
 928 0144 FA22     		movs	r2, #250
 929 0146 DA70     		strb	r2, [r3, #3]
1800:AS76.c        ****                 }
 930              		.loc 1 1800 0
 931 0148 4BE0     		b	.L58
 932              	.L81:
1804:AS76.c        ****                     USB_transmit[3] =  T_Motor_Not_Working>> 8; 
 933              		.loc 1 1804 0
 934 014a 224B     		ldr	r3, .L94+4
 935 014c 2B22     		movs	r2, #43
 936 014e 9A70     		strb	r2, [r3, #2]
1805:AS76.c        ****                     break;
 937              		.loc 1 1805 0
 938 0150 FA22     		movs	r2, #250
 939 0152 DA70     		strb	r2, [r3, #3]
1806:AS76.c        ****                 }
 940              		.loc 1 1806 0
 941 0154 45E0     		b	.L58
 942              	.L82:
1810:AS76.c        ****                     USB_transmit[3] =  T_Encoder_Not_Working>> 8; 
 943              		.loc 1 1810 0
 944 0156 1F4B     		ldr	r3, .L94+4
 945 0158 2C22     		movs	r2, #44
 946 015a 9A70     		strb	r2, [r3, #2]
1811:AS76.c        ****                     break;
 947              		.loc 1 1811 0
 948 015c FA22     		movs	r2, #250
 949 015e DA70     		strb	r2, [r3, #3]
1812:AS76.c        ****                 }
 950              		.loc 1 1812 0
 951 0160 3FE0     		b	.L58
 952              	.L83:
1816:AS76.c        ****                     USB_transmit[3] =  T_Switch_Not_Working>> 8; 
 953              		.loc 1 1816 0
 954 0162 1C4B     		ldr	r3, .L94+4
 955 0164 2D22     		movs	r2, #45
 956 0166 9A70     		strb	r2, [r3, #2]
1817:AS76.c        ****                     break;
 957              		.loc 1 1817 0
 958 0168 FA22     		movs	r2, #250
 959 016a DA70     		strb	r2, [r3, #3]
1818:AS76.c        ****                 }
 960              		.loc 1 1818 0
 961 016c 39E0     		b	.L58
 962              	.L84:
1823:AS76.c        ****                     USB_transmit[3] =  T_Motor_Driver_Fault>> 8; 
 963              		.loc 1 1823 0
 964 016e 194B     		ldr	r3, .L94+4
 965 0170 2E22     		movs	r2, #46
 966 0172 9A70     		strb	r2, [r3, #2]
1824:AS76.c        ****                     break;
ARM GAS  C:\Users\Revanth\AppData\Local\Temp\ccZixbSH.s 			page 55


 967              		.loc 1 1824 0
 968 0174 FA22     		movs	r2, #250
 969 0176 DA70     		strb	r2, [r3, #3]
1825:AS76.c        ****                 }
 970              		.loc 1 1825 0
 971 0178 33E0     		b	.L58
 972              	.L85:
1829:AS76.c        ****                     USB_transmit[3] =  Requested_T_Step_Exceeding_The_Limit>> 8; 
 973              		.loc 1 1829 0
 974 017a 164B     		ldr	r3, .L94+4
 975 017c 2A22     		movs	r2, #42
 976 017e 9A70     		strb	r2, [r3, #2]
1830:AS76.c        ****                     break;
 977              		.loc 1 1830 0
 978 0180 FA22     		movs	r2, #250
 979 0182 DA70     		strb	r2, [r3, #3]
1831:AS76.c        ****                 }
 980              		.loc 1 1831 0
 981 0184 2DE0     		b	.L58
 982              	.L86:
1835:AS76.c        ****                     USB_transmit[3] =  T_Homing_Not_Done_Yet>> 8; 
 983              		.loc 1 1835 0
 984 0186 134B     		ldr	r3, .L94+4
 985 0188 2F22     		movs	r2, #47
 986 018a 9A70     		strb	r2, [r3, #2]
1836:AS76.c        ****                     break;
 987              		.loc 1 1836 0
 988 018c FA22     		movs	r2, #250
 989 018e DA70     		strb	r2, [r3, #3]
1837:AS76.c        ****                 }
 990              		.loc 1 1837 0
 991 0190 27E0     		b	.L58
 992              	.L87:
1841:AS76.c        ****                     USB_transmit[3] = T_Motor_Busy >> 8; 
 993              		.loc 1 1841 0
 994 0192 104B     		ldr	r3, .L94+4
 995 0194 2822     		movs	r2, #40
 996 0196 9A70     		strb	r2, [r3, #2]
1842:AS76.c        ****                     break;
 997              		.loc 1 1842 0
 998 0198 FA22     		movs	r2, #250
 999 019a DA70     		strb	r2, [r3, #3]
1843:AS76.c        ****                 }
 1000              		.loc 1 1843 0
 1001 019c 21E0     		b	.L58
 1002              	.L88:
1847:AS76.c        ****                     USB_transmit[3] = Wrong_Command_Received >> 8; 
 1003              		.loc 1 1847 0
 1004 019e 0D4B     		ldr	r3, .L94+4
 1005 01a0 2222     		movs	r2, #34
 1006 01a2 9A70     		strb	r2, [r3, #2]
1848:AS76.c        ****                     break;
 1007              		.loc 1 1848 0
 1008 01a4 FA22     		movs	r2, #250
 1009 01a6 DA70     		strb	r2, [r3, #3]
1849:AS76.c        ****                 }
 1010              		.loc 1 1849 0
ARM GAS  C:\Users\Revanth\AppData\Local\Temp\ccZixbSH.s 			page 56


 1011 01a8 1BE0     		b	.L58
 1012              	.L89:
1853:AS76.c        ****                     USB_transmit[3] = PCB_Paused >> 8; 
 1013              		.loc 1 1853 0
 1014 01aa 0A4B     		ldr	r3, .L94+4
 1015 01ac 2322     		movs	r2, #35
 1016 01ae 9A70     		strb	r2, [r3, #2]
1854:AS76.c        ****                     break;
 1017              		.loc 1 1854 0
 1018 01b0 FA22     		movs	r2, #250
 1019 01b2 DA70     		strb	r2, [r3, #3]
1855:AS76.c        ****                 }
 1020              		.loc 1 1855 0
 1021 01b4 15E0     		b	.L58
 1022              	.L90:
1859:AS76.c        ****                     USB_transmit[3] = PCB_Busy >> 8; 
 1023              		.loc 1 1859 0
 1024 01b6 074B     		ldr	r3, .L94+4
 1025 01b8 2422     		movs	r2, #36
 1026 01ba 9A70     		strb	r2, [r3, #2]
1860:AS76.c        ****                     break;
 1027              		.loc 1 1860 0
 1028 01bc FA22     		movs	r2, #250
 1029 01be DA70     		strb	r2, [r3, #3]
1861:AS76.c        ****                 }
 1030              		.loc 1 1861 0
 1031 01c0 0FE0     		b	.L58
 1032              	.L91:
1865:AS76.c        ****                     USB_transmit[3] = All_Motors_Homing_Not_Done >> 8; 
 1033              		.loc 1 1865 0
 1034 01c2 044B     		ldr	r3, .L94+4
 1035 01c4 2922     		movs	r2, #41
 1036 01c6 9A70     		strb	r2, [r3, #2]
1866:AS76.c        ****                     break;
 1037              		.loc 1 1866 0
 1038 01c8 FA22     		movs	r2, #250
 1039 01ca DA70     		strb	r2, [r3, #3]
1867:AS76.c        ****                 }
 1040              		.loc 1 1867 0
 1041 01cc 09E0     		b	.L58
 1042              	.L95:
 1043 01ce 00BF     		.align	2
 1044              	.L94:
 1045 01d0 00000000 		.word	command
 1046 01d4 00000000 		.word	USB_transmit
 1047              	.L92:
1872:AS76.c        ****                     USB_transmit[3] = O_Motor_Not_Working >> 8; 
 1048              		.loc 1 1872 0
 1049 01d8 434B     		ldr	r3, .L96+8
 1050 01da 3022     		movs	r2, #48
 1051 01dc 9A70     		strb	r2, [r3, #2]
1873:AS76.c        ****                     break;
 1052              		.loc 1 1873 0
 1053 01de FA22     		movs	r2, #250
 1054 01e0 DA70     		strb	r2, [r3, #3]
 1055              	.LVL63:
 1056              	.L58:
ARM GAS  C:\Users\Revanth\AppData\Local\Temp\ccZixbSH.s 			page 57


1879:AS76.c        ****         Y_QuadPosition = (Y_QuadPosition * 4);   
 1057              		.loc 1 1879 0
 1058 01e2 424D     		ldr	r5, .L96+12
 1059 01e4 AB68     		ldr	r3, [r5, #8]
 1060 01e6 9B00     		lsls	r3, r3, #2
 1061 01e8 AB60     		str	r3, [r5, #8]
1880:AS76.c        ****         Z_QuadPosition = (Z_QuadPosition * 4);
 1062              		.loc 1 1880 0
 1063 01ea EB68     		ldr	r3, [r5, #12]
 1064 01ec 9B00     		lsls	r3, r3, #2
 1065 01ee EB60     		str	r3, [r5, #12]
1881:AS76.c        ****         T_QuadPosition = (int)(T_QuadPosition * 3.2); 
 1066              		.loc 1 1881 0
 1067 01f0 2B69     		ldr	r3, [r5, #16]
 1068 01f2 9B00     		lsls	r3, r3, #2
 1069 01f4 2B61     		str	r3, [r5, #16]
1882:AS76.c        ****         USB_transmit[4] = (X_QuadPosition);
 1070              		.loc 1 1882 0
 1071 01f6 6869     		ldr	r0, [r5, #20]
 1072 01f8 FFF7FEFF 		bl	__aeabi_i2d
 1073              	.LVL64:
 1074 01fc 38A3     		adr	r3, .L96
 1075 01fe D3E90023 		ldrd	r2, [r3]
 1076 0202 FFF7FEFF 		bl	__aeabi_dmul
 1077              	.LVL65:
 1078 0206 FFF7FEFF 		bl	__aeabi_d2iz
 1079              	.LVL66:
 1080 020a 6861     		str	r0, [r5, #20]
1883:AS76.c        ****         USB_transmit[5] = (X_QuadPosition) >> 8;
 1081              		.loc 1 1883 0
 1082 020c AB68     		ldr	r3, [r5, #8]
 1083 020e 364C     		ldr	r4, .L96+8
 1084 0210 2371     		strb	r3, [r4, #4]
1884:AS76.c        ****         USB_transmit[6] = (X_QuadPosition) >> 16;
 1085              		.loc 1 1884 0
 1086 0212 AB68     		ldr	r3, [r5, #8]
 1087 0214 1B12     		asrs	r3, r3, #8
 1088 0216 6371     		strb	r3, [r4, #5]
1885:AS76.c        ****         USB_transmit[7] = (X_QuadPosition) >> 24;
 1089              		.loc 1 1885 0
 1090 0218 AB68     		ldr	r3, [r5, #8]
 1091 021a 1B14     		asrs	r3, r3, #16
 1092 021c A371     		strb	r3, [r4, #6]
1886:AS76.c        ****         USB_transmit[8] = (Y_QuadPosition);
 1093              		.loc 1 1886 0
 1094 021e AB68     		ldr	r3, [r5, #8]
 1095 0220 1B16     		asrs	r3, r3, #24
 1096 0222 E371     		strb	r3, [r4, #7]
1887:AS76.c        ****         USB_transmit[9] = (Y_QuadPosition) >> 8;
 1097              		.loc 1 1887 0
 1098 0224 EB68     		ldr	r3, [r5, #12]
 1099 0226 2372     		strb	r3, [r4, #8]
1888:AS76.c        ****         USB_transmit[10] =(Y_QuadPosition) >> 16;
 1100              		.loc 1 1888 0
 1101 0228 EB68     		ldr	r3, [r5, #12]
 1102 022a 1B12     		asrs	r3, r3, #8
 1103 022c 6372     		strb	r3, [r4, #9]
ARM GAS  C:\Users\Revanth\AppData\Local\Temp\ccZixbSH.s 			page 58


1889:AS76.c        ****         USB_transmit[11] =(Y_QuadPosition) >> 24;
 1104              		.loc 1 1889 0
 1105 022e EB68     		ldr	r3, [r5, #12]
 1106 0230 1B14     		asrs	r3, r3, #16
 1107 0232 A372     		strb	r3, [r4, #10]
1890:AS76.c        ****         USB_transmit[12] = Z_QuadPosition;
 1108              		.loc 1 1890 0
 1109 0234 EB68     		ldr	r3, [r5, #12]
 1110 0236 1B16     		asrs	r3, r3, #24
 1111 0238 E372     		strb	r3, [r4, #11]
1891:AS76.c        ****         USB_transmit[13] = Z_QuadPosition >> 8;
 1112              		.loc 1 1891 0
 1113 023a 2B69     		ldr	r3, [r5, #16]
 1114 023c 2373     		strb	r3, [r4, #12]
1892:AS76.c        ****         USB_transmit[14] = Z_QuadPosition >> 16;
 1115              		.loc 1 1892 0
 1116 023e 2B69     		ldr	r3, [r5, #16]
 1117 0240 1B12     		asrs	r3, r3, #8
 1118 0242 6373     		strb	r3, [r4, #13]
1893:AS76.c        ****         USB_transmit[15] = Z_QuadPosition >> 24;
 1119              		.loc 1 1893 0
 1120 0244 2B69     		ldr	r3, [r5, #16]
 1121 0246 1B14     		asrs	r3, r3, #16
 1122 0248 A373     		strb	r3, [r4, #14]
1894:AS76.c        ****         USB_transmit[16] = T_QuadPosition;
 1123              		.loc 1 1894 0
 1124 024a 2B69     		ldr	r3, [r5, #16]
 1125 024c 1B16     		asrs	r3, r3, #24
 1126 024e E373     		strb	r3, [r4, #15]
1895:AS76.c        ****         USB_transmit[17] = T_QuadPosition >> 8;
 1127              		.loc 1 1895 0
 1128 0250 6B69     		ldr	r3, [r5, #20]
 1129 0252 2374     		strb	r3, [r4, #16]
1896:AS76.c        ****         USB_transmit[18] = T_QuadPosition >> 16;
 1130              		.loc 1 1896 0
 1131 0254 6B69     		ldr	r3, [r5, #20]
 1132 0256 1B12     		asrs	r3, r3, #8
 1133 0258 6374     		strb	r3, [r4, #17]
1897:AS76.c        ****         USB_transmit[19] = T_QuadPosition >> 24;
 1134              		.loc 1 1897 0
 1135 025a 6B69     		ldr	r3, [r5, #20]
 1136 025c 1B14     		asrs	r3, r3, #16
 1137 025e A374     		strb	r3, [r4, #18]
1898:AS76.c        ****         USB_transmit[20] = PWM_Condenser_comare_value;
 1138              		.loc 1 1898 0
 1139 0260 6B69     		ldr	r3, [r5, #20]
 1140 0262 1B16     		asrs	r3, r3, #24
 1141 0264 E374     		strb	r3, [r4, #19]
1899:AS76.c        ****         USB_transmit[21] = PWM_Condenser_comare_value >> 8;
 1142              		.loc 1 1899 0
 1143 0266 224A     		ldr	r2, .L96+16
 1144 0268 1368     		ldr	r3, [r2]
 1145 026a 2375     		strb	r3, [r4, #20]
1900:AS76.c        ****         USB_transmit[22] = 0;
 1146              		.loc 1 1900 0
 1147 026c 1B12     		asrs	r3, r3, #8
 1148 026e 6375     		strb	r3, [r4, #21]
ARM GAS  C:\Users\Revanth\AppData\Local\Temp\ccZixbSH.s 			page 59


1901:AS76.c        ****         USB_transmit[23] = 0;
 1149              		.loc 1 1901 0
 1150 0270 0023     		movs	r3, #0
 1151 0272 A375     		strb	r3, [r4, #22]
1902:AS76.c        ****         USB_transmit[24] = 0;
 1152              		.loc 1 1902 0
 1153 0274 E375     		strb	r3, [r4, #23]
1903:AS76.c        ****         USB_transmit[25] = 0;
 1154              		.loc 1 1903 0
 1155 0276 2376     		strb	r3, [r4, #24]
1904:AS76.c        ****         USB_transmit[26] = 0;
 1156              		.loc 1 1904 0
 1157 0278 6376     		strb	r3, [r4, #25]
1905:AS76.c        ****         USB_transmit[27] = 0;
 1158              		.loc 1 1905 0
 1159 027a A376     		strb	r3, [r4, #26]
1906:AS76.c        ****         USB_transmit[28] = Motor_Speed_X;
 1160              		.loc 1 1906 0
 1161 027c E376     		strb	r3, [r4, #27]
1907:AS76.c        ****         USB_transmit[29] = Motor_Speed_X >> 8;
 1162              		.loc 1 1907 0
 1163 027e 5169     		ldr	r1, [r2, #20]
 1164 0280 2177     		strb	r1, [r4, #28]
1908:AS76.c        ****         USB_transmit[30] = Motor_Speed_Y;
 1165              		.loc 1 1908 0
 1166 0282 090A     		lsrs	r1, r1, #8
 1167 0284 6177     		strb	r1, [r4, #29]
1909:AS76.c        ****         USB_transmit[31] = Motor_Speed_Y >> 8;
 1168              		.loc 1 1909 0
 1169 0286 9169     		ldr	r1, [r2, #24]
 1170 0288 A177     		strb	r1, [r4, #30]
1910:AS76.c        ****         USB_transmit[32] = Motor_Speed_Z;
 1171              		.loc 1 1910 0
 1172 028a 090A     		lsrs	r1, r1, #8
 1173 028c E177     		strb	r1, [r4, #31]
1911:AS76.c        ****         USB_transmit[33] = Motor_Speed_Z >> 8;
 1174              		.loc 1 1911 0
 1175 028e D269     		ldr	r2, [r2, #28]
 1176 0290 84F82020 		strb	r2, [r4, #32]
1912:AS76.c        ****         USB_transmit[34] = 0x00;
 1177              		.loc 1 1912 0
 1178 0294 120A     		lsrs	r2, r2, #8
 1179 0296 84F82120 		strb	r2, [r4, #33]
1913:AS76.c        ****         USB_transmit[35] = 0x00 >> 8;
 1180              		.loc 1 1913 0
 1181 029a 84F82230 		strb	r3, [r4, #34]
1914:AS76.c        ****         USB_transmit[36] = 0x00;
 1182              		.loc 1 1914 0
 1183 029e 84F82330 		strb	r3, [r4, #35]
1915:AS76.c        ****         USB_transmit[37] = 0x00;
 1184              		.loc 1 1915 0
 1185 02a2 84F82430 		strb	r3, [r4, #36]
1916:AS76.c        ****         USB_transmit[38] = 0x00;
 1186              		.loc 1 1916 0
 1187 02a6 84F82530 		strb	r3, [r4, #37]
1917:AS76.c        ****         USB_transmit[39] = Firmware_Version;
 1188              		.loc 1 1917 0
ARM GAS  C:\Users\Revanth\AppData\Local\Temp\ccZixbSH.s 			page 60


 1189 02aa 84F82630 		strb	r3, [r4, #38]
1918:AS76.c        ****         USB_transmit[40] = 0;
 1190              		.loc 1 1918 0
 1191 02ae 4C22     		movs	r2, #76
 1192 02b0 84F82720 		strb	r2, [r4, #39]
1919:AS76.c        ****         USB_transmit[41] = 0;
 1193              		.loc 1 1919 0
 1194 02b4 84F82830 		strb	r3, [r4, #40]
1920:AS76.c        ****         USB_transmit[42] = 0;
 1195              		.loc 1 1920 0
 1196 02b8 84F82930 		strb	r3, [r4, #41]
1921:AS76.c        ****         USB_transmit[43] = 0;
 1197              		.loc 1 1921 0
 1198 02bc 84F82A30 		strb	r3, [r4, #42]
1922:AS76.c        ****         USB_transmit[44] = 0;
 1199              		.loc 1 1922 0
 1200 02c0 84F82B30 		strb	r3, [r4, #43]
1923:AS76.c        ****         USB_transmit[45] = 0;
 1201              		.loc 1 1923 0
 1202 02c4 84F82C30 		strb	r3, [r4, #44]
1924:AS76.c        ****         
 1203              		.loc 1 1924 0
 1204 02c8 84F82D30 		strb	r3, [r4, #45]
1930:AS76.c        ****         USB_PutData(USB_transmit, 46);  //send data back to usb
 1205              		.loc 1 1930 0
 1206 02cc 0948     		ldr	r0, .L96+20
 1207 02ce FFF7FEFF 		bl	Write_Debug_UART_Char
 1208              	.LVL67:
1931:AS76.c        ****     
 1209              		.loc 1 1931 0
 1210 02d2 2E21     		movs	r1, #46
 1211 02d4 2046     		mov	r0, r4
 1212 02d6 FFF7FEFF 		bl	USB_PutData
 1213              	.LVL68:
 1214 02da 38BD     		pop	{r3, r4, r5, pc}
 1215              	.L97:
 1216 02dc AFF30080 		.align	3
 1217              	.L96:
 1218 02e0 9A999999 		.word	-1717986918
 1219 02e4 99990940 		.word	1074370969
 1220 02e8 00000000 		.word	USB_transmit
 1221 02ec 00000000 		.word	.LANCHOR0
 1222 02f0 00000000 		.word	.LANCHOR1
 1223 02f4 34000000 		.word	.LC3
 1224              		.cfi_endproc
 1225              	.LFE92:
 1226              		.size	Send_Feedback_to_USB, .-Send_Feedback_to_USB
 1227              		.section	.text.Initialize_USB,"ax",%progbits
 1228              		.align	2
 1229              		.global	Initialize_USB
 1230              		.thumb
 1231              		.thumb_func
 1232              		.type	Initialize_USB, %function
 1233              	Initialize_USB:
 1234              	.LFB94:
1939:AS76.c        ****     USB_Start(0, USB_5V_OPERATION);   
 1235              		.loc 1 1939 0
ARM GAS  C:\Users\Revanth\AppData\Local\Temp\ccZixbSH.s 			page 61


 1236              		.cfi_startproc
 1237              		@ args = 0, pretend = 0, frame = 0
 1238              		@ frame_needed = 0, uses_anonymous_args = 0
 1239 0000 08B5     		push	{r3, lr}
 1240              		.cfi_def_cfa_offset 8
 1241              		.cfi_offset 3, -8
 1242              		.cfi_offset 14, -4
1940:AS76.c        ****     while (0 == USB_GetConfiguration()) /* wait untill USB not found. */
 1243              		.loc 1 1940 0
 1244 0002 0121     		movs	r1, #1
 1245 0004 0020     		movs	r0, #0
 1246 0006 FFF7FEFF 		bl	USB_Start
 1247              	.LVL69:
1941:AS76.c        ****     {
 1248              		.loc 1 1941 0
 1249 000a 05E0     		b	.L99
 1250              	.L100:
1943:AS76.c        ****         CyDelayUs(1);
 1251              		.loc 1 1943 0
 1252 000c 0848     		ldr	r0, .L102
 1253 000e FFF7FEFF 		bl	Write_Debug_UART_Char
 1254              	.LVL70:
1944:AS76.c        ****     }
 1255              		.loc 1 1944 0
 1256 0012 0120     		movs	r0, #1
 1257 0014 FFF7FEFF 		bl	CyDelayUs
 1258              	.LVL71:
 1259              	.L99:
1941:AS76.c        ****     {
 1260              		.loc 1 1941 0
 1261 0018 FFF7FEFF 		bl	USB_GetConfiguration
 1262              	.LVL72:
 1263 001c 0028     		cmp	r0, #0
 1264 001e F5D0     		beq	.L100
1946:AS76.c        ****     Write_Debug_UART_Char("USB Connected  \r\n");
 1265              		.loc 1 1946 0
 1266 0020 FFF7FEFF 		bl	USB_CDC_Init
 1267              	.LVL73:
1947:AS76.c        ****     USB_EnableSofInt();  
 1268              		.loc 1 1947 0
 1269 0024 0348     		ldr	r0, .L102+4
 1270 0026 FFF7FEFF 		bl	Write_Debug_UART_Char
 1271              	.LVL74:
1948:AS76.c        **** }
 1272              		.loc 1 1948 0
 1273 002a FFF7FEFF 		bl	USB_EnableSofInt
 1274              	.LVL75:
 1275 002e 08BD     		pop	{r3, pc}
 1276              	.L103:
 1277              		.align	2
 1278              	.L102:
 1279 0030 58000000 		.word	.LC4
 1280 0034 7C000000 		.word	.LC5
 1281              		.cfi_endproc
 1282              	.LFE94:
 1283              		.size	Initialize_USB, .-Initialize_USB
 1284              		.section	.text.Write_Debug_UART_Int,"ax",%progbits
ARM GAS  C:\Users\Revanth\AppData\Local\Temp\ccZixbSH.s 			page 62


 1285              		.align	2
 1286              		.global	Write_Debug_UART_Int
 1287              		.thumb
 1288              		.thumb_func
 1289              		.type	Write_Debug_UART_Int, %function
 1290              	Write_Debug_UART_Int:
 1291              	.LFB99:
1994:AS76.c        ****     	}
1995:AS76.c        ****     }
1996:AS76.c        **** }
1997:AS76.c        **** void Write_Debug_UART_Int(int32 num)
1998:AS76.c        **** {
 1292              		.loc 1 1998 0
 1293              		.cfi_startproc
 1294              		@ args = 0, pretend = 0, frame = 24
 1295              		@ frame_needed = 0, uses_anonymous_args = 0
 1296              	.LVL76:
 1297 0000 00B5     		push	{lr}
 1298              		.cfi_def_cfa_offset 4
 1299              		.cfi_offset 14, -4
 1300 0002 87B0     		sub	sp, sp, #28
 1301              		.cfi_def_cfa_offset 32
 1302              	.LBB3:
1999:AS76.c        ****    // if(Pin_UART_Enable_Read()==0)
2000:AS76.c        ****     {
2001:AS76.c        ****         char uart_Buffer[20];
2002:AS76.c        ****         sprintf(uart_Buffer,"%d, ",(int)num);
 1303              		.loc 1 2002 0
 1304 0004 0246     		mov	r2, r0
 1305 0006 0649     		ldr	r1, .L106
 1306 0008 01A8     		add	r0, sp, #4
 1307              	.LVL77:
 1308 000a FFF7FEFF 		bl	sprintf
 1309              	.LVL78:
2003:AS76.c        ****         UART_PCB_LOG_PutString(uart_Buffer);
 1310              		.loc 1 2003 0
 1311 000e 01A8     		add	r0, sp, #4
 1312 0010 FFF7FEFF 		bl	UART_PCB_LOG_PutString
 1313              	.LVL79:
2004:AS76.c        ****         CyDelayUs(1);
 1314              		.loc 1 2004 0
 1315 0014 0120     		movs	r0, #1
 1316 0016 FFF7FEFF 		bl	CyDelayUs
 1317              	.LVL80:
 1318              	.LBE3:
2005:AS76.c        ****     }
2006:AS76.c        **** }
 1319              		.loc 1 2006 0
 1320 001a 07B0     		add	sp, sp, #28
 1321              		.cfi_def_cfa_offset 4
 1322              		@ sp needed
 1323 001c 5DF804FB 		ldr	pc, [sp], #4
 1324              	.L107:
 1325              		.align	2
 1326              	.L106:
 1327 0020 90000000 		.word	.LC6
 1328              		.cfi_endproc
ARM GAS  C:\Users\Revanth\AppData\Local\Temp\ccZixbSH.s 			page 63


 1329              	.LFE99:
 1330              		.size	Write_Debug_UART_Int, .-Write_Debug_UART_Int
 1331              		.global	__aeabi_ddiv
 1332              		.global	__aeabi_d2uiz
 1333              		.section	.text.set_BarcodeCondenser_LED,"ax",%progbits
 1334              		.align	2
 1335              		.global	set_BarcodeCondenser_LED
 1336              		.thumb
 1337              		.thumb_func
 1338              		.type	set_BarcodeCondenser_LED, %function
 1339              	set_BarcodeCondenser_LED:
 1340              	.LFB81:
1185:AS76.c        ****     PWM_barcode_comare_value = ((unsigned int)USB_received[3] << 8) + USB_received[2];  //Read LED 
 1341              		.loc 1 1185 0
 1342              		.cfi_startproc
 1343              		@ args = 0, pretend = 0, frame = 0
 1344              		@ frame_needed = 0, uses_anonymous_args = 0
 1345 0000 10B5     		push	{r4, lr}
 1346              		.cfi_def_cfa_offset 8
 1347              		.cfi_offset 4, -8
 1348              		.cfi_offset 14, -4
1186:AS76.c        ****     PWM_BarcodeCondenser_LED_WriteCompare((PWM_barcode_comare_value*0.6)/10);    //Writing LED valu
 1349              		.loc 1 1186 0
 1350 0002 154B     		ldr	r3, .L110+8
 1351 0004 D878     		ldrb	r0, [r3, #3]	@ zero_extendqisi2
 1352 0006 9B78     		ldrb	r3, [r3, #2]	@ zero_extendqisi2
 1353 0008 03EB0020 		add	r0, r3, r0, lsl #8
 1354 000c 134C     		ldr	r4, .L110+12
 1355 000e 2062     		str	r0, [r4, #32]
1187:AS76.c        ****     Write_Debug_UART_Char("LED Barcode Value Recived--->");
 1356              		.loc 1 1187 0
 1357 0010 FFF7FEFF 		bl	__aeabi_i2d
 1358              	.LVL81:
 1359 0014 0EA3     		adr	r3, .L110
 1360 0016 D3E90023 		ldrd	r2, [r3]
 1361 001a FFF7FEFF 		bl	__aeabi_dmul
 1362              	.LVL82:
 1363 001e 0022     		movs	r2, #0
 1364 0020 0F4B     		ldr	r3, .L110+16
 1365 0022 FFF7FEFF 		bl	__aeabi_ddiv
 1366              	.LVL83:
 1367 0026 FFF7FEFF 		bl	__aeabi_d2uiz
 1368              	.LVL84:
 1369 002a 80B2     		uxth	r0, r0
 1370 002c FFF7FEFF 		bl	PWM_BarcodeCondenser_LED_WriteCompare
 1371              	.LVL85:
1188:AS76.c        ****     Write_Debug_UART_Int(PWM_barcode_comare_value);
 1372              		.loc 1 1188 0
 1373 0030 0C48     		ldr	r0, .L110+20
 1374 0032 FFF7FEFF 		bl	Write_Debug_UART_Char
 1375              	.LVL86:
1189:AS76.c        ****     Write_Debug_UART_Char("\r\n");
 1376              		.loc 1 1189 0
 1377 0036 206A     		ldr	r0, [r4, #32]
 1378 0038 FFF7FEFF 		bl	Write_Debug_UART_Int
 1379              	.LVL87:
1190:AS76.c        ****     Write_Debug_UART_Char("Set Barcode LED Command Executed  \r\n");
ARM GAS  C:\Users\Revanth\AppData\Local\Temp\ccZixbSH.s 			page 64


 1380              		.loc 1 1190 0
 1381 003c 0A48     		ldr	r0, .L110+24
 1382 003e FFF7FEFF 		bl	Write_Debug_UART_Char
 1383              	.LVL88:
1191:AS76.c        ****     return 0;
 1384              		.loc 1 1191 0
 1385 0042 0A48     		ldr	r0, .L110+28
 1386 0044 FFF7FEFF 		bl	Write_Debug_UART_Char
 1387              	.LVL89:
1193:AS76.c        **** 
 1388              		.loc 1 1193 0
 1389 0048 0020     		movs	r0, #0
 1390 004a 10BD     		pop	{r4, pc}
 1391              	.L111:
 1392 004c AFF30080 		.align	3
 1393              	.L110:
 1394 0050 33333333 		.word	858993459
 1395 0054 3333E33F 		.word	1071854387
 1396 0058 00000000 		.word	USB_received
 1397 005c 00000000 		.word	.LANCHOR0
 1398 0060 00002440 		.word	1076101120
 1399 0064 98000000 		.word	.LC7
 1400 0068 B8000000 		.word	.LC8
 1401 006c BC000000 		.word	.LC9
 1402              		.cfi_endproc
 1403              	.LFE81:
 1404              		.size	set_BarcodeCondenser_LED, .-set_BarcodeCondenser_LED
 1405              		.section	.text.set_CondenserLED,"ax",%progbits
 1406              		.align	2
 1407              		.global	set_CondenserLED
 1408              		.thumb
 1409              		.thumb_func
 1410              		.type	set_CondenserLED, %function
 1411              	set_CondenserLED:
 1412              	.LFB82:
1196:AS76.c        ****     PWM_Condenser_comare_value = ((unsigned int)USB_received[3] << 8) + USB_received[2];  //Read LE
 1413              		.loc 1 1196 0
 1414              		.cfi_startproc
 1415              		@ args = 0, pretend = 0, frame = 0
 1416              		@ frame_needed = 0, uses_anonymous_args = 0
 1417 0000 10B5     		push	{r4, lr}
 1418              		.cfi_def_cfa_offset 8
 1419              		.cfi_offset 4, -8
 1420              		.cfi_offset 14, -4
1197:AS76.c        ****     PWM_CondenserLED_WriteCompare((PWM_Condenser_comare_value*0.6)/10);    //Writing LED value in t
 1421              		.loc 1 1197 0
 1422 0002 154B     		ldr	r3, .L114+8
 1423 0004 D878     		ldrb	r0, [r3, #3]	@ zero_extendqisi2
 1424 0006 9B78     		ldrb	r3, [r3, #2]	@ zero_extendqisi2
 1425 0008 03EB0020 		add	r0, r3, r0, lsl #8
 1426 000c 134C     		ldr	r4, .L114+12
 1427 000e 2060     		str	r0, [r4]
1198:AS76.c        ****     Write_Debug_UART_Char(" LED Value Recived--->");
 1428              		.loc 1 1198 0
 1429 0010 FFF7FEFF 		bl	__aeabi_i2d
 1430              	.LVL90:
 1431 0014 0EA3     		adr	r3, .L114
ARM GAS  C:\Users\Revanth\AppData\Local\Temp\ccZixbSH.s 			page 65


 1432 0016 D3E90023 		ldrd	r2, [r3]
 1433 001a FFF7FEFF 		bl	__aeabi_dmul
 1434              	.LVL91:
 1435 001e 0022     		movs	r2, #0
 1436 0020 0F4B     		ldr	r3, .L114+16
 1437 0022 FFF7FEFF 		bl	__aeabi_ddiv
 1438              	.LVL92:
 1439 0026 FFF7FEFF 		bl	__aeabi_d2uiz
 1440              	.LVL93:
 1441 002a 80B2     		uxth	r0, r0
 1442 002c FFF7FEFF 		bl	PWM_CondenserLED_WriteCompare
 1443              	.LVL94:
1199:AS76.c        ****     Write_Debug_UART_Int(PWM_Condenser_comare_value);
 1444              		.loc 1 1199 0
 1445 0030 0C48     		ldr	r0, .L114+20
 1446 0032 FFF7FEFF 		bl	Write_Debug_UART_Char
 1447              	.LVL95:
1200:AS76.c        ****     Write_Debug_UART_Char("\r\n");
 1448              		.loc 1 1200 0
 1449 0036 2068     		ldr	r0, [r4]
 1450 0038 FFF7FEFF 		bl	Write_Debug_UART_Int
 1451              	.LVL96:
1201:AS76.c        ****     Write_Debug_UART_Char("Set LED Command Executed  \r\n");
 1452              		.loc 1 1201 0
 1453 003c 0A48     		ldr	r0, .L114+24
 1454 003e FFF7FEFF 		bl	Write_Debug_UART_Char
 1455              	.LVL97:
1202:AS76.c        ****     return 0;
 1456              		.loc 1 1202 0
 1457 0042 0A48     		ldr	r0, .L114+28
 1458 0044 FFF7FEFF 		bl	Write_Debug_UART_Char
 1459              	.LVL98:
1204:AS76.c        **** 
 1460              		.loc 1 1204 0
 1461 0048 0020     		movs	r0, #0
 1462 004a 10BD     		pop	{r4, pc}
 1463              	.L115:
 1464 004c AFF30080 		.align	3
 1465              	.L114:
 1466 0050 33333333 		.word	858993459
 1467 0054 3333E33F 		.word	1071854387
 1468 0058 00000000 		.word	USB_received
 1469 005c 00000000 		.word	.LANCHOR1
 1470 0060 00002440 		.word	1076101120
 1471 0064 E4000000 		.word	.LC10
 1472 0068 B8000000 		.word	.LC8
 1473 006c FC000000 		.word	.LC11
 1474              		.cfi_endproc
 1475              	.LFE82:
 1476              		.size	set_CondenserLED, .-set_CondenserLED
 1477              		.section	.text.UART_print_all_values,"ax",%progbits
 1478              		.align	2
 1479              		.global	UART_print_all_values
 1480              		.thumb
 1481              		.thumb_func
 1482              		.type	UART_print_all_values, %function
 1483              	UART_print_all_values:
ARM GAS  C:\Users\Revanth\AppData\Local\Temp\ccZixbSH.s 			page 66


 1484              	.LFB100:
2007:AS76.c        **** void UART_print_all_values()
2008:AS76.c        **** {
 1485              		.loc 1 2008 0
 1486              		.cfi_startproc
 1487              		@ args = 0, pretend = 0, frame = 0
 1488              		@ frame_needed = 0, uses_anonymous_args = 0
 1489 0000 08B5     		push	{r3, lr}
 1490              		.cfi_def_cfa_offset 8
 1491              		.cfi_offset 3, -8
 1492              		.cfi_offset 14, -4
2009:AS76.c        ****     Write_Debug_UART_Char("\r\n");
 1493              		.loc 1 2009 0
 1494 0002 0548     		ldr	r0, .L118
 1495 0004 FFF7FEFF 		bl	Write_Debug_UART_Char
 1496              	.LVL99:
2010:AS76.c        ****     Write_Debug_UART_Char("--------------------------------------------------");
 1497              		.loc 1 2010 0
 1498 0008 0448     		ldr	r0, .L118+4
 1499 000a FFF7FEFF 		bl	Write_Debug_UART_Char
 1500              	.LVL100:
2011:AS76.c        ****     Write_Debug_UART_Char("\n");
 1501              		.loc 1 2011 0
 1502 000e 0448     		ldr	r0, .L118+8
 1503 0010 FFF7FEFF 		bl	Write_Debug_UART_Char
 1504              	.LVL101:
 1505 0014 08BD     		pop	{r3, pc}
 1506              	.L119:
 1507 0016 00BF     		.align	2
 1508              	.L118:
 1509 0018 B8000000 		.word	.LC8
 1510 001c 1C010000 		.word	.LC12
 1511 0020 50010000 		.word	.LC13
 1512              		.cfi_endproc
 1513              	.LFE100:
 1514              		.size	UART_print_all_values, .-UART_print_all_values
 1515              		.section	.text.if_all_homing_done,"ax",%progbits
 1516              		.align	2
 1517              		.global	if_all_homing_done
 1518              		.thumb
 1519              		.thumb_func
 1520              		.type	if_all_homing_done, %function
 1521              	if_all_homing_done:
 1522              	.LFB79:
1130:AS76.c        ****     if((HomeY_done == false)&&(Error == 0))
 1523              		.loc 1 1130 0
 1524              		.cfi_startproc
 1525              		@ args = 0, pretend = 0, frame = 0
 1526              		@ frame_needed = 0, uses_anonymous_args = 0
 1527 0000 10B5     		push	{r4, lr}
 1528              		.cfi_def_cfa_offset 8
 1529              		.cfi_offset 4, -8
 1530              		.cfi_offset 14, -4
1131:AS76.c        ****     {
 1531              		.loc 1 1131 0
 1532 0002 194B     		ldr	r3, .L126
 1533 0004 93F82040 		ldrb	r4, [r3, #32]	@ zero_extendqisi2
ARM GAS  C:\Users\Revanth\AppData\Local\Temp\ccZixbSH.s 			page 67


 1534 0008 5CB9     		cbnz	r4, .L121
1131:AS76.c        ****     {
 1535              		.loc 1 1131 0 is_stmt 0 discriminator 1
 1536 000a 184B     		ldr	r3, .L126+4
 1537 000c 5B6A     		ldr	r3, [r3, #36]
 1538 000e 43B9     		cbnz	r3, .L121
1133:AS76.c        ****         Write_Debug_UART_Char("Y_Homing_Not_Done_Yet***********[x12]  \r\n");
 1539              		.loc 1 1133 0 is_stmt 1
 1540 0010 0C22     		movs	r2, #12
 1541 0012 164B     		ldr	r3, .L126+4
 1542 0014 5A62     		str	r2, [r3, #36]
1134:AS76.c        ****         UART_print_all_values();
 1543              		.loc 1 1134 0
 1544 0016 1648     		ldr	r0, .L126+8
 1545 0018 FFF7FEFF 		bl	Write_Debug_UART_Char
 1546              	.LVL102:
1135:AS76.c        ****         return false;
 1547              		.loc 1 1135 0
 1548 001c FFF7FEFF 		bl	UART_print_all_values
 1549              	.LVL103:
1136:AS76.c        ****     }
 1550              		.loc 1 1136 0
 1551 0020 20E0     		b	.L122
 1552              	.L121:
1138:AS76.c        ****     {
 1553              		.loc 1 1138 0
 1554 0022 114B     		ldr	r3, .L126
 1555 0024 93F82140 		ldrb	r4, [r3, #33]	@ zero_extendqisi2
 1556 0028 5CB9     		cbnz	r4, .L123
1138:AS76.c        ****     {
 1557              		.loc 1 1138 0 is_stmt 0 discriminator 1
 1558 002a 104B     		ldr	r3, .L126+4
 1559 002c 5B6A     		ldr	r3, [r3, #36]
 1560 002e 43B9     		cbnz	r3, .L123
1140:AS76.c        ****         Write_Debug_UART_Char("X_Homing_Not_Done_Yet***********  \r\n");
 1561              		.loc 1 1140 0 is_stmt 1
 1562 0030 0622     		movs	r2, #6
 1563 0032 0E4B     		ldr	r3, .L126+4
 1564 0034 5A62     		str	r2, [r3, #36]
1141:AS76.c        ****         UART_print_all_values();
 1565              		.loc 1 1141 0
 1566 0036 0F48     		ldr	r0, .L126+12
 1567 0038 FFF7FEFF 		bl	Write_Debug_UART_Char
 1568              	.LVL104:
1142:AS76.c        ****         return false;
 1569              		.loc 1 1142 0
 1570 003c FFF7FEFF 		bl	UART_print_all_values
 1571              	.LVL105:
1143:AS76.c        ****     }
 1572              		.loc 1 1143 0
 1573 0040 10E0     		b	.L122
 1574              	.L123:
1145:AS76.c        ****     {
 1575              		.loc 1 1145 0
 1576 0042 094B     		ldr	r3, .L126
 1577 0044 93F82240 		ldrb	r4, [r3, #34]	@ zero_extendqisi2
 1578 0048 64B9     		cbnz	r4, .L122
ARM GAS  C:\Users\Revanth\AppData\Local\Temp\ccZixbSH.s 			page 68


1145:AS76.c        ****     {
 1579              		.loc 1 1145 0 is_stmt 0 discriminator 1
 1580 004a 084B     		ldr	r3, .L126+4
 1581 004c 5B6A     		ldr	r3, [r3, #36]
 1582 004e 43B9     		cbnz	r3, .L124
1147:AS76.c        ****         Write_Debug_UART_Char("Z_Homing_Not_Done_Yet***********  \r\n");
 1583              		.loc 1 1147 0 is_stmt 1
 1584 0050 1222     		movs	r2, #18
 1585 0052 064B     		ldr	r3, .L126+4
 1586 0054 5A62     		str	r2, [r3, #36]
1148:AS76.c        ****         UART_print_all_values();
 1587              		.loc 1 1148 0
 1588 0056 0848     		ldr	r0, .L126+16
 1589 0058 FFF7FEFF 		bl	Write_Debug_UART_Char
 1590              	.LVL106:
1149:AS76.c        ****         return false;
 1591              		.loc 1 1149 0
 1592 005c FFF7FEFF 		bl	UART_print_all_values
 1593              	.LVL107:
1150:AS76.c        ****     } 
 1594              		.loc 1 1150 0
 1595 0060 00E0     		b	.L122
 1596              	.L124:
1161:AS76.c        ****     }
 1597              		.loc 1 1161 0
 1598 0062 0124     		movs	r4, #1
 1599              	.L122:
1163:AS76.c        **** 
 1600              		.loc 1 1163 0
 1601 0064 2046     		mov	r0, r4
 1602 0066 10BD     		pop	{r4, pc}
 1603              	.L127:
 1604              		.align	2
 1605              	.L126:
 1606 0068 00000000 		.word	.LANCHOR1
 1607 006c 00000000 		.word	.LANCHOR0
 1608 0070 54010000 		.word	.LC14
 1609 0074 80010000 		.word	.LC15
 1610 0078 A8010000 		.word	.LC16
 1611              		.cfi_endproc
 1612              	.LFE79:
 1613              		.size	if_all_homing_done, .-if_all_homing_done
 1614              		.section	.text.Is_USB_Unpluged,"ax",%progbits
 1615              		.align	2
 1616              		.global	Is_USB_Unpluged
 1617              		.thumb
 1618              		.thumb_func
 1619              		.type	Is_USB_Unpluged, %function
 1620              	Is_USB_Unpluged:
 1621              	.LFB95:
1951:AS76.c        ****    static bool dont_Execute_1st_Time=false;
 1622              		.loc 1 1951 0
 1623              		.cfi_startproc
 1624              		@ args = 0, pretend = 0, frame = 0
 1625              		@ frame_needed = 0, uses_anonymous_args = 0
 1626 0000 08B5     		push	{r3, lr}
 1627              		.cfi_def_cfa_offset 8
ARM GAS  C:\Users\Revanth\AppData\Local\Temp\ccZixbSH.s 			page 69


 1628              		.cfi_offset 3, -8
 1629              		.cfi_offset 14, -4
1953:AS76.c        ****    {
 1630              		.loc 1 1953 0
 1631 0002 FFF7FEFF 		bl	USB_IsConfigurationChanged
 1632              	.LVL108:
 1633 0006 B0B1     		cbz	r0, .L128
1955:AS76.c        ****        if(USB_GetConfiguration() != 0)
 1634              		.loc 1 1955 0
 1635 0008 FFF7FEFF 		bl	Beep_Twice
 1636              	.LVL109:
1956:AS76.c        ****        {
 1637              		.loc 1 1956 0
 1638 000c FFF7FEFF 		bl	USB_GetConfiguration
 1639              	.LVL110:
 1640 0010 88B1     		cbz	r0, .L128
1958:AS76.c        ****             {
 1641              		.loc 1 1958 0
 1642 0012 094B     		ldr	r3, .L132
 1643 0014 93F82830 		ldrb	r3, [r3, #40]	@ zero_extendqisi2
 1644 0018 4BB1     		cbz	r3, .L130
1960:AS76.c        ****                 UART_print_all_values();
 1645              		.loc 1 1960 0
 1646 001a 0848     		ldr	r0, .L132+4
 1647 001c FFF7FEFF 		bl	Write_Debug_UART_Char
 1648              	.LVL111:
1961:AS76.c        ****                 CyDelay(1);
 1649              		.loc 1 1961 0
 1650 0020 FFF7FEFF 		bl	UART_print_all_values
 1651              	.LVL112:
1962:AS76.c        ****                 CySoftwareReset();
 1652              		.loc 1 1962 0
 1653 0024 0120     		movs	r0, #1
 1654 0026 FFF7FEFF 		bl	CyDelay
 1655              	.LVL113:
1963:AS76.c        ****             }
 1656              		.loc 1 1963 0
 1657 002a FFF7FEFF 		bl	CySoftwareReset
 1658              	.LVL114:
 1659              	.L130:
1965:AS76.c        ****        }
 1660              		.loc 1 1965 0
 1661 002e 0122     		movs	r2, #1
 1662 0030 014B     		ldr	r3, .L132
 1663 0032 83F82820 		strb	r2, [r3, #40]
 1664              	.L128:
 1665 0036 08BD     		pop	{r3, pc}
 1666              	.L133:
 1667              		.align	2
 1668              	.L132:
 1669 0038 00000000 		.word	.LANCHOR0
 1670 003c D0010000 		.word	.LC17
 1671              		.cfi_endproc
 1672              	.LFE95:
 1673              		.size	Is_USB_Unpluged, .-Is_USB_Unpluged
 1674              		.section	.text.Data_To_Transfer,"ax",%progbits
 1675              		.align	2
ARM GAS  C:\Users\Revanth\AppData\Local\Temp\ccZixbSH.s 			page 70


 1676              		.global	Data_To_Transfer
 1677              		.thumb
 1678              		.thumb_func
 1679              		.type	Data_To_Transfer, %function
 1680              	Data_To_Transfer:
 1681              	.LFB101:
2012:AS76.c        **** 
2013:AS76.c        **** }
2014:AS76.c        **** //USB Functions Stop-------------------------------------------------------
2015:AS76.c        **** 
2016:AS76.c        **** 
2017:AS76.c        **** //L6470 Motor Driver Functions Stop-------------------------------------------------------
2018:AS76.c        **** 
2019:AS76.c        **** 
2020:AS76.c        **** uint8_t Data_To_Transfer(uint8_t data)
2021:AS76.c        **** {   
 1682              		.loc 1 2021 0
 1683              		.cfi_startproc
 1684              		@ args = 0, pretend = 0, frame = 0
 1685              		@ frame_needed = 0, uses_anonymous_args = 0
 1686              	.LVL115:
 1687 0000 08B5     		push	{r3, lr}
 1688              		.cfi_def_cfa_offset 8
 1689              		.cfi_offset 3, -8
 1690              		.cfi_offset 14, -4
2022:AS76.c        ****     SPIM_WriteTxData(data);
 1691              		.loc 1 2022 0
 1692 0002 FFF7FEFF 		bl	SPIM_WriteTxData
 1693              	.LVL116:
2023:AS76.c        ****     CyDelayUs(10);
 1694              		.loc 1 2023 0
 1695 0006 0A20     		movs	r0, #10
 1696 0008 FFF7FEFF 		bl	CyDelayUs
 1697              	.LVL117:
2024:AS76.c        ****     return 1;
2025:AS76.c        **** }
 1698              		.loc 1 2025 0
 1699 000c 0120     		movs	r0, #1
 1700 000e 08BD     		pop	{r3, pc}
 1701              		.cfi_endproc
 1702              	.LFE101:
 1703              		.size	Data_To_Transfer, .-Data_To_Transfer
 1704              		.section	.text.SPI_MOTOR_CHIP_SELECT,"ax",%progbits
 1705              		.align	2
 1706              		.global	SPI_MOTOR_CHIP_SELECT
 1707              		.thumb
 1708              		.thumb_func
 1709              		.type	SPI_MOTOR_CHIP_SELECT, %function
 1710              	SPI_MOTOR_CHIP_SELECT:
 1711              	.LFB102:
2026:AS76.c        **** 
2027:AS76.c        **** 
2028:AS76.c        **** 
2029:AS76.c        **** /* --------------------------------------------------------------------------------------------
2030:AS76.c        **** Function Name        : SPI_MOTOR_CHIP_SELECT
2031:AS76.c        **** 
2032:AS76.c        **** Prerequist Knowledge : SPI Communication Protocol, SCI Chip Select Pin, GPIO, SWITCH Statement
ARM GAS  C:\Users\Revanth\AppData\Local\Temp\ccZixbSH.s 			page 71


2033:AS76.c        **** 
2034:AS76.c        **** Function Description : This Function is used to assert or de-assert the chipselect pin of
2035:AS76.c        ****                        selected driver IC.
2036:AS76.c        **** 
2037:AS76.c        **** Return Type & Data   : Void
2038:AS76.c        **** 
2039:AS76.c        **** Numnber of Arguments : 2
2040:AS76.c        **** 
2041:AS76.c        **** -----Argument 1-----
2042:AS76.c        **** Name                 : Motor
2043:AS76.c        **** Tupe                 : uint8_t
2044:AS76.c        **** Description          : This Argument Represents the driver channel
2045:AS76.c        **** Condition            : This Value must range from 0x00 to 0x04 since there are only 5 channels
2046:AS76.c        ****                        available in AS76 System Configuration
2047:AS76.c        **** --------------------
2048:AS76.c        **** 
2049:AS76.c        **** -----Argument 2-----
2050:AS76.c        **** Name                 : Value
2051:AS76.c        **** Tupe                 : uint8_t
2052:AS76.c        **** Description          : This Argument Represents the GPIO Level
2053:AS76.c        **** Condition            : This Value must either 0x00 or 0xFF (Low/High)
2054:AS76.c        **** --------------------
2055:AS76.c        **** 
2056:AS76.c        **** ---------------------------------------------------------------------------------------------*/
2057:AS76.c        **** 
2058:AS76.c        **** void SPI_MOTOR_CHIP_SELECT (uint8_t Motor, uint8_t Value)
2059:AS76.c        **** {
 1712              		.loc 1 2059 0
 1713              		.cfi_startproc
 1714              		@ args = 0, pretend = 0, frame = 0
 1715              		@ frame_needed = 0, uses_anonymous_args = 0
 1716              	.LVL118:
 1717 0000 10B5     		push	{r4, lr}
 1718              		.cfi_def_cfa_offset 8
 1719              		.cfi_offset 4, -8
 1720              		.cfi_offset 14, -4
2060:AS76.c        ****     
2061:AS76.c        **** if ((Value == 0x00) || (Value == 0xFF))  // Condition to check for valid GPIO Value
 1721              		.loc 1 2061 0
 1722 0002 4B1E     		subs	r3, r1, #1
 1723 0004 DBB2     		uxtb	r3, r3
 1724 0006 FD2B     		cmp	r3, #253
 1725 0008 3DD9     		bls	.L137
 1726 000a 0C46     		mov	r4, r1
2062:AS76.c        **** {
2063:AS76.c        ****  switch (Motor) // Condition to select correct motor driver channel
 1727              		.loc 1 2063 0
 1728 000c 0428     		cmp	r0, #4
 1729 000e 36D8     		bhi	.L138
 1730 0010 DFE800F0 		tbb	[pc, r0]
 1731              	.L140:
 1732 0014 03       		.byte	(.L139-.L140)/2
 1733 0015 0D       		.byte	(.L141-.L140)/2
 1734 0016 17       		.byte	(.L142-.L140)/2
 1735 0017 21       		.byte	(.L143-.L140)/2
 1736 0018 2B       		.byte	(.L144-.L140)/2
 1737 0019 00       		.p2align 1
ARM GAS  C:\Users\Revanth\AppData\Local\Temp\ccZixbSH.s 			page 72


 1738              	.L139:
2064:AS76.c        ****     {
2065:AS76.c        ****     case 0x00:
2066:AS76.c        ****         {
2067:AS76.c        ****           CyDelayUs(10);
 1739              		.loc 1 2067 0
 1740 001a 0A20     		movs	r0, #10
 1741              	.LVL119:
 1742 001c FFF7FEFF 		bl	CyDelayUs
 1743              	.LVL120:
2068:AS76.c        ****           Pin_CSMotorX_Write(Value);
 1744              		.loc 1 2068 0
 1745 0020 2046     		mov	r0, r4
 1746 0022 FFF7FEFF 		bl	Pin_CSMotorX_Write
 1747              	.LVL121:
2069:AS76.c        ****           CyDelayUs(10);
 1748              		.loc 1 2069 0
 1749 0026 0A20     		movs	r0, #10
 1750 0028 FFF7FEFF 		bl	CyDelayUs
 1751              	.LVL122:
2070:AS76.c        ****          // Write_Debug_UART_Char("Motor Channel 1 asserted/de-asserted for SPI Read/Write  \r\n");
2071:AS76.c        ****           break;
 1752              		.loc 1 2071 0
 1753 002c 10BD     		pop	{r4, pc}
 1754              	.LVL123:
 1755              	.L141:
2072:AS76.c        ****         }
2073:AS76.c        ****     case 0x01:
2074:AS76.c        ****         {
2075:AS76.c        ****           CyDelayUs(10);
 1756              		.loc 1 2075 0
 1757 002e 0A20     		movs	r0, #10
 1758              	.LVL124:
 1759 0030 FFF7FEFF 		bl	CyDelayUs
 1760              	.LVL125:
2076:AS76.c        ****           Pin_CSMotorY_Write(Value);
 1761              		.loc 1 2076 0
 1762 0034 2046     		mov	r0, r4
 1763 0036 FFF7FEFF 		bl	Pin_CSMotorY_Write
 1764              	.LVL126:
2077:AS76.c        ****           CyDelayUs(10);
 1765              		.loc 1 2077 0
 1766 003a 0A20     		movs	r0, #10
 1767 003c FFF7FEFF 		bl	CyDelayUs
 1768              	.LVL127:
2078:AS76.c        ****          // Write_Debug_UART_Char("Motor Channel 2 asserted/de-asserted for SPI Read/Write  \r\n");
2079:AS76.c        ****           break;
 1769              		.loc 1 2079 0
 1770 0040 10BD     		pop	{r4, pc}
 1771              	.LVL128:
 1772              	.L142:
2080:AS76.c        ****         }
2081:AS76.c        ****         case 0x02:
2082:AS76.c        ****         {
2083:AS76.c        ****           CyDelayUs(10);
 1773              		.loc 1 2083 0
 1774 0042 0A20     		movs	r0, #10
ARM GAS  C:\Users\Revanth\AppData\Local\Temp\ccZixbSH.s 			page 73


 1775              	.LVL129:
 1776 0044 FFF7FEFF 		bl	CyDelayUs
 1777              	.LVL130:
2084:AS76.c        ****           Pin_CSMotorZ_Write(Value);
 1778              		.loc 1 2084 0
 1779 0048 2046     		mov	r0, r4
 1780 004a FFF7FEFF 		bl	Pin_CSMotorZ_Write
 1781              	.LVL131:
2085:AS76.c        ****          // Write_Debug_UART_Char("Motor Channel 3 asserted/de-asserted for SPI Read/Write  \r\n");
2086:AS76.c        ****           CyDelayUs(10);
 1782              		.loc 1 2086 0
 1783 004e 0A20     		movs	r0, #10
 1784 0050 FFF7FEFF 		bl	CyDelayUs
 1785              	.LVL132:
2087:AS76.c        ****           break;
 1786              		.loc 1 2087 0
 1787 0054 10BD     		pop	{r4, pc}
 1788              	.LVL133:
 1789              	.L143:
2088:AS76.c        ****         }
2089:AS76.c        ****         case 0x03:
2090:AS76.c        ****         {
2091:AS76.c        ****           CyDelayUs(10);
 1790              		.loc 1 2091 0
 1791 0056 0A20     		movs	r0, #10
 1792              	.LVL134:
 1793 0058 FFF7FEFF 		bl	CyDelayUs
 1794              	.LVL135:
2092:AS76.c        ****           Pin_CSMotorT_Write(Value);
 1795              		.loc 1 2092 0
 1796 005c 2046     		mov	r0, r4
 1797 005e FFF7FEFF 		bl	Pin_CSMotorT_Write
 1798              	.LVL136:
2093:AS76.c        ****         //  Write_Debug_UART_Char("Motor Channel 4 asserted/de-asserted for SPI Read/Write  \r\n");
2094:AS76.c        ****           CyDelayUs(10);
 1799              		.loc 1 2094 0
 1800 0062 0A20     		movs	r0, #10
 1801 0064 FFF7FEFF 		bl	CyDelayUs
 1802              	.LVL137:
2095:AS76.c        ****           break;
 1803              		.loc 1 2095 0
 1804 0068 10BD     		pop	{r4, pc}
 1805              	.LVL138:
 1806              	.L144:
2096:AS76.c        ****         }
2097:AS76.c        ****         case 0x04:
2098:AS76.c        ****         {
2099:AS76.c        ****           CyDelayUs(10);
 1807              		.loc 1 2099 0
 1808 006a 0A20     		movs	r0, #10
 1809              	.LVL139:
 1810 006c FFF7FEFF 		bl	CyDelayUs
 1811              	.LVL140:
2100:AS76.c        ****           Pin_CSMotorO_Write(Value);
 1812              		.loc 1 2100 0
 1813 0070 2046     		mov	r0, r4
 1814 0072 FFF7FEFF 		bl	Pin_CSMotorO_Write
ARM GAS  C:\Users\Revanth\AppData\Local\Temp\ccZixbSH.s 			page 74


 1815              	.LVL141:
2101:AS76.c        ****         //  Write_Debug_UART_Char("Motor Channel 5 asserted/de-asserted for SPI Read/Write  \r\n");
2102:AS76.c        ****           CyDelayUs(10);
 1816              		.loc 1 2102 0
 1817 0076 0A20     		movs	r0, #10
 1818 0078 FFF7FEFF 		bl	CyDelayUs
 1819              	.LVL142:
2103:AS76.c        ****           break;
 1820              		.loc 1 2103 0
 1821 007c 10BD     		pop	{r4, pc}
 1822              	.LVL143:
 1823              	.L138:
2104:AS76.c        ****         }
2105:AS76.c        ****         
2106:AS76.c        ****         default : // If Invalid motor channel selected print error message
2107:AS76.c        ****         {
2108:AS76.c        ****             Write_Debug_UART_Char("No Valid Driver nCS asserted/de-asserted for SPI Read/Write  \r\
 1824              		.loc 1 2108 0
 1825 007e 0448     		ldr	r0, .L147
 1826              	.LVL144:
 1827 0080 FFF7FEFF 		bl	Write_Debug_UART_Char
 1828              	.LVL145:
 1829 0084 10BD     		pop	{r4, pc}
 1830              	.LVL146:
 1831              	.L137:
2109:AS76.c        ****         }
2110:AS76.c        ****     } 
2111:AS76.c        **** }
2112:AS76.c        **** else // If Invalid GPIO Value given, print error message
2113:AS76.c        **** {
2114:AS76.c        ****    Write_Debug_UART_Char("Invalid GPIO Level Value, Unable to assert/de-assert nCSN Pin for SPI Rea
 1832              		.loc 1 2114 0
 1833 0086 0348     		ldr	r0, .L147+4
 1834              	.LVL147:
 1835 0088 FFF7FEFF 		bl	Write_Debug_UART_Char
 1836              	.LVL148:
 1837 008c 10BD     		pop	{r4, pc}
 1838              	.L148:
 1839 008e 00BF     		.align	2
 1840              	.L147:
 1841 0090 FC010000 		.word	.LC18
 1842 0094 3C020000 		.word	.LC19
 1843              		.cfi_endproc
 1844              	.LFE102:
 1845              		.size	SPI_MOTOR_CHIP_SELECT, .-SPI_MOTOR_CHIP_SELECT
 1846              		.section	.text.Read_32bitSPI_DATA,"ax",%progbits
 1847              		.align	2
 1848              		.global	Read_32bitSPI_DATA
 1849              		.thumb
 1850              		.thumb_func
 1851              		.type	Read_32bitSPI_DATA, %function
 1852              	Read_32bitSPI_DATA:
 1853              	.LFB103:
2115:AS76.c        **** }
2116:AS76.c        **** }
2117:AS76.c        **** 
2118:AS76.c        **** //-------------------------- [] END OF SPI_MOTOR_CHIP_SELECT Function ---------------------------
ARM GAS  C:\Users\Revanth\AppData\Local\Temp\ccZixbSH.s 			page 75


2119:AS76.c        **** 
2120:AS76.c        **** 
2121:AS76.c        **** /* --------------------------------------------------------------------------------------------
2122:AS76.c        **** Function Name        : Read_32bitSPI_DATA
2123:AS76.c        **** 
2124:AS76.c        **** Prerequist Knowledge : SPI Communication Protocol, TMC5160 SPI Communication Protocol
2125:AS76.c        **** 
2126:AS76.c        **** Function Description : This Function is used to read 32bit data from the driver register
2127:AS76.c        ****                        using 32bit SPI communication protocol specific to TMC5160.
2128:AS76.c        **** 
2129:AS76.c        **** Return Type & Data   :32 bit signed or unsigned integer which was fetched from the register
2130:AS76.c        **** 
2131:AS76.c        **** Numnber of Arguments : 2
2132:AS76.c        **** 
2133:AS76.c        **** -----Argument 1-----
2134:AS76.c        **** Name                 : ADDR
2135:AS76.c        **** Tupe                 : uint8_t
2136:AS76.c        **** Description          : The Address of the TMC5160 Register from which data needs to be read
2137:AS76.c        **** Condition            : Nil
2138:AS76.c        **** --------------------
2139:AS76.c        **** 
2140:AS76.c        **** -----Argument 2-----
2141:AS76.c        **** Name                 : Motor
2142:AS76.c        **** Tupe                 : uint8_t
2143:AS76.c        **** Description          : This Argument Represents the driver channel
2144:AS76.c        **** Condition            : This Value must range from 0x00 to 0x04 since there are only 5 channels
2145:AS76.c        ****                        available in AS76 System Configuration, condition to be checked in 
2146:AS76.c        ****                        SPI_MOTOR_CHIP_SELECT Function                       
2147:AS76.c        **** --------------------
2148:AS76.c        **** 
2149:AS76.c        **** 
2150:AS76.c        **** ---------------------------------------------------------------------------------------------*/
2151:AS76.c        **** 
2152:AS76.c        **** 
2153:AS76.c        **** int Read_32bitSPI_DATA(uint8_t ADDR, uint8_t Motor, uint8_t* motor_status )
2154:AS76.c        **** {
 1854              		.loc 1 2154 0
 1855              		.cfi_startproc
 1856              		@ args = 0, pretend = 0, frame = 0
 1857              		@ frame_needed = 0, uses_anonymous_args = 0
 1858              	.LVL149:
 1859 0000 F8B5     		push	{r3, r4, r5, r6, r7, lr}
 1860              		.cfi_def_cfa_offset 24
 1861              		.cfi_offset 3, -24
 1862              		.cfi_offset 4, -20
 1863              		.cfi_offset 5, -16
 1864              		.cfi_offset 6, -12
 1865              		.cfi_offset 7, -8
 1866              		.cfi_offset 14, -4
 1867 0002 0646     		mov	r6, r0
 1868 0004 0D46     		mov	r5, r1
 1869 0006 1746     		mov	r7, r2
 1870              	.LVL150:
2155:AS76.c        ****                 uint32_t SPI_DATA_VALUE = 0;
2156:AS76.c        ****                
2157:AS76.c        ****                
2158:AS76.c        ****                 SPI_MOTOR_CHIP_SELECT (Motor, 0x00);  
ARM GAS  C:\Users\Revanth\AppData\Local\Temp\ccZixbSH.s 			page 76


 1871              		.loc 1 2158 0
 1872 0008 0021     		movs	r1, #0
 1873              	.LVL151:
 1874 000a 2846     		mov	r0, r5
 1875              	.LVL152:
 1876 000c FFF7FEFF 		bl	SPI_MOTOR_CHIP_SELECT
 1877              	.LVL153:
2159:AS76.c        ****                 
2160:AS76.c        ****                 Data_To_Transfer(ADDR & 0x7F);                
 1878              		.loc 1 2160 0
 1879 0010 06F07F06 		and	r6, r6, #127
 1880 0014 3046     		mov	r0, r6
 1881 0016 FFF7FEFF 		bl	Data_To_Transfer
 1882              	.LVL154:
2161:AS76.c        ****                 Data_To_Transfer(0x00);                
 1883              		.loc 1 2161 0
 1884 001a 0020     		movs	r0, #0
 1885 001c FFF7FEFF 		bl	Data_To_Transfer
 1886              	.LVL155:
2162:AS76.c        ****                 Data_To_Transfer(0x00);                
 1887              		.loc 1 2162 0
 1888 0020 0020     		movs	r0, #0
 1889 0022 FFF7FEFF 		bl	Data_To_Transfer
 1890              	.LVL156:
2163:AS76.c        ****                 Data_To_Transfer(0x00);                
 1891              		.loc 1 2163 0
 1892 0026 0020     		movs	r0, #0
 1893 0028 FFF7FEFF 		bl	Data_To_Transfer
 1894              	.LVL157:
2164:AS76.c        ****                 Data_To_Transfer(0x00); 
 1895              		.loc 1 2164 0
 1896 002c 0020     		movs	r0, #0
 1897 002e FFF7FEFF 		bl	Data_To_Transfer
 1898              	.LVL158:
2165:AS76.c        ****                 
2166:AS76.c        ****                 SPI_MOTOR_CHIP_SELECT (Motor, 0xFF); 
 1899              		.loc 1 2166 0
 1900 0032 FF21     		movs	r1, #255
 1901 0034 2846     		mov	r0, r5
 1902 0036 FFF7FEFF 		bl	SPI_MOTOR_CHIP_SELECT
 1903              	.LVL159:
2167:AS76.c        ****                 
2168:AS76.c        ****                 CyDelay(1);
 1904              		.loc 1 2168 0
 1905 003a 0120     		movs	r0, #1
 1906 003c FFF7FEFF 		bl	CyDelay
 1907              	.LVL160:
2169:AS76.c        ****                 
2170:AS76.c        ****                 SPI_MOTOR_CHIP_SELECT (Motor, 0x00);
 1908              		.loc 1 2170 0
 1909 0040 0021     		movs	r1, #0
 1910 0042 2846     		mov	r0, r5
 1911 0044 FFF7FEFF 		bl	SPI_MOTOR_CHIP_SELECT
 1912              	.LVL161:
2171:AS76.c        ****                 
2172:AS76.c        ****                 Data_To_Transfer(ADDR & 0x7F);
 1913              		.loc 1 2172 0
ARM GAS  C:\Users\Revanth\AppData\Local\Temp\ccZixbSH.s 			page 77


 1914 0048 3046     		mov	r0, r6
 1915 004a FFF7FEFF 		bl	Data_To_Transfer
 1916              	.LVL162:
2173:AS76.c        ****                 *motor_status = SPIM_ReadRxData();
 1917              		.loc 1 2173 0
 1918 004e FFF7FEFF 		bl	SPIM_ReadRxData
 1919              	.LVL163:
 1920 0052 3870     		strb	r0, [r7]
2174:AS76.c        ****                 Data_To_Transfer(0x00);
 1921              		.loc 1 2174 0
 1922 0054 0020     		movs	r0, #0
 1923 0056 FFF7FEFF 		bl	Data_To_Transfer
 1924              	.LVL164:
2175:AS76.c        ****                 SPI_DATA_VALUE |= (uint32_t) SPIM_ReadRxData() << 24;
 1925              		.loc 1 2175 0
 1926 005a FFF7FEFF 		bl	SPIM_ReadRxData
 1927              	.LVL165:
 1928 005e 0406     		lsls	r4, r0, #24
 1929              	.LVL166:
2176:AS76.c        ****                 Data_To_Transfer(0x00);
 1930              		.loc 1 2176 0
 1931 0060 0020     		movs	r0, #0
 1932 0062 FFF7FEFF 		bl	Data_To_Transfer
 1933              	.LVL167:
2177:AS76.c        ****                 SPI_DATA_VALUE |= (uint32_t) SPIM_ReadRxData() << 16;
 1934              		.loc 1 2177 0
 1935 0066 FFF7FEFF 		bl	SPIM_ReadRxData
 1936              	.LVL168:
 1937 006a 44EA0044 		orr	r4, r4, r0, lsl #16
 1938              	.LVL169:
2178:AS76.c        ****                 Data_To_Transfer(0x00);
 1939              		.loc 1 2178 0
 1940 006e 0020     		movs	r0, #0
 1941 0070 FFF7FEFF 		bl	Data_To_Transfer
 1942              	.LVL170:
2179:AS76.c        ****                 SPI_DATA_VALUE |= (uint32_t) SPIM_ReadRxData() << 8; 
 1943              		.loc 1 2179 0
 1944 0074 FFF7FEFF 		bl	SPIM_ReadRxData
 1945              	.LVL171:
 1946 0078 44EA0024 		orr	r4, r4, r0, lsl #8
 1947              	.LVL172:
2180:AS76.c        ****                 Data_To_Transfer(0x00); 
 1948              		.loc 1 2180 0
 1949 007c 0020     		movs	r0, #0
 1950 007e FFF7FEFF 		bl	Data_To_Transfer
 1951              	.LVL173:
2181:AS76.c        ****                 SPI_DATA_VALUE |= (uint32_t) SPIM_ReadRxData();
 1952              		.loc 1 2181 0
 1953 0082 FFF7FEFF 		bl	SPIM_ReadRxData
 1954              	.LVL174:
 1955 0086 0443     		orrs	r4, r4, r0
 1956              	.LVL175:
2182:AS76.c        ****                 
2183:AS76.c        ****                 SPI_MOTOR_CHIP_SELECT (Motor, 0xFF);
 1957              		.loc 1 2183 0
 1958 0088 FF21     		movs	r1, #255
 1959 008a 2846     		mov	r0, r5
ARM GAS  C:\Users\Revanth\AppData\Local\Temp\ccZixbSH.s 			page 78


 1960 008c FFF7FEFF 		bl	SPI_MOTOR_CHIP_SELECT
 1961              	.LVL176:
2184:AS76.c        **** 
2185:AS76.c        ****                 CyDelay(1);
 1962              		.loc 1 2185 0
 1963 0090 0120     		movs	r0, #1
 1964 0092 FFF7FEFF 		bl	CyDelay
 1965              	.LVL177:
2186:AS76.c        ****                 
2187:AS76.c        ****                 SPI_MOTOR_CHIP_SELECT (Motor, 0x00);
 1966              		.loc 1 2187 0
 1967 0096 0021     		movs	r1, #0
 1968 0098 2846     		mov	r0, r5
 1969 009a FFF7FEFF 		bl	SPI_MOTOR_CHIP_SELECT
 1970              	.LVL178:
2188:AS76.c        ****                 
2189:AS76.c        ****                 Data_To_Transfer(ADDR & 0x7F);
 1971              		.loc 1 2189 0
 1972 009e 3046     		mov	r0, r6
 1973 00a0 FFF7FEFF 		bl	Data_To_Transfer
 1974              	.LVL179:
2190:AS76.c        ****                 *motor_status = SPIM_ReadRxData();
 1975              		.loc 1 2190 0
 1976 00a4 FFF7FEFF 		bl	SPIM_ReadRxData
 1977              	.LVL180:
 1978 00a8 3870     		strb	r0, [r7]
2191:AS76.c        ****                 Data_To_Transfer(0x00);
 1979              		.loc 1 2191 0
 1980 00aa 0020     		movs	r0, #0
 1981 00ac FFF7FEFF 		bl	Data_To_Transfer
 1982              	.LVL181:
2192:AS76.c        ****                 SPI_DATA_VALUE |= (uint32_t) SPIM_ReadRxData() << 24;
 1983              		.loc 1 2192 0
 1984 00b0 FFF7FEFF 		bl	SPIM_ReadRxData
 1985              	.LVL182:
 1986 00b4 44EA0064 		orr	r4, r4, r0, lsl #24
 1987              	.LVL183:
2193:AS76.c        ****                 Data_To_Transfer(0x00);
 1988              		.loc 1 2193 0
 1989 00b8 0020     		movs	r0, #0
 1990 00ba FFF7FEFF 		bl	Data_To_Transfer
 1991              	.LVL184:
2194:AS76.c        ****                 SPI_DATA_VALUE |= (uint32_t) SPIM_ReadRxData() << 16;
 1992              		.loc 1 2194 0
 1993 00be FFF7FEFF 		bl	SPIM_ReadRxData
 1994              	.LVL185:
 1995 00c2 44EA0044 		orr	r4, r4, r0, lsl #16
 1996              	.LVL186:
2195:AS76.c        ****                 Data_To_Transfer(0x00);
 1997              		.loc 1 2195 0
 1998 00c6 0020     		movs	r0, #0
 1999 00c8 FFF7FEFF 		bl	Data_To_Transfer
 2000              	.LVL187:
2196:AS76.c        ****                 SPI_DATA_VALUE |= (uint32_t) SPIM_ReadRxData() << 8; 
 2001              		.loc 1 2196 0
 2002 00cc FFF7FEFF 		bl	SPIM_ReadRxData
 2003              	.LVL188:
ARM GAS  C:\Users\Revanth\AppData\Local\Temp\ccZixbSH.s 			page 79


 2004 00d0 44EA0024 		orr	r4, r4, r0, lsl #8
 2005              	.LVL189:
2197:AS76.c        ****                 Data_To_Transfer(0x00); 
 2006              		.loc 1 2197 0
 2007 00d4 0020     		movs	r0, #0
 2008 00d6 FFF7FEFF 		bl	Data_To_Transfer
 2009              	.LVL190:
2198:AS76.c        ****                 SPI_DATA_VALUE |= (uint32_t) SPIM_ReadRxData();
 2010              		.loc 1 2198 0
 2011 00da FFF7FEFF 		bl	SPIM_ReadRxData
 2012              	.LVL191:
 2013 00de 0443     		orrs	r4, r4, r0
 2014              	.LVL192:
2199:AS76.c        ****                 
2200:AS76.c        ****                 SPI_MOTOR_CHIP_SELECT (Motor, 0xFF);
 2015              		.loc 1 2200 0
 2016 00e0 FF21     		movs	r1, #255
 2017 00e2 2846     		mov	r0, r5
 2018 00e4 FFF7FEFF 		bl	SPI_MOTOR_CHIP_SELECT
 2019              	.LVL193:
2201:AS76.c        ****                 
2202:AS76.c        ****                 
2203:AS76.c        ****                 return SPI_DATA_VALUE;
2204:AS76.c        **** }
 2020              		.loc 1 2204 0
 2021 00e8 2046     		mov	r0, r4
 2022 00ea F8BD     		pop	{r3, r4, r5, r6, r7, pc}
 2023              		.cfi_endproc
 2024              	.LFE103:
 2025              		.size	Read_32bitSPI_DATA, .-Read_32bitSPI_DATA
 2026              		.section	.text.Write_32bitSPI_DATA,"ax",%progbits
 2027              		.align	2
 2028              		.global	Write_32bitSPI_DATA
 2029              		.thumb
 2030              		.thumb_func
 2031              		.type	Write_32bitSPI_DATA, %function
 2032              	Write_32bitSPI_DATA:
 2033              	.LFB104:
2205:AS76.c        **** 
2206:AS76.c        **** //-------------------------- [] END OF Read_32bitSPI_DATA Function ---------------------------
2207:AS76.c        **** 
2208:AS76.c        **** 
2209:AS76.c        **** /* --------------------------------------------------------------------------------------------
2210:AS76.c        **** Function Name        : Write_32bitSPI_DATA
2211:AS76.c        **** 
2212:AS76.c        **** Prerequist Knowledge : SPI Communication Protocol, TMC5160 SPI Communication Protocol
2213:AS76.c        **** 
2214:AS76.c        **** Function Description : This Function is used to write 32bit data to the driver register
2215:AS76.c        ****                        using 32bit SPI communication protocol specific to TMC5160.
2216:AS76.c        **** 
2217:AS76.c        **** Return Type & Data   :Void
2218:AS76.c        **** 
2219:AS76.c        **** Numnber of Arguments : 3
2220:AS76.c        **** 
2221:AS76.c        **** -----Argument 1-----
2222:AS76.c        **** Name                 : ADDR
2223:AS76.c        **** Tupe                 : uint8_t
ARM GAS  C:\Users\Revanth\AppData\Local\Temp\ccZixbSH.s 			page 80


2224:AS76.c        **** Description          : The Address of the TMC5160 Register to which data needs to be written
2225:AS76.c        **** Condition            : Nil
2226:AS76.c        **** --------------------
2227:AS76.c        **** 
2228:AS76.c        **** -----Argument 2-----
2229:AS76.c        **** Name                 : data
2230:AS76.c        **** Tupe                 : uint8_t
2231:AS76.c        **** Description          : The 32bit data that needs to be written to TMC5160 register
2232:AS76.c        **** Condition            : Nil
2233:AS76.c        **** --------------------
2234:AS76.c        **** 
2235:AS76.c        **** -----Argument 3-----
2236:AS76.c        **** Name                 : Motor
2237:AS76.c        **** Tupe                 : uint8_t
2238:AS76.c        **** Description          : This Argument Represents the driver channel
2239:AS76.c        **** Condition            : This Value must range from 0x00 to 0x04 since there are only 5 channels
2240:AS76.c        ****                        available in AS76 System Configuration, condition to be checked in 
2241:AS76.c        ****                        SPI_MOTOR_CHIP_SELECT Function                       
2242:AS76.c        **** --------------------
2243:AS76.c        **** 
2244:AS76.c        **** ---------------------------------------------------------------------------------------------*/
2245:AS76.c        **** 
2246:AS76.c        **** void Write_32bitSPI_DATA (uint8_t ADDR, int data, uint8_t Motor)
2247:AS76.c        **** {
 2034              		.loc 1 2247 0
 2035              		.cfi_startproc
 2036              		@ args = 0, pretend = 0, frame = 0
 2037              		@ frame_needed = 0, uses_anonymous_args = 0
 2038              	.LVL194:
 2039 0000 70B5     		push	{r4, r5, r6, lr}
 2040              		.cfi_def_cfa_offset 16
 2041              		.cfi_offset 4, -16
 2042              		.cfi_offset 5, -12
 2043              		.cfi_offset 6, -8
 2044              		.cfi_offset 14, -4
 2045 0002 0646     		mov	r6, r0
 2046 0004 0C46     		mov	r4, r1
 2047 0006 1546     		mov	r5, r2
2248:AS76.c        ****  
2249:AS76.c        ****                 SPI_MOTOR_CHIP_SELECT (Motor, 0x00);
 2048              		.loc 1 2249 0
 2049 0008 0021     		movs	r1, #0
 2050              	.LVL195:
 2051 000a 1046     		mov	r0, r2
 2052              	.LVL196:
 2053 000c FFF7FEFF 		bl	SPI_MOTOR_CHIP_SELECT
 2054              	.LVL197:
2250:AS76.c        ****                 Data_To_Transfer(ADDR | 0x80);                
 2055              		.loc 1 2250 0
 2056 0010 46F08000 		orr	r0, r6, #128
 2057 0014 FFF7FEFF 		bl	Data_To_Transfer
 2058              	.LVL198:
2251:AS76.c        ****                 Data_To_Transfer((data & 0xFF000000) >> 24);
 2059              		.loc 1 2251 0
 2060 0018 200E     		lsrs	r0, r4, #24
 2061 001a FFF7FEFF 		bl	Data_To_Transfer
 2062              	.LVL199:
ARM GAS  C:\Users\Revanth\AppData\Local\Temp\ccZixbSH.s 			page 81


2252:AS76.c        ****                 Data_To_Transfer((data & 0xFF0000) >> 16);
 2063              		.loc 1 2252 0
 2064 001e C4F30740 		ubfx	r0, r4, #16, #8
 2065 0022 FFF7FEFF 		bl	Data_To_Transfer
 2066              	.LVL200:
2253:AS76.c        ****                 Data_To_Transfer((data & 0xFF00) >> 8);
 2067              		.loc 1 2253 0
 2068 0026 C4F30720 		ubfx	r0, r4, #8, #8
 2069 002a FFF7FEFF 		bl	Data_To_Transfer
 2070              	.LVL201:
2254:AS76.c        ****                 Data_To_Transfer(data & 0xFF);     
 2071              		.loc 1 2254 0
 2072 002e E0B2     		uxtb	r0, r4
 2073 0030 FFF7FEFF 		bl	Data_To_Transfer
 2074              	.LVL202:
2255:AS76.c        ****                 SPI_MOTOR_CHIP_SELECT (Motor, 0xFF); 
 2075              		.loc 1 2255 0
 2076 0034 FF21     		movs	r1, #255
 2077 0036 2846     		mov	r0, r5
 2078 0038 FFF7FEFF 		bl	SPI_MOTOR_CHIP_SELECT
 2079              	.LVL203:
 2080 003c 70BD     		pop	{r4, r5, r6, pc}
 2081              		.cfi_endproc
 2082              	.LFE104:
 2083              		.size	Write_32bitSPI_DATA, .-Write_32bitSPI_DATA
 2084 003e 00BF     		.section	.text.GotoPos,"ax",%progbits
 2085              		.align	2
 2086              		.global	GotoPos
 2087              		.thumb
 2088              		.thumb_func
 2089              		.type	GotoPos, %function
 2090              	GotoPos:
 2091              	.LFB65:
 121:AS76.c        ****     Write_32bitSPI_DATA (0x20  , (int) 0x00000000, Motor );
 2092              		.loc 1 121 0
 2093              		.cfi_startproc
 2094              		@ args = 0, pretend = 0, frame = 0
 2095              		@ frame_needed = 0, uses_anonymous_args = 0
 2096              	.LVL204:
 2097 0000 38B5     		push	{r3, r4, r5, lr}
 2098              		.cfi_def_cfa_offset 16
 2099              		.cfi_offset 3, -16
 2100              		.cfi_offset 4, -12
 2101              		.cfi_offset 5, -8
 2102              		.cfi_offset 14, -4
 2103 0002 0546     		mov	r5, r0
 2104 0004 0C46     		mov	r4, r1
 122:AS76.c        ****     Write_32bitSPI_DATA (0x05  , Pos, Motor );
 2105              		.loc 1 122 0
 2106 0006 0A46     		mov	r2, r1
 2107 0008 0021     		movs	r1, #0
 2108              	.LVL205:
 2109 000a 2020     		movs	r0, #32
 2110              	.LVL206:
 2111 000c FFF7FEFF 		bl	Write_32bitSPI_DATA
 2112              	.LVL207:
 123:AS76.c        ****     Write_32bitSPI_DATA (0x2D  , Pos, Motor );   
ARM GAS  C:\Users\Revanth\AppData\Local\Temp\ccZixbSH.s 			page 82


 2113              		.loc 1 123 0
 2114 0010 2246     		mov	r2, r4
 2115 0012 2946     		mov	r1, r5
 2116 0014 0520     		movs	r0, #5
 2117 0016 FFF7FEFF 		bl	Write_32bitSPI_DATA
 2118              	.LVL208:
 124:AS76.c        **** 
 2119              		.loc 1 124 0
 2120 001a 2246     		mov	r2, r4
 2121 001c 2946     		mov	r1, r5
 2122 001e 2D20     		movs	r0, #45
 2123 0020 FFF7FEFF 		bl	Write_32bitSPI_DATA
 2124              	.LVL209:
 2125 0024 38BD     		pop	{r3, r4, r5, pc}
 2126              		.cfi_endproc
 2127              	.LFE65:
 2128              		.size	GotoPos, .-GotoPos
 2129 0026 00BF     		.section	.text.Initialize_Motor,"ax",%progbits
 2130              		.align	2
 2131              		.global	Initialize_Motor
 2132              		.thumb
 2133              		.thumb_func
 2134              		.type	Initialize_Motor, %function
 2135              	Initialize_Motor:
 2136              	.LFB105:
2256:AS76.c        ****    
2257:AS76.c        ****     
2258:AS76.c        **** }
2259:AS76.c        **** 
2260:AS76.c        **** //-------------------------- [] END OF Write_32bitSPI_DATA Function ---------------------------
2261:AS76.c        **** 
2262:AS76.c        **** void Initialize_Motor(uint8_t Motor)
2263:AS76.c        **** {
 2137              		.loc 1 2263 0
 2138              		.cfi_startproc
 2139              		@ args = 0, pretend = 0, frame = 0
 2140              		@ frame_needed = 0, uses_anonymous_args = 0
 2141              	.LVL210:
 2142 0000 10B5     		push	{r4, lr}
 2143              		.cfi_def_cfa_offset 8
 2144              		.cfi_offset 4, -8
 2145              		.cfi_offset 14, -4
 2146 0002 0446     		mov	r4, r0
2264:AS76.c        ****             Write_32bitSPI_DATA (0x01  , (int) 0x00000005, Motor ); // Global Status Flag Register
 2147              		.loc 1 2264 0
 2148 0004 0246     		mov	r2, r0
 2149 0006 0521     		movs	r1, #5
 2150 0008 0120     		movs	r0, #1
 2151              	.LVL211:
 2152 000a FFF7FEFF 		bl	Write_32bitSPI_DATA
 2153              	.LVL212:
2265:AS76.c        ****             Write_32bitSPI_DATA (0x00  , (int) 0x00000008, Motor ); // Global Configuration Flag Re
 2154              		.loc 1 2265 0
 2155 000e 2246     		mov	r2, r4
 2156 0010 0821     		movs	r1, #8
 2157 0012 0020     		movs	r0, #0
 2158 0014 FFF7FEFF 		bl	Write_32bitSPI_DATA
ARM GAS  C:\Users\Revanth\AppData\Local\Temp\ccZixbSH.s 			page 83


 2159              	.LVL213:
2266:AS76.c        ****             Write_32bitSPI_DATA (0x03  , (int) 0x00000000, Motor ); // Uart Register
 2160              		.loc 1 2266 0
 2161 0018 2246     		mov	r2, r4
 2162 001a 0021     		movs	r1, #0
 2163 001c 0320     		movs	r0, #3
 2164 001e FFF7FEFF 		bl	Write_32bitSPI_DATA
 2165              	.LVL214:
2267:AS76.c        ****             Write_32bitSPI_DATA (0x05  , (int) 0x00000000, Motor ); // X_COMPARE Register (Position
 2166              		.loc 1 2267 0
 2167 0022 2246     		mov	r2, r4
 2168 0024 0021     		movs	r1, #0
 2169 0026 0520     		movs	r0, #5
 2170 0028 FFF7FEFF 		bl	Write_32bitSPI_DATA
 2171              	.LVL215:
2268:AS76.c        ****             Write_32bitSPI_DATA (0x06  , (int) 0x00000000, Motor ); // OTP_Program Register
 2172              		.loc 1 2268 0
 2173 002c 2246     		mov	r2, r4
 2174 002e 0021     		movs	r1, #0
 2175 0030 0620     		movs	r0, #6
 2176 0032 FFF7FEFF 		bl	Write_32bitSPI_DATA
 2177              	.LVL216:
2269:AS76.c        ****             Write_32bitSPI_DATA (0x08  , (int) 0x0000000F, Motor ); // Factory_Config
 2178              		.loc 1 2269 0
 2179 0036 2246     		mov	r2, r4
 2180 0038 0F21     		movs	r1, #15
 2181 003a 0820     		movs	r0, #8
 2182 003c FFF7FEFF 		bl	Write_32bitSPI_DATA
 2183              	.LVL217:
2270:AS76.c        ****             Write_32bitSPI_DATA (0x09  , (int) 0x00010606, Motor ); // Short Config Register
 2184              		.loc 1 2270 0
 2185 0040 2246     		mov	r2, r4
 2186 0042 8249     		ldr	r1, .L162
 2187 0044 0920     		movs	r0, #9
 2188 0046 FFF7FEFF 		bl	Write_32bitSPI_DATA
 2189              	.LVL218:
2271:AS76.c        ****             Write_32bitSPI_DATA (0x0A  , (int) 0x00080400, Motor ); // Drive Config
 2190              		.loc 1 2271 0
 2191 004a 2246     		mov	r2, r4
 2192 004c 8049     		ldr	r1, .L162+4
 2193 004e 0A20     		movs	r0, #10
 2194 0050 FFF7FEFF 		bl	Write_32bitSPI_DATA
 2195              	.LVL219:
2272:AS76.c        ****             //Write_32bitSPI_DATA (0x0B  , (int) 0x00000000, Motor ); // Global Scaller (Global sca
2273:AS76.c        ****             // Current setting register Irun abd Ihold
2274:AS76.c        ****             if ( Motor == TMC5160_nCS_MotorZ)
 2196              		.loc 1 2274 0
 2197 0054 022C     		cmp	r4, #2
 2198 0056 0AD1     		bne	.L156
2275:AS76.c        ****             {
2276:AS76.c        ****             Write_32bitSPI_DATA (0x0B  , (int) 0x00000000, Motor );
 2199              		.loc 1 2276 0
 2200 0058 2246     		mov	r2, r4
 2201 005a 0021     		movs	r1, #0
 2202 005c 0B20     		movs	r0, #11
 2203 005e FFF7FEFF 		bl	Write_32bitSPI_DATA
 2204              	.LVL220:
ARM GAS  C:\Users\Revanth\AppData\Local\Temp\ccZixbSH.s 			page 84


2277:AS76.c        ****             Write_32bitSPI_DATA (0x10  , (int) 0x00070301, Motor );
 2205              		.loc 1 2277 0
 2206 0062 2246     		mov	r2, r4
 2207 0064 7B49     		ldr	r1, .L162+8
 2208 0066 1020     		movs	r0, #16
 2209 0068 FFF7FEFF 		bl	Write_32bitSPI_DATA
 2210              	.LVL221:
 2211 006c 2FE0     		b	.L157
 2212              	.L156:
2278:AS76.c        ****             }
2279:AS76.c        ****             else if ( Motor == TMC5160_nCS_MotorX)
 2213              		.loc 1 2279 0
 2214 006e 54B9     		cbnz	r4, .L158
2280:AS76.c        ****             {
2281:AS76.c        ****             Write_32bitSPI_DATA (0x0B  , 90, Motor );
 2215              		.loc 1 2281 0
 2216 0070 2246     		mov	r2, r4
 2217 0072 5A21     		movs	r1, #90
 2218 0074 0B20     		movs	r0, #11
 2219 0076 FFF7FEFF 		bl	Write_32bitSPI_DATA
 2220              	.LVL222:
2282:AS76.c        ****             Write_32bitSPI_DATA (0x10  , (int) 0x00070101, Motor );
 2221              		.loc 1 2282 0
 2222 007a 2246     		mov	r2, r4
 2223 007c 7649     		ldr	r1, .L162+12
 2224 007e 1020     		movs	r0, #16
 2225 0080 FFF7FEFF 		bl	Write_32bitSPI_DATA
 2226              	.LVL223:
 2227 0084 23E0     		b	.L157
 2228              	.L158:
2283:AS76.c        ****             }
2284:AS76.c        ****             else if ( Motor == TMC5160_nCS_MotorY)
 2229              		.loc 1 2284 0
 2230 0086 012C     		cmp	r4, #1
 2231 0088 0AD1     		bne	.L159
2285:AS76.c        ****             {
2286:AS76.c        ****              Write_32bitSPI_DATA (0x0B  , (int) 127, Motor );
 2232              		.loc 1 2286 0
 2233 008a 2246     		mov	r2, r4
 2234 008c 7F21     		movs	r1, #127
 2235 008e 0B20     		movs	r0, #11
 2236 0090 FFF7FEFF 		bl	Write_32bitSPI_DATA
 2237              	.LVL224:
2287:AS76.c        ****              Write_32bitSPI_DATA (0x10  , (int) 0x00070101, Motor );
 2238              		.loc 1 2287 0
 2239 0094 2246     		mov	r2, r4
 2240 0096 7049     		ldr	r1, .L162+12
 2241 0098 1020     		movs	r0, #16
 2242 009a FFF7FEFF 		bl	Write_32bitSPI_DATA
 2243              	.LVL225:
 2244 009e 16E0     		b	.L157
 2245              	.L159:
2288:AS76.c        ****             }
2289:AS76.c        ****             else if ( Motor == TMC5160_nCS_MotorO)
 2246              		.loc 1 2289 0
 2247 00a0 042C     		cmp	r4, #4
 2248 00a2 0AD1     		bne	.L160
ARM GAS  C:\Users\Revanth\AppData\Local\Temp\ccZixbSH.s 			page 85


2290:AS76.c        ****             {
2291:AS76.c        ****              Write_32bitSPI_DATA (0x0B  , (int) 210, Motor );
 2249              		.loc 1 2291 0
 2250 00a4 2246     		mov	r2, r4
 2251 00a6 D221     		movs	r1, #210
 2252 00a8 0B20     		movs	r0, #11
 2253 00aa FFF7FEFF 		bl	Write_32bitSPI_DATA
 2254              	.LVL226:
2292:AS76.c        ****              Write_32bitSPI_DATA (0x10  , (int) 0x00070100, Motor );
 2255              		.loc 1 2292 0
 2256 00ae 2246     		mov	r2, r4
 2257 00b0 6A49     		ldr	r1, .L162+16
 2258 00b2 1020     		movs	r0, #16
 2259 00b4 FFF7FEFF 		bl	Write_32bitSPI_DATA
 2260              	.LVL227:
 2261 00b8 09E0     		b	.L157
 2262              	.L160:
2293:AS76.c        ****             }
2294:AS76.c        ****             else
2295:AS76.c        ****             {
2296:AS76.c        ****              Write_32bitSPI_DATA (0x0B  , (int) 0x00000000, Motor );
 2263              		.loc 1 2296 0
 2264 00ba 2246     		mov	r2, r4
 2265 00bc 0021     		movs	r1, #0
 2266 00be 0B20     		movs	r0, #11
 2267 00c0 FFF7FEFF 		bl	Write_32bitSPI_DATA
 2268              	.LVL228:
2297:AS76.c        ****              Write_32bitSPI_DATA (0x10  , (int) 0x00070501, Motor );  
 2269              		.loc 1 2297 0
 2270 00c4 2246     		mov	r2, r4
 2271 00c6 6649     		ldr	r1, .L162+20
 2272 00c8 1020     		movs	r0, #16
 2273 00ca FFF7FEFF 		bl	Write_32bitSPI_DATA
 2274              	.LVL229:
 2275              	.L157:
2298:AS76.c        ****             }
2299:AS76.c        ****             Write_32bitSPI_DATA (0x11  , (int) 0x0000000A, Motor ); // TPOWERDOWN Register sets the
 2276              		.loc 1 2299 0
 2277 00ce 2246     		mov	r2, r4
 2278 00d0 0A21     		movs	r1, #10
 2279 00d2 1120     		movs	r0, #17
 2280 00d4 FFF7FEFF 		bl	Write_32bitSPI_DATA
 2281              	.LVL230:
2300:AS76.c        ****             Write_32bitSPI_DATA (0x13  , (int) 0x00000000, Motor );
 2282              		.loc 1 2300 0
 2283 00d8 2246     		mov	r2, r4
 2284 00da 0021     		movs	r1, #0
 2285 00dc 1320     		movs	r0, #19
 2286 00de FFF7FEFF 		bl	Write_32bitSPI_DATA
 2287              	.LVL231:
2301:AS76.c        ****             Write_32bitSPI_DATA (0x14  , (int) 0x00000000, Motor );
 2288              		.loc 1 2301 0
 2289 00e2 2246     		mov	r2, r4
 2290 00e4 0021     		movs	r1, #0
 2291 00e6 1420     		movs	r0, #20
 2292 00e8 FFF7FEFF 		bl	Write_32bitSPI_DATA
 2293              	.LVL232:
ARM GAS  C:\Users\Revanth\AppData\Local\Temp\ccZixbSH.s 			page 86


2302:AS76.c        ****             Write_32bitSPI_DATA (0x15  , (int) 0x00000000, Motor );
 2294              		.loc 1 2302 0
 2295 00ec 2246     		mov	r2, r4
 2296 00ee 0021     		movs	r1, #0
 2297 00f0 1520     		movs	r0, #21
 2298 00f2 FFF7FEFF 		bl	Write_32bitSPI_DATA
 2299              	.LVL233:
2303:AS76.c        ****             
2304:AS76.c        ****             Write_32bitSPI_DATA (0x21  , (int) 0x00000000, Motor );
 2300              		.loc 1 2304 0
 2301 00f6 2246     		mov	r2, r4
 2302 00f8 0021     		movs	r1, #0
 2303 00fa 2120     		movs	r0, #33
 2304 00fc FFF7FEFF 		bl	Write_32bitSPI_DATA
 2305              	.LVL234:
2305:AS76.c        ****             Write_32bitSPI_DATA (0x23  , (int) 0x00000000, Motor );
 2306              		.loc 1 2305 0
 2307 0100 2246     		mov	r2, r4
 2308 0102 0021     		movs	r1, #0
 2309 0104 2320     		movs	r0, #35
 2310 0106 FFF7FEFF 		bl	Write_32bitSPI_DATA
 2311              	.LVL235:
2306:AS76.c        ****             
2307:AS76.c        ****             Write_32bitSPI_DATA (0x2C  , (int) 0x00000000, Motor );
 2312              		.loc 1 2307 0
 2313 010a 2246     		mov	r2, r4
 2314 010c 0021     		movs	r1, #0
 2315 010e 2C20     		movs	r0, #44
 2316 0110 FFF7FEFF 		bl	Write_32bitSPI_DATA
 2317              	.LVL236:
2308:AS76.c        ****             
2309:AS76.c        ****             Write_32bitSPI_DATA (0x33  , (int) 0x00000000, Motor );
 2318              		.loc 1 2309 0
 2319 0114 2246     		mov	r2, r4
 2320 0116 0021     		movs	r1, #0
 2321 0118 3320     		movs	r0, #51
 2322 011a FFF7FEFF 		bl	Write_32bitSPI_DATA
 2323              	.LVL237:
2310:AS76.c        ****             Write_32bitSPI_DATA (0x34  , (int) 0x000002AF, Motor );
 2324              		.loc 1 2310 0
 2325 011e 2246     		mov	r2, r4
 2326 0120 40F2AF21 		movw	r1, #687
 2327 0124 3420     		movs	r0, #52
 2328 0126 FFF7FEFF 		bl	Write_32bitSPI_DATA
 2329              	.LVL238:
2311:AS76.c        ****             Write_32bitSPI_DATA (0x38  , (int) 0x00000000, Motor );
 2330              		.loc 1 2311 0
 2331 012a 2246     		mov	r2, r4
 2332 012c 0021     		movs	r1, #0
 2333 012e 3820     		movs	r0, #56
 2334 0130 FFF7FEFF 		bl	Write_32bitSPI_DATA
 2335              	.LVL239:
2312:AS76.c        ****             Write_32bitSPI_DATA (0x39  , (int) 0x00000000, Motor );
 2336              		.loc 1 2312 0
 2337 0134 2246     		mov	r2, r4
 2338 0136 0021     		movs	r1, #0
 2339 0138 3920     		movs	r0, #57
ARM GAS  C:\Users\Revanth\AppData\Local\Temp\ccZixbSH.s 			page 87


 2340 013a FFF7FEFF 		bl	Write_32bitSPI_DATA
 2341              	.LVL240:
2313:AS76.c        ****             Write_32bitSPI_DATA (0x3A  , (int) 0x00010000, Motor );
 2342              		.loc 1 2313 0
 2343 013e 2246     		mov	r2, r4
 2344 0140 4FF48031 		mov	r1, #65536
 2345 0144 3A20     		movs	r0, #58
 2346 0146 FFF7FEFF 		bl	Write_32bitSPI_DATA
 2347              	.LVL241:
2314:AS76.c        ****             Write_32bitSPI_DATA (0x3D  , (int) 0x00000000, Motor );
 2348              		.loc 1 2314 0
 2349 014a 2246     		mov	r2, r4
 2350 014c 0021     		movs	r1, #0
 2351 014e 3D20     		movs	r0, #61
 2352 0150 FFF7FEFF 		bl	Write_32bitSPI_DATA
 2353              	.LVL242:
2315:AS76.c        ****             Write_32bitSPI_DATA (0x60  , (int) 0xAAAAB554, Motor );
 2354              		.loc 1 2315 0
 2355 0154 2246     		mov	r2, r4
 2356 0156 4349     		ldr	r1, .L162+24
 2357 0158 6020     		movs	r0, #96
 2358 015a FFF7FEFF 		bl	Write_32bitSPI_DATA
 2359              	.LVL243:
2316:AS76.c        ****             Write_32bitSPI_DATA (0x61  , (int) 0x4A9554AA, Motor );
 2360              		.loc 1 2316 0
 2361 015e 2246     		mov	r2, r4
 2362 0160 4149     		ldr	r1, .L162+28
 2363 0162 6120     		movs	r0, #97
 2364 0164 FFF7FEFF 		bl	Write_32bitSPI_DATA
 2365              	.LVL244:
2317:AS76.c        ****             Write_32bitSPI_DATA (0x62  , (int) 0x24492929, Motor );
 2366              		.loc 1 2317 0
 2367 0168 2246     		mov	r2, r4
 2368 016a 4049     		ldr	r1, .L162+32
 2369 016c 6220     		movs	r0, #98
 2370 016e FFF7FEFF 		bl	Write_32bitSPI_DATA
 2371              	.LVL245:
2318:AS76.c        ****             Write_32bitSPI_DATA (0x63  , (int) 0x00000008, Motor );
 2372              		.loc 1 2318 0
 2373 0172 2246     		mov	r2, r4
 2374 0174 0821     		movs	r1, #8
 2375 0176 6320     		movs	r0, #99
 2376 0178 FFF7FEFF 		bl	Write_32bitSPI_DATA
 2377              	.LVL246:
2319:AS76.c        ****             Write_32bitSPI_DATA (0x64  , (int) 0xFBFFFFFF, Motor );
 2378              		.loc 1 2319 0
 2379 017c 2246     		mov	r2, r4
 2380 017e 6FF08061 		mvn	r1, #67108864
 2381 0182 6420     		movs	r0, #100
 2382 0184 FFF7FEFF 		bl	Write_32bitSPI_DATA
 2383              	.LVL247:
2320:AS76.c        ****             Write_32bitSPI_DATA (0x65  , (int) 0xB5BB777D, Motor );
 2384              		.loc 1 2320 0
 2385 0188 2246     		mov	r2, r4
 2386 018a 3949     		ldr	r1, .L162+36
 2387 018c 6520     		movs	r0, #101
 2388 018e FFF7FEFF 		bl	Write_32bitSPI_DATA
ARM GAS  C:\Users\Revanth\AppData\Local\Temp\ccZixbSH.s 			page 88


 2389              	.LVL248:
2321:AS76.c        ****             Write_32bitSPI_DATA (0x66  , (int) 0x49295556, Motor );
 2390              		.loc 1 2321 0
 2391 0192 2246     		mov	r2, r4
 2392 0194 3749     		ldr	r1, .L162+40
 2393 0196 6620     		movs	r0, #102
 2394 0198 FFF7FEFF 		bl	Write_32bitSPI_DATA
 2395              	.LVL249:
2322:AS76.c        ****             Write_32bitSPI_DATA (0x67  , (int) 0x00404222, Motor );
 2396              		.loc 1 2322 0
 2397 019c 2246     		mov	r2, r4
 2398 019e 3649     		ldr	r1, .L162+44
 2399 01a0 6720     		movs	r0, #103
 2400 01a2 FFF7FEFF 		bl	Write_32bitSPI_DATA
 2401              	.LVL250:
2323:AS76.c        ****             Write_32bitSPI_DATA (0x68  , (int) 0xFFFF8056, Motor );
 2402              		.loc 1 2323 0
 2403 01a6 2246     		mov	r2, r4
 2404 01a8 3449     		ldr	r1, .L162+48
 2405 01aa 6820     		movs	r0, #104
 2406 01ac FFF7FEFF 		bl	Write_32bitSPI_DATA
 2407              	.LVL251:
2324:AS76.c        ****             Write_32bitSPI_DATA (0x69  , (int) 0x00F70000, Motor );
 2408              		.loc 1 2324 0
 2409 01b0 2246     		mov	r2, r4
 2410 01b2 4FF47701 		mov	r1, #16187392
 2411 01b6 6920     		movs	r0, #105
 2412 01b8 FFF7FEFF 		bl	Write_32bitSPI_DATA
 2413              	.LVL252:
2325:AS76.c        ****            
2326:AS76.c        ****             Write_32bitSPI_DATA (0x6C  , (int) 0x00410153, Motor ); 
 2414              		.loc 1 2326 0
 2415 01bc 2246     		mov	r2, r4
 2416 01be 3049     		ldr	r1, .L162+52
 2417 01c0 6C20     		movs	r0, #108
 2418 01c2 FFF7FEFF 		bl	Write_32bitSPI_DATA
 2419              	.LVL253:
2327:AS76.c        ****             Write_32bitSPI_DATA (0x6D  , (int) 0x00000000, Motor );
 2420              		.loc 1 2327 0
 2421 01c6 2246     		mov	r2, r4
 2422 01c8 0021     		movs	r1, #0
 2423 01ca 6D20     		movs	r0, #109
 2424 01cc FFF7FEFF 		bl	Write_32bitSPI_DATA
 2425              	.LVL254:
2328:AS76.c        **** 
2329:AS76.c        ****             Write_32bitSPI_DATA (0x6E  , (int) 0x00000000, Motor );
 2426              		.loc 1 2329 0
 2427 01d0 2246     		mov	r2, r4
 2428 01d2 0021     		movs	r1, #0
 2429 01d4 6E20     		movs	r0, #110
 2430 01d6 FFF7FEFF 		bl	Write_32bitSPI_DATA
 2431              	.LVL255:
2330:AS76.c        ****             Write_32bitSPI_DATA (0x70  , (int) 0xC40C001E, Motor ); 
 2432              		.loc 1 2330 0
 2433 01da 2246     		mov	r2, r4
 2434 01dc 2949     		ldr	r1, .L162+56
 2435 01de 7020     		movs	r0, #112
ARM GAS  C:\Users\Revanth\AppData\Local\Temp\ccZixbSH.s 			page 89


 2436 01e0 FFF7FEFF 		bl	Write_32bitSPI_DATA
 2437              	.LVL256:
2331:AS76.c        ****             
2332:AS76.c        ****             Write_32bitSPI_DATA (0x21  , (int) 0x00000000, Motor );            
 2438              		.loc 1 2332 0
 2439 01e4 2246     		mov	r2, r4
 2440 01e6 0021     		movs	r1, #0
 2441 01e8 2120     		movs	r0, #33
 2442 01ea FFF7FEFF 		bl	Write_32bitSPI_DATA
 2443              	.LVL257:
2333:AS76.c        ****             Write_32bitSPI_DATA (0x24  , (int) 0x0000FFFF, Motor );
 2444              		.loc 1 2333 0
 2445 01ee 2246     		mov	r2, r4
 2446 01f0 4FF6FF71 		movw	r1, #65535
 2447 01f4 2420     		movs	r0, #36
 2448 01f6 FFF7FEFF 		bl	Write_32bitSPI_DATA
 2449              	.LVL258:
2334:AS76.c        ****             Write_32bitSPI_DATA (0x25  , (int) 0x0000FFFF, Motor );
 2450              		.loc 1 2334 0
 2451 01fa 2246     		mov	r2, r4
