ARM GAS  C:\Users\Admin\AppData\Local\Temp\ccb10png.s 			page 1


   1              		.syntax unified
   2              		.cpu cortex-m3
   3              		.fpu softvfp
   4              		.eabi_attribute 20, 1
   5              		.eabi_attribute 21, 1
   6              		.eabi_attribute 23, 3
   7              		.eabi_attribute 24, 1
   8              		.eabi_attribute 25, 1
   9              		.eabi_attribute 26, 1
  10              		.eabi_attribute 30, 6
  11              		.eabi_attribute 34, 1
  12              		.eabi_attribute 18, 4
  13              		.thumb
  14              		.syntax unified
  15              		.file	"L6470.c"
  16              		.text
  17              	.Ltext0:
  18              		.cfi_sections	.debug_frame
  19              		.comm	Is_Slide_On_Gripper,1,1
  20              		.comm	count,2,2
  21              		.comm	USB_received,64,4
  22              		.comm	USB_transmit,58,4
  23              		.comm	InterStage_QuadPosition,4,4
  24              		.comm	Inter_Stage_QuadPosition,4,4
  25              		.global	Time_Out_Error
  26              		.data
  27              		.type	Time_Out_Error, %object
  28              		.size	Time_Out_Error, 1
  29              	Time_Out_Error:
  30 0000 01       		.byte	1
  31              		.comm	command,4,4
  32              		.global	Error
  33              		.bss
  34              		.align	2
  35              		.type	Error, %object
  36              		.size	Error, 4
  37              	Error:
  38 0000 00000000 		.space	4
  39              		.global	X_last_position
  40              		.align	2
  41              		.type	X_last_position, %object
  42              		.size	X_last_position, 4
  43              	X_last_position:
  44 0004 00000000 		.space	4
  45              		.global	Y_last_position
  46              		.align	2
  47              		.type	Y_last_position, %object
  48              		.size	Y_last_position, 4
  49              	Y_last_position:
  50 0008 00000000 		.space	4
  51              		.global	Z_last_position
  52              		.align	2
  53              		.type	Z_last_position, %object
  54              		.size	Z_last_position, 4
  55              	Z_last_position:
  56 000c 00000000 		.space	4
  57              		.global	Position_X_Requested
ARM GAS  C:\Users\Admin\AppData\Local\Temp\ccb10png.s 			page 2


  58              		.align	2
  59              		.type	Position_X_Requested, %object
  60              		.size	Position_X_Requested, 4
  61              	Position_X_Requested:
  62 0010 00000000 		.space	4
  63              		.global	Position_Y_Requested
  64              		.align	2
  65              		.type	Position_Y_Requested, %object
  66              		.size	Position_Y_Requested, 4
  67              	Position_Y_Requested:
  68 0014 00000000 		.space	4
  69              		.global	Position_Z_Requested
  70              		.align	2
  71              		.type	Position_Z_Requested, %object
  72              		.size	Position_Z_Requested, 4
  73              	Position_Z_Requested:
  74 0018 00000000 		.space	4
  75              		.global	Position_X_Move
  76              		.align	2
  77              		.type	Position_X_Move, %object
  78              		.size	Position_X_Move, 4
  79              	Position_X_Move:
  80 001c 00000000 		.space	4
  81              		.global	Position_Y_Move
  82              		.align	2
  83              		.type	Position_Y_Move, %object
  84              		.size	Position_Y_Move, 4
  85              	Position_Y_Move:
  86 0020 00000000 		.space	4
  87              		.global	Position_Z_Move
  88              		.align	2
  89              		.type	Position_Z_Move, %object
  90              		.size	Position_Z_Move, 4
  91              	Position_Z_Move:
  92 0024 00000000 		.space	4
  93              		.global	X_QuadPosition
  94              		.align	2
  95              		.type	X_QuadPosition, %object
  96              		.size	X_QuadPosition, 4
  97              	X_QuadPosition:
  98 0028 00000000 		.space	4
  99              		.global	Y_QuadPosition
 100              		.align	2
 101              		.type	Y_QuadPosition, %object
 102              		.size	Y_QuadPosition, 4
 103              	Y_QuadPosition:
 104 002c 00000000 		.space	4
 105              		.global	Z_QuadPosition
 106              		.align	2
 107              		.type	Z_QuadPosition, %object
 108              		.size	Z_QuadPosition, 4
 109              	Z_QuadPosition:
 110 0030 00000000 		.space	4
 111              		.global	No_of_X_Cycle
 112              		.align	2
 113              		.type	No_of_X_Cycle, %object
 114              		.size	No_of_X_Cycle, 4
ARM GAS  C:\Users\Admin\AppData\Local\Temp\ccb10png.s 			page 3


 115              	No_of_X_Cycle:
 116 0034 00000000 		.space	4
 117              		.global	No_of_Y_Cycle
 118              		.align	2
 119              		.type	No_of_Y_Cycle, %object
 120              		.size	No_of_Y_Cycle, 4
 121              	No_of_Y_Cycle:
 122 0038 00000000 		.space	4
 123              		.global	No_of_Z_Cycle
 124              		.align	2
 125              		.type	No_of_Z_Cycle, %object
 126              		.size	No_of_Z_Cycle, 4
 127              	No_of_Z_Cycle:
 128 003c 00000000 		.space	4
 129              		.global	Motor_Speed_X
 130              		.data
 131 0001 000000   		.align	2
 132              		.type	Motor_Speed_X, %object
 133              		.size	Motor_Speed_X, 4
 134              	Motor_Speed_X:
 135 0004 8A020000 		.word	650
 136              		.global	Motor_Speed_Y
 137              		.align	2
 138              		.type	Motor_Speed_Y, %object
 139              		.size	Motor_Speed_Y, 4
 140              	Motor_Speed_Y:
 141 0008 58020000 		.word	600
 142              		.global	Motor_Speed_Z
 143              		.align	2
 144              		.type	Motor_Speed_Z, %object
 145              		.size	Motor_Speed_Z, 4
 146              	Motor_Speed_Z:
 147 000c FA000000 		.word	250
 148              		.global	step_correction_loop_x
 149              		.align	2
 150              		.type	step_correction_loop_x, %object
 151              		.size	step_correction_loop_x, 4
 152              	step_correction_loop_x:
 153 0010 04000000 		.word	4
 154              		.global	step_correction_loop_y
 155              		.align	2
 156              		.type	step_correction_loop_y, %object
 157              		.size	step_correction_loop_y, 4
 158              	step_correction_loop_y:
 159 0014 04000000 		.word	4
 160              		.global	step_correction_loop_z
 161              		.align	2
 162              		.type	step_correction_loop_z, %object
 163              		.size	step_correction_loop_z, 4
 164              	step_correction_loop_z:
 165 0018 04000000 		.word	4
 166              		.global	HomeX_done
 167              		.bss
 168              		.type	HomeX_done, %object
 169              		.size	HomeX_done, 1
 170              	HomeX_done:
 171 0040 00       		.space	1
ARM GAS  C:\Users\Admin\AppData\Local\Temp\ccb10png.s 			page 4


 172              		.global	HomeY_done
 173              		.type	HomeY_done, %object
 174              		.size	HomeY_done, 1
 175              	HomeY_done:
 176 0041 00       		.space	1
 177              		.global	HomeZ_done
 178              		.type	HomeZ_done, %object
 179              		.size	HomeZ_done, 1
 180              	HomeZ_done:
 181 0042 00       		.space	1
 182              		.global	EncoderXnYSelect
 183 0043 00       		.align	2
 184              		.type	EncoderXnYSelect, %object
 185              		.size	EncoderXnYSelect, 4
 186              	EncoderXnYSelect:
 187 0044 00000000 		.space	4
 188              		.global	Buffer_X_QuadPosition
 189              		.align	2
 190              		.type	Buffer_X_QuadPosition, %object
 191              		.size	Buffer_X_QuadPosition, 4
 192              	Buffer_X_QuadPosition:
 193 0048 00000000 		.space	4
 194              		.global	Buffer_Y_QuadPosition
 195              		.align	2
 196              		.type	Buffer_Y_QuadPosition, %object
 197              		.size	Buffer_Y_QuadPosition, 4
 198              	Buffer_Y_QuadPosition:
 199 004c 00000000 		.space	4
 200              		.global	PWM_comare_value
 201              		.align	2
 202              		.type	PWM_comare_value, %object
 203              		.size	PWM_comare_value, 4
 204              	PWM_comare_value:
 205 0050 00000000 		.space	4
 206              		.section	.rodata
 207              		.align	2
 208              	.LC0:
 209 0000 486F6D65 		.ascii	"HomeX Command Recived  \015\012\000"
 209      5820436F 
 209      6D6D616E 
 209      64205265 
 209      63697665 
 210 001a 0000     		.align	2
 211              	.LC1:
 212 001c 585F5377 		.ascii	"X_Switch_Not_Working***********[x1]  \015\012\000"
 212      69746368 
 212      5F4E6F74 
 212      5F576F72 
 212      6B696E67 
 213              		.align	2
 214              	.LC2:
 215 0044 585F4D6F 		.ascii	"X_MotorNotWorking***********[x2]  \015\012\000"
 215      746F724E 
 215      6F74576F 
 215      726B696E 
 215      672A2A2A 
 216 0069 000000   		.align	2
ARM GAS  C:\Users\Admin\AppData\Local\Temp\ccb10png.s 			page 5


 217              	.LC3:
 218 006c 585F5377 		.ascii	"X_Switch_Not_Working***********[x3]  \015\012\000"
 218      69746368 
 218      5F4E6F74 
 218      5F576F72 
 218      6B696E67 
 219              		.align	2
 220              	.LC4:
 221 0094 585F4D6F 		.ascii	"X_MotorNotWorking***********[x4]  \015\012\000"
 221      746F724E 
 221      6F74576F 
 221      726B696E 
 221      672A2A2A 
 222 00b9 000000   		.align	2
 223              	.LC5:
 224 00bc 595F486F 		.ascii	"Y_Homing_Not_Done_Yet***********[x5]  \015\012\000"
 224      6D696E67 
 224      5F4E6F74 
 224      5F446F6E 
 224      655F5965 
 225 00e5 000000   		.align	2
 226              	.LC6:
 227 00e8 486F6D65 		.ascii	"HomeX executed  \015\012\000"
 227      58206578 
 227      65637574 
 227      65642020 
 227      0D0A00
 228 00fb 00       		.align	2
 229              	.LC7:
 230 00fc 486F6D65 		.ascii	"HomeX_Error***********[x6]  \015\012\000"
 230      585F4572 
 230      726F722A 
 230      2A2A2A2A 
 230      2A2A2A2A 
 231              		.section	.text.home_X,"ax",%progbits
 232              		.align	2
 233              		.global	home_X
 234              		.thumb
 235              		.thumb_func
 236              		.type	home_X, %function
 237              	home_X:
 238              	.LFB64:
 239              		.file 1 "L6470.c"
   1:L6470.c       **** 
   2:L6470.c       **** /* ========================================
   3:L6470.c       **** 
   4:L6470.c       ****    Copyright Sigtuple, 2018
   5:L6470.c       ****    All Rights Reserved
   6:L6470.c       ****    UNPUBLISHED, LICENSED SOFTWARE.
   7:L6470.c       **** 
   8:L6470.c       ****    CONFIDENTIAL AND PROPRIETARY INFORMATION
   9:L6470.c       ****    WHICH IS THE PROPERTY OF SIGTUPLE.
  10:L6470.c       **** 
  11:L6470.c       ****    ========================================
  12:L6470.c       **** */
  13:L6470.c       **** #include "L6470.h"
  14:L6470.c       **** #include "variables.h"
ARM GAS  C:\Users\Admin\AppData\Local\Temp\ccb10png.s 			page 6


  15:L6470.c       **** #include "project.h"
  16:L6470.c       **** #include "math.h"
  17:L6470.c       **** #include "configuration.h"
  18:L6470.c       **** #include <stdlib.h>
  19:L6470.c       **** 
  20:L6470.c       **** bool Time_Out_Error = true;
  21:L6470.c       **** unsigned int command;
  22:L6470.c       **** 
  23:L6470.c       **** int Error = 0;
  24:L6470.c       **** 
  25:L6470.c       **** int32 X_last_position  = 0;
  26:L6470.c       **** int32 Y_last_position  = 0;
  27:L6470.c       **** int32 Z_last_position  = 0;
  28:L6470.c       **** int32 Position_X_Requested = 0;
  29:L6470.c       **** int32 Position_Y_Requested = 0;
  30:L6470.c       **** int32 Position_Z_Requested = 0;
  31:L6470.c       **** int32 Position_X_Move = 0;
  32:L6470.c       **** int32 Position_Y_Move = 0;
  33:L6470.c       **** int32 Position_Z_Move = 0;
  34:L6470.c       **** volatile int32 X_QuadPosition = 0;
  35:L6470.c       **** volatile int32 Y_QuadPosition = 0;
  36:L6470.c       **** volatile int32 Z_QuadPosition = 0;
  37:L6470.c       **** int No_of_X_Cycle=0;
  38:L6470.c       **** int No_of_Y_Cycle=0;
  39:L6470.c       **** int No_of_Z_Cycle=0;
  40:L6470.c       **** unsigned int Motor_Speed_X = Default_X_Motor_Speed;
  41:L6470.c       **** unsigned int Motor_Speed_Y = Default_Y_Motor_Speed;
  42:L6470.c       **** unsigned int Motor_Speed_Z = Default_Z_Motor_Speed;
  43:L6470.c       **** int step_correction_loop_x = No_of_Execution_GoToX;
  44:L6470.c       **** int step_correction_loop_y = No_of_Execution_GoToY;
  45:L6470.c       **** int step_correction_loop_z = No_of_Execution_GoToZ;
  46:L6470.c       **** bool HomeX_done = false;
  47:L6470.c       **** bool HomeY_done = false;
  48:L6470.c       **** bool HomeZ_done = false;
  49:L6470.c       **** int EncoderXnYSelect = 0;
  50:L6470.c       **** int Buffer_X_QuadPosition = 0;
  51:L6470.c       **** int Buffer_Y_QuadPosition = 0;
  52:L6470.c       **** int PWM_comare_value = 0;
  53:L6470.c       **** 
  54:L6470.c       **** //Motor Movment Functions Start-------------------------------------------------------
  55:L6470.c       **** int home_X()
  56:L6470.c       **** {
 240              		.loc 1 56 0
 241              		.cfi_startproc
 242              		@ args = 0, pretend = 0, frame = 8
 243              		@ frame_needed = 1, uses_anonymous_args = 0
 244 0000 80B5     		push	{r7, lr}
 245              		.cfi_def_cfa_offset 8
 246              		.cfi_offset 7, -8
 247              		.cfi_offset 14, -4
 248 0002 82B0     		sub	sp, sp, #8
 249              		.cfi_def_cfa_offset 16
 250 0004 00AF     		add	r7, sp, #0
 251              		.cfi_def_cfa_register 7
  57:L6470.c       ****     Write_Debug_UART_Char("HomeX Command Recived  \r\n");
 252              		.loc 1 57 0
 253 0006 8148     		ldr	r0, .L17
ARM GAS  C:\Users\Admin\AppData\Local\Temp\ccb10png.s 			page 7


 254 0008 FFF7FEFF 		bl	Write_Debug_UART_Char
  58:L6470.c       ****     Error = 0;
 255              		.loc 1 58 0
 256 000c 804B     		ldr	r3, .L17+4
 257 000e 0022     		movs	r2, #0
 258 0010 1A60     		str	r2, [r3]
  59:L6470.c       ****     Configure_L6470_For_X_Motor();
 259              		.loc 1 59 0
 260 0012 FFF7FEFF 		bl	Configure_L6470_For_X_Motor
  60:L6470.c       ****     X_last_position = 0;
 261              		.loc 1 60 0
 262 0016 7F4B     		ldr	r3, .L17+8
 263 0018 0022     		movs	r2, #0
 264 001a 1A60     		str	r2, [r3]
  61:L6470.c       ****     X_QuadPosition =0 ;
 265              		.loc 1 61 0
 266 001c 7E4B     		ldr	r3, .L17+12
 267 001e 0022     		movs	r2, #0
 268 0020 1A60     		str	r2, [r3]
  62:L6470.c       ****     int32 now_X_QuadPosition = X_QuadPosition;
 269              		.loc 1 62 0
 270 0022 7D4B     		ldr	r3, .L17+12
 271 0024 1B68     		ldr	r3, [r3]
 272 0026 7B60     		str	r3, [r7, #4]
  63:L6470.c       ****     Buffer_X_QuadPosition = 0;
 273              		.loc 1 63 0
 274 0028 7C4B     		ldr	r3, .L17+16
 275 002a 0022     		movs	r2, #0
 276 002c 1A60     		str	r2, [r3]
  64:L6470.c       ****     if(HomeY_done == true)
 277              		.loc 1 64 0
 278 002e 7C4B     		ldr	r3, .L17+20
 279 0030 1B78     		ldrb	r3, [r3]	@ zero_extendqisi2
 280 0032 002B     		cmp	r3, #0
 281 0034 00F0B480 		beq	.L2
  65:L6470.c       ****     {
  66:L6470.c       ****         if(check_Error('X', 'H') == 0)
 282              		.loc 1 66 0
 283 0038 4821     		movs	r1, #72
 284 003a 5820     		movs	r0, #88
 285 003c FFF7FEFF 		bl	check_Error
 286 0040 0346     		mov	r3, r0
 287 0042 002B     		cmp	r3, #0
 288 0044 40F0A480 		bne	.L3
  67:L6470.c       ****         {
  68:L6470.c       ****             Enable_Encoder_X(0);
 289              		.loc 1 68 0
 290 0048 0020     		movs	r0, #0
 291 004a FFF7FEFF 		bl	Enable_Encoder_X
  69:L6470.c       ****             if(ADC_SAR_Seq_GetResult16(0) < Proxy_Sensor_Threshold)
 292              		.loc 1 69 0
 293 004e 0020     		movs	r0, #0
 294 0050 FFF7FEFF 		bl	ADC_SAR_Seq_GetResult16
 295 0054 0346     		mov	r3, r0
 296 0056 182B     		cmp	r3, #24
 297 0058 3BDC     		bgt	.L4
  70:L6470.c       ****             {
ARM GAS  C:\Users\Admin\AppData\Local\Temp\ccb10png.s 			page 8


  71:L6470.c       ****                 Move(FWD, OneRotation * 50);
 298              		.loc 1 71 0
 299 005a 7249     		ldr	r1, .L17+24
 300 005c 0120     		movs	r0, #1
 301 005e FFF7FEFF 		bl	Move
  72:L6470.c       ****                 while (Pin_BusyMotorX_Read() == 0)
 302              		.loc 1 72 0
 303 0062 0BE0     		b	.L5
 304              	.L6:
  73:L6470.c       ****                 {      
  74:L6470.c       ****                     if (ADC_SAR_Seq_GetResult16(0) > Proxy_Sensor_Threshold) 
 305              		.loc 1 74 0
 306 0064 0020     		movs	r0, #0
 307 0066 FFF7FEFF 		bl	ADC_SAR_Seq_GetResult16
 308 006a 0346     		mov	r3, r0
 309 006c 192B     		cmp	r3, #25
 310 006e 05DD     		ble	.L5
  75:L6470.c       ****                     {
  76:L6470.c       ****                         CyDelay(100);//Key debounding
 311              		.loc 1 76 0
 312 0070 6420     		movs	r0, #100
 313 0072 FFF7FEFF 		bl	CyDelay
  77:L6470.c       ****                         Data_To_Transfer(x_HARD_STOP);
 314              		.loc 1 77 0
 315 0076 B820     		movs	r0, #184
 316 0078 FFF7FEFF 		bl	Data_To_Transfer
 317              	.L5:
  72:L6470.c       ****                 {      
 318              		.loc 1 72 0
 319 007c FFF7FEFF 		bl	Pin_BusyMotorX_Read
 320 0080 0346     		mov	r3, r0
 321 0082 002B     		cmp	r3, #0
 322 0084 EED0     		beq	.L6
  78:L6470.c       ****                     }
  79:L6470.c       ****                 }
  80:L6470.c       ****                 CyDelay(100);//for stage stablization
 323              		.loc 1 80 0
 324 0086 6420     		movs	r0, #100
 325 0088 FFF7FEFF 		bl	CyDelay
  81:L6470.c       ****                 Read_All_Optical_Encoder();
 326              		.loc 1 81 0
 327 008c FFF7FEFF 		bl	Read_All_Optical_Encoder
  82:L6470.c       ****                 if(ADC_SAR_Seq_GetResult16(0) < Proxy_Sensor_Threshold)
 328              		.loc 1 82 0
 329 0090 0020     		movs	r0, #0
 330 0092 FFF7FEFF 		bl	ADC_SAR_Seq_GetResult16
 331 0096 0346     		mov	r3, r0
 332 0098 182B     		cmp	r3, #24
 333 009a 1ADC     		bgt	.L4
  83:L6470.c       ****                 {
  84:L6470.c       ****                     if(abs(now_X_QuadPosition - X_QuadPosition) >4000)
 334              		.loc 1 84 0
 335 009c 5E4B     		ldr	r3, .L17+12
 336 009e 1B68     		ldr	r3, [r3]
 337 00a0 7A68     		ldr	r2, [r7, #4]
 338 00a2 D31A     		subs	r3, r2, r3
 339 00a4 002B     		cmp	r3, #0
ARM GAS  C:\Users\Admin\AppData\Local\Temp\ccb10png.s 			page 9


 340 00a6 B8BF     		it	lt
 341 00a8 5B42     		rsblt	r3, r3, #0
 342 00aa B3F57A6F 		cmp	r3, #4000
 343 00ae 08DD     		ble	.L7
  85:L6470.c       ****                     {
  86:L6470.c       ****                         Error = 3;//X_Switch_Not_Working;
 344              		.loc 1 86 0
 345 00b0 574B     		ldr	r3, .L17+4
 346 00b2 0322     		movs	r2, #3
 347 00b4 1A60     		str	r2, [r3]
  87:L6470.c       ****                         Write_Debug_UART_Char("X_Switch_Not_Working***********[x1]  \r\n");
 348              		.loc 1 87 0
 349 00b6 5C48     		ldr	r0, .L17+28
 350 00b8 FFF7FEFF 		bl	Write_Debug_UART_Char
  88:L6470.c       ****                         UART_print_all_values();
 351              		.loc 1 88 0
 352 00bc FFF7FEFF 		bl	UART_print_all_values
 353 00c0 07E0     		b	.L4
 354              	.L7:
  89:L6470.c       ****                     }
  90:L6470.c       ****                     else
  91:L6470.c       ****                     {
  92:L6470.c       ****                         Error = 1;//xMotorNotWorking;
 355              		.loc 1 92 0
 356 00c2 534B     		ldr	r3, .L17+4
 357 00c4 0122     		movs	r2, #1
 358 00c6 1A60     		str	r2, [r3]
  93:L6470.c       ****                         Write_Debug_UART_Char("X_MotorNotWorking***********[x2]  \r\n");
 359              		.loc 1 93 0
 360 00c8 5848     		ldr	r0, .L17+32
 361 00ca FFF7FEFF 		bl	Write_Debug_UART_Char
  94:L6470.c       ****                         UART_print_all_values();
 362              		.loc 1 94 0
 363 00ce FFF7FEFF 		bl	UART_print_all_values
 364              	.L4:
  95:L6470.c       ****                     }
  96:L6470.c       ****                 }
  97:L6470.c       ****             }
  98:L6470.c       ****             CyDelay(200);//requred to reduce the step error after homing
 365              		.loc 1 98 0
 366 00d2 C820     		movs	r0, #200
 367 00d4 FFF7FEFF 		bl	CyDelay
  99:L6470.c       ****             now_X_QuadPosition = X_QuadPosition;
 368              		.loc 1 99 0
 369 00d8 4F4B     		ldr	r3, .L17+12
 370 00da 1B68     		ldr	r3, [r3]
 371 00dc 7B60     		str	r3, [r7, #4]
 100:L6470.c       ****             if(ADC_SAR_Seq_GetResult16(0) > Proxy_Sensor_Threshold)
 372              		.loc 1 100 0
 373 00de 0020     		movs	r0, #0
 374 00e0 FFF7FEFF 		bl	ADC_SAR_Seq_GetResult16
 375 00e4 0346     		mov	r3, r0
 376 00e6 192B     		cmp	r3, #25
 377 00e8 62DD     		ble	.L13
 101:L6470.c       ****             {
 102:L6470.c       ****                 SetParam(x_MAX_SPEED, MaxSpdCalc(50));
 378              		.loc 1 102 0
ARM GAS  C:\Users\Admin\AppData\Local\Temp\ccb10png.s 			page 10


 379 00ea 5148     		ldr	r0, .L17+36
 380 00ec FFF7FEFF 		bl	MaxSpdCalc
 381 00f0 0346     		mov	r3, r0
 382 00f2 1946     		mov	r1, r3
 383 00f4 0720     		movs	r0, #7
 384 00f6 FFF7FEFF 		bl	SetParam
 103:L6470.c       ****                 Move(REV, OneRotation * 2);
 385              		.loc 1 103 0
 386 00fa 4FF4FA41 		mov	r1, #32000
 387 00fe 0020     		movs	r0, #0
 388 0100 FFF7FEFF 		bl	Move
 104:L6470.c       ****                 while (Pin_BusyMotorX_Read() == 0)
 389              		.loc 1 104 0
 390 0104 18E0     		b	.L9
 391              	.L10:
 105:L6470.c       ****                 {
 106:L6470.c       ****                     if (ADC_SAR_Seq_GetResult16(0) < Proxy_Sensor_Threshold)
 392              		.loc 1 106 0
 393 0106 0020     		movs	r0, #0
 394 0108 FFF7FEFF 		bl	ADC_SAR_Seq_GetResult16
 395 010c 0346     		mov	r3, r0
 396 010e 182B     		cmp	r3, #24
 397 0110 12DC     		bgt	.L9
 107:L6470.c       ****                     {
 108:L6470.c       ****                         X_last_position = 0;
 398              		.loc 1 108 0
 399 0112 404B     		ldr	r3, .L17+8
 400 0114 0022     		movs	r2, #0
 401 0116 1A60     		str	r2, [r3]
 109:L6470.c       ****                         X_QuadPosition =0 ;
 402              		.loc 1 109 0
 403 0118 3F4B     		ldr	r3, .L17+12
 404 011a 0022     		movs	r2, #0
 405 011c 1A60     		str	r2, [r3]
 110:L6470.c       ****                         QuadDec_XY_Stop();
 406              		.loc 1 110 0
 407 011e FFF7FEFF 		bl	QuadDec_XY_Stop
 111:L6470.c       ****                         QuadDec_XY_Start();
 408              		.loc 1 111 0
 409 0122 FFF7FEFF 		bl	QuadDec_XY_Start
 112:L6470.c       ****                         QuadDec_XY_SetCounter(0);
 410              		.loc 1 112 0
 411 0126 0020     		movs	r0, #0
 412 0128 FFF7FEFF 		bl	QuadDec_XY_SetCounter
 113:L6470.c       ****                         Buffer_X_QuadPosition = 0;
 413              		.loc 1 113 0
 414 012c 3B4B     		ldr	r3, .L17+16
 415 012e 0022     		movs	r2, #0
 416 0130 1A60     		str	r2, [r3]
 114:L6470.c       ****                         Data_To_Transfer(x_HARD_STOP);
 417              		.loc 1 114 0
 418 0132 B820     		movs	r0, #184
 419 0134 FFF7FEFF 		bl	Data_To_Transfer
 420              	.L9:
 104:L6470.c       ****                 {
 421              		.loc 1 104 0
 422 0138 FFF7FEFF 		bl	Pin_BusyMotorX_Read
ARM GAS  C:\Users\Admin\AppData\Local\Temp\ccb10png.s 			page 11


 423 013c 0346     		mov	r3, r0
 424 013e 002B     		cmp	r3, #0
 425 0140 E1D0     		beq	.L10
 115:L6470.c       ****                     }
 116:L6470.c       ****                 }
 117:L6470.c       ****                 CyDelay(100);//for stage stablization
 426              		.loc 1 117 0
 427 0142 6420     		movs	r0, #100
 428 0144 FFF7FEFF 		bl	CyDelay
 118:L6470.c       ****                 Read_All_Optical_Encoder();
 429              		.loc 1 118 0
 430 0148 FFF7FEFF 		bl	Read_All_Optical_Encoder
 119:L6470.c       ****                 if(ADC_SAR_Seq_GetResult16(0) > Proxy_Sensor_Threshold)
 431              		.loc 1 119 0
 432 014c 0020     		movs	r0, #0
 433 014e FFF7FEFF 		bl	ADC_SAR_Seq_GetResult16
 434 0152 0346     		mov	r3, r0
 435 0154 192B     		cmp	r3, #25
 436 0156 2BDD     		ble	.L13
 120:L6470.c       ****                 {
 121:L6470.c       ****                     if(abs(now_X_QuadPosition - X_QuadPosition) > 4000)
 437              		.loc 1 121 0
 438 0158 2F4B     		ldr	r3, .L17+12
 439 015a 1B68     		ldr	r3, [r3]
 440 015c 7A68     		ldr	r2, [r7, #4]
 441 015e D31A     		subs	r3, r2, r3
 442 0160 002B     		cmp	r3, #0
 443 0162 B8BF     		it	lt
 444 0164 5B42     		rsblt	r3, r3, #0
 445 0166 B3F57A6F 		cmp	r3, #4000
 446 016a 08DD     		ble	.L11
 122:L6470.c       ****                     {
 123:L6470.c       ****                         Error = 3;//X_Switch_Not_Working;
 447              		.loc 1 123 0
 448 016c 284B     		ldr	r3, .L17+4
 449 016e 0322     		movs	r2, #3
 450 0170 1A60     		str	r2, [r3]
 124:L6470.c       ****                         Write_Debug_UART_Char("X_Switch_Not_Working***********[x3]  \r\n");
 451              		.loc 1 124 0
 452 0172 3048     		ldr	r0, .L17+40
 453 0174 FFF7FEFF 		bl	Write_Debug_UART_Char
 125:L6470.c       ****                         UART_print_all_values();
 454              		.loc 1 125 0
 455 0178 FFF7FEFF 		bl	UART_print_all_values
 456 017c 18E0     		b	.L13
 457              	.L11:
 126:L6470.c       ****                     }
 127:L6470.c       ****                     else
 128:L6470.c       ****                     {
 129:L6470.c       ****                         Error = 1;//MotorNotWorking;
 458              		.loc 1 129 0
 459 017e 244B     		ldr	r3, .L17+4
 460 0180 0122     		movs	r2, #1
 461 0182 1A60     		str	r2, [r3]
 130:L6470.c       ****                         Write_Debug_UART_Char("X_MotorNotWorking***********[x4]  \r\n");
 462              		.loc 1 130 0
 463 0184 2C48     		ldr	r0, .L17+44
ARM GAS  C:\Users\Admin\AppData\Local\Temp\ccb10png.s 			page 12


 464 0186 FFF7FEFF 		bl	Write_Debug_UART_Char
 131:L6470.c       ****                         UART_print_all_values();
 465              		.loc 1 131 0
 466 018a FFF7FEFF 		bl	UART_print_all_values
 467 018e 0FE0     		b	.L13
 468              	.L3:
 132:L6470.c       ****                     }
 133:L6470.c       ****                 }
 134:L6470.c       ****             }
 135:L6470.c       ****         }
 136:L6470.c       ****         else
 137:L6470.c       ****             Error = check_Error('X', 'H');
 469              		.loc 1 137 0
 470 0190 4821     		movs	r1, #72
 471 0192 5820     		movs	r0, #88
 472 0194 FFF7FEFF 		bl	check_Error
 473 0198 0246     		mov	r2, r0
 474 019a 1D4B     		ldr	r3, .L17+4
 475 019c 1A60     		str	r2, [r3]
 476 019e 07E0     		b	.L13
 477              	.L2:
 138:L6470.c       ****     }
 139:L6470.c       ****     else
 140:L6470.c       ****     {
 141:L6470.c       ****         Error = 12;//Y_Homing_Not_Done_Yet
 478              		.loc 1 141 0
 479 01a0 1B4B     		ldr	r3, .L17+4
 480 01a2 0C22     		movs	r2, #12
 481 01a4 1A60     		str	r2, [r3]
 142:L6470.c       ****         Write_Debug_UART_Char("Y_Homing_Not_Done_Yet***********[x5]  \r\n");
 482              		.loc 1 142 0
 483 01a6 2548     		ldr	r0, .L17+48
 484 01a8 FFF7FEFF 		bl	Write_Debug_UART_Char
 143:L6470.c       ****         UART_print_all_values();
 485              		.loc 1 143 0
 486 01ac FFF7FEFF 		bl	UART_print_all_values
 487              	.L13:
 144:L6470.c       ****     }
 145:L6470.c       ****     if(Error == 0)
 488              		.loc 1 145 0
 489 01b0 174B     		ldr	r3, .L17+4
 490 01b2 1B68     		ldr	r3, [r3]
 491 01b4 002B     		cmp	r3, #0
 492 01b6 12D1     		bne	.L14
 146:L6470.c       ****     {
 147:L6470.c       ****         X_last_position = 0;
 493              		.loc 1 147 0
 494 01b8 164B     		ldr	r3, .L17+8
 495 01ba 0022     		movs	r2, #0
 496 01bc 1A60     		str	r2, [r3]
 148:L6470.c       ****         QuadDec_XY_SetCounter(0);
 497              		.loc 1 148 0
 498 01be 0020     		movs	r0, #0
 499 01c0 FFF7FEFF 		bl	QuadDec_XY_SetCounter
 149:L6470.c       ****         Buffer_X_QuadPosition = 0;
 500              		.loc 1 149 0
 501 01c4 154B     		ldr	r3, .L17+16
ARM GAS  C:\Users\Admin\AppData\Local\Temp\ccb10png.s 			page 13


 502 01c6 0022     		movs	r2, #0
 503 01c8 1A60     		str	r2, [r3]
 150:L6470.c       ****         X_QuadPosition =0 ;
 504              		.loc 1 150 0
 505 01ca 134B     		ldr	r3, .L17+12
 506 01cc 0022     		movs	r2, #0
 507 01ce 1A60     		str	r2, [r3]
 151:L6470.c       ****         HomeX_done = true;
 508              		.loc 1 151 0
 509 01d0 1B4B     		ldr	r3, .L17+52
 510 01d2 0122     		movs	r2, #1
 511 01d4 1A70     		strb	r2, [r3]
 152:L6470.c       ****         Write_Debug_UART_Char("HomeX executed  \r\n");
 512              		.loc 1 152 0
 513 01d6 1B48     		ldr	r0, .L17+56
 514 01d8 FFF7FEFF 		bl	Write_Debug_UART_Char
 515 01dc 07E0     		b	.L15
 516              	.L14:
 153:L6470.c       ****     }
 154:L6470.c       ****     else
 155:L6470.c       ****     {
 156:L6470.c       ****         HomeX_done = false;
 517              		.loc 1 156 0
 518 01de 184B     		ldr	r3, .L17+52
 519 01e0 0022     		movs	r2, #0
 520 01e2 1A70     		strb	r2, [r3]
 157:L6470.c       ****         Write_Debug_UART_Char("HomeX_Error***********[x6]  \r\n");
 521              		.loc 1 157 0
 522 01e4 1848     		ldr	r0, .L17+60
 523 01e6 FFF7FEFF 		bl	Write_Debug_UART_Char
 158:L6470.c       ****         UART_print_all_values();
 524              		.loc 1 158 0
 525 01ea FFF7FEFF 		bl	UART_print_all_values
 526              	.L15:
 159:L6470.c       ****     }
 160:L6470.c       ****     disconnect_all_motor();    
 527              		.loc 1 160 0
 528 01ee FFF7FEFF 		bl	disconnect_all_motor
 161:L6470.c       ****     Buffer_X_QuadPosition = -QuadDec_XY_GetCounter();
 529              		.loc 1 161 0
 530 01f2 FFF7FEFF 		bl	QuadDec_XY_GetCounter
 531 01f6 0346     		mov	r3, r0
 532 01f8 5B42     		negs	r3, r3
 533 01fa 084A     		ldr	r2, .L17+16
 534 01fc 1360     		str	r3, [r2]
 162:L6470.c       ****     return Error;
 535              		.loc 1 162 0
 536 01fe 044B     		ldr	r3, .L17+4
 537 0200 1B68     		ldr	r3, [r3]
 163:L6470.c       **** }
 538              		.loc 1 163 0
 539 0202 1846     		mov	r0, r3
 540 0204 0837     		adds	r7, r7, #8
 541              		.cfi_def_cfa_offset 8
 542 0206 BD46     		mov	sp, r7
 543              		.cfi_def_cfa_register 13
 544              		@ sp needed
ARM GAS  C:\Users\Admin\AppData\Local\Temp\ccb10png.s 			page 14


 545 0208 80BD     		pop	{r7, pc}
 546              	.L18:
 547 020a 00BF     		.align	2
 548              	.L17:
 549 020c 00000000 		.word	.LC0
 550 0210 00000000 		.word	Error
 551 0214 00000000 		.word	X_last_position
 552 0218 00000000 		.word	X_QuadPosition
 553 021c 00000000 		.word	Buffer_X_QuadPosition
 554 0220 00000000 		.word	HomeY_done
 555 0224 00350C00 		.word	800000
 556 0228 1C000000 		.word	.LC1
 557 022c 44000000 		.word	.LC2
 558 0230 00004842 		.word	1112014848
 559 0234 6C000000 		.word	.LC3
 560 0238 94000000 		.word	.LC4
 561 023c BC000000 		.word	.LC5
 562 0240 00000000 		.word	HomeX_done
 563 0244 E8000000 		.word	.LC6
 564 0248 FC000000 		.word	.LC7
 565              		.cfi_endproc
 566              	.LFE64:
 567              		.size	home_X, .-home_X
 568              		.section	.rodata
 569 011b 00       		.align	2
 570              	.LC8:
 571 011c 486F6D65 		.ascii	"HomeY Command Recived  \015\012\000"
 571      5920436F 
 571      6D6D616E 
 571      64205265 
 571      63697665 
 572 0136 0000     		.align	2
 573              	.LC9:
 574 0138 595F5377 		.ascii	"Y_Switch_Not_Working***********[y1]  \015\012\000"
 574      69746368 
 574      5F4E6F74 
 574      5F576F72 
 574      6B696E67 
 575              		.align	2
 576              	.LC10:
 577 0160 595F4D6F 		.ascii	"Y_Motor_Not_Working***********[y2]  \015\012\000"
 577      746F725F 
 577      4E6F745F 
 577      576F726B 
 577      696E672A 
 578 0187 00       		.align	2
 579              	.LC11:
 580 0188 595F5377 		.ascii	"Y_Switch_Not_Working***********[y3]  \015\012\000"
 580      69746368 
 580      5F4E6F74 
 580      5F576F72 
 580      6B696E67 
 581              		.align	2
 582              	.LC12:
 583 01b0 595F4D6F 		.ascii	"Y_Motor_Not_Working***********[y4]  \015\012\000"
 583      746F725F 
 583      4E6F745F 
ARM GAS  C:\Users\Admin\AppData\Local\Temp\ccb10png.s 			page 15


 583      576F726B 
 583      696E672A 
 584 01d7 00       		.align	2
 585              	.LC13:
 586 01d8 486F6D65 		.ascii	"HomeY executed  \015\012\000"
 586      59206578 
 586      65637574 
 586      65642020 
 586      0D0A00
 587 01eb 00       		.align	2
 588              	.LC14:
 589 01ec 486F6D65 		.ascii	"HomeY_Error***********[y5]  \015\012\000"
 589      595F4572 
 589      726F722A 
 589      2A2A2A2A 
 589      2A2A2A2A 
 590              		.section	.text.home_Y,"ax",%progbits
 591              		.align	2
 592              		.global	home_Y
 593              		.thumb
 594              		.thumb_func
 595              		.type	home_Y, %function
 596              	home_Y:
 597              	.LFB65:
 164:L6470.c       **** int home_Y()
 165:L6470.c       **** {
 598              		.loc 1 165 0
 599              		.cfi_startproc
 600              		@ args = 0, pretend = 0, frame = 8
 601              		@ frame_needed = 1, uses_anonymous_args = 0
 602 0000 80B5     		push	{r7, lr}
 603              		.cfi_def_cfa_offset 8
 604              		.cfi_offset 7, -8
 605              		.cfi_offset 14, -4
 606 0002 82B0     		sub	sp, sp, #8
 607              		.cfi_def_cfa_offset 16
 608 0004 00AF     		add	r7, sp, #0
 609              		.cfi_def_cfa_register 7
 166:L6470.c       ****     Write_Debug_UART_Char("HomeY Command Recived  \r\n");
 610              		.loc 1 166 0
 611 0006 7A48     		ldr	r0, .L33
 612 0008 FFF7FEFF 		bl	Write_Debug_UART_Char
 167:L6470.c       ****     Error = 0;
 613              		.loc 1 167 0
 614 000c 794B     		ldr	r3, .L33+4
 615 000e 0022     		movs	r2, #0
 616 0010 1A60     		str	r2, [r3]
 168:L6470.c       ****     Configure_L6470_For_Y_Motor();
 617              		.loc 1 168 0
 618 0012 FFF7FEFF 		bl	Configure_L6470_For_Y_Motor
 169:L6470.c       ****     Y_last_position = 0;
 619              		.loc 1 169 0
 620 0016 784B     		ldr	r3, .L33+8
 621 0018 0022     		movs	r2, #0
 622 001a 1A60     		str	r2, [r3]
 170:L6470.c       ****     Y_QuadPosition =0 ;
 623              		.loc 1 170 0
ARM GAS  C:\Users\Admin\AppData\Local\Temp\ccb10png.s 			page 16


 624 001c 774B     		ldr	r3, .L33+12
 625 001e 0022     		movs	r2, #0
 626 0020 1A60     		str	r2, [r3]
 171:L6470.c       ****     int32 now_Y_QuadPosition = Y_QuadPosition;
 627              		.loc 1 171 0
 628 0022 764B     		ldr	r3, .L33+12
 629 0024 1B68     		ldr	r3, [r3]
 630 0026 7B60     		str	r3, [r7, #4]
 172:L6470.c       ****     Buffer_Y_QuadPosition = 0;
 631              		.loc 1 172 0
 632 0028 754B     		ldr	r3, .L33+16
 633 002a 0022     		movs	r2, #0
 634 002c 1A60     		str	r2, [r3]
 173:L6470.c       ****     if(check_Error('Y','H') == 0)
 635              		.loc 1 173 0
 636 002e 4821     		movs	r1, #72
 637 0030 5920     		movs	r0, #89
 638 0032 FFF7FEFF 		bl	check_Error
 639 0036 0346     		mov	r3, r0
 640 0038 002B     		cmp	r3, #0
 641 003a 40F0A480 		bne	.L20
 174:L6470.c       ****     {
 175:L6470.c       ****         Enable_Encoder_Y(0);
 642              		.loc 1 175 0
 643 003e 0020     		movs	r0, #0
 644 0040 FFF7FEFF 		bl	Enable_Encoder_Y
 176:L6470.c       ****         if(ADC_SAR_Seq_GetResult16(1) < Proxy_Sensor_Threshold)
 645              		.loc 1 176 0
 646 0044 0120     		movs	r0, #1
 647 0046 FFF7FEFF 		bl	ADC_SAR_Seq_GetResult16
 648 004a 0346     		mov	r3, r0
 649 004c 182B     		cmp	r3, #24
 650 004e 3BDC     		bgt	.L21
 177:L6470.c       ****         {
 178:L6470.c       ****             Move(REV, OneRotation * 30);
 651              		.loc 1 178 0
 652 0050 6C49     		ldr	r1, .L33+20
 653 0052 0020     		movs	r0, #0
 654 0054 FFF7FEFF 		bl	Move
 179:L6470.c       ****             while (Pin_BusyMotorY_Read() == 0)
 655              		.loc 1 179 0
 656 0058 0BE0     		b	.L22
 657              	.L23:
 180:L6470.c       ****             {
 181:L6470.c       ****                 if (ADC_SAR_Seq_GetResult16(1) > Proxy_Sensor_Threshold)
 658              		.loc 1 181 0
 659 005a 0120     		movs	r0, #1
 660 005c FFF7FEFF 		bl	ADC_SAR_Seq_GetResult16
 661 0060 0346     		mov	r3, r0
 662 0062 192B     		cmp	r3, #25
 663 0064 05DD     		ble	.L22
 182:L6470.c       ****                 {
 183:L6470.c       ****                     CyDelay(100);//Key debounding
 664              		.loc 1 183 0
 665 0066 6420     		movs	r0, #100
 666 0068 FFF7FEFF 		bl	CyDelay
 184:L6470.c       ****                     Data_To_Transfer(x_HARD_STOP);
ARM GAS  C:\Users\Admin\AppData\Local\Temp\ccb10png.s 			page 17


 667              		.loc 1 184 0
 668 006c B820     		movs	r0, #184
 669 006e FFF7FEFF 		bl	Data_To_Transfer
 670              	.L22:
 179:L6470.c       ****             {
 671              		.loc 1 179 0
 672 0072 FFF7FEFF 		bl	Pin_BusyMotorY_Read
 673 0076 0346     		mov	r3, r0
 674 0078 002B     		cmp	r3, #0
 675 007a EED0     		beq	.L23
 185:L6470.c       ****                 }  
 186:L6470.c       ****             }
 187:L6470.c       ****             CyDelay(100);//for stage stablization
 676              		.loc 1 187 0
 677 007c 6420     		movs	r0, #100
 678 007e FFF7FEFF 		bl	CyDelay
 188:L6470.c       ****             Read_All_Optical_Encoder();
 679              		.loc 1 188 0
 680 0082 FFF7FEFF 		bl	Read_All_Optical_Encoder
 189:L6470.c       ****             if(ADC_SAR_Seq_GetResult16(1) < Proxy_Sensor_Threshold)
 681              		.loc 1 189 0
 682 0086 0120     		movs	r0, #1
 683 0088 FFF7FEFF 		bl	ADC_SAR_Seq_GetResult16
 684 008c 0346     		mov	r3, r0
 685 008e 182B     		cmp	r3, #24
 686 0090 1ADC     		bgt	.L21
 190:L6470.c       ****             {
 191:L6470.c       ****                 if(abs(now_Y_QuadPosition - Y_QuadPosition) > 4000)
 687              		.loc 1 191 0
 688 0092 5A4B     		ldr	r3, .L33+12
 689 0094 1B68     		ldr	r3, [r3]
 690 0096 7A68     		ldr	r2, [r7, #4]
 691 0098 D31A     		subs	r3, r2, r3
 692 009a 002B     		cmp	r3, #0
 693 009c B8BF     		it	lt
 694 009e 5B42     		rsblt	r3, r3, #0
 695 00a0 B3F57A6F 		cmp	r3, #4000
 696 00a4 08DD     		ble	.L24
 192:L6470.c       ****                 {
 193:L6470.c       ****                     Error = 9;//Y_Switch_Not_Working;
 697              		.loc 1 193 0
 698 00a6 534B     		ldr	r3, .L33+4
 699 00a8 0922     		movs	r2, #9
 700 00aa 1A60     		str	r2, [r3]
 194:L6470.c       ****                     Write_Debug_UART_Char("Y_Switch_Not_Working***********[y1]  \r\n");
 701              		.loc 1 194 0
 702 00ac 5648     		ldr	r0, .L33+24
 703 00ae FFF7FEFF 		bl	Write_Debug_UART_Char
 195:L6470.c       ****                     UART_print_all_values();
 704              		.loc 1 195 0
 705 00b2 FFF7FEFF 		bl	UART_print_all_values
 706 00b6 07E0     		b	.L21
 707              	.L24:
 196:L6470.c       ****                 }
 197:L6470.c       ****                 else
 198:L6470.c       ****                 {
 199:L6470.c       ****                     Error = 7;//Y_Motor_Not_Working;
ARM GAS  C:\Users\Admin\AppData\Local\Temp\ccb10png.s 			page 18


 708              		.loc 1 199 0
 709 00b8 4E4B     		ldr	r3, .L33+4
 710 00ba 0722     		movs	r2, #7
 711 00bc 1A60     		str	r2, [r3]
 200:L6470.c       ****                     Write_Debug_UART_Char("Y_Motor_Not_Working***********[y2]  \r\n");
 712              		.loc 1 200 0
 713 00be 5348     		ldr	r0, .L33+28
 714 00c0 FFF7FEFF 		bl	Write_Debug_UART_Char
 201:L6470.c       ****                     UART_print_all_values();
 715              		.loc 1 201 0
 716 00c4 FFF7FEFF 		bl	UART_print_all_values
 717              	.L21:
 202:L6470.c       ****                 }
 203:L6470.c       ****             }
 204:L6470.c       ****         }
 205:L6470.c       ****         CyDelay(200);//requred to reduce the step error after homing
 718              		.loc 1 205 0
 719 00c8 C820     		movs	r0, #200
 720 00ca FFF7FEFF 		bl	CyDelay
 206:L6470.c       ****         now_Y_QuadPosition = Y_QuadPosition;
 721              		.loc 1 206 0
 722 00ce 4B4B     		ldr	r3, .L33+12
 723 00d0 1B68     		ldr	r3, [r3]
 724 00d2 7B60     		str	r3, [r7, #4]
 207:L6470.c       ****         if(ADC_SAR_Seq_GetResult16(1) > Proxy_Sensor_Threshold)
 725              		.loc 1 207 0
 726 00d4 0120     		movs	r0, #1
 727 00d6 FFF7FEFF 		bl	ADC_SAR_Seq_GetResult16
 728 00da 0346     		mov	r3, r0
 729 00dc 192B     		cmp	r3, #25
 730 00de 59DD     		ble	.L29
 208:L6470.c       ****         {
 209:L6470.c       ****             SetParam(x_MAX_SPEED, MaxSpdCalc(50));
 731              		.loc 1 209 0
 732 00e0 4B48     		ldr	r0, .L33+32
 733 00e2 FFF7FEFF 		bl	MaxSpdCalc
 734 00e6 0346     		mov	r3, r0
 735 00e8 1946     		mov	r1, r3
 736 00ea 0720     		movs	r0, #7
 737 00ec FFF7FEFF 		bl	SetParam
 210:L6470.c       ****             Move(FWD, OneRotation * 2);
 738              		.loc 1 210 0
 739 00f0 4FF4FA41 		mov	r1, #32000
 740 00f4 0120     		movs	r0, #1
 741 00f6 FFF7FEFF 		bl	Move
 211:L6470.c       ****             while (Pin_BusyMotorY_Read() == 0)
 742              		.loc 1 211 0
 743 00fa 18E0     		b	.L26
 744              	.L27:
 212:L6470.c       ****             {
 213:L6470.c       ****                 if(ADC_SAR_Seq_GetResult16(1) < Proxy_Sensor_Threshold)
 745              		.loc 1 213 0
 746 00fc 0120     		movs	r0, #1
 747 00fe FFF7FEFF 		bl	ADC_SAR_Seq_GetResult16
 748 0102 0346     		mov	r3, r0
 749 0104 182B     		cmp	r3, #24
 750 0106 12DC     		bgt	.L26
ARM GAS  C:\Users\Admin\AppData\Local\Temp\ccb10png.s 			page 19


 214:L6470.c       ****                 {
 215:L6470.c       ****                     Y_last_position = 0;
 751              		.loc 1 215 0
 752 0108 3B4B     		ldr	r3, .L33+8
 753 010a 0022     		movs	r2, #0
 754 010c 1A60     		str	r2, [r3]
 216:L6470.c       ****                     Y_QuadPosition=0;
 755              		.loc 1 216 0
 756 010e 3B4B     		ldr	r3, .L33+12
 757 0110 0022     		movs	r2, #0
 758 0112 1A60     		str	r2, [r3]
 217:L6470.c       ****                     QuadDec_XY_Stop();
 759              		.loc 1 217 0
 760 0114 FFF7FEFF 		bl	QuadDec_XY_Stop
 218:L6470.c       ****                     QuadDec_XY_Start();
 761              		.loc 1 218 0
 762 0118 FFF7FEFF 		bl	QuadDec_XY_Start
 219:L6470.c       ****                     QuadDec_XY_SetCounter(0);
 763              		.loc 1 219 0
 764 011c 0020     		movs	r0, #0
 765 011e FFF7FEFF 		bl	QuadDec_XY_SetCounter
 220:L6470.c       ****                     Buffer_Y_QuadPosition = 0;
 766              		.loc 1 220 0
 767 0122 374B     		ldr	r3, .L33+16
 768 0124 0022     		movs	r2, #0
 769 0126 1A60     		str	r2, [r3]
 221:L6470.c       ****                     Data_To_Transfer(x_HARD_STOP);
 770              		.loc 1 221 0
 771 0128 B820     		movs	r0, #184
 772 012a FFF7FEFF 		bl	Data_To_Transfer
 773              	.L26:
 211:L6470.c       ****             {
 774              		.loc 1 211 0
 775 012e FFF7FEFF 		bl	Pin_BusyMotorY_Read
 776 0132 0346     		mov	r3, r0
 777 0134 002B     		cmp	r3, #0
 778 0136 E1D0     		beq	.L27
 222:L6470.c       ****                 }
 223:L6470.c       ****             }
 224:L6470.c       ****             CyDelay(100);//for stage stablization
 779              		.loc 1 224 0
 780 0138 6420     		movs	r0, #100
 781 013a FFF7FEFF 		bl	CyDelay
 225:L6470.c       ****             Read_All_Optical_Encoder();
 782              		.loc 1 225 0
 783 013e FFF7FEFF 		bl	Read_All_Optical_Encoder
 226:L6470.c       ****             if(ADC_SAR_Seq_GetResult16(1) > Proxy_Sensor_Threshold)
 784              		.loc 1 226 0
 785 0142 0120     		movs	r0, #1
 786 0144 FFF7FEFF 		bl	ADC_SAR_Seq_GetResult16
 787 0148 0346     		mov	r3, r0
 788 014a 192B     		cmp	r3, #25
 789 014c 22DD     		ble	.L29
 227:L6470.c       ****             {
 228:L6470.c       ****                 if(abs(now_Y_QuadPosition - Y_QuadPosition) > 4000)
 790              		.loc 1 228 0
 791 014e 2B4B     		ldr	r3, .L33+12
ARM GAS  C:\Users\Admin\AppData\Local\Temp\ccb10png.s 			page 20


 792 0150 1B68     		ldr	r3, [r3]
 793 0152 7A68     		ldr	r2, [r7, #4]
 794 0154 D31A     		subs	r3, r2, r3
 795 0156 002B     		cmp	r3, #0
 796 0158 B8BF     		it	lt
 797 015a 5B42     		rsblt	r3, r3, #0
 798 015c B3F57A6F 		cmp	r3, #4000
 799 0160 08DD     		ble	.L28
 229:L6470.c       ****                 {
 230:L6470.c       ****                     Error = 9;//Y_Switch_Not_Working;
 800              		.loc 1 230 0
 801 0162 244B     		ldr	r3, .L33+4
 802 0164 0922     		movs	r2, #9
 803 0166 1A60     		str	r2, [r3]
 231:L6470.c       ****                     Write_Debug_UART_Char("Y_Switch_Not_Working***********[y3]  \r\n");
 804              		.loc 1 231 0
 805 0168 2A48     		ldr	r0, .L33+36
 806 016a FFF7FEFF 		bl	Write_Debug_UART_Char
 232:L6470.c       ****                     UART_print_all_values();
 807              		.loc 1 232 0
 808 016e FFF7FEFF 		bl	UART_print_all_values
 809 0172 0FE0     		b	.L29
 810              	.L28:
 233:L6470.c       ****                 }
 234:L6470.c       ****                 else
 235:L6470.c       ****                 {
 236:L6470.c       ****                     Error = 7;//Y_Motor_Not_Working;
 811              		.loc 1 236 0
 812 0174 1F4B     		ldr	r3, .L33+4
 813 0176 0722     		movs	r2, #7
 814 0178 1A60     		str	r2, [r3]
 237:L6470.c       ****                     Write_Debug_UART_Char("Y_Motor_Not_Working***********[y4]  \r\n");
 815              		.loc 1 237 0
 816 017a 2748     		ldr	r0, .L33+40
 817 017c FFF7FEFF 		bl	Write_Debug_UART_Char
 238:L6470.c       ****                     UART_print_all_values();
 818              		.loc 1 238 0
 819 0180 FFF7FEFF 		bl	UART_print_all_values
 820 0184 06E0     		b	.L29
 821              	.L20:
 239:L6470.c       ****                 }
 240:L6470.c       ****             }
 241:L6470.c       ****         }
 242:L6470.c       ****     }
 243:L6470.c       ****     else
 244:L6470.c       ****         Error = check_Error('Y','H');
 822              		.loc 1 244 0
 823 0186 4821     		movs	r1, #72
 824 0188 5920     		movs	r0, #89
 825 018a FFF7FEFF 		bl	check_Error
 826 018e 0246     		mov	r2, r0
 827 0190 184B     		ldr	r3, .L33+4
 828 0192 1A60     		str	r2, [r3]
 829              	.L29:
 245:L6470.c       ****     if(Error == 0)
 830              		.loc 1 245 0
 831 0194 174B     		ldr	r3, .L33+4
ARM GAS  C:\Users\Admin\AppData\Local\Temp\ccb10png.s 			page 21


 832 0196 1B68     		ldr	r3, [r3]
 833 0198 002B     		cmp	r3, #0
 834 019a 12D1     		bne	.L30
 246:L6470.c       ****     {
 247:L6470.c       ****         Y_last_position = 0;
 835              		.loc 1 247 0
 836 019c 164B     		ldr	r3, .L33+8
 837 019e 0022     		movs	r2, #0
 838 01a0 1A60     		str	r2, [r3]
 248:L6470.c       ****         QuadDec_XY_SetCounter(0);
 839              		.loc 1 248 0
 840 01a2 0020     		movs	r0, #0
 841 01a4 FFF7FEFF 		bl	QuadDec_XY_SetCounter
 249:L6470.c       ****         Buffer_Y_QuadPosition = 0;
 842              		.loc 1 249 0
 843 01a8 154B     		ldr	r3, .L33+16
 844 01aa 0022     		movs	r2, #0
 845 01ac 1A60     		str	r2, [r3]
 250:L6470.c       ****         Y_QuadPosition =0 ;
 846              		.loc 1 250 0
 847 01ae 134B     		ldr	r3, .L33+12
 848 01b0 0022     		movs	r2, #0
 849 01b2 1A60     		str	r2, [r3]
 251:L6470.c       ****         HomeY_done = true;
 850              		.loc 1 251 0
 851 01b4 194B     		ldr	r3, .L33+44
 852 01b6 0122     		movs	r2, #1
 853 01b8 1A70     		strb	r2, [r3]
 252:L6470.c       ****         Write_Debug_UART_Char("HomeY executed  \r\n");
 854              		.loc 1 252 0
 855 01ba 1948     		ldr	r0, .L33+48
 856 01bc FFF7FEFF 		bl	Write_Debug_UART_Char
 857 01c0 07E0     		b	.L31
 858              	.L30:
 253:L6470.c       ****     }
 254:L6470.c       ****     else
 255:L6470.c       ****     {
 256:L6470.c       ****         HomeY_done = false;
 859              		.loc 1 256 0
 860 01c2 164B     		ldr	r3, .L33+44
 861 01c4 0022     		movs	r2, #0
 862 01c6 1A70     		strb	r2, [r3]
 257:L6470.c       ****         Write_Debug_UART_Char("HomeY_Error***********[y5]  \r\n");
 863              		.loc 1 257 0
 864 01c8 1648     		ldr	r0, .L33+52
 865 01ca FFF7FEFF 		bl	Write_Debug_UART_Char
 258:L6470.c       ****         UART_print_all_values();
 866              		.loc 1 258 0
 867 01ce FFF7FEFF 		bl	UART_print_all_values
 868              	.L31:
 259:L6470.c       ****     }
 260:L6470.c       ****     disconnect_all_motor();
 869              		.loc 1 260 0
 870 01d2 FFF7FEFF 		bl	disconnect_all_motor
 261:L6470.c       ****     Buffer_Y_QuadPosition = -QuadDec_XY_GetCounter();
 871              		.loc 1 261 0
 872 01d6 FFF7FEFF 		bl	QuadDec_XY_GetCounter
ARM GAS  C:\Users\Admin\AppData\Local\Temp\ccb10png.s 			page 22


 873 01da 0346     		mov	r3, r0
 874 01dc 5B42     		negs	r3, r3
 875 01de 084A     		ldr	r2, .L33+16
 876 01e0 1360     		str	r3, [r2]
 262:L6470.c       ****     return Error;
 877              		.loc 1 262 0
 878 01e2 044B     		ldr	r3, .L33+4
 879 01e4 1B68     		ldr	r3, [r3]
 263:L6470.c       **** }
 880              		.loc 1 263 0
 881 01e6 1846     		mov	r0, r3
 882 01e8 0837     		adds	r7, r7, #8
 883              		.cfi_def_cfa_offset 8
 884 01ea BD46     		mov	sp, r7
 885              		.cfi_def_cfa_register 13
 886              		@ sp needed
 887 01ec 80BD     		pop	{r7, pc}
 888              	.L34:
 889 01ee 00BF     		.align	2
 890              	.L33:
 891 01f0 1C010000 		.word	.LC8
 892 01f4 00000000 		.word	Error
 893 01f8 00000000 		.word	Y_last_position
 894 01fc 00000000 		.word	Y_QuadPosition
 895 0200 00000000 		.word	Buffer_Y_QuadPosition
 896 0204 00530700 		.word	480000
 897 0208 38010000 		.word	.LC9
 898 020c 60010000 		.word	.LC10
 899 0210 00004842 		.word	1112014848
 900 0214 88010000 		.word	.LC11
 901 0218 B0010000 		.word	.LC12
 902 021c 00000000 		.word	HomeY_done
 903 0220 D8010000 		.word	.LC13
 904 0224 EC010000 		.word	.LC14
 905              		.cfi_endproc
 906              	.LFE65:
 907              		.size	home_Y, .-home_Y
 908              		.section	.rodata
 909 020b 00       		.align	2
 910              	.LC15:
 911 020c 486F6D65 		.ascii	"HomeZ Command Recived  \015\012\000"
 911      5A20436F 
 911      6D6D616E 
 911      64205265 
 911      63697665 
 912 0226 0000     		.align	2
 913              	.LC16:
 914 0228 5A5F5377 		.ascii	"Z_Switch_Not_Working***********[z1]  \015\012\000"
 914      69746368 
 914      5F4E6F74 
 914      5F576F72 
 914      6B696E67 
 915              		.align	2
 916              	.LC17:
 917 0250 5A5F4D6F 		.ascii	"Z_Motor_Not_Working***********[z2]  \015\012\000"
 917      746F725F 
 917      4E6F745F 
ARM GAS  C:\Users\Admin\AppData\Local\Temp\ccb10png.s 			page 23


 917      576F726B 
 917      696E672A 
 918 0277 00       		.align	2
 919              	.LC18:
 920 0278 5A5F5377 		.ascii	"Z_Switch_Not_Working***********[z3]  \015\012\000"
 920      69746368 
 920      5F4E6F74 
 920      5F576F72 
 920      6B696E67 
 921              		.align	2
 922              	.LC19:
 923 02a0 5A5F4D6F 		.ascii	"Z_Motor_Not_Working***********[z4]  \015\012\000"
 923      746F725F 
 923      4E6F745F 
 923      576F726B 
 923      696E672A 
 924 02c7 00       		.align	2
 925              	.LC20:
 926 02c8 486F6D65 		.ascii	"HomeZ executed  \015\012\000"
 926      5A206578 
 926      65637574 
 926      65642020 
 926      0D0A00
 927 02db 00       		.align	2
 928              	.LC21:
 929 02dc 486F6D65 		.ascii	"HomeZ_Error***********[z5]  \015\012\000"
 929      5A5F4572 
 929      726F722A 
 929      2A2A2A2A 
 929      2A2A2A2A 
 930              		.section	.text.home_Z,"ax",%progbits
 931              		.align	2
 932              		.global	home_Z
 933              		.thumb
 934              		.thumb_func
 935              		.type	home_Z, %function
 936              	home_Z:
 937              	.LFB66:
 264:L6470.c       **** int home_Z()
 265:L6470.c       **** {
 938              		.loc 1 265 0
 939              		.cfi_startproc
 940              		@ args = 0, pretend = 0, frame = 8
 941              		@ frame_needed = 1, uses_anonymous_args = 0
 942 0000 80B5     		push	{r7, lr}
 943              		.cfi_def_cfa_offset 8
 944              		.cfi_offset 7, -8
 945              		.cfi_offset 14, -4
 946 0002 82B0     		sub	sp, sp, #8
 947              		.cfi_def_cfa_offset 16
 948 0004 00AF     		add	r7, sp, #0
 949              		.cfi_def_cfa_register 7
 266:L6470.c       ****     Write_Debug_UART_Char("HomeZ Command Recived  \r\n");
 950              		.loc 1 266 0
 951 0006 7548     		ldr	r0, .L50
 952 0008 FFF7FEFF 		bl	Write_Debug_UART_Char
 267:L6470.c       ****     Error = 0;
ARM GAS  C:\Users\Admin\AppData\Local\Temp\ccb10png.s 			page 24


 953              		.loc 1 267 0
 954 000c 744B     		ldr	r3, .L50+4
 955 000e 0022     		movs	r2, #0
 956 0010 1A60     		str	r2, [r3]
 268:L6470.c       ****     Configure_L6470_For_Z_Motor();
 957              		.loc 1 268 0
 958 0012 FFF7FEFF 		bl	Configure_L6470_For_Z_Motor
 269:L6470.c       ****     QuadDec_Z_Stop();
 959              		.loc 1 269 0
 960 0016 FFF7FEFF 		bl	QuadDec_Z_Stop
 270:L6470.c       ****     QuadDec_Z_Start();
 961              		.loc 1 270 0
 962 001a FFF7FEFF 		bl	QuadDec_Z_Start
 271:L6470.c       ****     //QuadDec_XY_SetCounter(0);
 272:L6470.c       ****     Z_last_position = 0;
 963              		.loc 1 272 0
 964 001e 714B     		ldr	r3, .L50+8
 965 0020 0022     		movs	r2, #0
 966 0022 1A60     		str	r2, [r3]
 273:L6470.c       ****     Z_QuadPosition =0 ;
 967              		.loc 1 273 0
 968 0024 704B     		ldr	r3, .L50+12
 969 0026 0022     		movs	r2, #0
 970 0028 1A60     		str	r2, [r3]
 274:L6470.c       ****     int32 now_Z_QuadPosition = Z_QuadPosition;
 971              		.loc 1 274 0
 972 002a 6F4B     		ldr	r3, .L50+12
 973 002c 1B68     		ldr	r3, [r3]
 974 002e 3B60     		str	r3, [r7]
 275:L6470.c       ****     int sensor_flag = 0;
 975              		.loc 1 275 0
 976 0030 0023     		movs	r3, #0
 977 0032 7B60     		str	r3, [r7, #4]
 276:L6470.c       ****     if(check_Error('Z','H') == 0)
 978              		.loc 1 276 0
 979 0034 4821     		movs	r1, #72
 980 0036 5A20     		movs	r0, #90
 981 0038 FFF7FEFF 		bl	check_Error
 982 003c 0346     		mov	r3, r0
 983 003e 002B     		cmp	r3, #0
 984 0040 40F0A080 		bne	.L36
 277:L6470.c       ****     {
 278:L6470.c       ****         if(ADC_SAR_Seq_GetResult16(2) < Proxy_Sensor_Threshold)
 985              		.loc 1 278 0
 986 0044 0220     		movs	r0, #2
 987 0046 FFF7FEFF 		bl	ADC_SAR_Seq_GetResult16
 988 004a 0346     		mov	r3, r0
 989 004c 182B     		cmp	r3, #24
 990 004e 42DC     		bgt	.L37
 279:L6470.c       ****         {
 280:L6470.c       ****             Move(REV, OneRotation * 60); 
 991              		.loc 1 280 0
 992 0050 6649     		ldr	r1, .L50+16
 993 0052 0020     		movs	r0, #0
 994 0054 FFF7FEFF 		bl	Move
 281:L6470.c       ****             while (Pin_BusyMotorZ_Read() == 0)
 995              		.loc 1 281 0
ARM GAS  C:\Users\Admin\AppData\Local\Temp\ccb10png.s 			page 25


 996 0058 10E0     		b	.L38
 997              	.L39:
 282:L6470.c       ****             {
 283:L6470.c       ****                 if ((ADC_SAR_Seq_GetResult16(2) > Proxy_Sensor_Threshold)  && (sensor_flag == 0))
 998              		.loc 1 283 0
 999 005a 0220     		movs	r0, #2
 1000 005c FFF7FEFF 		bl	ADC_SAR_Seq_GetResult16
 1001 0060 0346     		mov	r3, r0
 1002 0062 192B     		cmp	r3, #25
 1003 0064 0ADD     		ble	.L38
 1004              		.loc 1 283 0 is_stmt 0 discriminator 1
 1005 0066 7B68     		ldr	r3, [r7, #4]
 1006 0068 002B     		cmp	r3, #0
 1007 006a 07D1     		bne	.L38
 284:L6470.c       ****                 {
 285:L6470.c       ****                     CyDelay(100);// requred as a key debouncing
 1008              		.loc 1 285 0 is_stmt 1
 1009 006c 6420     		movs	r0, #100
 1010 006e FFF7FEFF 		bl	CyDelay
 286:L6470.c       ****                     Data_To_Transfer(x_HARD_STOP);
 1011              		.loc 1 286 0
 1012 0072 B820     		movs	r0, #184
 1013 0074 FFF7FEFF 		bl	Data_To_Transfer
 287:L6470.c       ****                     sensor_flag = 1;
 1014              		.loc 1 287 0
 1015 0078 0123     		movs	r3, #1
 1016 007a 7B60     		str	r3, [r7, #4]
 1017              	.L38:
 281:L6470.c       ****             {
 1018              		.loc 1 281 0
 1019 007c FFF7FEFF 		bl	Pin_BusyMotorZ_Read
 1020 0080 0346     		mov	r3, r0
 1021 0082 002B     		cmp	r3, #0
 1022 0084 E9D0     		beq	.L39
 288:L6470.c       ****                 }
 289:L6470.c       ****             }
 290:L6470.c       ****             CyDelay(100);//for stage stablization
 1023              		.loc 1 290 0
 1024 0086 6420     		movs	r0, #100
 1025 0088 FFF7FEFF 		bl	CyDelay
 291:L6470.c       ****             Read_All_Optical_Encoder();
 1026              		.loc 1 291 0
 1027 008c FFF7FEFF 		bl	Read_All_Optical_Encoder
 292:L6470.c       ****             if(ADC_SAR_Seq_GetResult16(2) < Proxy_Sensor_Threshold)
 1028              		.loc 1 292 0
 1029 0090 0220     		movs	r0, #2
 1030 0092 FFF7FEFF 		bl	ADC_SAR_Seq_GetResult16
 1031 0096 0346     		mov	r3, r0
 1032 0098 182B     		cmp	r3, #24
 1033 009a 1ADC     		bgt	.L40
 293:L6470.c       ****             {
 294:L6470.c       ****                 if(abs(now_Z_QuadPosition - Z_QuadPosition) > 4000)
 1034              		.loc 1 294 0
 1035 009c 524B     		ldr	r3, .L50+12
 1036 009e 1B68     		ldr	r3, [r3]
 1037 00a0 3A68     		ldr	r2, [r7]
 1038 00a2 D31A     		subs	r3, r2, r3
ARM GAS  C:\Users\Admin\AppData\Local\Temp\ccb10png.s 			page 26


 1039 00a4 002B     		cmp	r3, #0
 1040 00a6 B8BF     		it	lt
 1041 00a8 5B42     		rsblt	r3, r3, #0
 1042 00aa B3F57A6F 		cmp	r3, #4000
 1043 00ae 08DD     		ble	.L41
 295:L6470.c       ****                 {
 296:L6470.c       ****                     Error = 15;//Z_Switch_Not_Working;
 1044              		.loc 1 296 0
 1045 00b0 4B4B     		ldr	r3, .L50+4
 1046 00b2 0F22     		movs	r2, #15
 1047 00b4 1A60     		str	r2, [r3]
 297:L6470.c       ****                     Write_Debug_UART_Char("Z_Switch_Not_Working***********[z1]  \r\n");
 1048              		.loc 1 297 0
 1049 00b6 4E48     		ldr	r0, .L50+20
 1050 00b8 FFF7FEFF 		bl	Write_Debug_UART_Char
 298:L6470.c       ****                     UART_print_all_values();
 1051              		.loc 1 298 0
 1052 00bc FFF7FEFF 		bl	UART_print_all_values
 1053 00c0 07E0     		b	.L40
 1054              	.L41:
 299:L6470.c       ****                 }
 300:L6470.c       ****                 else
 301:L6470.c       ****                 {
 302:L6470.c       ****                     Error = 13;//Z_Motor_Not_Working;
 1055              		.loc 1 302 0
 1056 00c2 474B     		ldr	r3, .L50+4
 1057 00c4 0D22     		movs	r2, #13
 1058 00c6 1A60     		str	r2, [r3]
 303:L6470.c       ****                     Write_Debug_UART_Char("Z_Motor_Not_Working***********[z2]  \r\n");
 1059              		.loc 1 303 0
 1060 00c8 4A48     		ldr	r0, .L50+24
 1061 00ca FFF7FEFF 		bl	Write_Debug_UART_Char
 304:L6470.c       ****                     UART_print_all_values();
 1062              		.loc 1 304 0
 1063 00ce FFF7FEFF 		bl	UART_print_all_values
 1064              	.L40:
 305:L6470.c       ****                 }
 306:L6470.c       ****             }
 307:L6470.c       ****             sensor_flag = 0;
 1065              		.loc 1 307 0
 1066 00d2 0023     		movs	r3, #0
 1067 00d4 7B60     		str	r3, [r7, #4]
 1068              	.L37:
 308:L6470.c       ****         }
 309:L6470.c       ****         CyDelay(200);//requred to reduce the step error after homing
 1069              		.loc 1 309 0
 1070 00d6 C820     		movs	r0, #200
 1071 00d8 FFF7FEFF 		bl	CyDelay
 310:L6470.c       ****         now_Z_QuadPosition = Z_QuadPosition;
 1072              		.loc 1 310 0
 1073 00dc 424B     		ldr	r3, .L50+12
 1074 00de 1B68     		ldr	r3, [r3]
 1075 00e0 3B60     		str	r3, [r7]
 311:L6470.c       ****         if(ADC_SAR_Seq_GetResult16(2) > Proxy_Sensor_Threshold)
 1076              		.loc 1 311 0
 1077 00e2 0220     		movs	r0, #2
 1078 00e4 FFF7FEFF 		bl	ADC_SAR_Seq_GetResult16
ARM GAS  C:\Users\Admin\AppData\Local\Temp\ccb10png.s 			page 27


 1079 00e8 0346     		mov	r3, r0
 1080 00ea 192B     		cmp	r3, #25
 1081 00ec 51DD     		ble	.L46
 312:L6470.c       ****         {
 313:L6470.c       ****             SetParam(x_MAX_SPEED, MaxSpdCalc(100));
 1082              		.loc 1 313 0
 1083 00ee 4248     		ldr	r0, .L50+28
 1084 00f0 FFF7FEFF 		bl	MaxSpdCalc
 1085 00f4 0346     		mov	r3, r0
 1086 00f6 1946     		mov	r1, r3
 1087 00f8 0720     		movs	r0, #7
 1088 00fa FFF7FEFF 		bl	SetParam
 314:L6470.c       ****             Move(FWD, OneRotation * 4); 
 1089              		.loc 1 314 0
 1090 00fe 4FF47A41 		mov	r1, #64000
 1091 0102 0120     		movs	r0, #1
 1092 0104 FFF7FEFF 		bl	Move
 315:L6470.c       ****             while (Pin_BusyMotorZ_Read() == 0)
 1093              		.loc 1 315 0
 1094 0108 10E0     		b	.L43
 1095              	.L44:
 316:L6470.c       ****             {
 317:L6470.c       ****                 if ((ADC_SAR_Seq_GetResult16(2) < Proxy_Sensor_Threshold)  && (sensor_flag == 0))
 1096              		.loc 1 317 0
 1097 010a 0220     		movs	r0, #2
 1098 010c FFF7FEFF 		bl	ADC_SAR_Seq_GetResult16
 1099 0110 0346     		mov	r3, r0
 1100 0112 182B     		cmp	r3, #24
 1101 0114 0ADC     		bgt	.L43
 1102              		.loc 1 317 0 is_stmt 0 discriminator 1
 1103 0116 7B68     		ldr	r3, [r7, #4]
 1104 0118 002B     		cmp	r3, #0
 1105 011a 07D1     		bne	.L43
 318:L6470.c       ****                 {
 319:L6470.c       ****                     QuadDec_Z_SetCounter(0);
 1106              		.loc 1 319 0 is_stmt 1
 1107 011c 0020     		movs	r0, #0
 1108 011e FFF7FEFF 		bl	QuadDec_Z_SetCounter
 320:L6470.c       ****                     Data_To_Transfer(x_HARD_STOP);
 1109              		.loc 1 320 0
 1110 0122 B820     		movs	r0, #184
 1111 0124 FFF7FEFF 		bl	Data_To_Transfer
 321:L6470.c       ****                     sensor_flag = 1;
 1112              		.loc 1 321 0
 1113 0128 0123     		movs	r3, #1
 1114 012a 7B60     		str	r3, [r7, #4]
 1115              	.L43:
 315:L6470.c       ****             {
 1116              		.loc 1 315 0
 1117 012c FFF7FEFF 		bl	Pin_BusyMotorZ_Read
 1118 0130 0346     		mov	r3, r0
 1119 0132 002B     		cmp	r3, #0
 1120 0134 E9D0     		beq	.L44
 322:L6470.c       ****                 }
 323:L6470.c       ****             }
 324:L6470.c       ****             CyDelay(100);//for stage stablization
 1121              		.loc 1 324 0
ARM GAS  C:\Users\Admin\AppData\Local\Temp\ccb10png.s 			page 28


 1122 0136 6420     		movs	r0, #100
 1123 0138 FFF7FEFF 		bl	CyDelay
 325:L6470.c       ****             Read_All_Optical_Encoder();
 1124              		.loc 1 325 0
 1125 013c FFF7FEFF 		bl	Read_All_Optical_Encoder
 326:L6470.c       ****             if(ADC_SAR_Seq_GetResult16(2) > Proxy_Sensor_Threshold)
 1126              		.loc 1 326 0
 1127 0140 0220     		movs	r0, #2
 1128 0142 FFF7FEFF 		bl	ADC_SAR_Seq_GetResult16
 1129 0146 0346     		mov	r3, r0
 1130 0148 192B     		cmp	r3, #25
 1131 014a 22DD     		ble	.L46
 327:L6470.c       ****             {
 328:L6470.c       ****                 if(abs(now_Z_QuadPosition - Z_QuadPosition) > 4000)
 1132              		.loc 1 328 0
 1133 014c 264B     		ldr	r3, .L50+12
 1134 014e 1B68     		ldr	r3, [r3]
 1135 0150 3A68     		ldr	r2, [r7]
 1136 0152 D31A     		subs	r3, r2, r3
 1137 0154 002B     		cmp	r3, #0
 1138 0156 B8BF     		it	lt
 1139 0158 5B42     		rsblt	r3, r3, #0
 1140 015a B3F57A6F 		cmp	r3, #4000
 1141 015e 08DD     		ble	.L45
 329:L6470.c       ****                 {
 330:L6470.c       ****                     Error = 15;//Z_Switch_Not_Working;
 1142              		.loc 1 330 0
 1143 0160 1F4B     		ldr	r3, .L50+4
 1144 0162 0F22     		movs	r2, #15
 1145 0164 1A60     		str	r2, [r3]
 331:L6470.c       ****                     Write_Debug_UART_Char("Z_Switch_Not_Working***********[z3]  \r\n");
 1146              		.loc 1 331 0
 1147 0166 2548     		ldr	r0, .L50+32
 1148 0168 FFF7FEFF 		bl	Write_Debug_UART_Char
 332:L6470.c       ****                     UART_print_all_values();
 1149              		.loc 1 332 0
 1150 016c FFF7FEFF 		bl	UART_print_all_values
 1151 0170 0FE0     		b	.L46
 1152              	.L45:
 333:L6470.c       ****                 }
 334:L6470.c       ****                 else
 335:L6470.c       ****                 {
 336:L6470.c       ****                     Error = 13;//Z_Motor_Not_Working;
 1153              		.loc 1 336 0
 1154 0172 1B4B     		ldr	r3, .L50+4
 1155 0174 0D22     		movs	r2, #13
 1156 0176 1A60     		str	r2, [r3]
 337:L6470.c       ****                     Write_Debug_UART_Char("Z_Motor_Not_Working***********[z4]  \r\n");
 1157              		.loc 1 337 0
 1158 0178 2148     		ldr	r0, .L50+36
 1159 017a FFF7FEFF 		bl	Write_Debug_UART_Char
 338:L6470.c       ****                     UART_print_all_values();
 1160              		.loc 1 338 0
 1161 017e FFF7FEFF 		bl	UART_print_all_values
 1162 0182 06E0     		b	.L46
 1163              	.L36:
 339:L6470.c       ****                 }
ARM GAS  C:\Users\Admin\AppData\Local\Temp\ccb10png.s 			page 29


 340:L6470.c       ****             }
 341:L6470.c       ****         }
 342:L6470.c       ****     }
 343:L6470.c       ****     else
 344:L6470.c       ****         Error = check_Error('Z','H');
 1164              		.loc 1 344 0
 1165 0184 4821     		movs	r1, #72
 1166 0186 5A20     		movs	r0, #90
 1167 0188 FFF7FEFF 		bl	check_Error
 1168 018c 0246     		mov	r2, r0
 1169 018e 144B     		ldr	r3, .L50+4
 1170 0190 1A60     		str	r2, [r3]
 1171              	.L46:
 345:L6470.c       ****     if(Error == 0)
 1172              		.loc 1 345 0
 1173 0192 134B     		ldr	r3, .L50+4
 1174 0194 1B68     		ldr	r3, [r3]
 1175 0196 002B     		cmp	r3, #0
 1176 0198 0FD1     		bne	.L47
 346:L6470.c       ****     {
 347:L6470.c       ****         Z_last_position = 0;
 1177              		.loc 1 347 0
 1178 019a 124B     		ldr	r3, .L50+8
 1179 019c 0022     		movs	r2, #0
 1180 019e 1A60     		str	r2, [r3]
 348:L6470.c       ****         QuadDec_Z_SetCounter(0);
 1181              		.loc 1 348 0
 1182 01a0 0020     		movs	r0, #0
 1183 01a2 FFF7FEFF 		bl	QuadDec_Z_SetCounter
 349:L6470.c       ****         Z_QuadPosition =0 ;
 1184              		.loc 1 349 0
 1185 01a6 104B     		ldr	r3, .L50+12
 1186 01a8 0022     		movs	r2, #0
 1187 01aa 1A60     		str	r2, [r3]
 350:L6470.c       ****         HomeZ_done = true;
 1188              		.loc 1 350 0
 1189 01ac 154B     		ldr	r3, .L50+40
 1190 01ae 0122     		movs	r2, #1
 1191 01b0 1A70     		strb	r2, [r3]
 351:L6470.c       ****         Write_Debug_UART_Char("HomeZ executed  \r\n");
 1192              		.loc 1 351 0
 1193 01b2 1548     		ldr	r0, .L50+44
 1194 01b4 FFF7FEFF 		bl	Write_Debug_UART_Char
 1195 01b8 07E0     		b	.L48
 1196              	.L47:
 352:L6470.c       ****     }
 353:L6470.c       ****     else
 354:L6470.c       ****     {
 355:L6470.c       ****         HomeZ_done = false;
 1197              		.loc 1 355 0
 1198 01ba 124B     		ldr	r3, .L50+40
 1199 01bc 0022     		movs	r2, #0
 1200 01be 1A70     		strb	r2, [r3]
 356:L6470.c       ****         Write_Debug_UART_Char("HomeZ_Error***********[z5]  \r\n");
 1201              		.loc 1 356 0
 1202 01c0 1248     		ldr	r0, .L50+48
 1203 01c2 FFF7FEFF 		bl	Write_Debug_UART_Char
ARM GAS  C:\Users\Admin\AppData\Local\Temp\ccb10png.s 			page 30


 357:L6470.c       ****         UART_print_all_values();
 1204              		.loc 1 357 0
 1205 01c6 FFF7FEFF 		bl	UART_print_all_values
 1206              	.L48:
 358:L6470.c       ****     }
 359:L6470.c       ****     disconnect_all_motor();    
 1207              		.loc 1 359 0
 1208 01ca FFF7FEFF 		bl	disconnect_all_motor
 360:L6470.c       ****     return Error;
 1209              		.loc 1 360 0
 1210 01ce 044B     		ldr	r3, .L50+4
 1211 01d0 1B68     		ldr	r3, [r3]
 361:L6470.c       **** }
 1212              		.loc 1 361 0
 1213 01d2 1846     		mov	r0, r3
 1214 01d4 0837     		adds	r7, r7, #8
 1215              		.cfi_def_cfa_offset 8
 1216 01d6 BD46     		mov	sp, r7
 1217              		.cfi_def_cfa_register 13
 1218              		@ sp needed
 1219 01d8 80BD     		pop	{r7, pc}
 1220              	.L51:
 1221 01da 00BF     		.align	2
 1222              	.L50:
 1223 01dc 0C020000 		.word	.LC15
 1224 01e0 00000000 		.word	Error
 1225 01e4 00000000 		.word	Z_last_position
 1226 01e8 00000000 		.word	Z_QuadPosition
 1227 01ec 00A60E00 		.word	960000
 1228 01f0 28020000 		.word	.LC16
 1229 01f4 50020000 		.word	.LC17
 1230 01f8 0000C842 		.word	1120403456
 1231 01fc 78020000 		.word	.LC18
 1232 0200 A0020000 		.word	.LC19
 1233 0204 00000000 		.word	HomeZ_done
 1234 0208 C8020000 		.word	.LC20
 1235 020c DC020000 		.word	.LC21
 1236              		.cfi_endproc
 1237              	.LFE66:
 1238              		.size	home_Z, .-home_Z
 1239              		.section	.rodata
 1240 02fb 00       		.align	2
 1241              	.LC22:
 1242 02fc 476F746F 		.ascii	"GotoX Command Recived--->\000"
 1242      5820436F 
 1242      6D6D616E 
 1242      64205265 
 1242      63697665 
 1243 0316 0000     		.align	2
 1244              	.LC23:
 1245 0318 20200D0A 		.ascii	"  \015\012\000"
 1245      00
 1246 031d 000000   		.align	2
 1247              	.LC24:
 1248 0320 585F4D6F 		.ascii	"X_Motor_Malfunction**********[x9]  \015\012\000"
 1248      746F725F 
 1248      4D616C66 
ARM GAS  C:\Users\Admin\AppData\Local\Temp\ccb10png.s 			page 31


 1248      756E6374 
 1248      696F6E2A 
 1249 0346 0000     		.align	2
 1250              	.LC25:
 1251 0348 45697468 		.ascii	"Either_X_Encoder_or_X_Motor_Not_Working**********[x"
 1251      65725F58 
 1251      5F456E63 
 1251      6F646572 
 1251      5F6F725F 
 1252 037b 375D2020 		.ascii	"7]  \015\012\000"
 1252      0D0A00
 1253 0382 0000     		.align	2
 1254              	.LC26:
 1255 0384 0D0A00   		.ascii	"\015\012\000"
 1256 0387 00       		.align	2
 1257              	.LC27:
 1258 0388 58204572 		.ascii	"X Error: \000"
 1258      726F723A 
 1258      2000
 1259 0392 0000     		.align	2
 1260              	.LC28:
 1261 0394 52657175 		.ascii	"Requested_X_Step_Exceeding_The_Limit***********[x8]"
 1261      65737465 
 1261      645F585F 
 1261      53746570 
 1261      5F457863 
 1262 03c7 20200D0A 		.ascii	"  \015\012\000"
 1262      00
 1263              		.section	.text.goTo_X,"ax",%progbits
 1264              		.align	2
 1265              		.global	goTo_X
 1266              		.thumb
 1267              		.thumb_func
 1268              		.type	goTo_X, %function
 1269              	goTo_X:
 1270              	.LFB67:
 362:L6470.c       **** int goTo_X(int32 Position_X_Requested)
 363:L6470.c       **** {   
 1271              		.loc 1 363 0
 1272              		.cfi_startproc
 1273              		@ args = 0, pretend = 0, frame = 8
 1274              		@ frame_needed = 1, uses_anonymous_args = 0
 1275 0000 80B5     		push	{r7, lr}
 1276              		.cfi_def_cfa_offset 8
 1277              		.cfi_offset 7, -8
 1278              		.cfi_offset 14, -4
 1279 0002 82B0     		sub	sp, sp, #8
 1280              		.cfi_def_cfa_offset 16
 1281 0004 00AF     		add	r7, sp, #0
 1282              		.cfi_def_cfa_register 7
 1283 0006 7860     		str	r0, [r7, #4]
 364:L6470.c       ****     Enable_Encoder_X(-Buffer_X_QuadPosition);
 1284              		.loc 1 364 0
 1285 0008 644B     		ldr	r3, .L70
 1286 000a 1B68     		ldr	r3, [r3]
 1287 000c 5B42     		negs	r3, r3
 1288 000e 1846     		mov	r0, r3
ARM GAS  C:\Users\Admin\AppData\Local\Temp\ccb10png.s 			page 32


 1289 0010 FFF7FEFF 		bl	Enable_Encoder_X
 365:L6470.c       ****     Error = 0;
 1290              		.loc 1 365 0
 1291 0014 624B     		ldr	r3, .L70+4
 1292 0016 0022     		movs	r2, #0
 1293 0018 1A60     		str	r2, [r3]
 366:L6470.c       ****     Write_Debug_UART_Char("GotoX Command Recived--->");
 1294              		.loc 1 366 0
 1295 001a 6248     		ldr	r0, .L70+8
 1296 001c FFF7FEFF 		bl	Write_Debug_UART_Char
 367:L6470.c       ****     Position_X_Requested = (int)Position_X_Requested;
 368:L6470.c       ****     Write_Debug_UART_Int(Position_X_Requested);
 1297              		.loc 1 368 0
 1298 0020 7868     		ldr	r0, [r7, #4]
 1299 0022 FFF7FEFF 		bl	Write_Debug_UART_Int
 369:L6470.c       ****     Write_Debug_UART_Char("  \r\n");
 1300              		.loc 1 369 0
 1301 0026 6048     		ldr	r0, .L70+12
 1302 0028 FFF7FEFF 		bl	Write_Debug_UART_Char
 370:L6470.c       ****     if(Position_X_Requested <= X_Step_Limit)
 1303              		.loc 1 370 0
 1304 002c 7B68     		ldr	r3, [r7, #4]
 1305 002e 5F4A     		ldr	r2, .L70+16
 1306 0030 9342     		cmp	r3, r2
 1307 0032 00F39E80 		bgt	.L53
 371:L6470.c       ****     {
 372:L6470.c       ****         Configure_L6470_For_X_Motor();
 1308              		.loc 1 372 0
 1309 0036 FFF7FEFF 		bl	Configure_L6470_For_X_Motor
 373:L6470.c       ****         if(check_Error('X', 'G') == 0)
 1310              		.loc 1 373 0
 1311 003a 4721     		movs	r1, #71
 1312 003c 5820     		movs	r0, #88
 1313 003e FFF7FEFF 		bl	check_Error
 1314 0042 0346     		mov	r3, r0
 1315 0044 002B     		cmp	r3, #0
 1316 0046 40F08C80 		bne	.L54
 374:L6470.c       ****         {
 375:L6470.c       ****             if(if_all_homing_done())
 1317              		.loc 1 375 0
 1318 004a FFF7FEFF 		bl	if_all_homing_done
 1319 004e 0346     		mov	r3, r0
 1320 0050 002B     		cmp	r3, #0
 1321 0052 00F09680 		beq	.L67
 376:L6470.c       ****             {
 377:L6470.c       ****                 for(No_of_X_Cycle=0;No_of_X_Cycle < step_correction_loop_x;No_of_X_Cycle++)
 1322              		.loc 1 377 0
 1323 0056 564B     		ldr	r3, .L70+20
 1324 0058 0022     		movs	r2, #0
 1325 005a 1A60     		str	r2, [r3]
 1326 005c 68E0     		b	.L56
 1327              	.L65:
 378:L6470.c       ****                 {
 379:L6470.c       ****                     Read_All_Optical_Encoder();
 1328              		.loc 1 379 0
 1329 005e FFF7FEFF 		bl	Read_All_Optical_Encoder
 380:L6470.c       ****                     Position_X_Move = Position_X_Requested - X_QuadPosition;
ARM GAS  C:\Users\Admin\AppData\Local\Temp\ccb10png.s 			page 33


 1330              		.loc 1 380 0
 1331 0062 544B     		ldr	r3, .L70+24
 1332 0064 1B68     		ldr	r3, [r3]
 1333 0066 7A68     		ldr	r2, [r7, #4]
 1334 0068 D31A     		subs	r3, r2, r3
 1335 006a 534A     		ldr	r2, .L70+28
 1336 006c 1360     		str	r3, [r2]
 381:L6470.c       ****                     if(is_X_Step_Correct(No_of_X_Cycle))
 1337              		.loc 1 381 0
 1338 006e 504B     		ldr	r3, .L70+20
 1339 0070 1B68     		ldr	r3, [r3]
 1340 0072 1846     		mov	r0, r3
 1341 0074 FFF7FEFF 		bl	is_X_Step_Correct
 1342 0078 0346     		mov	r3, r0
 1343 007a 002B     		cmp	r3, #0
 1344 007c 5FD0     		beq	.L69
 382:L6470.c       ****                     {
 383:L6470.c       ****                         if (Position_X_Move > 0)                      // check if movment will be i
 1345              		.loc 1 383 0
 1346 007e 4E4B     		ldr	r3, .L70+28
 1347 0080 1B68     		ldr	r3, [r3]
 1348 0082 002B     		cmp	r3, #0
 1349 0084 05DD     		ble	.L58
 384:L6470.c       ****                             Move(REV, (Position_X_Move));
 1350              		.loc 1 384 0
 1351 0086 4C4B     		ldr	r3, .L70+28
 1352 0088 1B68     		ldr	r3, [r3]
 1353 008a 1946     		mov	r1, r3
 1354 008c 0020     		movs	r0, #0
 1355 008e FFF7FEFF 		bl	Move
 1356              	.L58:
 385:L6470.c       ****                         if (Position_X_Move < 0)                      // check if movment will be i
 1357              		.loc 1 385 0
 1358 0092 494B     		ldr	r3, .L70+28
 1359 0094 1B68     		ldr	r3, [r3]
 1360 0096 002B     		cmp	r3, #0
 1361 0098 17DA     		bge	.L60
 386:L6470.c       ****                             Move(FWD, -(Position_X_Move));
 1362              		.loc 1 386 0
 1363 009a 474B     		ldr	r3, .L70+28
 1364 009c 1B68     		ldr	r3, [r3]
 1365 009e 5B42     		negs	r3, r3
 1366 00a0 1946     		mov	r1, r3
 1367 00a2 0120     		movs	r0, #1
 1368 00a4 FFF7FEFF 		bl	Move
 387:L6470.c       ****                         while (Pin_BusyMotorX_Read() == 0)
 1369              		.loc 1 387 0
 1370 00a8 0FE0     		b	.L60
 1371              	.L61:
 388:L6470.c       ****                         {
 389:L6470.c       ****                             check_Error('X', 'G');
 1372              		.loc 1 389 0
 1373 00aa 4721     		movs	r1, #71
 1374 00ac 5820     		movs	r0, #88
 1375 00ae FFF7FEFF 		bl	check_Error
 390:L6470.c       ****                             Read_All_Optical_Encoder();
 1376              		.loc 1 390 0
ARM GAS  C:\Users\Admin\AppData\Local\Temp\ccb10png.s 			page 34


 1377 00b2 FFF7FEFF 		bl	Read_All_Optical_Encoder
 391:L6470.c       ****                             if(X_QuadPosition > (X_Step_Limit + 100))// to avoid slide brakage, 100
 1378              		.loc 1 391 0
 1379 00b6 3F4B     		ldr	r3, .L70+24
 1380 00b8 1B68     		ldr	r3, [r3]
 1381 00ba 404A     		ldr	r2, .L70+32
 1382 00bc 9342     		cmp	r3, r2
 1383 00be 04DD     		ble	.L60
 392:L6470.c       ****                             {    
 393:L6470.c       ****                                 Reset_All_L6470_Motor();
 1384              		.loc 1 393 0
 1385 00c0 FFF7FEFF 		bl	Reset_All_L6470_Motor
 394:L6470.c       ****                                 Write_Debug_UART_Char("X_Motor_Malfunction**********[x9]  \r\n");
 1386              		.loc 1 394 0
 1387 00c4 3E48     		ldr	r0, .L70+36
 1388 00c6 FFF7FEFF 		bl	Write_Debug_UART_Char
 1389              	.L60:
 387:L6470.c       ****                         {
 1390              		.loc 1 387 0
 1391 00ca FFF7FEFF 		bl	Pin_BusyMotorX_Read
 1392 00ce 0346     		mov	r3, r0
 1393 00d0 002B     		cmp	r3, #0
 1394 00d2 EAD0     		beq	.L61
 395:L6470.c       ****                             }
 396:L6470.c       ****                         }
 397:L6470.c       ****                         Read_All_Optical_Encoder();
 1395              		.loc 1 397 0
 1396 00d4 FFF7FEFF 		bl	Read_All_Optical_Encoder
 398:L6470.c       ****                         Write_Debug_UART_Int(X_QuadPosition);
 1397              		.loc 1 398 0
 1398 00d8 364B     		ldr	r3, .L70+24
 1399 00da 1B68     		ldr	r3, [r3]
 1400 00dc 1846     		mov	r0, r3
 1401 00de FFF7FEFF 		bl	Write_Debug_UART_Int
 399:L6470.c       ****                         if(abs(Position_X_Requested - X_QuadPosition) > X_max_error)
 1402              		.loc 1 399 0
 1403 00e2 344B     		ldr	r3, .L70+24
 1404 00e4 1B68     		ldr	r3, [r3]
 1405 00e6 7A68     		ldr	r2, [r7, #4]
 1406 00e8 D31A     		subs	r3, r2, r3
 1407 00ea 002B     		cmp	r3, #0
 1408 00ec B8BF     		it	lt
 1409 00ee 5B42     		rsblt	r3, r3, #0
 1410 00f0 B3F57A6F 		cmp	r3, #4000
 1411 00f4 07DD     		ble	.L62
 400:L6470.c       ****                         {
 401:L6470.c       ****                             Error = 2;//X_Encoder_Not_Working
 1412              		.loc 1 401 0
 1413 00f6 2A4B     		ldr	r3, .L70+4
 1414 00f8 0222     		movs	r2, #2
 1415 00fa 1A60     		str	r2, [r3]
 402:L6470.c       ****                             UART_print_all_values();
 1416              		.loc 1 402 0
 1417 00fc FFF7FEFF 		bl	UART_print_all_values
 403:L6470.c       ****                             Write_Debug_UART_Char("Either_X_Encoder_or_X_Motor_Not_Working*********
 1418              		.loc 1 403 0
 1419 0100 3048     		ldr	r0, .L70+40
ARM GAS  C:\Users\Admin\AppData\Local\Temp\ccb10png.s 			page 35


 1420 0102 FFF7FEFF 		bl	Write_Debug_UART_Char
 1421              	.L62:
 404:L6470.c       ****                         }
 405:L6470.c       ****                         X_last_position = Position_X_Requested;
 1422              		.loc 1 405 0
 1423 0106 304A     		ldr	r2, .L70+44
 1424 0108 7B68     		ldr	r3, [r7, #4]
 1425 010a 1360     		str	r3, [r2]
 406:L6470.c       ****                         if((abs(Position_X_Requested - X_QuadPosition) < X_max_error_After_Correcti
 1426              		.loc 1 406 0
 1427 010c 294B     		ldr	r3, .L70+24
 1428 010e 1B68     		ldr	r3, [r3]
 1429 0110 7A68     		ldr	r2, [r7, #4]
 1430 0112 D31A     		subs	r3, r2, r3
 1431 0114 002B     		cmp	r3, #0
 1432 0116 B8BF     		it	lt
 1433 0118 5B42     		rsblt	r3, r3, #0
 1434 011a 092B     		cmp	r3, #9
 1435 011c 10DD     		ble	.L63
 1436              		.loc 1 406 0 is_stmt 0 discriminator 1
 1437 011e 204B     		ldr	r3, .L70+4
 1438 0120 1B68     		ldr	r3, [r3]
 1439 0122 002B     		cmp	r3, #0
 1440 0124 0CD1     		bne	.L63
 377:L6470.c       ****                 {
 1441              		.loc 1 377 0 is_stmt 1 discriminator 2
 1442 0126 224B     		ldr	r3, .L70+20
 1443 0128 1B68     		ldr	r3, [r3]
 1444 012a 0133     		adds	r3, r3, #1
 1445 012c 204A     		ldr	r2, .L70+20
 1446 012e 1360     		str	r3, [r2]
 1447              	.L56:
 377:L6470.c       ****                 {
 1448              		.loc 1 377 0 is_stmt 0 discriminator 1
 1449 0130 1F4B     		ldr	r3, .L70+20
 1450 0132 1A68     		ldr	r2, [r3]
 1451 0134 254B     		ldr	r3, .L70+48
 1452 0136 1B68     		ldr	r3, [r3]
 1453 0138 9A42     		cmp	r2, r3
 1454 013a 90DB     		blt	.L65
 1455 013c 00E0     		b	.L63
 1456              	.L69:
 407:L6470.c       ****                             break;                            
 408:L6470.c       ****                     }
 409:L6470.c       ****                     else
 410:L6470.c       ****                         break;
 1457              		.loc 1 410 0 is_stmt 1
 1458 013e 00BF     		nop
 1459              	.L63:
 411:L6470.c       ****                 }
 412:L6470.c       ****                 Write_Debug_UART_Char("\r\n");
 1460              		.loc 1 412 0
 1461 0140 2348     		ldr	r0, .L70+52
 1462 0142 FFF7FEFF 		bl	Write_Debug_UART_Char
 413:L6470.c       ****                 Write_Debug_UART_Char("X Error: ");
 1463              		.loc 1 413 0
 1464 0146 2348     		ldr	r0, .L70+56
ARM GAS  C:\Users\Admin\AppData\Local\Temp\ccb10png.s 			page 36


 1465 0148 FFF7FEFF 		bl	Write_Debug_UART_Char
 414:L6470.c       ****                 Write_Debug_UART_Int(Position_X_Requested - X_QuadPosition);
 1466              		.loc 1 414 0
 1467 014c 194B     		ldr	r3, .L70+24
 1468 014e 1B68     		ldr	r3, [r3]
 1469 0150 7A68     		ldr	r2, [r7, #4]
 1470 0152 D31A     		subs	r3, r2, r3
 1471 0154 1846     		mov	r0, r3
 1472 0156 FFF7FEFF 		bl	Write_Debug_UART_Int
 415:L6470.c       ****                 Write_Debug_UART_Char("\r\n");
 1473              		.loc 1 415 0
 1474 015a 1D48     		ldr	r0, .L70+52
 1475 015c FFF7FEFF 		bl	Write_Debug_UART_Char
 1476 0160 0FE0     		b	.L67
 1477              	.L54:
 416:L6470.c       ****             }
 417:L6470.c       ****         }
 418:L6470.c       ****         else
 419:L6470.c       ****             Error = check_Error('Z','G');
 1478              		.loc 1 419 0
 1479 0162 4721     		movs	r1, #71
 1480 0164 5A20     		movs	r0, #90
 1481 0166 FFF7FEFF 		bl	check_Error
 1482 016a 0246     		mov	r2, r0
 1483 016c 0C4B     		ldr	r3, .L70+4
 1484 016e 1A60     		str	r2, [r3]
 1485 0170 07E0     		b	.L67
 1486              	.L53:
 420:L6470.c       ****     }
 421:L6470.c       ****     else
 422:L6470.c       ****     {
 423:L6470.c       ****         Error = 5;//Requested_X_Step_Exceeding_The_Limit
 1487              		.loc 1 423 0
 1488 0172 0B4B     		ldr	r3, .L70+4
 1489 0174 0522     		movs	r2, #5
 1490 0176 1A60     		str	r2, [r3]
 424:L6470.c       ****         Write_Debug_UART_Char("Requested_X_Step_Exceeding_The_Limit***********[x8]  \r\n");
 1491              		.loc 1 424 0
 1492 0178 1748     		ldr	r0, .L70+60
 1493 017a FFF7FEFF 		bl	Write_Debug_UART_Char
 425:L6470.c       ****         UART_print_all_values();
 1494              		.loc 1 425 0
 1495 017e FFF7FEFF 		bl	UART_print_all_values
 1496              	.L67:
 426:L6470.c       ****     }
 427:L6470.c       ****     //Timeout_Stop();
 428:L6470.c       ****     Buffer_X_QuadPosition = X_QuadPosition;
 1497              		.loc 1 428 0
 1498 0182 0C4B     		ldr	r3, .L70+24
 1499 0184 1B68     		ldr	r3, [r3]
 1500 0186 054A     		ldr	r2, .L70
 1501 0188 1360     		str	r3, [r2]
 429:L6470.c       ****     disconnect_all_motor();
 1502              		.loc 1 429 0
 1503 018a FFF7FEFF 		bl	disconnect_all_motor
 430:L6470.c       ****     return Error;
 1504              		.loc 1 430 0
ARM GAS  C:\Users\Admin\AppData\Local\Temp\ccb10png.s 			page 37


 1505 018e 044B     		ldr	r3, .L70+4
 1506 0190 1B68     		ldr	r3, [r3]
 431:L6470.c       **** }
 1507              		.loc 1 431 0
 1508 0192 1846     		mov	r0, r3
 1509 0194 0837     		adds	r7, r7, #8
 1510              		.cfi_def_cfa_offset 8
 1511 0196 BD46     		mov	sp, r7
 1512              		.cfi_def_cfa_register 13
 1513              		@ sp needed
 1514 0198 80BD     		pop	{r7, pc}
 1515              	.L71:
 1516 019a 00BF     		.align	2
 1517              	.L70:
 1518 019c 00000000 		.word	Buffer_X_QuadPosition
 1519 01a0 00000000 		.word	Error
 1520 01a4 FC020000 		.word	.LC22
 1521 01a8 18030000 		.word	.LC23
 1522 01ac 10EB0900 		.word	650000
 1523 01b0 00000000 		.word	No_of_X_Cycle
 1524 01b4 00000000 		.word	X_QuadPosition
 1525 01b8 00000000 		.word	Position_X_Move
 1526 01bc 74EB0900 		.word	650100
 1527 01c0 20030000 		.word	.LC24
 1528 01c4 48030000 		.word	.LC25
 1529 01c8 00000000 		.word	X_last_position
 1530 01cc 00000000 		.word	step_correction_loop_x
 1531 01d0 84030000 		.word	.LC26
 1532 01d4 88030000 		.word	.LC27
 1533 01d8 94030000 		.word	.LC28
 1534              		.cfi_endproc
 1535              	.LFE67:
 1536              		.size	goTo_X, .-goTo_X
 1537              		.section	.rodata
 1538              		.align	2
 1539              	.LC29:
 1540 03cc 476F746F 		.ascii	"GotoY Command Recived--->\000"
 1540      5920436F 
 1540      6D6D616E 
 1540      64205265 
 1540      63697665 
 1541 03e6 0000     		.align	2
 1542              	.LC30:
 1543 03e8 595F4D6F 		.ascii	"Y_Motor_Malfunction**********[y9]  \015\012\000"
 1543      746F725F 
 1543      4D616C66 
 1543      756E6374 
 1543      696F6E2A 
 1544 040e 0000     		.align	2
 1545              	.LC31:
 1546 0410 45697468 		.ascii	"Either_Y_Encoder_or_Y_Motor_Not_Working***********["
 1546      65725F59 
 1546      5F456E63 
 1546      6F646572 
 1546      5F6F725F 
 1547 0443 79365D20 		.ascii	"y6]  \015\012\000"
 1547      200D0A00 
ARM GAS  C:\Users\Admin\AppData\Local\Temp\ccb10png.s 			page 38


 1548 044b 00       		.align	2
 1549              	.LC32:
 1550 044c 59204572 		.ascii	"Y Error: \000"
 1550      726F723A 
 1550      2000
 1551 0456 0000     		.align	2
 1552              	.LC33:
 1553 0458 52657175 		.ascii	"Requested_Y_Step_Exceeding_The_Limit***********[y7]"
 1553      65737465 
 1553      645F595F 
 1553      53746570 
 1553      5F457863 
 1554 048b 20200D0A 		.ascii	"  \015\012\000"
 1554      00
 1555              		.section	.text.goTo_Y,"ax",%progbits
 1556              		.align	2
 1557              		.global	goTo_Y
 1558              		.thumb
 1559              		.thumb_func
 1560              		.type	goTo_Y, %function
 1561              	goTo_Y:
 1562              	.LFB68:
 432:L6470.c       **** int goTo_Y(int32 Position_Y_Requested)
 433:L6470.c       **** {   
 1563              		.loc 1 433 0
 1564              		.cfi_startproc
 1565              		@ args = 0, pretend = 0, frame = 8
 1566              		@ frame_needed = 1, uses_anonymous_args = 0
 1567 0000 80B5     		push	{r7, lr}
 1568              		.cfi_def_cfa_offset 8
 1569              		.cfi_offset 7, -8
 1570              		.cfi_offset 14, -4
 1571 0002 82B0     		sub	sp, sp, #8
 1572              		.cfi_def_cfa_offset 16
 1573 0004 00AF     		add	r7, sp, #0
 1574              		.cfi_def_cfa_register 7
 1575 0006 7860     		str	r0, [r7, #4]
 434:L6470.c       ****     Enable_Encoder_Y(-Buffer_Y_QuadPosition);
 1576              		.loc 1 434 0
 1577 0008 694B     		ldr	r3, .L90
 1578 000a 1B68     		ldr	r3, [r3]
 1579 000c 5B42     		negs	r3, r3
 1580 000e 1846     		mov	r0, r3
 1581 0010 FFF7FEFF 		bl	Enable_Encoder_Y
 435:L6470.c       ****     Error = 0;
 1582              		.loc 1 435 0
 1583 0014 674B     		ldr	r3, .L90+4
 1584 0016 0022     		movs	r2, #0
 1585 0018 1A60     		str	r2, [r3]
 436:L6470.c       ****     Write_Debug_UART_Char("GotoY Command Recived--->");
 1586              		.loc 1 436 0
 1587 001a 6748     		ldr	r0, .L90+8
 1588 001c FFF7FEFF 		bl	Write_Debug_UART_Char
 437:L6470.c       ****     Position_Y_Requested = (int)Position_Y_Requested;
 438:L6470.c       ****     Write_Debug_UART_Int(Position_Y_Requested);
 1589              		.loc 1 438 0
 1590 0020 7868     		ldr	r0, [r7, #4]
ARM GAS  C:\Users\Admin\AppData\Local\Temp\ccb10png.s 			page 39


 1591 0022 FFF7FEFF 		bl	Write_Debug_UART_Int
 439:L6470.c       ****     Write_Debug_UART_Char("  \r\n");
 1592              		.loc 1 439 0
 1593 0026 6548     		ldr	r0, .L90+12
 1594 0028 FFF7FEFF 		bl	Write_Debug_UART_Char
 440:L6470.c       ****     if(Position_Y_Requested <= Y_Step_Limit)
 1595              		.loc 1 440 0
 1596 002c 7B68     		ldr	r3, [r7, #4]
 1597 002e 644A     		ldr	r2, .L90+16
 1598 0030 9342     		cmp	r3, r2
 1599 0032 00F3A880 		bgt	.L73
 441:L6470.c       ****     {
 442:L6470.c       ****         Configure_L6470_For_Y_Motor();
 1600              		.loc 1 442 0
 1601 0036 FFF7FEFF 		bl	Configure_L6470_For_Y_Motor
 443:L6470.c       ****         if(check_Error('Y','G') == 0)
 1602              		.loc 1 443 0
 1603 003a 4721     		movs	r1, #71
 1604 003c 5920     		movs	r0, #89
 1605 003e FFF7FEFF 		bl	check_Error
 1606 0042 0346     		mov	r3, r0
 1607 0044 002B     		cmp	r3, #0
 1608 0046 40F09680 		bne	.L74
 444:L6470.c       ****         {
 445:L6470.c       ****             if(if_all_homing_done())
 1609              		.loc 1 445 0
 1610 004a FFF7FEFF 		bl	if_all_homing_done
 1611 004e 0346     		mov	r3, r0
 1612 0050 002B     		cmp	r3, #0
 1613 0052 00F0A080 		beq	.L87
 446:L6470.c       ****             {
 447:L6470.c       ****                 for(No_of_Y_Cycle=0;No_of_Y_Cycle < step_correction_loop_y;No_of_Y_Cycle++)
 1614              		.loc 1 447 0
 1615 0056 5B4B     		ldr	r3, .L90+20
 1616 0058 0022     		movs	r2, #0
 1617 005a 1A60     		str	r2, [r3]
 1618 005c 72E0     		b	.L76
 1619              	.L85:
 448:L6470.c       ****                 {
 449:L6470.c       ****                     Read_All_Optical_Encoder();
 1620              		.loc 1 449 0
 1621 005e FFF7FEFF 		bl	Read_All_Optical_Encoder
 450:L6470.c       ****                     Position_Y_Move = Position_Y_Requested - Y_QuadPosition;
 1622              		.loc 1 450 0
 1623 0062 594B     		ldr	r3, .L90+24
 1624 0064 1B68     		ldr	r3, [r3]
 1625 0066 7A68     		ldr	r2, [r7, #4]
 1626 0068 D31A     		subs	r3, r2, r3
 1627 006a 584A     		ldr	r2, .L90+28
 1628 006c 1360     		str	r3, [r2]
 451:L6470.c       ****                     if(is_Y_Step_Correct(No_of_Y_Cycle))
 1629              		.loc 1 451 0
 1630 006e 554B     		ldr	r3, .L90+20
 1631 0070 1B68     		ldr	r3, [r3]
 1632 0072 1846     		mov	r0, r3
 1633 0074 FFF7FEFF 		bl	is_Y_Step_Correct
 1634 0078 0346     		mov	r3, r0
ARM GAS  C:\Users\Admin\AppData\Local\Temp\ccb10png.s 			page 40


 1635 007a 002B     		cmp	r3, #0
 1636 007c 69D0     		beq	.L89
 452:L6470.c       ****                     {
 453:L6470.c       ****                         if (Position_Y_Move > 0)                       // check if movment will be 
 1637              		.loc 1 453 0
 1638 007e 534B     		ldr	r3, .L90+28
 1639 0080 1B68     		ldr	r3, [r3]
 1640 0082 002B     		cmp	r3, #0
 1641 0084 05DD     		ble	.L78
 454:L6470.c       ****                             Move(FWD, Position_Y_Move);
 1642              		.loc 1 454 0
 1643 0086 514B     		ldr	r3, .L90+28
 1644 0088 1B68     		ldr	r3, [r3]
 1645 008a 1946     		mov	r1, r3
 1646 008c 0120     		movs	r0, #1
 1647 008e FFF7FEFF 		bl	Move
 1648              	.L78:
 455:L6470.c       ****                         if (Position_Y_Move < 0)                       // check if movment will be 
 1649              		.loc 1 455 0
 1650 0092 4E4B     		ldr	r3, .L90+28
 1651 0094 1B68     		ldr	r3, [r3]
 1652 0096 002B     		cmp	r3, #0
 1653 0098 17DA     		bge	.L80
 456:L6470.c       ****                             Move(REV, -(Position_Y_Move));
 1654              		.loc 1 456 0
 1655 009a 4C4B     		ldr	r3, .L90+28
 1656 009c 1B68     		ldr	r3, [r3]
 1657 009e 5B42     		negs	r3, r3
 1658 00a0 1946     		mov	r1, r3
 1659 00a2 0020     		movs	r0, #0
 1660 00a4 FFF7FEFF 		bl	Move
 457:L6470.c       ****                         while (Pin_BusyMotorY_Read() == 0)
 1661              		.loc 1 457 0
 1662 00a8 0FE0     		b	.L80
 1663              	.L81:
 458:L6470.c       ****                         {
 459:L6470.c       ****                             check_Error('Y','G');
 1664              		.loc 1 459 0
 1665 00aa 4721     		movs	r1, #71
 1666 00ac 5920     		movs	r0, #89
 1667 00ae FFF7FEFF 		bl	check_Error
 460:L6470.c       ****                             Read_All_Optical_Encoder();
 1668              		.loc 1 460 0
 1669 00b2 FFF7FEFF 		bl	Read_All_Optical_Encoder
 461:L6470.c       ****                             if(Y_QuadPosition > (Y_Step_Limit + 100))// to avoid slide brakage, 100
 1670              		.loc 1 461 0
 1671 00b6 444B     		ldr	r3, .L90+24
 1672 00b8 1B68     		ldr	r3, [r3]
 1673 00ba 454A     		ldr	r2, .L90+32
 1674 00bc 9342     		cmp	r3, r2
 1675 00be 04DD     		ble	.L80
 462:L6470.c       ****                             {    
 463:L6470.c       ****                                 Reset_All_L6470_Motor();
 1676              		.loc 1 463 0
 1677 00c0 FFF7FEFF 		bl	Reset_All_L6470_Motor
 464:L6470.c       ****                                 Write_Debug_UART_Char("Y_Motor_Malfunction**********[y9]  \r\n");
 1678              		.loc 1 464 0
ARM GAS  C:\Users\Admin\AppData\Local\Temp\ccb10png.s 			page 41


 1679 00c4 4348     		ldr	r0, .L90+36
 1680 00c6 FFF7FEFF 		bl	Write_Debug_UART_Char
 1681              	.L80:
 457:L6470.c       ****                         {
 1682              		.loc 1 457 0
 1683 00ca FFF7FEFF 		bl	Pin_BusyMotorY_Read
 1684 00ce 0346     		mov	r3, r0
 1685 00d0 002B     		cmp	r3, #0
 1686 00d2 EAD0     		beq	.L81
 465:L6470.c       ****                             }
 466:L6470.c       ****                         }
 467:L6470.c       ****                         Read_All_Optical_Encoder();
 1687              		.loc 1 467 0
 1688 00d4 FFF7FEFF 		bl	Read_All_Optical_Encoder
 468:L6470.c       ****                         Write_Debug_UART_Int(Y_QuadPosition);
 1689              		.loc 1 468 0
 1690 00d8 3B4B     		ldr	r3, .L90+24
 1691 00da 1B68     		ldr	r3, [r3]
 1692 00dc 1846     		mov	r0, r3
 1693 00de FFF7FEFF 		bl	Write_Debug_UART_Int
 469:L6470.c       ****                         if(abs(Position_Y_Requested - Y_QuadPosition) > Y_max_error)
 1694              		.loc 1 469 0
 1695 00e2 394B     		ldr	r3, .L90+24
 1696 00e4 1B68     		ldr	r3, [r3]
 1697 00e6 7A68     		ldr	r2, [r7, #4]
 1698 00e8 D31A     		subs	r3, r2, r3
 1699 00ea 002B     		cmp	r3, #0
 1700 00ec B8BF     		it	lt
 1701 00ee 5B42     		rsblt	r3, r3, #0
 1702 00f0 B3F57A6F 		cmp	r3, #4000
 1703 00f4 07DD     		ble	.L82
 470:L6470.c       ****                         {
 471:L6470.c       ****                             Error = 8;//Y_Encoder_Not_Working;
 1704              		.loc 1 471 0
 1705 00f6 2F4B     		ldr	r3, .L90+4
 1706 00f8 0822     		movs	r2, #8
 1707 00fa 1A60     		str	r2, [r3]
 472:L6470.c       ****                             Write_Debug_UART_Char("Either_Y_Encoder_or_Y_Motor_Not_Working*********
 1708              		.loc 1 472 0
 1709 00fc 3648     		ldr	r0, .L90+40
 1710 00fe FFF7FEFF 		bl	Write_Debug_UART_Char
 473:L6470.c       ****                             UART_print_all_values();
 1711              		.loc 1 473 0
 1712 0102 FFF7FEFF 		bl	UART_print_all_values
 1713              	.L82:
 474:L6470.c       ****                         }
 475:L6470.c       ****                         Y_last_position = Position_Y_Requested;
 1714              		.loc 1 475 0
 1715 0106 354A     		ldr	r2, .L90+44
 1716 0108 7B68     		ldr	r3, [r7, #4]
 1717 010a 1360     		str	r3, [r2]
 476:L6470.c       ****                         if(((abs(Position_Y_Requested-Y_QuadPosition)<Y_max_error_After_Correction)
 1718              		.loc 1 476 0
 1719 010c 2E4B     		ldr	r3, .L90+24
 1720 010e 1B68     		ldr	r3, [r3]
 1721 0110 7A68     		ldr	r2, [r7, #4]
 1722 0112 D31A     		subs	r3, r2, r3
ARM GAS  C:\Users\Admin\AppData\Local\Temp\ccb10png.s 			page 42


 1723 0114 002B     		cmp	r3, #0
 1724 0116 B8BF     		it	lt
 1725 0118 5B42     		rsblt	r3, r3, #0
 1726 011a 092B     		cmp	r3, #9
 1727 011c 1ADD     		ble	.L83
 1728              		.loc 1 476 0 is_stmt 0 discriminator 1
 1729 011e 254B     		ldr	r3, .L90+4
 1730 0120 1B68     		ldr	r3, [r3]
 1731 0122 002B     		cmp	r3, #0
 1732 0124 16D1     		bne	.L83
 1733              		.loc 1 476 0 discriminator 2
 1734 0126 284B     		ldr	r3, .L90+24
 1735 0128 1B68     		ldr	r3, [r3]
 1736 012a 7A68     		ldr	r2, [r7, #4]
 1737 012c D31A     		subs	r3, r2, r3
 1738 012e 002B     		cmp	r3, #0
 1739 0130 B8BF     		it	lt
 1740 0132 5B42     		rsblt	r3, r3, #0
 1741 0134 B3F57A6F 		cmp	r3, #4000
 1742 0138 0CDC     		bgt	.L83
 447:L6470.c       ****                 {
 1743              		.loc 1 447 0 is_stmt 1 discriminator 2
 1744 013a 224B     		ldr	r3, .L90+20
 1745 013c 1B68     		ldr	r3, [r3]
 1746 013e 0133     		adds	r3, r3, #1
 1747 0140 204A     		ldr	r2, .L90+20
 1748 0142 1360     		str	r3, [r2]
 1749              	.L76:
 447:L6470.c       ****                 {
 1750              		.loc 1 447 0 is_stmt 0 discriminator 1
 1751 0144 1F4B     		ldr	r3, .L90+20
 1752 0146 1A68     		ldr	r2, [r3]
 1753 0148 254B     		ldr	r3, .L90+48
 1754 014a 1B68     		ldr	r3, [r3]
 1755 014c 9A42     		cmp	r2, r3
 1756 014e 86DB     		blt	.L85
 1757 0150 00E0     		b	.L83
 1758              	.L89:
 477:L6470.c       ****                             break;  
 478:L6470.c       ****                     }
 479:L6470.c       ****                     else
 480:L6470.c       ****                         break;
 1759              		.loc 1 480 0 is_stmt 1
 1760 0152 00BF     		nop
 1761              	.L83:
 481:L6470.c       ****                 }
 482:L6470.c       ****                 Write_Debug_UART_Char("\r\n");
 1762              		.loc 1 482 0
 1763 0154 2348     		ldr	r0, .L90+52
 1764 0156 FFF7FEFF 		bl	Write_Debug_UART_Char
 483:L6470.c       ****                 Write_Debug_UART_Char("Y Error: ");
 1765              		.loc 1 483 0
 1766 015a 2348     		ldr	r0, .L90+56
 1767 015c FFF7FEFF 		bl	Write_Debug_UART_Char
 484:L6470.c       ****                 Write_Debug_UART_Int(Position_Y_Requested-Y_QuadPosition);
 1768              		.loc 1 484 0
 1769 0160 194B     		ldr	r3, .L90+24
ARM GAS  C:\Users\Admin\AppData\Local\Temp\ccb10png.s 			page 43


 1770 0162 1B68     		ldr	r3, [r3]
 1771 0164 7A68     		ldr	r2, [r7, #4]
 1772 0166 D31A     		subs	r3, r2, r3
 1773 0168 1846     		mov	r0, r3
 1774 016a FFF7FEFF 		bl	Write_Debug_UART_Int
 485:L6470.c       ****                 Write_Debug_UART_Char("\r\n");
 1775              		.loc 1 485 0
 1776 016e 1D48     		ldr	r0, .L90+52
 1777 0170 FFF7FEFF 		bl	Write_Debug_UART_Char
 1778 0174 0FE0     		b	.L87
 1779              	.L74:
 486:L6470.c       ****             }
 487:L6470.c       ****         }
 488:L6470.c       ****         else
 489:L6470.c       ****             Error = check_Error('Y','G');
 1780              		.loc 1 489 0
 1781 0176 4721     		movs	r1, #71
 1782 0178 5920     		movs	r0, #89
 1783 017a FFF7FEFF 		bl	check_Error
 1784 017e 0246     		mov	r2, r0
 1785 0180 0C4B     		ldr	r3, .L90+4
 1786 0182 1A60     		str	r2, [r3]
 1787 0184 07E0     		b	.L87
 1788              	.L73:
 490:L6470.c       ****     }
 491:L6470.c       ****     else
 492:L6470.c       ****     {
 493:L6470.c       ****         Error = 11;//Requested_Y_Step_Exceeding_The_Limit
 1789              		.loc 1 493 0
 1790 0186 0B4B     		ldr	r3, .L90+4
 1791 0188 0B22     		movs	r2, #11
 1792 018a 1A60     		str	r2, [r3]
 494:L6470.c       ****         Write_Debug_UART_Char("Requested_Y_Step_Exceeding_The_Limit***********[y7]  \r\n");
 1793              		.loc 1 494 0
 1794 018c 1748     		ldr	r0, .L90+60
 1795 018e FFF7FEFF 		bl	Write_Debug_UART_Char
 495:L6470.c       ****         UART_print_all_values();
 1796              		.loc 1 495 0
 1797 0192 FFF7FEFF 		bl	UART_print_all_values
 1798              	.L87:
 496:L6470.c       ****     }
 497:L6470.c       ****     //Timeout_Stop();
 498:L6470.c       ****     disconnect_all_motor();
 1799              		.loc 1 498 0
 1800 0196 FFF7FEFF 		bl	disconnect_all_motor
 499:L6470.c       ****     Buffer_Y_QuadPosition = Y_QuadPosition;
 1801              		.loc 1 499 0
 1802 019a 0B4B     		ldr	r3, .L90+24
 1803 019c 1B68     		ldr	r3, [r3]
 1804 019e 044A     		ldr	r2, .L90
 1805 01a0 1360     		str	r3, [r2]
 500:L6470.c       ****     return Error;
 1806              		.loc 1 500 0
 1807 01a2 044B     		ldr	r3, .L90+4
 1808 01a4 1B68     		ldr	r3, [r3]
 501:L6470.c       **** }
 1809              		.loc 1 501 0
ARM GAS  C:\Users\Admin\AppData\Local\Temp\ccb10png.s 			page 44


 1810 01a6 1846     		mov	r0, r3
 1811 01a8 0837     		adds	r7, r7, #8
 1812              		.cfi_def_cfa_offset 8
 1813 01aa BD46     		mov	sp, r7
 1814              		.cfi_def_cfa_register 13
 1815              		@ sp needed
 1816 01ac 80BD     		pop	{r7, pc}
 1817              	.L91:
 1818 01ae 00BF     		.align	2
 1819              	.L90:
 1820 01b0 00000000 		.word	Buffer_Y_QuadPosition
 1821 01b4 00000000 		.word	Error
 1822 01b8 CC030000 		.word	.LC29
 1823 01bc 18030000 		.word	.LC23
 1824 01c0 A0680600 		.word	420000
 1825 01c4 00000000 		.word	No_of_Y_Cycle
 1826 01c8 00000000 		.word	Y_QuadPosition
 1827 01cc 00000000 		.word	Position_Y_Move
 1828 01d0 04690600 		.word	420100
 1829 01d4 E8030000 		.word	.LC30
 1830 01d8 10040000 		.word	.LC31
 1831 01dc 00000000 		.word	Y_last_position
 1832 01e0 00000000 		.word	step_correction_loop_y
 1833 01e4 84030000 		.word	.LC26
 1834 01e8 4C040000 		.word	.LC32
 1835 01ec 58040000 		.word	.LC33
 1836              		.cfi_endproc
 1837              	.LFE68:
 1838              		.size	goTo_Y, .-goTo_Y
 1839              		.section	.rodata
 1840              		.align	2
 1841              	.LC34:
 1842 0490 476F746F 		.ascii	"GotoZ Command Recived--->\000"
 1842      5A20436F 
 1842      6D6D616E 
 1842      64205265 
 1842      63697665 
 1843 04aa 0000     		.align	2
 1844              	.LC35:
 1845 04ac 5A5F4D6F 		.ascii	"Z_Motor_Malfunction**********[z9]  \015\012\000"
 1845      746F725F 
 1845      4D616C66 
 1845      756E6374 
 1845      696F6E2A 
 1846 04d2 0000     		.align	2
 1847              	.LC36:
 1848 04d4 45697468 		.ascii	"Either_Z_Encoder_or_Z_Motor_Not_Working**********[z"
 1848      65725F5A 
 1848      5F456E63 
 1848      6F646572 
 1848      5F6F725F 
 1849 0507 365D2020 		.ascii	"6]  \015\012\000"
 1849      0D0A00
 1850 050e 0000     		.align	2
 1851              	.LC37:
 1852 0510 5A204572 		.ascii	"Z Error: \000"
 1852      726F723A 
ARM GAS  C:\Users\Admin\AppData\Local\Temp\ccb10png.s 			page 45


 1852      2000
 1853 051a 0000     		.align	2
 1854              	.LC38:
 1855 051c 52657175 		.ascii	"Requested_Z_Step_Exceeding_The_Limit***********[z7]"
 1855      65737465 
 1855      645F5A5F 
 1855      53746570 
 1855      5F457863 
 1856 054f 200D0A00 		.ascii	" \015\012\000"
 1857              		.section	.text.goTo_Z,"ax",%progbits
 1858              		.align	2
 1859              		.global	goTo_Z
 1860              		.thumb
 1861              		.thumb_func
 1862              		.type	goTo_Z, %function
 1863              	goTo_Z:
 1864              	.LFB69:
 502:L6470.c       **** int goTo_Z(int32 Position_Z_Requested)
 503:L6470.c       **** {
 1865              		.loc 1 503 0
 1866              		.cfi_startproc
 1867              		@ args = 0, pretend = 0, frame = 8
 1868              		@ frame_needed = 1, uses_anonymous_args = 0
 1869 0000 80B5     		push	{r7, lr}
 1870              		.cfi_def_cfa_offset 8
 1871              		.cfi_offset 7, -8
 1872              		.cfi_offset 14, -4
 1873 0002 82B0     		sub	sp, sp, #8
 1874              		.cfi_def_cfa_offset 16
 1875 0004 00AF     		add	r7, sp, #0
 1876              		.cfi_def_cfa_register 7
 1877 0006 7860     		str	r0, [r7, #4]
 504:L6470.c       ****     Error = 0;
 1878              		.loc 1 504 0
 1879 0008 664B     		ldr	r3, .L110
 1880 000a 0022     		movs	r2, #0
 1881 000c 1A60     		str	r2, [r3]
 505:L6470.c       ****     Write_Debug_UART_Char("GotoZ Command Recived--->");
 1882              		.loc 1 505 0
 1883 000e 6648     		ldr	r0, .L110+4
 1884 0010 FFF7FEFF 		bl	Write_Debug_UART_Char
 506:L6470.c       ****     Position_Z_Requested = (int)Position_Z_Requested;
 507:L6470.c       ****     Write_Debug_UART_Int(Position_Z_Requested);
 1885              		.loc 1 507 0
 1886 0014 7868     		ldr	r0, [r7, #4]
 1887 0016 FFF7FEFF 		bl	Write_Debug_UART_Int
 508:L6470.c       ****     Write_Debug_UART_Char("  \r\n");
 1888              		.loc 1 508 0
 1889 001a 6448     		ldr	r0, .L110+8
 1890 001c FFF7FEFF 		bl	Write_Debug_UART_Char
 509:L6470.c       ****     Read_All_Optical_Encoder();
 1891              		.loc 1 509 0
 1892 0020 FFF7FEFF 		bl	Read_All_Optical_Encoder
 510:L6470.c       ****     if(Position_Z_Requested <= Z_Step_Limit)
 1893              		.loc 1 510 0
 1894 0024 7B68     		ldr	r3, [r7, #4]
 1895 0026 4DF6C022 		movw	r2, #56000
ARM GAS  C:\Users\Admin\AppData\Local\Temp\ccb10png.s 			page 46


 1896 002a 9342     		cmp	r3, r2
 1897 002c 00F3A980 		bgt	.L93
 511:L6470.c       ****     {
 512:L6470.c       ****         Configure_L6470_For_Z_Motor();
 1898              		.loc 1 512 0
 1899 0030 FFF7FEFF 		bl	Configure_L6470_For_Z_Motor
 513:L6470.c       ****         if(check_Error('Z','G') == 0)
 1900              		.loc 1 513 0
 1901 0034 4721     		movs	r1, #71
 1902 0036 5A20     		movs	r0, #90
 1903 0038 FFF7FEFF 		bl	check_Error
 1904 003c 0346     		mov	r3, r0
 1905 003e 002B     		cmp	r3, #0
 1906 0040 40F09780 		bne	.L94
 514:L6470.c       ****         {
 515:L6470.c       ****             if(if_all_homing_done())
 1907              		.loc 1 515 0
 1908 0044 FFF7FEFF 		bl	if_all_homing_done
 1909 0048 0346     		mov	r3, r0
 1910 004a 002B     		cmp	r3, #0
 1911 004c 00F0A180 		beq	.L107
 516:L6470.c       ****             {
 517:L6470.c       ****                 for(No_of_Z_Cycle=0; No_of_Z_Cycle < step_correction_loop_z; No_of_Z_Cycle++)//for 
 1912              		.loc 1 517 0
 1913 0050 574B     		ldr	r3, .L110+12
 1914 0052 0022     		movs	r2, #0
 1915 0054 1A60     		str	r2, [r3]
 1916 0056 73E0     		b	.L96
 1917              	.L105:
 518:L6470.c       ****                 {
 519:L6470.c       ****                     Read_All_Optical_Encoder();
 1918              		.loc 1 519 0
 1919 0058 FFF7FEFF 		bl	Read_All_Optical_Encoder
 520:L6470.c       ****                     Position_Z_Move = Position_Z_Requested - Z_QuadPosition;
 1920              		.loc 1 520 0
 1921 005c 554B     		ldr	r3, .L110+16
 1922 005e 1B68     		ldr	r3, [r3]
 1923 0060 7A68     		ldr	r2, [r7, #4]
 1924 0062 D31A     		subs	r3, r2, r3
 1925 0064 544A     		ldr	r2, .L110+20
 1926 0066 1360     		str	r3, [r2]
 521:L6470.c       ****                     if (is_Z_Step_Correct(No_of_Z_Cycle))
 1927              		.loc 1 521 0
 1928 0068 514B     		ldr	r3, .L110+12
 1929 006a 1B68     		ldr	r3, [r3]
 1930 006c 1846     		mov	r0, r3
 1931 006e FFF7FEFF 		bl	is_Z_Step_Correct
 1932 0072 0346     		mov	r3, r0
 1933 0074 002B     		cmp	r3, #0
 1934 0076 6AD0     		beq	.L109
 522:L6470.c       ****                     {
 523:L6470.c       ****                         if (Position_Z_Move > 0)                  // check if movment will be in in
 1935              		.loc 1 523 0
 1936 0078 4F4B     		ldr	r3, .L110+20
 1937 007a 1B68     		ldr	r3, [r3]
 1938 007c 002B     		cmp	r3, #0
 1939 007e 05DD     		ble	.L98
ARM GAS  C:\Users\Admin\AppData\Local\Temp\ccb10png.s 			page 47


 524:L6470.c       ****                             Move(FWD, Position_Z_Move);
 1940              		.loc 1 524 0
 1941 0080 4D4B     		ldr	r3, .L110+20
 1942 0082 1B68     		ldr	r3, [r3]
 1943 0084 1946     		mov	r1, r3
 1944 0086 0120     		movs	r0, #1
 1945 0088 FFF7FEFF 		bl	Move
 1946              	.L98:
 525:L6470.c       ****                         if (Position_Z_Move < 0)
 1947              		.loc 1 525 0
 1948 008c 4A4B     		ldr	r3, .L110+20
 1949 008e 1B68     		ldr	r3, [r3]
 1950 0090 002B     		cmp	r3, #0
 1951 0092 18DA     		bge	.L100
 526:L6470.c       ****                             Move(REV, -Position_Z_Move);
 1952              		.loc 1 526 0
 1953 0094 484B     		ldr	r3, .L110+20
 1954 0096 1B68     		ldr	r3, [r3]
 1955 0098 5B42     		negs	r3, r3
 1956 009a 1946     		mov	r1, r3
 1957 009c 0020     		movs	r0, #0
 1958 009e FFF7FEFF 		bl	Move
 527:L6470.c       ****                         while (Pin_BusyMotorZ_Read() == 0)
 1959              		.loc 1 527 0
 1960 00a2 10E0     		b	.L100
 1961              	.L101:
 528:L6470.c       ****                         {
 529:L6470.c       ****                             check_Error('Z','G');
 1962              		.loc 1 529 0
 1963 00a4 4721     		movs	r1, #71
 1964 00a6 5A20     		movs	r0, #90
 1965 00a8 FFF7FEFF 		bl	check_Error
 530:L6470.c       ****                             Read_All_Optical_Encoder();
 1966              		.loc 1 530 0
 1967 00ac FFF7FEFF 		bl	Read_All_Optical_Encoder
 531:L6470.c       ****                             if(Z_QuadPosition > (Z_Step_Limit + 100))// to avoid slide brakage, 100
 1968              		.loc 1 531 0
 1969 00b0 404B     		ldr	r3, .L110+16
 1970 00b2 1B68     		ldr	r3, [r3]
 1971 00b4 4DF62432 		movw	r2, #56100
 1972 00b8 9342     		cmp	r3, r2
 1973 00ba 04DD     		ble	.L100
 532:L6470.c       ****                             {
 533:L6470.c       ****                                 Reset_All_L6470_Motor();
 1974              		.loc 1 533 0
 1975 00bc FFF7FEFF 		bl	Reset_All_L6470_Motor
 534:L6470.c       ****                                 Write_Debug_UART_Char("Z_Motor_Malfunction**********[z9]  \r\n");  
 1976              		.loc 1 534 0
 1977 00c0 3E48     		ldr	r0, .L110+24
 1978 00c2 FFF7FEFF 		bl	Write_Debug_UART_Char
 1979              	.L100:
 527:L6470.c       ****                         {
 1980              		.loc 1 527 0
 1981 00c6 FFF7FEFF 		bl	Pin_BusyMotorZ_Read
 1982 00ca 0346     		mov	r3, r0
 1983 00cc 002B     		cmp	r3, #0
 1984 00ce E9D0     		beq	.L101
ARM GAS  C:\Users\Admin\AppData\Local\Temp\ccb10png.s 			page 48


 535:L6470.c       ****                             }
 536:L6470.c       ****                         }
 537:L6470.c       ****                         Read_All_Optical_Encoder();
 1985              		.loc 1 537 0
 1986 00d0 FFF7FEFF 		bl	Read_All_Optical_Encoder
 538:L6470.c       ****                         Write_Debug_UART_Int(Z_QuadPosition);
 1987              		.loc 1 538 0
 1988 00d4 374B     		ldr	r3, .L110+16
 1989 00d6 1B68     		ldr	r3, [r3]
 1990 00d8 1846     		mov	r0, r3
 1991 00da FFF7FEFF 		bl	Write_Debug_UART_Int
 539:L6470.c       ****                         if(abs(Position_Z_Requested - Z_QuadPosition) > Z_max_error)
 1992              		.loc 1 539 0
 1993 00de 354B     		ldr	r3, .L110+16
 1994 00e0 1B68     		ldr	r3, [r3]
 1995 00e2 7A68     		ldr	r2, [r7, #4]
 1996 00e4 D31A     		subs	r3, r2, r3
 1997 00e6 002B     		cmp	r3, #0
 1998 00e8 B8BF     		it	lt
 1999 00ea 5B42     		rsblt	r3, r3, #0
 2000 00ec B3F57A6F 		cmp	r3, #4000
 2001 00f0 07DD     		ble	.L102
 540:L6470.c       ****                         {
 541:L6470.c       ****                             Error = 14;//Z_Encoder_Not_Working
 2002              		.loc 1 541 0
 2003 00f2 2C4B     		ldr	r3, .L110
 2004 00f4 0E22     		movs	r2, #14
 2005 00f6 1A60     		str	r2, [r3]
 542:L6470.c       ****                             Write_Debug_UART_Char("Either_Z_Encoder_or_Z_Motor_Not_Working*********
 2006              		.loc 1 542 0
 2007 00f8 3148     		ldr	r0, .L110+28
 2008 00fa FFF7FEFF 		bl	Write_Debug_UART_Char
 543:L6470.c       ****                             UART_print_all_values();
 2009              		.loc 1 543 0
 2010 00fe FFF7FEFF 		bl	UART_print_all_values
 2011              	.L102:
 544:L6470.c       ****                         }
 545:L6470.c       ****                         Z_last_position = Position_Z_Requested;
 2012              		.loc 1 545 0
 2013 0102 304A     		ldr	r2, .L110+32
 2014 0104 7B68     		ldr	r3, [r7, #4]
 2015 0106 1360     		str	r3, [r2]
 546:L6470.c       ****                         if(((abs(Position_Z_Requested-Z_QuadPosition)<Z_max_error_After_Correction)
 2016              		.loc 1 546 0
 2017 0108 2A4B     		ldr	r3, .L110+16
 2018 010a 1B68     		ldr	r3, [r3]
 2019 010c 7A68     		ldr	r2, [r7, #4]
 2020 010e D31A     		subs	r3, r2, r3
 2021 0110 002B     		cmp	r3, #0
 2022 0112 B8BF     		it	lt
 2023 0114 5B42     		rsblt	r3, r3, #0
 2024 0116 042B     		cmp	r3, #4
 2025 0118 1ADD     		ble	.L103
 2026              		.loc 1 546 0 is_stmt 0 discriminator 1
 2027 011a 224B     		ldr	r3, .L110
 2028 011c 1B68     		ldr	r3, [r3]
 2029 011e 002B     		cmp	r3, #0
ARM GAS  C:\Users\Admin\AppData\Local\Temp\ccb10png.s 			page 49


 2030 0120 16D1     		bne	.L103
 2031              		.loc 1 546 0 discriminator 2
 2032 0122 244B     		ldr	r3, .L110+16
 2033 0124 1B68     		ldr	r3, [r3]
 2034 0126 7A68     		ldr	r2, [r7, #4]
 2035 0128 D31A     		subs	r3, r2, r3
 2036 012a 002B     		cmp	r3, #0
 2037 012c B8BF     		it	lt
 2038 012e 5B42     		rsblt	r3, r3, #0
 2039 0130 B3F57A6F 		cmp	r3, #4000
 2040 0134 0CDC     		bgt	.L103
 517:L6470.c       ****                 {
 2041              		.loc 1 517 0 is_stmt 1 discriminator 2
 2042 0136 1E4B     		ldr	r3, .L110+12
 2043 0138 1B68     		ldr	r3, [r3]
 2044 013a 0133     		adds	r3, r3, #1
 2045 013c 1C4A     		ldr	r2, .L110+12
 2046 013e 1360     		str	r3, [r2]
 2047              	.L96:
 517:L6470.c       ****                 {
 2048              		.loc 1 517 0 is_stmt 0 discriminator 1
 2049 0140 1B4B     		ldr	r3, .L110+12
 2050 0142 1A68     		ldr	r2, [r3]
 2051 0144 204B     		ldr	r3, .L110+36
 2052 0146 1B68     		ldr	r3, [r3]
 2053 0148 9A42     		cmp	r2, r3
 2054 014a 85DB     		blt	.L105
 2055 014c 00E0     		b	.L103
 2056              	.L109:
 547:L6470.c       ****                             break;                            
 548:L6470.c       ****                     }        
 549:L6470.c       ****                     else
 550:L6470.c       ****                         break;
 2057              		.loc 1 550 0 is_stmt 1
 2058 014e 00BF     		nop
 2059              	.L103:
 551:L6470.c       ****                 }
 552:L6470.c       ****                 Write_Debug_UART_Char("\r\n");
 2060              		.loc 1 552 0
 2061 0150 1E48     		ldr	r0, .L110+40
 2062 0152 FFF7FEFF 		bl	Write_Debug_UART_Char
 553:L6470.c       ****                 Write_Debug_UART_Char("Z Error: ");
 2063              		.loc 1 553 0
 2064 0156 1E48     		ldr	r0, .L110+44
 2065 0158 FFF7FEFF 		bl	Write_Debug_UART_Char
 554:L6470.c       ****                 Write_Debug_UART_Int(Position_Z_Requested-Z_QuadPosition);
 2066              		.loc 1 554 0
 2067 015c 154B     		ldr	r3, .L110+16
 2068 015e 1B68     		ldr	r3, [r3]
 2069 0160 7A68     		ldr	r2, [r7, #4]
 2070 0162 D31A     		subs	r3, r2, r3
 2071 0164 1846     		mov	r0, r3
 2072 0166 FFF7FEFF 		bl	Write_Debug_UART_Int
 555:L6470.c       ****                 Write_Debug_UART_Char("\r\n");
 2073              		.loc 1 555 0
 2074 016a 1848     		ldr	r0, .L110+40
 2075 016c FFF7FEFF 		bl	Write_Debug_UART_Char
ARM GAS  C:\Users\Admin\AppData\Local\Temp\ccb10png.s 			page 50


 2076 0170 0FE0     		b	.L107
 2077              	.L94:
 556:L6470.c       ****             }
 557:L6470.c       ****         }
 558:L6470.c       ****         else
 559:L6470.c       ****             Error = check_Error('Z','G');
 2078              		.loc 1 559 0
 2079 0172 4721     		movs	r1, #71
 2080 0174 5A20     		movs	r0, #90
 2081 0176 FFF7FEFF 		bl	check_Error
 2082 017a 0246     		mov	r2, r0
 2083 017c 094B     		ldr	r3, .L110
 2084 017e 1A60     		str	r2, [r3]
 2085 0180 07E0     		b	.L107
 2086              	.L93:
 560:L6470.c       ****     }
 561:L6470.c       ****     else
 562:L6470.c       ****     {
 563:L6470.c       ****         Error = 17;//Requested_Z_Step_Exceeding_The_Limit
 2087              		.loc 1 563 0
 2088 0182 084B     		ldr	r3, .L110
 2089 0184 1122     		movs	r2, #17
 2090 0186 1A60     		str	r2, [r3]
 564:L6470.c       ****         Write_Debug_UART_Char("Requested_Z_Step_Exceeding_The_Limit***********[z7] \r\n");
 2091              		.loc 1 564 0
 2092 0188 1248     		ldr	r0, .L110+48
 2093 018a FFF7FEFF 		bl	Write_Debug_UART_Char
 565:L6470.c       ****         UART_print_all_values();
 2094              		.loc 1 565 0
 2095 018e FFF7FEFF 		bl	UART_print_all_values
 2096              	.L107:
 566:L6470.c       ****     }
 567:L6470.c       ****     disconnect_all_motor();
 2097              		.loc 1 567 0
 2098 0192 FFF7FEFF 		bl	disconnect_all_motor
 568:L6470.c       ****     return Error;
 2099              		.loc 1 568 0
 2100 0196 034B     		ldr	r3, .L110
 2101 0198 1B68     		ldr	r3, [r3]
 569:L6470.c       **** }
 2102              		.loc 1 569 0
 2103 019a 1846     		mov	r0, r3
 2104 019c 0837     		adds	r7, r7, #8
 2105              		.cfi_def_cfa_offset 8
 2106 019e BD46     		mov	sp, r7
 2107              		.cfi_def_cfa_register 13
 2108              		@ sp needed
 2109 01a0 80BD     		pop	{r7, pc}
 2110              	.L111:
 2111 01a2 00BF     		.align	2
 2112              	.L110:
 2113 01a4 00000000 		.word	Error
 2114 01a8 90040000 		.word	.LC34
 2115 01ac 18030000 		.word	.LC23
 2116 01b0 00000000 		.word	No_of_Z_Cycle
 2117 01b4 00000000 		.word	Z_QuadPosition
 2118 01b8 00000000 		.word	Position_Z_Move
ARM GAS  C:\Users\Admin\AppData\Local\Temp\ccb10png.s 			page 51


 2119 01bc AC040000 		.word	.LC35
 2120 01c0 D4040000 		.word	.LC36
 2121 01c4 00000000 		.word	Z_last_position
 2122 01c8 00000000 		.word	step_correction_loop_z
 2123 01cc 84030000 		.word	.LC26
 2124 01d0 10050000 		.word	.LC37
 2125 01d4 1C050000 		.word	.LC38
 2126              		.cfi_endproc
 2127              	.LFE69:
 2128              		.size	goTo_Z, .-goTo_Z
 2129              		.section	.rodata
 2130 0553 00       		.align	2
 2131              	.LC39:
 2132 0554 4552524F 		.ascii	"ERROR Wrong Position Requested**********[x8]  \015\012"
 2132      52205772 
 2132      6F6E6720 
 2132      506F7369 
 2132      74696F6E 
 2133 0584 00       		.ascii	"\000"
 2134 0585 000000   		.align	2
 2135              	.LC40:
 2136 0588 4552524F 		.ascii	"ERROR Wrong Position Requested**********[x9]  \015\012"
 2136      52205772 
 2136      6F6E6720 
 2136      506F7369 
 2136      74696F6E 
 2137 05b8 00       		.ascii	"\000"
 2138 05b9 000000   		.align	2
 2139              	.LC41:
 2140 05bc 585F456E 		.ascii	"X_Encoder_Not_Working**********[x10]  \015\012\000"
 2140      636F6465 
 2140      725F4E6F 
 2140      745F576F 
 2140      726B696E 
 2141              		.section	.text.is_X_Step_Correct,"ax",%progbits
 2142              		.align	2
 2143              		.global	is_X_Step_Correct
 2144              		.thumb
 2145              		.thumb_func
 2146              		.type	is_X_Step_Correct, %function
 2147              	is_X_Step_Correct:
 2148              	.LFB70:
 570:L6470.c       **** bool is_X_Step_Correct(int No_of_executions)
 571:L6470.c       **** {
 2149              		.loc 1 571 0
 2150              		.cfi_startproc
 2151              		@ args = 0, pretend = 0, frame = 8
 2152              		@ frame_needed = 1, uses_anonymous_args = 0
 2153 0000 80B5     		push	{r7, lr}
 2154              		.cfi_def_cfa_offset 8
 2155              		.cfi_offset 7, -8
 2156              		.cfi_offset 14, -4
 2157 0002 82B0     		sub	sp, sp, #8
 2158              		.cfi_def_cfa_offset 16
 2159 0004 00AF     		add	r7, sp, #0
 2160              		.cfi_def_cfa_register 7
 2161 0006 7860     		str	r0, [r7, #4]
ARM GAS  C:\Users\Admin\AppData\Local\Temp\ccb10png.s 			page 52


 572:L6470.c       ****     Read_All_Optical_Encoder();
 2162              		.loc 1 572 0
 2163 0008 FFF7FEFF 		bl	Read_All_Optical_Encoder
 573:L6470.c       ****     if(X_QuadPosition > -2000)//to check if encoder connecter is floating
 2164              		.loc 1 573 0
 2165 000c 364B     		ldr	r3, .L123
 2166 000e 1B68     		ldr	r3, [r3]
 2167 0010 13F5FA6F 		cmn	r3, #2000
 2168 0014 5ADD     		ble	.L113
 574:L6470.c       ****     {
 575:L6470.c       ****         if(((Position_X_Move < X_max_error)||(No_of_executions==0))&&(((abs(X_QuadPosition - X_last
 2169              		.loc 1 575 0
 2170 0016 354B     		ldr	r3, .L123+4
 2171 0018 1B68     		ldr	r3, [r3]
 2172 001a B3F57A6F 		cmp	r3, #4000
 2173 001e 02DB     		blt	.L114
 2174              		.loc 1 575 0 is_stmt 0 discriminator 2
 2175 0020 7B68     		ldr	r3, [r7, #4]
 2176 0022 002B     		cmp	r3, #0
 2177 0024 5CD1     		bne	.L115
 2178              	.L114:
 2179              		.loc 1 575 0 discriminator 3
 2180 0026 304B     		ldr	r3, .L123
 2181 0028 1A68     		ldr	r2, [r3]
 2182 002a 314B     		ldr	r3, .L123+8
 2183 002c 1B68     		ldr	r3, [r3]
 2184 002e D31A     		subs	r3, r2, r3
 2185 0030 002B     		cmp	r3, #0
 2186 0032 B8BF     		it	lt
 2187 0034 5B42     		rsblt	r3, r3, #0
 2188 0036 B3F57A6F 		cmp	r3, #4000
 2189 003a 03DD     		ble	.L116
 2190              		.loc 1 575 0 discriminator 4
 2191 003c 2C4B     		ldr	r3, .L123+8
 2192 003e 1B68     		ldr	r3, [r3]
 2193 0040 002B     		cmp	r3, #0
 2194 0042 4DD1     		bne	.L115
 2195              	.L116:
 576:L6470.c       ****         {            
 577:L6470.c       ****             if( (Position_X_Requested < X_Step_Limit)&&(Position_X_Requested >= 0) )
 2196              		.loc 1 577 0 is_stmt 1
 2197 0044 2B4B     		ldr	r3, .L123+12
 2198 0046 1B68     		ldr	r3, [r3]
 2199 0048 2B4A     		ldr	r2, .L123+16
 2200 004a 9342     		cmp	r3, r2
 2201 004c 34DC     		bgt	.L117
 2202              		.loc 1 577 0 is_stmt 0 discriminator 1
 2203 004e 294B     		ldr	r3, .L123+12
 2204 0050 1B68     		ldr	r3, [r3]
 2205 0052 002B     		cmp	r3, #0
 2206 0054 30DB     		blt	.L117
 578:L6470.c       ****             {
 579:L6470.c       ****                 if(Y_QuadPosition < 20000)
 2207              		.loc 1 579 0 is_stmt 1
 2208 0056 294B     		ldr	r3, .L123+20
 2209 0058 1B68     		ldr	r3, [r3]
 2210 005a 44F61F62 		movw	r2, #19999
ARM GAS  C:\Users\Admin\AppData\Local\Temp\ccb10png.s 			page 53


 2211 005e 9342     		cmp	r3, r2
 2212 0060 01DC     		bgt	.L118
 580:L6470.c       ****                     return true;
 2213              		.loc 1 580 0
 2214 0062 0123     		movs	r3, #1
 2215 0064 3CE0     		b	.L112
 2216              	.L118:
 581:L6470.c       ****                 else 
 582:L6470.c       ****                 {
 583:L6470.c       ****                     if( ((X_QuadPosition > 570000)&&(Position_X_Requested > 570000)&&(Position_X_Re
 2217              		.loc 1 583 0
 2218 0066 204B     		ldr	r3, .L123
 2219 0068 1B68     		ldr	r3, [r3]
 2220 006a 254A     		ldr	r2, .L123+24
 2221 006c 9342     		cmp	r3, r2
 2222 006e 09DD     		ble	.L120
 2223              		.loc 1 583 0 is_stmt 0 discriminator 1
 2224 0070 204B     		ldr	r3, .L123+12
 2225 0072 1B68     		ldr	r3, [r3]
 2226 0074 224A     		ldr	r2, .L123+24
 2227 0076 9342     		cmp	r3, r2
 2228 0078 04DD     		ble	.L120
 2229              		.loc 1 583 0 discriminator 3
 2230 007a 1E4B     		ldr	r3, .L123+12
 2231 007c 1B68     		ldr	r3, [r3]
 2232 007e 214A     		ldr	r2, .L123+28
 2233 0080 9342     		cmp	r3, r2
 2234 0082 0DDD     		ble	.L121
 2235              	.L120:
 2236              		.loc 1 583 0 discriminator 5
 2237 0084 184B     		ldr	r3, .L123
 2238 0086 1B68     		ldr	r3, [r3]
 2239 0088 1F4A     		ldr	r2, .L123+32
 2240 008a 9342     		cmp	r3, r2
 2241 008c 0ADC     		bgt	.L122
 2242              		.loc 1 583 0 discriminator 6
 2243 008e 194B     		ldr	r3, .L123+12
 2244 0090 1B68     		ldr	r3, [r3]
 2245 0092 002B     		cmp	r3, #0
 2246 0094 06DB     		blt	.L122
 2247              		.loc 1 583 0 discriminator 7
 2248 0096 174B     		ldr	r3, .L123+12
 2249 0098 1B68     		ldr	r3, [r3]
 2250 009a 1B4A     		ldr	r2, .L123+32
 2251 009c 9342     		cmp	r3, r2
 2252 009e 01DC     		bgt	.L122
 2253              	.L121:
 584:L6470.c       ****                         return true;
 2254              		.loc 1 584 0 is_stmt 1
 2255 00a0 0123     		movs	r3, #1
 2256 00a2 1DE0     		b	.L112
 2257              	.L122:
 585:L6470.c       ****                     else
 586:L6470.c       ****                     {
 587:L6470.c       ****                         Error = 5;//Requested_X_Step_Exceeding_The_Limit
 2258              		.loc 1 587 0
 2259 00a4 194B     		ldr	r3, .L123+36
ARM GAS  C:\Users\Admin\AppData\Local\Temp\ccb10png.s 			page 54


 2260 00a6 0522     		movs	r2, #5
 2261 00a8 1A60     		str	r2, [r3]
 588:L6470.c       ****                         Write_Debug_UART_Char("ERROR Wrong Position Requested**********[x8]  \r\n")
 2262              		.loc 1 588 0
 2263 00aa 1948     		ldr	r0, .L123+40
 2264 00ac FFF7FEFF 		bl	Write_Debug_UART_Char
 589:L6470.c       ****                         UART_print_all_values();
 2265              		.loc 1 589 0
 2266 00b0 FFF7FEFF 		bl	UART_print_all_values
 590:L6470.c       ****                         return false;
 2267              		.loc 1 590 0
 2268 00b4 0023     		movs	r3, #0
 2269 00b6 13E0     		b	.L112
 2270              	.L117:
 591:L6470.c       ****                     }
 592:L6470.c       ****                 }
 593:L6470.c       ****             }
 594:L6470.c       ****             else
 595:L6470.c       ****             {
 596:L6470.c       ****                 Error = 5;//Requested_X_Step_Exceeding_The_Limit
 2271              		.loc 1 596 0
 2272 00b8 144B     		ldr	r3, .L123+36
 2273 00ba 0522     		movs	r2, #5
 2274 00bc 1A60     		str	r2, [r3]
 597:L6470.c       ****                 Write_Debug_UART_Char("ERROR Wrong Position Requested**********[x9]  \r\n");
 2275              		.loc 1 597 0
 2276 00be 1548     		ldr	r0, .L123+44
 2277 00c0 FFF7FEFF 		bl	Write_Debug_UART_Char
 598:L6470.c       ****                 UART_print_all_values();
 2278              		.loc 1 598 0
 2279 00c4 FFF7FEFF 		bl	UART_print_all_values
 599:L6470.c       ****                 return false;
 2280              		.loc 1 599 0
 2281 00c8 0023     		movs	r3, #0
 2282 00ca 09E0     		b	.L112
 2283              	.L113:
 600:L6470.c       ****             }
 601:L6470.c       ****         }
 602:L6470.c       ****     }
 603:L6470.c       ****     else
 604:L6470.c       ****     {
 605:L6470.c       ****         Error = 2;//X_Encoder_Not_Working
 2284              		.loc 1 605 0
 2285 00cc 0F4B     		ldr	r3, .L123+36
 2286 00ce 0222     		movs	r2, #2
 2287 00d0 1A60     		str	r2, [r3]
 606:L6470.c       ****         Write_Debug_UART_Char("X_Encoder_Not_Working**********[x10]  \r\n");
 2288              		.loc 1 606 0
 2289 00d2 1148     		ldr	r0, .L123+48
 2290 00d4 FFF7FEFF 		bl	Write_Debug_UART_Char
 607:L6470.c       ****         UART_print_all_values();
 2291              		.loc 1 607 0
 2292 00d8 FFF7FEFF 		bl	UART_print_all_values
 608:L6470.c       ****         return false;
 2293              		.loc 1 608 0
 2294 00dc 0023     		movs	r3, #0
 2295 00de FFE7     		b	.L112
ARM GAS  C:\Users\Admin\AppData\Local\Temp\ccb10png.s 			page 55


 2296              	.L115:
 2297              	.L112:
 609:L6470.c       ****     }
 610:L6470.c       **** }
 2298              		.loc 1 610 0
 2299 00e0 1846     		mov	r0, r3
 2300 00e2 0837     		adds	r7, r7, #8
 2301              		.cfi_def_cfa_offset 8
 2302 00e4 BD46     		mov	sp, r7
 2303              		.cfi_def_cfa_register 13
 2304              		@ sp needed
 2305 00e6 80BD     		pop	{r7, pc}
 2306              	.L124:
 2307              		.align	2
 2308              	.L123:
 2309 00e8 00000000 		.word	X_QuadPosition
 2310 00ec 00000000 		.word	Position_X_Move
 2311 00f0 00000000 		.word	X_last_position
 2312 00f4 00000000 		.word	Position_X_Requested
 2313 00f8 0FEB0900 		.word	649999
 2314 00fc 00000000 		.word	Y_QuadPosition
 2315 0100 90B20800 		.word	570000
 2316 0104 10EB0900 		.word	650000
 2317 0108 EF490200 		.word	149999
 2318 010c 00000000 		.word	Error
 2319 0110 54050000 		.word	.LC39
 2320 0114 88050000 		.word	.LC40
 2321 0118 BC050000 		.word	.LC41
 2322              		.cfi_endproc
 2323              	.LFE70:
 2324              		.size	is_X_Step_Correct, .-is_X_Step_Correct
 2325              		.global	__aeabi_i2d
 2326              		.global	__aeabi_dcmple
 2327              		.section	.rodata
 2328 05e5 000000   		.align	2
 2329              	.LC42:
 2330 05e8 4552524F 		.ascii	"ERROR Wrong Position Requested**********[y8]  \015\012"
 2330      52205772 
 2330      6F6E6720 
 2330      506F7369 
 2330      74696F6E 
 2331 0618 00       		.ascii	"\000"
 2332 0619 000000   		.align	2
 2333              	.LC43:
 2334 061c 595F456E 		.ascii	"Y_Encoder_Not_Working**********[y9]  \015\012\000"
 2334      636F6465 
 2334      725F4E6F 
 2334      745F576F 
 2334      726B696E 
 2335              		.align	2
 2336              	.LC44:
 2337 0644 595F456E 		.ascii	"Y_Encoder_Not_Working**********[y10]  \015\012\000"
 2337      636F6465 
 2337      725F4E6F 
 2337      745F576F 
 2337      726B696E 
 2338              		.section	.text.is_Y_Step_Correct,"ax",%progbits
ARM GAS  C:\Users\Admin\AppData\Local\Temp\ccb10png.s 			page 56


 2339              		.align	2
 2340              		.global	is_Y_Step_Correct
 2341              		.thumb
 2342              		.thumb_func
 2343              		.type	is_Y_Step_Correct, %function
 2344              	is_Y_Step_Correct:
 2345              	.LFB71:
 611:L6470.c       **** bool is_Y_Step_Correct(int No_of_executions)
 612:L6470.c       **** {
 2346              		.loc 1 612 0
 2347              		.cfi_startproc
 2348              		@ args = 0, pretend = 0, frame = 8
 2349              		@ frame_needed = 1, uses_anonymous_args = 0
 2350 0000 80B5     		push	{r7, lr}
 2351              		.cfi_def_cfa_offset 8
 2352              		.cfi_offset 7, -8
 2353              		.cfi_offset 14, -4
 2354 0002 82B0     		sub	sp, sp, #8
 2355              		.cfi_def_cfa_offset 16
 2356 0004 00AF     		add	r7, sp, #0
 2357              		.cfi_def_cfa_register 7
 2358 0006 7860     		str	r0, [r7, #4]
 613:L6470.c       ****     Read_All_Optical_Encoder();
 2359              		.loc 1 613 0
 2360 0008 FFF7FEFF 		bl	Read_All_Optical_Encoder
 614:L6470.c       ****     if(Y_QuadPosition > -2000)//to check if encoder connecter is floating
 2361              		.loc 1 614 0
 2362 000c 324B     		ldr	r3, .L134
 2363 000e 1B68     		ldr	r3, [r3]
 2364 0010 13F5FA6F 		cmn	r3, #2000
 2365 0014 52DD     		ble	.L126
 615:L6470.c       ****     {
 616:L6470.c       ****         if(((Position_Y_Move < Y_max_error)||(No_of_executions==0))&&(((((double)(Y_QuadPosition - 
 2366              		.loc 1 616 0
 2367 0016 314B     		ldr	r3, .L134+4
 2368 0018 1B68     		ldr	r3, [r3]
 2369 001a B3F57A6F 		cmp	r3, #4000
 2370 001e 02DB     		blt	.L127
 2371              		.loc 1 616 0 is_stmt 0 discriminator 2
 2372 0020 7B68     		ldr	r3, [r7, #4]
 2373 0022 002B     		cmp	r3, #0
 2374 0024 40D1     		bne	.L128
 2375              	.L127:
 2376              		.loc 1 616 0 discriminator 3
 2377 0026 2C4B     		ldr	r3, .L134
 2378 0028 1A68     		ldr	r2, [r3]
 2379 002a 2D4B     		ldr	r3, .L134+8
 2380 002c 1B68     		ldr	r3, [r3]
 2381 002e D31A     		subs	r3, r2, r3
 2382 0030 1846     		mov	r0, r3
 2383 0032 FFF7FEFF 		bl	__aeabi_i2d
 2384 0036 4FF00002 		mov	r2, #0
 2385 003a 2A4B     		ldr	r3, .L134+12
 2386 003c FFF7FEFF 		bl	__aeabi_dcmple
 2387 0040 0346     		mov	r3, r0
 2388 0042 002B     		cmp	r3, #0
 2389 0044 03D1     		bne	.L129
ARM GAS  C:\Users\Admin\AppData\Local\Temp\ccb10png.s 			page 57


 2390              		.loc 1 616 0 discriminator 4
 2391 0046 264B     		ldr	r3, .L134+8
 2392 0048 1B68     		ldr	r3, [r3]
 2393 004a 002B     		cmp	r3, #0
 2394 004c 2CD1     		bne	.L128
 2395              	.L129:
 617:L6470.c       ****         {            
 618:L6470.c       ****             if( ( (X_QuadPosition < 150000)&&(Position_Y_Requested < 360000)&&(Position_Y_Requested
 2396              		.loc 1 618 0 is_stmt 1
 2397 004e 264B     		ldr	r3, .L134+16
 2398 0050 1B68     		ldr	r3, [r3]
 2399 0052 264A     		ldr	r2, .L134+20
 2400 0054 9342     		cmp	r3, r2
 2401 0056 08DC     		bgt	.L130
 2402              		.loc 1 618 0 is_stmt 0 discriminator 1
 2403 0058 254B     		ldr	r3, .L134+24
 2404 005a 1B68     		ldr	r3, [r3]
 2405 005c 254A     		ldr	r2, .L134+28
 2406 005e 9342     		cmp	r3, r2
 2407 0060 03DC     		bgt	.L130
 2408              		.loc 1 618 0 discriminator 3
 2409 0062 234B     		ldr	r3, .L134+24
 2410 0064 1B68     		ldr	r3, [r3]
 2411 0066 002B     		cmp	r3, #0
 2412 0068 12DA     		bge	.L131
 2413              	.L130:
 2414              		.loc 1 618 0 discriminator 5
 2415 006a 1F4B     		ldr	r3, .L134+16
 2416 006c 1B68     		ldr	r3, [r3]
 2417 006e 224A     		ldr	r2, .L134+32
 2418 0070 9342     		cmp	r3, r2
 2419 0072 0FDC     		bgt	.L132
 2420              		.loc 1 618 0 discriminator 6
 2421 0074 1C4B     		ldr	r3, .L134+16
 2422 0076 1B68     		ldr	r3, [r3]
 2423 0078 204A     		ldr	r2, .L134+36
 2424 007a 9342     		cmp	r3, r2
 2425 007c 0ADD     		ble	.L132
 2426              		.loc 1 618 0 discriminator 7
 2427 007e 1C4B     		ldr	r3, .L134+24
 2428 0080 1B68     		ldr	r3, [r3]
 2429 0082 1F4A     		ldr	r2, .L134+40
 2430 0084 9342     		cmp	r3, r2
 2431 0086 05DC     		bgt	.L132
 2432              		.loc 1 618 0 discriminator 8
 2433 0088 194B     		ldr	r3, .L134+24
 2434 008a 1B68     		ldr	r3, [r3]
 2435 008c 002B     		cmp	r3, #0
 2436 008e 01DB     		blt	.L132
 2437              	.L131:
 619:L6470.c       ****                 return true;
 2438              		.loc 1 619 0 is_stmt 1
 2439 0090 0123     		movs	r3, #1
 2440 0092 1CE0     		b	.L133
 2441              	.L132:
 620:L6470.c       ****             else
 621:L6470.c       ****             {
ARM GAS  C:\Users\Admin\AppData\Local\Temp\ccb10png.s 			page 58


 622:L6470.c       ****                 Error = 11;//Requested_Y_Step_Exceeding_The_Limit
 2442              		.loc 1 622 0
 2443 0094 1B4B     		ldr	r3, .L134+44
 2444 0096 0B22     		movs	r2, #11
 2445 0098 1A60     		str	r2, [r3]
 623:L6470.c       ****                 Write_Debug_UART_Char("ERROR Wrong Position Requested**********[y8]  \r\n");
 2446              		.loc 1 623 0
 2447 009a 1B48     		ldr	r0, .L134+48
 2448 009c FFF7FEFF 		bl	Write_Debug_UART_Char
 624:L6470.c       ****                 UART_print_all_values();
 2449              		.loc 1 624 0
 2450 00a0 FFF7FEFF 		bl	UART_print_all_values
 625:L6470.c       ****                 return false;
 2451              		.loc 1 625 0
 2452 00a4 0023     		movs	r3, #0
 2453 00a6 12E0     		b	.L133
 2454              	.L128:
 626:L6470.c       ****             }
 627:L6470.c       ****         }
 628:L6470.c       ****         else
 629:L6470.c       ****         {
 630:L6470.c       ****             Error = 8;//Y_Encoder_Not_Working
 2455              		.loc 1 630 0
 2456 00a8 164B     		ldr	r3, .L134+44
 2457 00aa 0822     		movs	r2, #8
 2458 00ac 1A60     		str	r2, [r3]
 631:L6470.c       ****             Write_Debug_UART_Char("Y_Encoder_Not_Working**********[y9]  \r\n");
 2459              		.loc 1 631 0
 2460 00ae 1748     		ldr	r0, .L134+52
 2461 00b0 FFF7FEFF 		bl	Write_Debug_UART_Char
 632:L6470.c       ****             UART_print_all_values();
 2462              		.loc 1 632 0
 2463 00b4 FFF7FEFF 		bl	UART_print_all_values
 633:L6470.c       ****             return false;
 2464              		.loc 1 633 0
 2465 00b8 0023     		movs	r3, #0
 2466 00ba 08E0     		b	.L133
 2467              	.L126:
 634:L6470.c       ****         }
 635:L6470.c       ****     }
 636:L6470.c       ****     else
 637:L6470.c       ****     {
 638:L6470.c       ****         Error = 8;//Y_Encoder_Not_Working
 2468              		.loc 1 638 0
 2469 00bc 114B     		ldr	r3, .L134+44
 2470 00be 0822     		movs	r2, #8
 2471 00c0 1A60     		str	r2, [r3]
 639:L6470.c       ****         Write_Debug_UART_Char("Y_Encoder_Not_Working**********[y10]  \r\n");
 2472              		.loc 1 639 0
 2473 00c2 1348     		ldr	r0, .L134+56
 2474 00c4 FFF7FEFF 		bl	Write_Debug_UART_Char
 640:L6470.c       ****         UART_print_all_values();
 2475              		.loc 1 640 0
 2476 00c8 FFF7FEFF 		bl	UART_print_all_values
 641:L6470.c       ****         return false;
 2477              		.loc 1 641 0
 2478 00cc 0023     		movs	r3, #0
ARM GAS  C:\Users\Admin\AppData\Local\Temp\ccb10png.s 			page 59


 2479              	.L133:
 642:L6470.c       ****     }
 643:L6470.c       **** }
 2480              		.loc 1 643 0
 2481 00ce 1846     		mov	r0, r3
 2482 00d0 0837     		adds	r7, r7, #8
 2483              		.cfi_def_cfa_offset 8
 2484 00d2 BD46     		mov	sp, r7
 2485              		.cfi_def_cfa_register 13
 2486              		@ sp needed
 2487 00d4 80BD     		pop	{r7, pc}
 2488              	.L135:
 2489 00d6 00BF     		.align	2
 2490              	.L134:
 2491 00d8 00000000 		.word	Y_QuadPosition
 2492 00dc 00000000 		.word	Position_Y_Move
 2493 00e0 00000000 		.word	Y_last_position
 2494 00e4 0040AF40 		.word	1085227008
 2495 00e8 00000000 		.word	X_QuadPosition
 2496 00ec EF490200 		.word	149999
 2497 00f0 00000000 		.word	Position_Y_Requested
 2498 00f4 3F7E0500 		.word	359999
 2499 00f8 0FEB0900 		.word	649999
 2500 00fc 90B20800 		.word	570000
 2501 0100 9F680600 		.word	419999
 2502 0104 00000000 		.word	Error
 2503 0108 E8050000 		.word	.LC42
 2504 010c 1C060000 		.word	.LC43
 2505 0110 44060000 		.word	.LC44
 2506              		.cfi_endproc
 2507              	.LFE71:
 2508              		.size	is_Y_Step_Correct, .-is_Y_Step_Correct
 2509              		.section	.rodata
 2510 066d 000000   		.align	2
 2511              	.LC45:
 2512 0670 4552524F 		.ascii	"ERROR Wrong Position Requested**********[z8]  \015\012"
 2512      52205772 
 2512      6F6E6720 
 2512      506F7369 
 2512      74696F6E 
 2513 06a0 00       		.ascii	"\000"
 2514 06a1 000000   		.align	2
 2515              	.LC46:
 2516 06a4 4552524F 		.ascii	"ERROR Wrong Position Requested**********[z9]  \015\012"
 2516      52205772 
 2516      6F6E6720 
 2516      506F7369 
 2516      74696F6E 
 2517 06d4 00       		.ascii	"\000"
 2518 06d5 000000   		.align	2
 2519              	.LC47:
 2520 06d8 5A5F456E 		.ascii	"Z_Encoder_Not_Working**********[z10]  \015\012\000"
 2520      636F6465 
 2520      725F4E6F 
 2520      745F576F 
 2520      726B696E 
 2521              		.section	.text.is_Z_Step_Correct,"ax",%progbits
ARM GAS  C:\Users\Admin\AppData\Local\Temp\ccb10png.s 			page 60


 2522              		.align	2
 2523              		.global	is_Z_Step_Correct
 2524              		.thumb
 2525              		.thumb_func
 2526              		.type	is_Z_Step_Correct, %function
 2527              	is_Z_Step_Correct:
 2528              	.LFB72:
 644:L6470.c       **** bool is_Z_Step_Correct(int No_of_executions)
 645:L6470.c       **** {
 2529              		.loc 1 645 0
 2530              		.cfi_startproc
 2531              		@ args = 0, pretend = 0, frame = 8
 2532              		@ frame_needed = 1, uses_anonymous_args = 0
 2533 0000 80B5     		push	{r7, lr}
 2534              		.cfi_def_cfa_offset 8
 2535              		.cfi_offset 7, -8
 2536              		.cfi_offset 14, -4
 2537 0002 82B0     		sub	sp, sp, #8
 2538              		.cfi_def_cfa_offset 16
 2539 0004 00AF     		add	r7, sp, #0
 2540              		.cfi_def_cfa_register 7
 2541 0006 7860     		str	r0, [r7, #4]
 646:L6470.c       ****     Read_All_Optical_Encoder();
 2542              		.loc 1 646 0
 2543 0008 FFF7FEFF 		bl	Read_All_Optical_Encoder
 647:L6470.c       ****     if(Z_QuadPosition > -2000)//to check if encoder connecter is floating
 2544              		.loc 1 647 0
 2545 000c 294B     		ldr	r3, .L143
 2546 000e 1B68     		ldr	r3, [r3]
 2547 0010 13F5FA6F 		cmn	r3, #2000
 2548 0014 41DD     		ble	.L137
 648:L6470.c       ****     {
 649:L6470.c       ****         if ((Position_Z_Requested < Z_Step_Limit) && (Position_Z_Requested >= 0) && (Z_QuadPosition
 2549              		.loc 1 649 0
 2550 0016 284B     		ldr	r3, .L143+4
 2551 0018 1B68     		ldr	r3, [r3]
 2552 001a 4DF6BF22 		movw	r2, #55999
 2553 001e 9342     		cmp	r3, r2
 2554 0020 31DC     		bgt	.L138
 2555              		.loc 1 649 0 is_stmt 0 discriminator 1
 2556 0022 254B     		ldr	r3, .L143+4
 2557 0024 1B68     		ldr	r3, [r3]
 2558 0026 002B     		cmp	r3, #0
 2559 0028 2DDB     		blt	.L138
 2560              		.loc 1 649 0 discriminator 2
 2561 002a 224B     		ldr	r3, .L143
 2562 002c 1B68     		ldr	r3, [r3]
 2563 002e 13F57A7F 		cmn	r3, #1000
 2564 0032 28DD     		ble	.L138
 2565              		.loc 1 649 0 discriminator 3
 2566 0034 1F4B     		ldr	r3, .L143
 2567 0036 1B68     		ldr	r3, [r3]
 2568 0038 4DF6BF22 		movw	r2, #55999
 2569 003c 9342     		cmp	r3, r2
 2570 003e 22DC     		bgt	.L138
 650:L6470.c       ****         {
 651:L6470.c       ****             if(((Position_Z_Move < Z_max_error)||(No_of_executions == 0))&&(((abs(Z_QuadPosition - 
ARM GAS  C:\Users\Admin\AppData\Local\Temp\ccb10png.s 			page 61


 2571              		.loc 1 651 0 is_stmt 1
 2572 0040 1E4B     		ldr	r3, .L143+8
 2573 0042 1B68     		ldr	r3, [r3]
 2574 0044 B3F57A6F 		cmp	r3, #4000
 2575 0048 02DB     		blt	.L139
 2576              		.loc 1 651 0 is_stmt 0 discriminator 2
 2577 004a 7B68     		ldr	r3, [r7, #4]
 2578 004c 002B     		cmp	r3, #0
 2579 004e 10D1     		bne	.L140
 2580              	.L139:
 2581              		.loc 1 651 0 discriminator 3
 2582 0050 184B     		ldr	r3, .L143
 2583 0052 1A68     		ldr	r2, [r3]
 2584 0054 1A4B     		ldr	r3, .L143+12
 2585 0056 1B68     		ldr	r3, [r3]
 2586 0058 D31A     		subs	r3, r2, r3
 2587 005a 002B     		cmp	r3, #0
 2588 005c B8BF     		it	lt
 2589 005e 5B42     		rsblt	r3, r3, #0
 2590 0060 B3F57A6F 		cmp	r3, #4000
 2591 0064 03DD     		ble	.L141
 2592              		.loc 1 651 0 discriminator 4
 2593 0066 164B     		ldr	r3, .L143+12
 2594 0068 1B68     		ldr	r3, [r3]
 2595 006a 002B     		cmp	r3, #0
 2596 006c 01D1     		bne	.L140
 2597              	.L141:
 652:L6470.c       ****                 return true;
 2598              		.loc 1 652 0 is_stmt 1
 2599 006e 0123     		movs	r3, #1
 2600 0070 1CE0     		b	.L142
 2601              	.L140:
 653:L6470.c       ****             else
 654:L6470.c       ****             {
 655:L6470.c       ****                 Error = 17;//Requested_Z_Step_Exceeding_The_Limit
 2602              		.loc 1 655 0
 2603 0072 144B     		ldr	r3, .L143+16
 2604 0074 1122     		movs	r2, #17
 2605 0076 1A60     		str	r2, [r3]
 656:L6470.c       ****                 Write_Debug_UART_Char("ERROR Wrong Position Requested**********[z8]  \r\n");
 2606              		.loc 1 656 0
 2607 0078 1348     		ldr	r0, .L143+20
 2608 007a FFF7FEFF 		bl	Write_Debug_UART_Char
 657:L6470.c       ****                 UART_print_all_values();
 2609              		.loc 1 657 0
 2610 007e FFF7FEFF 		bl	UART_print_all_values
 658:L6470.c       ****                 return false;
 2611              		.loc 1 658 0
 2612 0082 0023     		movs	r3, #0
 2613 0084 12E0     		b	.L142
 2614              	.L138:
 659:L6470.c       ****             }
 660:L6470.c       ****         }
 661:L6470.c       ****         else
 662:L6470.c       ****         {
 663:L6470.c       ****             Error = 17;//Requested_Z_Step_Exceeding_The_Limit
 2615              		.loc 1 663 0
ARM GAS  C:\Users\Admin\AppData\Local\Temp\ccb10png.s 			page 62


 2616 0086 0F4B     		ldr	r3, .L143+16
 2617 0088 1122     		movs	r2, #17
 2618 008a 1A60     		str	r2, [r3]
 664:L6470.c       ****             Write_Debug_UART_Char("ERROR Wrong Position Requested**********[z9]  \r\n");
 2619              		.loc 1 664 0
 2620 008c 0F48     		ldr	r0, .L143+24
 2621 008e FFF7FEFF 		bl	Write_Debug_UART_Char
 665:L6470.c       ****             UART_print_all_values();
 2622              		.loc 1 665 0
 2623 0092 FFF7FEFF 		bl	UART_print_all_values
 666:L6470.c       ****             return false;
 2624              		.loc 1 666 0
 2625 0096 0023     		movs	r3, #0
 2626 0098 08E0     		b	.L142
 2627              	.L137:
 667:L6470.c       ****         }
 668:L6470.c       ****     }
 669:L6470.c       ****     else
 670:L6470.c       ****     {
 671:L6470.c       ****         Error = 14;//Z_Encoder_Not_Working
 2628              		.loc 1 671 0
 2629 009a 0A4B     		ldr	r3, .L143+16
 2630 009c 0E22     		movs	r2, #14
 2631 009e 1A60     		str	r2, [r3]
 672:L6470.c       ****         Write_Debug_UART_Char("Z_Encoder_Not_Working**********[z10]  \r\n");
 2632              		.loc 1 672 0
 2633 00a0 0B48     		ldr	r0, .L143+28
 2634 00a2 FFF7FEFF 		bl	Write_Debug_UART_Char
 673:L6470.c       ****         UART_print_all_values();
 2635              		.loc 1 673 0
 2636 00a6 FFF7FEFF 		bl	UART_print_all_values
 674:L6470.c       ****         return false;
 2637              		.loc 1 674 0
 2638 00aa 0023     		movs	r3, #0
 2639              	.L142:
 675:L6470.c       ****     }
 676:L6470.c       **** }
 2640              		.loc 1 676 0
 2641 00ac 1846     		mov	r0, r3
 2642 00ae 0837     		adds	r7, r7, #8
 2643              		.cfi_def_cfa_offset 8
 2644 00b0 BD46     		mov	sp, r7
 2645              		.cfi_def_cfa_register 13
 2646              		@ sp needed
 2647 00b2 80BD     		pop	{r7, pc}
 2648              	.L144:
 2649              		.align	2
 2650              	.L143:
 2651 00b4 00000000 		.word	Z_QuadPosition
 2652 00b8 00000000 		.word	Position_Z_Requested
 2653 00bc 00000000 		.word	Position_Z_Move
 2654 00c0 00000000 		.word	Z_last_position
 2655 00c4 00000000 		.word	Error
 2656 00c8 70060000 		.word	.LC45
 2657 00cc A4060000 		.word	.LC46
 2658 00d0 D8060000 		.word	.LC47
 2659              		.cfi_endproc
ARM GAS  C:\Users\Admin\AppData\Local\Temp\ccb10png.s 			page 63


 2660              	.LFE72:
 2661              		.size	is_Z_Step_Correct, .-is_Z_Step_Correct
 2662              		.section	.rodata
 2663 0701 000000   		.align	2
 2664              	.LC48:
 2665 0704 595F486F 		.ascii	"Y_Homing_Not_Done_Yet***********[x12]  \015\012\000"
 2665      6D696E67 
 2665      5F4E6F74 
 2665      5F446F6E 
 2665      655F5965 
 2666 072e 0000     		.align	2
 2667              	.LC49:
 2668 0730 585F486F 		.ascii	"X_Homing_Not_Done_Yet***********  \015\012\000"
 2668      6D696E67 
 2668      5F4E6F74 
 2668      5F446F6E 
 2668      655F5965 
 2669 0755 000000   		.align	2
 2670              	.LC50:
 2671 0758 5A5F486F 		.ascii	"Z_Homing_Not_Done_Yet***********  \015\012\000"
 2671      6D696E67 
 2671      5F4E6F74 
 2671      5F446F6E 
 2671      655F5965 
 2672              		.section	.text.if_all_homing_done,"ax",%progbits
 2673              		.align	2
 2674              		.global	if_all_homing_done
 2675              		.thumb
 2676              		.thumb_func
 2677              		.type	if_all_homing_done, %function
 2678              	if_all_homing_done:
 2679              	.LFB73:
 677:L6470.c       **** bool if_all_homing_done()
 678:L6470.c       **** {
 2680              		.loc 1 678 0
 2681              		.cfi_startproc
 2682              		@ args = 0, pretend = 0, frame = 0
 2683              		@ frame_needed = 1, uses_anonymous_args = 0
 2684 0000 80B5     		push	{r7, lr}
 2685              		.cfi_def_cfa_offset 8
 2686              		.cfi_offset 7, -8
 2687              		.cfi_offset 14, -4
 2688 0002 00AF     		add	r7, sp, #0
 2689              		.cfi_def_cfa_register 7
 679:L6470.c       ****     if((HomeY_done == false)&&(Error == 0))
 2690              		.loc 1 679 0
 2691 0004 204B     		ldr	r3, .L150
 2692 0006 1B78     		ldrb	r3, [r3]	@ zero_extendqisi2
 2693 0008 83F00103 		eor	r3, r3, #1
 2694 000c DBB2     		uxtb	r3, r3
 2695 000e 002B     		cmp	r3, #0
 2696 0010 0DD0     		beq	.L146
 2697              		.loc 1 679 0 is_stmt 0 discriminator 1
 2698 0012 1E4B     		ldr	r3, .L150+4
 2699 0014 1B68     		ldr	r3, [r3]
 2700 0016 002B     		cmp	r3, #0
 2701 0018 09D1     		bne	.L146
ARM GAS  C:\Users\Admin\AppData\Local\Temp\ccb10png.s 			page 64


 680:L6470.c       ****     {
 681:L6470.c       ****         Error = 12;//Y_Homing_Not_Done_Yet
 2702              		.loc 1 681 0 is_stmt 1
 2703 001a 1C4B     		ldr	r3, .L150+4
 2704 001c 0C22     		movs	r2, #12
 2705 001e 1A60     		str	r2, [r3]
 682:L6470.c       ****         Write_Debug_UART_Char("Y_Homing_Not_Done_Yet***********[x12]  \r\n");
 2706              		.loc 1 682 0
 2707 0020 1B48     		ldr	r0, .L150+8
 2708 0022 FFF7FEFF 		bl	Write_Debug_UART_Char
 683:L6470.c       ****         UART_print_all_values();
 2709              		.loc 1 683 0
 2710 0026 FFF7FEFF 		bl	UART_print_all_values
 684:L6470.c       ****         return false;
 2711              		.loc 1 684 0
 2712 002a 0023     		movs	r3, #0
 2713 002c 2AE0     		b	.L147
 2714              	.L146:
 685:L6470.c       ****     }
 686:L6470.c       ****     else if((HomeX_done == false)&&(Error == 0))
 2715              		.loc 1 686 0
 2716 002e 194B     		ldr	r3, .L150+12
 2717 0030 1B78     		ldrb	r3, [r3]	@ zero_extendqisi2
 2718 0032 83F00103 		eor	r3, r3, #1
 2719 0036 DBB2     		uxtb	r3, r3
 2720 0038 002B     		cmp	r3, #0
 2721 003a 0DD0     		beq	.L148
 2722              		.loc 1 686 0 is_stmt 0 discriminator 1
 2723 003c 134B     		ldr	r3, .L150+4
 2724 003e 1B68     		ldr	r3, [r3]
 2725 0040 002B     		cmp	r3, #0
 2726 0042 09D1     		bne	.L148
 687:L6470.c       ****     {
 688:L6470.c       ****         Error = 6;//X_Homing_Not_Done_Yet
 2727              		.loc 1 688 0 is_stmt 1
 2728 0044 114B     		ldr	r3, .L150+4
 2729 0046 0622     		movs	r2, #6
 2730 0048 1A60     		str	r2, [r3]
 689:L6470.c       ****         Write_Debug_UART_Char("X_Homing_Not_Done_Yet***********  \r\n");
 2731              		.loc 1 689 0
 2732 004a 1348     		ldr	r0, .L150+16
 2733 004c FFF7FEFF 		bl	Write_Debug_UART_Char
 690:L6470.c       ****         UART_print_all_values();
 2734              		.loc 1 690 0
 2735 0050 FFF7FEFF 		bl	UART_print_all_values
 691:L6470.c       ****         return false;
 2736              		.loc 1 691 0
 2737 0054 0023     		movs	r3, #0
 2738 0056 15E0     		b	.L147
 2739              	.L148:
 692:L6470.c       ****     }
 693:L6470.c       ****     else if((HomeZ_done == false)&&(Error == 0))
 2740              		.loc 1 693 0
 2741 0058 104B     		ldr	r3, .L150+20
 2742 005a 1B78     		ldrb	r3, [r3]	@ zero_extendqisi2
 2743 005c 83F00103 		eor	r3, r3, #1
 2744 0060 DBB2     		uxtb	r3, r3
ARM GAS  C:\Users\Admin\AppData\Local\Temp\ccb10png.s 			page 65


 2745 0062 002B     		cmp	r3, #0
 2746 0064 0DD0     		beq	.L149
 2747              		.loc 1 693 0 is_stmt 0 discriminator 1
 2748 0066 094B     		ldr	r3, .L150+4
 2749 0068 1B68     		ldr	r3, [r3]
 2750 006a 002B     		cmp	r3, #0
 2751 006c 09D1     		bne	.L149
 694:L6470.c       ****     {
 695:L6470.c       ****         Error = 18;//Z_Homing_Not_Done_Yet
 2752              		.loc 1 695 0 is_stmt 1
 2753 006e 074B     		ldr	r3, .L150+4
 2754 0070 1222     		movs	r2, #18
 2755 0072 1A60     		str	r2, [r3]
 696:L6470.c       ****         Write_Debug_UART_Char("Z_Homing_Not_Done_Yet***********  \r\n");
 2756              		.loc 1 696 0
 2757 0074 0A48     		ldr	r0, .L150+24
 2758 0076 FFF7FEFF 		bl	Write_Debug_UART_Char
 697:L6470.c       ****         UART_print_all_values();
 2759              		.loc 1 697 0
 2760 007a FFF7FEFF 		bl	UART_print_all_values
 698:L6470.c       ****         return false;
 2761              		.loc 1 698 0
 2762 007e 0023     		movs	r3, #0
 2763 0080 00E0     		b	.L147
 2764              	.L149:
 699:L6470.c       ****     } 
 700:L6470.c       ****     else
 701:L6470.c       ****     {
 702:L6470.c       ****         return true;
 2765              		.loc 1 702 0
 2766 0082 0123     		movs	r3, #1
 2767              	.L147:
 703:L6470.c       ****     }
 704:L6470.c       **** }
 2768              		.loc 1 704 0
 2769 0084 1846     		mov	r0, r3
 2770 0086 80BD     		pop	{r7, pc}
 2771              	.L151:
 2772              		.align	2
 2773              	.L150:
 2774 0088 00000000 		.word	HomeY_done
 2775 008c 00000000 		.word	Error
 2776 0090 04070000 		.word	.LC48
 2777 0094 00000000 		.word	HomeX_done
 2778 0098 30070000 		.word	.LC49
 2779 009c 00000000 		.word	HomeZ_done
 2780 00a0 58070000 		.word	.LC50
 2781              		.cfi_endproc
 2782              	.LFE73:
 2783              		.size	if_all_homing_done, .-if_all_homing_done
 2784              		.section	.text.Initialize_PWM,"ax",%progbits
 2785              		.align	2
 2786              		.global	Initialize_PWM
 2787              		.thumb
 2788              		.thumb_func
 2789              		.type	Initialize_PWM, %function
 2790              	Initialize_PWM:
ARM GAS  C:\Users\Admin\AppData\Local\Temp\ccb10png.s 			page 66


 2791              	.LFB74:
 705:L6470.c       **** 
 706:L6470.c       **** 
 707:L6470.c       **** //PWM Functions Start-------------------------------------------------------
 708:L6470.c       **** void Initialize_PWM()
 709:L6470.c       **** {
 2792              		.loc 1 709 0
 2793              		.cfi_startproc
 2794              		@ args = 0, pretend = 0, frame = 0
 2795              		@ frame_needed = 1, uses_anonymous_args = 0
 2796 0000 80B5     		push	{r7, lr}
 2797              		.cfi_def_cfa_offset 8
 2798              		.cfi_offset 7, -8
 2799              		.cfi_offset 14, -4
 2800 0002 00AF     		add	r7, sp, #0
 2801              		.cfi_def_cfa_register 7
 710:L6470.c       ****     PWM_CondenserLED_Start();
 2802              		.loc 1 710 0
 2803 0004 FFF7FEFF 		bl	PWM_CondenserLED_Start
 711:L6470.c       ****     PWM_CondenserLED_WriteCompare(2);    
 2804              		.loc 1 711 0
 2805 0008 0220     		movs	r0, #2
 2806 000a FFF7FEFF 		bl	PWM_CondenserLED_WriteCompare
 712:L6470.c       **** }
 2807              		.loc 1 712 0
 2808 000e 00BF     		nop
 2809 0010 80BD     		pop	{r7, pc}
 2810              		.cfi_endproc
 2811              	.LFE74:
 2812              		.size	Initialize_PWM, .-Initialize_PWM
 2813              		.global	__aeabi_dmul
 2814              		.global	__aeabi_ddiv
 2815              		.global	__aeabi_d2uiz
 2816 0012 00BF     		.section	.rodata
 2817 077d 000000   		.align	2
 2818              	.LC51:
 2819 0780 4C454420 		.ascii	"LED Value Recived--->\000"
 2819      56616C75 
 2819      65205265 
 2819      63697665 
 2819      642D2D2D 
 2820 0796 0000     		.align	2
 2821              	.LC52:
 2822 0798 53657420 		.ascii	"Set LED Command Executed  \015\012\000"
 2822      4C454420 
 2822      436F6D6D 
 2822      616E6420 
 2822      45786563 
 2823              		.section	.text.set_CondenserLED,"ax",%progbits
 2824              		.align	2
 2825              		.global	set_CondenserLED
 2826              		.thumb
 2827              		.thumb_func
 2828              		.type	set_CondenserLED, %function
 2829              	set_CondenserLED:
 2830              	.LFB75:
 713:L6470.c       **** int set_CondenserLED()//Set Condenser LED light intensity
ARM GAS  C:\Users\Admin\AppData\Local\Temp\ccb10png.s 			page 67


 714:L6470.c       **** {
 2831              		.loc 1 714 0
 2832              		.cfi_startproc
 2833              		@ args = 0, pretend = 0, frame = 0
 2834              		@ frame_needed = 1, uses_anonymous_args = 0
 2835 0000 98B5     		push	{r3, r4, r7, lr}
 2836              		.cfi_def_cfa_offset 16
 2837              		.cfi_offset 3, -16
 2838              		.cfi_offset 4, -12
 2839              		.cfi_offset 7, -8
 2840              		.cfi_offset 14, -4
 2841 0002 00AF     		add	r7, sp, #0
 2842              		.cfi_def_cfa_register 7
 715:L6470.c       ****     PWM_comare_value = ((unsigned int)USB_received[3] << 8) + USB_received[2];  //Read LED intensit
 2843              		.loc 1 715 0
 2844 0004 1E4B     		ldr	r3, .L155+8
 2845 0006 DB78     		ldrb	r3, [r3, #3]	@ zero_extendqisi2
 2846 0008 1B02     		lsls	r3, r3, #8
 2847 000a 1D4A     		ldr	r2, .L155+8
 2848 000c 9278     		ldrb	r2, [r2, #2]	@ zero_extendqisi2
 2849 000e 1344     		add	r3, r3, r2
 2850 0010 1A46     		mov	r2, r3
 2851 0012 1C4B     		ldr	r3, .L155+12
 2852 0014 1A60     		str	r2, [r3]
 716:L6470.c       ****     PWM_CondenserLED_WriteCompare((PWM_comare_value*0.6)/10);    //Writing LED value in to PWM maxi
 2853              		.loc 1 716 0
 2854 0016 1B4B     		ldr	r3, .L155+12
 2855 0018 1B68     		ldr	r3, [r3]
 2856 001a 1846     		mov	r0, r3
 2857 001c FFF7FEFF 		bl	__aeabi_i2d
 2858 0020 15A3     		adr	r3, .L155
 2859 0022 D3E90023 		ldrd	r2, [r3]
 2860 0026 FFF7FEFF 		bl	__aeabi_dmul
 2861 002a 0346     		mov	r3, r0
 2862 002c 0C46     		mov	r4, r1
 2863 002e 1846     		mov	r0, r3
 2864 0030 2146     		mov	r1, r4
 2865 0032 4FF00002 		mov	r2, #0
 2866 0036 144B     		ldr	r3, .L155+16
 2867 0038 FFF7FEFF 		bl	__aeabi_ddiv
 2868 003c 0346     		mov	r3, r0
 2869 003e 0C46     		mov	r4, r1
 2870 0040 1846     		mov	r0, r3
 2871 0042 2146     		mov	r1, r4
 2872 0044 FFF7FEFF 		bl	__aeabi_d2uiz
 2873 0048 0346     		mov	r3, r0
 2874 004a 9BB2     		uxth	r3, r3
 2875 004c 1846     		mov	r0, r3
 2876 004e FFF7FEFF 		bl	PWM_CondenserLED_WriteCompare
 717:L6470.c       ****     Write_Debug_UART_Char("LED Value Recived--->");
 2877              		.loc 1 717 0
 2878 0052 0E48     		ldr	r0, .L155+20
 2879 0054 FFF7FEFF 		bl	Write_Debug_UART_Char
 718:L6470.c       ****     Write_Debug_UART_Int(PWM_comare_value);
 2880              		.loc 1 718 0
 2881 0058 0A4B     		ldr	r3, .L155+12
 2882 005a 1B68     		ldr	r3, [r3]
ARM GAS  C:\Users\Admin\AppData\Local\Temp\ccb10png.s 			page 68


 2883 005c 1846     		mov	r0, r3
 2884 005e FFF7FEFF 		bl	Write_Debug_UART_Int
 719:L6470.c       ****     Write_Debug_UART_Char("\r\n");
 2885              		.loc 1 719 0
 2886 0062 0B48     		ldr	r0, .L155+24
 2887 0064 FFF7FEFF 		bl	Write_Debug_UART_Char
 720:L6470.c       ****     Write_Debug_UART_Char("Set LED Command Executed  \r\n");
 2888              		.loc 1 720 0
 2889 0068 0A48     		ldr	r0, .L155+28
 2890 006a FFF7FEFF 		bl	Write_Debug_UART_Char
 721:L6470.c       ****     return 0;
 2891              		.loc 1 721 0
 2892 006e 0023     		movs	r3, #0
 722:L6470.c       **** }
 2893              		.loc 1 722 0
 2894 0070 1846     		mov	r0, r3
 2895 0072 98BD     		pop	{r3, r4, r7, pc}
 2896              	.L156:
 2897 0074 AFF30080 		.align	3
 2898              	.L155:
 2899 0078 33333333 		.word	858993459
 2900 007c 3333E33F 		.word	1071854387
 2901 0080 00000000 		.word	USB_received
 2902 0084 00000000 		.word	PWM_comare_value
 2903 0088 00002440 		.word	1076101120
 2904 008c 80070000 		.word	.LC51
 2905 0090 84030000 		.word	.LC26
 2906 0094 98070000 		.word	.LC52
 2907              		.cfi_endproc
 2908              	.LFE75:
 2909              		.size	set_CondenserLED, .-set_CondenserLED
 2910              		.section	.text.Initialize_And_Start_All_Opt_Encoder,"ax",%progbits
 2911              		.align	2
 2912              		.global	Initialize_And_Start_All_Opt_Encoder
 2913              		.thumb
 2914              		.thumb_func
 2915              		.type	Initialize_And_Start_All_Opt_Encoder, %function
 2916              	Initialize_And_Start_All_Opt_Encoder:
 2917              	.LFB76:
 723:L6470.c       **** //PWM Functions Stop-------------------------------------------------------
 724:L6470.c       **** 
 725:L6470.c       **** //Optical Decoder Functions Start-------------------------------------------------------
 726:L6470.c       **** void Initialize_And_Start_All_Opt_Encoder()//Initialize and start Interrupt for XY encoder count an
 727:L6470.c       **** {   
 2918              		.loc 1 727 0
 2919              		.cfi_startproc
 2920              		@ args = 0, pretend = 0, frame = 0
 2921              		@ frame_needed = 1, uses_anonymous_args = 0
 2922 0000 80B5     		push	{r7, lr}
 2923              		.cfi_def_cfa_offset 8
 2924              		.cfi_offset 7, -8
 2925              		.cfi_offset 14, -4
 2926 0002 00AF     		add	r7, sp, #0
 2927              		.cfi_def_cfa_register 7
 728:L6470.c       ****     X_QuadPosition = 0;
 2928              		.loc 1 728 0
 2929 0004 0A4B     		ldr	r3, .L158
ARM GAS  C:\Users\Admin\AppData\Local\Temp\ccb10png.s 			page 69


 2930 0006 0022     		movs	r2, #0
 2931 0008 1A60     		str	r2, [r3]
 729:L6470.c       ****     Y_QuadPosition = 0;
 2932              		.loc 1 729 0
 2933 000a 0A4B     		ldr	r3, .L158+4
 2934 000c 0022     		movs	r2, #0
 2935 000e 1A60     		str	r2, [r3]
 730:L6470.c       ****     Z_QuadPosition =0 ;
 2936              		.loc 1 730 0
 2937 0010 094B     		ldr	r3, .L158+8
 2938 0012 0022     		movs	r2, #0
 2939 0014 1A60     		str	r2, [r3]
 731:L6470.c       ****     QuadDec_XY_Start();
 2940              		.loc 1 731 0
 2941 0016 FFF7FEFF 		bl	QuadDec_XY_Start
 732:L6470.c       ****     QuadDec_Z_Start();
 2942              		.loc 1 732 0
 2943 001a FFF7FEFF 		bl	QuadDec_Z_Start
 733:L6470.c       ****     Enable_Encoder_X(0);
 2944              		.loc 1 733 0
 2945 001e 0020     		movs	r0, #0
 2946 0020 FFF7FEFF 		bl	Enable_Encoder_X
 734:L6470.c       ****     Enable_Encoder_Y(0);
 2947              		.loc 1 734 0
 2948 0024 0020     		movs	r0, #0
 2949 0026 FFF7FEFF 		bl	Enable_Encoder_Y
 735:L6470.c       **** }
 2950              		.loc 1 735 0
 2951 002a 00BF     		nop
 2952 002c 80BD     		pop	{r7, pc}
 2953              	.L159:
 2954 002e 00BF     		.align	2
 2955              	.L158:
 2956 0030 00000000 		.word	X_QuadPosition
 2957 0034 00000000 		.word	Y_QuadPosition
 2958 0038 00000000 		.word	Z_QuadPosition
 2959              		.cfi_endproc
 2960              	.LFE76:
 2961              		.size	Initialize_And_Start_All_Opt_Encoder, .-Initialize_And_Start_All_Opt_Encoder
 2962              		.section	.text.Enable_Encoder_X,"ax",%progbits
 2963              		.align	2
 2964              		.global	Enable_Encoder_X
 2965              		.thumb
 2966              		.thumb_func
 2967              		.type	Enable_Encoder_X, %function
 2968              	Enable_Encoder_X:
 2969              	.LFB77:
 736:L6470.c       **** void Enable_Encoder_X(int steps)
 737:L6470.c       **** {
 2970              		.loc 1 737 0
 2971              		.cfi_startproc
 2972              		@ args = 0, pretend = 0, frame = 8
 2973              		@ frame_needed = 1, uses_anonymous_args = 0
 2974 0000 80B5     		push	{r7, lr}
 2975              		.cfi_def_cfa_offset 8
 2976              		.cfi_offset 7, -8
 2977              		.cfi_offset 14, -4
ARM GAS  C:\Users\Admin\AppData\Local\Temp\ccb10png.s 			page 70


 2978 0002 82B0     		sub	sp, sp, #8
 2979              		.cfi_def_cfa_offset 16
 2980 0004 00AF     		add	r7, sp, #0
 2981              		.cfi_def_cfa_register 7
 2982 0006 7860     		str	r0, [r7, #4]
 738:L6470.c       ****     EncoderXnYSelect = 0; // 0 for X and 1 for Y
 2983              		.loc 1 738 0
 2984 0008 064B     		ldr	r3, .L161
 2985 000a 0022     		movs	r2, #0
 2986 000c 1A60     		str	r2, [r3]
 739:L6470.c       ****     QuadDec_XY_SetCounter(steps);
 2987              		.loc 1 739 0
 2988 000e 7868     		ldr	r0, [r7, #4]
 2989 0010 FFF7FEFF 		bl	QuadDec_XY_SetCounter
 740:L6470.c       ****     EncoderXnYSelect_Control_Reg_Write(0);  //0 for X and 1 for Y
 2990              		.loc 1 740 0
 2991 0014 0020     		movs	r0, #0
 2992 0016 FFF7FEFF 		bl	EncoderXnYSelect_Control_Reg_Write
 741:L6470.c       **** }
 2993              		.loc 1 741 0
 2994 001a 00BF     		nop
 2995 001c 0837     		adds	r7, r7, #8
 2996              		.cfi_def_cfa_offset 8
 2997 001e BD46     		mov	sp, r7
 2998              		.cfi_def_cfa_register 13
 2999              		@ sp needed
 3000 0020 80BD     		pop	{r7, pc}
 3001              	.L162:
 3002 0022 00BF     		.align	2
 3003              	.L161:
 3004 0024 00000000 		.word	EncoderXnYSelect
 3005              		.cfi_endproc
 3006              	.LFE77:
 3007              		.size	Enable_Encoder_X, .-Enable_Encoder_X
 3008              		.section	.text.Enable_Encoder_Y,"ax",%progbits
 3009              		.align	2
 3010              		.global	Enable_Encoder_Y
 3011              		.thumb
 3012              		.thumb_func
 3013              		.type	Enable_Encoder_Y, %function
 3014              	Enable_Encoder_Y:
 3015              	.LFB78:
 742:L6470.c       **** void Enable_Encoder_Y(int steps)
 743:L6470.c       **** {
 3016              		.loc 1 743 0
 3017              		.cfi_startproc
 3018              		@ args = 0, pretend = 0, frame = 8
 3019              		@ frame_needed = 1, uses_anonymous_args = 0
 3020 0000 80B5     		push	{r7, lr}
 3021              		.cfi_def_cfa_offset 8
 3022              		.cfi_offset 7, -8
 3023              		.cfi_offset 14, -4
 3024 0002 82B0     		sub	sp, sp, #8
 3025              		.cfi_def_cfa_offset 16
 3026 0004 00AF     		add	r7, sp, #0
 3027              		.cfi_def_cfa_register 7
 3028 0006 7860     		str	r0, [r7, #4]
ARM GAS  C:\Users\Admin\AppData\Local\Temp\ccb10png.s 			page 71


 744:L6470.c       ****     QuadDec_XY_SetCounter(steps);
 3029              		.loc 1 744 0
 3030 0008 7868     		ldr	r0, [r7, #4]
 3031 000a FFF7FEFF 		bl	QuadDec_XY_SetCounter
 745:L6470.c       ****     EncoderXnYSelect_Control_Reg_Write(1);  //0 for X and 1 for Y
 3032              		.loc 1 745 0
 3033 000e 0120     		movs	r0, #1
 3034 0010 FFF7FEFF 		bl	EncoderXnYSelect_Control_Reg_Write
 746:L6470.c       ****     EncoderXnYSelect = 1; // 0 for X and 1 for Y
 3035              		.loc 1 746 0
 3036 0014 034B     		ldr	r3, .L164
 3037 0016 0122     		movs	r2, #1
 3038 0018 1A60     		str	r2, [r3]
 747:L6470.c       **** }
 3039              		.loc 1 747 0
 3040 001a 00BF     		nop
 3041 001c 0837     		adds	r7, r7, #8
 3042              		.cfi_def_cfa_offset 8
 3043 001e BD46     		mov	sp, r7
 3044              		.cfi_def_cfa_register 13
 3045              		@ sp needed
 3046 0020 80BD     		pop	{r7, pc}
 3047              	.L165:
 3048 0022 00BF     		.align	2
 3049              	.L164:
 3050 0024 00000000 		.word	EncoderXnYSelect
 3051              		.cfi_endproc
 3052              	.LFE78:
 3053              		.size	Enable_Encoder_Y, .-Enable_Encoder_Y
 3054              		.section	.text.Read_All_Optical_Encoder,"ax",%progbits
 3055              		.align	2
 3056              		.global	Read_All_Optical_Encoder
 3057              		.thumb
 3058              		.thumb_func
 3059              		.type	Read_All_Optical_Encoder, %function
 3060              	Read_All_Optical_Encoder:
 3061              	.LFB79:
 748:L6470.c       **** void Read_All_Optical_Encoder()//Read all optical encoder value and update XYZ value
 749:L6470.c       **** {
 3062              		.loc 1 749 0
 3063              		.cfi_startproc
 3064              		@ args = 0, pretend = 0, frame = 0
 3065              		@ frame_needed = 1, uses_anonymous_args = 0
 3066 0000 80B5     		push	{r7, lr}
 3067              		.cfi_def_cfa_offset 8
 3068              		.cfi_offset 7, -8
 3069              		.cfi_offset 14, -4
 3070 0002 00AF     		add	r7, sp, #0
 3071              		.cfi_def_cfa_register 7
 750:L6470.c       ****     if(EncoderXnYSelect == 0)
 3072              		.loc 1 750 0
 3073 0004 114B     		ldr	r3, .L169
 3074 0006 1B68     		ldr	r3, [r3]
 3075 0008 002B     		cmp	r3, #0
 3076 000a 09D1     		bne	.L167
 751:L6470.c       ****     {
 752:L6470.c       ****         X_QuadPosition = -QuadDec_XY_GetCounter();
ARM GAS  C:\Users\Admin\AppData\Local\Temp\ccb10png.s 			page 72


 3077              		.loc 1 752 0
 3078 000c FFF7FEFF 		bl	QuadDec_XY_GetCounter
 3079 0010 0346     		mov	r3, r0
 3080 0012 5B42     		negs	r3, r3
 3081 0014 0E4A     		ldr	r2, .L169+4
 3082 0016 1360     		str	r3, [r2]
 753:L6470.c       ****         Y_QuadPosition = Buffer_Y_QuadPosition;
 3083              		.loc 1 753 0
 3084 0018 0E4B     		ldr	r3, .L169+8
 3085 001a 1B68     		ldr	r3, [r3]
 3086 001c 0E4A     		ldr	r2, .L169+12
 3087 001e 1360     		str	r3, [r2]
 3088              	.L167:
 754:L6470.c       ****     }
 755:L6470.c       ****     if(EncoderXnYSelect == 1)
 3089              		.loc 1 755 0
 3090 0020 0A4B     		ldr	r3, .L169
 3091 0022 1B68     		ldr	r3, [r3]
 3092 0024 012B     		cmp	r3, #1
 3093 0026 09D1     		bne	.L168
 756:L6470.c       ****     {
 757:L6470.c       ****         X_QuadPosition = Buffer_X_QuadPosition;
 3094              		.loc 1 757 0
 3095 0028 0C4B     		ldr	r3, .L169+16
 3096 002a 1B68     		ldr	r3, [r3]
 3097 002c 084A     		ldr	r2, .L169+4
 3098 002e 1360     		str	r3, [r2]
 758:L6470.c       ****         Y_QuadPosition = -QuadDec_XY_GetCounter();
 3099              		.loc 1 758 0
 3100 0030 FFF7FEFF 		bl	QuadDec_XY_GetCounter
 3101 0034 0346     		mov	r3, r0
 3102 0036 5B42     		negs	r3, r3
 3103 0038 074A     		ldr	r2, .L169+12
 3104 003a 1360     		str	r3, [r2]
 3105              	.L168:
 759:L6470.c       ****     }
 760:L6470.c       ****     Z_QuadPosition = -QuadDec_Z_GetCounter();
 3106              		.loc 1 760 0
 3107 003c FFF7FEFF 		bl	QuadDec_Z_GetCounter
 3108 0040 0346     		mov	r3, r0
 3109 0042 5B42     		negs	r3, r3
 3110 0044 064A     		ldr	r2, .L169+20
 3111 0046 1360     		str	r3, [r2]
 761:L6470.c       **** }    
 3112              		.loc 1 761 0
 3113 0048 00BF     		nop
 3114 004a 80BD     		pop	{r7, pc}
 3115              	.L170:
 3116              		.align	2
 3117              	.L169:
 3118 004c 00000000 		.word	EncoderXnYSelect
 3119 0050 00000000 		.word	X_QuadPosition
 3120 0054 00000000 		.word	Buffer_Y_QuadPosition
 3121 0058 00000000 		.word	Y_QuadPosition
 3122 005c 00000000 		.word	Buffer_X_QuadPosition
 3123 0060 00000000 		.word	Z_QuadPosition
 3124              		.cfi_endproc
ARM GAS  C:\Users\Admin\AppData\Local\Temp\ccb10png.s 			page 73


 3125              	.LFE79:
 3126              		.size	Read_All_Optical_Encoder, .-Read_All_Optical_Encoder
 3127              		.section	.rodata
 3128 07b5 000000   		.align	2
 3129              	.LC53:
 3130 07b8 50434220 		.ascii	"PCB Reset Command Recived  \015\012\000"
 3130      52657365 
 3130      7420436F 
 3130      6D6D616E 
 3130      64205265 
 3131 07d6 0000     		.align	2
 3132              	.LC54:
 3133 07d8 47657420 		.ascii	"Get Status Command Recived  \015\012\000"
 3133      53746174 
 3133      75732043 
 3133      6F6D6D61 
 3133      6E642052 
 3134 07f7 00       		.align	2
 3135              	.LC55:
 3136 07f8 57726F6E 		.ascii	"Wrong Command Received*********** \015\012\000"
 3136      6720436F 
 3136      6D6D616E 
 3136      64205265 
 3136      63656976 
 3137              		.section	.text.Process_USB_Data,"ax",%progbits
 3138              		.align	2
 3139              		.global	Process_USB_Data
 3140              		.thumb
 3141              		.thumb_func
 3142              		.type	Process_USB_Data, %function
 3143              	Process_USB_Data:
 3144              	.LFB80:
 762:L6470.c       **** //Optical Decoder Functions Stop-------------------------------------------------------
 763:L6470.c       **** 
 764:L6470.c       **** 
 765:L6470.c       **** //USB Functions Start-------------------------------------------------------
 766:L6470.c       **** void Process_USB_Data()/* Process USB incoming data command. */
 767:L6470.c       **** {
 3145              		.loc 1 767 0
 3146              		.cfi_startproc
 3147              		@ args = 0, pretend = 0, frame = 0
 3148              		@ frame_needed = 1, uses_anonymous_args = 0
 3149 0000 80B5     		push	{r7, lr}
 3150              		.cfi_def_cfa_offset 8
 3151              		.cfi_offset 7, -8
 3152              		.cfi_offset 14, -4
 3153 0002 00AF     		add	r7, sp, #0
 3154              		.cfi_def_cfa_register 7
 768:L6470.c       ****     Pin_USB_RX_TX_Indicator_LED_Write(1); /* turn ON LED as a indicator to start process the comman
 3155              		.loc 1 768 0
 3156 0004 0120     		movs	r0, #1
 3157 0006 FFF7FEFF 		bl	Pin_USB_RX_TX_Indicator_LED_Write
 769:L6470.c       ****     Error = 0;
 3158              		.loc 1 769 0
 3159 000a 804B     		ldr	r3, .L184
 3160 000c 0022     		movs	r2, #0
 3161 000e 1A60     		str	r2, [r3]
ARM GAS  C:\Users\Admin\AppData\Local\Temp\ccb10png.s 			page 74


 770:L6470.c       ****     command = ((unsigned int)USB_received[1] << 8) + USB_received[0];   /* Reading USB data. */
 3162              		.loc 1 770 0
 3163 0010 7F4B     		ldr	r3, .L184+4
 3164 0012 5B78     		ldrb	r3, [r3, #1]	@ zero_extendqisi2
 3165 0014 1B02     		lsls	r3, r3, #8
 3166 0016 7E4A     		ldr	r2, .L184+4
 3167 0018 1278     		ldrb	r2, [r2]	@ zero_extendqisi2
 3168 001a 1344     		add	r3, r3, r2
 3169 001c 7D4A     		ldr	r2, .L184+8
 3170 001e 1360     		str	r3, [r2]
 771:L6470.c       ****     /*Compare USB data and execute the command*/
 772:L6470.c       **** 
 773:L6470.c       ****     if (command == HomeX)                                          
 3171              		.loc 1 773 0
 3172 0020 7C4B     		ldr	r3, .L184+8
 3173 0022 1B68     		ldr	r3, [r3]
 3174 0024 7A2B     		cmp	r3, #122
 3175 0026 0AD1     		bne	.L172
 774:L6470.c       ****     {
 775:L6470.c       ****         Error = home_X();
 3176              		.loc 1 775 0
 3177 0028 FFF7FEFF 		bl	home_X
 3178 002c 0246     		mov	r2, r0
 3179 002e 774B     		ldr	r3, .L184
 3180 0030 1A60     		str	r2, [r3]
 776:L6470.c       ****         Send_Feedback_to_USB(Error);
 3181              		.loc 1 776 0
 3182 0032 764B     		ldr	r3, .L184
 3183 0034 1B68     		ldr	r3, [r3]
 3184 0036 1846     		mov	r0, r3
 3185 0038 FFF7FEFF 		bl	Send_Feedback_to_USB
 3186 003c E1E0     		b	.L173
 3187              	.L172:
 777:L6470.c       ****     }
 778:L6470.c       ****     else if (command == HomeY)                           
 3188              		.loc 1 778 0
 3189 003e 754B     		ldr	r3, .L184+8
 3190 0040 1B68     		ldr	r3, [r3]
 3191 0042 7B2B     		cmp	r3, #123
 3192 0044 0AD1     		bne	.L174
 779:L6470.c       ****     {
 780:L6470.c       ****         Error = home_Y();
 3193              		.loc 1 780 0
 3194 0046 FFF7FEFF 		bl	home_Y
 3195 004a 0246     		mov	r2, r0
 3196 004c 6F4B     		ldr	r3, .L184
 3197 004e 1A60     		str	r2, [r3]
 781:L6470.c       ****         Send_Feedback_to_USB(Error);
 3198              		.loc 1 781 0
 3199 0050 6E4B     		ldr	r3, .L184
 3200 0052 1B68     		ldr	r3, [r3]
 3201 0054 1846     		mov	r0, r3
 3202 0056 FFF7FEFF 		bl	Send_Feedback_to_USB
 3203 005a D2E0     		b	.L173
 3204              	.L174:
 782:L6470.c       ****     }
 783:L6470.c       ****     else if (command == HomeZ)                           
ARM GAS  C:\Users\Admin\AppData\Local\Temp\ccb10png.s 			page 75


 3205              		.loc 1 783 0
 3206 005c 6D4B     		ldr	r3, .L184+8
 3207 005e 1B68     		ldr	r3, [r3]
 3208 0060 7C2B     		cmp	r3, #124
 3209 0062 0AD1     		bne	.L175
 784:L6470.c       ****     {
 785:L6470.c       ****         Error = home_Z();
 3210              		.loc 1 785 0
 3211 0064 FFF7FEFF 		bl	home_Z
 3212 0068 0246     		mov	r2, r0
 3213 006a 684B     		ldr	r3, .L184
 3214 006c 1A60     		str	r2, [r3]
 786:L6470.c       ****         Send_Feedback_to_USB(Error);
 3215              		.loc 1 786 0
 3216 006e 674B     		ldr	r3, .L184
 3217 0070 1B68     		ldr	r3, [r3]
 3218 0072 1846     		mov	r0, r3
 3219 0074 FFF7FEFF 		bl	Send_Feedback_to_USB
 3220 0078 C3E0     		b	.L173
 3221              	.L175:
 787:L6470.c       ****     }
 788:L6470.c       ****     else if (command == GotoX)                           
 3222              		.loc 1 788 0
 3223 007a 664B     		ldr	r3, .L184+8
 3224 007c 1B68     		ldr	r3, [r3]
 3225 007e B3F5F46F 		cmp	r3, #1952
 3226 0082 1DD1     		bne	.L176
 789:L6470.c       ****     {
 790:L6470.c       ****         Position_X_Requested = ((int32)USB_received[5] << 24) + ((int32)USB_received[4] << 16) + ((
 3227              		.loc 1 790 0
 3228 0084 624B     		ldr	r3, .L184+4
 3229 0086 5B79     		ldrb	r3, [r3, #5]	@ zero_extendqisi2
 3230 0088 1A06     		lsls	r2, r3, #24
 3231 008a 614B     		ldr	r3, .L184+4
 3232 008c 1B79     		ldrb	r3, [r3, #4]	@ zero_extendqisi2
 3233 008e 1B04     		lsls	r3, r3, #16
 3234 0090 1A44     		add	r2, r2, r3
 3235 0092 5F4B     		ldr	r3, .L184+4
 3236 0094 DB78     		ldrb	r3, [r3, #3]	@ zero_extendqisi2
 3237 0096 1B02     		lsls	r3, r3, #8
 3238 0098 1344     		add	r3, r3, r2
 3239 009a 5D4A     		ldr	r2, .L184+4
 3240 009c 9278     		ldrb	r2, [r2, #2]	@ zero_extendqisi2
 3241 009e 1344     		add	r3, r3, r2
 3242 00a0 5D4A     		ldr	r2, .L184+12
 3243 00a2 1360     		str	r3, [r2]
 791:L6470.c       ****         Error = goTo_X(Position_X_Requested);
 3244              		.loc 1 791 0
 3245 00a4 5C4B     		ldr	r3, .L184+12
 3246 00a6 1B68     		ldr	r3, [r3]
 3247 00a8 1846     		mov	r0, r3
 3248 00aa FFF7FEFF 		bl	goTo_X
 3249 00ae 0246     		mov	r2, r0
 3250 00b0 564B     		ldr	r3, .L184
 3251 00b2 1A60     		str	r2, [r3]
 792:L6470.c       ****         Send_Feedback_to_USB(Error);
 3252              		.loc 1 792 0
ARM GAS  C:\Users\Admin\AppData\Local\Temp\ccb10png.s 			page 76


 3253 00b4 554B     		ldr	r3, .L184
 3254 00b6 1B68     		ldr	r3, [r3]
 3255 00b8 1846     		mov	r0, r3
 3256 00ba FFF7FEFF 		bl	Send_Feedback_to_USB
 3257 00be A0E0     		b	.L173
 3258              	.L176:
 793:L6470.c       ****     }
 794:L6470.c       ****     else if (command == GotoY)          
 3259              		.loc 1 794 0
 3260 00c0 544B     		ldr	r3, .L184+8
 3261 00c2 1B68     		ldr	r3, [r3]
 3262 00c4 B3F5F66F 		cmp	r3, #1968
 3263 00c8 1DD1     		bne	.L177
 795:L6470.c       ****     {
 796:L6470.c       ****         Position_Y_Requested = ((int32)USB_received[5] << 24) + ((int32)USB_received[4] << 16) + ((
 3264              		.loc 1 796 0
 3265 00ca 514B     		ldr	r3, .L184+4
 3266 00cc 5B79     		ldrb	r3, [r3, #5]	@ zero_extendqisi2
 3267 00ce 1A06     		lsls	r2, r3, #24
 3268 00d0 4F4B     		ldr	r3, .L184+4
 3269 00d2 1B79     		ldrb	r3, [r3, #4]	@ zero_extendqisi2
 3270 00d4 1B04     		lsls	r3, r3, #16
 3271 00d6 1A44     		add	r2, r2, r3
 3272 00d8 4D4B     		ldr	r3, .L184+4
 3273 00da DB78     		ldrb	r3, [r3, #3]	@ zero_extendqisi2
 3274 00dc 1B02     		lsls	r3, r3, #8
 3275 00de 1344     		add	r3, r3, r2
 3276 00e0 4B4A     		ldr	r2, .L184+4
 3277 00e2 9278     		ldrb	r2, [r2, #2]	@ zero_extendqisi2
 3278 00e4 1344     		add	r3, r3, r2
 3279 00e6 4D4A     		ldr	r2, .L184+16
 3280 00e8 1360     		str	r3, [r2]
 797:L6470.c       ****         Error = goTo_Y(Position_Y_Requested);
 3281              		.loc 1 797 0
 3282 00ea 4C4B     		ldr	r3, .L184+16
 3283 00ec 1B68     		ldr	r3, [r3]
 3284 00ee 1846     		mov	r0, r3
 3285 00f0 FFF7FEFF 		bl	goTo_Y
 3286 00f4 0246     		mov	r2, r0
 3287 00f6 454B     		ldr	r3, .L184
 3288 00f8 1A60     		str	r2, [r3]
 798:L6470.c       ****         Send_Feedback_to_USB(Error);
 3289              		.loc 1 798 0
 3290 00fa 444B     		ldr	r3, .L184
 3291 00fc 1B68     		ldr	r3, [r3]
 3292 00fe 1846     		mov	r0, r3
 3293 0100 FFF7FEFF 		bl	Send_Feedback_to_USB
 3294 0104 7DE0     		b	.L173
 3295              	.L177:
 799:L6470.c       ****     }
 800:L6470.c       ****     else if (command == GotoZ)        
 3296              		.loc 1 800 0
 3297 0106 434B     		ldr	r3, .L184+8
 3298 0108 1B68     		ldr	r3, [r3]
 3299 010a B3F5FA6F 		cmp	r3, #2000
 3300 010e 1DD1     		bne	.L178
 801:L6470.c       ****     {
ARM GAS  C:\Users\Admin\AppData\Local\Temp\ccb10png.s 			page 77


 802:L6470.c       ****         Position_Z_Requested = ((int32)USB_received[5] << 24) + ((int32)USB_received[4] << 16) + ((
 3301              		.loc 1 802 0
 3302 0110 3F4B     		ldr	r3, .L184+4
 3303 0112 5B79     		ldrb	r3, [r3, #5]	@ zero_extendqisi2
 3304 0114 1A06     		lsls	r2, r3, #24
 3305 0116 3E4B     		ldr	r3, .L184+4
 3306 0118 1B79     		ldrb	r3, [r3, #4]	@ zero_extendqisi2
 3307 011a 1B04     		lsls	r3, r3, #16
 3308 011c 1A44     		add	r2, r2, r3
 3309 011e 3C4B     		ldr	r3, .L184+4
 3310 0120 DB78     		ldrb	r3, [r3, #3]	@ zero_extendqisi2
 3311 0122 1B02     		lsls	r3, r3, #8
 3312 0124 1344     		add	r3, r3, r2
 3313 0126 3A4A     		ldr	r2, .L184+4
 3314 0128 9278     		ldrb	r2, [r2, #2]	@ zero_extendqisi2
 3315 012a 1344     		add	r3, r3, r2
 3316 012c 3C4A     		ldr	r2, .L184+20
 3317 012e 1360     		str	r3, [r2]
 803:L6470.c       ****         Error = goTo_Z(Position_Z_Requested);
 3318              		.loc 1 803 0
 3319 0130 3B4B     		ldr	r3, .L184+20
 3320 0132 1B68     		ldr	r3, [r3]
 3321 0134 1846     		mov	r0, r3
 3322 0136 FFF7FEFF 		bl	goTo_Z
 3323 013a 0246     		mov	r2, r0
 3324 013c 334B     		ldr	r3, .L184
 3325 013e 1A60     		str	r2, [r3]
 804:L6470.c       ****         Send_Feedback_to_USB(Error);
 3326              		.loc 1 804 0
 3327 0140 324B     		ldr	r3, .L184
 3328 0142 1B68     		ldr	r3, [r3]
 3329 0144 1846     		mov	r0, r3
 3330 0146 FFF7FEFF 		bl	Send_Feedback_to_USB
 3331 014a 5AE0     		b	.L173
 3332              	.L178:
 805:L6470.c       ****     }
 806:L6470.c       ****     else if (command == Set_LED_voltage)
 3333              		.loc 1 806 0
 3334 014c 314B     		ldr	r3, .L184+8
 3335 014e 1B68     		ldr	r3, [r3]
 3336 0150 B3F5F44F 		cmp	r3, #31232
 3337 0154 0AD1     		bne	.L179
 807:L6470.c       ****     { 
 808:L6470.c       ****         set_CondenserLED();
 3338              		.loc 1 808 0
 3339 0156 FFF7FEFF 		bl	set_CondenserLED
 809:L6470.c       ****         CyDelay(100);
 3340              		.loc 1 809 0
 3341 015a 6420     		movs	r0, #100
 3342 015c FFF7FEFF 		bl	CyDelay
 810:L6470.c       ****         Send_Feedback_to_USB(Error);  
 3343              		.loc 1 810 0
 3344 0160 2A4B     		ldr	r3, .L184
 3345 0162 1B68     		ldr	r3, [r3]
 3346 0164 1846     		mov	r0, r3
 3347 0166 FFF7FEFF 		bl	Send_Feedback_to_USB
 3348 016a 4AE0     		b	.L173
ARM GAS  C:\Users\Admin\AppData\Local\Temp\ccb10png.s 			page 78


 3349              	.L179:
 811:L6470.c       ****     }
 812:L6470.c       ****     else if (command == PCB_Reset)                     
 3350              		.loc 1 812 0
 3351 016c 294B     		ldr	r3, .L184+8
 3352 016e 1B68     		ldr	r3, [r3]
 3353 0170 FF2B     		cmp	r3, #255
 3354 0172 13D1     		bne	.L180
 813:L6470.c       ****     {
 814:L6470.c       ****         Write_Debug_UART_Char("PCB Reset Command Recived  \r\n");
 3355              		.loc 1 814 0
 3356 0174 2B48     		ldr	r0, .L184+24
 3357 0176 FFF7FEFF 		bl	Write_Debug_UART_Char
 815:L6470.c       ****         Write_Debug_UART_Char("\r\n");
 3358              		.loc 1 815 0
 3359 017a 2B48     		ldr	r0, .L184+28
 3360 017c FFF7FEFF 		bl	Write_Debug_UART_Char
 816:L6470.c       ****         CyDelay(500);
 3361              		.loc 1 816 0
 3362 0180 4FF4FA70 		mov	r0, #500
 3363 0184 FFF7FEFF 		bl	CyDelay
 817:L6470.c       ****         Send_Feedback_to_USB(0);
 3364              		.loc 1 817 0
 3365 0188 0020     		movs	r0, #0
 3366 018a FFF7FEFF 		bl	Send_Feedback_to_USB
 818:L6470.c       ****         CyDelay(500);
 3367              		.loc 1 818 0
 3368 018e 4FF4FA70 		mov	r0, #500
 3369 0192 FFF7FEFF 		bl	CyDelay
 819:L6470.c       ****         CySoftwareReset();
 3370              		.loc 1 819 0
 3371 0196 FFF7FEFF 		bl	CySoftwareReset
 3372 019a 32E0     		b	.L173
 3373              	.L180:
 820:L6470.c       ****     }
 821:L6470.c       ****     else if(command == SetSpeed)  
 3374              		.loc 1 821 0
 3375 019c 1D4B     		ldr	r3, .L184+8
 3376 019e 1B68     		ldr	r3, [r3]
 3377 01a0 B3F5F64F 		cmp	r3, #31488
 3378 01a4 07D1     		bne	.L181
 822:L6470.c       ****     {
 823:L6470.c       ****         Set_Speed();
 3379              		.loc 1 823 0
 3380 01a6 FFF7FEFF 		bl	Set_Speed
 824:L6470.c       ****         Send_Feedback_to_USB(Error);
 3381              		.loc 1 824 0
 3382 01aa 184B     		ldr	r3, .L184
 3383 01ac 1B68     		ldr	r3, [r3]
 3384 01ae 1846     		mov	r0, r3
 3385 01b0 FFF7FEFF 		bl	Send_Feedback_to_USB
 3386 01b4 25E0     		b	.L173
 3387              	.L181:
 825:L6470.c       ****     }
 826:L6470.c       ****     else if (command == SetNoOfExecution)
 3388              		.loc 1 826 0
 3389 01b6 174B     		ldr	r3, .L184+8
ARM GAS  C:\Users\Admin\AppData\Local\Temp\ccb10png.s 			page 79


 3390 01b8 1B68     		ldr	r3, [r3]
 3391 01ba B3F5F84F 		cmp	r3, #31744
 3392 01be 07D1     		bne	.L182
 827:L6470.c       ****     {
 828:L6470.c       ****         set_no_of_execution();
 3393              		.loc 1 828 0
 3394 01c0 FFF7FEFF 		bl	set_no_of_execution
 829:L6470.c       ****         Send_Feedback_to_USB(Error);   
 3395              		.loc 1 829 0
 3396 01c4 114B     		ldr	r3, .L184
 3397 01c6 1B68     		ldr	r3, [r3]
 3398 01c8 1846     		mov	r0, r3
 3399 01ca FFF7FEFF 		bl	Send_Feedback_to_USB
 3400 01ce 18E0     		b	.L173
 3401              	.L182:
 830:L6470.c       ****     }
 831:L6470.c       ****     else if (command == Get_Status)                          
 3402              		.loc 1 831 0
 3403 01d0 104B     		ldr	r3, .L184+8
 3404 01d2 1B68     		ldr	r3, [r3]
 3405 01d4 FE2B     		cmp	r3, #254
 3406 01d6 09D1     		bne	.L183
 832:L6470.c       ****     {
 833:L6470.c       ****         Write_Debug_UART_Char("Get Status Command Recived  \r\n");
 3407              		.loc 1 833 0
 3408 01d8 1448     		ldr	r0, .L184+32
 3409 01da FFF7FEFF 		bl	Write_Debug_UART_Char
 834:L6470.c       ****         CyDelay(10);
 3410              		.loc 1 834 0
 3411 01de 0A20     		movs	r0, #10
 3412 01e0 FFF7FEFF 		bl	CyDelay
 835:L6470.c       ****         Send_Feedback_to_USB(0);
 3413              		.loc 1 835 0
 3414 01e4 0020     		movs	r0, #0
 3415 01e6 FFF7FEFF 		bl	Send_Feedback_to_USB
 3416 01ea 0AE0     		b	.L173
 3417              	.L183:
 836:L6470.c       ****     }
 837:L6470.c       ****     else
 838:L6470.c       ****     {
 839:L6470.c       ****         Error = 19;//Wrong_Command_Received
 3418              		.loc 1 839 0
 3419 01ec 074B     		ldr	r3, .L184
 3420 01ee 1322     		movs	r2, #19
 3421 01f0 1A60     		str	r2, [r3]
 840:L6470.c       ****         Write_Debug_UART_Char("Wrong Command Received*********** \r\n");
 3422              		.loc 1 840 0
 3423 01f2 0F48     		ldr	r0, .L184+36
 3424 01f4 FFF7FEFF 		bl	Write_Debug_UART_Char
 841:L6470.c       ****         UART_print_all_values();
 3425              		.loc 1 841 0
 3426 01f8 FFF7FEFF 		bl	UART_print_all_values
 842:L6470.c       ****         Send_Feedback_to_USB(19);
 3427              		.loc 1 842 0
 3428 01fc 1320     		movs	r0, #19
 3429 01fe FFF7FEFF 		bl	Send_Feedback_to_USB
 3430              	.L173:
ARM GAS  C:\Users\Admin\AppData\Local\Temp\ccb10png.s 			page 80


 843:L6470.c       ****     }
 844:L6470.c       ****     Pin_USB_RX_TX_Indicator_LED_Write(0);/* turn OFF LED as a indicator to stop process the command
 3431              		.loc 1 844 0
 3432 0202 0020     		movs	r0, #0
 3433 0204 FFF7FEFF 		bl	Pin_USB_RX_TX_Indicator_LED_Write
 845:L6470.c       **** }
 3434              		.loc 1 845 0
 3435 0208 00BF     		nop
 3436 020a 80BD     		pop	{r7, pc}
 3437              	.L185:
 3438              		.align	2
 3439              	.L184:
 3440 020c 00000000 		.word	Error
 3441 0210 00000000 		.word	USB_received
 3442 0214 00000000 		.word	command
 3443 0218 00000000 		.word	Position_X_Requested
 3444 021c 00000000 		.word	Position_Y_Requested
 3445 0220 00000000 		.word	Position_Z_Requested
 3446 0224 B8070000 		.word	.LC53
 3447 0228 84030000 		.word	.LC26
 3448 022c D8070000 		.word	.LC54
 3449 0230 F8070000 		.word	.LC55
 3450              		.cfi_endproc
 3451              	.LFE80:
 3452              		.size	Process_USB_Data, .-Process_USB_Data
 3453              		.section	.rodata
 3454 081d 000000   		.align	2
 3455              	.LC56:
 3456 0820 46656564 		.ascii	"Feedback Sent to Motherboard  \015\012\000"
 3456      6261636B 
 3456      2053656E 
 3456      7420746F 
 3456      204D6F74 
 3457              		.section	.text.Send_Feedback_to_USB,"ax",%progbits
 3458              		.align	2
 3459              		.global	Send_Feedback_to_USB
 3460              		.thumb
 3461              		.thumb_func
 3462              		.type	Send_Feedback_to_USB, %function
 3463              	Send_Feedback_to_USB:
 3464              	.LFB81:
 846:L6470.c       **** void Send_Feedback_to_USB(int Error)//Send Feedback to USB if USB command executed correctely 
 847:L6470.c       **** {
 3465              		.loc 1 847 0
 3466              		.cfi_startproc
 3467              		@ args = 0, pretend = 0, frame = 8
 3468              		@ frame_needed = 1, uses_anonymous_args = 0
 3469 0000 80B5     		push	{r7, lr}
 3470              		.cfi_def_cfa_offset 8
 3471              		.cfi_offset 7, -8
 3472              		.cfi_offset 14, -4
 3473 0002 82B0     		sub	sp, sp, #8
 3474              		.cfi_def_cfa_offset 16
 3475 0004 00AF     		add	r7, sp, #0
 3476              		.cfi_def_cfa_register 7
 3477 0006 7860     		str	r0, [r7, #4]
 848:L6470.c       ****     // Assigning Error bytes to No Error
ARM GAS  C:\Users\Admin\AppData\Local\Temp\ccb10png.s 			page 81


 849:L6470.c       ****     USB_transmit[0] = No_Error;
 3478              		.loc 1 849 0
 3479 0008 6D4B     		ldr	r3, .L211
 3480 000a 0022     		movs	r2, #0
 3481 000c 1A70     		strb	r2, [r3]
 850:L6470.c       ****     USB_transmit[1] = No_Error >> 8;
 3482              		.loc 1 850 0
 3483 000e 6C4B     		ldr	r3, .L211
 3484 0010 0022     		movs	r2, #0
 3485 0012 5A70     		strb	r2, [r3, #1]
 851:L6470.c       ****     USB_transmit[2] = No_Error;
 3486              		.loc 1 851 0
 3487 0014 6A4B     		ldr	r3, .L211
 3488 0016 0022     		movs	r2, #0
 3489 0018 9A70     		strb	r2, [r3, #2]
 852:L6470.c       ****     USB_transmit[3] = No_Error >> 8;
 3490              		.loc 1 852 0
 3491 001a 694B     		ldr	r3, .L211
 3492 001c 0022     		movs	r2, #0
 3493 001e DA70     		strb	r2, [r3, #3]
 853:L6470.c       ****     
 854:L6470.c       ****     Read_All_Optical_Encoder();
 3494              		.loc 1 854 0
 3495 0020 FFF7FEFF 		bl	Read_All_Optical_Encoder
 855:L6470.c       ****     if(Error == 0)
 3496              		.loc 1 855 0
 3497 0024 7B68     		ldr	r3, [r7, #4]
 3498 0026 002B     		cmp	r3, #0
 3499 0028 06D1     		bne	.L187
 856:L6470.c       ****     {
 857:L6470.c       ****         USB_transmit[2] = No_Error;
 3500              		.loc 1 857 0
 3501 002a 654B     		ldr	r3, .L211
 3502 002c 0022     		movs	r2, #0
 3503 002e 9A70     		strb	r2, [r3, #2]
 858:L6470.c       ****         USB_transmit[3] = No_Error >> 8;
 3504              		.loc 1 858 0
 3505 0030 634B     		ldr	r3, .L211
 3506 0032 0022     		movs	r2, #0
 3507 0034 DA70     		strb	r2, [r3, #3]
 3508 0036 CCE0     		b	.L188
 3509              	.L187:
 859:L6470.c       ****     }
 860:L6470.c       ****     else
 861:L6470.c       ****     {
 862:L6470.c       ****         USB_transmit[0] = Error_Code;
 3510              		.loc 1 862 0
 3511 0038 614B     		ldr	r3, .L211
 3512 003a 0F22     		movs	r2, #15
 3513 003c 1A70     		strb	r2, [r3]
 863:L6470.c       ****         USB_transmit[1] = Error_Code >> 8;
 3514              		.loc 1 863 0
 3515 003e 604B     		ldr	r3, .L211
 3516 0040 0F22     		movs	r2, #15
 3517 0042 5A70     		strb	r2, [r3, #1]
 864:L6470.c       ****         switch(Error)
 3518              		.loc 1 864 0
ARM GAS  C:\Users\Admin\AppData\Local\Temp\ccb10png.s 			page 82


 3519 0044 7B68     		ldr	r3, [r7, #4]
 3520 0046 013B     		subs	r3, r3, #1
 3521 0048 142B     		cmp	r3, #20
 3522 004a 00F2C280 		bhi	.L188
 3523 004e 01A2     		adr	r2, .L190
 3524 0050 52F823F0 		ldr	pc, [r2, r3, lsl #2]
 3525              		.p2align 2
 3526              	.L190:
 3527 0054 A9000000 		.word	.L189+1
 3528 0058 B7000000 		.word	.L191+1
 3529 005c C5000000 		.word	.L192+1
 3530 0060 D3000000 		.word	.L193+1
 3531 0064 E1000000 		.word	.L194+1
 3532 0068 EF000000 		.word	.L195+1
 3533 006c FD000000 		.word	.L196+1
 3534 0070 0B010000 		.word	.L197+1
 3535 0074 19010000 		.word	.L198+1
 3536 0078 27010000 		.word	.L199+1
 3537 007c 35010000 		.word	.L200+1
 3538 0080 43010000 		.word	.L201+1
 3539 0084 51010000 		.word	.L202+1
 3540 0088 5F010000 		.word	.L203+1
 3541 008c 6D010000 		.word	.L204+1
 3542 0090 7B010000 		.word	.L205+1
 3543 0094 89010000 		.word	.L206+1
 3544 0098 97010000 		.word	.L207+1
 3545 009c A5010000 		.word	.L208+1
 3546 00a0 B3010000 		.word	.L209+1
 3547 00a4 C5010000 		.word	.L210+1
 3548              		.p2align 1
 3549              	.L189:
 865:L6470.c       ****         {
 866:L6470.c       ****             case 1:
 867:L6470.c       ****             {
 868:L6470.c       ****                 USB_transmit[2] = X_Motor_Not_Working;
 3550              		.loc 1 868 0
 3551 00a8 454B     		ldr	r3, .L211
 3552 00aa 0122     		movs	r2, #1
 3553 00ac 9A70     		strb	r2, [r3, #2]
 869:L6470.c       ****                 USB_transmit[3] = X_Motor_Not_Working >> 8; 
 3554              		.loc 1 869 0
 3555 00ae 444B     		ldr	r3, .L211
 3556 00b0 FA22     		movs	r2, #250
 3557 00b2 DA70     		strb	r2, [r3, #3]
 870:L6470.c       ****                 break;
 3558              		.loc 1 870 0
 3559 00b4 8DE0     		b	.L188
 3560              	.L191:
 871:L6470.c       ****             }
 872:L6470.c       ****             case 2:
 873:L6470.c       ****             {
 874:L6470.c       ****                 USB_transmit[2] = X_Encoder_Not_Working;
 3561              		.loc 1 874 0
 3562 00b6 424B     		ldr	r3, .L211
 3563 00b8 0222     		movs	r2, #2
 3564 00ba 9A70     		strb	r2, [r3, #2]
 875:L6470.c       ****                 USB_transmit[3] = X_Encoder_Not_Working >> 8; 
ARM GAS  C:\Users\Admin\AppData\Local\Temp\ccb10png.s 			page 83


 3565              		.loc 1 875 0
 3566 00bc 404B     		ldr	r3, .L211
 3567 00be FA22     		movs	r2, #250
 3568 00c0 DA70     		strb	r2, [r3, #3]
 876:L6470.c       ****                 break;
 3569              		.loc 1 876 0
 3570 00c2 86E0     		b	.L188
 3571              	.L192:
 877:L6470.c       ****             }
 878:L6470.c       ****             case 3:
 879:L6470.c       ****             {
 880:L6470.c       ****                 USB_transmit[2] = X_Switch_Not_Working;
 3572              		.loc 1 880 0
 3573 00c4 3E4B     		ldr	r3, .L211
 3574 00c6 1722     		movs	r2, #23
 3575 00c8 9A70     		strb	r2, [r3, #2]
 881:L6470.c       ****                 USB_transmit[3] = X_Switch_Not_Working >> 8; 
 3576              		.loc 1 881 0
 3577 00ca 3D4B     		ldr	r3, .L211
 3578 00cc FA22     		movs	r2, #250
 3579 00ce DA70     		strb	r2, [r3, #3]
 882:L6470.c       ****                 break;
 3580              		.loc 1 882 0
 3581 00d0 7FE0     		b	.L188
 3582              	.L193:
 883:L6470.c       ****             }
 884:L6470.c       ****             case 4:
 885:L6470.c       ****             {
 886:L6470.c       ****                 USB_transmit[2] = X_Motor_Driver_Fault;
 3583              		.loc 1 886 0
 3584 00d2 3B4B     		ldr	r3, .L211
 3585 00d4 0722     		movs	r2, #7
 3586 00d6 9A70     		strb	r2, [r3, #2]
 887:L6470.c       ****                 USB_transmit[3] = X_Motor_Driver_Fault >> 8; 
 3587              		.loc 1 887 0
 3588 00d8 394B     		ldr	r3, .L211
 3589 00da FA22     		movs	r2, #250
 3590 00dc DA70     		strb	r2, [r3, #3]
 888:L6470.c       ****                 break;
 3591              		.loc 1 888 0
 3592 00de 78E0     		b	.L188
 3593              	.L194:
 889:L6470.c       ****             }
 890:L6470.c       ****             case 5:
 891:L6470.c       ****             {
 892:L6470.c       ****                 USB_transmit[2] = Requested_X_Step_Exceeding_The_Limit;
 3594              		.loc 1 892 0
 3595 00e0 374B     		ldr	r3, .L211
 3596 00e2 1122     		movs	r2, #17
 3597 00e4 9A70     		strb	r2, [r3, #2]
 893:L6470.c       ****                 USB_transmit[3] = Requested_X_Step_Exceeding_The_Limit >> 8; 
 3598              		.loc 1 893 0
 3599 00e6 364B     		ldr	r3, .L211
 3600 00e8 FA22     		movs	r2, #250
 3601 00ea DA70     		strb	r2, [r3, #3]
 894:L6470.c       ****                 break;
 3602              		.loc 1 894 0
ARM GAS  C:\Users\Admin\AppData\Local\Temp\ccb10png.s 			page 84


 3603 00ec 71E0     		b	.L188
 3604              	.L195:
 895:L6470.c       ****             }
 896:L6470.c       ****             case 6:
 897:L6470.c       ****             {
 898:L6470.c       ****                 USB_transmit[2] = X_Homing_Not_Done_Yet;
 3605              		.loc 1 898 0
 3606 00ee 344B     		ldr	r3, .L211
 3607 00f0 1D22     		movs	r2, #29
 3608 00f2 9A70     		strb	r2, [r3, #2]
 899:L6470.c       ****                 USB_transmit[3] = X_Homing_Not_Done_Yet >> 8; 
 3609              		.loc 1 899 0
 3610 00f4 324B     		ldr	r3, .L211
 3611 00f6 FA22     		movs	r2, #250
 3612 00f8 DA70     		strb	r2, [r3, #3]
 900:L6470.c       ****                 break;
 3613              		.loc 1 900 0
 3614 00fa 6AE0     		b	.L188
 3615              	.L196:
 901:L6470.c       ****             }
 902:L6470.c       ****             case 7:
 903:L6470.c       ****             {
 904:L6470.c       ****                 USB_transmit[2] = Y_Motor_Not_Working;
 3616              		.loc 1 904 0
 3617 00fc 304B     		ldr	r3, .L211
 3618 00fe 0322     		movs	r2, #3
 3619 0100 9A70     		strb	r2, [r3, #2]
 905:L6470.c       ****                 USB_transmit[3] = Y_Motor_Not_Working >> 8; 
 3620              		.loc 1 905 0
 3621 0102 2F4B     		ldr	r3, .L211
 3622 0104 FA22     		movs	r2, #250
 3623 0106 DA70     		strb	r2, [r3, #3]
 906:L6470.c       ****                 break;
 3624              		.loc 1 906 0
 3625 0108 63E0     		b	.L188
 3626              	.L197:
 907:L6470.c       ****             }
 908:L6470.c       ****             case 8:
 909:L6470.c       ****             {
 910:L6470.c       ****                 USB_transmit[2] = Y_Encoder_Not_Working;
 3627              		.loc 1 910 0
 3628 010a 2D4B     		ldr	r3, .L211
 3629 010c 0422     		movs	r2, #4
 3630 010e 9A70     		strb	r2, [r3, #2]
 911:L6470.c       ****                 USB_transmit[3] = Y_Encoder_Not_Working >> 8; 
 3631              		.loc 1 911 0
 3632 0110 2B4B     		ldr	r3, .L211
 3633 0112 FA22     		movs	r2, #250
 3634 0114 DA70     		strb	r2, [r3, #3]
 912:L6470.c       ****                 break;
 3635              		.loc 1 912 0
 3636 0116 5CE0     		b	.L188
 3637              	.L198:
 913:L6470.c       ****             }
 914:L6470.c       ****             case 9:
 915:L6470.c       ****             {
 916:L6470.c       ****                 USB_transmit[2] = Y_Switch_Not_Working;
ARM GAS  C:\Users\Admin\AppData\Local\Temp\ccb10png.s 			page 85


 3638              		.loc 1 916 0
 3639 0118 294B     		ldr	r3, .L211
 3640 011a 1822     		movs	r2, #24
 3641 011c 9A70     		strb	r2, [r3, #2]
 917:L6470.c       ****                 USB_transmit[3] = Y_Switch_Not_Working >> 8; 
 3642              		.loc 1 917 0
 3643 011e 284B     		ldr	r3, .L211
 3644 0120 FA22     		movs	r2, #250
 3645 0122 DA70     		strb	r2, [r3, #3]
 918:L6470.c       ****                 break;
 3646              		.loc 1 918 0
 3647 0124 55E0     		b	.L188
 3648              	.L199:
 919:L6470.c       ****             }
 920:L6470.c       ****             case 10:
 921:L6470.c       ****             {
 922:L6470.c       ****                 USB_transmit[2] = Y_Motor_Driver_Fault;
 3649              		.loc 1 922 0
 3650 0126 264B     		ldr	r3, .L211
 3651 0128 0822     		movs	r2, #8
 3652 012a 9A70     		strb	r2, [r3, #2]
 923:L6470.c       ****                 USB_transmit[3] = Y_Motor_Driver_Fault >> 8; 
 3653              		.loc 1 923 0
 3654 012c 244B     		ldr	r3, .L211
 3655 012e FA22     		movs	r2, #250
 3656 0130 DA70     		strb	r2, [r3, #3]
 924:L6470.c       ****                 break;
 3657              		.loc 1 924 0
 3658 0132 4EE0     		b	.L188
 3659              	.L200:
 925:L6470.c       ****             }
 926:L6470.c       ****             case 11:
 927:L6470.c       ****             {
 928:L6470.c       ****                 USB_transmit[2] = Requested_Y_Step_Exceeding_The_Limit;
 3660              		.loc 1 928 0
 3661 0134 224B     		ldr	r3, .L211
 3662 0136 1222     		movs	r2, #18
 3663 0138 9A70     		strb	r2, [r3, #2]
 929:L6470.c       ****                 USB_transmit[3] = Requested_Y_Step_Exceeding_The_Limit >> 8; 
 3664              		.loc 1 929 0
 3665 013a 214B     		ldr	r3, .L211
 3666 013c FA22     		movs	r2, #250
 3667 013e DA70     		strb	r2, [r3, #3]
 930:L6470.c       ****                 break;
 3668              		.loc 1 930 0
 3669 0140 47E0     		b	.L188
 3670              	.L201:
 931:L6470.c       ****             }
 932:L6470.c       ****             case 12:
 933:L6470.c       ****             {
 934:L6470.c       ****                 USB_transmit[2] = Y_Homing_Not_Done_Yet;
 3671              		.loc 1 934 0
 3672 0142 1F4B     		ldr	r3, .L211
 3673 0144 1E22     		movs	r2, #30
 3674 0146 9A70     		strb	r2, [r3, #2]
 935:L6470.c       ****                 USB_transmit[3] = Y_Homing_Not_Done_Yet >> 8; 
 3675              		.loc 1 935 0
ARM GAS  C:\Users\Admin\AppData\Local\Temp\ccb10png.s 			page 86


 3676 0148 1D4B     		ldr	r3, .L211
 3677 014a FA22     		movs	r2, #250
 3678 014c DA70     		strb	r2, [r3, #3]
 936:L6470.c       ****                 break;
 3679              		.loc 1 936 0
 3680 014e 40E0     		b	.L188
 3681              	.L202:
 937:L6470.c       ****             }
 938:L6470.c       ****             case 13:
 939:L6470.c       ****             {
 940:L6470.c       ****                 USB_transmit[2] = Z_Motor_Not_Working ;
 3682              		.loc 1 940 0
 3683 0150 1B4B     		ldr	r3, .L211
 3684 0152 0522     		movs	r2, #5
 3685 0154 9A70     		strb	r2, [r3, #2]
 941:L6470.c       ****                 USB_transmit[3] = Z_Motor_Not_Working >> 8; 
 3686              		.loc 1 941 0
 3687 0156 1A4B     		ldr	r3, .L211
 3688 0158 FA22     		movs	r2, #250
 3689 015a DA70     		strb	r2, [r3, #3]
 942:L6470.c       ****                 break;
 3690              		.loc 1 942 0
 3691 015c 39E0     		b	.L188
 3692              	.L203:
 943:L6470.c       ****             }
 944:L6470.c       ****             case 14:
 945:L6470.c       ****             {
 946:L6470.c       ****                 USB_transmit[2] = Z_Encoder_Not_Working ;
 3693              		.loc 1 946 0
 3694 015e 184B     		ldr	r3, .L211
 3695 0160 0622     		movs	r2, #6
 3696 0162 9A70     		strb	r2, [r3, #2]
 947:L6470.c       ****                 USB_transmit[3] = Z_Encoder_Not_Working >> 8; 
 3697              		.loc 1 947 0
 3698 0164 164B     		ldr	r3, .L211
 3699 0166 FA22     		movs	r2, #250
 3700 0168 DA70     		strb	r2, [r3, #3]
 948:L6470.c       ****                 break;
 3701              		.loc 1 948 0
 3702 016a 32E0     		b	.L188
 3703              	.L204:
 949:L6470.c       ****             }
 950:L6470.c       ****             case 15:
 951:L6470.c       ****             {
 952:L6470.c       ****                 USB_transmit[2] = Z_Switch_Not_Working;
 3704              		.loc 1 952 0
 3705 016c 144B     		ldr	r3, .L211
 3706 016e 1922     		movs	r2, #25
 3707 0170 9A70     		strb	r2, [r3, #2]
 953:L6470.c       ****                 USB_transmit[3] = Z_Switch_Not_Working >> 8; 
 3708              		.loc 1 953 0
 3709 0172 134B     		ldr	r3, .L211
 3710 0174 FA22     		movs	r2, #250
 3711 0176 DA70     		strb	r2, [r3, #3]
 954:L6470.c       ****                 break;
 3712              		.loc 1 954 0
 3713 0178 2BE0     		b	.L188
ARM GAS  C:\Users\Admin\AppData\Local\Temp\ccb10png.s 			page 87


 3714              	.L205:
 955:L6470.c       ****             }
 956:L6470.c       ****             case 16:
 957:L6470.c       ****             {
 958:L6470.c       ****                 USB_transmit[2] = Z_Motor_Driver_Fault;
 3715              		.loc 1 958 0
 3716 017a 114B     		ldr	r3, .L211
 3717 017c 0922     		movs	r2, #9
 3718 017e 9A70     		strb	r2, [r3, #2]
 959:L6470.c       ****                 USB_transmit[3] = Z_Motor_Driver_Fault >> 8; 
 3719              		.loc 1 959 0
 3720 0180 0F4B     		ldr	r3, .L211
 3721 0182 FA22     		movs	r2, #250
 3722 0184 DA70     		strb	r2, [r3, #3]
 960:L6470.c       ****                 break;
 3723              		.loc 1 960 0
 3724 0186 24E0     		b	.L188
 3725              	.L206:
 961:L6470.c       ****             }
 962:L6470.c       ****             case 17:
 963:L6470.c       ****             {
 964:L6470.c       ****                 USB_transmit[2] = Requested_Z_Step_Exceeding_The_Limit;
 3726              		.loc 1 964 0
 3727 0188 0D4B     		ldr	r3, .L211
 3728 018a 1322     		movs	r2, #19
 3729 018c 9A70     		strb	r2, [r3, #2]
 965:L6470.c       ****                 USB_transmit[3] = Requested_Z_Step_Exceeding_The_Limit >> 8; 
 3730              		.loc 1 965 0
 3731 018e 0C4B     		ldr	r3, .L211
 3732 0190 FA22     		movs	r2, #250
 3733 0192 DA70     		strb	r2, [r3, #3]
 966:L6470.c       ****                 break;
 3734              		.loc 1 966 0
 3735 0194 1DE0     		b	.L188
 3736              	.L207:
 967:L6470.c       ****             }
 968:L6470.c       ****             case 18:
 969:L6470.c       ****             {
 970:L6470.c       ****                 USB_transmit[2] = Z_Homing_Not_Done_Yet;
 3737              		.loc 1 970 0
 3738 0196 0A4B     		ldr	r3, .L211
 3739 0198 1F22     		movs	r2, #31
 3740 019a 9A70     		strb	r2, [r3, #2]
 971:L6470.c       ****                 USB_transmit[3] = Z_Homing_Not_Done_Yet >> 8; 
 3741              		.loc 1 971 0
 3742 019c 084B     		ldr	r3, .L211
 3743 019e FA22     		movs	r2, #250
 3744 01a0 DA70     		strb	r2, [r3, #3]
 972:L6470.c       ****                 break;
 3745              		.loc 1 972 0
 3746 01a2 16E0     		b	.L188
 3747              	.L208:
 973:L6470.c       ****             }
 974:L6470.c       ****             case 19:
 975:L6470.c       ****             {
 976:L6470.c       ****                 USB_transmit[2] = Wrong_Command_Received;
 3748              		.loc 1 976 0
ARM GAS  C:\Users\Admin\AppData\Local\Temp\ccb10png.s 			page 88


 3749 01a4 064B     		ldr	r3, .L211
 3750 01a6 2222     		movs	r2, #34
 3751 01a8 9A70     		strb	r2, [r3, #2]
 977:L6470.c       ****                 USB_transmit[3] = Wrong_Command_Received >> 8; 
 3752              		.loc 1 977 0
 3753 01aa 054B     		ldr	r3, .L211
 3754 01ac FA22     		movs	r2, #250
 3755 01ae DA70     		strb	r2, [r3, #3]
 978:L6470.c       ****                 break;
 3756              		.loc 1 978 0
 3757 01b0 0FE0     		b	.L188
 3758              	.L209:
 979:L6470.c       ****             }
 980:L6470.c       ****             case 20:
 981:L6470.c       ****             {
 982:L6470.c       ****                 USB_transmit[2] = PCB_Paused;
 3759              		.loc 1 982 0
 3760 01b2 034B     		ldr	r3, .L211
 3761 01b4 2322     		movs	r2, #35
 3762 01b6 9A70     		strb	r2, [r3, #2]
 983:L6470.c       ****                 USB_transmit[3] =  PCB_Paused>> 8; 
 3763              		.loc 1 983 0
 3764 01b8 014B     		ldr	r3, .L211
 3765 01ba FA22     		movs	r2, #250
 3766 01bc DA70     		strb	r2, [r3, #3]
 984:L6470.c       ****                 break;
 3767              		.loc 1 984 0
 3768 01be 08E0     		b	.L188
 3769              	.L212:
 3770              		.align	2
 3771              	.L211:
 3772 01c0 00000000 		.word	USB_transmit
 3773              	.L210:
 985:L6470.c       ****             }
 986:L6470.c       ****             case 21:
 987:L6470.c       ****             {
 988:L6470.c       ****                 USB_transmit[2] = PCB_Busy;
 3774              		.loc 1 988 0
 3775 01c4 8A4B     		ldr	r3, .L213
 3776 01c6 2422     		movs	r2, #36
 3777 01c8 9A70     		strb	r2, [r3, #2]
 989:L6470.c       ****                 USB_transmit[3] =  PCB_Busy>> 8; 
 3778              		.loc 1 989 0
 3779 01ca 894B     		ldr	r3, .L213
 3780 01cc FA22     		movs	r2, #250
 3781 01ce DA70     		strb	r2, [r3, #3]
 990:L6470.c       ****                 break;
 3782              		.loc 1 990 0
 3783 01d0 00BF     		nop
 3784              	.L188:
 991:L6470.c       ****             }
 992:L6470.c       ****         }
 993:L6470.c       ****     }
 994:L6470.c       ****     USB_transmit[4] = X_QuadPosition;
 3785              		.loc 1 994 0
 3786 01d2 884B     		ldr	r3, .L213+4
 3787 01d4 1B68     		ldr	r3, [r3]
ARM GAS  C:\Users\Admin\AppData\Local\Temp\ccb10png.s 			page 89


 3788 01d6 5AB2     		sxtb	r2, r3
 3789 01d8 854B     		ldr	r3, .L213
 3790 01da 1A71     		strb	r2, [r3, #4]
 995:L6470.c       ****     USB_transmit[5] = X_QuadPosition >> 8;
 3791              		.loc 1 995 0
 3792 01dc 854B     		ldr	r3, .L213+4
 3793 01de 1B68     		ldr	r3, [r3]
 3794 01e0 1B12     		asrs	r3, r3, #8
 3795 01e2 5AB2     		sxtb	r2, r3
 3796 01e4 824B     		ldr	r3, .L213
 3797 01e6 5A71     		strb	r2, [r3, #5]
 996:L6470.c       ****     USB_transmit[6] = X_QuadPosition >> 16;
 3798              		.loc 1 996 0
 3799 01e8 824B     		ldr	r3, .L213+4
 3800 01ea 1B68     		ldr	r3, [r3]
 3801 01ec 1B14     		asrs	r3, r3, #16
 3802 01ee 5AB2     		sxtb	r2, r3
 3803 01f0 7F4B     		ldr	r3, .L213
 3804 01f2 9A71     		strb	r2, [r3, #6]
 997:L6470.c       ****     USB_transmit[7] = X_QuadPosition >> 24;
 3805              		.loc 1 997 0
 3806 01f4 7F4B     		ldr	r3, .L213+4
 3807 01f6 1B68     		ldr	r3, [r3]
 3808 01f8 1B16     		asrs	r3, r3, #24
 3809 01fa 5AB2     		sxtb	r2, r3
 3810 01fc 7C4B     		ldr	r3, .L213
 3811 01fe DA71     		strb	r2, [r3, #7]
 998:L6470.c       ****     USB_transmit[8] = Y_QuadPosition;
 3812              		.loc 1 998 0
 3813 0200 7D4B     		ldr	r3, .L213+8
 3814 0202 1B68     		ldr	r3, [r3]
 3815 0204 5AB2     		sxtb	r2, r3
 3816 0206 7A4B     		ldr	r3, .L213
 3817 0208 1A72     		strb	r2, [r3, #8]
 999:L6470.c       ****     USB_transmit[9] = Y_QuadPosition >> 8;
 3818              		.loc 1 999 0
 3819 020a 7B4B     		ldr	r3, .L213+8
 3820 020c 1B68     		ldr	r3, [r3]
 3821 020e 1B12     		asrs	r3, r3, #8
 3822 0210 5AB2     		sxtb	r2, r3
 3823 0212 774B     		ldr	r3, .L213
 3824 0214 5A72     		strb	r2, [r3, #9]
1000:L6470.c       ****     USB_transmit[10] = Y_QuadPosition >> 16;
 3825              		.loc 1 1000 0
 3826 0216 784B     		ldr	r3, .L213+8
 3827 0218 1B68     		ldr	r3, [r3]
 3828 021a 1B14     		asrs	r3, r3, #16
 3829 021c 5AB2     		sxtb	r2, r3
 3830 021e 744B     		ldr	r3, .L213
 3831 0220 9A72     		strb	r2, [r3, #10]
1001:L6470.c       ****     USB_transmit[11] = Y_QuadPosition >> 24;
 3832              		.loc 1 1001 0
 3833 0222 754B     		ldr	r3, .L213+8
 3834 0224 1B68     		ldr	r3, [r3]
 3835 0226 1B16     		asrs	r3, r3, #24
 3836 0228 5AB2     		sxtb	r2, r3
 3837 022a 714B     		ldr	r3, .L213
ARM GAS  C:\Users\Admin\AppData\Local\Temp\ccb10png.s 			page 90


 3838 022c DA72     		strb	r2, [r3, #11]
1002:L6470.c       ****     USB_transmit[12] = Z_QuadPosition;
 3839              		.loc 1 1002 0
 3840 022e 734B     		ldr	r3, .L213+12
 3841 0230 1B68     		ldr	r3, [r3]
 3842 0232 5AB2     		sxtb	r2, r3
 3843 0234 6E4B     		ldr	r3, .L213
 3844 0236 1A73     		strb	r2, [r3, #12]
1003:L6470.c       ****     USB_transmit[13] = Z_QuadPosition >> 8;
 3845              		.loc 1 1003 0
 3846 0238 704B     		ldr	r3, .L213+12
 3847 023a 1B68     		ldr	r3, [r3]
 3848 023c 1B12     		asrs	r3, r3, #8
 3849 023e 5AB2     		sxtb	r2, r3
 3850 0240 6B4B     		ldr	r3, .L213
 3851 0242 5A73     		strb	r2, [r3, #13]
1004:L6470.c       ****     USB_transmit[14] = Z_QuadPosition >> 16;
 3852              		.loc 1 1004 0
 3853 0244 6D4B     		ldr	r3, .L213+12
 3854 0246 1B68     		ldr	r3, [r3]
 3855 0248 1B14     		asrs	r3, r3, #16
 3856 024a 5AB2     		sxtb	r2, r3
 3857 024c 684B     		ldr	r3, .L213
 3858 024e 9A73     		strb	r2, [r3, #14]
1005:L6470.c       ****     USB_transmit[15] = Z_QuadPosition >> 24;
 3859              		.loc 1 1005 0
 3860 0250 6A4B     		ldr	r3, .L213+12
 3861 0252 1B68     		ldr	r3, [r3]
 3862 0254 1B16     		asrs	r3, r3, #24
 3863 0256 5AB2     		sxtb	r2, r3
 3864 0258 654B     		ldr	r3, .L213
 3865 025a DA73     		strb	r2, [r3, #15]
1006:L6470.c       ****     USB_transmit[16] = 0;
 3866              		.loc 1 1006 0
 3867 025c 644B     		ldr	r3, .L213
 3868 025e 0022     		movs	r2, #0
 3869 0260 1A74     		strb	r2, [r3, #16]
1007:L6470.c       ****     USB_transmit[17] = 0;
 3870              		.loc 1 1007 0
 3871 0262 634B     		ldr	r3, .L213
 3872 0264 0022     		movs	r2, #0
 3873 0266 5A74     		strb	r2, [r3, #17]
1008:L6470.c       ****     USB_transmit[18] = 0;
 3874              		.loc 1 1008 0
 3875 0268 614B     		ldr	r3, .L213
 3876 026a 0022     		movs	r2, #0
 3877 026c 9A74     		strb	r2, [r3, #18]
1009:L6470.c       ****     USB_transmit[19] = 0;
 3878              		.loc 1 1009 0
 3879 026e 604B     		ldr	r3, .L213
 3880 0270 0022     		movs	r2, #0
 3881 0272 DA74     		strb	r2, [r3, #19]
1010:L6470.c       ****     USB_transmit[20] = 0;
 3882              		.loc 1 1010 0
 3883 0274 5E4B     		ldr	r3, .L213
 3884 0276 0022     		movs	r2, #0
 3885 0278 1A75     		strb	r2, [r3, #20]
ARM GAS  C:\Users\Admin\AppData\Local\Temp\ccb10png.s 			page 91


1011:L6470.c       ****     USB_transmit[21] = 0;
 3886              		.loc 1 1011 0
 3887 027a 5D4B     		ldr	r3, .L213
 3888 027c 0022     		movs	r2, #0
 3889 027e 5A75     		strb	r2, [r3, #21]
1012:L6470.c       ****     USB_transmit[22] = 0;
 3890              		.loc 1 1012 0
 3891 0280 5B4B     		ldr	r3, .L213
 3892 0282 0022     		movs	r2, #0
 3893 0284 9A75     		strb	r2, [r3, #22]
1013:L6470.c       ****     USB_transmit[23] = 0;
 3894              		.loc 1 1013 0
 3895 0286 5A4B     		ldr	r3, .L213
 3896 0288 0022     		movs	r2, #0
 3897 028a DA75     		strb	r2, [r3, #23]
1014:L6470.c       ****     USB_transmit[24] = 0;
 3898              		.loc 1 1014 0
 3899 028c 584B     		ldr	r3, .L213
 3900 028e 0022     		movs	r2, #0
 3901 0290 1A76     		strb	r2, [r3, #24]
1015:L6470.c       ****     USB_transmit[25] = 0;
 3902              		.loc 1 1015 0
 3903 0292 574B     		ldr	r3, .L213
 3904 0294 0022     		movs	r2, #0
 3905 0296 5A76     		strb	r2, [r3, #25]
1016:L6470.c       ****     USB_transmit[26] = 0;
 3906              		.loc 1 1016 0
 3907 0298 554B     		ldr	r3, .L213
 3908 029a 0022     		movs	r2, #0
 3909 029c 9A76     		strb	r2, [r3, #26]
1017:L6470.c       ****     USB_transmit[27] = 0;
 3910              		.loc 1 1017 0
 3911 029e 544B     		ldr	r3, .L213
 3912 02a0 0022     		movs	r2, #0
 3913 02a2 DA76     		strb	r2, [r3, #27]
1018:L6470.c       ****     USB_transmit[28] = PWM_comare_value;
 3914              		.loc 1 1018 0
 3915 02a4 564B     		ldr	r3, .L213+16
 3916 02a6 1B68     		ldr	r3, [r3]
 3917 02a8 5AB2     		sxtb	r2, r3
 3918 02aa 514B     		ldr	r3, .L213
 3919 02ac 1A77     		strb	r2, [r3, #28]
1019:L6470.c       ****     USB_transmit[29] = PWM_comare_value >> 8;
 3920              		.loc 1 1019 0
 3921 02ae 544B     		ldr	r3, .L213+16
 3922 02b0 1B68     		ldr	r3, [r3]
 3923 02b2 1B12     		asrs	r3, r3, #8
 3924 02b4 5AB2     		sxtb	r2, r3
 3925 02b6 4E4B     		ldr	r3, .L213
 3926 02b8 5A77     		strb	r2, [r3, #29]
1020:L6470.c       ****     USB_transmit[30] = 0;
 3927              		.loc 1 1020 0
 3928 02ba 4D4B     		ldr	r3, .L213
 3929 02bc 0022     		movs	r2, #0
 3930 02be 9A77     		strb	r2, [r3, #30]
1021:L6470.c       ****     USB_transmit[31] = 0;
 3931              		.loc 1 1021 0
ARM GAS  C:\Users\Admin\AppData\Local\Temp\ccb10png.s 			page 92


 3932 02c0 4B4B     		ldr	r3, .L213
 3933 02c2 0022     		movs	r2, #0
 3934 02c4 DA77     		strb	r2, [r3, #31]
1022:L6470.c       ****     USB_transmit[32] = 0;
 3935              		.loc 1 1022 0
 3936 02c6 4A4B     		ldr	r3, .L213
 3937 02c8 0022     		movs	r2, #0
 3938 02ca 83F82020 		strb	r2, [r3, #32]
1023:L6470.c       ****     USB_transmit[33] = 0;
 3939              		.loc 1 1023 0
 3940 02ce 484B     		ldr	r3, .L213
 3941 02d0 0022     		movs	r2, #0
 3942 02d2 83F82120 		strb	r2, [r3, #33]
1024:L6470.c       ****     USB_transmit[34] = 0;
 3943              		.loc 1 1024 0
 3944 02d6 464B     		ldr	r3, .L213
 3945 02d8 0022     		movs	r2, #0
 3946 02da 83F82220 		strb	r2, [r3, #34]
1025:L6470.c       ****     USB_transmit[35] = 0;
 3947              		.loc 1 1025 0
 3948 02de 444B     		ldr	r3, .L213
 3949 02e0 0022     		movs	r2, #0
 3950 02e2 83F82320 		strb	r2, [r3, #35]
1026:L6470.c       ****     USB_transmit[36] = Motor_Speed_X;
 3951              		.loc 1 1026 0
 3952 02e6 474B     		ldr	r3, .L213+20
 3953 02e8 1B68     		ldr	r3, [r3]
 3954 02ea 5AB2     		sxtb	r2, r3
 3955 02ec 404B     		ldr	r3, .L213
 3956 02ee 83F82420 		strb	r2, [r3, #36]
1027:L6470.c       ****     USB_transmit[37] = Motor_Speed_X >> 8;
 3957              		.loc 1 1027 0
 3958 02f2 444B     		ldr	r3, .L213+20
 3959 02f4 1B68     		ldr	r3, [r3]
 3960 02f6 1B0A     		lsrs	r3, r3, #8
 3961 02f8 5AB2     		sxtb	r2, r3
 3962 02fa 3D4B     		ldr	r3, .L213
 3963 02fc 83F82520 		strb	r2, [r3, #37]
1028:L6470.c       ****     USB_transmit[38] = Motor_Speed_Y;
 3964              		.loc 1 1028 0
 3965 0300 414B     		ldr	r3, .L213+24
 3966 0302 1B68     		ldr	r3, [r3]
 3967 0304 5AB2     		sxtb	r2, r3
 3968 0306 3A4B     		ldr	r3, .L213
 3969 0308 83F82620 		strb	r2, [r3, #38]
1029:L6470.c       ****     USB_transmit[39] = Motor_Speed_Y >> 8;
 3970              		.loc 1 1029 0
 3971 030c 3E4B     		ldr	r3, .L213+24
 3972 030e 1B68     		ldr	r3, [r3]
 3973 0310 1B0A     		lsrs	r3, r3, #8
 3974 0312 5AB2     		sxtb	r2, r3
 3975 0314 364B     		ldr	r3, .L213
 3976 0316 83F82720 		strb	r2, [r3, #39]
1030:L6470.c       ****     USB_transmit[40] = Motor_Speed_Z;
 3977              		.loc 1 1030 0
 3978 031a 3C4B     		ldr	r3, .L213+28
 3979 031c 1B68     		ldr	r3, [r3]
ARM GAS  C:\Users\Admin\AppData\Local\Temp\ccb10png.s 			page 93


 3980 031e 5AB2     		sxtb	r2, r3
 3981 0320 334B     		ldr	r3, .L213
 3982 0322 83F82820 		strb	r2, [r3, #40]
1031:L6470.c       ****     USB_transmit[41] = Motor_Speed_Z >> 8;
 3983              		.loc 1 1031 0
 3984 0326 394B     		ldr	r3, .L213+28
 3985 0328 1B68     		ldr	r3, [r3]
 3986 032a 1B0A     		lsrs	r3, r3, #8
 3987 032c 5AB2     		sxtb	r2, r3
 3988 032e 304B     		ldr	r3, .L213
 3989 0330 83F82920 		strb	r2, [r3, #41]
1032:L6470.c       ****     USB_transmit[42] = 0;
 3990              		.loc 1 1032 0
 3991 0334 2E4B     		ldr	r3, .L213
 3992 0336 0022     		movs	r2, #0
 3993 0338 83F82A20 		strb	r2, [r3, #42]
1033:L6470.c       ****     USB_transmit[43] = 0;
 3994              		.loc 1 1033 0
 3995 033c 2C4B     		ldr	r3, .L213
 3996 033e 0022     		movs	r2, #0
 3997 0340 83F82B20 		strb	r2, [r3, #43]
1034:L6470.c       ****     USB_transmit[44] = 0;
 3998              		.loc 1 1034 0
 3999 0344 2A4B     		ldr	r3, .L213
 4000 0346 0022     		movs	r2, #0
 4001 0348 83F82C20 		strb	r2, [r3, #44]
1035:L6470.c       ****     USB_transmit[45] = No_of_X_Cycle;
 4002              		.loc 1 1035 0
 4003 034c 304B     		ldr	r3, .L213+32
 4004 034e 1B68     		ldr	r3, [r3]
 4005 0350 5AB2     		sxtb	r2, r3
 4006 0352 274B     		ldr	r3, .L213
 4007 0354 83F82D20 		strb	r2, [r3, #45]
1036:L6470.c       ****     USB_transmit[46] = No_of_Y_Cycle;
 4008              		.loc 1 1036 0
 4009 0358 2E4B     		ldr	r3, .L213+36
 4010 035a 1B68     		ldr	r3, [r3]
 4011 035c 5AB2     		sxtb	r2, r3
 4012 035e 244B     		ldr	r3, .L213
 4013 0360 83F82E20 		strb	r2, [r3, #46]
1037:L6470.c       ****     USB_transmit[47] = No_of_Z_Cycle;
 4014              		.loc 1 1037 0
 4015 0364 2C4B     		ldr	r3, .L213+40
 4016 0366 1B68     		ldr	r3, [r3]
 4017 0368 5AB2     		sxtb	r2, r3
 4018 036a 214B     		ldr	r3, .L213
 4019 036c 83F82F20 		strb	r2, [r3, #47]
1038:L6470.c       ****     USB_transmit[48] = 0;
 4020              		.loc 1 1038 0
 4021 0370 1F4B     		ldr	r3, .L213
 4022 0372 0022     		movs	r2, #0
 4023 0374 83F83020 		strb	r2, [r3, #48]
1039:L6470.c       ****     USB_transmit[49] = 0;
 4024              		.loc 1 1039 0
 4025 0378 1D4B     		ldr	r3, .L213
 4026 037a 0022     		movs	r2, #0
 4027 037c 83F83120 		strb	r2, [r3, #49]
ARM GAS  C:\Users\Admin\AppData\Local\Temp\ccb10png.s 			page 94


1040:L6470.c       ****     USB_transmit[50] = 0;
 4028              		.loc 1 1040 0
 4029 0380 1B4B     		ldr	r3, .L213
 4030 0382 0022     		movs	r2, #0
 4031 0384 83F83220 		strb	r2, [r3, #50]
1041:L6470.c       ****     USB_transmit[51] = 0;
 4032              		.loc 1 1041 0
 4033 0388 194B     		ldr	r3, .L213
 4034 038a 0022     		movs	r2, #0
 4035 038c 83F83320 		strb	r2, [r3, #51]
1042:L6470.c       ****     
1043:L6470.c       ****     USB_transmit[52] = PCB_ID;
 4036              		.loc 1 1043 0
 4037 0390 174B     		ldr	r3, .L213
 4038 0392 0022     		movs	r2, #0
 4039 0394 83F83420 		strb	r2, [r3, #52]
1044:L6470.c       ****     USB_transmit[53] = PCB_ID >> 8;
 4040              		.loc 1 1044 0
 4041 0398 154B     		ldr	r3, .L213
 4042 039a 0022     		movs	r2, #0
 4043 039c 83F83520 		strb	r2, [r3, #53]
1045:L6470.c       ****     USB_transmit[54] = PCB_ID >> 16;
 4044              		.loc 1 1045 0
 4045 03a0 134B     		ldr	r3, .L213
 4046 03a2 0022     		movs	r2, #0
 4047 03a4 83F83620 		strb	r2, [r3, #54]
1046:L6470.c       ****     USB_transmit[55] = PCB_ID >> 24;
 4048              		.loc 1 1046 0
 4049 03a8 114B     		ldr	r3, .L213
 4050 03aa 0022     		movs	r2, #0
 4051 03ac 83F83720 		strb	r2, [r3, #55]
1047:L6470.c       ****     USB_transmit[56] = Firmware_Version;
 4052              		.loc 1 1047 0
 4053 03b0 0F4B     		ldr	r3, .L213
 4054 03b2 1922     		movs	r2, #25
 4055 03b4 83F83820 		strb	r2, [r3, #56]
1048:L6470.c       ****     USB_transmit[57] = 0;
 4056              		.loc 1 1048 0
 4057 03b8 0D4B     		ldr	r3, .L213
 4058 03ba 0022     		movs	r2, #0
 4059 03bc 83F83920 		strb	r2, [r3, #57]
1049:L6470.c       ****     
1050:L6470.c       ****     No_of_X_Cycle = 0;
 4060              		.loc 1 1050 0
 4061 03c0 134B     		ldr	r3, .L213+32
 4062 03c2 0022     		movs	r2, #0
 4063 03c4 1A60     		str	r2, [r3]
1051:L6470.c       ****     No_of_Y_Cycle = 0;
 4064              		.loc 1 1051 0
 4065 03c6 134B     		ldr	r3, .L213+36
 4066 03c8 0022     		movs	r2, #0
 4067 03ca 1A60     		str	r2, [r3]
1052:L6470.c       ****     No_of_Z_Cycle = 0;
 4068              		.loc 1 1052 0
 4069 03cc 124B     		ldr	r3, .L213+40
 4070 03ce 0022     		movs	r2, #0
 4071 03d0 1A60     		str	r2, [r3]
ARM GAS  C:\Users\Admin\AppData\Local\Temp\ccb10png.s 			page 95


1053:L6470.c       ****     Write_Debug_UART_Char("Feedback Sent to Motherboard  \r\n");
 4072              		.loc 1 1053 0
 4073 03d2 1248     		ldr	r0, .L213+44
 4074 03d4 FFF7FEFF 		bl	Write_Debug_UART_Char
1054:L6470.c       ****     Clear_USB_RX_Buffer();/* Clear all pending USB command. */
 4075              		.loc 1 1054 0
 4076 03d8 FFF7FEFF 		bl	Clear_USB_RX_Buffer
1055:L6470.c       ****     Clear_Pending_USB_Data();
 4077              		.loc 1 1055 0
 4078 03dc FFF7FEFF 		bl	Clear_Pending_USB_Data
1056:L6470.c       ****     USB_PutData(USB_transmit, 58);  //send data back to usb
 4079              		.loc 1 1056 0
 4080 03e0 3A21     		movs	r1, #58
 4081 03e2 0348     		ldr	r0, .L213
 4082 03e4 FFF7FEFF 		bl	USB_PutData
1057:L6470.c       **** }
 4083              		.loc 1 1057 0
 4084 03e8 00BF     		nop
 4085 03ea 0837     		adds	r7, r7, #8
 4086              		.cfi_def_cfa_offset 8
 4087 03ec BD46     		mov	sp, r7
 4088              		.cfi_def_cfa_register 13
 4089              		@ sp needed
 4090 03ee 80BD     		pop	{r7, pc}
 4091              	.L214:
 4092              		.align	2
 4093              	.L213:
 4094 03f0 00000000 		.word	USB_transmit
 4095 03f4 00000000 		.word	X_QuadPosition
 4096 03f8 00000000 		.word	Y_QuadPosition
 4097 03fc 00000000 		.word	Z_QuadPosition
 4098 0400 00000000 		.word	PWM_comare_value
 4099 0404 00000000 		.word	Motor_Speed_X
 4100 0408 00000000 		.word	Motor_Speed_Y
 4101 040c 00000000 		.word	Motor_Speed_Z
 4102 0410 00000000 		.word	No_of_X_Cycle
 4103 0414 00000000 		.word	No_of_Y_Cycle
 4104 0418 00000000 		.word	No_of_Z_Cycle
 4105 041c 20080000 		.word	.LC56
 4106              		.cfi_endproc
 4107              	.LFE81:
 4108              		.size	Send_Feedback_to_USB, .-Send_Feedback_to_USB
 4109              		.section	.text.USB_Detect_Indication_Via_LED,"ax",%progbits
 4110              		.align	2
 4111              		.global	USB_Detect_Indication_Via_LED
 4112              		.thumb
 4113              		.thumb_func
 4114              		.type	USB_Detect_Indication_Via_LED, %function
 4115              	USB_Detect_Indication_Via_LED:
 4116              	.LFB82:
1058:L6470.c       **** void USB_Detect_Indication_Via_LED()/* LED Indicator for USB detection. */
1059:L6470.c       **** {
 4117              		.loc 1 1059 0
 4118              		.cfi_startproc
 4119              		@ args = 0, pretend = 0, frame = 0
 4120              		@ frame_needed = 1, uses_anonymous_args = 0
 4121 0000 80B5     		push	{r7, lr}
ARM GAS  C:\Users\Admin\AppData\Local\Temp\ccb10png.s 			page 96


 4122              		.cfi_def_cfa_offset 8
 4123              		.cfi_offset 7, -8
 4124              		.cfi_offset 14, -4
 4125 0002 00AF     		add	r7, sp, #0
 4126              		.cfi_def_cfa_register 7
1060:L6470.c       ****     /* Turn On and Off LED to indicate USB detected.*/
1061:L6470.c       ****     Pin_USB_RX_TX_Indicator_LED_Write(1);
 4127              		.loc 1 1061 0
 4128 0004 0120     		movs	r0, #1
 4129 0006 FFF7FEFF 		bl	Pin_USB_RX_TX_Indicator_LED_Write
1062:L6470.c       ****     CyDelay(30);
 4130              		.loc 1 1062 0
 4131 000a 1E20     		movs	r0, #30
 4132 000c FFF7FEFF 		bl	CyDelay
1063:L6470.c       ****     Pin_USB_RX_TX_Indicator_LED_Write(0);
 4133              		.loc 1 1063 0
 4134 0010 0020     		movs	r0, #0
 4135 0012 FFF7FEFF 		bl	Pin_USB_RX_TX_Indicator_LED_Write
1064:L6470.c       ****     CyDelay(30);
 4136              		.loc 1 1064 0
 4137 0016 1E20     		movs	r0, #30
 4138 0018 FFF7FEFF 		bl	CyDelay
1065:L6470.c       ****     Pin_USB_RX_TX_Indicator_LED_Write(1);
 4139              		.loc 1 1065 0
 4140 001c 0120     		movs	r0, #1
 4141 001e FFF7FEFF 		bl	Pin_USB_RX_TX_Indicator_LED_Write
1066:L6470.c       ****     CyDelay(30);
 4142              		.loc 1 1066 0
 4143 0022 1E20     		movs	r0, #30
 4144 0024 FFF7FEFF 		bl	CyDelay
1067:L6470.c       ****     Pin_USB_RX_TX_Indicator_LED_Write(0);
 4145              		.loc 1 1067 0
 4146 0028 0020     		movs	r0, #0
 4147 002a FFF7FEFF 		bl	Pin_USB_RX_TX_Indicator_LED_Write
1068:L6470.c       ****     CyDelay(30);
 4148              		.loc 1 1068 0
 4149 002e 1E20     		movs	r0, #30
 4150 0030 FFF7FEFF 		bl	CyDelay
1069:L6470.c       ****     Pin_USB_RX_TX_Indicator_LED_Write(1);
 4151              		.loc 1 1069 0
 4152 0034 0120     		movs	r0, #1
 4153 0036 FFF7FEFF 		bl	Pin_USB_RX_TX_Indicator_LED_Write
1070:L6470.c       ****     CyDelay(30);
 4154              		.loc 1 1070 0
 4155 003a 1E20     		movs	r0, #30
 4156 003c FFF7FEFF 		bl	CyDelay
1071:L6470.c       ****     Pin_USB_RX_TX_Indicator_LED_Write(0);
 4157              		.loc 1 1071 0
 4158 0040 0020     		movs	r0, #0
 4159 0042 FFF7FEFF 		bl	Pin_USB_RX_TX_Indicator_LED_Write
1072:L6470.c       ****     CyDelay(30);
 4160              		.loc 1 1072 0
 4161 0046 1E20     		movs	r0, #30
 4162 0048 FFF7FEFF 		bl	CyDelay
1073:L6470.c       ****     Pin_USB_RX_TX_Indicator_LED_Write(1);
 4163              		.loc 1 1073 0
 4164 004c 0120     		movs	r0, #1
ARM GAS  C:\Users\Admin\AppData\Local\Temp\ccb10png.s 			page 97


 4165 004e FFF7FEFF 		bl	Pin_USB_RX_TX_Indicator_LED_Write
1074:L6470.c       ****     CyDelay(30);
 4166              		.loc 1 1074 0
 4167 0052 1E20     		movs	r0, #30
 4168 0054 FFF7FEFF 		bl	CyDelay
1075:L6470.c       ****     Pin_USB_RX_TX_Indicator_LED_Write(0);
 4169              		.loc 1 1075 0
 4170 0058 0020     		movs	r0, #0
 4171 005a FFF7FEFF 		bl	Pin_USB_RX_TX_Indicator_LED_Write
1076:L6470.c       ****     CyDelay(30);
 4172              		.loc 1 1076 0
 4173 005e 1E20     		movs	r0, #30
 4174 0060 FFF7FEFF 		bl	CyDelay
1077:L6470.c       ****     Pin_USB_RX_TX_Indicator_LED_Write(1);
 4175              		.loc 1 1077 0
 4176 0064 0120     		movs	r0, #1
 4177 0066 FFF7FEFF 		bl	Pin_USB_RX_TX_Indicator_LED_Write
1078:L6470.c       ****     CyDelay(30);
 4178              		.loc 1 1078 0
 4179 006a 1E20     		movs	r0, #30
 4180 006c FFF7FEFF 		bl	CyDelay
1079:L6470.c       ****     Pin_USB_RX_TX_Indicator_LED_Write(0);
 4181              		.loc 1 1079 0
 4182 0070 0020     		movs	r0, #0
 4183 0072 FFF7FEFF 		bl	Pin_USB_RX_TX_Indicator_LED_Write
1080:L6470.c       ****     CyDelay(30);
 4184              		.loc 1 1080 0
 4185 0076 1E20     		movs	r0, #30
 4186 0078 FFF7FEFF 		bl	CyDelay
1081:L6470.c       ****     Pin_USB_RX_TX_Indicator_LED_Write(1);
 4187              		.loc 1 1081 0
 4188 007c 0120     		movs	r0, #1
 4189 007e FFF7FEFF 		bl	Pin_USB_RX_TX_Indicator_LED_Write
1082:L6470.c       ****     CyDelay(30);
 4190              		.loc 1 1082 0
 4191 0082 1E20     		movs	r0, #30
 4192 0084 FFF7FEFF 		bl	CyDelay
1083:L6470.c       ****     Pin_USB_RX_TX_Indicator_LED_Write(0);
 4193              		.loc 1 1083 0
 4194 0088 0020     		movs	r0, #0
 4195 008a FFF7FEFF 		bl	Pin_USB_RX_TX_Indicator_LED_Write
1084:L6470.c       ****     CyDelay(30);
 4196              		.loc 1 1084 0
 4197 008e 1E20     		movs	r0, #30
 4198 0090 FFF7FEFF 		bl	CyDelay
1085:L6470.c       ****     Pin_USB_RX_TX_Indicator_LED_Write(1);
 4199              		.loc 1 1085 0
 4200 0094 0120     		movs	r0, #1
 4201 0096 FFF7FEFF 		bl	Pin_USB_RX_TX_Indicator_LED_Write
1086:L6470.c       ****     CyDelay(30);
 4202              		.loc 1 1086 0
 4203 009a 1E20     		movs	r0, #30
 4204 009c FFF7FEFF 		bl	CyDelay
1087:L6470.c       ****     Pin_USB_RX_TX_Indicator_LED_Write(0);
 4205              		.loc 1 1087 0
 4206 00a0 0020     		movs	r0, #0
 4207 00a2 FFF7FEFF 		bl	Pin_USB_RX_TX_Indicator_LED_Write
ARM GAS  C:\Users\Admin\AppData\Local\Temp\ccb10png.s 			page 98


1088:L6470.c       ****     CyDelay(30);
 4208              		.loc 1 1088 0
 4209 00a6 1E20     		movs	r0, #30
 4210 00a8 FFF7FEFF 		bl	CyDelay
1089:L6470.c       ****     Pin_USB_RX_TX_Indicator_LED_Write(1);
 4211              		.loc 1 1089 0
 4212 00ac 0120     		movs	r0, #1
 4213 00ae FFF7FEFF 		bl	Pin_USB_RX_TX_Indicator_LED_Write
1090:L6470.c       ****     CyDelay(30);
 4214              		.loc 1 1090 0
 4215 00b2 1E20     		movs	r0, #30
 4216 00b4 FFF7FEFF 		bl	CyDelay
1091:L6470.c       ****     Pin_USB_RX_TX_Indicator_LED_Write(0);
 4217              		.loc 1 1091 0
 4218 00b8 0020     		movs	r0, #0
 4219 00ba FFF7FEFF 		bl	Pin_USB_RX_TX_Indicator_LED_Write
1092:L6470.c       ****     CyDelay(30);
 4220              		.loc 1 1092 0
 4221 00be 1E20     		movs	r0, #30
 4222 00c0 FFF7FEFF 		bl	CyDelay
1093:L6470.c       ****     Pin_USB_RX_TX_Indicator_LED_Write(1);
 4223              		.loc 1 1093 0
 4224 00c4 0120     		movs	r0, #1
 4225 00c6 FFF7FEFF 		bl	Pin_USB_RX_TX_Indicator_LED_Write
1094:L6470.c       ****     CyDelay(30);
 4226              		.loc 1 1094 0
 4227 00ca 1E20     		movs	r0, #30
 4228 00cc FFF7FEFF 		bl	CyDelay
1095:L6470.c       ****     Pin_USB_RX_TX_Indicator_LED_Write(0);
 4229              		.loc 1 1095 0
 4230 00d0 0020     		movs	r0, #0
 4231 00d2 FFF7FEFF 		bl	Pin_USB_RX_TX_Indicator_LED_Write
1096:L6470.c       ****     CyDelay(30);
 4232              		.loc 1 1096 0
 4233 00d6 1E20     		movs	r0, #30
 4234 00d8 FFF7FEFF 		bl	CyDelay
1097:L6470.c       ****     Pin_USB_RX_TX_Indicator_LED_Write(1);
 4235              		.loc 1 1097 0
 4236 00dc 0120     		movs	r0, #1
 4237 00de FFF7FEFF 		bl	Pin_USB_RX_TX_Indicator_LED_Write
1098:L6470.c       ****     CyDelay(30);
 4238              		.loc 1 1098 0
 4239 00e2 1E20     		movs	r0, #30
 4240 00e4 FFF7FEFF 		bl	CyDelay
1099:L6470.c       ****     Pin_USB_RX_TX_Indicator_LED_Write(0);
 4241              		.loc 1 1099 0
 4242 00e8 0020     		movs	r0, #0
 4243 00ea FFF7FEFF 		bl	Pin_USB_RX_TX_Indicator_LED_Write
1100:L6470.c       **** }
 4244              		.loc 1 1100 0
 4245 00ee 00BF     		nop
 4246 00f0 80BD     		pop	{r7, pc}
 4247              		.cfi_endproc
 4248              	.LFE82:
 4249              		.size	USB_Detect_Indication_Via_LED, .-USB_Detect_Indication_Via_LED
 4250 00f2 00BF     		.section	.rodata
 4251 0841 000000   		.align	2
ARM GAS  C:\Users\Admin\AppData\Local\Temp\ccb10png.s 			page 99


 4252              	.LC57:
 4253 0844 55534220 		.ascii	"USB not Connected***********  \015\012\000"
 4253      6E6F7420 
 4253      436F6E6E 
 4253      65637465 
 4253      642A2A2A 
 4254 0865 000000   		.align	2
 4255              	.LC58:
 4256 0868 55534220 		.ascii	"USB Connected  \015\012\000"
 4256      436F6E6E 
 4256      65637465 
 4256      6420200D 
 4256      0A00
 4257              		.section	.text.Initialize_USB,"ax",%progbits
 4258              		.align	2
 4259              		.global	Initialize_USB
 4260              		.thumb
 4261              		.thumb_func
 4262              		.type	Initialize_USB, %function
 4263              	Initialize_USB:
 4264              	.LFB83:
1101:L6470.c       **** void Initialize_USB()/* Start the USB. */
1102:L6470.c       **** {
 4265              		.loc 1 1102 0
 4266              		.cfi_startproc
 4267              		@ args = 0, pretend = 0, frame = 0
 4268              		@ frame_needed = 1, uses_anonymous_args = 0
 4269 0000 80B5     		push	{r7, lr}
 4270              		.cfi_def_cfa_offset 8
 4271              		.cfi_offset 7, -8
 4272              		.cfi_offset 14, -4
 4273 0002 00AF     		add	r7, sp, #0
 4274              		.cfi_def_cfa_register 7
1103:L6470.c       ****     USB_Start(0, USB_5V_OPERATION);   
 4275              		.loc 1 1103 0
 4276 0004 0121     		movs	r1, #1
 4277 0006 0020     		movs	r0, #0
 4278 0008 FFF7FEFF 		bl	USB_Start
1104:L6470.c       ****     while (0 == USB_GetConfiguration()) /* wait untill USB not found. */
 4279              		.loc 1 1104 0
 4280 000c 05E0     		b	.L217
 4281              	.L218:
1105:L6470.c       ****     {
1106:L6470.c       ****         Write_Debug_UART_Char("USB not Connected***********  \r\n");
 4282              		.loc 1 1106 0
 4283 000e 0A48     		ldr	r0, .L219
 4284 0010 FFF7FEFF 		bl	Write_Debug_UART_Char
1107:L6470.c       ****         CyDelayUs(1);
 4285              		.loc 1 1107 0
 4286 0014 0120     		movs	r0, #1
 4287 0016 FFF7FEFF 		bl	CyDelayUs
 4288              	.L217:
1104:L6470.c       ****     while (0 == USB_GetConfiguration()) /* wait untill USB not found. */
 4289              		.loc 1 1104 0
 4290 001a FFF7FEFF 		bl	USB_GetConfiguration
 4291 001e 0346     		mov	r3, r0
 4292 0020 002B     		cmp	r3, #0
ARM GAS  C:\Users\Admin\AppData\Local\Temp\ccb10png.s 			page 100


 4293 0022 F4D0     		beq	.L218
1108:L6470.c       ****     }
1109:L6470.c       ****     USB_CDC_Init();
 4294              		.loc 1 1109 0
 4295 0024 FFF7FEFF 		bl	USB_CDC_Init
1110:L6470.c       ****     Write_Debug_UART_Char("USB Connected  \r\n");
 4296              		.loc 1 1110 0
 4297 0028 0448     		ldr	r0, .L219+4
 4298 002a FFF7FEFF 		bl	Write_Debug_UART_Char
1111:L6470.c       ****     USB_EnableSofInt();  
 4299              		.loc 1 1111 0
 4300 002e FFF7FEFF 		bl	USB_EnableSofInt
1112:L6470.c       **** }
 4301              		.loc 1 1112 0
 4302 0032 00BF     		nop
 4303 0034 80BD     		pop	{r7, pc}
 4304              	.L220:
 4305 0036 00BF     		.align	2
 4306              	.L219:
 4307 0038 44080000 		.word	.LC57
 4308 003c 68080000 		.word	.LC58
 4309              		.cfi_endproc
 4310              	.LFE83:
 4311              		.size	Initialize_USB, .-Initialize_USB
 4312              		.section	.rodata
 4313 087a 0000     		.align	2
 4314              	.LC59:
 4315 087c 55534220 		.ascii	"USB Unpluged PCB resetting ***********  \015\012\000"
 4315      556E706C 
 4315      75676564 
 4315      20504342 
 4315      20726573 
 4316              		.section	.text.Is_USB_Unpluged,"ax",%progbits
 4317              		.align	2
 4318              		.global	Is_USB_Unpluged
 4319              		.thumb
 4320              		.thumb_func
 4321              		.type	Is_USB_Unpluged, %function
 4322              	Is_USB_Unpluged:
 4323              	.LFB84:
1113:L6470.c       **** void Is_USB_Unpluged()/* Check for changes in USB port reset if USB changes. */
1114:L6470.c       **** {
 4324              		.loc 1 1114 0
 4325              		.cfi_startproc
 4326              		@ args = 0, pretend = 0, frame = 0
 4327              		@ frame_needed = 1, uses_anonymous_args = 0
 4328 0000 80B5     		push	{r7, lr}
 4329              		.cfi_def_cfa_offset 8
 4330              		.cfi_offset 7, -8
 4331              		.cfi_offset 14, -4
 4332 0002 00AF     		add	r7, sp, #0
 4333              		.cfi_def_cfa_register 7
1115:L6470.c       ****    static bool dont_Execute_1st_Time=false;
1116:L6470.c       ****    if(USB_IsConfigurationChanged() != 0)
 4334              		.loc 1 1116 0
 4335 0004 FFF7FEFF 		bl	USB_IsConfigurationChanged
 4336 0008 0346     		mov	r3, r0
ARM GAS  C:\Users\Admin\AppData\Local\Temp\ccb10png.s 			page 101


 4337 000a 002B     		cmp	r3, #0
 4338 000c 15D0     		beq	.L224
1117:L6470.c       ****    {
1118:L6470.c       ****        if(USB_GetConfiguration() != 0)
 4339              		.loc 1 1118 0
 4340 000e FFF7FEFF 		bl	USB_GetConfiguration
 4341 0012 0346     		mov	r3, r0
 4342 0014 002B     		cmp	r3, #0
 4343 0016 10D0     		beq	.L224
1119:L6470.c       ****        {
1120:L6470.c       ****             if(dont_Execute_1st_Time)/* Ignore for the first time. */
 4344              		.loc 1 1120 0
 4345 0018 094B     		ldr	r3, .L225
 4346 001a 1B78     		ldrb	r3, [r3]	@ zero_extendqisi2
 4347 001c 002B     		cmp	r3, #0
 4348 001e 09D0     		beq	.L223
1121:L6470.c       ****             {
1122:L6470.c       ****                 Write_Debug_UART_Char("USB Unpluged PCB resetting ***********  \r\n");
 4349              		.loc 1 1122 0
 4350 0020 0848     		ldr	r0, .L225+4
 4351 0022 FFF7FEFF 		bl	Write_Debug_UART_Char
1123:L6470.c       ****                 UART_print_all_values();
 4352              		.loc 1 1123 0
 4353 0026 FFF7FEFF 		bl	UART_print_all_values
1124:L6470.c       ****                 CyDelay(1);
 4354              		.loc 1 1124 0
 4355 002a 0120     		movs	r0, #1
 4356 002c FFF7FEFF 		bl	CyDelay
1125:L6470.c       ****                 CySoftwareReset();
 4357              		.loc 1 1125 0
 4358 0030 FFF7FEFF 		bl	CySoftwareReset
 4359              	.L223:
1126:L6470.c       ****             }
1127:L6470.c       ****             dont_Execute_1st_Time = true;
 4360              		.loc 1 1127 0
 4361 0034 024B     		ldr	r3, .L225
 4362 0036 0122     		movs	r2, #1
 4363 0038 1A70     		strb	r2, [r3]
 4364              	.L224:
1128:L6470.c       ****        }
1129:L6470.c       ****    }  
1130:L6470.c       **** }
 4365              		.loc 1 1130 0
 4366 003a 00BF     		nop
 4367 003c 80BD     		pop	{r7, pc}
 4368              	.L226:
 4369 003e 00BF     		.align	2
 4370              	.L225:
 4371 0040 54000000 		.word	dont_Execute_1st_Time.8895
 4372 0044 7C080000 		.word	.LC59
 4373              		.cfi_endproc
 4374              	.LFE84:
 4375              		.size	Is_USB_Unpluged, .-Is_USB_Unpluged
 4376              		.section	.text.Clear_USB_RX_Buffer,"ax",%progbits
 4377              		.align	2
 4378              		.global	Clear_USB_RX_Buffer
 4379              		.thumb
ARM GAS  C:\Users\Admin\AppData\Local\Temp\ccb10png.s 			page 102


 4380              		.thumb_func
 4381              		.type	Clear_USB_RX_Buffer, %function
 4382              	Clear_USB_RX_Buffer:
 4383              	.LFB85:
1131:L6470.c       **** void Clear_USB_RX_Buffer()/* Initialize all USB_received 64 bits to 0. */
1132:L6470.c       **** {
 4384              		.loc 1 1132 0
 4385              		.cfi_startproc
 4386              		@ args = 0, pretend = 0, frame = 8
 4387              		@ frame_needed = 1, uses_anonymous_args = 0
 4388              		@ link register save eliminated.
 4389 0000 80B4     		push	{r7}
 4390              		.cfi_def_cfa_offset 4
 4391              		.cfi_offset 7, -4
 4392 0002 83B0     		sub	sp, sp, #12
 4393              		.cfi_def_cfa_offset 16
 4394 0004 00AF     		add	r7, sp, #0
 4395              		.cfi_def_cfa_register 7
1133:L6470.c       ****     int i =0;
 4396              		.loc 1 1133 0
 4397 0006 0023     		movs	r3, #0
 4398 0008 7B60     		str	r3, [r7, #4]
1134:L6470.c       ****     for(i=0;i<65;i++)   //Initializing all bites to 0
 4399              		.loc 1 1134 0
 4400 000a 0023     		movs	r3, #0
 4401 000c 7B60     		str	r3, [r7, #4]
 4402 000e 07E0     		b	.L228
 4403              	.L229:
1135:L6470.c       ****         USB_received[i] = 0;   
 4404              		.loc 1 1135 0 discriminator 3
 4405 0010 074A     		ldr	r2, .L230
 4406 0012 7B68     		ldr	r3, [r7, #4]
 4407 0014 1344     		add	r3, r3, r2
 4408 0016 0022     		movs	r2, #0
 4409 0018 1A70     		strb	r2, [r3]
1134:L6470.c       ****     for(i=0;i<65;i++)   //Initializing all bites to 0
 4410              		.loc 1 1134 0 discriminator 3
 4411 001a 7B68     		ldr	r3, [r7, #4]
 4412 001c 0133     		adds	r3, r3, #1
 4413 001e 7B60     		str	r3, [r7, #4]
 4414              	.L228:
1134:L6470.c       ****     for(i=0;i<65;i++)   //Initializing all bites to 0
 4415              		.loc 1 1134 0 is_stmt 0 discriminator 1
 4416 0020 7B68     		ldr	r3, [r7, #4]
 4417 0022 402B     		cmp	r3, #64
 4418 0024 F4DD     		ble	.L229
1136:L6470.c       **** }
 4419              		.loc 1 1136 0 is_stmt 1
 4420 0026 00BF     		nop
 4421 0028 0C37     		adds	r7, r7, #12
 4422              		.cfi_def_cfa_offset 4
 4423 002a BD46     		mov	sp, r7
 4424              		.cfi_def_cfa_register 13
 4425              		@ sp needed
 4426 002c 80BC     		pop	{r7}
 4427              		.cfi_restore 7
 4428              		.cfi_def_cfa_offset 0
ARM GAS  C:\Users\Admin\AppData\Local\Temp\ccb10png.s 			page 103


 4429 002e 7047     		bx	lr
 4430              	.L231:
 4431              		.align	2
 4432              	.L230:
 4433 0030 00000000 		.word	USB_received
 4434              		.cfi_endproc
 4435              	.LFE85:
 4436              		.size	Clear_USB_RX_Buffer, .-Clear_USB_RX_Buffer
 4437              		.section	.text.Clear_Pending_USB_Data,"ax",%progbits
 4438              		.align	2
 4439              		.global	Clear_Pending_USB_Data
 4440              		.thumb
 4441              		.thumb_func
 4442              		.type	Clear_Pending_USB_Data, %function
 4443              	Clear_Pending_USB_Data:
 4444              	.LFB86:
1137:L6470.c       **** void Clear_Pending_USB_Data()/* Clear all pending data on usb RX buffer. */
1138:L6470.c       **** {
 4445              		.loc 1 1138 0
 4446              		.cfi_startproc
 4447              		@ args = 0, pretend = 0, frame = 72
 4448              		@ frame_needed = 1, uses_anonymous_args = 0
 4449 0000 80B5     		push	{r7, lr}
 4450              		.cfi_def_cfa_offset 8
 4451              		.cfi_offset 7, -8
 4452              		.cfi_offset 14, -4
 4453 0002 92B0     		sub	sp, sp, #72
 4454              		.cfi_def_cfa_offset 80
 4455 0004 00AF     		add	r7, sp, #0
 4456              		.cfi_def_cfa_register 7
1139:L6470.c       ****     int i;
1140:L6470.c       ****     uint8 USB_received_temp[64];
1141:L6470.c       ****     for(i=0;i<5;i++)
 4457              		.loc 1 1141 0
 4458 0006 0023     		movs	r3, #0
 4459 0008 7B64     		str	r3, [r7, #68]
 4460 000a 06E0     		b	.L233
 4461              	.L234:
1142:L6470.c       ****         {       
1143:L6470.c       ****             USB_GetAll(USB_received_temp);/* read and clear all Pending data. */
 4462              		.loc 1 1143 0 discriminator 3
 4463 000c 3B1D     		adds	r3, r7, #4
 4464 000e 1846     		mov	r0, r3
 4465 0010 FFF7FEFF 		bl	USB_GetAll
1141:L6470.c       ****         {       
 4466              		.loc 1 1141 0 discriminator 3
 4467 0014 7B6C     		ldr	r3, [r7, #68]
 4468 0016 0133     		adds	r3, r3, #1
 4469 0018 7B64     		str	r3, [r7, #68]
 4470              	.L233:
1141:L6470.c       ****         {       
 4471              		.loc 1 1141 0 is_stmt 0 discriminator 1
 4472 001a 7B6C     		ldr	r3, [r7, #68]
 4473 001c 042B     		cmp	r3, #4
 4474 001e F5DD     		ble	.L234
1144:L6470.c       ****         }    
1145:L6470.c       **** }
ARM GAS  C:\Users\Admin\AppData\Local\Temp\ccb10png.s 			page 104


 4475              		.loc 1 1145 0 is_stmt 1
 4476 0020 00BF     		nop
 4477 0022 4837     		adds	r7, r7, #72
 4478              		.cfi_def_cfa_offset 8
 4479 0024 BD46     		mov	sp, r7
 4480              		.cfi_def_cfa_register 13
 4481              		@ sp needed
 4482 0026 80BD     		pop	{r7, pc}
 4483              		.cfi_endproc
 4484              	.LFE86:
 4485              		.size	Clear_Pending_USB_Data, .-Clear_Pending_USB_Data
 4486              		.section	.text.Write_Debug_UART_Char,"ax",%progbits
 4487              		.align	2
 4488              		.global	Write_Debug_UART_Char
 4489              		.thumb
 4490              		.thumb_func
 4491              		.type	Write_Debug_UART_Char, %function
 4492              	Write_Debug_UART_Char:
 4493              	.LFB87:
1146:L6470.c       **** void Write_Debug_UART_Char(char Str[])
1147:L6470.c       **** {
 4494              		.loc 1 1147 0
 4495              		.cfi_startproc
 4496              		@ args = 0, pretend = 0, frame = 8
 4497              		@ frame_needed = 1, uses_anonymous_args = 0
 4498 0000 80B5     		push	{r7, lr}
 4499              		.cfi_def_cfa_offset 8
 4500              		.cfi_offset 7, -8
 4501              		.cfi_offset 14, -4
 4502 0002 82B0     		sub	sp, sp, #8
 4503              		.cfi_def_cfa_offset 16
 4504 0004 00AF     		add	r7, sp, #0
 4505              		.cfi_def_cfa_register 7
 4506 0006 7860     		str	r0, [r7, #4]
1148:L6470.c       ****     if(Pin_UART_Enable_Read()==0)
 4507              		.loc 1 1148 0
 4508 0008 FFF7FEFF 		bl	Pin_UART_Enable_Read
 4509 000c 0346     		mov	r3, r0
 4510 000e 002B     		cmp	r3, #0
 4511 0010 12D1     		bne	.L237
 4512              	.LBB2:
1149:L6470.c       ****     {
1150:L6470.c       ****         static char Str_Last_One[] = "ShonitV2.2\r\n";
1151:L6470.c       ****         if((strncmp(Str_Last_One, Str, 10)!=0))
 4513              		.loc 1 1151 0
 4514 0012 0A22     		movs	r2, #10
 4515 0014 7968     		ldr	r1, [r7, #4]
 4516 0016 0A48     		ldr	r0, .L238
 4517 0018 FFF7FEFF 		bl	strncmp
 4518 001c 0346     		mov	r3, r0
 4519 001e 002B     		cmp	r3, #0
 4520 0020 0AD0     		beq	.L237
1152:L6470.c       ****     	{
1153:L6470.c       ****             UART_PCB_LOG_PutString(Str);
 4521              		.loc 1 1153 0
 4522 0022 7868     		ldr	r0, [r7, #4]
 4523 0024 FFF7FEFF 		bl	UART_PCB_LOG_PutString
ARM GAS  C:\Users\Admin\AppData\Local\Temp\ccb10png.s 			page 105


1154:L6470.c       ****             CyDelayUs(1);
 4524              		.loc 1 1154 0
 4525 0028 0120     		movs	r0, #1
 4526 002a FFF7FEFF 		bl	CyDelayUs
1155:L6470.c       ****             strncpy(Str_Last_One, Str, 10); 
 4527              		.loc 1 1155 0
 4528 002e 0A22     		movs	r2, #10
 4529 0030 7968     		ldr	r1, [r7, #4]
 4530 0032 0348     		ldr	r0, .L238
 4531 0034 FFF7FEFF 		bl	strncpy
 4532              	.L237:
 4533              	.LBE2:
1156:L6470.c       ****     	}
1157:L6470.c       ****     }
1158:L6470.c       **** }
 4534              		.loc 1 1158 0
 4535 0038 00BF     		nop
 4536 003a 0837     		adds	r7, r7, #8
 4537              		.cfi_def_cfa_offset 8
 4538 003c BD46     		mov	sp, r7
 4539              		.cfi_def_cfa_register 13
 4540              		@ sp needed
 4541 003e 80BD     		pop	{r7, pc}
 4542              	.L239:
 4543              		.align	2
 4544              	.L238:
 4545 0040 1C000000 		.word	Str_Last_One.8912
 4546              		.cfi_endproc
 4547              	.LFE87:
 4548              		.size	Write_Debug_UART_Char, .-Write_Debug_UART_Char
 4549              		.section	.rodata
 4550 08a7 00       		.align	2
 4551              	.LC60:
 4552 08a8 25642C20 		.ascii	"%d, \000"
 4552      00
