ARM GAS  C:\Users\Admin\AppData\Local\Temp\ccqZUt8d.s 			page 1


   1              		.syntax unified
   2              		.cpu cortex-m3
   3              		.fpu softvfp
   4              		.eabi_attribute 20, 1
   5              		.eabi_attribute 21, 1
   6              		.eabi_attribute 23, 3
   7              		.eabi_attribute 24, 1
   8              		.eabi_attribute 25, 1
   9              		.eabi_attribute 26, 1
  10              		.eabi_attribute 30, 6
  11              		.eabi_attribute 34, 1
  12              		.eabi_attribute 18, 4
  13              		.thumb
  14              		.syntax unified
  15              		.file	"USB_std.c"
  16              		.text
  17              	.Ltext0:
  18              		.cfi_sections	.debug_frame
  19              		.section	.text.USB_HandleStandardRqst,"ax",%progbits
  20              		.align	2
  21              		.global	USB_HandleStandardRqst
  22              		.thumb
  23              		.thumb_func
  24              		.type	USB_HandleStandardRqst, %function
  25              	USB_HandleStandardRqst:
  26              	.LFB0:
  27              		.file 1 "Generated_Source\\PSoC5\\USB_std.c"
   1:Generated_Source\PSoC5/USB_std.c **** /***************************************************************************//**
   2:Generated_Source\PSoC5/USB_std.c **** * \file USB_std.c
   3:Generated_Source\PSoC5/USB_std.c **** * \version 3.20
   4:Generated_Source\PSoC5/USB_std.c **** *
   5:Generated_Source\PSoC5/USB_std.c **** * \brief
   6:Generated_Source\PSoC5/USB_std.c **** *  This file contains the USB Standard request handler.
   7:Generated_Source\PSoC5/USB_std.c **** *
   8:Generated_Source\PSoC5/USB_std.c **** ********************************************************************************
   9:Generated_Source\PSoC5/USB_std.c **** * \copyright
  10:Generated_Source\PSoC5/USB_std.c **** * Copyright 2008-2016, Cypress Semiconductor Corporation.  All rights reserved.
  11:Generated_Source\PSoC5/USB_std.c **** * You may use this file only in accordance with the license, terms, conditions,
  12:Generated_Source\PSoC5/USB_std.c **** * disclaimers, and limitations in the end user license agreement accompanying
  13:Generated_Source\PSoC5/USB_std.c **** * the software package with which this file was provided.
  14:Generated_Source\PSoC5/USB_std.c **** *******************************************************************************/
  15:Generated_Source\PSoC5/USB_std.c **** 
  16:Generated_Source\PSoC5/USB_std.c **** #include "USB_pvt.h"
  17:Generated_Source\PSoC5/USB_std.c **** 
  18:Generated_Source\PSoC5/USB_std.c **** /***************************************
  19:Generated_Source\PSoC5/USB_std.c **** *   Static data allocation
  20:Generated_Source\PSoC5/USB_std.c **** ***************************************/
  21:Generated_Source\PSoC5/USB_std.c **** 
  22:Generated_Source\PSoC5/USB_std.c **** #if defined(USB_ENABLE_FWSN_STRING)
  23:Generated_Source\PSoC5/USB_std.c ****     static volatile uint8* USB_fwSerialNumberStringDescriptor;
  24:Generated_Source\PSoC5/USB_std.c ****     static volatile uint8  USB_snStringConfirm = USB_FALSE;
  25:Generated_Source\PSoC5/USB_std.c **** #endif  /* (USB_ENABLE_FWSN_STRING) */
  26:Generated_Source\PSoC5/USB_std.c **** 
  27:Generated_Source\PSoC5/USB_std.c **** #if defined(USB_ENABLE_FWSN_STRING)
  28:Generated_Source\PSoC5/USB_std.c ****     /***************************************************************************
  29:Generated_Source\PSoC5/USB_std.c ****     * Function Name: USB_SerialNumString
  30:Generated_Source\PSoC5/USB_std.c ****     ************************************************************************//**
ARM GAS  C:\Users\Admin\AppData\Local\Temp\ccqZUt8d.s 			page 2


  31:Generated_Source\PSoC5/USB_std.c ****     *
  32:Generated_Source\PSoC5/USB_std.c ****     *  This function is available only when the User Call Back option in the 
  33:Generated_Source\PSoC5/USB_std.c ****     *  Serial Number String descriptor properties is selected. Application 
  34:Generated_Source\PSoC5/USB_std.c ****     *  firmware can provide the source of the USB device serial number string 
  35:Generated_Source\PSoC5/USB_std.c ****     *  descriptor during run time. The default string is used if the application 
  36:Generated_Source\PSoC5/USB_std.c ****     *  firmware does not use this function or sets the wrong string descriptor.
  37:Generated_Source\PSoC5/USB_std.c ****     *
  38:Generated_Source\PSoC5/USB_std.c ****     *  \param snString:  Pointer to the user-defined string descriptor. The 
  39:Generated_Source\PSoC5/USB_std.c ****     *  string descriptor should meet the Universal Serial Bus Specification 
  40:Generated_Source\PSoC5/USB_std.c ****     *  revision 2.0 chapter 9.6.7
  41:Generated_Source\PSoC5/USB_std.c ****     *  Offset|Size|Value|Description
  42:Generated_Source\PSoC5/USB_std.c ****     *  ------|----|------|---------------------------------
  43:Generated_Source\PSoC5/USB_std.c ****     *  0     |1   |N     |Size of this descriptor in bytes
  44:Generated_Source\PSoC5/USB_std.c ****     *  1     |1   |0x03  |STRING Descriptor Type
  45:Generated_Source\PSoC5/USB_std.c ****     *  2     |N-2 |Number|UNICODE encoded string
  46:Generated_Source\PSoC5/USB_std.c ****     *  
  47:Generated_Source\PSoC5/USB_std.c ****     * *For example:* uint8 snString[16]={0x0E,0x03,'F',0,'W',0,'S',0,'N',0,'0',0,'1',0};
  48:Generated_Source\PSoC5/USB_std.c ****     *
  49:Generated_Source\PSoC5/USB_std.c ****     * \reentrant
  50:Generated_Source\PSoC5/USB_std.c ****     *  No.
  51:Generated_Source\PSoC5/USB_std.c ****     *
  52:Generated_Source\PSoC5/USB_std.c ****     ***************************************************************************/
  53:Generated_Source\PSoC5/USB_std.c ****     void  USB_SerialNumString(uint8 snString[]) 
  54:Generated_Source\PSoC5/USB_std.c ****     {
  55:Generated_Source\PSoC5/USB_std.c ****         USB_snStringConfirm = USB_FALSE;
  56:Generated_Source\PSoC5/USB_std.c ****         
  57:Generated_Source\PSoC5/USB_std.c ****         if (snString != NULL)
  58:Generated_Source\PSoC5/USB_std.c ****         {
  59:Generated_Source\PSoC5/USB_std.c ****             /* Check descriptor validation */
  60:Generated_Source\PSoC5/USB_std.c ****             if ((snString[0u] > 1u) && (snString[1u] == USB_DESCR_STRING))
  61:Generated_Source\PSoC5/USB_std.c ****             {
  62:Generated_Source\PSoC5/USB_std.c ****                 USB_fwSerialNumberStringDescriptor = snString;
  63:Generated_Source\PSoC5/USB_std.c ****                 USB_snStringConfirm = USB_TRUE;
  64:Generated_Source\PSoC5/USB_std.c ****             }
  65:Generated_Source\PSoC5/USB_std.c ****         }
  66:Generated_Source\PSoC5/USB_std.c ****     }
  67:Generated_Source\PSoC5/USB_std.c **** #endif  /* USB_ENABLE_FWSN_STRING */
  68:Generated_Source\PSoC5/USB_std.c **** 
  69:Generated_Source\PSoC5/USB_std.c **** 
  70:Generated_Source\PSoC5/USB_std.c **** /*******************************************************************************
  71:Generated_Source\PSoC5/USB_std.c **** * Function Name: USB_HandleStandardRqst
  72:Generated_Source\PSoC5/USB_std.c **** ****************************************************************************//**
  73:Generated_Source\PSoC5/USB_std.c **** *
  74:Generated_Source\PSoC5/USB_std.c **** *  This Routine dispatches standard requests
  75:Generated_Source\PSoC5/USB_std.c **** *
  76:Generated_Source\PSoC5/USB_std.c **** *
  77:Generated_Source\PSoC5/USB_std.c **** * \return
  78:Generated_Source\PSoC5/USB_std.c **** *  TRUE if request handled.
  79:Generated_Source\PSoC5/USB_std.c **** *
  80:Generated_Source\PSoC5/USB_std.c **** * \reentrant
  81:Generated_Source\PSoC5/USB_std.c **** *  No.
  82:Generated_Source\PSoC5/USB_std.c **** *
  83:Generated_Source\PSoC5/USB_std.c **** *******************************************************************************/
  84:Generated_Source\PSoC5/USB_std.c **** uint8 USB_HandleStandardRqst(void) 
  85:Generated_Source\PSoC5/USB_std.c **** {
  28              		.loc 1 85 0
  29              		.cfi_startproc
ARM GAS  C:\Users\Admin\AppData\Local\Temp\ccqZUt8d.s 			page 3


  30              		@ args = 0, pretend = 0, frame = 24
  31              		@ frame_needed = 1, uses_anonymous_args = 0
  32 0000 80B5     		push	{r7, lr}
  33              		.cfi_def_cfa_offset 8
  34              		.cfi_offset 7, -8
  35              		.cfi_offset 14, -4
  36 0002 86B0     		sub	sp, sp, #24
  37              		.cfi_def_cfa_offset 32
  38 0004 00AF     		add	r7, sp, #0
  39              		.cfi_def_cfa_register 7
  86:Generated_Source\PSoC5/USB_std.c ****     uint8 requestHandled = USB_FALSE;
  40              		.loc 1 86 0
  41 0006 0023     		movs	r3, #0
  42 0008 FB75     		strb	r3, [r7, #23]
  87:Generated_Source\PSoC5/USB_std.c ****     uint8 interfaceNumber;
  88:Generated_Source\PSoC5/USB_std.c ****     uint8 configurationN;
  89:Generated_Source\PSoC5/USB_std.c ****     uint8 bmRequestType = USB_bmRequestTypeReg;
  43              		.loc 1 89 0
  44 000a 9D4B     		ldr	r3, .L68
  45 000c 1B78     		ldrb	r3, [r3]
  46 000e FB71     		strb	r3, [r7, #7]
  90:Generated_Source\PSoC5/USB_std.c **** 
  91:Generated_Source\PSoC5/USB_std.c **** #if defined(USB_ENABLE_STRINGS)
  92:Generated_Source\PSoC5/USB_std.c ****     volatile uint8 *pStr = 0u;
  47              		.loc 1 92 0
  48 0010 0023     		movs	r3, #0
  49 0012 3B61     		str	r3, [r7, #16]
  93:Generated_Source\PSoC5/USB_std.c ****     #if defined(USB_ENABLE_DESCRIPTOR_STRINGS)
  94:Generated_Source\PSoC5/USB_std.c ****         uint8 nStr;
  95:Generated_Source\PSoC5/USB_std.c ****         uint8 descrLength;
  96:Generated_Source\PSoC5/USB_std.c ****     #endif /* (USB_ENABLE_DESCRIPTOR_STRINGS) */
  97:Generated_Source\PSoC5/USB_std.c **** #endif /* (USB_ENABLE_STRINGS) */
  98:Generated_Source\PSoC5/USB_std.c ****     
  99:Generated_Source\PSoC5/USB_std.c ****     static volatile uint8 USB_tBuffer[USB_STATUS_LENGTH_MAX];
 100:Generated_Source\PSoC5/USB_std.c ****     const T_USB_LUT CYCODE *pTmp;
 101:Generated_Source\PSoC5/USB_std.c **** 
 102:Generated_Source\PSoC5/USB_std.c ****     USB_currentTD.count = 0u;
  50              		.loc 1 102 0
  51 0014 9B4B     		ldr	r3, .L68+4
  52 0016 0022     		movs	r2, #0
  53 0018 1A80     		strh	r2, [r3]	@ movhi
 103:Generated_Source\PSoC5/USB_std.c **** 
 104:Generated_Source\PSoC5/USB_std.c ****     if (USB_RQST_DIR_D2H == (bmRequestType & USB_RQST_DIR_MASK))
  54              		.loc 1 104 0
  55 001a 97F90730 		ldrsb	r3, [r7, #7]
  56 001e 002B     		cmp	r3, #0
  57 0020 80F20481 		bge	.L2
 105:Generated_Source\PSoC5/USB_std.c ****     {
 106:Generated_Source\PSoC5/USB_std.c ****         /* Control Read */
 107:Generated_Source\PSoC5/USB_std.c ****         switch (USB_bRequestReg)
  58              		.loc 1 107 0
  59 0024 964B     		ldr	r3, .L68
  60 0026 5B78     		ldrb	r3, [r3, #1]
  61 0028 DBB2     		uxtb	r3, r3
  62 002a 0A2B     		cmp	r3, #10
  63 002c 00F21B82 		bhi	.L57
  64 0030 01A2     		adr	r2, .L5
ARM GAS  C:\Users\Admin\AppData\Local\Temp\ccqZUt8d.s 			page 4


  65 0032 52F823F0 		ldr	pc, [r2, r3, lsl #2]
  66 0036 00BF     		.p2align 2
  67              	.L5:
  68 0038 83010000 		.word	.L4+1
  69 003c 67040000 		.word	.L57+1
  70 0040 67040000 		.word	.L57+1
  71 0044 67040000 		.word	.L57+1
  72 0048 67040000 		.word	.L57+1
  73 004c 67040000 		.word	.L57+1
  74 0050 65000000 		.word	.L6+1
  75 0054 67040000 		.word	.L57+1
  76 0058 F7010000 		.word	.L7+1
  77 005c 67040000 		.word	.L57+1
  78 0060 0D020000 		.word	.L8+1
  79              		.p2align 1
  80              	.L6:
 108:Generated_Source\PSoC5/USB_std.c ****         {
 109:Generated_Source\PSoC5/USB_std.c ****             case USB_GET_DESCRIPTOR:
 110:Generated_Source\PSoC5/USB_std.c ****                 if (USB_DESCR_DEVICE ==USB_wValueHiReg)
  81              		.loc 1 110 0
  82 0064 864B     		ldr	r3, .L68
  83 0066 DB78     		ldrb	r3, [r3, #3]
  84 0068 DBB2     		uxtb	r3, r3
  85 006a 012B     		cmp	r3, #1
  86 006c 0ED1     		bne	.L9
 111:Generated_Source\PSoC5/USB_std.c ****                 {
 112:Generated_Source\PSoC5/USB_std.c ****                     pTmp = USB_GetDeviceTablePtr();
  87              		.loc 1 112 0
  88 006e FFF7FEFF 		bl	USB_GetDeviceTablePtr
  89 0072 B860     		str	r0, [r7, #8]
 113:Generated_Source\PSoC5/USB_std.c ****                     USB_currentTD.pData = (volatile uint8 *)pTmp->p_list;
  90              		.loc 1 113 0
  91 0074 BB68     		ldr	r3, [r7, #8]
  92 0076 5B68     		ldr	r3, [r3, #4]
  93 0078 824A     		ldr	r2, .L68+4
  94 007a 5360     		str	r3, [r2, #4]
 114:Generated_Source\PSoC5/USB_std.c ****                     USB_currentTD.count = USB_DEVICE_DESCR_LENGTH;
  95              		.loc 1 114 0
  96 007c 814B     		ldr	r3, .L68+4
  97 007e 1222     		movs	r2, #18
  98 0080 1A80     		strh	r2, [r3]	@ movhi
 115:Generated_Source\PSoC5/USB_std.c ****                     
 116:Generated_Source\PSoC5/USB_std.c ****                     requestHandled  = USB_InitControlRead();
  99              		.loc 1 116 0
 100 0082 FFF7FEFF 		bl	USB_InitControlRead
 101 0086 0346     		mov	r3, r0
 102 0088 FB75     		strb	r3, [r7, #23]
 117:Generated_Source\PSoC5/USB_std.c ****                 }
 118:Generated_Source\PSoC5/USB_std.c ****                 else if (USB_DESCR_CONFIG == USB_wValueHiReg)
 119:Generated_Source\PSoC5/USB_std.c ****                 {
 120:Generated_Source\PSoC5/USB_std.c ****                     pTmp = USB_GetConfigTablePtr((uint8) USB_wValueLoReg);
 121:Generated_Source\PSoC5/USB_std.c ****                     
 122:Generated_Source\PSoC5/USB_std.c ****                     /* Verify that requested descriptor exists */
 123:Generated_Source\PSoC5/USB_std.c ****                     if (pTmp != NULL)
 124:Generated_Source\PSoC5/USB_std.c ****                     {
 125:Generated_Source\PSoC5/USB_std.c ****                         USB_currentTD.pData = (volatile uint8 *)pTmp->p_list;
 126:Generated_Source\PSoC5/USB_std.c ****                         USB_currentTD.count = (uint16)((uint16)(USB_currentTD.pData)[USB_CONFIG_DES
ARM GAS  C:\Users\Admin\AppData\Local\Temp\ccqZUt8d.s 			page 5


 127:Generated_Source\PSoC5/USB_std.c ****                                                                             (USB_currentTD.pData)[U
 128:Generated_Source\PSoC5/USB_std.c ****                         requestHandled  = USB_InitControlRead();
 129:Generated_Source\PSoC5/USB_std.c ****                     }
 130:Generated_Source\PSoC5/USB_std.c ****                 }
 131:Generated_Source\PSoC5/USB_std.c ****                 
 132:Generated_Source\PSoC5/USB_std.c ****             #if(USB_BOS_ENABLE)
 133:Generated_Source\PSoC5/USB_std.c ****                 else if (USB_DESCR_BOS == USB_wValueHiReg)
 134:Generated_Source\PSoC5/USB_std.c ****                 {
 135:Generated_Source\PSoC5/USB_std.c ****                     pTmp = USB_GetBOSPtr();
 136:Generated_Source\PSoC5/USB_std.c ****                     
 137:Generated_Source\PSoC5/USB_std.c ****                     /* Verify that requested descriptor exists */
 138:Generated_Source\PSoC5/USB_std.c ****                     if (pTmp != NULL)
 139:Generated_Source\PSoC5/USB_std.c ****                     {
 140:Generated_Source\PSoC5/USB_std.c ****                         USB_currentTD.pData = (volatile uint8 *)pTmp;
 141:Generated_Source\PSoC5/USB_std.c ****                         USB_currentTD.count = ((uint16)((uint16)(USB_currentTD.pData)[USB_BOS_DESCR
 142:Generated_Source\PSoC5/USB_std.c ****                                                                              (USB_currentTD.pData)[
 143:Generated_Source\PSoC5/USB_std.c ****                         requestHandled  = USB_InitControlRead();
 144:Generated_Source\PSoC5/USB_std.c ****                     }
 145:Generated_Source\PSoC5/USB_std.c ****                 }
 146:Generated_Source\PSoC5/USB_std.c ****             #endif /*(USB_BOS_ENABLE)*/
 147:Generated_Source\PSoC5/USB_std.c ****             
 148:Generated_Source\PSoC5/USB_std.c ****             #if defined(USB_ENABLE_STRINGS)
 149:Generated_Source\PSoC5/USB_std.c ****                 else if (USB_DESCR_STRING == USB_wValueHiReg)
 150:Generated_Source\PSoC5/USB_std.c ****                 {
 151:Generated_Source\PSoC5/USB_std.c ****                 /* Descriptor Strings */
 152:Generated_Source\PSoC5/USB_std.c ****                 #if defined(USB_ENABLE_DESCRIPTOR_STRINGS)
 153:Generated_Source\PSoC5/USB_std.c ****                     nStr = 0u;
 154:Generated_Source\PSoC5/USB_std.c ****                     pStr = (volatile uint8 *) &USB_STRING_DESCRIPTORS[0u];
 155:Generated_Source\PSoC5/USB_std.c ****                     
 156:Generated_Source\PSoC5/USB_std.c ****                     while ((USB_wValueLoReg > nStr) && (*pStr != 0u))
 157:Generated_Source\PSoC5/USB_std.c ****                     {
 158:Generated_Source\PSoC5/USB_std.c ****                         /* Read descriptor length from 1st byte */
 159:Generated_Source\PSoC5/USB_std.c ****                         descrLength = *pStr;
 160:Generated_Source\PSoC5/USB_std.c ****                         /* Move to next string descriptor */
 161:Generated_Source\PSoC5/USB_std.c ****                         pStr = &pStr[descrLength];
 162:Generated_Source\PSoC5/USB_std.c ****                         nStr++;
 163:Generated_Source\PSoC5/USB_std.c ****                     }
 164:Generated_Source\PSoC5/USB_std.c ****                 #endif /* (USB_ENABLE_DESCRIPTOR_STRINGS) */
 165:Generated_Source\PSoC5/USB_std.c ****                 
 166:Generated_Source\PSoC5/USB_std.c ****                 /* Microsoft OS String */
 167:Generated_Source\PSoC5/USB_std.c ****                 #if defined(USB_ENABLE_MSOS_STRING)
 168:Generated_Source\PSoC5/USB_std.c ****                     if (USB_STRING_MSOS == USB_wValueLoReg)
 169:Generated_Source\PSoC5/USB_std.c ****                     {
 170:Generated_Source\PSoC5/USB_std.c ****                         pStr = (volatile uint8 *)& USB_MSOS_DESCRIPTOR[0u];
 171:Generated_Source\PSoC5/USB_std.c ****                     }
 172:Generated_Source\PSoC5/USB_std.c ****                 #endif /* (USB_ENABLE_MSOS_STRING) */
 173:Generated_Source\PSoC5/USB_std.c ****                 
 174:Generated_Source\PSoC5/USB_std.c ****                 /* SN string */
 175:Generated_Source\PSoC5/USB_std.c ****                 #if defined(USB_ENABLE_SN_STRING)
 176:Generated_Source\PSoC5/USB_std.c ****                     if ((USB_wValueLoReg != 0u) && 
 177:Generated_Source\PSoC5/USB_std.c ****                         (USB_wValueLoReg == USB_DEVICE0_DESCR[USB_DEVICE_DESCR_SN_SHIFT]))
 178:Generated_Source\PSoC5/USB_std.c ****                     {
 179:Generated_Source\PSoC5/USB_std.c ****                     #if defined(USB_ENABLE_IDSN_STRING)
 180:Generated_Source\PSoC5/USB_std.c ****                         /* Read DIE ID and generate string descriptor in RAM */
 181:Generated_Source\PSoC5/USB_std.c ****                         USB_ReadDieID(USB_idSerialNumberStringDescriptor);
 182:Generated_Source\PSoC5/USB_std.c ****                         pStr = USB_idSerialNumberStringDescriptor;
 183:Generated_Source\PSoC5/USB_std.c ****                     #elif defined(USB_ENABLE_FWSN_STRING)
ARM GAS  C:\Users\Admin\AppData\Local\Temp\ccqZUt8d.s 			page 6


 184:Generated_Source\PSoC5/USB_std.c ****                         
 185:Generated_Source\PSoC5/USB_std.c ****                         if(USB_snStringConfirm != USB_FALSE)
 186:Generated_Source\PSoC5/USB_std.c ****                         {
 187:Generated_Source\PSoC5/USB_std.c ****                             pStr = USB_fwSerialNumberStringDescriptor;
 188:Generated_Source\PSoC5/USB_std.c ****                         }
 189:Generated_Source\PSoC5/USB_std.c ****                         else
 190:Generated_Source\PSoC5/USB_std.c ****                         {
 191:Generated_Source\PSoC5/USB_std.c ****                             pStr = (volatile uint8 *)&USB_SN_STRING_DESCRIPTOR[0u];
 192:Generated_Source\PSoC5/USB_std.c ****                         }
 193:Generated_Source\PSoC5/USB_std.c ****                     #else
 194:Generated_Source\PSoC5/USB_std.c ****                         pStr = (volatile uint8 *)&USB_SN_STRING_DESCRIPTOR[0u];
 195:Generated_Source\PSoC5/USB_std.c ****                     #endif  /* (USB_ENABLE_IDSN_STRING) */
 196:Generated_Source\PSoC5/USB_std.c ****                     }
 197:Generated_Source\PSoC5/USB_std.c ****                 #endif /* (USB_ENABLE_SN_STRING) */
 198:Generated_Source\PSoC5/USB_std.c ****                 
 199:Generated_Source\PSoC5/USB_std.c ****                     if (*pStr != 0u)
 200:Generated_Source\PSoC5/USB_std.c ****                     {
 201:Generated_Source\PSoC5/USB_std.c ****                         USB_currentTD.count = *pStr;
 202:Generated_Source\PSoC5/USB_std.c ****                         USB_currentTD.pData = pStr;
 203:Generated_Source\PSoC5/USB_std.c ****                         requestHandled  = USB_InitControlRead();
 204:Generated_Source\PSoC5/USB_std.c ****                     }
 205:Generated_Source\PSoC5/USB_std.c ****                 }
 206:Generated_Source\PSoC5/USB_std.c ****             #endif /*  USB_ENABLE_STRINGS */
 207:Generated_Source\PSoC5/USB_std.c ****                 else
 208:Generated_Source\PSoC5/USB_std.c ****                 {
 209:Generated_Source\PSoC5/USB_std.c ****                     requestHandled = USB_DispatchClassRqst();
 210:Generated_Source\PSoC5/USB_std.c ****                 }
 211:Generated_Source\PSoC5/USB_std.c ****                 break;
 103              		.loc 1 211 0
 104 008a EEE1     		b	.L58
 105              	.L9:
 118:Generated_Source\PSoC5/USB_std.c ****                 {
 106              		.loc 1 118 0
 107 008c 7C4B     		ldr	r3, .L68
 108 008e DB78     		ldrb	r3, [r3, #3]
 109 0090 DBB2     		uxtb	r3, r3
 110 0092 022B     		cmp	r3, #2
 111 0094 25D1     		bne	.L11
 120:Generated_Source\PSoC5/USB_std.c ****                     
 112              		.loc 1 120 0
 113 0096 7A4B     		ldr	r3, .L68
 114 0098 9B78     		ldrb	r3, [r3, #2]
 115 009a DBB2     		uxtb	r3, r3
 116 009c 1846     		mov	r0, r3
 117 009e FFF7FEFF 		bl	USB_GetConfigTablePtr
 118 00a2 B860     		str	r0, [r7, #8]
 123:Generated_Source\PSoC5/USB_std.c ****                     {
 119              		.loc 1 123 0
 120 00a4 BB68     		ldr	r3, [r7, #8]
 121 00a6 002B     		cmp	r3, #0
 122 00a8 00F0DF81 		beq	.L58
 125:Generated_Source\PSoC5/USB_std.c ****                         USB_currentTD.count = (uint16)((uint16)(USB_currentTD.pData)[USB_CONFIG_DES
 123              		.loc 1 125 0
 124 00ac BB68     		ldr	r3, [r7, #8]
 125 00ae 5B68     		ldr	r3, [r3, #4]
 126 00b0 744A     		ldr	r2, .L68+4
 127 00b2 5360     		str	r3, [r2, #4]
ARM GAS  C:\Users\Admin\AppData\Local\Temp\ccqZUt8d.s 			page 7


 126:Generated_Source\PSoC5/USB_std.c ****                                                                             (USB_currentTD.pData)[U
 128              		.loc 1 126 0
 129 00b4 734B     		ldr	r3, .L68+4
 130 00b6 5B68     		ldr	r3, [r3, #4]
 131 00b8 0333     		adds	r3, r3, #3
 132 00ba 1B78     		ldrb	r3, [r3]
 133 00bc DBB2     		uxtb	r3, r3
 134 00be 9BB2     		uxth	r3, r3
 135 00c0 1B02     		lsls	r3, r3, #8
 136 00c2 9AB2     		uxth	r2, r3
 127:Generated_Source\PSoC5/USB_std.c ****                         requestHandled  = USB_InitControlRead();
 137              		.loc 1 127 0
 138 00c4 6F4B     		ldr	r3, .L68+4
 139 00c6 5B68     		ldr	r3, [r3, #4]
 140 00c8 0233     		adds	r3, r3, #2
 141 00ca 1B78     		ldrb	r3, [r3]
 142 00cc DBB2     		uxtb	r3, r3
 126:Generated_Source\PSoC5/USB_std.c ****                                                                             (USB_currentTD.pData)[U
 143              		.loc 1 126 0
 144 00ce 9BB2     		uxth	r3, r3
 145 00d0 1343     		orrs	r3, r3, r2
 146 00d2 9AB2     		uxth	r2, r3
 147 00d4 6B4B     		ldr	r3, .L68+4
 148 00d6 1A80     		strh	r2, [r3]	@ movhi
 128:Generated_Source\PSoC5/USB_std.c ****                     }
 149              		.loc 1 128 0
 150 00d8 FFF7FEFF 		bl	USB_InitControlRead
 151 00dc 0346     		mov	r3, r0
 152 00de FB75     		strb	r3, [r7, #23]
 153              		.loc 1 211 0
 154 00e0 C3E1     		b	.L58
 155              	.L11:
 149:Generated_Source\PSoC5/USB_std.c ****                 {
 156              		.loc 1 149 0
 157 00e2 674B     		ldr	r3, .L68
 158 00e4 DB78     		ldrb	r3, [r3, #3]
 159 00e6 DBB2     		uxtb	r3, r3
 160 00e8 032B     		cmp	r3, #3
 161 00ea 45D1     		bne	.L13
 153:Generated_Source\PSoC5/USB_std.c ****                     pStr = (volatile uint8 *) &USB_STRING_DESCRIPTORS[0u];
 162              		.loc 1 153 0
 163 00ec 0023     		movs	r3, #0
 164 00ee FB73     		strb	r3, [r7, #15]
 154:Generated_Source\PSoC5/USB_std.c ****                     
 165              		.loc 1 154 0
 166 00f0 654B     		ldr	r3, .L68+8
 167 00f2 3B61     		str	r3, [r7, #16]
 156:Generated_Source\PSoC5/USB_std.c ****                     {
 168              		.loc 1 156 0
 169 00f4 09E0     		b	.L14
 170              	.L16:
 159:Generated_Source\PSoC5/USB_std.c ****                         /* Move to next string descriptor */
 171              		.loc 1 159 0
 172 00f6 3B69     		ldr	r3, [r7, #16]
 173 00f8 1B78     		ldrb	r3, [r3]
 174 00fa BB71     		strb	r3, [r7, #6]
 161:Generated_Source\PSoC5/USB_std.c ****                         nStr++;
ARM GAS  C:\Users\Admin\AppData\Local\Temp\ccqZUt8d.s 			page 8


 175              		.loc 1 161 0
 176 00fc BB79     		ldrb	r3, [r7, #6]	@ zero_extendqisi2
 177 00fe 3A69     		ldr	r2, [r7, #16]
 178 0100 1344     		add	r3, r3, r2
 179 0102 3B61     		str	r3, [r7, #16]
 162:Generated_Source\PSoC5/USB_std.c ****                     }
 180              		.loc 1 162 0
 181 0104 FB7B     		ldrb	r3, [r7, #15]	@ zero_extendqisi2
 182 0106 0133     		adds	r3, r3, #1
 183 0108 FB73     		strb	r3, [r7, #15]
 184              	.L14:
 156:Generated_Source\PSoC5/USB_std.c ****                     {
 185              		.loc 1 156 0
 186 010a 5D4B     		ldr	r3, .L68
 187 010c 9B78     		ldrb	r3, [r3, #2]
 188 010e DBB2     		uxtb	r3, r3
 189 0110 FA7B     		ldrb	r2, [r7, #15]	@ zero_extendqisi2
 190 0112 9A42     		cmp	r2, r3
 191 0114 04D2     		bcs	.L15
 156:Generated_Source\PSoC5/USB_std.c ****                     {
 192              		.loc 1 156 0 is_stmt 0 discriminator 1
 193 0116 3B69     		ldr	r3, [r7, #16]
 194 0118 1B78     		ldrb	r3, [r3]
 195 011a DBB2     		uxtb	r3, r3
 196 011c 002B     		cmp	r3, #0
 197 011e EAD1     		bne	.L16
 198              	.L15:
 168:Generated_Source\PSoC5/USB_std.c ****                     {
 199              		.loc 1 168 0 is_stmt 1
 200 0120 574B     		ldr	r3, .L68
 201 0122 9B78     		ldrb	r3, [r3, #2]
 202 0124 DBB2     		uxtb	r3, r3
 203 0126 EE2B     		cmp	r3, #238
 204 0128 01D1     		bne	.L17
 170:Generated_Source\PSoC5/USB_std.c ****                     }
 205              		.loc 1 170 0
 206 012a 584B     		ldr	r3, .L68+12
 207 012c 3B61     		str	r3, [r7, #16]
 208              	.L17:
 176:Generated_Source\PSoC5/USB_std.c ****                         (USB_wValueLoReg == USB_DEVICE0_DESCR[USB_DEVICE_DESCR_SN_SHIFT]))
 209              		.loc 1 176 0
 210 012e 544B     		ldr	r3, .L68
 211 0130 9B78     		ldrb	r3, [r3, #2]
 212 0132 DBB2     		uxtb	r3, r3
 213 0134 002B     		cmp	r3, #0
 214 0136 0BD0     		beq	.L18
 177:Generated_Source\PSoC5/USB_std.c ****                     {
 215              		.loc 1 177 0 discriminator 1
 216 0138 514B     		ldr	r3, .L68
 217 013a 9B78     		ldrb	r3, [r3, #2]
 218 013c DAB2     		uxtb	r2, r3
 219 013e 544B     		ldr	r3, .L68+16
 220 0140 1B7C     		ldrb	r3, [r3, #16]	@ zero_extendqisi2
 176:Generated_Source\PSoC5/USB_std.c ****                         (USB_wValueLoReg == USB_DEVICE0_DESCR[USB_DEVICE_DESCR_SN_SHIFT]))
 221              		.loc 1 176 0 discriminator 1
 222 0142 9A42     		cmp	r2, r3
 223 0144 04D1     		bne	.L18
ARM GAS  C:\Users\Admin\AppData\Local\Temp\ccqZUt8d.s 			page 9


 181:Generated_Source\PSoC5/USB_std.c ****                         pStr = USB_idSerialNumberStringDescriptor;
 224              		.loc 1 181 0
 225 0146 5348     		ldr	r0, .L68+20
 226 0148 FFF7FEFF 		bl	USB_ReadDieID
 182:Generated_Source\PSoC5/USB_std.c ****                     #elif defined(USB_ENABLE_FWSN_STRING)
 227              		.loc 1 182 0
 228 014c 514B     		ldr	r3, .L68+20
 229 014e 3B61     		str	r3, [r7, #16]
 230              	.L18:
 199:Generated_Source\PSoC5/USB_std.c ****                     {
 231              		.loc 1 199 0
 232 0150 3B69     		ldr	r3, [r7, #16]
 233 0152 1B78     		ldrb	r3, [r3]
 234 0154 DBB2     		uxtb	r3, r3
 235 0156 002B     		cmp	r3, #0
 236 0158 00F08781 		beq	.L58
 201:Generated_Source\PSoC5/USB_std.c ****                         USB_currentTD.pData = pStr;
 237              		.loc 1 201 0
 238 015c 3B69     		ldr	r3, [r7, #16]
 239 015e 1B78     		ldrb	r3, [r3]
 240 0160 DBB2     		uxtb	r3, r3
 241 0162 9AB2     		uxth	r2, r3
 242 0164 474B     		ldr	r3, .L68+4
 243 0166 1A80     		strh	r2, [r3]	@ movhi
 202:Generated_Source\PSoC5/USB_std.c ****                         requestHandled  = USB_InitControlRead();
 244              		.loc 1 202 0
 245 0168 464A     		ldr	r2, .L68+4
 246 016a 3B69     		ldr	r3, [r7, #16]
 247 016c 5360     		str	r3, [r2, #4]
 203:Generated_Source\PSoC5/USB_std.c ****                     }
 248              		.loc 1 203 0
 249 016e FFF7FEFF 		bl	USB_InitControlRead
 250 0172 0346     		mov	r3, r0
 251 0174 FB75     		strb	r3, [r7, #23]
 252              		.loc 1 211 0
 253 0176 78E1     		b	.L58
 254              	.L13:
 209:Generated_Source\PSoC5/USB_std.c ****                 }
 255              		.loc 1 209 0
 256 0178 FFF7FEFF 		bl	USB_DispatchClassRqst
 257 017c 0346     		mov	r3, r0
 258 017e FB75     		strb	r3, [r7, #23]
 259              		.loc 1 211 0
 260 0180 73E1     		b	.L58
 261              	.L4:
 212:Generated_Source\PSoC5/USB_std.c ****                 
 213:Generated_Source\PSoC5/USB_std.c ****             case USB_GET_STATUS:
 214:Generated_Source\PSoC5/USB_std.c ****                 switch (bmRequestType & USB_RQST_RCPT_MASK)
 262              		.loc 1 214 0
 263 0182 FB79     		ldrb	r3, [r7, #7]	@ zero_extendqisi2
 264 0184 03F00303 		and	r3, r3, #3
 265 0188 002B     		cmp	r3, #0
 266 018a 20D0     		beq	.L22
 267 018c 022B     		cmp	r3, #2
 268 018e 00D0     		beq	.L23
 215:Generated_Source\PSoC5/USB_std.c ****                 {
 216:Generated_Source\PSoC5/USB_std.c ****                     case USB_RQST_RCPT_EP:
ARM GAS  C:\Users\Admin\AppData\Local\Temp\ccqZUt8d.s 			page 10


 217:Generated_Source\PSoC5/USB_std.c ****                         USB_currentTD.count = USB_EP_STATUS_LENGTH;
 218:Generated_Source\PSoC5/USB_std.c ****                         USB_tBuffer[0u]     = USB_EP[USB_wIndexLoReg & USB_DIR_UNUSED].hwEpState;
 219:Generated_Source\PSoC5/USB_std.c ****                         USB_tBuffer[1u]     = 0u;
 220:Generated_Source\PSoC5/USB_std.c ****                         USB_currentTD.pData = &USB_tBuffer[0u];
 221:Generated_Source\PSoC5/USB_std.c ****                         
 222:Generated_Source\PSoC5/USB_std.c ****                         requestHandled  = USB_InitControlRead();
 223:Generated_Source\PSoC5/USB_std.c ****                         break;
 224:Generated_Source\PSoC5/USB_std.c ****                     case USB_RQST_RCPT_DEV:
 225:Generated_Source\PSoC5/USB_std.c ****                         USB_currentTD.count = USB_DEVICE_STATUS_LENGTH;
 226:Generated_Source\PSoC5/USB_std.c ****                         USB_tBuffer[0u]     = USB_deviceStatus;
 227:Generated_Source\PSoC5/USB_std.c ****                         USB_tBuffer[1u]     = 0u;
 228:Generated_Source\PSoC5/USB_std.c ****                         USB_currentTD.pData = &USB_tBuffer[0u];
 229:Generated_Source\PSoC5/USB_std.c ****                         
 230:Generated_Source\PSoC5/USB_std.c ****                         requestHandled  = USB_InitControlRead();
 231:Generated_Source\PSoC5/USB_std.c ****                         break;
 232:Generated_Source\PSoC5/USB_std.c ****                     default:    /* requestHandled is initialized as FALSE by default */
 233:Generated_Source\PSoC5/USB_std.c ****                         break;
 269              		.loc 1 233 0
 270 0190 30E0     		b	.L24
 271              	.L23:
 217:Generated_Source\PSoC5/USB_std.c ****                         USB_tBuffer[0u]     = USB_EP[USB_wIndexLoReg & USB_DIR_UNUSED].hwEpState;
 272              		.loc 1 217 0
 273 0192 3C4B     		ldr	r3, .L68+4
 274 0194 0222     		movs	r2, #2
 275 0196 1A80     		strh	r2, [r3]	@ movhi
 218:Generated_Source\PSoC5/USB_std.c ****                         USB_tBuffer[1u]     = 0u;
 276              		.loc 1 218 0
 277 0198 394B     		ldr	r3, .L68
 278 019a 1B79     		ldrb	r3, [r3, #4]
 279 019c DBB2     		uxtb	r3, r3
 280 019e 03F07F02 		and	r2, r3, #127
 281 01a2 3D49     		ldr	r1, .L68+24
 282 01a4 1346     		mov	r3, r2
 283 01a6 5B00     		lsls	r3, r3, #1
 284 01a8 1344     		add	r3, r3, r2
 285 01aa 9B00     		lsls	r3, r3, #2
 286 01ac 0B44     		add	r3, r3, r1
 287 01ae 0233     		adds	r3, r3, #2
 288 01b0 1B78     		ldrb	r3, [r3]
 289 01b2 DAB2     		uxtb	r2, r3
 290 01b4 394B     		ldr	r3, .L68+28
 291 01b6 1A70     		strb	r2, [r3]
 219:Generated_Source\PSoC5/USB_std.c ****                         USB_currentTD.pData = &USB_tBuffer[0u];
 292              		.loc 1 219 0
 293 01b8 384B     		ldr	r3, .L68+28
 294 01ba 0022     		movs	r2, #0
 295 01bc 5A70     		strb	r2, [r3, #1]
 220:Generated_Source\PSoC5/USB_std.c ****                         
 296              		.loc 1 220 0
 297 01be 314B     		ldr	r3, .L68+4
 298 01c0 364A     		ldr	r2, .L68+28
 299 01c2 5A60     		str	r2, [r3, #4]
 222:Generated_Source\PSoC5/USB_std.c ****                         break;
 300              		.loc 1 222 0
 301 01c4 FFF7FEFF 		bl	USB_InitControlRead
 302 01c8 0346     		mov	r3, r0
 303 01ca FB75     		strb	r3, [r7, #23]
ARM GAS  C:\Users\Admin\AppData\Local\Temp\ccqZUt8d.s 			page 11


 223:Generated_Source\PSoC5/USB_std.c ****                     case USB_RQST_RCPT_DEV:
 304              		.loc 1 223 0
 305 01cc 12E0     		b	.L24
 306              	.L22:
 225:Generated_Source\PSoC5/USB_std.c ****                         USB_tBuffer[0u]     = USB_deviceStatus;
 307              		.loc 1 225 0
 308 01ce 2D4B     		ldr	r3, .L68+4
 309 01d0 0222     		movs	r2, #2
 310 01d2 1A80     		strh	r2, [r3]	@ movhi
 226:Generated_Source\PSoC5/USB_std.c ****                         USB_tBuffer[1u]     = 0u;
 311              		.loc 1 226 0
 312 01d4 324B     		ldr	r3, .L68+32
 313 01d6 1B78     		ldrb	r3, [r3]
 314 01d8 DAB2     		uxtb	r2, r3
 315 01da 304B     		ldr	r3, .L68+28
 316 01dc 1A70     		strb	r2, [r3]
 227:Generated_Source\PSoC5/USB_std.c ****                         USB_currentTD.pData = &USB_tBuffer[0u];
 317              		.loc 1 227 0
 318 01de 2F4B     		ldr	r3, .L68+28
 319 01e0 0022     		movs	r2, #0
 320 01e2 5A70     		strb	r2, [r3, #1]
 228:Generated_Source\PSoC5/USB_std.c ****                         
 321              		.loc 1 228 0
 322 01e4 274B     		ldr	r3, .L68+4
 323 01e6 2D4A     		ldr	r2, .L68+28
 324 01e8 5A60     		str	r2, [r3, #4]
 230:Generated_Source\PSoC5/USB_std.c ****                         break;
 325              		.loc 1 230 0
 326 01ea FFF7FEFF 		bl	USB_InitControlRead
 327 01ee 0346     		mov	r3, r0
 328 01f0 FB75     		strb	r3, [r7, #23]
 231:Generated_Source\PSoC5/USB_std.c ****                     default:    /* requestHandled is initialized as FALSE by default */
 329              		.loc 1 231 0
 330 01f2 00BF     		nop
 331              	.L24:
 234:Generated_Source\PSoC5/USB_std.c ****                 }
 235:Generated_Source\PSoC5/USB_std.c ****                 break;
 332              		.loc 1 235 0 discriminator 4
 333 01f4 40E1     		b	.L25
 334              	.L7:
 236:Generated_Source\PSoC5/USB_std.c ****                 
 237:Generated_Source\PSoC5/USB_std.c ****             case USB_GET_CONFIGURATION:
 238:Generated_Source\PSoC5/USB_std.c ****                 USB_currentTD.count = 1u;
 335              		.loc 1 238 0
 336 01f6 234B     		ldr	r3, .L68+4
 337 01f8 0122     		movs	r2, #1
 338 01fa 1A80     		strh	r2, [r3]	@ movhi
 239:Generated_Source\PSoC5/USB_std.c ****                 USB_currentTD.pData = (volatile uint8 *) &USB_configuration;
 339              		.loc 1 239 0
 340 01fc 214B     		ldr	r3, .L68+4
 341 01fe 294A     		ldr	r2, .L68+36
 342 0200 5A60     		str	r2, [r3, #4]
 240:Generated_Source\PSoC5/USB_std.c ****                 requestHandled  = USB_InitControlRead();
 343              		.loc 1 240 0
 344 0202 FFF7FEFF 		bl	USB_InitControlRead
 345 0206 0346     		mov	r3, r0
 346 0208 FB75     		strb	r3, [r7, #23]
ARM GAS  C:\Users\Admin\AppData\Local\Temp\ccqZUt8d.s 			page 12


 241:Generated_Source\PSoC5/USB_std.c ****                 break;
 347              		.loc 1 241 0
 348 020a 35E1     		b	.L25
 349              	.L8:
 242:Generated_Source\PSoC5/USB_std.c ****                 
 243:Generated_Source\PSoC5/USB_std.c ****             case USB_GET_INTERFACE:
 244:Generated_Source\PSoC5/USB_std.c ****                 USB_currentTD.count = 1u;
 350              		.loc 1 244 0
 351 020c 1D4B     		ldr	r3, .L68+4
 352 020e 0122     		movs	r2, #1
 353 0210 1A80     		strh	r2, [r3]	@ movhi
 245:Generated_Source\PSoC5/USB_std.c ****                 USB_currentTD.pData = (volatile uint8 *) &USB_interfaceSetting[USB_wIndexLoReg];
 354              		.loc 1 245 0
 355 0212 1B4B     		ldr	r3, .L68
 356 0214 1B79     		ldrb	r3, [r3, #4]
 357 0216 DBB2     		uxtb	r3, r3
 358 0218 1A46     		mov	r2, r3
 359 021a 234B     		ldr	r3, .L68+40
 360 021c 1344     		add	r3, r3, r2
 361 021e 194A     		ldr	r2, .L68+4
 362 0220 5360     		str	r3, [r2, #4]
 246:Generated_Source\PSoC5/USB_std.c ****                 requestHandled  = USB_InitControlRead();
 363              		.loc 1 246 0
 364 0222 FFF7FEFF 		bl	USB_InitControlRead
 365 0226 0346     		mov	r3, r0
 366 0228 FB75     		strb	r3, [r7, #23]
 247:Generated_Source\PSoC5/USB_std.c ****                 break;
 367              		.loc 1 247 0
 368 022a 25E1     		b	.L25
 369              	.L2:
 248:Generated_Source\PSoC5/USB_std.c ****                 
 249:Generated_Source\PSoC5/USB_std.c ****             default: /* requestHandled is initialized as FALSE by default */
 250:Generated_Source\PSoC5/USB_std.c ****                 break;
 251:Generated_Source\PSoC5/USB_std.c ****         }
 252:Generated_Source\PSoC5/USB_std.c ****     }
 253:Generated_Source\PSoC5/USB_std.c ****     else
 254:Generated_Source\PSoC5/USB_std.c ****     {
 255:Generated_Source\PSoC5/USB_std.c ****         /* Control Write */
 256:Generated_Source\PSoC5/USB_std.c ****         switch (USB_bRequestReg)
 370              		.loc 1 256 0
 371 022c 144B     		ldr	r3, .L68
 372 022e 5B78     		ldrb	r3, [r3, #1]
 373 0230 DBB2     		uxtb	r3, r3
 374 0232 013B     		subs	r3, r3, #1
 375 0234 0A2B     		cmp	r3, #10
 376 0236 00F21A81 		bhi	.L59
 377 023a 01A2     		adr	r2, .L28
 378 023c 52F823F0 		ldr	pc, [r2, r3, lsl #2]
 379              		.p2align 2
 380              	.L28:
 381 0240 4B030000 		.word	.L27+1
 382 0244 6F040000 		.word	.L59+1
 383 0248 D9030000 		.word	.L29+1
 384 024c 6F040000 		.word	.L59+1
 385 0250 6D020000 		.word	.L30+1
 386 0254 6F040000 		.word	.L59+1
 387 0258 6F040000 		.word	.L59+1
ARM GAS  C:\Users\Admin\AppData\Local\Temp\ccqZUt8d.s 			page 13


 388 025c 6F040000 		.word	.L59+1
 389 0260 B1020000 		.word	.L31+1
 390 0264 6F040000 		.word	.L59+1
 391 0268 07030000 		.word	.L32+1
 392              		.p2align 1
 393              	.L30:
 257:Generated_Source\PSoC5/USB_std.c ****         {
 258:Generated_Source\PSoC5/USB_std.c ****             case USB_SET_ADDRESS:
 259:Generated_Source\PSoC5/USB_std.c ****                 /* Store address to be set in USB_NoDataControlStatusStage(). */
 260:Generated_Source\PSoC5/USB_std.c ****                 USB_deviceAddress = (uint8) USB_wValueLoReg;
 394              		.loc 1 260 0
 395 026c 044B     		ldr	r3, .L68
 396 026e 9B78     		ldrb	r3, [r3, #2]
 397 0270 DAB2     		uxtb	r2, r3
 398 0272 0E4B     		ldr	r3, .L68+44
 399 0274 1A70     		strb	r2, [r3]
 261:Generated_Source\PSoC5/USB_std.c ****                 requestHandled = USB_InitNoDataControlTransfer();
 400              		.loc 1 261 0
 401 0276 FFF7FEFF 		bl	USB_InitNoDataControlTransfer
 402 027a 0346     		mov	r3, r0
 403 027c FB75     		strb	r3, [r7, #23]
 262:Generated_Source\PSoC5/USB_std.c ****                 break;
 404              		.loc 1 262 0
 405 027e FBE0     		b	.L25
 406              	.L69:
 407              		.align	2
 408              	.L68:
 409 0280 00600040 		.word	1073766400
 410 0284 00000000 		.word	USB_currentTD
 411 0288 00000000 		.word	USB_STRING_DESCRIPTORS
 412 028c 00000000 		.word	USB_MSOS_DESCRIPTOR
 413 0290 00000000 		.word	USB_DEVICE0_DESCR
 414 0294 00000000 		.word	USB_idSerialNumberStringDescriptor
 415 0298 00000000 		.word	USB_EP
 416 029c 00000000 		.word	USB_tBuffer.5262
 417 02a0 00000000 		.word	USB_deviceStatus
 418 02a4 00000000 		.word	USB_configuration
 419 02a8 00000000 		.word	USB_interfaceSetting
 420 02ac 00000000 		.word	USB_deviceAddress
 421              	.L31:
 263:Generated_Source\PSoC5/USB_std.c ****                 
 264:Generated_Source\PSoC5/USB_std.c ****             case USB_SET_CONFIGURATION:
 265:Generated_Source\PSoC5/USB_std.c ****                 configurationN = USB_wValueLoReg;
 422              		.loc 1 265 0
 423 02b0 744B     		ldr	r3, .L70
 424 02b2 9B78     		ldrb	r3, [r3, #2]
 425 02b4 7B71     		strb	r3, [r7, #5]
 266:Generated_Source\PSoC5/USB_std.c ****                 
 267:Generated_Source\PSoC5/USB_std.c ****                 /* Verify that configuration descriptor exists */
 268:Generated_Source\PSoC5/USB_std.c ****                 if(configurationN > 0u)
 426              		.loc 1 268 0
 427 02b6 7B79     		ldrb	r3, [r7, #5]	@ zero_extendqisi2
 428 02b8 002B     		cmp	r3, #0
 429 02ba 06D0     		beq	.L33
 269:Generated_Source\PSoC5/USB_std.c ****                 {
 270:Generated_Source\PSoC5/USB_std.c ****                     pTmp = USB_GetConfigTablePtr((uint8) configurationN - 1u);
 430              		.loc 1 270 0
ARM GAS  C:\Users\Admin\AppData\Local\Temp\ccqZUt8d.s 			page 14


 431 02bc 7B79     		ldrb	r3, [r7, #5]
 432 02be 013B     		subs	r3, r3, #1
 433 02c0 DBB2     		uxtb	r3, r3
 434 02c2 1846     		mov	r0, r3
 435 02c4 FFF7FEFF 		bl	USB_GetConfigTablePtr
 436 02c8 B860     		str	r0, [r7, #8]
 437              	.L33:
 271:Generated_Source\PSoC5/USB_std.c ****                 }
 272:Generated_Source\PSoC5/USB_std.c ****                 
 273:Generated_Source\PSoC5/USB_std.c ****                 /* Responds with a Request Error when configuration number is invalid */
 274:Generated_Source\PSoC5/USB_std.c ****                 if (((configurationN > 0u) && (pTmp != NULL)) || (configurationN == 0u))
 438              		.loc 1 274 0
 439 02ca 7B79     		ldrb	r3, [r7, #5]	@ zero_extendqisi2
 440 02cc 002B     		cmp	r3, #0
 441 02ce 02D0     		beq	.L34
 442              		.loc 1 274 0 is_stmt 0 discriminator 1
 443 02d0 BB68     		ldr	r3, [r7, #8]
 444 02d2 002B     		cmp	r3, #0
 445 02d4 03D1     		bne	.L35
 446              	.L34:
 447              		.loc 1 274 0 discriminator 3
 448 02d6 7B79     		ldrb	r3, [r7, #5]	@ zero_extendqisi2
 449 02d8 002B     		cmp	r3, #0
 450 02da 40F0CA80 		bne	.L60
 451              	.L35:
 275:Generated_Source\PSoC5/USB_std.c ****                 {
 276:Generated_Source\PSoC5/USB_std.c ****                     /* Set new configuration if it has been changed */
 277:Generated_Source\PSoC5/USB_std.c ****                     if(configurationN != USB_configuration)
 452              		.loc 1 277 0 is_stmt 1
 453 02de 6A4B     		ldr	r3, .L70+4
 454 02e0 1B78     		ldrb	r3, [r3]
 455 02e2 DBB2     		uxtb	r3, r3
 456 02e4 7A79     		ldrb	r2, [r7, #5]	@ zero_extendqisi2
 457 02e6 9A42     		cmp	r2, r3
 458 02e8 08D0     		beq	.L37
 278:Generated_Source\PSoC5/USB_std.c ****                     {
 279:Generated_Source\PSoC5/USB_std.c ****                         USB_configuration = (uint8) configurationN;
 459              		.loc 1 279 0
 460 02ea 674A     		ldr	r2, .L70+4
 461 02ec 7B79     		ldrb	r3, [r7, #5]
 462 02ee 1370     		strb	r3, [r2]
 280:Generated_Source\PSoC5/USB_std.c ****                         USB_configurationChanged = USB_TRUE;
 463              		.loc 1 280 0
 464 02f0 664B     		ldr	r3, .L70+8
 465 02f2 0122     		movs	r2, #1
 466 02f4 1A70     		strb	r2, [r3]
 281:Generated_Source\PSoC5/USB_std.c ****                         USB_Config(USB_TRUE);
 467              		.loc 1 281 0
 468 02f6 0120     		movs	r0, #1
 469 02f8 FFF7FEFF 		bl	USB_Config
 470              	.L37:
 282:Generated_Source\PSoC5/USB_std.c ****                     }
 283:Generated_Source\PSoC5/USB_std.c ****                     requestHandled = USB_InitNoDataControlTransfer();
 471              		.loc 1 283 0
 472 02fc FFF7FEFF 		bl	USB_InitNoDataControlTransfer
 473 0300 0346     		mov	r3, r0
 474 0302 FB75     		strb	r3, [r7, #23]
ARM GAS  C:\Users\Admin\AppData\Local\Temp\ccqZUt8d.s 			page 15


 284:Generated_Source\PSoC5/USB_std.c ****                 }
 285:Generated_Source\PSoC5/USB_std.c ****                 break;
 475              		.loc 1 285 0
 476 0304 B5E0     		b	.L60
 477              	.L32:
 286:Generated_Source\PSoC5/USB_std.c ****                 
 287:Generated_Source\PSoC5/USB_std.c ****             case USB_SET_INTERFACE:
 288:Generated_Source\PSoC5/USB_std.c ****                 if (0u != USB_ValidateAlternateSetting())
 478              		.loc 1 288 0
 479 0306 FFF7FEFF 		bl	USB_ValidateAlternateSetting
 480 030a 0346     		mov	r3, r0
 481 030c 002B     		cmp	r3, #0
 482 030e 00F0B280 		beq	.L61
 289:Generated_Source\PSoC5/USB_std.c ****                 {
 290:Generated_Source\PSoC5/USB_std.c ****                     /* Get interface number from the request. */
 291:Generated_Source\PSoC5/USB_std.c ****                     interfaceNumber = USB_wIndexLoReg;
 483              		.loc 1 291 0
 484 0312 5C4B     		ldr	r3, .L70
 485 0314 1B79     		ldrb	r3, [r3, #4]
 486 0316 3B71     		strb	r3, [r7, #4]
 292:Generated_Source\PSoC5/USB_std.c ****                     USB_interfaceNumber = (uint8) USB_wIndexLoReg;
 487              		.loc 1 292 0
 488 0318 5A4B     		ldr	r3, .L70
 489 031a 1B79     		ldrb	r3, [r3, #4]
 490 031c DAB2     		uxtb	r2, r3
 491 031e 5C4B     		ldr	r3, .L70+12
 492 0320 1A70     		strb	r2, [r3]
 293:Generated_Source\PSoC5/USB_std.c ****                      
 294:Generated_Source\PSoC5/USB_std.c ****                     /* Check if alternate settings is changed for interface. */
 295:Generated_Source\PSoC5/USB_std.c ****                     if (USB_interfaceSettingLast[interfaceNumber] != USB_interfaceSetting[interface
 493              		.loc 1 295 0
 494 0322 3B79     		ldrb	r3, [r7, #4]	@ zero_extendqisi2
 495 0324 5B4A     		ldr	r2, .L70+16
 496 0326 D35C     		ldrb	r3, [r2, r3]
 497 0328 DAB2     		uxtb	r2, r3
 498 032a 3B79     		ldrb	r3, [r7, #4]	@ zero_extendqisi2
 499 032c 5A49     		ldr	r1, .L70+20
 500 032e CB5C     		ldrb	r3, [r1, r3]
 501 0330 DBB2     		uxtb	r3, r3
 502 0332 9A42     		cmp	r2, r3
 503 0334 04D0     		beq	.L39
 296:Generated_Source\PSoC5/USB_std.c ****                     {
 297:Generated_Source\PSoC5/USB_std.c ****                         USB_configurationChanged = USB_TRUE;
 504              		.loc 1 297 0
 505 0336 554B     		ldr	r3, .L70+8
 506 0338 0122     		movs	r2, #1
 507 033a 1A70     		strb	r2, [r3]
 298:Generated_Source\PSoC5/USB_std.c ****                     
 299:Generated_Source\PSoC5/USB_std.c ****                         /* Change alternate setting for the endpoints. */
 300:Generated_Source\PSoC5/USB_std.c ****                     #if (USB_EP_MANAGEMENT_MANUAL && USB_EP_ALLOC_DYNAMIC)
 301:Generated_Source\PSoC5/USB_std.c ****                         USB_Config(USB_FALSE);
 302:Generated_Source\PSoC5/USB_std.c ****                     #else
 303:Generated_Source\PSoC5/USB_std.c ****                         USB_ConfigAltChanged();
 508              		.loc 1 303 0
 509 033c FFF7FEFF 		bl	USB_ConfigAltChanged
 510              	.L39:
 304:Generated_Source\PSoC5/USB_std.c ****                     #endif /* (USB_EP_MANAGEMENT_MANUAL && USB_EP_ALLOC_DYNAMIC) */
ARM GAS  C:\Users\Admin\AppData\Local\Temp\ccqZUt8d.s 			page 16


 305:Generated_Source\PSoC5/USB_std.c ****                     }
 306:Generated_Source\PSoC5/USB_std.c ****                     
 307:Generated_Source\PSoC5/USB_std.c ****                     requestHandled = USB_InitNoDataControlTransfer();
 511              		.loc 1 307 0
 512 0340 FFF7FEFF 		bl	USB_InitNoDataControlTransfer
 513 0344 0346     		mov	r3, r0
 514 0346 FB75     		strb	r3, [r7, #23]
 308:Generated_Source\PSoC5/USB_std.c ****                 }
 309:Generated_Source\PSoC5/USB_std.c ****                 break;
 515              		.loc 1 309 0
 516 0348 95E0     		b	.L61
 517              	.L27:
 310:Generated_Source\PSoC5/USB_std.c ****                 
 311:Generated_Source\PSoC5/USB_std.c ****             case USB_CLEAR_FEATURE:
 312:Generated_Source\PSoC5/USB_std.c ****                 switch (bmRequestType & USB_RQST_RCPT_MASK)
 518              		.loc 1 312 0
 519 034a FB79     		ldrb	r3, [r7, #7]	@ zero_extendqisi2
 520 034c 03F00303 		and	r3, r3, #3
 521 0350 012B     		cmp	r3, #1
 522 0352 20D0     		beq	.L41
 523 0354 012B     		cmp	r3, #1
 524 0356 0CD3     		bcc	.L42
 525 0358 022B     		cmp	r3, #2
 526 035a 00D0     		beq	.L43
 313:Generated_Source\PSoC5/USB_std.c ****                 {
 314:Generated_Source\PSoC5/USB_std.c ****                     case USB_RQST_RCPT_EP:
 315:Generated_Source\PSoC5/USB_std.c ****                         if (USB_wValueLoReg == USB_ENDPOINT_HALT)
 316:Generated_Source\PSoC5/USB_std.c ****                         {
 317:Generated_Source\PSoC5/USB_std.c ****                             requestHandled = USB_ClearEndpointHalt();
 318:Generated_Source\PSoC5/USB_std.c ****                         }
 319:Generated_Source\PSoC5/USB_std.c ****                         break;
 320:Generated_Source\PSoC5/USB_std.c ****                     case USB_RQST_RCPT_DEV:
 321:Generated_Source\PSoC5/USB_std.c ****                         /* Clear device REMOTE_WAKEUP */
 322:Generated_Source\PSoC5/USB_std.c ****                         if (USB_wValueLoReg == USB_DEVICE_REMOTE_WAKEUP)
 323:Generated_Source\PSoC5/USB_std.c ****                         {
 324:Generated_Source\PSoC5/USB_std.c ****                             USB_deviceStatus &= (uint8)~USB_DEVICE_STATUS_REMOTE_WAKEUP;
 325:Generated_Source\PSoC5/USB_std.c ****                             requestHandled = USB_InitNoDataControlTransfer();
 326:Generated_Source\PSoC5/USB_std.c ****                         }
 327:Generated_Source\PSoC5/USB_std.c ****                         break;
 328:Generated_Source\PSoC5/USB_std.c ****                     case USB_RQST_RCPT_IFC:
 329:Generated_Source\PSoC5/USB_std.c ****                         /* Validate interfaceNumber */
 330:Generated_Source\PSoC5/USB_std.c ****                         if (USB_wIndexLoReg < USB_MAX_INTERFACES_NUMBER)
 331:Generated_Source\PSoC5/USB_std.c ****                         {
 332:Generated_Source\PSoC5/USB_std.c ****                             USB_interfaceStatus[USB_wIndexLoReg] &= (uint8) ~USB_wValueLoReg;
 333:Generated_Source\PSoC5/USB_std.c ****                             requestHandled = USB_InitNoDataControlTransfer();
 334:Generated_Source\PSoC5/USB_std.c ****                         }
 335:Generated_Source\PSoC5/USB_std.c ****                         break;
 336:Generated_Source\PSoC5/USB_std.c ****                     default:    /* requestHandled is initialized as FALSE by default */
 337:Generated_Source\PSoC5/USB_std.c ****                         break;
 527              		.loc 1 337 0
 528 035c 3BE0     		b	.L45
 529              	.L43:
 315:Generated_Source\PSoC5/USB_std.c ****                         {
 530              		.loc 1 315 0
 531 035e 494B     		ldr	r3, .L70
 532 0360 9B78     		ldrb	r3, [r3, #2]
 533 0362 DBB2     		uxtb	r3, r3
ARM GAS  C:\Users\Admin\AppData\Local\Temp\ccqZUt8d.s 			page 17


 534 0364 002B     		cmp	r3, #0
 535 0366 31D1     		bne	.L62
 317:Generated_Source\PSoC5/USB_std.c ****                         }
 536              		.loc 1 317 0
 537 0368 FFF7FEFF 		bl	USB_ClearEndpointHalt
 538 036c 0346     		mov	r3, r0
 539 036e FB75     		strb	r3, [r7, #23]
 319:Generated_Source\PSoC5/USB_std.c ****                     case USB_RQST_RCPT_DEV:
 540              		.loc 1 319 0
 541 0370 2CE0     		b	.L62
 542              	.L42:
 322:Generated_Source\PSoC5/USB_std.c ****                         {
 543              		.loc 1 322 0
 544 0372 444B     		ldr	r3, .L70
 545 0374 9B78     		ldrb	r3, [r3, #2]
 546 0376 DBB2     		uxtb	r3, r3
 547 0378 012B     		cmp	r3, #1
 548 037a 29D1     		bne	.L63
 324:Generated_Source\PSoC5/USB_std.c ****                             requestHandled = USB_InitNoDataControlTransfer();
 549              		.loc 1 324 0
 550 037c 474B     		ldr	r3, .L70+24
 551 037e 1B78     		ldrb	r3, [r3]
 552 0380 DBB2     		uxtb	r3, r3
 553 0382 23F00203 		bic	r3, r3, #2
 554 0386 DAB2     		uxtb	r2, r3
 555 0388 444B     		ldr	r3, .L70+24
 556 038a 1A70     		strb	r2, [r3]
 325:Generated_Source\PSoC5/USB_std.c ****                         }
 557              		.loc 1 325 0
 558 038c FFF7FEFF 		bl	USB_InitNoDataControlTransfer
 559 0390 0346     		mov	r3, r0
 560 0392 FB75     		strb	r3, [r7, #23]
 327:Generated_Source\PSoC5/USB_std.c ****                     case USB_RQST_RCPT_IFC:
 561              		.loc 1 327 0
 562 0394 1CE0     		b	.L63
 563              	.L41:
 330:Generated_Source\PSoC5/USB_std.c ****                         {
 564              		.loc 1 330 0
 565 0396 3B4B     		ldr	r3, .L70
 566 0398 1B79     		ldrb	r3, [r3, #4]
 567 039a DBB2     		uxtb	r3, r3
 568 039c 012B     		cmp	r3, #1
 569 039e 19D8     		bhi	.L64
 332:Generated_Source\PSoC5/USB_std.c ****                             requestHandled = USB_InitNoDataControlTransfer();
 570              		.loc 1 332 0
 571 03a0 384B     		ldr	r3, .L70
 572 03a2 9B78     		ldrb	r3, [r3, #2]
 573 03a4 DBB2     		uxtb	r3, r3
 574 03a6 DB43     		mvns	r3, r3
 575 03a8 DBB2     		uxtb	r3, r3
 576 03aa 364A     		ldr	r2, .L70
 577 03ac 1279     		ldrb	r2, [r2, #4]
 578 03ae D2B2     		uxtb	r2, r2
 579 03b0 1146     		mov	r1, r2
 580 03b2 1046     		mov	r0, r2
 581 03b4 3A4A     		ldr	r2, .L70+28
 582 03b6 125C     		ldrb	r2, [r2, r0]
ARM GAS  C:\Users\Admin\AppData\Local\Temp\ccqZUt8d.s 			page 18


 583 03b8 D2B2     		uxtb	r2, r2
 584 03ba 1340     		ands	r3, r3, r2
 585 03bc DAB2     		uxtb	r2, r3
 586 03be 384B     		ldr	r3, .L70+28
 587 03c0 5A54     		strb	r2, [r3, r1]
 333:Generated_Source\PSoC5/USB_std.c ****                         }
 588              		.loc 1 333 0
 589 03c2 FFF7FEFF 		bl	USB_InitNoDataControlTransfer
 590 03c6 0346     		mov	r3, r0
 591 03c8 FB75     		strb	r3, [r7, #23]
 335:Generated_Source\PSoC5/USB_std.c ****                     default:    /* requestHandled is initialized as FALSE by default */
 592              		.loc 1 335 0
 593 03ca 03E0     		b	.L64
 594              	.L62:
 319:Generated_Source\PSoC5/USB_std.c ****                     case USB_RQST_RCPT_DEV:
 595              		.loc 1 319 0
 596 03cc 00BF     		nop
 597 03ce 53E0     		b	.L25
 598              	.L63:
 327:Generated_Source\PSoC5/USB_std.c ****                     case USB_RQST_RCPT_IFC:
 599              		.loc 1 327 0
 600 03d0 00BF     		nop
 601 03d2 51E0     		b	.L25
 602              	.L64:
 335:Generated_Source\PSoC5/USB_std.c ****                     default:    /* requestHandled is initialized as FALSE by default */
 603              		.loc 1 335 0
 604 03d4 00BF     		nop
 605              	.L45:
 338:Generated_Source\PSoC5/USB_std.c ****                 }
 339:Generated_Source\PSoC5/USB_std.c ****                 break;
 606              		.loc 1 339 0 discriminator 7
 607 03d6 4FE0     		b	.L25
 608              	.L29:
 340:Generated_Source\PSoC5/USB_std.c ****                 
 341:Generated_Source\PSoC5/USB_std.c ****             case USB_SET_FEATURE:
 342:Generated_Source\PSoC5/USB_std.c ****                 switch (bmRequestType & USB_RQST_RCPT_MASK)
 609              		.loc 1 342 0
 610 03d8 FB79     		ldrb	r3, [r7, #7]	@ zero_extendqisi2
 611 03da 03F00303 		and	r3, r3, #3
 612 03de 012B     		cmp	r3, #1
 613 03e0 20D0     		beq	.L49
 614 03e2 012B     		cmp	r3, #1
 615 03e4 0CD3     		bcc	.L50
 616 03e6 022B     		cmp	r3, #2
 617 03e8 00D0     		beq	.L51
 343:Generated_Source\PSoC5/USB_std.c ****                 {
 344:Generated_Source\PSoC5/USB_std.c ****                     case USB_RQST_RCPT_EP:
 345:Generated_Source\PSoC5/USB_std.c ****                         if (USB_wValueLoReg == USB_ENDPOINT_HALT)
 346:Generated_Source\PSoC5/USB_std.c ****                         {
 347:Generated_Source\PSoC5/USB_std.c ****                             requestHandled = USB_SetEndpointHalt();
 348:Generated_Source\PSoC5/USB_std.c ****                         }
 349:Generated_Source\PSoC5/USB_std.c ****                         break;
 350:Generated_Source\PSoC5/USB_std.c ****                         
 351:Generated_Source\PSoC5/USB_std.c ****                     case USB_RQST_RCPT_DEV:
 352:Generated_Source\PSoC5/USB_std.c ****                         /* Set device REMOTE_WAKEUP */
 353:Generated_Source\PSoC5/USB_std.c ****                         if (USB_wValueLoReg == USB_DEVICE_REMOTE_WAKEUP)
 354:Generated_Source\PSoC5/USB_std.c ****                         {
ARM GAS  C:\Users\Admin\AppData\Local\Temp\ccqZUt8d.s 			page 19


 355:Generated_Source\PSoC5/USB_std.c ****                             USB_deviceStatus |= USB_DEVICE_STATUS_REMOTE_WAKEUP;
 356:Generated_Source\PSoC5/USB_std.c ****                             requestHandled = USB_InitNoDataControlTransfer();
 357:Generated_Source\PSoC5/USB_std.c ****                         }
 358:Generated_Source\PSoC5/USB_std.c ****                         break;
 359:Generated_Source\PSoC5/USB_std.c ****                         
 360:Generated_Source\PSoC5/USB_std.c ****                     case USB_RQST_RCPT_IFC:
 361:Generated_Source\PSoC5/USB_std.c ****                         /* Validate interfaceNumber */
 362:Generated_Source\PSoC5/USB_std.c ****                         if (USB_wIndexLoReg < USB_MAX_INTERFACES_NUMBER)
 363:Generated_Source\PSoC5/USB_std.c ****                         {
 364:Generated_Source\PSoC5/USB_std.c ****                             USB_interfaceStatus[USB_wIndexLoReg] &= (uint8) ~USB_wValueLoReg;
 365:Generated_Source\PSoC5/USB_std.c ****                             requestHandled = USB_InitNoDataControlTransfer();
 366:Generated_Source\PSoC5/USB_std.c ****                         }
 367:Generated_Source\PSoC5/USB_std.c ****                         break;
 368:Generated_Source\PSoC5/USB_std.c ****                     
 369:Generated_Source\PSoC5/USB_std.c ****                     default:    /* requestHandled is initialized as FALSE by default */
 370:Generated_Source\PSoC5/USB_std.c ****                         break;
 618              		.loc 1 370 0
 619 03ea 3BE0     		b	.L53
 620              	.L51:
 345:Generated_Source\PSoC5/USB_std.c ****                         {
 621              		.loc 1 345 0
 622 03ec 254B     		ldr	r3, .L70
 623 03ee 9B78     		ldrb	r3, [r3, #2]
 624 03f0 DBB2     		uxtb	r3, r3
 625 03f2 002B     		cmp	r3, #0
 626 03f4 31D1     		bne	.L65
 347:Generated_Source\PSoC5/USB_std.c ****                         }
 627              		.loc 1 347 0
 628 03f6 FFF7FEFF 		bl	USB_SetEndpointHalt
 629 03fa 0346     		mov	r3, r0
 630 03fc FB75     		strb	r3, [r7, #23]
 349:Generated_Source\PSoC5/USB_std.c ****                         
 631              		.loc 1 349 0
 632 03fe 2CE0     		b	.L65
 633              	.L50:
 353:Generated_Source\PSoC5/USB_std.c ****                         {
 634              		.loc 1 353 0
 635 0400 204B     		ldr	r3, .L70
 636 0402 9B78     		ldrb	r3, [r3, #2]
 637 0404 DBB2     		uxtb	r3, r3
 638 0406 012B     		cmp	r3, #1
 639 0408 29D1     		bne	.L66
 355:Generated_Source\PSoC5/USB_std.c ****                             requestHandled = USB_InitNoDataControlTransfer();
 640              		.loc 1 355 0
 641 040a 244B     		ldr	r3, .L70+24
 642 040c 1B78     		ldrb	r3, [r3]
 643 040e DBB2     		uxtb	r3, r3
 644 0410 43F00203 		orr	r3, r3, #2
 645 0414 DAB2     		uxtb	r2, r3
 646 0416 214B     		ldr	r3, .L70+24
 647 0418 1A70     		strb	r2, [r3]
 356:Generated_Source\PSoC5/USB_std.c ****                         }
 648              		.loc 1 356 0
 649 041a FFF7FEFF 		bl	USB_InitNoDataControlTransfer
 650 041e 0346     		mov	r3, r0
 651 0420 FB75     		strb	r3, [r7, #23]
 358:Generated_Source\PSoC5/USB_std.c ****                         
ARM GAS  C:\Users\Admin\AppData\Local\Temp\ccqZUt8d.s 			page 20


 652              		.loc 1 358 0
 653 0422 1CE0     		b	.L66
 654              	.L49:
 362:Generated_Source\PSoC5/USB_std.c ****                         {
 655              		.loc 1 362 0
 656 0424 174B     		ldr	r3, .L70
 657 0426 1B79     		ldrb	r3, [r3, #4]
 658 0428 DBB2     		uxtb	r3, r3
 659 042a 012B     		cmp	r3, #1
 660 042c 19D8     		bhi	.L67
 364:Generated_Source\PSoC5/USB_std.c ****                             requestHandled = USB_InitNoDataControlTransfer();
 661              		.loc 1 364 0
 662 042e 154B     		ldr	r3, .L70
 663 0430 9B78     		ldrb	r3, [r3, #2]
 664 0432 DBB2     		uxtb	r3, r3
 665 0434 DB43     		mvns	r3, r3
 666 0436 DBB2     		uxtb	r3, r3
 667 0438 124A     		ldr	r2, .L70
 668 043a 1279     		ldrb	r2, [r2, #4]
 669 043c D2B2     		uxtb	r2, r2
 670 043e 1146     		mov	r1, r2
 671 0440 1046     		mov	r0, r2
 672 0442 174A     		ldr	r2, .L70+28
 673 0444 125C     		ldrb	r2, [r2, r0]
 674 0446 D2B2     		uxtb	r2, r2
 675 0448 1340     		ands	r3, r3, r2
 676 044a DAB2     		uxtb	r2, r3
 677 044c 144B     		ldr	r3, .L70+28
 678 044e 5A54     		strb	r2, [r3, r1]
 365:Generated_Source\PSoC5/USB_std.c ****                         }
 679              		.loc 1 365 0
 680 0450 FFF7FEFF 		bl	USB_InitNoDataControlTransfer
 681 0454 0346     		mov	r3, r0
 682 0456 FB75     		strb	r3, [r7, #23]
 367:Generated_Source\PSoC5/USB_std.c ****                     
 683              		.loc 1 367 0
 684 0458 03E0     		b	.L67
 685              	.L65:
 349:Generated_Source\PSoC5/USB_std.c ****                         
 686              		.loc 1 349 0
 687 045a 00BF     		nop
 688 045c 0CE0     		b	.L25
 689              	.L66:
 358:Generated_Source\PSoC5/USB_std.c ****                         
 690              		.loc 1 358 0
 691 045e 00BF     		nop
 692 0460 0AE0     		b	.L25
 693              	.L67:
 367:Generated_Source\PSoC5/USB_std.c ****                     
 694              		.loc 1 367 0
 695 0462 00BF     		nop
 696              	.L53:
 371:Generated_Source\PSoC5/USB_std.c ****                 }
 372:Generated_Source\PSoC5/USB_std.c ****                 break;
 697              		.loc 1 372 0 discriminator 11
 698 0464 08E0     		b	.L25
 699              	.L57:
ARM GAS  C:\Users\Admin\AppData\Local\Temp\ccqZUt8d.s 			page 21


 250:Generated_Source\PSoC5/USB_std.c ****         }
 700              		.loc 1 250 0
 701 0466 00BF     		nop
 702 0468 06E0     		b	.L25
 703              	.L58:
 211:Generated_Source\PSoC5/USB_std.c ****                 
 704              		.loc 1 211 0
 705 046a 00BF     		nop
 706 046c 04E0     		b	.L25
 707              	.L59:
 373:Generated_Source\PSoC5/USB_std.c ****                 
 374:Generated_Source\PSoC5/USB_std.c ****             default:    /* requestHandled is initialized as FALSE by default */
 375:Generated_Source\PSoC5/USB_std.c ****                 break;
 708              		.loc 1 375 0
 709 046e 00BF     		nop
 710 0470 02E0     		b	.L25
 711              	.L60:
 285:Generated_Source\PSoC5/USB_std.c ****                 
 712              		.loc 1 285 0
 713 0472 00BF     		nop
 714 0474 00E0     		b	.L25
 715              	.L61:
 309:Generated_Source\PSoC5/USB_std.c ****                 
 716              		.loc 1 309 0
 717 0476 00BF     		nop
 718              	.L25:
 376:Generated_Source\PSoC5/USB_std.c ****         }
 377:Generated_Source\PSoC5/USB_std.c ****     }
 378:Generated_Source\PSoC5/USB_std.c ****     
 379:Generated_Source\PSoC5/USB_std.c ****     return (requestHandled);
 719              		.loc 1 379 0
 720 0478 FB7D     		ldrb	r3, [r7, #23]	@ zero_extendqisi2
 380:Generated_Source\PSoC5/USB_std.c **** }
 721              		.loc 1 380 0
 722 047a 1846     		mov	r0, r3
 723 047c 1837     		adds	r7, r7, #24
 724              		.cfi_def_cfa_offset 8
 725 047e BD46     		mov	sp, r7
 726              		.cfi_def_cfa_register 13
 727              		@ sp needed
 728 0480 80BD     		pop	{r7, pc}
 729              	.L71:
 730 0482 00BF     		.align	2
 731              	.L70:
 732 0484 00600040 		.word	1073766400
 733 0488 00000000 		.word	USB_configuration
 734 048c 00000000 		.word	USB_configurationChanged
 735 0490 00000000 		.word	USB_interfaceNumber
 736 0494 00000000 		.word	USB_interfaceSettingLast
 737 0498 00000000 		.word	USB_interfaceSetting
 738 049c 00000000 		.word	USB_deviceStatus
 739 04a0 00000000 		.word	USB_interfaceStatus
 740              		.cfi_endproc
 741              	.LFE0:
 742              		.size	USB_HandleStandardRqst, .-USB_HandleStandardRqst
 743              		.section	.rodata
 744              		.align	2
ARM GAS  C:\Users\Admin\AppData\Local\Temp\ccqZUt8d.s 			page 22


 745              	.LC0:
 746 0000 30313233 		.ascii	"0123456789ABCDEF\000"
 746      34353637 
 746      38394142 
 746      43444546 
 746      00
 747              		.section	.text.USB_ReadDieID,"ax",%progbits
 748              		.align	2
 749              		.global	USB_ReadDieID
 750              		.thumb
 751              		.thumb_func
 752              		.type	USB_ReadDieID, %function
 753              	USB_ReadDieID:
 754              	.LFB1:
 381:Generated_Source\PSoC5/USB_std.c **** 
 382:Generated_Source\PSoC5/USB_std.c **** 
 383:Generated_Source\PSoC5/USB_std.c **** #if defined(USB_ENABLE_IDSN_STRING)
 384:Generated_Source\PSoC5/USB_std.c ****     /***************************************************************************
 385:Generated_Source\PSoC5/USB_std.c ****     * Function Name: USB_ReadDieID
 386:Generated_Source\PSoC5/USB_std.c ****     ************************************************************************//**
 387:Generated_Source\PSoC5/USB_std.c ****     *
 388:Generated_Source\PSoC5/USB_std.c ****     *  This routine read Die ID and generate Serial Number string descriptor.
 389:Generated_Source\PSoC5/USB_std.c ****     *
 390:Generated_Source\PSoC5/USB_std.c ****     *  \param descr:  pointer on string descriptor. This string size has to be equal or
 391:Generated_Source\PSoC5/USB_std.c ****     *          greater than USB_IDSN_DESCR_LENGTH.
 392:Generated_Source\PSoC5/USB_std.c ****     *
 393:Generated_Source\PSoC5/USB_std.c ****     *
 394:Generated_Source\PSoC5/USB_std.c ****     * \reentrant
 395:Generated_Source\PSoC5/USB_std.c ****     *  No.
 396:Generated_Source\PSoC5/USB_std.c ****     *
 397:Generated_Source\PSoC5/USB_std.c ****     ***************************************************************************/
 398:Generated_Source\PSoC5/USB_std.c ****     void USB_ReadDieID(uint8 descr[]) 
 399:Generated_Source\PSoC5/USB_std.c ****     {
 755              		.loc 1 399 0
 756              		.cfi_startproc
 757              		@ args = 0, pretend = 0, frame = 40
 758              		@ frame_needed = 1, uses_anonymous_args = 0
 759 0000 B0B5     		push	{r4, r5, r7, lr}
 760              		.cfi_def_cfa_offset 16
 761              		.cfi_offset 4, -16
 762              		.cfi_offset 5, -12
 763              		.cfi_offset 7, -8
 764              		.cfi_offset 14, -4
 765 0002 8AB0     		sub	sp, sp, #40
 766              		.cfi_def_cfa_offset 56
 767 0004 00AF     		add	r7, sp, #0
 768              		.cfi_def_cfa_register 7
 769 0006 7860     		str	r0, [r7, #4]
 400:Generated_Source\PSoC5/USB_std.c ****         const char8 CYCODE hex[] = "0123456789ABCDEF";
 770              		.loc 1 400 0
 771 0008 324B     		ldr	r3, .L77
 772 000a 07F11404 		add	r4, r7, #20
 773 000e 1D46     		mov	r5, r3
 774 0010 0FCD     		ldmia	r5!, {r0, r1, r2, r3}
 775 0012 0FC4     		stmia	r4!, {r0, r1, r2, r3}
 776 0014 2B68     		ldr	r3, [r5]
 777 0016 2370     		strb	r3, [r4]
ARM GAS  C:\Users\Admin\AppData\Local\Temp\ccqZUt8d.s 			page 23


 401:Generated_Source\PSoC5/USB_std.c ****         uint8 i;
 402:Generated_Source\PSoC5/USB_std.c ****         uint8 j = 0u;
 778              		.loc 1 402 0
 779 0018 0023     		movs	r3, #0
 780 001a 87F82630 		strb	r3, [r7, #38]
 403:Generated_Source\PSoC5/USB_std.c ****         uint8 uniqueId[8u];
 404:Generated_Source\PSoC5/USB_std.c **** 
 405:Generated_Source\PSoC5/USB_std.c ****         if (NULL != descr)
 781              		.loc 1 405 0
 782 001e 7B68     		ldr	r3, [r7, #4]
 783 0020 002B     		cmp	r3, #0
 784 0022 52D0     		beq	.L76
 406:Generated_Source\PSoC5/USB_std.c ****         {
 407:Generated_Source\PSoC5/USB_std.c ****             /* Initialize descriptor header. */
 408:Generated_Source\PSoC5/USB_std.c ****             descr[0u] = USB_IDSN_DESCR_LENGTH;
 785              		.loc 1 408 0
 786 0024 7B68     		ldr	r3, [r7, #4]
 787 0026 2222     		movs	r2, #34
 788 0028 1A70     		strb	r2, [r3]
 409:Generated_Source\PSoC5/USB_std.c ****             descr[1u] = USB_DESCR_STRING;
 789              		.loc 1 409 0
 790 002a 7B68     		ldr	r3, [r7, #4]
 791 002c 0133     		adds	r3, r3, #1
 792 002e 0322     		movs	r2, #3
 793 0030 1A70     		strb	r2, [r3]
 410:Generated_Source\PSoC5/USB_std.c ****             
 411:Generated_Source\PSoC5/USB_std.c ****             /* Unique ID size is 8 bytes. */
 412:Generated_Source\PSoC5/USB_std.c ****             CyGetUniqueId((uint32 *) uniqueId);
 794              		.loc 1 412 0
 795 0032 07F10C03 		add	r3, r7, #12
 796 0036 1846     		mov	r0, r3
 797 0038 FFF7FEFF 		bl	CyGetUniqueId
 413:Generated_Source\PSoC5/USB_std.c **** 
 414:Generated_Source\PSoC5/USB_std.c ****             /* Fill descriptor with unique device ID. */
 415:Generated_Source\PSoC5/USB_std.c ****             for (i = 2u; i < USB_IDSN_DESCR_LENGTH; i += 4u)
 798              		.loc 1 415 0
 799 003c 0223     		movs	r3, #2
 800 003e 87F82730 		strb	r3, [r7, #39]
 801 0042 3EE0     		b	.L74
 802              	.L75:
 416:Generated_Source\PSoC5/USB_std.c ****             {
 417:Generated_Source\PSoC5/USB_std.c ****                 descr[i]      = (uint8) hex[(uniqueId[j] >> 4u)];
 803              		.loc 1 417 0 discriminator 3
 804 0044 97F82730 		ldrb	r3, [r7, #39]	@ zero_extendqisi2
 805 0048 7A68     		ldr	r2, [r7, #4]
 806 004a 1344     		add	r3, r3, r2
 807 004c 97F82620 		ldrb	r2, [r7, #38]	@ zero_extendqisi2
 808 0050 07F12801 		add	r1, r7, #40
 809 0054 0A44     		add	r2, r2, r1
 810 0056 12F81C2C 		ldrb	r2, [r2, #-28]	@ zero_extendqisi2
 811 005a 1209     		lsrs	r2, r2, #4
 812 005c D2B2     		uxtb	r2, r2
 813 005e 07F12801 		add	r1, r7, #40
 814 0062 0A44     		add	r2, r2, r1
 815 0064 12F8142C 		ldrb	r2, [r2, #-20]	@ zero_extendqisi2
 816 0068 1A70     		strb	r2, [r3]
 418:Generated_Source\PSoC5/USB_std.c ****                 descr[i + 1u] = 0u;
ARM GAS  C:\Users\Admin\AppData\Local\Temp\ccqZUt8d.s 			page 24


 817              		.loc 1 418 0 discriminator 3
 818 006a 97F82730 		ldrb	r3, [r7, #39]	@ zero_extendqisi2
 819 006e 0133     		adds	r3, r3, #1
 820 0070 7A68     		ldr	r2, [r7, #4]
 821 0072 1344     		add	r3, r3, r2
 822 0074 0022     		movs	r2, #0
 823 0076 1A70     		strb	r2, [r3]
 419:Generated_Source\PSoC5/USB_std.c ****                 descr[i + 2u] = (uint8) hex[(uniqueId[j] & 0x0Fu)];
 824              		.loc 1 419 0 discriminator 3
 825 0078 97F82730 		ldrb	r3, [r7, #39]	@ zero_extendqisi2
 826 007c 0233     		adds	r3, r3, #2
 827 007e 7A68     		ldr	r2, [r7, #4]
 828 0080 1344     		add	r3, r3, r2
 829 0082 97F82620 		ldrb	r2, [r7, #38]	@ zero_extendqisi2
 830 0086 07F12801 		add	r1, r7, #40
 831 008a 0A44     		add	r2, r2, r1
 832 008c 12F81C2C 		ldrb	r2, [r2, #-28]	@ zero_extendqisi2
 833 0090 02F00F02 		and	r2, r2, #15
 834 0094 07F12801 		add	r1, r7, #40
 835 0098 0A44     		add	r2, r2, r1
 836 009a 12F8142C 		ldrb	r2, [r2, #-20]	@ zero_extendqisi2
 837 009e 1A70     		strb	r2, [r3]
 420:Generated_Source\PSoC5/USB_std.c ****                 descr[i + 3u] = 0u;
 838              		.loc 1 420 0 discriminator 3
 839 00a0 97F82730 		ldrb	r3, [r7, #39]	@ zero_extendqisi2
 840 00a4 0333     		adds	r3, r3, #3
 841 00a6 7A68     		ldr	r2, [r7, #4]
 842 00a8 1344     		add	r3, r3, r2
 843 00aa 0022     		movs	r2, #0
 844 00ac 1A70     		strb	r2, [r3]
 421:Generated_Source\PSoC5/USB_std.c ****                 ++j;
 845              		.loc 1 421 0 discriminator 3
 846 00ae 97F82630 		ldrb	r3, [r7, #38]
 847 00b2 0133     		adds	r3, r3, #1
 848 00b4 87F82630 		strb	r3, [r7, #38]
 415:Generated_Source\PSoC5/USB_std.c ****             {
 849              		.loc 1 415 0 discriminator 3
 850 00b8 97F82730 		ldrb	r3, [r7, #39]
 851 00bc 0433     		adds	r3, r3, #4
 852 00be 87F82730 		strb	r3, [r7, #39]
 853              	.L74:
 415:Generated_Source\PSoC5/USB_std.c ****             {
 854              		.loc 1 415 0 is_stmt 0 discriminator 1
 855 00c2 97F82730 		ldrb	r3, [r7, #39]	@ zero_extendqisi2
 856 00c6 212B     		cmp	r3, #33
 857 00c8 BCD9     		bls	.L75
 858              	.L76:
 422:Generated_Source\PSoC5/USB_std.c ****             }
 423:Generated_Source\PSoC5/USB_std.c ****         }
 424:Generated_Source\PSoC5/USB_std.c ****     }
 859              		.loc 1 424 0 is_stmt 1
 860 00ca 00BF     		nop
 861 00cc 2837     		adds	r7, r7, #40
 862              		.cfi_def_cfa_offset 16
 863 00ce BD46     		mov	sp, r7
 864              		.cfi_def_cfa_register 13
 865              		@ sp needed
ARM GAS  C:\Users\Admin\AppData\Local\Temp\ccqZUt8d.s 			page 25


 866 00d0 B0BD     		pop	{r4, r5, r7, pc}
 867              	.L78:
 868 00d2 00BF     		.align	2
 869              	.L77:
 870 00d4 00000000 		.word	.LC0
 871              		.cfi_endproc
 872              	.LFE1:
 873              		.size	USB_ReadDieID, .-USB_ReadDieID
 874              		.section	.text.USB_ConfigReg,"ax",%progbits
 875              		.align	2
 876              		.global	USB_ConfigReg
 877              		.thumb
 878              		.thumb_func
 879              		.type	USB_ConfigReg, %function
 880              	USB_ConfigReg:
 881              	.LFB2:
 425:Generated_Source\PSoC5/USB_std.c **** #endif /* (USB_ENABLE_IDSN_STRING) */
 426:Generated_Source\PSoC5/USB_std.c **** 
 427:Generated_Source\PSoC5/USB_std.c **** 
 428:Generated_Source\PSoC5/USB_std.c **** /*******************************************************************************
 429:Generated_Source\PSoC5/USB_std.c **** * Function Name: USB_ConfigReg
 430:Generated_Source\PSoC5/USB_std.c **** ****************************************************************************//**
 431:Generated_Source\PSoC5/USB_std.c **** *
 432:Generated_Source\PSoC5/USB_std.c **** *  This routine configures hardware registers from the variables.
 433:Generated_Source\PSoC5/USB_std.c **** *  It is called from USB_Config() function and from RestoreConfig
 434:Generated_Source\PSoC5/USB_std.c **** *  after Wakeup.
 435:Generated_Source\PSoC5/USB_std.c **** *
 436:Generated_Source\PSoC5/USB_std.c **** *******************************************************************************/
 437:Generated_Source\PSoC5/USB_std.c **** void USB_ConfigReg(void) 
 438:Generated_Source\PSoC5/USB_std.c **** {
 882              		.loc 1 438 0
 883              		.cfi_startproc
 884              		@ args = 0, pretend = 0, frame = 8
 885              		@ frame_needed = 1, uses_anonymous_args = 0
 886              		@ link register save eliminated.
 887 0000 90B4     		push	{r4, r7}
 888              		.cfi_def_cfa_offset 8
 889              		.cfi_offset 4, -8
 890              		.cfi_offset 7, -4
 891 0002 82B0     		sub	sp, sp, #8
 892              		.cfi_def_cfa_offset 16
 893 0004 00AF     		add	r7, sp, #0
 894              		.cfi_def_cfa_register 7
 439:Generated_Source\PSoC5/USB_std.c ****     uint8 ep;
 440:Generated_Source\PSoC5/USB_std.c **** 
 441:Generated_Source\PSoC5/USB_std.c **** #if (USB_EP_MANAGEMENT_DMA_AUTO)
 442:Generated_Source\PSoC5/USB_std.c ****     uint8 epType = 0u;
 443:Generated_Source\PSoC5/USB_std.c **** #endif /* (USB_EP_MANAGEMENT_DMA_AUTO) */
 444:Generated_Source\PSoC5/USB_std.c **** 
 445:Generated_Source\PSoC5/USB_std.c ****     /* Go thought all endpoints and set hardware configuration */
 446:Generated_Source\PSoC5/USB_std.c ****     for (ep = USB_EP1; ep < USB_MAX_EP; ++ep)
 895              		.loc 1 446 0
 896 0006 0123     		movs	r3, #1
 897 0008 FB71     		strb	r3, [r7, #7]
 898 000a 80E0     		b	.L80
 899              	.L85:
 447:Generated_Source\PSoC5/USB_std.c ****     {
ARM GAS  C:\Users\Admin\AppData\Local\Temp\ccqZUt8d.s 			page 26


 448:Generated_Source\PSoC5/USB_std.c ****         USB_ARB_EP_BASE.arbEp[ep].epCfg = USB_ARB_EPX_CFG_DEFAULT;
 900              		.loc 1 448 0
 901 000c 464A     		ldr	r2, .L86
 902 000e FB79     		ldrb	r3, [r7, #7]	@ zero_extendqisi2
 903 0010 1B01     		lsls	r3, r3, #4
 904 0012 1344     		add	r3, r3, r2
 905 0014 0C22     		movs	r2, #12
 906 0016 1A70     		strb	r2, [r3]
 449:Generated_Source\PSoC5/USB_std.c ****         
 450:Generated_Source\PSoC5/USB_std.c ****     #if (USB_EP_MANAGEMENT_DMA)
 451:Generated_Source\PSoC5/USB_std.c ****         /* Enable arbiter endpoint interrupt sources */
 452:Generated_Source\PSoC5/USB_std.c ****         USB_ARB_EP_BASE.arbEp[ep].epIntEn = USB_ARB_EPX_INT_MASK;
 453:Generated_Source\PSoC5/USB_std.c ****     #endif /* (USB_EP_MANAGEMENT_DMA) */
 454:Generated_Source\PSoC5/USB_std.c ****     
 455:Generated_Source\PSoC5/USB_std.c ****         if (USB_EP[ep].epMode != USB_MODE_DISABLE)
 907              		.loc 1 455 0
 908 0018 FA79     		ldrb	r2, [r7, #7]	@ zero_extendqisi2
 909 001a 4449     		ldr	r1, .L86+4
 910 001c 1346     		mov	r3, r2
 911 001e 5B00     		lsls	r3, r3, #1
 912 0020 1344     		add	r3, r3, r2
 913 0022 9B00     		lsls	r3, r3, #2
 914 0024 0B44     		add	r3, r3, r1
 915 0026 0533     		adds	r3, r3, #5
 916 0028 1B78     		ldrb	r3, [r3]
 917 002a DBB2     		uxtb	r3, r3
 918 002c 002B     		cmp	r3, #0
 919 002e 1CD0     		beq	.L81
 456:Generated_Source\PSoC5/USB_std.c ****         {
 457:Generated_Source\PSoC5/USB_std.c ****             if (0u != (USB_EP[ep].addr & USB_DIR_IN))
 920              		.loc 1 457 0
 921 0030 FA79     		ldrb	r2, [r7, #7]	@ zero_extendqisi2
 922 0032 3E49     		ldr	r1, .L86+4
 923 0034 1346     		mov	r3, r2
 924 0036 5B00     		lsls	r3, r3, #1
 925 0038 1344     		add	r3, r3, r2
 926 003a 9B00     		lsls	r3, r3, #2
 927 003c 0B44     		add	r3, r3, r1
 928 003e 0433     		adds	r3, r3, #4
 929 0040 1B78     		ldrb	r3, [r3]
 930 0042 DBB2     		uxtb	r3, r3
 931 0044 5BB2     		sxtb	r3, r3
 932 0046 002B     		cmp	r3, #0
 933 0048 07DA     		bge	.L82
 458:Generated_Source\PSoC5/USB_std.c ****             {
 459:Generated_Source\PSoC5/USB_std.c ****                 USB_SIE_EP_BASE.sieEp[ep].epCr0 = USB_MODE_NAK_IN;
 934              		.loc 1 459 0
 935 004a 394A     		ldr	r2, .L86+8
 936 004c FB79     		ldrb	r3, [r7, #7]	@ zero_extendqisi2
 937 004e 1B01     		lsls	r3, r3, #4
 938 0050 1344     		add	r3, r3, r2
 939 0052 0233     		adds	r3, r3, #2
 940 0054 0C22     		movs	r2, #12
 941 0056 1A70     		strb	r2, [r3]
 942 0058 0EE0     		b	.L84
 943              	.L82:
 460:Generated_Source\PSoC5/USB_std.c ****                 
ARM GAS  C:\Users\Admin\AppData\Local\Temp\ccqZUt8d.s 			page 27


 461:Generated_Source\PSoC5/USB_std.c ****             #if (USB_EP_MANAGEMENT_DMA_AUTO && CY_PSOC4)
 462:Generated_Source\PSoC5/USB_std.c ****                 /* Clear DMA_TERMIN for IN endpoint. */
 463:Generated_Source\PSoC5/USB_std.c ****                 USB_ARB_EP_BASE.arbEp[ep].epIntEn &= (uint32) ~USB_ARB_EPX_INT_DMA_TERMIN;
 464:Generated_Source\PSoC5/USB_std.c ****             #endif /* (USB_EP_MANAGEMENT_DMA_AUTO && CY_PSOC4) */
 465:Generated_Source\PSoC5/USB_std.c ****             }
 466:Generated_Source\PSoC5/USB_std.c ****             else
 467:Generated_Source\PSoC5/USB_std.c ****             {
 468:Generated_Source\PSoC5/USB_std.c ****                 USB_SIE_EP_BASE.sieEp[ep].epCr0 = USB_MODE_NAK_OUT;
 944              		.loc 1 468 0
 945 005a 354A     		ldr	r2, .L86+8
 946 005c FB79     		ldrb	r3, [r7, #7]	@ zero_extendqisi2
 947 005e 1B01     		lsls	r3, r3, #4
 948 0060 1344     		add	r3, r3, r2
 949 0062 0233     		adds	r3, r3, #2
 950 0064 0822     		movs	r2, #8
 951 0066 1A70     		strb	r2, [r3]
 952 0068 06E0     		b	.L84
 953              	.L81:
 469:Generated_Source\PSoC5/USB_std.c **** 
 470:Generated_Source\PSoC5/USB_std.c ****             #if (USB_EP_MANAGEMENT_DMA_AUTO)
 471:Generated_Source\PSoC5/USB_std.c ****                 /* (CY_PSOC4): DMA_TERMIN for OUT endpoint is set above. */
 472:Generated_Source\PSoC5/USB_std.c ****                 
 473:Generated_Source\PSoC5/USB_std.c ****                 /* Prepare endpoint type mask. */
 474:Generated_Source\PSoC5/USB_std.c ****                 epType |= (uint8) (0x01u << (ep - USB_EP1));
 475:Generated_Source\PSoC5/USB_std.c ****             #endif /* (USB_EP_MANAGEMENT_DMA_AUTO) */
 476:Generated_Source\PSoC5/USB_std.c ****             }
 477:Generated_Source\PSoC5/USB_std.c ****         }
 478:Generated_Source\PSoC5/USB_std.c ****         else
 479:Generated_Source\PSoC5/USB_std.c ****         {
 480:Generated_Source\PSoC5/USB_std.c ****             USB_SIE_EP_BASE.sieEp[ep].epCr0 = USB_MODE_STALL_DATA_EP;
 954              		.loc 1 480 0
 955 006a 314A     		ldr	r2, .L86+8
 956 006c FB79     		ldrb	r3, [r7, #7]	@ zero_extendqisi2
 957 006e 1B01     		lsls	r3, r3, #4
 958 0070 1344     		add	r3, r3, r2
 959 0072 0233     		adds	r3, r3, #2
 960 0074 8022     		movs	r2, #128
 961 0076 1A70     		strb	r2, [r3]
 962              	.L84:
 481:Generated_Source\PSoC5/USB_std.c ****         }
 482:Generated_Source\PSoC5/USB_std.c ****         
 483:Generated_Source\PSoC5/USB_std.c ****     #if (!USB_EP_MANAGEMENT_DMA_AUTO)
 484:Generated_Source\PSoC5/USB_std.c ****         #if (CY_PSOC4)
 485:Generated_Source\PSoC5/USB_std.c ****             USB_ARB_EP16_BASE.arbEp[ep].rwRa16  = (uint32) USB_EP[ep].buffOffset;
 486:Generated_Source\PSoC5/USB_std.c ****             USB_ARB_EP16_BASE.arbEp[ep].rwWa16  = (uint32) USB_EP[ep].buffOffset;
 487:Generated_Source\PSoC5/USB_std.c ****         #else
 488:Generated_Source\PSoC5/USB_std.c ****             USB_ARB_EP_BASE.arbEp[ep].rwRa    = LO8(USB_EP[ep].buffOffset);
 963              		.loc 1 488 0 discriminator 2
 964 0078 2B48     		ldr	r0, .L86
 965 007a F979     		ldrb	r1, [r7, #7]	@ zero_extendqisi2
 966 007c FA79     		ldrb	r2, [r7, #7]	@ zero_extendqisi2
 967 007e 2B4C     		ldr	r4, .L86+4
 968 0080 1346     		mov	r3, r2
 969 0082 5B00     		lsls	r3, r3, #1
 970 0084 1344     		add	r3, r3, r2
 971 0086 9B00     		lsls	r3, r3, #2
 972 0088 2344     		add	r3, r3, r4
ARM GAS  C:\Users\Admin\AppData\Local\Temp\ccqZUt8d.s 			page 28


 973 008a 0633     		adds	r3, r3, #6
 974 008c 1B88     		ldrh	r3, [r3]	@ movhi
 975 008e 9BB2     		uxth	r3, r3
 976 0090 DAB2     		uxtb	r2, r3
 977 0092 0B01     		lsls	r3, r1, #4
 978 0094 0344     		add	r3, r3, r0
 979 0096 0633     		adds	r3, r3, #6
 980 0098 1A70     		strb	r2, [r3]
 489:Generated_Source\PSoC5/USB_std.c ****             USB_ARB_EP_BASE.arbEp[ep].rwRaMsb = HI8(USB_EP[ep].buffOffset);
 981              		.loc 1 489 0 discriminator 2
 982 009a 2348     		ldr	r0, .L86
 983 009c F979     		ldrb	r1, [r7, #7]	@ zero_extendqisi2
 984 009e FA79     		ldrb	r2, [r7, #7]	@ zero_extendqisi2
 985 00a0 224C     		ldr	r4, .L86+4
 986 00a2 1346     		mov	r3, r2
 987 00a4 5B00     		lsls	r3, r3, #1
 988 00a6 1344     		add	r3, r3, r2
 989 00a8 9B00     		lsls	r3, r3, #2
 990 00aa 2344     		add	r3, r3, r4
 991 00ac 0633     		adds	r3, r3, #6
 992 00ae 1B88     		ldrh	r3, [r3]	@ movhi
 993 00b0 9BB2     		uxth	r3, r3
 994 00b2 1B0A     		lsrs	r3, r3, #8
 995 00b4 9BB2     		uxth	r3, r3
 996 00b6 DAB2     		uxtb	r2, r3
 997 00b8 0B01     		lsls	r3, r1, #4
 998 00ba 0344     		add	r3, r3, r0
 999 00bc 0733     		adds	r3, r3, #7
 1000 00be 1A70     		strb	r2, [r3]
 490:Generated_Source\PSoC5/USB_std.c ****             USB_ARB_EP_BASE.arbEp[ep].rwWa    = LO8(USB_EP[ep].buffOffset);
 1001              		.loc 1 490 0 discriminator 2
 1002 00c0 1948     		ldr	r0, .L86
 1003 00c2 F979     		ldrb	r1, [r7, #7]	@ zero_extendqisi2
 1004 00c4 FA79     		ldrb	r2, [r7, #7]	@ zero_extendqisi2
 1005 00c6 194C     		ldr	r4, .L86+4
 1006 00c8 1346     		mov	r3, r2
 1007 00ca 5B00     		lsls	r3, r3, #1
 1008 00cc 1344     		add	r3, r3, r2
 1009 00ce 9B00     		lsls	r3, r3, #2
 1010 00d0 2344     		add	r3, r3, r4
 1011 00d2 0633     		adds	r3, r3, #6
 1012 00d4 1B88     		ldrh	r3, [r3]	@ movhi
 1013 00d6 9BB2     		uxth	r3, r3
 1014 00d8 DAB2     		uxtb	r2, r3
 1015 00da 0B01     		lsls	r3, r1, #4
 1016 00dc 0344     		add	r3, r3, r0
 1017 00de 0433     		adds	r3, r3, #4
 1018 00e0 1A70     		strb	r2, [r3]
 491:Generated_Source\PSoC5/USB_std.c ****             USB_ARB_EP_BASE.arbEp[ep].rwWaMsb = HI8(USB_EP[ep].buffOffset);
 1019              		.loc 1 491 0 discriminator 2
 1020 00e2 1148     		ldr	r0, .L86
 1021 00e4 F979     		ldrb	r1, [r7, #7]	@ zero_extendqisi2
 1022 00e6 FA79     		ldrb	r2, [r7, #7]	@ zero_extendqisi2
 1023 00e8 104C     		ldr	r4, .L86+4
 1024 00ea 1346     		mov	r3, r2
 1025 00ec 5B00     		lsls	r3, r3, #1
 1026 00ee 1344     		add	r3, r3, r2
ARM GAS  C:\Users\Admin\AppData\Local\Temp\ccqZUt8d.s 			page 29


 1027 00f0 9B00     		lsls	r3, r3, #2
 1028 00f2 2344     		add	r3, r3, r4
 1029 00f4 0633     		adds	r3, r3, #6
 1030 00f6 1B88     		ldrh	r3, [r3]	@ movhi
 1031 00f8 9BB2     		uxth	r3, r3
 1032 00fa 1B0A     		lsrs	r3, r3, #8
 1033 00fc 9BB2     		uxth	r3, r3
 1034 00fe DAB2     		uxtb	r2, r3
 1035 0100 0B01     		lsls	r3, r1, #4
 1036 0102 0344     		add	r3, r3, r0
 1037 0104 0533     		adds	r3, r3, #5
 1038 0106 1A70     		strb	r2, [r3]
 446:Generated_Source\PSoC5/USB_std.c ****     {
 1039              		.loc 1 446 0 discriminator 2
 1040 0108 FB79     		ldrb	r3, [r7, #7]
 1041 010a 0133     		adds	r3, r3, #1
 1042 010c FB71     		strb	r3, [r7, #7]
 1043              	.L80:
 446:Generated_Source\PSoC5/USB_std.c ****     {
 1044              		.loc 1 446 0 is_stmt 0 discriminator 1
 1045 010e FB79     		ldrb	r3, [r7, #7]	@ zero_extendqisi2
 1046 0110 082B     		cmp	r3, #8
 1047 0112 7FF67BAF 		bls	.L85
 492:Generated_Source\PSoC5/USB_std.c ****         #endif /* (CY_PSOC4) */
 493:Generated_Source\PSoC5/USB_std.c ****     #endif /* (!USB_EP_MANAGEMENT_DMA_AUTO) */
 494:Generated_Source\PSoC5/USB_std.c ****     }
 495:Generated_Source\PSoC5/USB_std.c **** 
 496:Generated_Source\PSoC5/USB_std.c **** #if (USB_EP_MANAGEMENT_DMA_AUTO)
 497:Generated_Source\PSoC5/USB_std.c ****      /* BUF_SIZE depend on DMA_THRESS value:0x55-32 bytes  0x44-16 bytes 0x33-8 bytes 0x22-4 bytes 
 498:Generated_Source\PSoC5/USB_std.c ****     USB_BUF_SIZE_REG = USB_DMA_BUF_SIZE;
 499:Generated_Source\PSoC5/USB_std.c **** 
 500:Generated_Source\PSoC5/USB_std.c ****     /* Configure DMA burst threshold */
 501:Generated_Source\PSoC5/USB_std.c **** #if (CY_PSOC4)
 502:Generated_Source\PSoC5/USB_std.c ****     USB_DMA_THRES16_REG   = USB_DMA_BYTES_PER_BURST;
 503:Generated_Source\PSoC5/USB_std.c **** #else
 504:Generated_Source\PSoC5/USB_std.c ****     USB_DMA_THRES_REG     = USB_DMA_BYTES_PER_BURST;
 505:Generated_Source\PSoC5/USB_std.c ****     USB_DMA_THRES_MSB_REG = 0u;
 506:Generated_Source\PSoC5/USB_std.c **** #endif /* (CY_PSOC4) */
 507:Generated_Source\PSoC5/USB_std.c ****     USB_EP_ACTIVE_REG = USB_DEFAULT_ARB_INT_EN;
 508:Generated_Source\PSoC5/USB_std.c ****     USB_EP_TYPE_REG   = epType;
 509:Generated_Source\PSoC5/USB_std.c ****     
 510:Generated_Source\PSoC5/USB_std.c ****     /* Cfg_cmp bit set to 1 once configuration is complete. */
 511:Generated_Source\PSoC5/USB_std.c ****     /* Lock arbiter configtuation */
 512:Generated_Source\PSoC5/USB_std.c ****     USB_ARB_CFG_REG |= (uint8)  USB_ARB_CFG_CFG_CMP;
 513:Generated_Source\PSoC5/USB_std.c ****     /* Cfg_cmp bit set to 0 during configuration of PFSUSB Registers. */
 514:Generated_Source\PSoC5/USB_std.c ****     USB_ARB_CFG_REG &= (uint8) ~USB_ARB_CFG_CFG_CMP;
 515:Generated_Source\PSoC5/USB_std.c **** 
 516:Generated_Source\PSoC5/USB_std.c **** #endif /* (USB_EP_MANAGEMENT_DMA_AUTO) */
 517:Generated_Source\PSoC5/USB_std.c **** 
 518:Generated_Source\PSoC5/USB_std.c ****     /* Enable interrupt SIE interurpt source from EP0-EP1 */
 519:Generated_Source\PSoC5/USB_std.c ****     USB_SIE_EP_INT_EN_REG = (uint8) USB_DEFAULT_SIE_EP_INT_EN;
 1048              		.loc 1 519 0 is_stmt 1
 1049 0116 074B     		ldr	r3, .L86+12
 1050 0118 FF22     		movs	r2, #255
 1051 011a 1A70     		strb	r2, [r3]
 520:Generated_Source\PSoC5/USB_std.c **** }
 1052              		.loc 1 520 0
ARM GAS  C:\Users\Admin\AppData\Local\Temp\ccqZUt8d.s 			page 30


 1053 011c 00BF     		nop
 1054 011e 0837     		adds	r7, r7, #8
 1055              		.cfi_def_cfa_offset 8
 1056 0120 BD46     		mov	sp, r7
 1057              		.cfi_def_cfa_register 13
 1058              		@ sp needed
 1059 0122 90BC     		pop	{r4, r7}
 1060              		.cfi_restore 7
 1061              		.cfi_restore 4
 1062              		.cfi_def_cfa_offset 0
 1063 0124 7047     		bx	lr
 1064              	.L87:
 1065 0126 00BF     		.align	2
 1066              	.L86:
 1067 0128 70600040 		.word	1073766512
 1068 012c 00000000 		.word	USB_EP
 1069 0130 FC5F0040 		.word	1073766396
 1070 0134 0A600040 		.word	1073766410
 1071              		.cfi_endproc
 1072              	.LFE2:
 1073              		.size	USB_ConfigReg, .-USB_ConfigReg
 1074              		.section	.text.USB_EpStateInit,"ax",%progbits
 1075              		.align	2
 1076              		.global	USB_EpStateInit
 1077              		.thumb
 1078              		.thumb_func
 1079              		.type	USB_EpStateInit, %function
 1080              	USB_EpStateInit:
 1081              	.LFB3:
 521:Generated_Source\PSoC5/USB_std.c **** 
 522:Generated_Source\PSoC5/USB_std.c **** 
 523:Generated_Source\PSoC5/USB_std.c **** /*******************************************************************************
 524:Generated_Source\PSoC5/USB_std.c **** * Function Name: USB_EpStateInit
 525:Generated_Source\PSoC5/USB_std.c **** ****************************************************************************//**
 526:Generated_Source\PSoC5/USB_std.c **** *
 527:Generated_Source\PSoC5/USB_std.c **** *  This routine initialize state of Data end points based of its type: 
 528:Generated_Source\PSoC5/USB_std.c **** *   IN  - USB_IN_BUFFER_EMPTY (USB_EVENT_PENDING)
 529:Generated_Source\PSoC5/USB_std.c **** *   OUT - USB_OUT_BUFFER_EMPTY (USB_NO_EVENT_PENDING)
 530:Generated_Source\PSoC5/USB_std.c **** *
 531:Generated_Source\PSoC5/USB_std.c **** *******************************************************************************/
 532:Generated_Source\PSoC5/USB_std.c **** void USB_EpStateInit(void) 
 533:Generated_Source\PSoC5/USB_std.c **** {
 1082              		.loc 1 533 0
 1083              		.cfi_startproc
 1084              		@ args = 0, pretend = 0, frame = 8
 1085              		@ frame_needed = 1, uses_anonymous_args = 0
 1086              		@ link register save eliminated.
 1087 0000 80B4     		push	{r7}
 1088              		.cfi_def_cfa_offset 4
 1089              		.cfi_offset 7, -4
 1090 0002 83B0     		sub	sp, sp, #12
 1091              		.cfi_def_cfa_offset 16
 1092 0004 00AF     		add	r7, sp, #0
 1093              		.cfi_def_cfa_register 7
 534:Generated_Source\PSoC5/USB_std.c ****     uint8 i;
 535:Generated_Source\PSoC5/USB_std.c **** 
 536:Generated_Source\PSoC5/USB_std.c ****     for (i = USB_EP1; i < USB_MAX_EP; i++)
ARM GAS  C:\Users\Admin\AppData\Local\Temp\ccqZUt8d.s 			page 31


 1094              		.loc 1 536 0
 1095 0006 0123     		movs	r3, #1
 1096 0008 FB71     		strb	r3, [r7, #7]
 1097 000a 24E0     		b	.L89
 1098              	.L92:
 537:Generated_Source\PSoC5/USB_std.c ****     { 
 538:Generated_Source\PSoC5/USB_std.c ****         if (0u != (USB_EP[i].addr & USB_DIR_IN))
 1099              		.loc 1 538 0
 1100 000c FA79     		ldrb	r2, [r7, #7]	@ zero_extendqisi2
 1101 000e 1649     		ldr	r1, .L93
 1102 0010 1346     		mov	r3, r2
 1103 0012 5B00     		lsls	r3, r3, #1
 1104 0014 1344     		add	r3, r3, r2
 1105 0016 9B00     		lsls	r3, r3, #2
 1106 0018 0B44     		add	r3, r3, r1
 1107 001a 0433     		adds	r3, r3, #4
 1108 001c 1B78     		ldrb	r3, [r3]
 1109 001e DBB2     		uxtb	r3, r3
 1110 0020 5BB2     		sxtb	r3, r3
 1111 0022 002B     		cmp	r3, #0
 1112 0024 0ADA     		bge	.L90
 539:Generated_Source\PSoC5/USB_std.c ****         {
 540:Generated_Source\PSoC5/USB_std.c ****             /* IN Endpoint */
 541:Generated_Source\PSoC5/USB_std.c ****             USB_EP[i].apiEpState = USB_EVENT_PENDING;
 1113              		.loc 1 541 0
 1114 0026 FA79     		ldrb	r2, [r7, #7]	@ zero_extendqisi2
 1115 0028 0F49     		ldr	r1, .L93
 1116 002a 1346     		mov	r3, r2
 1117 002c 5B00     		lsls	r3, r3, #1
 1118 002e 1344     		add	r3, r3, r2
 1119 0030 9B00     		lsls	r3, r3, #2
 1120 0032 0B44     		add	r3, r3, r1
 1121 0034 0133     		adds	r3, r3, #1
 1122 0036 0122     		movs	r2, #1
 1123 0038 1A70     		strb	r2, [r3]
 1124 003a 09E0     		b	.L91
 1125              	.L90:
 542:Generated_Source\PSoC5/USB_std.c ****         }
 543:Generated_Source\PSoC5/USB_std.c ****         else
 544:Generated_Source\PSoC5/USB_std.c ****         {
 545:Generated_Source\PSoC5/USB_std.c ****             /* OUT Endpoint */
 546:Generated_Source\PSoC5/USB_std.c ****             USB_EP[i].apiEpState = USB_NO_EVENT_PENDING;
 1126              		.loc 1 546 0
 1127 003c FA79     		ldrb	r2, [r7, #7]	@ zero_extendqisi2
 1128 003e 0A49     		ldr	r1, .L93
 1129 0040 1346     		mov	r3, r2
 1130 0042 5B00     		lsls	r3, r3, #1
 1131 0044 1344     		add	r3, r3, r2
 1132 0046 9B00     		lsls	r3, r3, #2
 1133 0048 0B44     		add	r3, r3, r1
 1134 004a 0133     		adds	r3, r3, #1
 1135 004c 0022     		movs	r2, #0
 1136 004e 1A70     		strb	r2, [r3]
 1137              	.L91:
 536:Generated_Source\PSoC5/USB_std.c ****     { 
 1138              		.loc 1 536 0 discriminator 2
 1139 0050 FB79     		ldrb	r3, [r7, #7]	@ zero_extendqisi2
ARM GAS  C:\Users\Admin\AppData\Local\Temp\ccqZUt8d.s 			page 32


 1140 0052 0133     		adds	r3, r3, #1
 1141 0054 FB71     		strb	r3, [r7, #7]
 1142              	.L89:
 536:Generated_Source\PSoC5/USB_std.c ****     { 
 1143              		.loc 1 536 0 is_stmt 0 discriminator 1
 1144 0056 FB79     		ldrb	r3, [r7, #7]	@ zero_extendqisi2
 1145 0058 082B     		cmp	r3, #8
 1146 005a D7D9     		bls	.L92
 547:Generated_Source\PSoC5/USB_std.c ****         }
 548:Generated_Source\PSoC5/USB_std.c ****     }
 549:Generated_Source\PSoC5/USB_std.c ****                     
 550:Generated_Source\PSoC5/USB_std.c **** }
 1147              		.loc 1 550 0 is_stmt 1
 1148 005c 00BF     		nop
 1149 005e 0C37     		adds	r7, r7, #12
 1150              		.cfi_def_cfa_offset 4
 1151 0060 BD46     		mov	sp, r7
 1152              		.cfi_def_cfa_register 13
 1153              		@ sp needed
 1154 0062 80BC     		pop	{r7}
 1155              		.cfi_restore 7
 1156              		.cfi_def_cfa_offset 0
 1157 0064 7047     		bx	lr
 1158              	.L94:
 1159 0066 00BF     		.align	2
 1160              	.L93:
 1161 0068 00000000 		.word	USB_EP
 1162              		.cfi_endproc
 1163              	.LFE3:
 1164              		.size	USB_EpStateInit, .-USB_EpStateInit
 1165              		.section	.text.USB_Config,"ax",%progbits
 1166              		.align	2
 1167              		.global	USB_Config
 1168              		.thumb
 1169              		.thumb_func
 1170              		.type	USB_Config, %function
 1171              	USB_Config:
 1172              	.LFB4:
 551:Generated_Source\PSoC5/USB_std.c **** 
 552:Generated_Source\PSoC5/USB_std.c **** 
 553:Generated_Source\PSoC5/USB_std.c **** /*******************************************************************************
 554:Generated_Source\PSoC5/USB_std.c **** * Function Name: USB_Config
 555:Generated_Source\PSoC5/USB_std.c **** ****************************************************************************//**
 556:Generated_Source\PSoC5/USB_std.c **** *
 557:Generated_Source\PSoC5/USB_std.c **** *  This routine configures endpoints for the entire configuration by scanning
 558:Generated_Source\PSoC5/USB_std.c **** *  the configuration descriptor.
 559:Generated_Source\PSoC5/USB_std.c **** *
 560:Generated_Source\PSoC5/USB_std.c **** *  \param clearAltSetting: It configures the bAlternateSetting 0 for each interface.
 561:Generated_Source\PSoC5/USB_std.c **** *
 562:Generated_Source\PSoC5/USB_std.c **** * USB_interfaceClass - Initialized class array for each interface.
 563:Generated_Source\PSoC5/USB_std.c **** *   It is used for handling Class specific requests depend on interface class.
 564:Generated_Source\PSoC5/USB_std.c **** *   Different classes in multiple Alternate settings does not supported.
 565:Generated_Source\PSoC5/USB_std.c **** *
 566:Generated_Source\PSoC5/USB_std.c **** * \reentrant
 567:Generated_Source\PSoC5/USB_std.c **** *  No.
 568:Generated_Source\PSoC5/USB_std.c **** *
 569:Generated_Source\PSoC5/USB_std.c **** *******************************************************************************/
ARM GAS  C:\Users\Admin\AppData\Local\Temp\ccqZUt8d.s 			page 33


 570:Generated_Source\PSoC5/USB_std.c **** void USB_Config(uint8 clearAltSetting) 
 571:Generated_Source\PSoC5/USB_std.c **** {
 1173              		.loc 1 571 0
 1174              		.cfi_startproc
 1175              		@ args = 0, pretend = 0, frame = 40
 1176              		@ frame_needed = 1, uses_anonymous_args = 0
 1177 0000 80B5     		push	{r7, lr}
 1178              		.cfi_def_cfa_offset 8
 1179              		.cfi_offset 7, -8
 1180              		.cfi_offset 14, -4
 1181 0002 8AB0     		sub	sp, sp, #40
 1182              		.cfi_def_cfa_offset 48
 1183 0004 00AF     		add	r7, sp, #0
 1184              		.cfi_def_cfa_register 7
 1185 0006 0346     		mov	r3, r0
 1186 0008 FB71     		strb	r3, [r7, #7]
 572:Generated_Source\PSoC5/USB_std.c ****     uint8 ep;
 573:Generated_Source\PSoC5/USB_std.c ****     uint8 curEp;
 574:Generated_Source\PSoC5/USB_std.c ****     uint8 i;
 575:Generated_Source\PSoC5/USB_std.c ****     uint8 epType;
 576:Generated_Source\PSoC5/USB_std.c ****     const uint8 *pDescr;
 577:Generated_Source\PSoC5/USB_std.c ****     
 578:Generated_Source\PSoC5/USB_std.c ****     #if (!USB_EP_MANAGEMENT_DMA_AUTO)
 579:Generated_Source\PSoC5/USB_std.c ****         uint16 buffCount = 0u;
 1187              		.loc 1 579 0
 1188 000a 0023     		movs	r3, #0
 1189 000c 7B84     		strh	r3, [r7, #34]	@ movhi
 580:Generated_Source\PSoC5/USB_std.c ****     #endif /* (!USB_EP_MANAGEMENT_DMA_AUTO) */
 581:Generated_Source\PSoC5/USB_std.c **** 
 582:Generated_Source\PSoC5/USB_std.c ****     const T_USB_LUT CYCODE *pTmp;
 583:Generated_Source\PSoC5/USB_std.c ****     const T_USB_EP_SETTINGS_BLOCK CYCODE *pEP;
 584:Generated_Source\PSoC5/USB_std.c **** 
 585:Generated_Source\PSoC5/USB_std.c ****     /* Clear endpoints settings */
 586:Generated_Source\PSoC5/USB_std.c ****     for (ep = 0u; ep < USB_MAX_EP; ++ep)
 1190              		.loc 1 586 0
 1191 000e 0023     		movs	r3, #0
 1192 0010 87F82730 		strb	r3, [r7, #39]
 1193 0014 50E0     		b	.L96
 1194              	.L97:
 587:Generated_Source\PSoC5/USB_std.c ****     {
 588:Generated_Source\PSoC5/USB_std.c ****         USB_EP[ep].attrib     = 0u;
 1195              		.loc 1 588 0 discriminator 3
 1196 0016 97F82720 		ldrb	r2, [r7, #39]	@ zero_extendqisi2
 1197 001a B349     		ldr	r1, .L122
 1198 001c 1346     		mov	r3, r2
 1199 001e 5B00     		lsls	r3, r3, #1
 1200 0020 1344     		add	r3, r3, r2
 1201 0022 9B00     		lsls	r3, r3, #2
 1202 0024 0B44     		add	r3, r3, r1
 1203 0026 0022     		movs	r2, #0
 1204 0028 1A70     		strb	r2, [r3]
 589:Generated_Source\PSoC5/USB_std.c ****         USB_EP[ep].hwEpState  = 0u;
 1205              		.loc 1 589 0 discriminator 3
 1206 002a 97F82720 		ldrb	r2, [r7, #39]	@ zero_extendqisi2
 1207 002e AE49     		ldr	r1, .L122
 1208 0030 1346     		mov	r3, r2
 1209 0032 5B00     		lsls	r3, r3, #1
ARM GAS  C:\Users\Admin\AppData\Local\Temp\ccqZUt8d.s 			page 34


 1210 0034 1344     		add	r3, r3, r2
 1211 0036 9B00     		lsls	r3, r3, #2
 1212 0038 0B44     		add	r3, r3, r1
 1213 003a 0233     		adds	r3, r3, #2
 1214 003c 0022     		movs	r2, #0
 1215 003e 1A70     		strb	r2, [r3]
 590:Generated_Source\PSoC5/USB_std.c ****         USB_EP[ep].epToggle   = 0u;
 1216              		.loc 1 590 0 discriminator 3
 1217 0040 97F82720 		ldrb	r2, [r7, #39]	@ zero_extendqisi2
 1218 0044 A849     		ldr	r1, .L122
 1219 0046 1346     		mov	r3, r2
 1220 0048 5B00     		lsls	r3, r3, #1
 1221 004a 1344     		add	r3, r3, r2
 1222 004c 9B00     		lsls	r3, r3, #2
 1223 004e 0B44     		add	r3, r3, r1
 1224 0050 0333     		adds	r3, r3, #3
 1225 0052 0022     		movs	r2, #0
 1226 0054 1A70     		strb	r2, [r3]
 591:Generated_Source\PSoC5/USB_std.c ****         USB_EP[ep].bufferSize = 0u;
 1227              		.loc 1 591 0 discriminator 3
 1228 0056 97F82720 		ldrb	r2, [r7, #39]	@ zero_extendqisi2
 1229 005a A349     		ldr	r1, .L122
 1230 005c 1346     		mov	r3, r2
 1231 005e 5B00     		lsls	r3, r3, #1
 1232 0060 1344     		add	r3, r3, r2
 1233 0062 9B00     		lsls	r3, r3, #2
 1234 0064 0B44     		add	r3, r3, r1
 1235 0066 0833     		adds	r3, r3, #8
 1236 0068 0022     		movs	r2, #0
 1237 006a 1A80     		strh	r2, [r3]	@ movhi
 592:Generated_Source\PSoC5/USB_std.c ****         USB_EP[ep].interface  = 0u;
 1238              		.loc 1 592 0 discriminator 3
 1239 006c 97F82720 		ldrb	r2, [r7, #39]	@ zero_extendqisi2
 1240 0070 9D49     		ldr	r1, .L122
 1241 0072 1346     		mov	r3, r2
 1242 0074 5B00     		lsls	r3, r3, #1
 1243 0076 1344     		add	r3, r3, r2
 1244 0078 9B00     		lsls	r3, r3, #2
 1245 007a 0B44     		add	r3, r3, r1
 1246 007c 0A33     		adds	r3, r3, #10
 1247 007e 0022     		movs	r2, #0
 1248 0080 1A70     		strb	r2, [r3]
 593:Generated_Source\PSoC5/USB_std.c ****         USB_EP[ep].apiEpState = USB_NO_EVENT_PENDING;
 1249              		.loc 1 593 0 discriminator 3
 1250 0082 97F82720 		ldrb	r2, [r7, #39]	@ zero_extendqisi2
 1251 0086 9849     		ldr	r1, .L122
 1252 0088 1346     		mov	r3, r2
 1253 008a 5B00     		lsls	r3, r3, #1
 1254 008c 1344     		add	r3, r3, r2
 1255 008e 9B00     		lsls	r3, r3, #2
 1256 0090 0B44     		add	r3, r3, r1
 1257 0092 0133     		adds	r3, r3, #1
 1258 0094 0022     		movs	r2, #0
 1259 0096 1A70     		strb	r2, [r3]
 594:Generated_Source\PSoC5/USB_std.c ****         USB_EP[ep].epMode     = USB_MODE_DISABLE;   
 1260              		.loc 1 594 0 discriminator 3
 1261 0098 97F82720 		ldrb	r2, [r7, #39]	@ zero_extendqisi2
ARM GAS  C:\Users\Admin\AppData\Local\Temp\ccqZUt8d.s 			page 35


 1262 009c 9249     		ldr	r1, .L122
 1263 009e 1346     		mov	r3, r2
 1264 00a0 5B00     		lsls	r3, r3, #1
 1265 00a2 1344     		add	r3, r3, r2
 1266 00a4 9B00     		lsls	r3, r3, #2
 1267 00a6 0B44     		add	r3, r3, r1
 1268 00a8 0533     		adds	r3, r3, #5
 1269 00aa 0022     		movs	r2, #0
 1270 00ac 1A70     		strb	r2, [r3]
 586:Generated_Source\PSoC5/USB_std.c ****     {
 1271              		.loc 1 586 0 discriminator 3
 1272 00ae 97F82730 		ldrb	r3, [r7, #39]
 1273 00b2 0133     		adds	r3, r3, #1
 1274 00b4 87F82730 		strb	r3, [r7, #39]
 1275              	.L96:
 586:Generated_Source\PSoC5/USB_std.c ****     {
 1276              		.loc 1 586 0 is_stmt 0 discriminator 1
 1277 00b8 97F82730 		ldrb	r3, [r7, #39]	@ zero_extendqisi2
 1278 00bc 082B     		cmp	r3, #8
 1279 00be AAD9     		bls	.L97
 595:Generated_Source\PSoC5/USB_std.c ****     }
 596:Generated_Source\PSoC5/USB_std.c **** 
 597:Generated_Source\PSoC5/USB_std.c ****     /* Clear Alternate settings for all interfaces. */
 598:Generated_Source\PSoC5/USB_std.c ****     if (0u != clearAltSetting)
 1280              		.loc 1 598 0 is_stmt 1
 1281 00c0 FB79     		ldrb	r3, [r7, #7]	@ zero_extendqisi2
 1282 00c2 002B     		cmp	r3, #0
 1283 00c4 16D0     		beq	.L98
 599:Generated_Source\PSoC5/USB_std.c ****     {
 600:Generated_Source\PSoC5/USB_std.c ****         for (i = 0u; i < USB_MAX_INTERFACES_NUMBER; ++i)
 1284              		.loc 1 600 0
 1285 00c6 0023     		movs	r3, #0
 1286 00c8 87F82530 		strb	r3, [r7, #37]
 1287 00cc 0EE0     		b	.L99
 1288              	.L100:
 601:Generated_Source\PSoC5/USB_std.c ****         {
 602:Generated_Source\PSoC5/USB_std.c ****             USB_interfaceSetting[i]     = 0u;
 1289              		.loc 1 602 0 discriminator 3
 1290 00ce 97F82530 		ldrb	r3, [r7, #37]	@ zero_extendqisi2
 1291 00d2 864A     		ldr	r2, .L122+4
 1292 00d4 0021     		movs	r1, #0
 1293 00d6 D154     		strb	r1, [r2, r3]
 603:Generated_Source\PSoC5/USB_std.c ****             USB_interfaceSettingLast[i] = 0u;
 1294              		.loc 1 603 0 discriminator 3
 1295 00d8 97F82530 		ldrb	r3, [r7, #37]	@ zero_extendqisi2
 1296 00dc 844A     		ldr	r2, .L122+8
 1297 00de 0021     		movs	r1, #0
 1298 00e0 D154     		strb	r1, [r2, r3]
 600:Generated_Source\PSoC5/USB_std.c ****         {
 1299              		.loc 1 600 0 discriminator 3
 1300 00e2 97F82530 		ldrb	r3, [r7, #37]
 1301 00e6 0133     		adds	r3, r3, #1
 1302 00e8 87F82530 		strb	r3, [r7, #37]
 1303              	.L99:
 600:Generated_Source\PSoC5/USB_std.c ****         {
 1304              		.loc 1 600 0 is_stmt 0 discriminator 1
 1305 00ec 97F82530 		ldrb	r3, [r7, #37]	@ zero_extendqisi2
ARM GAS  C:\Users\Admin\AppData\Local\Temp\ccqZUt8d.s 			page 36


 1306 00f0 012B     		cmp	r3, #1
 1307 00f2 ECD9     		bls	.L100
 1308              	.L98:
 604:Generated_Source\PSoC5/USB_std.c ****         }
 605:Generated_Source\PSoC5/USB_std.c ****     }
 606:Generated_Source\PSoC5/USB_std.c **** 
 607:Generated_Source\PSoC5/USB_std.c ****     /* Init Endpoints and Device Status if configured */
 608:Generated_Source\PSoC5/USB_std.c ****     if (USB_configuration > 0u)
 1309              		.loc 1 608 0 is_stmt 1
 1310 00f4 7F4B     		ldr	r3, .L122+12
 1311 00f6 1B78     		ldrb	r3, [r3]
 1312 00f8 DBB2     		uxtb	r3, r3
 1313 00fa 002B     		cmp	r3, #0
 1314 00fc 00F05181 		beq	.L121
 1315              	.LBB2:
 609:Generated_Source\PSoC5/USB_std.c ****     {
 610:Generated_Source\PSoC5/USB_std.c ****         #if defined(USB_ENABLE_CDC_CLASS)
 611:Generated_Source\PSoC5/USB_std.c ****             uint8 cdcComNums = 0u;
 1316              		.loc 1 611 0
 1317 0100 0023     		movs	r3, #0
 1318 0102 FB76     		strb	r3, [r7, #27]
 612:Generated_Source\PSoC5/USB_std.c ****         #endif  /* (USB_ENABLE_CDC_CLASS) */  
 613:Generated_Source\PSoC5/USB_std.c **** 
 614:Generated_Source\PSoC5/USB_std.c ****         pTmp = USB_GetConfigTablePtr(USB_configuration - 1u);
 1319              		.loc 1 614 0
 1320 0104 7B4B     		ldr	r3, .L122+12
 1321 0106 1B78     		ldrb	r3, [r3]
 1322 0108 DBB2     		uxtb	r3, r3
 1323 010a 013B     		subs	r3, r3, #1
 1324 010c DBB2     		uxtb	r3, r3
 1325 010e 1846     		mov	r0, r3
 1326 0110 FFF7FEFF 		bl	USB_GetConfigTablePtr
 1327 0114 7861     		str	r0, [r7, #20]
 615:Generated_Source\PSoC5/USB_std.c ****         
 616:Generated_Source\PSoC5/USB_std.c ****         /* Set Power status for current configuration */
 617:Generated_Source\PSoC5/USB_std.c ****         pDescr = (const uint8 *)pTmp->p_list;
 1328              		.loc 1 617 0
 1329 0116 7B69     		ldr	r3, [r7, #20]
 1330 0118 5B68     		ldr	r3, [r3, #4]
 1331 011a 3B61     		str	r3, [r7, #16]
 618:Generated_Source\PSoC5/USB_std.c ****         if ((pDescr[USB_CONFIG_DESCR_ATTRIB] & USB_CONFIG_DESCR_ATTRIB_SELF_POWERED) != 0u)
 1332              		.loc 1 618 0
 1333 011c 3B69     		ldr	r3, [r7, #16]
 1334 011e 0733     		adds	r3, r3, #7
 1335 0120 1B78     		ldrb	r3, [r3]	@ zero_extendqisi2
 1336 0122 03F04003 		and	r3, r3, #64
 1337 0126 002B     		cmp	r3, #0
 1338 0128 08D0     		beq	.L102
 619:Generated_Source\PSoC5/USB_std.c ****         {
 620:Generated_Source\PSoC5/USB_std.c ****             USB_deviceStatus |= (uint8)  USB_DEVICE_STATUS_SELF_POWERED;
 1339              		.loc 1 620 0
 1340 012a 734B     		ldr	r3, .L122+16
 1341 012c 1B78     		ldrb	r3, [r3]
 1342 012e DBB2     		uxtb	r3, r3
 1343 0130 43F00103 		orr	r3, r3, #1
 1344 0134 DAB2     		uxtb	r2, r3
 1345 0136 704B     		ldr	r3, .L122+16
ARM GAS  C:\Users\Admin\AppData\Local\Temp\ccqZUt8d.s 			page 37


 1346 0138 1A70     		strb	r2, [r3]
 1347 013a 07E0     		b	.L103
 1348              	.L102:
 621:Generated_Source\PSoC5/USB_std.c ****         }
 622:Generated_Source\PSoC5/USB_std.c ****         else
 623:Generated_Source\PSoC5/USB_std.c ****         {
 624:Generated_Source\PSoC5/USB_std.c ****             USB_deviceStatus &= (uint8) ~USB_DEVICE_STATUS_SELF_POWERED;
 1349              		.loc 1 624 0
 1350 013c 6E4B     		ldr	r3, .L122+16
 1351 013e 1B78     		ldrb	r3, [r3]
 1352 0140 DBB2     		uxtb	r3, r3
 1353 0142 23F00103 		bic	r3, r3, #1
 1354 0146 DAB2     		uxtb	r2, r3
 1355 0148 6B4B     		ldr	r3, .L122+16
 1356 014a 1A70     		strb	r2, [r3]
 1357              	.L103:
 625:Generated_Source\PSoC5/USB_std.c ****         }
 626:Generated_Source\PSoC5/USB_std.c ****         
 627:Generated_Source\PSoC5/USB_std.c ****         /* Move to next element */
 628:Generated_Source\PSoC5/USB_std.c ****         pTmp = &pTmp[1u];
 1358              		.loc 1 628 0
 1359 014c 7B69     		ldr	r3, [r7, #20]
 1360 014e 0833     		adds	r3, r3, #8
 1361 0150 7B61     		str	r3, [r7, #20]
 629:Generated_Source\PSoC5/USB_std.c ****         ep = pTmp->c;  /* For this table, c is the number of endpoints configurations  */
 1362              		.loc 1 629 0
 1363 0152 7B69     		ldr	r3, [r7, #20]
 1364 0154 1B78     		ldrb	r3, [r3]
 1365 0156 87F82730 		strb	r3, [r7, #39]
 630:Generated_Source\PSoC5/USB_std.c **** 
 631:Generated_Source\PSoC5/USB_std.c ****         #if (USB_EP_MANAGEMENT_MANUAL && USB_EP_ALLOC_DYNAMIC)
 632:Generated_Source\PSoC5/USB_std.c ****             /* Configure for dynamic EP memory allocation */
 633:Generated_Source\PSoC5/USB_std.c ****             /* p_list points the endpoint setting table. */
 634:Generated_Source\PSoC5/USB_std.c ****             pEP = (T_USB_EP_SETTINGS_BLOCK *) pTmp->p_list;
 635:Generated_Source\PSoC5/USB_std.c ****             
 636:Generated_Source\PSoC5/USB_std.c ****             for (i = 0u; i < ep; i++)
 637:Generated_Source\PSoC5/USB_std.c ****             {     
 638:Generated_Source\PSoC5/USB_std.c ****                 /* Compare current Alternate setting with EP Alt */
 639:Generated_Source\PSoC5/USB_std.c ****                 if (USB_interfaceSetting[pEP->interface] == pEP->altSetting)
 640:Generated_Source\PSoC5/USB_std.c ****                 {                                                          
 641:Generated_Source\PSoC5/USB_std.c ****                     curEp  = pEP->addr & USB_DIR_UNUSED;
 642:Generated_Source\PSoC5/USB_std.c ****                     epType = pEP->attributes & USB_EP_TYPE_MASK;
 643:Generated_Source\PSoC5/USB_std.c ****                     
 644:Generated_Source\PSoC5/USB_std.c ****                     USB_EP[curEp].addr       = pEP->addr;
 645:Generated_Source\PSoC5/USB_std.c ****                     USB_EP[curEp].attrib     = pEP->attributes;
 646:Generated_Source\PSoC5/USB_std.c ****                     USB_EP[curEp].bufferSize = pEP->bufferSize;
 647:Generated_Source\PSoC5/USB_std.c **** 
 648:Generated_Source\PSoC5/USB_std.c ****                     if (0u != (pEP->addr & USB_DIR_IN))
 649:Generated_Source\PSoC5/USB_std.c ****                     {
 650:Generated_Source\PSoC5/USB_std.c ****                         /* IN Endpoint */
 651:Generated_Source\PSoC5/USB_std.c ****                         USB_EP[curEp].epMode     = USB_GET_ACTIVE_IN_EP_CR0_MODE(epType);
 652:Generated_Source\PSoC5/USB_std.c ****                         USB_EP[curEp].apiEpState = USB_EVENT_PENDING;
 653:Generated_Source\PSoC5/USB_std.c ****                     
 654:Generated_Source\PSoC5/USB_std.c ****                     #if (defined(USB_ENABLE_MIDI_STREAMING) && (USB_MIDI_IN_BUFF_SIZE > 0))
 655:Generated_Source\PSoC5/USB_std.c ****                         if ((pEP->bMisc == USB_CLASS_AUDIO) && (epType == USB_EP_TYPE_BULK))
 656:Generated_Source\PSoC5/USB_std.c ****                         {
 657:Generated_Source\PSoC5/USB_std.c ****                             USB_midi_in_ep = curEp;
ARM GAS  C:\Users\Admin\AppData\Local\Temp\ccqZUt8d.s 			page 38


 658:Generated_Source\PSoC5/USB_std.c ****                         }
 659:Generated_Source\PSoC5/USB_std.c ****                     #endif  /* (USB_ENABLE_MIDI_STREAMING) */
 660:Generated_Source\PSoC5/USB_std.c ****                     }
 661:Generated_Source\PSoC5/USB_std.c ****                     else
 662:Generated_Source\PSoC5/USB_std.c ****                     {
 663:Generated_Source\PSoC5/USB_std.c ****                         /* OUT Endpoint */
 664:Generated_Source\PSoC5/USB_std.c ****                         USB_EP[curEp].epMode     = USB_GET_ACTIVE_OUT_EP_CR0_MODE(epType);
 665:Generated_Source\PSoC5/USB_std.c ****                         USB_EP[curEp].apiEpState = USB_NO_EVENT_PENDING;
 666:Generated_Source\PSoC5/USB_std.c ****                         
 667:Generated_Source\PSoC5/USB_std.c ****                     #if (defined(USB_ENABLE_MIDI_STREAMING) && (USB_MIDI_OUT_BUFF_SIZE > 0))
 668:Generated_Source\PSoC5/USB_std.c ****                         if ((pEP->bMisc == USB_CLASS_AUDIO) && (epType == USB_EP_TYPE_BULK))
 669:Generated_Source\PSoC5/USB_std.c ****                         {
 670:Generated_Source\PSoC5/USB_std.c ****                             USB_midi_out_ep = curEp;
 671:Generated_Source\PSoC5/USB_std.c ****                         }
 672:Generated_Source\PSoC5/USB_std.c ****                     #endif  /* (USB_ENABLE_MIDI_STREAMING) */
 673:Generated_Source\PSoC5/USB_std.c ****                     }
 674:Generated_Source\PSoC5/USB_std.c **** 
 675:Generated_Source\PSoC5/USB_std.c ****                 #if(defined (USB_ENABLE_CDC_CLASS))
 676:Generated_Source\PSoC5/USB_std.c ****                     if((pEP->bMisc == USB_CLASS_CDC_DATA) ||(pEP->bMisc == USB_CLASS_CDC))
 677:Generated_Source\PSoC5/USB_std.c ****                     {
 678:Generated_Source\PSoC5/USB_std.c ****                         cdcComNums = USB_Cdc_EpInit(pEP, curEp, cdcComNums);
 679:Generated_Source\PSoC5/USB_std.c ****                     }
 680:Generated_Source\PSoC5/USB_std.c ****                 #endif  /* (USB_ENABLE_CDC_CLASS) */
 681:Generated_Source\PSoC5/USB_std.c ****                 }
 682:Generated_Source\PSoC5/USB_std.c ****                 
 683:Generated_Source\PSoC5/USB_std.c ****                 pEP = &pEP[1u];
 684:Generated_Source\PSoC5/USB_std.c ****             }
 685:Generated_Source\PSoC5/USB_std.c ****             
 686:Generated_Source\PSoC5/USB_std.c ****         #else
 687:Generated_Source\PSoC5/USB_std.c ****             for (i = USB_EP1; i < USB_MAX_EP; ++i)
 1366              		.loc 1 687 0
 1367 015a 0123     		movs	r3, #1
 1368 015c 87F82530 		strb	r3, [r7, #37]
 1369 0160 B6E0     		b	.L104
 1370              	.L116:
 688:Generated_Source\PSoC5/USB_std.c ****             {
 689:Generated_Source\PSoC5/USB_std.c ****                 /* p_list points the endpoint setting table. */
 690:Generated_Source\PSoC5/USB_std.c ****                 pEP = (const T_USB_EP_SETTINGS_BLOCK CYCODE *) pTmp->p_list;
 1371              		.loc 1 690 0
 1372 0162 7B69     		ldr	r3, [r7, #20]
 1373 0164 5B68     		ldr	r3, [r3, #4]
 1374 0166 FB61     		str	r3, [r7, #28]
 691:Generated_Source\PSoC5/USB_std.c ****                 /* Find max length for each EP and select it (length could be different in differen
 692:Generated_Source\PSoC5/USB_std.c ****                 /* but other settings should be correct with regards to Interface alt Setting */
 693:Generated_Source\PSoC5/USB_std.c ****                 
 694:Generated_Source\PSoC5/USB_std.c ****                 for (curEp = 0u; curEp < ep; ++curEp)
 1375              		.loc 1 694 0
 1376 0168 0023     		movs	r3, #0
 1377 016a 87F82630 		strb	r3, [r7, #38]
 1378 016e A3E0     		b	.L105
 1379              	.L115:
 695:Generated_Source\PSoC5/USB_std.c ****                 {
 696:Generated_Source\PSoC5/USB_std.c ****                     if (i == (pEP->addr & USB_DIR_UNUSED))
 1380              		.loc 1 696 0
 1381 0170 97F82520 		ldrb	r2, [r7, #37]	@ zero_extendqisi2
 1382 0174 FB69     		ldr	r3, [r7, #28]
 1383 0176 9B78     		ldrb	r3, [r3, #2]	@ zero_extendqisi2
ARM GAS  C:\Users\Admin\AppData\Local\Temp\ccqZUt8d.s 			page 39


 1384 0178 03F07F03 		and	r3, r3, #127
 1385 017c 9A42     		cmp	r2, r3
 1386 017e 40F09380 		bne	.L106
 697:Generated_Source\PSoC5/USB_std.c ****                     {
 698:Generated_Source\PSoC5/USB_std.c ****                         /* Compare endpoint buffers size with current size to find greater. */
 699:Generated_Source\PSoC5/USB_std.c ****                         if (USB_EP[i].bufferSize < pEP->bufferSize)
 1387              		.loc 1 699 0
 1388 0182 97F82520 		ldrb	r2, [r7, #37]	@ zero_extendqisi2
 1389 0186 5849     		ldr	r1, .L122
 1390 0188 1346     		mov	r3, r2
 1391 018a 5B00     		lsls	r3, r3, #1
 1392 018c 1344     		add	r3, r3, r2
 1393 018e 9B00     		lsls	r3, r3, #2
 1394 0190 0B44     		add	r3, r3, r1
 1395 0192 0833     		adds	r3, r3, #8
 1396 0194 1B88     		ldrh	r3, [r3]	@ movhi
 1397 0196 9AB2     		uxth	r2, r3
 1398 0198 FB69     		ldr	r3, [r7, #28]
 1399 019a 9B88     		ldrh	r3, [r3, #4]
 1400 019c 9A42     		cmp	r2, r3
 1401 019e 0CD2     		bcs	.L107
 700:Generated_Source\PSoC5/USB_std.c ****                         {
 701:Generated_Source\PSoC5/USB_std.c ****                             USB_EP[i].bufferSize = pEP->bufferSize;
 1402              		.loc 1 701 0
 1403 01a0 97F82520 		ldrb	r2, [r7, #37]	@ zero_extendqisi2
 1404 01a4 FB69     		ldr	r3, [r7, #28]
 1405 01a6 9888     		ldrh	r0, [r3, #4]
 1406 01a8 4F49     		ldr	r1, .L122
 1407 01aa 1346     		mov	r3, r2
 1408 01ac 5B00     		lsls	r3, r3, #1
 1409 01ae 1344     		add	r3, r3, r2
 1410 01b0 9B00     		lsls	r3, r3, #2
 1411 01b2 0B44     		add	r3, r3, r1
 1412 01b4 0833     		adds	r3, r3, #8
 1413 01b6 0246     		mov	r2, r0	@ movhi
 1414 01b8 1A80     		strh	r2, [r3]	@ movhi
 1415              	.L107:
 702:Generated_Source\PSoC5/USB_std.c ****                         }
 703:Generated_Source\PSoC5/USB_std.c ****                         
 704:Generated_Source\PSoC5/USB_std.c ****                         /* Compare current Alternate setting with EP Alt */
 705:Generated_Source\PSoC5/USB_std.c ****                         if (USB_interfaceSetting[pEP->interface] == pEP->altSetting)
 1416              		.loc 1 705 0
 1417 01ba FB69     		ldr	r3, [r7, #28]
 1418 01bc 1B78     		ldrb	r3, [r3]	@ zero_extendqisi2
 1419 01be 1A46     		mov	r2, r3
 1420 01c0 4A4B     		ldr	r3, .L122+4
 1421 01c2 9B5C     		ldrb	r3, [r3, r2]
 1422 01c4 DAB2     		uxtb	r2, r3
 1423 01c6 FB69     		ldr	r3, [r7, #28]
 1424 01c8 5B78     		ldrb	r3, [r3, #1]	@ zero_extendqisi2
 1425 01ca 9A42     		cmp	r2, r3
 1426 01cc 6CD1     		bne	.L106
 706:Generated_Source\PSoC5/USB_std.c ****                         {                            
 707:Generated_Source\PSoC5/USB_std.c ****                             USB_EP[i].addr = pEP->addr;
 1427              		.loc 1 707 0
 1428 01ce 97F82520 		ldrb	r2, [r7, #37]	@ zero_extendqisi2
 1429 01d2 FB69     		ldr	r3, [r7, #28]
ARM GAS  C:\Users\Admin\AppData\Local\Temp\ccqZUt8d.s 			page 40


 1430 01d4 9878     		ldrb	r0, [r3, #2]	@ zero_extendqisi2
 1431 01d6 4449     		ldr	r1, .L122
 1432 01d8 1346     		mov	r3, r2
 1433 01da 5B00     		lsls	r3, r3, #1
 1434 01dc 1344     		add	r3, r3, r2
 1435 01de 9B00     		lsls	r3, r3, #2
 1436 01e0 0B44     		add	r3, r3, r1
 1437 01e2 0433     		adds	r3, r3, #4
 1438 01e4 0246     		mov	r2, r0
 1439 01e6 1A70     		strb	r2, [r3]
 708:Generated_Source\PSoC5/USB_std.c ****                             USB_EP[i].attrib = pEP->attributes;
 1440              		.loc 1 708 0
 1441 01e8 97F82520 		ldrb	r2, [r7, #37]	@ zero_extendqisi2
 1442 01ec FB69     		ldr	r3, [r7, #28]
 1443 01ee D878     		ldrb	r0, [r3, #3]	@ zero_extendqisi2
 1444 01f0 3D49     		ldr	r1, .L122
 1445 01f2 1346     		mov	r3, r2
 1446 01f4 5B00     		lsls	r3, r3, #1
 1447 01f6 1344     		add	r3, r3, r2
 1448 01f8 9B00     		lsls	r3, r3, #2
 1449 01fa 0B44     		add	r3, r3, r1
 1450 01fc 0246     		mov	r2, r0
 1451 01fe 1A70     		strb	r2, [r3]
 709:Generated_Source\PSoC5/USB_std.c ****                             
 710:Generated_Source\PSoC5/USB_std.c ****                             epType = pEP->attributes & USB_EP_TYPE_MASK;
 1452              		.loc 1 710 0
 1453 0200 FB69     		ldr	r3, [r7, #28]
 1454 0202 DB78     		ldrb	r3, [r3, #3]	@ zero_extendqisi2
 1455 0204 03F00303 		and	r3, r3, #3
 1456 0208 FB73     		strb	r3, [r7, #15]
 711:Generated_Source\PSoC5/USB_std.c ****                             
 712:Generated_Source\PSoC5/USB_std.c ****                             if (0u != (pEP->addr & USB_DIR_IN))
 1457              		.loc 1 712 0
 1458 020a FB69     		ldr	r3, [r7, #28]
 1459 020c 9B78     		ldrb	r3, [r3, #2]	@ zero_extendqisi2
 1460 020e 5BB2     		sxtb	r3, r3
 1461 0210 002B     		cmp	r3, #0
 1462 0212 1CDA     		bge	.L108
 713:Generated_Source\PSoC5/USB_std.c ****                             {
 714:Generated_Source\PSoC5/USB_std.c ****                                 /* IN Endpoint */
 715:Generated_Source\PSoC5/USB_std.c ****                                 USB_EP[i].epMode     = USB_GET_ACTIVE_IN_EP_CR0_MODE(epType);
 1463              		.loc 1 715 0
 1464 0214 97F82520 		ldrb	r2, [r7, #37]	@ zero_extendqisi2
 1465 0218 FB7B     		ldrb	r3, [r7, #15]	@ zero_extendqisi2
 1466 021a 012B     		cmp	r3, #1
 1467 021c 01D1     		bne	.L109
 1468              		.loc 1 715 0 is_stmt 0 discriminator 1
 1469 021e 0720     		movs	r0, #7
 1470 0220 00E0     		b	.L110
 1471              	.L109:
 1472              		.loc 1 715 0 discriminator 2
 1473 0222 0D20     		movs	r0, #13
 1474              	.L110:
 1475              		.loc 1 715 0 discriminator 4
 1476 0224 3049     		ldr	r1, .L122
 1477 0226 1346     		mov	r3, r2
 1478 0228 5B00     		lsls	r3, r3, #1
ARM GAS  C:\Users\Admin\AppData\Local\Temp\ccqZUt8d.s 			page 41


 1479 022a 1344     		add	r3, r3, r2
 1480 022c 9B00     		lsls	r3, r3, #2
 1481 022e 0B44     		add	r3, r3, r1
 1482 0230 0533     		adds	r3, r3, #5
 1483 0232 0246     		mov	r2, r0
 1484 0234 1A70     		strb	r2, [r3]
 716:Generated_Source\PSoC5/USB_std.c ****                                 USB_EP[i].apiEpState = USB_EVENT_PENDING;
 1485              		.loc 1 716 0 is_stmt 1 discriminator 4
 1486 0236 97F82520 		ldrb	r2, [r7, #37]	@ zero_extendqisi2
 1487 023a 2B49     		ldr	r1, .L122
 1488 023c 1346     		mov	r3, r2
 1489 023e 5B00     		lsls	r3, r3, #1
 1490 0240 1344     		add	r3, r3, r2
 1491 0242 9B00     		lsls	r3, r3, #2
 1492 0244 0B44     		add	r3, r3, r1
 1493 0246 0133     		adds	r3, r3, #1
 1494 0248 0122     		movs	r2, #1
 1495 024a 1A70     		strb	r2, [r3]
 1496 024c 1BE0     		b	.L111
 1497              	.L108:
 717:Generated_Source\PSoC5/USB_std.c ****                                 
 718:Generated_Source\PSoC5/USB_std.c ****                             #if (defined(USB_ENABLE_MIDI_STREAMING) && (USB_MIDI_IN_BUFF_SIZE > 0))
 719:Generated_Source\PSoC5/USB_std.c ****                                 if ((pEP->bMisc == USB_CLASS_AUDIO) && (epType == USB_EP_TYPE_BULK)
 720:Generated_Source\PSoC5/USB_std.c ****                                 {
 721:Generated_Source\PSoC5/USB_std.c ****                                     USB_midi_in_ep = i;
 722:Generated_Source\PSoC5/USB_std.c ****                                 }
 723:Generated_Source\PSoC5/USB_std.c ****                             #endif  /* (USB_ENABLE_MIDI_STREAMING) */
 724:Generated_Source\PSoC5/USB_std.c ****                             }
 725:Generated_Source\PSoC5/USB_std.c ****                             else
 726:Generated_Source\PSoC5/USB_std.c ****                             {
 727:Generated_Source\PSoC5/USB_std.c ****                                 /* OUT Endpoint */
 728:Generated_Source\PSoC5/USB_std.c ****                                 USB_EP[i].epMode     = USB_GET_ACTIVE_OUT_EP_CR0_MODE(epType);
 1498              		.loc 1 728 0
 1499 024e 97F82520 		ldrb	r2, [r7, #37]	@ zero_extendqisi2
 1500 0252 FB7B     		ldrb	r3, [r7, #15]	@ zero_extendqisi2
 1501 0254 012B     		cmp	r3, #1
 1502 0256 01D1     		bne	.L112
 1503              		.loc 1 728 0 is_stmt 0 discriminator 1
 1504 0258 0520     		movs	r0, #5
 1505 025a 00E0     		b	.L113
 1506              	.L112:
 1507              		.loc 1 728 0 discriminator 2
 1508 025c 0920     		movs	r0, #9
 1509              	.L113:
 1510              		.loc 1 728 0 discriminator 4
 1511 025e 2249     		ldr	r1, .L122
 1512 0260 1346     		mov	r3, r2
 1513 0262 5B00     		lsls	r3, r3, #1
 1514 0264 1344     		add	r3, r3, r2
 1515 0266 9B00     		lsls	r3, r3, #2
 1516 0268 0B44     		add	r3, r3, r1
 1517 026a 0533     		adds	r3, r3, #5
 1518 026c 0246     		mov	r2, r0
 1519 026e 1A70     		strb	r2, [r3]
 729:Generated_Source\PSoC5/USB_std.c ****                                 USB_EP[i].apiEpState = USB_NO_EVENT_PENDING;
 1520              		.loc 1 729 0 is_stmt 1 discriminator 4
 1521 0270 97F82520 		ldrb	r2, [r7, #37]	@ zero_extendqisi2
ARM GAS  C:\Users\Admin\AppData\Local\Temp\ccqZUt8d.s 			page 42


 1522 0274 1C49     		ldr	r1, .L122
 1523 0276 1346     		mov	r3, r2
 1524 0278 5B00     		lsls	r3, r3, #1
 1525 027a 1344     		add	r3, r3, r2
 1526 027c 9B00     		lsls	r3, r3, #2
 1527 027e 0B44     		add	r3, r3, r1
 1528 0280 0133     		adds	r3, r3, #1
 1529 0282 0022     		movs	r2, #0
 1530 0284 1A70     		strb	r2, [r3]
 1531              	.L111:
 730:Generated_Source\PSoC5/USB_std.c ****                                 
 731:Generated_Source\PSoC5/USB_std.c ****                             #if (defined(USB_ENABLE_MIDI_STREAMING) && (USB_MIDI_OUT_BUFF_SIZE > 0)
 732:Generated_Source\PSoC5/USB_std.c ****                                 if ((pEP->bMisc == USB_CLASS_AUDIO) && (epType == USB_EP_TYPE_BULK)
 733:Generated_Source\PSoC5/USB_std.c ****                                 {
 734:Generated_Source\PSoC5/USB_std.c ****                                     USB_midi_out_ep = i;
 735:Generated_Source\PSoC5/USB_std.c ****                                 }
 736:Generated_Source\PSoC5/USB_std.c ****                             #endif  /* (USB_ENABLE_MIDI_STREAMING) */
 737:Generated_Source\PSoC5/USB_std.c ****                             }
 738:Generated_Source\PSoC5/USB_std.c **** 
 739:Generated_Source\PSoC5/USB_std.c ****                         #if (defined(USB_ENABLE_CDC_CLASS))
 740:Generated_Source\PSoC5/USB_std.c ****                             if((pEP->bMisc == USB_CLASS_CDC_DATA) ||(pEP->bMisc == USB_CLASS_CDC))
 1532              		.loc 1 740 0
 1533 0286 FB69     		ldr	r3, [r7, #28]
 1534 0288 9B79     		ldrb	r3, [r3, #6]	@ zero_extendqisi2
 1535 028a 0A2B     		cmp	r3, #10
 1536 028c 03D0     		beq	.L114
 1537              		.loc 1 740 0 is_stmt 0 discriminator 1
 1538 028e FB69     		ldr	r3, [r7, #28]
 1539 0290 9B79     		ldrb	r3, [r3, #6]	@ zero_extendqisi2
 1540 0292 022B     		cmp	r3, #2
 1541 0294 08D1     		bne	.L106
 1542              	.L114:
 741:Generated_Source\PSoC5/USB_std.c ****                             {
 742:Generated_Source\PSoC5/USB_std.c ****                                 cdcComNums = USB_Cdc_EpInit(pEP, i, cdcComNums);
 1543              		.loc 1 742 0 is_stmt 1
 1544 0296 FA7E     		ldrb	r2, [r7, #27]	@ zero_extendqisi2
 1545 0298 97F82530 		ldrb	r3, [r7, #37]	@ zero_extendqisi2
 1546 029c 1946     		mov	r1, r3
 1547 029e F869     		ldr	r0, [r7, #28]
 1548 02a0 FFF7FEFF 		bl	USB_Cdc_EpInit
 1549 02a4 0346     		mov	r3, r0
 1550 02a6 FB76     		strb	r3, [r7, #27]
 1551              	.L106:
 743:Generated_Source\PSoC5/USB_std.c ****                             }
 744:Generated_Source\PSoC5/USB_std.c ****                         #endif  /* (USB_ENABLE_CDC_CLASS) */
 745:Generated_Source\PSoC5/USB_std.c **** 
 746:Generated_Source\PSoC5/USB_std.c ****                             #if (USB_EP_MANAGEMENT_DMA_AUTO)
 747:Generated_Source\PSoC5/USB_std.c ****                                 break;  /* Use first EP setting in Auto memory management */
 748:Generated_Source\PSoC5/USB_std.c ****                             #endif /* (USB_EP_MANAGEMENT_DMA_AUTO) */
 749:Generated_Source\PSoC5/USB_std.c ****                         }
 750:Generated_Source\PSoC5/USB_std.c ****                     }
 751:Generated_Source\PSoC5/USB_std.c ****                     
 752:Generated_Source\PSoC5/USB_std.c ****                     pEP = &pEP[1u];
 1552              		.loc 1 752 0 discriminator 2
 1553 02a8 FB69     		ldr	r3, [r7, #28]
 1554 02aa 0833     		adds	r3, r3, #8
 1555 02ac FB61     		str	r3, [r7, #28]
ARM GAS  C:\Users\Admin\AppData\Local\Temp\ccqZUt8d.s 			page 43


 694:Generated_Source\PSoC5/USB_std.c ****                 {
 1556              		.loc 1 694 0 discriminator 2
 1557 02ae 97F82630 		ldrb	r3, [r7, #38]
 1558 02b2 0133     		adds	r3, r3, #1
 1559 02b4 87F82630 		strb	r3, [r7, #38]
 1560              	.L105:
 694:Generated_Source\PSoC5/USB_std.c ****                 {
 1561              		.loc 1 694 0 is_stmt 0 discriminator 1
 1562 02b8 97F82620 		ldrb	r2, [r7, #38]	@ zero_extendqisi2
 1563 02bc 97F82730 		ldrb	r3, [r7, #39]	@ zero_extendqisi2
 1564 02c0 9A42     		cmp	r2, r3
 1565 02c2 FFF455AF 		bcc	.L115
 687:Generated_Source\PSoC5/USB_std.c ****             {
 1566              		.loc 1 687 0 is_stmt 1 discriminator 2
 1567 02c6 97F82530 		ldrb	r3, [r7, #37]
 1568 02ca 0133     		adds	r3, r3, #1
 1569 02cc 87F82530 		strb	r3, [r7, #37]
 1570              	.L104:
 687:Generated_Source\PSoC5/USB_std.c ****             {
 1571              		.loc 1 687 0 is_stmt 0 discriminator 1
 1572 02d0 97F82530 		ldrb	r3, [r7, #37]	@ zero_extendqisi2
 1573 02d4 082B     		cmp	r3, #8
 1574 02d6 7FF644AF 		bls	.L116
 753:Generated_Source\PSoC5/USB_std.c ****                 }
 754:Generated_Source\PSoC5/USB_std.c ****             }
 755:Generated_Source\PSoC5/USB_std.c ****         #endif /*  (USB_EP_MANAGEMENT_MANUAL && USB_EP_ALLOC_DYNAMIC) */
 756:Generated_Source\PSoC5/USB_std.c **** 
 757:Generated_Source\PSoC5/USB_std.c ****         /* Init class array for each interface and interface number for each EP.
 758:Generated_Source\PSoC5/USB_std.c ****         *  It is used for handling Class specific requests directed to either an
 759:Generated_Source\PSoC5/USB_std.c ****         *  interface or the endpoint.
 760:Generated_Source\PSoC5/USB_std.c ****         */
 761:Generated_Source\PSoC5/USB_std.c ****         /* p_list points the endpoint setting table. */
 762:Generated_Source\PSoC5/USB_std.c ****         pEP = (const T_USB_EP_SETTINGS_BLOCK CYCODE *) pTmp->p_list;
 1575              		.loc 1 762 0 is_stmt 1
 1576 02da 7B69     		ldr	r3, [r7, #20]
 1577 02dc 5B68     		ldr	r3, [r3, #4]
 1578 02de FB61     		str	r3, [r7, #28]
 763:Generated_Source\PSoC5/USB_std.c ****         for (i = 0u; i < ep; i++)
 1579              		.loc 1 763 0
 1580 02e0 0023     		movs	r3, #0
 1581 02e2 87F82530 		strb	r3, [r7, #37]
 1582 02e6 20E0     		b	.L117
 1583              	.L123:
 1584              		.align	2
 1585              	.L122:
 1586 02e8 00000000 		.word	USB_EP
 1587 02ec 00000000 		.word	USB_interfaceSetting
 1588 02f0 00000000 		.word	USB_interfaceSettingLast
 1589 02f4 00000000 		.word	USB_configuration
 1590 02f8 00000000 		.word	USB_deviceStatus
 1591              	.L118:
 764:Generated_Source\PSoC5/USB_std.c ****         {
 765:Generated_Source\PSoC5/USB_std.c ****             /* Configure interface number for each EP */
 766:Generated_Source\PSoC5/USB_std.c ****             USB_EP[pEP->addr & USB_DIR_UNUSED].interface = pEP->interface;
 1592              		.loc 1 766 0 discriminator 3
 1593 02fc FB69     		ldr	r3, [r7, #28]
 1594 02fe 9B78     		ldrb	r3, [r3, #2]	@ zero_extendqisi2
ARM GAS  C:\Users\Admin\AppData\Local\Temp\ccqZUt8d.s 			page 44


 1595 0300 03F07F02 		and	r2, r3, #127
 1596 0304 FB69     		ldr	r3, [r7, #28]
 1597 0306 1878     		ldrb	r0, [r3]	@ zero_extendqisi2
 1598 0308 2849     		ldr	r1, .L124
 1599 030a 1346     		mov	r3, r2
 1600 030c 5B00     		lsls	r3, r3, #1
 1601 030e 1344     		add	r3, r3, r2
 1602 0310 9B00     		lsls	r3, r3, #2
 1603 0312 0B44     		add	r3, r3, r1
 1604 0314 0A33     		adds	r3, r3, #10
 1605 0316 0246     		mov	r2, r0
 1606 0318 1A70     		strb	r2, [r3]
 767:Generated_Source\PSoC5/USB_std.c ****             pEP = &pEP[1u];
 1607              		.loc 1 767 0 discriminator 3
 1608 031a FB69     		ldr	r3, [r7, #28]
 1609 031c 0833     		adds	r3, r3, #8
 1610 031e FB61     		str	r3, [r7, #28]
 763:Generated_Source\PSoC5/USB_std.c ****         for (i = 0u; i < ep; i++)
 1611              		.loc 1 763 0 discriminator 3
 1612 0320 97F82530 		ldrb	r3, [r7, #37]	@ zero_extendqisi2
 1613 0324 0133     		adds	r3, r3, #1
 1614 0326 87F82530 		strb	r3, [r7, #37]
 1615              	.L117:
 763:Generated_Source\PSoC5/USB_std.c ****         for (i = 0u; i < ep; i++)
 1616              		.loc 1 763 0 is_stmt 0 discriminator 1
 1617 032a 97F82520 		ldrb	r2, [r7, #37]	@ zero_extendqisi2
 1618 032e 97F82730 		ldrb	r3, [r7, #39]	@ zero_extendqisi2
 1619 0332 9A42     		cmp	r2, r3
 1620 0334 E2D3     		bcc	.L118
 768:Generated_Source\PSoC5/USB_std.c ****         }
 769:Generated_Source\PSoC5/USB_std.c ****         
 770:Generated_Source\PSoC5/USB_std.c ****         /* Init pointer on interface class table */
 771:Generated_Source\PSoC5/USB_std.c ****         USB_interfaceClass = USB_GetInterfaceClassTablePtr();
 1621              		.loc 1 771 0 is_stmt 1
 1622 0336 FFF7FEFF 		bl	USB_GetInterfaceClassTablePtr
 1623 033a 0246     		mov	r2, r0
 1624 033c 1C4B     		ldr	r3, .L124+4
 1625 033e 1A60     		str	r2, [r3]
 772:Generated_Source\PSoC5/USB_std.c ****         
 773:Generated_Source\PSoC5/USB_std.c ****     /* Set the endpoint buffer addresses */
 774:Generated_Source\PSoC5/USB_std.c ****     #if (!USB_EP_MANAGEMENT_DMA_AUTO)
 775:Generated_Source\PSoC5/USB_std.c ****         buffCount = 0u;
 1626              		.loc 1 775 0
 1627 0340 0023     		movs	r3, #0
 1628 0342 7B84     		strh	r3, [r7, #34]	@ movhi
 776:Generated_Source\PSoC5/USB_std.c ****         for (ep = USB_EP1; ep < USB_MAX_EP; ++ep)
 1629              		.loc 1 776 0
 1630 0344 0123     		movs	r3, #1
 1631 0346 87F82730 		strb	r3, [r7, #39]
 1632 034a 24E0     		b	.L119
 1633              	.L120:
 777:Generated_Source\PSoC5/USB_std.c ****         {
 778:Generated_Source\PSoC5/USB_std.c ****             USB_EP[ep].buffOffset = buffCount;        
 1634              		.loc 1 778 0 discriminator 3
 1635 034c 97F82720 		ldrb	r2, [r7, #39]	@ zero_extendqisi2
 1636 0350 1649     		ldr	r1, .L124
 1637 0352 1346     		mov	r3, r2
ARM GAS  C:\Users\Admin\AppData\Local\Temp\ccqZUt8d.s 			page 45


 1638 0354 5B00     		lsls	r3, r3, #1
 1639 0356 1344     		add	r3, r3, r2
 1640 0358 9B00     		lsls	r3, r3, #2
 1641 035a 0B44     		add	r3, r3, r1
 1642 035c 0633     		adds	r3, r3, #6
 1643 035e 7A8C     		ldrh	r2, [r7, #34]	@ movhi
 1644 0360 1A80     		strh	r2, [r3]	@ movhi
 779:Generated_Source\PSoC5/USB_std.c ****             buffCount += USB_EP[ep].bufferSize;
 1645              		.loc 1 779 0 discriminator 3
 1646 0362 97F82720 		ldrb	r2, [r7, #39]	@ zero_extendqisi2
 1647 0366 1149     		ldr	r1, .L124
 1648 0368 1346     		mov	r3, r2
 1649 036a 5B00     		lsls	r3, r3, #1
 1650 036c 1344     		add	r3, r3, r2
 1651 036e 9B00     		lsls	r3, r3, #2
 1652 0370 0B44     		add	r3, r3, r1
 1653 0372 0833     		adds	r3, r3, #8
 1654 0374 1B88     		ldrh	r3, [r3]	@ movhi
 1655 0376 9AB2     		uxth	r2, r3
 1656 0378 7B8C     		ldrh	r3, [r7, #34]	@ movhi
 1657 037a 1344     		add	r3, r3, r2
 1658 037c 7B84     		strh	r3, [r7, #34]	@ movhi
 780:Generated_Source\PSoC5/USB_std.c ****             
 781:Generated_Source\PSoC5/USB_std.c ****         #if (USB_GEN_16BITS_EP_ACCESS)
 782:Generated_Source\PSoC5/USB_std.c ****             /* Align EP buffers to be event size to access 16-bits DR register. */
 783:Generated_Source\PSoC5/USB_std.c ****             buffCount += (0u != (buffCount & 0x01u)) ? 1u : 0u;
 1659              		.loc 1 783 0 discriminator 3
 1660 037e 7B8C     		ldrh	r3, [r7, #34]	@ movhi
 1661 0380 03F00103 		and	r3, r3, #1
 1662 0384 9AB2     		uxth	r2, r3
 1663 0386 7B8C     		ldrh	r3, [r7, #34]	@ movhi
 1664 0388 1344     		add	r3, r3, r2
 1665 038a 7B84     		strh	r3, [r7, #34]	@ movhi
 776:Generated_Source\PSoC5/USB_std.c ****         {
 1666              		.loc 1 776 0 discriminator 3
 1667 038c 97F82730 		ldrb	r3, [r7, #39]
 1668 0390 0133     		adds	r3, r3, #1
 1669 0392 87F82730 		strb	r3, [r7, #39]
 1670              	.L119:
 776:Generated_Source\PSoC5/USB_std.c ****         {
 1671              		.loc 1 776 0 is_stmt 0 discriminator 1
 1672 0396 97F82730 		ldrb	r3, [r7, #39]	@ zero_extendqisi2
 1673 039a 082B     		cmp	r3, #8
 1674 039c D6D9     		bls	.L120
 784:Generated_Source\PSoC5/USB_std.c ****         #endif /* (USB_GEN_16BITS_EP_ACCESS) */            
 785:Generated_Source\PSoC5/USB_std.c ****         }
 786:Generated_Source\PSoC5/USB_std.c ****     #endif /* (!USB_EP_MANAGEMENT_DMA_AUTO) */
 787:Generated_Source\PSoC5/USB_std.c **** 
 788:Generated_Source\PSoC5/USB_std.c ****         /* Configure hardware registers */
 789:Generated_Source\PSoC5/USB_std.c ****         USB_ConfigReg();
 1675              		.loc 1 789 0 is_stmt 1
 1676 039e FFF7FEFF 		bl	USB_ConfigReg
 1677              	.L121:
 1678              	.LBE2:
 790:Generated_Source\PSoC5/USB_std.c ****     }
 791:Generated_Source\PSoC5/USB_std.c **** }
 1679              		.loc 1 791 0
ARM GAS  C:\Users\Admin\AppData\Local\Temp\ccqZUt8d.s 			page 46


 1680 03a2 00BF     		nop
 1681 03a4 2837     		adds	r7, r7, #40
 1682              		.cfi_def_cfa_offset 8
 1683 03a6 BD46     		mov	sp, r7
 1684              		.cfi_def_cfa_register 13
 1685              		@ sp needed
 1686 03a8 80BD     		pop	{r7, pc}
 1687              	.L125:
 1688 03aa 00BF     		.align	2
 1689              	.L124:
 1690 03ac 00000000 		.word	USB_EP
 1691 03b0 00000000 		.word	USB_interfaceClass
 1692              		.cfi_endproc
 1693              	.LFE4:
 1694              		.size	USB_Config, .-USB_Config
 1695              		.section	.text.USB_ConfigAltChanged,"ax",%progbits
 1696              		.align	2
 1697              		.global	USB_ConfigAltChanged
 1698              		.thumb
 1699              		.thumb_func
 1700              		.type	USB_ConfigAltChanged, %function
 1701              	USB_ConfigAltChanged:
 1702              	.LFB5:
 792:Generated_Source\PSoC5/USB_std.c **** 
 793:Generated_Source\PSoC5/USB_std.c **** 
 794:Generated_Source\PSoC5/USB_std.c **** /*******************************************************************************
 795:Generated_Source\PSoC5/USB_std.c **** * Function Name: USB_ConfigAltChanged
 796:Generated_Source\PSoC5/USB_std.c **** ****************************************************************************//**
 797:Generated_Source\PSoC5/USB_std.c **** *
 798:Generated_Source\PSoC5/USB_std.c **** *  This routine update configuration for the required endpoints only.
 799:Generated_Source\PSoC5/USB_std.c **** *  It is called after SET_INTERFACE request when Static memory allocation used.
 800:Generated_Source\PSoC5/USB_std.c **** *
 801:Generated_Source\PSoC5/USB_std.c **** * \reentrant
 802:Generated_Source\PSoC5/USB_std.c **** *  No.
 803:Generated_Source\PSoC5/USB_std.c **** *
 804:Generated_Source\PSoC5/USB_std.c **** *******************************************************************************/
 805:Generated_Source\PSoC5/USB_std.c **** void USB_ConfigAltChanged(void) 
 806:Generated_Source\PSoC5/USB_std.c **** {
 1703              		.loc 1 806 0
 1704              		.cfi_startproc
 1705              		@ args = 0, pretend = 0, frame = 16
 1706              		@ frame_needed = 1, uses_anonymous_args = 0
 1707 0000 90B5     		push	{r4, r7, lr}
 1708              		.cfi_def_cfa_offset 12
 1709              		.cfi_offset 4, -12
 1710              		.cfi_offset 7, -8
 1711              		.cfi_offset 14, -4
 1712 0002 85B0     		sub	sp, sp, #20
 1713              		.cfi_def_cfa_offset 32
 1714 0004 00AF     		add	r7, sp, #0
 1715              		.cfi_def_cfa_register 7
 807:Generated_Source\PSoC5/USB_std.c ****     uint8 ep;
 808:Generated_Source\PSoC5/USB_std.c ****     uint8 curEp;
 809:Generated_Source\PSoC5/USB_std.c ****     uint8 epType;
 810:Generated_Source\PSoC5/USB_std.c ****     uint8 i;
 811:Generated_Source\PSoC5/USB_std.c ****     uint8 interfaceNum;
 812:Generated_Source\PSoC5/USB_std.c **** 
ARM GAS  C:\Users\Admin\AppData\Local\Temp\ccqZUt8d.s 			page 47


 813:Generated_Source\PSoC5/USB_std.c ****     const T_USB_LUT CYCODE *pTmp;
 814:Generated_Source\PSoC5/USB_std.c ****     const T_USB_EP_SETTINGS_BLOCK CYCODE *pEP;
 815:Generated_Source\PSoC5/USB_std.c **** 
 816:Generated_Source\PSoC5/USB_std.c ****     /* Init Endpoints and Device Status if configured */
 817:Generated_Source\PSoC5/USB_std.c ****     if (USB_configuration > 0u)
 1716              		.loc 1 817 0
 1717 0006 8F4B     		ldr	r3, .L138
 1718 0008 1B78     		ldrb	r3, [r3]
 1719 000a DBB2     		uxtb	r3, r3
 1720 000c 002B     		cmp	r3, #0
 1721 000e 00F01581 		beq	.L137
 818:Generated_Source\PSoC5/USB_std.c ****     {
 819:Generated_Source\PSoC5/USB_std.c ****         /* Get number of endpoints configurations (ep). */
 820:Generated_Source\PSoC5/USB_std.c ****         pTmp = USB_GetConfigTablePtr(USB_configuration - 1u);
 1722              		.loc 1 820 0
 1723 0012 8C4B     		ldr	r3, .L138
 1724 0014 1B78     		ldrb	r3, [r3]
 1725 0016 DBB2     		uxtb	r3, r3
 1726 0018 013B     		subs	r3, r3, #1
 1727 001a DBB2     		uxtb	r3, r3
 1728 001c 1846     		mov	r0, r3
 1729 001e FFF7FEFF 		bl	USB_GetConfigTablePtr
 1730 0022 7860     		str	r0, [r7, #4]
 821:Generated_Source\PSoC5/USB_std.c ****         pTmp = &pTmp[1u];
 1731              		.loc 1 821 0
 1732 0024 7B68     		ldr	r3, [r7, #4]
 1733 0026 0833     		adds	r3, r3, #8
 1734 0028 7B60     		str	r3, [r7, #4]
 822:Generated_Source\PSoC5/USB_std.c ****         ep = pTmp->c;
 1735              		.loc 1 822 0
 1736 002a 7B68     		ldr	r3, [r7, #4]
 1737 002c 1B78     		ldrb	r3, [r3]
 1738 002e FB70     		strb	r3, [r7, #3]
 823:Generated_Source\PSoC5/USB_std.c **** 
 824:Generated_Source\PSoC5/USB_std.c ****         /* Get pointer to endpoints setting table (pEP). */
 825:Generated_Source\PSoC5/USB_std.c ****         pEP = (const T_USB_EP_SETTINGS_BLOCK CYCODE *) pTmp->p_list;
 1739              		.loc 1 825 0
 1740 0030 7B68     		ldr	r3, [r7, #4]
 1741 0032 5B68     		ldr	r3, [r3, #4]
 1742 0034 BB60     		str	r3, [r7, #8]
 826:Generated_Source\PSoC5/USB_std.c ****         
 827:Generated_Source\PSoC5/USB_std.c ****         /* Look through all possible endpoint configurations. Find endpoints 
 828:Generated_Source\PSoC5/USB_std.c ****         * which belong to current interface and alternate settings for 
 829:Generated_Source\PSoC5/USB_std.c ****         * re-configuration.
 830:Generated_Source\PSoC5/USB_std.c ****         */
 831:Generated_Source\PSoC5/USB_std.c ****         interfaceNum = USB_interfaceNumber;
 1743              		.loc 1 831 0
 1744 0036 844B     		ldr	r3, .L138+4
 1745 0038 1B78     		ldrb	r3, [r3]
 1746 003a BB70     		strb	r3, [r7, #2]
 832:Generated_Source\PSoC5/USB_std.c ****         for (i = 0u; i < ep; i++)
 1747              		.loc 1 832 0
 1748 003c 0023     		movs	r3, #0
 1749 003e FB73     		strb	r3, [r7, #15]
 1750 0040 F7E0     		b	.L128
 1751              	.L136:
 833:Generated_Source\PSoC5/USB_std.c ****         {
ARM GAS  C:\Users\Admin\AppData\Local\Temp\ccqZUt8d.s 			page 48


 834:Generated_Source\PSoC5/USB_std.c ****             /* Find endpoints which belong to current interface and alternate settings. */
 835:Generated_Source\PSoC5/USB_std.c ****             if ((interfaceNum == pEP->interface) && 
 1752              		.loc 1 835 0
 1753 0042 BB68     		ldr	r3, [r7, #8]
 1754 0044 1B78     		ldrb	r3, [r3]	@ zero_extendqisi2
 1755 0046 BA78     		ldrb	r2, [r7, #2]	@ zero_extendqisi2
 1756 0048 9A42     		cmp	r2, r3
 1757 004a 40F0EC80 		bne	.L129
 836:Generated_Source\PSoC5/USB_std.c ****                 (USB_interfaceSetting[interfaceNum] == pEP->altSetting))
 1758              		.loc 1 836 0 discriminator 1
 1759 004e BB78     		ldrb	r3, [r7, #2]	@ zero_extendqisi2
 1760 0050 7E4A     		ldr	r2, .L138+8
 1761 0052 D35C     		ldrb	r3, [r2, r3]
 1762 0054 DAB2     		uxtb	r2, r3
 1763 0056 BB68     		ldr	r3, [r7, #8]
 1764 0058 5B78     		ldrb	r3, [r3, #1]	@ zero_extendqisi2
 835:Generated_Source\PSoC5/USB_std.c ****                 (USB_interfaceSetting[interfaceNum] == pEP->altSetting))
 1765              		.loc 1 835 0 discriminator 1
 1766 005a 9A42     		cmp	r2, r3
 1767 005c 40F0E380 		bne	.L129
 837:Generated_Source\PSoC5/USB_std.c ****             {
 838:Generated_Source\PSoC5/USB_std.c ****                 curEp  = ((uint8) pEP->addr & USB_DIR_UNUSED);
 1768              		.loc 1 838 0
 1769 0060 BB68     		ldr	r3, [r7, #8]
 1770 0062 9B78     		ldrb	r3, [r3, #2]	@ zero_extendqisi2
 1771 0064 03F07F03 		and	r3, r3, #127
 1772 0068 7B70     		strb	r3, [r7, #1]
 839:Generated_Source\PSoC5/USB_std.c ****                 epType = ((uint8) pEP->attributes & USB_EP_TYPE_MASK);
 1773              		.loc 1 839 0
 1774 006a BB68     		ldr	r3, [r7, #8]
 1775 006c DB78     		ldrb	r3, [r3, #3]	@ zero_extendqisi2
 1776 006e 03F00303 		and	r3, r3, #3
 1777 0072 3B70     		strb	r3, [r7]
 840:Generated_Source\PSoC5/USB_std.c ****                 
 841:Generated_Source\PSoC5/USB_std.c ****                 /* Change the SIE mode for the selected EP to NAK ALL */
 842:Generated_Source\PSoC5/USB_std.c ****                 USB_EP[curEp].epToggle   = 0u;
 1778              		.loc 1 842 0
 1779 0074 7A78     		ldrb	r2, [r7, #1]	@ zero_extendqisi2
 1780 0076 7649     		ldr	r1, .L138+12
 1781 0078 1346     		mov	r3, r2
 1782 007a 5B00     		lsls	r3, r3, #1
 1783 007c 1344     		add	r3, r3, r2
 1784 007e 9B00     		lsls	r3, r3, #2
 1785 0080 0B44     		add	r3, r3, r1
 1786 0082 0333     		adds	r3, r3, #3
 1787 0084 0022     		movs	r2, #0
 1788 0086 1A70     		strb	r2, [r3]
 843:Generated_Source\PSoC5/USB_std.c ****                 USB_EP[curEp].addr       = pEP->addr;
 1789              		.loc 1 843 0
 1790 0088 7A78     		ldrb	r2, [r7, #1]	@ zero_extendqisi2
 1791 008a BB68     		ldr	r3, [r7, #8]
 1792 008c 9878     		ldrb	r0, [r3, #2]	@ zero_extendqisi2
 1793 008e 7049     		ldr	r1, .L138+12
 1794 0090 1346     		mov	r3, r2
 1795 0092 5B00     		lsls	r3, r3, #1
 1796 0094 1344     		add	r3, r3, r2
 1797 0096 9B00     		lsls	r3, r3, #2
ARM GAS  C:\Users\Admin\AppData\Local\Temp\ccqZUt8d.s 			page 49


 1798 0098 0B44     		add	r3, r3, r1
 1799 009a 0433     		adds	r3, r3, #4
 1800 009c 0246     		mov	r2, r0
 1801 009e 1A70     		strb	r2, [r3]
 844:Generated_Source\PSoC5/USB_std.c ****                 USB_EP[curEp].attrib     = pEP->attributes;
 1802              		.loc 1 844 0
 1803 00a0 7A78     		ldrb	r2, [r7, #1]	@ zero_extendqisi2
 1804 00a2 BB68     		ldr	r3, [r7, #8]
 1805 00a4 D878     		ldrb	r0, [r3, #3]	@ zero_extendqisi2
 1806 00a6 6A49     		ldr	r1, .L138+12
 1807 00a8 1346     		mov	r3, r2
 1808 00aa 5B00     		lsls	r3, r3, #1
 1809 00ac 1344     		add	r3, r3, r2
 1810 00ae 9B00     		lsls	r3, r3, #2
 1811 00b0 0B44     		add	r3, r3, r1
 1812 00b2 0246     		mov	r2, r0
 1813 00b4 1A70     		strb	r2, [r3]
 845:Generated_Source\PSoC5/USB_std.c ****                 USB_EP[curEp].bufferSize = pEP->bufferSize;
 1814              		.loc 1 845 0
 1815 00b6 7A78     		ldrb	r2, [r7, #1]	@ zero_extendqisi2
 1816 00b8 BB68     		ldr	r3, [r7, #8]
 1817 00ba 9888     		ldrh	r0, [r3, #4]
 1818 00bc 6449     		ldr	r1, .L138+12
 1819 00be 1346     		mov	r3, r2
 1820 00c0 5B00     		lsls	r3, r3, #1
 1821 00c2 1344     		add	r3, r3, r2
 1822 00c4 9B00     		lsls	r3, r3, #2
 1823 00c6 0B44     		add	r3, r3, r1
 1824 00c8 0833     		adds	r3, r3, #8
 1825 00ca 0246     		mov	r2, r0	@ movhi
 1826 00cc 1A80     		strh	r2, [r3]	@ movhi
 846:Generated_Source\PSoC5/USB_std.c **** 
 847:Generated_Source\PSoC5/USB_std.c ****                 if (0u != (pEP->addr & USB_DIR_IN))
 1827              		.loc 1 847 0
 1828 00ce BB68     		ldr	r3, [r7, #8]
 1829 00d0 9B78     		ldrb	r3, [r3, #2]	@ zero_extendqisi2
 1830 00d2 5BB2     		sxtb	r3, r3
 1831 00d4 002B     		cmp	r3, #0
 1832 00d6 1ADA     		bge	.L130
 848:Generated_Source\PSoC5/USB_std.c ****                 {
 849:Generated_Source\PSoC5/USB_std.c ****                     /* IN Endpoint */
 850:Generated_Source\PSoC5/USB_std.c ****                     USB_EP[curEp].epMode     = USB_GET_ACTIVE_IN_EP_CR0_MODE(epType);
 1833              		.loc 1 850 0
 1834 00d8 7A78     		ldrb	r2, [r7, #1]	@ zero_extendqisi2
 1835 00da 3B78     		ldrb	r3, [r7]	@ zero_extendqisi2
 1836 00dc 012B     		cmp	r3, #1
 1837 00de 01D1     		bne	.L131
 1838              		.loc 1 850 0 is_stmt 0 discriminator 1
 1839 00e0 0720     		movs	r0, #7
 1840 00e2 00E0     		b	.L132
 1841              	.L131:
 1842              		.loc 1 850 0 discriminator 2
 1843 00e4 0D20     		movs	r0, #13
 1844              	.L132:
 1845              		.loc 1 850 0 discriminator 4
 1846 00e6 5A49     		ldr	r1, .L138+12
 1847 00e8 1346     		mov	r3, r2
ARM GAS  C:\Users\Admin\AppData\Local\Temp\ccqZUt8d.s 			page 50


 1848 00ea 5B00     		lsls	r3, r3, #1
 1849 00ec 1344     		add	r3, r3, r2
 1850 00ee 9B00     		lsls	r3, r3, #2
 1851 00f0 0B44     		add	r3, r3, r1
 1852 00f2 0533     		adds	r3, r3, #5
 1853 00f4 0246     		mov	r2, r0
 1854 00f6 1A70     		strb	r2, [r3]
 851:Generated_Source\PSoC5/USB_std.c ****                     USB_EP[curEp].apiEpState = USB_EVENT_PENDING;
 1855              		.loc 1 851 0 is_stmt 1 discriminator 4
 1856 00f8 7A78     		ldrb	r2, [r7, #1]	@ zero_extendqisi2
 1857 00fa 5549     		ldr	r1, .L138+12
 1858 00fc 1346     		mov	r3, r2
 1859 00fe 5B00     		lsls	r3, r3, #1
 1860 0100 1344     		add	r3, r3, r2
 1861 0102 9B00     		lsls	r3, r3, #2
 1862 0104 0B44     		add	r3, r3, r1
 1863 0106 0133     		adds	r3, r3, #1
 1864 0108 0122     		movs	r2, #1
 1865 010a 1A70     		strb	r2, [r3]
 1866 010c 19E0     		b	.L133
 1867              	.L130:
 852:Generated_Source\PSoC5/USB_std.c ****                 }
 853:Generated_Source\PSoC5/USB_std.c ****                 else
 854:Generated_Source\PSoC5/USB_std.c ****                 {
 855:Generated_Source\PSoC5/USB_std.c ****                     /* OUT Endpoint */
 856:Generated_Source\PSoC5/USB_std.c ****                     USB_EP[curEp].epMode     = USB_GET_ACTIVE_OUT_EP_CR0_MODE(epType);
 1868              		.loc 1 856 0
 1869 010e 7A78     		ldrb	r2, [r7, #1]	@ zero_extendqisi2
 1870 0110 3B78     		ldrb	r3, [r7]	@ zero_extendqisi2
 1871 0112 012B     		cmp	r3, #1
 1872 0114 01D1     		bne	.L134
 1873              		.loc 1 856 0 is_stmt 0 discriminator 1
 1874 0116 0520     		movs	r0, #5
 1875 0118 00E0     		b	.L135
 1876              	.L134:
 1877              		.loc 1 856 0 discriminator 2
 1878 011a 0920     		movs	r0, #9
 1879              	.L135:
 1880              		.loc 1 856 0 discriminator 4
 1881 011c 4C49     		ldr	r1, .L138+12
 1882 011e 1346     		mov	r3, r2
 1883 0120 5B00     		lsls	r3, r3, #1
 1884 0122 1344     		add	r3, r3, r2
 1885 0124 9B00     		lsls	r3, r3, #2
 1886 0126 0B44     		add	r3, r3, r1
 1887 0128 0533     		adds	r3, r3, #5
 1888 012a 0246     		mov	r2, r0
 1889 012c 1A70     		strb	r2, [r3]
 857:Generated_Source\PSoC5/USB_std.c ****                     USB_EP[curEp].apiEpState = USB_NO_EVENT_PENDING;
 1890              		.loc 1 857 0 is_stmt 1 discriminator 4
 1891 012e 7A78     		ldrb	r2, [r7, #1]	@ zero_extendqisi2
 1892 0130 4749     		ldr	r1, .L138+12
 1893 0132 1346     		mov	r3, r2
 1894 0134 5B00     		lsls	r3, r3, #1
 1895 0136 1344     		add	r3, r3, r2
 1896 0138 9B00     		lsls	r3, r3, #2
 1897 013a 0B44     		add	r3, r3, r1
ARM GAS  C:\Users\Admin\AppData\Local\Temp\ccqZUt8d.s 			page 51


 1898 013c 0133     		adds	r3, r3, #1
 1899 013e 0022     		movs	r2, #0
 1900 0140 1A70     		strb	r2, [r3]
 1901              	.L133:
 858:Generated_Source\PSoC5/USB_std.c ****                 }
 859:Generated_Source\PSoC5/USB_std.c ****                 
 860:Generated_Source\PSoC5/USB_std.c ****                 /* Make SIE to NAK any endpoint requests */
 861:Generated_Source\PSoC5/USB_std.c ****                 USB_SIE_EP_BASE.sieEp[curEp].epCr0 = USB_MODE_NAK_IN_OUT;
 1902              		.loc 1 861 0
 1903 0142 444A     		ldr	r2, .L138+16
 1904 0144 7B78     		ldrb	r3, [r7, #1]	@ zero_extendqisi2
 1905 0146 1B01     		lsls	r3, r3, #4
 1906 0148 1344     		add	r3, r3, r2
 1907 014a 0233     		adds	r3, r3, #2
 1908 014c 0122     		movs	r2, #1
 1909 014e 1A70     		strb	r2, [r3]
 862:Generated_Source\PSoC5/USB_std.c **** 
 863:Generated_Source\PSoC5/USB_std.c ****             #if (USB_EP_MANAGEMENT_DMA_AUTO)
 864:Generated_Source\PSoC5/USB_std.c ****                 /* Clear IN data ready. */
 865:Generated_Source\PSoC5/USB_std.c ****                 USB_ARB_EP_BASE.arbEp[curEp].epCfg &= (uint8) ~USB_ARB_EPX_CFG_IN_DATA_RDY;
 866:Generated_Source\PSoC5/USB_std.c **** 
 867:Generated_Source\PSoC5/USB_std.c ****                 /* Select endpoint number of reconfiguration */
 868:Generated_Source\PSoC5/USB_std.c ****                 USB_DYN_RECONFIG_REG = (uint8) ((curEp - 1u) << USB_DYN_RECONFIG_EP_SHIFT);
 869:Generated_Source\PSoC5/USB_std.c ****                 
 870:Generated_Source\PSoC5/USB_std.c ****                 /* Request for dynamic re-configuration of endpoint. */
 871:Generated_Source\PSoC5/USB_std.c ****                 USB_DYN_RECONFIG_REG |= USB_DYN_RECONFIG_ENABLE;
 872:Generated_Source\PSoC5/USB_std.c ****                 
 873:Generated_Source\PSoC5/USB_std.c ****                 /* Wait until block is ready for re-configuration */
 874:Generated_Source\PSoC5/USB_std.c ****                 while (0u == (USB_DYN_RECONFIG_REG & USB_DYN_RECONFIG_RDY_STS))
 875:Generated_Source\PSoC5/USB_std.c ****                 {
 876:Generated_Source\PSoC5/USB_std.c ****                 }
 877:Generated_Source\PSoC5/USB_std.c ****                 
 878:Generated_Source\PSoC5/USB_std.c ****                 /* Once DYN_RECONFIG_RDY_STS bit is set, FW can change the EP configuration. */
 879:Generated_Source\PSoC5/USB_std.c ****                 /* Change EP Type with new direction */
 880:Generated_Source\PSoC5/USB_std.c ****                 if (0u != (pEP->addr & USB_DIR_IN))
 881:Generated_Source\PSoC5/USB_std.c ****                 {
 882:Generated_Source\PSoC5/USB_std.c ****                     /* Set endpoint type: 0 - IN and 1 - OUT. */
 883:Generated_Source\PSoC5/USB_std.c ****                     USB_EP_TYPE_REG &= (uint8) ~(uint8)((uint8) 0x01u << (curEp - 1u));
 884:Generated_Source\PSoC5/USB_std.c ****                     
 885:Generated_Source\PSoC5/USB_std.c ****                 #if (CY_PSOC4)
 886:Generated_Source\PSoC5/USB_std.c ****                     /* Clear DMA_TERMIN for IN endpoint */
 887:Generated_Source\PSoC5/USB_std.c ****                     USB_ARB_EP_BASE.arbEp[curEp].epIntEn &= (uint32) ~USB_ARB_EPX_INT_DMA_TERMIN;
 888:Generated_Source\PSoC5/USB_std.c ****                 #endif /* (CY_PSOC4) */
 889:Generated_Source\PSoC5/USB_std.c ****                 }
 890:Generated_Source\PSoC5/USB_std.c ****                 else
 891:Generated_Source\PSoC5/USB_std.c ****                 {
 892:Generated_Source\PSoC5/USB_std.c ****                     /* Set endpoint type: 0 - IN and 1- OUT. */
 893:Generated_Source\PSoC5/USB_std.c ****                     USB_EP_TYPE_REG |= (uint8) ((uint8) 0x01u << (curEp - 1u));
 894:Generated_Source\PSoC5/USB_std.c ****                     
 895:Generated_Source\PSoC5/USB_std.c ****                 #if (CY_PSOC4)
 896:Generated_Source\PSoC5/USB_std.c ****                     /* Set DMA_TERMIN for OUT endpoint */
 897:Generated_Source\PSoC5/USB_std.c ****                     USB_ARB_EP_BASE.arbEp[curEp].epIntEn |= (uint32) USB_ARB_EPX_INT_DMA_TERMIN;
 898:Generated_Source\PSoC5/USB_std.c ****                 #endif /* (CY_PSOC4) */
 899:Generated_Source\PSoC5/USB_std.c ****                 }
 900:Generated_Source\PSoC5/USB_std.c ****                 
 901:Generated_Source\PSoC5/USB_std.c ****                 /* Complete dynamic re-configuration: all endpoint related status and signals 
 902:Generated_Source\PSoC5/USB_std.c ****                 * are set into the default state.
ARM GAS  C:\Users\Admin\AppData\Local\Temp\ccqZUt8d.s 			page 52


 903:Generated_Source\PSoC5/USB_std.c ****                 */
 904:Generated_Source\PSoC5/USB_std.c ****                 USB_DYN_RECONFIG_REG &= (uint8) ~USB_DYN_RECONFIG_ENABLE;
 905:Generated_Source\PSoC5/USB_std.c **** 
 906:Generated_Source\PSoC5/USB_std.c ****             #else
 907:Generated_Source\PSoC5/USB_std.c ****                 USB_SIE_EP_BASE.sieEp[curEp].epCnt0 = HI8(USB_EP[curEp].bufferSize);
 1910              		.loc 1 907 0
 1911 0150 4048     		ldr	r0, .L138+16
 1912 0152 7978     		ldrb	r1, [r7, #1]	@ zero_extendqisi2
 1913 0154 7A78     		ldrb	r2, [r7, #1]	@ zero_extendqisi2
 1914 0156 3E4C     		ldr	r4, .L138+12
 1915 0158 1346     		mov	r3, r2
 1916 015a 5B00     		lsls	r3, r3, #1
 1917 015c 1344     		add	r3, r3, r2
 1918 015e 9B00     		lsls	r3, r3, #2
 1919 0160 2344     		add	r3, r3, r4
 1920 0162 0833     		adds	r3, r3, #8
 1921 0164 1B88     		ldrh	r3, [r3]	@ movhi
 1922 0166 9BB2     		uxth	r3, r3
 1923 0168 1B0A     		lsrs	r3, r3, #8
 1924 016a 9BB2     		uxth	r3, r3
 1925 016c DAB2     		uxtb	r2, r3
 1926 016e 0B01     		lsls	r3, r1, #4
 1927 0170 0344     		add	r3, r3, r0
 1928 0172 1A70     		strb	r2, [r3]
 908:Generated_Source\PSoC5/USB_std.c ****                 USB_SIE_EP_BASE.sieEp[curEp].epCnt1 = LO8(USB_EP[curEp].bufferSize);
 1929              		.loc 1 908 0
 1930 0174 3748     		ldr	r0, .L138+16
 1931 0176 7978     		ldrb	r1, [r7, #1]	@ zero_extendqisi2
 1932 0178 7A78     		ldrb	r2, [r7, #1]	@ zero_extendqisi2
 1933 017a 354C     		ldr	r4, .L138+12
 1934 017c 1346     		mov	r3, r2
 1935 017e 5B00     		lsls	r3, r3, #1
 1936 0180 1344     		add	r3, r3, r2
 1937 0182 9B00     		lsls	r3, r3, #2
 1938 0184 2344     		add	r3, r3, r4
 1939 0186 0833     		adds	r3, r3, #8
 1940 0188 1B88     		ldrh	r3, [r3]	@ movhi
 1941 018a 9BB2     		uxth	r3, r3
 1942 018c DAB2     		uxtb	r2, r3
 1943 018e 0B01     		lsls	r3, r1, #4
 1944 0190 0344     		add	r3, r3, r0
 1945 0192 0133     		adds	r3, r3, #1
 1946 0194 1A70     		strb	r2, [r3]
 909:Generated_Source\PSoC5/USB_std.c ****                 
 910:Generated_Source\PSoC5/USB_std.c ****                 #if (CY_PSOC4)
 911:Generated_Source\PSoC5/USB_std.c ****                     USB_ARB_EP16_BASE.arbEp[curEp].rwRa16  = (uint32) USB_EP[curEp].buffOffset;
 912:Generated_Source\PSoC5/USB_std.c ****                     USB_ARB_EP16_BASE.arbEp[curEp].rwWa16  = (uint32) USB_EP[curEp].buffOffset;
 913:Generated_Source\PSoC5/USB_std.c ****                 #else
 914:Generated_Source\PSoC5/USB_std.c ****                     USB_ARB_EP_BASE.arbEp[curEp].rwRa    = LO8(USB_EP[curEp].buffOffset);
 1947              		.loc 1 914 0
 1948 0196 3048     		ldr	r0, .L138+20
 1949 0198 7978     		ldrb	r1, [r7, #1]	@ zero_extendqisi2
 1950 019a 7A78     		ldrb	r2, [r7, #1]	@ zero_extendqisi2
 1951 019c 2C4C     		ldr	r4, .L138+12
 1952 019e 1346     		mov	r3, r2
 1953 01a0 5B00     		lsls	r3, r3, #1
 1954 01a2 1344     		add	r3, r3, r2
ARM GAS  C:\Users\Admin\AppData\Local\Temp\ccqZUt8d.s 			page 53


 1955 01a4 9B00     		lsls	r3, r3, #2
 1956 01a6 2344     		add	r3, r3, r4
 1957 01a8 0633     		adds	r3, r3, #6
 1958 01aa 1B88     		ldrh	r3, [r3]	@ movhi
 1959 01ac 9BB2     		uxth	r3, r3
 1960 01ae DAB2     		uxtb	r2, r3
 1961 01b0 0B01     		lsls	r3, r1, #4
 1962 01b2 0344     		add	r3, r3, r0
 1963 01b4 0633     		adds	r3, r3, #6
 1964 01b6 1A70     		strb	r2, [r3]
 915:Generated_Source\PSoC5/USB_std.c ****                     USB_ARB_EP_BASE.arbEp[curEp].rwRaMsb = HI8(USB_EP[curEp].buffOffset);
 1965              		.loc 1 915 0
 1966 01b8 2748     		ldr	r0, .L138+20
 1967 01ba 7978     		ldrb	r1, [r7, #1]	@ zero_extendqisi2
 1968 01bc 7A78     		ldrb	r2, [r7, #1]	@ zero_extendqisi2
 1969 01be 244C     		ldr	r4, .L138+12
 1970 01c0 1346     		mov	r3, r2
 1971 01c2 5B00     		lsls	r3, r3, #1
 1972 01c4 1344     		add	r3, r3, r2
 1973 01c6 9B00     		lsls	r3, r3, #2
 1974 01c8 2344     		add	r3, r3, r4
 1975 01ca 0633     		adds	r3, r3, #6
 1976 01cc 1B88     		ldrh	r3, [r3]	@ movhi
 1977 01ce 9BB2     		uxth	r3, r3
 1978 01d0 1B0A     		lsrs	r3, r3, #8
 1979 01d2 9BB2     		uxth	r3, r3
 1980 01d4 DAB2     		uxtb	r2, r3
 1981 01d6 0B01     		lsls	r3, r1, #4
 1982 01d8 0344     		add	r3, r3, r0
 1983 01da 0733     		adds	r3, r3, #7
 1984 01dc 1A70     		strb	r2, [r3]
 916:Generated_Source\PSoC5/USB_std.c ****                     USB_ARB_EP_BASE.arbEp[curEp].rwWa    = LO8(USB_EP[curEp].buffOffset);
 1985              		.loc 1 916 0
 1986 01de 1E48     		ldr	r0, .L138+20
 1987 01e0 7978     		ldrb	r1, [r7, #1]	@ zero_extendqisi2
 1988 01e2 7A78     		ldrb	r2, [r7, #1]	@ zero_extendqisi2
 1989 01e4 1A4C     		ldr	r4, .L138+12
 1990 01e6 1346     		mov	r3, r2
 1991 01e8 5B00     		lsls	r3, r3, #1
 1992 01ea 1344     		add	r3, r3, r2
 1993 01ec 9B00     		lsls	r3, r3, #2
 1994 01ee 2344     		add	r3, r3, r4
 1995 01f0 0633     		adds	r3, r3, #6
 1996 01f2 1B88     		ldrh	r3, [r3]	@ movhi
 1997 01f4 9BB2     		uxth	r3, r3
 1998 01f6 DAB2     		uxtb	r2, r3
 1999 01f8 0B01     		lsls	r3, r1, #4
 2000 01fa 0344     		add	r3, r3, r0
 2001 01fc 0433     		adds	r3, r3, #4
 2002 01fe 1A70     		strb	r2, [r3]
 917:Generated_Source\PSoC5/USB_std.c ****                     USB_ARB_EP_BASE.arbEp[curEp].rwWaMsb = HI8(USB_EP[curEp].buffOffset);
 2003              		.loc 1 917 0
 2004 0200 1548     		ldr	r0, .L138+20
 2005 0202 7978     		ldrb	r1, [r7, #1]	@ zero_extendqisi2
 2006 0204 7A78     		ldrb	r2, [r7, #1]	@ zero_extendqisi2
 2007 0206 124C     		ldr	r4, .L138+12
 2008 0208 1346     		mov	r3, r2
ARM GAS  C:\Users\Admin\AppData\Local\Temp\ccqZUt8d.s 			page 54


 2009 020a 5B00     		lsls	r3, r3, #1
 2010 020c 1344     		add	r3, r3, r2
 2011 020e 9B00     		lsls	r3, r3, #2
 2012 0210 2344     		add	r3, r3, r4
 2013 0212 0633     		adds	r3, r3, #6
 2014 0214 1B88     		ldrh	r3, [r3]	@ movhi
 2015 0216 9BB2     		uxth	r3, r3
 2016 0218 1B0A     		lsrs	r3, r3, #8
 2017 021a 9BB2     		uxth	r3, r3
 2018 021c DAB2     		uxtb	r2, r3
 2019 021e 0B01     		lsls	r3, r1, #4
 2020 0220 0344     		add	r3, r3, r0
 2021 0222 0533     		adds	r3, r3, #5
 2022 0224 1A70     		strb	r2, [r3]
 2023              	.L129:
 918:Generated_Source\PSoC5/USB_std.c ****                 #endif /* (CY_PSOC4) */                
 919:Generated_Source\PSoC5/USB_std.c ****             #endif /* (USB_EP_MANAGEMENT_DMA_AUTO) */
 920:Generated_Source\PSoC5/USB_std.c ****             }
 921:Generated_Source\PSoC5/USB_std.c ****             
 922:Generated_Source\PSoC5/USB_std.c ****             pEP = &pEP[1u]; /* Get next EP element */
 2024              		.loc 1 922 0 discriminator 2
 2025 0226 BB68     		ldr	r3, [r7, #8]
 2026 0228 0833     		adds	r3, r3, #8
 2027 022a BB60     		str	r3, [r7, #8]
 832:Generated_Source\PSoC5/USB_std.c ****         {
 2028              		.loc 1 832 0 discriminator 2
 2029 022c FB7B     		ldrb	r3, [r7, #15]	@ zero_extendqisi2
 2030 022e 0133     		adds	r3, r3, #1
 2031 0230 FB73     		strb	r3, [r7, #15]
 2032              	.L128:
 832:Generated_Source\PSoC5/USB_std.c ****         {
 2033              		.loc 1 832 0 is_stmt 0 discriminator 1
 2034 0232 FA7B     		ldrb	r2, [r7, #15]	@ zero_extendqisi2
 2035 0234 FB78     		ldrb	r3, [r7, #3]	@ zero_extendqisi2
 2036 0236 9A42     		cmp	r2, r3
 2037 0238 FFF403AF 		bcc	.L136
 2038              	.L137:
 923:Generated_Source\PSoC5/USB_std.c ****         }
 924:Generated_Source\PSoC5/USB_std.c ****         
 925:Generated_Source\PSoC5/USB_std.c ****         /* The main loop has to re-enable DMA and OUT endpoint */
 926:Generated_Source\PSoC5/USB_std.c ****     }
 927:Generated_Source\PSoC5/USB_std.c **** }
 2039              		.loc 1 927 0 is_stmt 1
 2040 023c 00BF     		nop
 2041 023e 1437     		adds	r7, r7, #20
 2042              		.cfi_def_cfa_offset 12
 2043 0240 BD46     		mov	sp, r7
 2044              		.cfi_def_cfa_register 13
 2045              		@ sp needed
 2046 0242 90BD     		pop	{r4, r7, pc}
 2047              	.L139:
 2048              		.align	2
 2049              	.L138:
 2050 0244 00000000 		.word	USB_configuration
 2051 0248 00000000 		.word	USB_interfaceNumber
 2052 024c 00000000 		.word	USB_interfaceSetting
 2053 0250 00000000 		.word	USB_EP
ARM GAS  C:\Users\Admin\AppData\Local\Temp\ccqZUt8d.s 			page 55


 2054 0254 FC5F0040 		.word	1073766396
 2055 0258 70600040 		.word	1073766512
 2056              		.cfi_endproc
 2057              	.LFE5:
 2058              		.size	USB_ConfigAltChanged, .-USB_ConfigAltChanged
 2059              		.section	.text.USB_GetConfigTablePtr,"ax",%progbits
 2060              		.align	2
 2061              		.global	USB_GetConfigTablePtr
 2062              		.thumb
 2063              		.thumb_func
 2064              		.type	USB_GetConfigTablePtr, %function
 2065              	USB_GetConfigTablePtr:
 2066              	.LFB6:
 928:Generated_Source\PSoC5/USB_std.c **** 
 929:Generated_Source\PSoC5/USB_std.c **** 
 930:Generated_Source\PSoC5/USB_std.c **** /*******************************************************************************
 931:Generated_Source\PSoC5/USB_std.c **** * Function Name: USB_GetConfigTablePtr
 932:Generated_Source\PSoC5/USB_std.c **** ****************************************************************************//**
 933:Generated_Source\PSoC5/USB_std.c **** *
 934:Generated_Source\PSoC5/USB_std.c **** *  This routine returns a pointer a configuration table entry
 935:Generated_Source\PSoC5/USB_std.c **** *
 936:Generated_Source\PSoC5/USB_std.c **** *  \param confIndex:  Configuration Index
 937:Generated_Source\PSoC5/USB_std.c **** *
 938:Generated_Source\PSoC5/USB_std.c **** * \return
 939:Generated_Source\PSoC5/USB_std.c **** *  Device Descriptor pointer or NULL when descriptor does not exist.
 940:Generated_Source\PSoC5/USB_std.c **** *
 941:Generated_Source\PSoC5/USB_std.c **** *******************************************************************************/
 942:Generated_Source\PSoC5/USB_std.c **** const T_USB_LUT CYCODE *USB_GetConfigTablePtr(uint8 confIndex)
 943:Generated_Source\PSoC5/USB_std.c ****                                                         
 944:Generated_Source\PSoC5/USB_std.c **** {
 2067              		.loc 1 944 0
 2068              		.cfi_startproc
 2069              		@ args = 0, pretend = 0, frame = 16
 2070              		@ frame_needed = 1, uses_anonymous_args = 0
 2071              		@ link register save eliminated.
 2072 0000 80B4     		push	{r7}
 2073              		.cfi_def_cfa_offset 4
 2074              		.cfi_offset 7, -4
 2075 0002 85B0     		sub	sp, sp, #20
 2076              		.cfi_def_cfa_offset 24
 2077 0004 00AF     		add	r7, sp, #0
 2078              		.cfi_def_cfa_register 7
 2079 0006 0346     		mov	r3, r0
 2080 0008 FB71     		strb	r3, [r7, #7]
 945:Generated_Source\PSoC5/USB_std.c ****     /* Device Table */
 946:Generated_Source\PSoC5/USB_std.c ****     const T_USB_LUT CYCODE *pTmp;
 947:Generated_Source\PSoC5/USB_std.c **** 
 948:Generated_Source\PSoC5/USB_std.c ****     pTmp = (const T_USB_LUT CYCODE *) USB_TABLE[USB_device].p_list;
 2081              		.loc 1 948 0
 2082 000a 0F4B     		ldr	r3, .L144
 2083 000c 1B78     		ldrb	r3, [r3]
 2084 000e DBB2     		uxtb	r3, r3
 2085 0010 0E4A     		ldr	r2, .L144+4
 2086 0012 DB00     		lsls	r3, r3, #3
 2087 0014 1344     		add	r3, r3, r2
 2088 0016 5B68     		ldr	r3, [r3, #4]
 2089 0018 FB60     		str	r3, [r7, #12]
ARM GAS  C:\Users\Admin\AppData\Local\Temp\ccqZUt8d.s 			page 56


 949:Generated_Source\PSoC5/USB_std.c **** 
 950:Generated_Source\PSoC5/USB_std.c ****     /* The first entry points to the Device Descriptor,
 951:Generated_Source\PSoC5/USB_std.c ****     *  the second entry point to the BOS Descriptor
 952:Generated_Source\PSoC5/USB_std.c ****     *  the rest configuration entries.
 953:Generated_Source\PSoC5/USB_std.c ****     *  Set pointer to the first Configuration Descriptor
 954:Generated_Source\PSoC5/USB_std.c ****     */
 955:Generated_Source\PSoC5/USB_std.c ****     pTmp = &pTmp[2u];
 2090              		.loc 1 955 0
 2091 001a FB68     		ldr	r3, [r7, #12]
 2092 001c 1033     		adds	r3, r3, #16
 2093 001e FB60     		str	r3, [r7, #12]
 956:Generated_Source\PSoC5/USB_std.c ****     /* For this table, c is the number of configuration descriptors  */
 957:Generated_Source\PSoC5/USB_std.c ****     if(confIndex >= pTmp->c)   /* Verify that required configuration descriptor exists */
 2094              		.loc 1 957 0
 2095 0020 FB68     		ldr	r3, [r7, #12]
 2096 0022 1B78     		ldrb	r3, [r3]	@ zero_extendqisi2
 2097 0024 FA79     		ldrb	r2, [r7, #7]	@ zero_extendqisi2
 2098 0026 9A42     		cmp	r2, r3
 2099 0028 02D3     		bcc	.L141
 958:Generated_Source\PSoC5/USB_std.c ****     {
 959:Generated_Source\PSoC5/USB_std.c ****         pTmp = (const T_USB_LUT CYCODE *) NULL;
 2100              		.loc 1 959 0
 2101 002a 0023     		movs	r3, #0
 2102 002c FB60     		str	r3, [r7, #12]
 2103 002e 05E0     		b	.L142
 2104              	.L141:
 960:Generated_Source\PSoC5/USB_std.c ****     }
 961:Generated_Source\PSoC5/USB_std.c ****     else
 962:Generated_Source\PSoC5/USB_std.c ****     {
 963:Generated_Source\PSoC5/USB_std.c ****         pTmp = (const T_USB_LUT CYCODE *) pTmp[confIndex].p_list;
 2105              		.loc 1 963 0
 2106 0030 FB79     		ldrb	r3, [r7, #7]	@ zero_extendqisi2
 2107 0032 DB00     		lsls	r3, r3, #3
 2108 0034 FA68     		ldr	r2, [r7, #12]
 2109 0036 1344     		add	r3, r3, r2
 2110 0038 5B68     		ldr	r3, [r3, #4]
 2111 003a FB60     		str	r3, [r7, #12]
 2112              	.L142:
 964:Generated_Source\PSoC5/USB_std.c ****     }
 965:Generated_Source\PSoC5/USB_std.c **** 
 966:Generated_Source\PSoC5/USB_std.c ****     return (pTmp);
 2113              		.loc 1 966 0
 2114 003c FB68     		ldr	r3, [r7, #12]
 967:Generated_Source\PSoC5/USB_std.c **** }
 2115              		.loc 1 967 0
 2116 003e 1846     		mov	r0, r3
 2117 0040 1437     		adds	r7, r7, #20
 2118              		.cfi_def_cfa_offset 4
 2119 0042 BD46     		mov	sp, r7
 2120              		.cfi_def_cfa_register 13
 2121              		@ sp needed
 2122 0044 80BC     		pop	{r7}
 2123              		.cfi_restore 7
 2124              		.cfi_def_cfa_offset 0
 2125 0046 7047     		bx	lr
 2126              	.L145:
 2127              		.align	2
ARM GAS  C:\Users\Admin\AppData\Local\Temp\ccqZUt8d.s 			page 57


 2128              	.L144:
 2129 0048 00000000 		.word	USB_device
 2130 004c 00000000 		.word	USB_TABLE
 2131              		.cfi_endproc
 2132              	.LFE6:
 2133              		.size	USB_GetConfigTablePtr, .-USB_GetConfigTablePtr
 2134              		.section	.text.USB_GetDeviceTablePtr,"ax",%progbits
 2135              		.align	2
 2136              		.global	USB_GetDeviceTablePtr
 2137              		.thumb
 2138              		.thumb_func
 2139              		.type	USB_GetDeviceTablePtr, %function
 2140              	USB_GetDeviceTablePtr:
 2141              	.LFB7:
 968:Generated_Source\PSoC5/USB_std.c **** 
 969:Generated_Source\PSoC5/USB_std.c **** 
 970:Generated_Source\PSoC5/USB_std.c **** #if (USB_BOS_ENABLE)
 971:Generated_Source\PSoC5/USB_std.c ****     /*******************************************************************************
 972:Generated_Source\PSoC5/USB_std.c ****     * Function Name: USB_GetBOSPtr
 973:Generated_Source\PSoC5/USB_std.c ****     ****************************************************************************//**
 974:Generated_Source\PSoC5/USB_std.c ****     *
 975:Generated_Source\PSoC5/USB_std.c ****     *  This routine returns a pointer a BOS table entry
 976:Generated_Source\PSoC5/USB_std.c ****     *
 977:Generated_Source\PSoC5/USB_std.c ****     *  
 978:Generated_Source\PSoC5/USB_std.c ****     *
 979:Generated_Source\PSoC5/USB_std.c ****     * \return
 980:Generated_Source\PSoC5/USB_std.c ****     *  BOS Descriptor pointer or NULL when descriptor does not exist.
 981:Generated_Source\PSoC5/USB_std.c ****     *
 982:Generated_Source\PSoC5/USB_std.c ****     *******************************************************************************/
 983:Generated_Source\PSoC5/USB_std.c ****     const T_USB_LUT CYCODE *USB_GetBOSPtr(void)
 984:Generated_Source\PSoC5/USB_std.c ****                                                             
 985:Generated_Source\PSoC5/USB_std.c ****     {
 986:Generated_Source\PSoC5/USB_std.c ****         /* Device Table */
 987:Generated_Source\PSoC5/USB_std.c ****         const T_USB_LUT CYCODE *pTmp;
 988:Generated_Source\PSoC5/USB_std.c **** 
 989:Generated_Source\PSoC5/USB_std.c ****         pTmp = (const T_USB_LUT CYCODE *) USB_TABLE[USB_device].p_list;
 990:Generated_Source\PSoC5/USB_std.c **** 
 991:Generated_Source\PSoC5/USB_std.c ****         /* The first entry points to the Device Descriptor,
 992:Generated_Source\PSoC5/USB_std.c ****         *  the second entry points to the BOS Descriptor
 993:Generated_Source\PSoC5/USB_std.c ****         */
 994:Generated_Source\PSoC5/USB_std.c ****         pTmp = &pTmp[1u];
 995:Generated_Source\PSoC5/USB_std.c ****         pTmp = (const T_USB_LUT CYCODE *) pTmp->p_list;
 996:Generated_Source\PSoC5/USB_std.c ****         return (pTmp);
 997:Generated_Source\PSoC5/USB_std.c ****     }
 998:Generated_Source\PSoC5/USB_std.c **** #endif /* (USB_BOS_ENABLE) */
 999:Generated_Source\PSoC5/USB_std.c **** 
1000:Generated_Source\PSoC5/USB_std.c **** 
1001:Generated_Source\PSoC5/USB_std.c **** /*******************************************************************************
1002:Generated_Source\PSoC5/USB_std.c **** * Function Name: USB_GetDeviceTablePtr
1003:Generated_Source\PSoC5/USB_std.c **** ****************************************************************************//**
1004:Generated_Source\PSoC5/USB_std.c **** *
1005:Generated_Source\PSoC5/USB_std.c **** *  This routine returns a pointer to the Device table
1006:Generated_Source\PSoC5/USB_std.c **** *
1007:Generated_Source\PSoC5/USB_std.c **** * \return
1008:Generated_Source\PSoC5/USB_std.c **** *  Device Table pointer
1009:Generated_Source\PSoC5/USB_std.c **** *
1010:Generated_Source\PSoC5/USB_std.c **** *******************************************************************************/
ARM GAS  C:\Users\Admin\AppData\Local\Temp\ccqZUt8d.s 			page 58


1011:Generated_Source\PSoC5/USB_std.c **** const T_USB_LUT CYCODE *USB_GetDeviceTablePtr(void)
1012:Generated_Source\PSoC5/USB_std.c ****                                                             
1013:Generated_Source\PSoC5/USB_std.c **** {
 2142              		.loc 1 1013 0
 2143              		.cfi_startproc
 2144              		@ args = 0, pretend = 0, frame = 0
 2145              		@ frame_needed = 1, uses_anonymous_args = 0
 2146              		@ link register save eliminated.
 2147 0000 80B4     		push	{r7}
 2148              		.cfi_def_cfa_offset 4
 2149              		.cfi_offset 7, -4
 2150 0002 00AF     		add	r7, sp, #0
 2151              		.cfi_def_cfa_register 7
1014:Generated_Source\PSoC5/USB_std.c ****     /* Device Table */
1015:Generated_Source\PSoC5/USB_std.c ****     return( (const T_USB_LUT CYCODE *) USB_TABLE[USB_device].p_list );
 2152              		.loc 1 1015 0
 2153 0004 054B     		ldr	r3, .L148
 2154 0006 1B78     		ldrb	r3, [r3]
 2155 0008 DBB2     		uxtb	r3, r3
 2156 000a 054A     		ldr	r2, .L148+4
 2157 000c DB00     		lsls	r3, r3, #3
 2158 000e 1344     		add	r3, r3, r2
 2159 0010 5B68     		ldr	r3, [r3, #4]
1016:Generated_Source\PSoC5/USB_std.c **** }
 2160              		.loc 1 1016 0
 2161 0012 1846     		mov	r0, r3
 2162 0014 BD46     		mov	sp, r7
 2163              		.cfi_def_cfa_register 13
 2164              		@ sp needed
 2165 0016 80BC     		pop	{r7}
 2166              		.cfi_restore 7
 2167              		.cfi_def_cfa_offset 0
 2168 0018 7047     		bx	lr
 2169              	.L149:
 2170 001a 00BF     		.align	2
 2171              	.L148:
 2172 001c 00000000 		.word	USB_device
 2173 0020 00000000 		.word	USB_TABLE
 2174              		.cfi_endproc
 2175              	.LFE7:
 2176              		.size	USB_GetDeviceTablePtr, .-USB_GetDeviceTablePtr
 2177              		.section	.text.USB_GetInterfaceClassTablePtr,"ax",%progbits
 2178              		.align	2
 2179              		.global	USB_GetInterfaceClassTablePtr
 2180              		.thumb
 2181              		.thumb_func
 2182              		.type	USB_GetInterfaceClassTablePtr, %function
 2183              	USB_GetInterfaceClassTablePtr:
 2184              	.LFB8:
1017:Generated_Source\PSoC5/USB_std.c **** 
1018:Generated_Source\PSoC5/USB_std.c **** 
1019:Generated_Source\PSoC5/USB_std.c **** /*******************************************************************************
1020:Generated_Source\PSoC5/USB_std.c **** * Function Name: USB_GetInterfaceClassTablePtr
1021:Generated_Source\PSoC5/USB_std.c **** ****************************************************************************//**
1022:Generated_Source\PSoC5/USB_std.c **** *
1023:Generated_Source\PSoC5/USB_std.c **** *  This routine returns Interface Class table pointer, which contains
1024:Generated_Source\PSoC5/USB_std.c **** *  the relation between interface number and interface class.
ARM GAS  C:\Users\Admin\AppData\Local\Temp\ccqZUt8d.s 			page 59


1025:Generated_Source\PSoC5/USB_std.c **** *
1026:Generated_Source\PSoC5/USB_std.c **** * \return
1027:Generated_Source\PSoC5/USB_std.c **** *  Interface Class table pointer.
1028:Generated_Source\PSoC5/USB_std.c **** *
1029:Generated_Source\PSoC5/USB_std.c **** *******************************************************************************/
1030:Generated_Source\PSoC5/USB_std.c **** const uint8 CYCODE *USB_GetInterfaceClassTablePtr(void)
1031:Generated_Source\PSoC5/USB_std.c ****                                                         
1032:Generated_Source\PSoC5/USB_std.c **** {
 2185              		.loc 1 1032 0
 2186              		.cfi_startproc
 2187              		@ args = 0, pretend = 0, frame = 16
 2188              		@ frame_needed = 1, uses_anonymous_args = 0
 2189 0000 80B5     		push	{r7, lr}
 2190              		.cfi_def_cfa_offset 8
 2191              		.cfi_offset 7, -8
 2192              		.cfi_offset 14, -4
 2193 0002 84B0     		sub	sp, sp, #16
 2194              		.cfi_def_cfa_offset 24
 2195 0004 00AF     		add	r7, sp, #0
 2196              		.cfi_def_cfa_register 7
1033:Generated_Source\PSoC5/USB_std.c ****     const T_USB_LUT CYCODE *pTmp;
1034:Generated_Source\PSoC5/USB_std.c ****     const uint8 CYCODE *pInterfaceClass;
1035:Generated_Source\PSoC5/USB_std.c ****     uint8 currentInterfacesNum;
1036:Generated_Source\PSoC5/USB_std.c **** 
1037:Generated_Source\PSoC5/USB_std.c ****     pTmp = USB_GetConfigTablePtr(USB_configuration - 1u);
 2197              		.loc 1 1037 0
 2198 0006 104B     		ldr	r3, .L154
 2199 0008 1B78     		ldrb	r3, [r3]
 2200 000a DBB2     		uxtb	r3, r3
 2201 000c 013B     		subs	r3, r3, #1
 2202 000e DBB2     		uxtb	r3, r3
 2203 0010 1846     		mov	r0, r3
 2204 0012 FFF7FEFF 		bl	USB_GetConfigTablePtr
 2205 0016 B860     		str	r0, [r7, #8]
1038:Generated_Source\PSoC5/USB_std.c ****     if (pTmp != NULL)
 2206              		.loc 1 1038 0
 2207 0018 BB68     		ldr	r3, [r7, #8]
 2208 001a 002B     		cmp	r3, #0
 2209 001c 0DD0     		beq	.L151
1039:Generated_Source\PSoC5/USB_std.c ****     {
1040:Generated_Source\PSoC5/USB_std.c ****         currentInterfacesNum  = ((const uint8 *) pTmp->p_list)[USB_CONFIG_DESCR_NUM_INTERFACES];
 2210              		.loc 1 1040 0
 2211 001e BB68     		ldr	r3, [r7, #8]
 2212 0020 5B68     		ldr	r3, [r3, #4]
 2213 0022 1B79     		ldrb	r3, [r3, #4]
 2214 0024 FB71     		strb	r3, [r7, #7]
1041:Generated_Source\PSoC5/USB_std.c ****         /* Third entry in the LUT starts the Interface Table pointers */
1042:Generated_Source\PSoC5/USB_std.c ****         /* The INTERFACE_CLASS table is located after all interfaces */
1043:Generated_Source\PSoC5/USB_std.c ****         pTmp = &pTmp[currentInterfacesNum + 2u];
 2215              		.loc 1 1043 0
 2216 0026 FB79     		ldrb	r3, [r7, #7]	@ zero_extendqisi2
 2217 0028 0233     		adds	r3, r3, #2
 2218 002a DB00     		lsls	r3, r3, #3
 2219 002c BA68     		ldr	r2, [r7, #8]
 2220 002e 1344     		add	r3, r3, r2
 2221 0030 BB60     		str	r3, [r7, #8]
1044:Generated_Source\PSoC5/USB_std.c ****         pInterfaceClass = (const uint8 CYCODE *) pTmp->p_list;
ARM GAS  C:\Users\Admin\AppData\Local\Temp\ccqZUt8d.s 			page 60


 2222              		.loc 1 1044 0
 2223 0032 BB68     		ldr	r3, [r7, #8]
 2224 0034 5B68     		ldr	r3, [r3, #4]
 2225 0036 FB60     		str	r3, [r7, #12]
 2226 0038 01E0     		b	.L152
 2227              	.L151:
1045:Generated_Source\PSoC5/USB_std.c ****     }
1046:Generated_Source\PSoC5/USB_std.c ****     else
1047:Generated_Source\PSoC5/USB_std.c ****     {
1048:Generated_Source\PSoC5/USB_std.c ****         pInterfaceClass = (const uint8 CYCODE *) NULL;
 2228              		.loc 1 1048 0
 2229 003a 0023     		movs	r3, #0
 2230 003c FB60     		str	r3, [r7, #12]
 2231              	.L152:
1049:Generated_Source\PSoC5/USB_std.c ****     }
1050:Generated_Source\PSoC5/USB_std.c **** 
1051:Generated_Source\PSoC5/USB_std.c ****     return (pInterfaceClass);
 2232              		.loc 1 1051 0
 2233 003e FB68     		ldr	r3, [r7, #12]
1052:Generated_Source\PSoC5/USB_std.c **** }
 2234              		.loc 1 1052 0
 2235 0040 1846     		mov	r0, r3
 2236 0042 1037     		adds	r7, r7, #16
 2237              		.cfi_def_cfa_offset 8
 2238 0044 BD46     		mov	sp, r7
 2239              		.cfi_def_cfa_register 13
 2240              		@ sp needed
 2241 0046 80BD     		pop	{r7, pc}
 2242              	.L155:
 2243              		.align	2
 2244              	.L154:
 2245 0048 00000000 		.word	USB_configuration
 2246              		.cfi_endproc
 2247              	.LFE8:
 2248              		.size	USB_GetInterfaceClassTablePtr, .-USB_GetInterfaceClassTablePtr
 2249              		.section	.text.USB_TerminateEP,"ax",%progbits
 2250              		.align	2
 2251              		.global	USB_TerminateEP
 2252              		.thumb
 2253              		.thumb_func
 2254              		.type	USB_TerminateEP, %function
 2255              	USB_TerminateEP:
 2256              	.LFB9:
1053:Generated_Source\PSoC5/USB_std.c **** 
1054:Generated_Source\PSoC5/USB_std.c **** 
1055:Generated_Source\PSoC5/USB_std.c **** /*******************************************************************************
1056:Generated_Source\PSoC5/USB_std.c **** * Function Name: USB_TerminateEP
1057:Generated_Source\PSoC5/USB_std.c **** ****************************************************************************//**
1058:Generated_Source\PSoC5/USB_std.c **** *
1059:Generated_Source\PSoC5/USB_std.c **** *  This function terminates the specified USBFS endpoint.
1060:Generated_Source\PSoC5/USB_std.c **** *  This function should be used before endpoint reconfiguration.
1061:Generated_Source\PSoC5/USB_std.c **** *
1062:Generated_Source\PSoC5/USB_std.c **** *  \param ep Contains the data endpoint number.
1063:Generated_Source\PSoC5/USB_std.c **** *
1064:Generated_Source\PSoC5/USB_std.c **** *  \reentrant
1065:Generated_Source\PSoC5/USB_std.c **** *  No.
1066:Generated_Source\PSoC5/USB_std.c **** *
ARM GAS  C:\Users\Admin\AppData\Local\Temp\ccqZUt8d.s 			page 61


1067:Generated_Source\PSoC5/USB_std.c **** * \sideeffect
1068:Generated_Source\PSoC5/USB_std.c **** * 
1069:Generated_Source\PSoC5/USB_std.c **** * The device responds with a NAK for any transactions on the selected endpoint.
1070:Generated_Source\PSoC5/USB_std.c **** *   
1071:Generated_Source\PSoC5/USB_std.c **** *******************************************************************************/
1072:Generated_Source\PSoC5/USB_std.c **** void USB_TerminateEP(uint8 epNumber) 
1073:Generated_Source\PSoC5/USB_std.c **** {
 2257              		.loc 1 1073 0
 2258              		.cfi_startproc
 2259              		@ args = 0, pretend = 0, frame = 8
 2260              		@ frame_needed = 1, uses_anonymous_args = 0
 2261              		@ link register save eliminated.
 2262 0000 80B4     		push	{r7}
 2263              		.cfi_def_cfa_offset 4
 2264              		.cfi_offset 7, -4
 2265 0002 83B0     		sub	sp, sp, #12
 2266              		.cfi_def_cfa_offset 16
 2267 0004 00AF     		add	r7, sp, #0
 2268              		.cfi_def_cfa_register 7
 2269 0006 0346     		mov	r3, r0
 2270 0008 FB71     		strb	r3, [r7, #7]
1074:Generated_Source\PSoC5/USB_std.c ****     /* Get endpoint number */
1075:Generated_Source\PSoC5/USB_std.c ****     epNumber &= USB_DIR_UNUSED;
 2271              		.loc 1 1075 0
 2272 000a FB79     		ldrb	r3, [r7, #7]
 2273 000c 03F07F03 		and	r3, r3, #127
 2274 0010 FB71     		strb	r3, [r7, #7]
1076:Generated_Source\PSoC5/USB_std.c **** 
1077:Generated_Source\PSoC5/USB_std.c ****     if ((epNumber > USB_EP0) && (epNumber < USB_MAX_EP))
 2275              		.loc 1 1077 0
 2276 0012 FB79     		ldrb	r3, [r7, #7]	@ zero_extendqisi2
 2277 0014 002B     		cmp	r3, #0
 2278 0016 49D0     		beq	.L159
 2279              		.loc 1 1077 0 is_stmt 0 discriminator 1
 2280 0018 FB79     		ldrb	r3, [r7, #7]	@ zero_extendqisi2
 2281 001a 082B     		cmp	r3, #8
 2282 001c 46D8     		bhi	.L159
1078:Generated_Source\PSoC5/USB_std.c ****     {
1079:Generated_Source\PSoC5/USB_std.c ****         /* Set the endpoint Halt */
1080:Generated_Source\PSoC5/USB_std.c ****         USB_EP[epNumber].hwEpState |= USB_ENDPOINT_STATUS_HALT;
 2283              		.loc 1 1080 0 is_stmt 1
 2284 001e FA79     		ldrb	r2, [r7, #7]	@ zero_extendqisi2
 2285 0020 F979     		ldrb	r1, [r7, #7]	@ zero_extendqisi2
 2286 0022 2548     		ldr	r0, .L160
 2287 0024 0B46     		mov	r3, r1
 2288 0026 5B00     		lsls	r3, r3, #1
 2289 0028 0B44     		add	r3, r3, r1
 2290 002a 9B00     		lsls	r3, r3, #2
 2291 002c 0344     		add	r3, r3, r0
 2292 002e 0233     		adds	r3, r3, #2
 2293 0030 1B78     		ldrb	r3, [r3]
 2294 0032 DBB2     		uxtb	r3, r3
 2295 0034 43F00103 		orr	r3, r3, #1
 2296 0038 D8B2     		uxtb	r0, r3
 2297 003a 1F49     		ldr	r1, .L160
 2298 003c 1346     		mov	r3, r2
 2299 003e 5B00     		lsls	r3, r3, #1
ARM GAS  C:\Users\Admin\AppData\Local\Temp\ccqZUt8d.s 			page 62


 2300 0040 1344     		add	r3, r3, r2
 2301 0042 9B00     		lsls	r3, r3, #2
 2302 0044 0B44     		add	r3, r3, r1
 2303 0046 0233     		adds	r3, r3, #2
 2304 0048 0246     		mov	r2, r0
 2305 004a 1A70     		strb	r2, [r3]
1081:Generated_Source\PSoC5/USB_std.c **** 
1082:Generated_Source\PSoC5/USB_std.c ****         /* Clear the data toggle */
1083:Generated_Source\PSoC5/USB_std.c ****         USB_EP[epNumber].epToggle = 0u;
 2306              		.loc 1 1083 0
 2307 004c FA79     		ldrb	r2, [r7, #7]	@ zero_extendqisi2
 2308 004e 1A49     		ldr	r1, .L160
 2309 0050 1346     		mov	r3, r2
 2310 0052 5B00     		lsls	r3, r3, #1
 2311 0054 1344     		add	r3, r3, r2
 2312 0056 9B00     		lsls	r3, r3, #2
 2313 0058 0B44     		add	r3, r3, r1
 2314 005a 0333     		adds	r3, r3, #3
 2315 005c 0022     		movs	r2, #0
 2316 005e 1A70     		strb	r2, [r3]
1084:Generated_Source\PSoC5/USB_std.c ****         USB_EP[epNumber].apiEpState = USB_NO_EVENT_ALLOWED;
 2317              		.loc 1 1084 0
 2318 0060 FA79     		ldrb	r2, [r7, #7]	@ zero_extendqisi2
 2319 0062 1549     		ldr	r1, .L160
 2320 0064 1346     		mov	r3, r2
 2321 0066 5B00     		lsls	r3, r3, #1
 2322 0068 1344     		add	r3, r3, r2
 2323 006a 9B00     		lsls	r3, r3, #2
 2324 006c 0B44     		add	r3, r3, r1
 2325 006e 0133     		adds	r3, r3, #1
 2326 0070 0222     		movs	r2, #2
 2327 0072 1A70     		strb	r2, [r3]
1085:Generated_Source\PSoC5/USB_std.c **** 
1086:Generated_Source\PSoC5/USB_std.c ****         if ((USB_EP[epNumber].addr & USB_DIR_IN) != 0u)
 2328              		.loc 1 1086 0
 2329 0074 FA79     		ldrb	r2, [r7, #7]	@ zero_extendqisi2
 2330 0076 1049     		ldr	r1, .L160
 2331 0078 1346     		mov	r3, r2
 2332 007a 5B00     		lsls	r3, r3, #1
 2333 007c 1344     		add	r3, r3, r2
 2334 007e 9B00     		lsls	r3, r3, #2
 2335 0080 0B44     		add	r3, r3, r1
 2336 0082 0433     		adds	r3, r3, #4
 2337 0084 1B78     		ldrb	r3, [r3]
 2338 0086 DBB2     		uxtb	r3, r3
 2339 0088 5BB2     		sxtb	r3, r3
 2340 008a 002B     		cmp	r3, #0
 2341 008c 07DA     		bge	.L158
1087:Generated_Source\PSoC5/USB_std.c ****         {   
1088:Generated_Source\PSoC5/USB_std.c ****             /* IN Endpoint */
1089:Generated_Source\PSoC5/USB_std.c ****             USB_SIE_EP_BASE.sieEp[epNumber].epCr0 = USB_MODE_NAK_IN;
 2342              		.loc 1 1089 0
 2343 008e 0B4A     		ldr	r2, .L160+4
 2344 0090 FB79     		ldrb	r3, [r7, #7]	@ zero_extendqisi2
 2345 0092 1B01     		lsls	r3, r3, #4
 2346 0094 1344     		add	r3, r3, r2
 2347 0096 0233     		adds	r3, r3, #2
ARM GAS  C:\Users\Admin\AppData\Local\Temp\ccqZUt8d.s 			page 63


 2348 0098 0C22     		movs	r2, #12
 2349 009a 1A70     		strb	r2, [r3]
1090:Generated_Source\PSoC5/USB_std.c ****         }
1091:Generated_Source\PSoC5/USB_std.c ****         else
1092:Generated_Source\PSoC5/USB_std.c ****         {
1093:Generated_Source\PSoC5/USB_std.c ****             /* OUT Endpoint */
1094:Generated_Source\PSoC5/USB_std.c ****             USB_SIE_EP_BASE.sieEp[epNumber].epCr0 = USB_MODE_NAK_OUT;
1095:Generated_Source\PSoC5/USB_std.c ****         }
1096:Generated_Source\PSoC5/USB_std.c ****     }
1097:Generated_Source\PSoC5/USB_std.c **** }
 2350              		.loc 1 1097 0
 2351 009c 06E0     		b	.L159
 2352              	.L158:
1094:Generated_Source\PSoC5/USB_std.c ****         }
 2353              		.loc 1 1094 0
 2354 009e 074A     		ldr	r2, .L160+4
 2355 00a0 FB79     		ldrb	r3, [r7, #7]	@ zero_extendqisi2
 2356 00a2 1B01     		lsls	r3, r3, #4
 2357 00a4 1344     		add	r3, r3, r2
 2358 00a6 0233     		adds	r3, r3, #2
 2359 00a8 0822     		movs	r2, #8
 2360 00aa 1A70     		strb	r2, [r3]
 2361              	.L159:
 2362              		.loc 1 1097 0
 2363 00ac 00BF     		nop
 2364 00ae 0C37     		adds	r7, r7, #12
 2365              		.cfi_def_cfa_offset 4
 2366 00b0 BD46     		mov	sp, r7
 2367              		.cfi_def_cfa_register 13
 2368              		@ sp needed
 2369 00b2 80BC     		pop	{r7}
 2370              		.cfi_restore 7
 2371              		.cfi_def_cfa_offset 0
 2372 00b4 7047     		bx	lr
 2373              	.L161:
 2374 00b6 00BF     		.align	2
 2375              	.L160:
 2376 00b8 00000000 		.word	USB_EP
 2377 00bc FC5F0040 		.word	1073766396
 2378              		.cfi_endproc
 2379              	.LFE9:
 2380              		.size	USB_TerminateEP, .-USB_TerminateEP
 2381              		.section	.text.USB_SetEndpointHalt,"ax",%progbits
 2382              		.align	2
 2383              		.global	USB_SetEndpointHalt
 2384              		.thumb
 2385              		.thumb_func
 2386              		.type	USB_SetEndpointHalt, %function
 2387              	USB_SetEndpointHalt:
 2388              	.LFB10:
1098:Generated_Source\PSoC5/USB_std.c **** 
1099:Generated_Source\PSoC5/USB_std.c **** 
1100:Generated_Source\PSoC5/USB_std.c **** /*******************************************************************************
1101:Generated_Source\PSoC5/USB_std.c **** * Function Name: USB_SetEndpointHalt
1102:Generated_Source\PSoC5/USB_std.c **** ****************************************************************************//**
1103:Generated_Source\PSoC5/USB_std.c **** *
1104:Generated_Source\PSoC5/USB_std.c **** *  This routine handles set endpoint halt.
ARM GAS  C:\Users\Admin\AppData\Local\Temp\ccqZUt8d.s 			page 64


1105:Generated_Source\PSoC5/USB_std.c **** *
1106:Generated_Source\PSoC5/USB_std.c **** * \return
1107:Generated_Source\PSoC5/USB_std.c **** *  requestHandled.
1108:Generated_Source\PSoC5/USB_std.c **** *
1109:Generated_Source\PSoC5/USB_std.c **** * \reentrant
1110:Generated_Source\PSoC5/USB_std.c **** *  No.
1111:Generated_Source\PSoC5/USB_std.c **** *
1112:Generated_Source\PSoC5/USB_std.c **** *******************************************************************************/
1113:Generated_Source\PSoC5/USB_std.c **** uint8 USB_SetEndpointHalt(void) 
1114:Generated_Source\PSoC5/USB_std.c **** {
 2389              		.loc 1 1114 0
 2390              		.cfi_startproc
 2391              		@ args = 0, pretend = 0, frame = 8
 2392              		@ frame_needed = 1, uses_anonymous_args = 0
 2393 0000 80B5     		push	{r7, lr}
 2394              		.cfi_def_cfa_offset 8
 2395              		.cfi_offset 7, -8
 2396              		.cfi_offset 14, -4
 2397 0002 82B0     		sub	sp, sp, #8
 2398              		.cfi_def_cfa_offset 16
 2399 0004 00AF     		add	r7, sp, #0
 2400              		.cfi_def_cfa_register 7
1115:Generated_Source\PSoC5/USB_std.c ****     uint8 requestHandled = USB_FALSE;
 2401              		.loc 1 1115 0
 2402 0006 0023     		movs	r3, #0
 2403 0008 FB71     		strb	r3, [r7, #7]
1116:Generated_Source\PSoC5/USB_std.c ****     uint8 ep;
1117:Generated_Source\PSoC5/USB_std.c ****     
1118:Generated_Source\PSoC5/USB_std.c ****     /* Set endpoint halt */
1119:Generated_Source\PSoC5/USB_std.c ****     ep = USB_wIndexLoReg & USB_DIR_UNUSED;
 2404              		.loc 1 1119 0
 2405 000a 344B     		ldr	r3, .L167
 2406 000c 1B79     		ldrb	r3, [r3, #4]
 2407 000e DBB2     		uxtb	r3, r3
 2408 0010 03F07F03 		and	r3, r3, #127
 2409 0014 BB71     		strb	r3, [r7, #6]
1120:Generated_Source\PSoC5/USB_std.c **** 
1121:Generated_Source\PSoC5/USB_std.c ****     if ((ep > USB_EP0) && (ep < USB_MAX_EP))
 2410              		.loc 1 1121 0
 2411 0016 BB79     		ldrb	r3, [r7, #6]	@ zero_extendqisi2
 2412 0018 002B     		cmp	r3, #0
 2413 001a 5AD0     		beq	.L163
 2414              		.loc 1 1121 0 is_stmt 0 discriminator 1
 2415 001c BB79     		ldrb	r3, [r7, #6]	@ zero_extendqisi2
 2416 001e 082B     		cmp	r3, #8
 2417 0020 57D8     		bhi	.L163
1122:Generated_Source\PSoC5/USB_std.c ****     {
1123:Generated_Source\PSoC5/USB_std.c ****         /* Set the endpoint Halt */
1124:Generated_Source\PSoC5/USB_std.c ****         USB_EP[ep].hwEpState |= (USB_ENDPOINT_STATUS_HALT);
 2418              		.loc 1 1124 0 is_stmt 1
 2419 0022 BA79     		ldrb	r2, [r7, #6]	@ zero_extendqisi2
 2420 0024 B979     		ldrb	r1, [r7, #6]	@ zero_extendqisi2
 2421 0026 2E48     		ldr	r0, .L167+4
 2422 0028 0B46     		mov	r3, r1
 2423 002a 5B00     		lsls	r3, r3, #1
 2424 002c 0B44     		add	r3, r3, r1
 2425 002e 9B00     		lsls	r3, r3, #2
ARM GAS  C:\Users\Admin\AppData\Local\Temp\ccqZUt8d.s 			page 65


 2426 0030 0344     		add	r3, r3, r0
 2427 0032 0233     		adds	r3, r3, #2
 2428 0034 1B78     		ldrb	r3, [r3]
 2429 0036 DBB2     		uxtb	r3, r3
 2430 0038 43F00103 		orr	r3, r3, #1
 2431 003c D8B2     		uxtb	r0, r3
 2432 003e 2849     		ldr	r1, .L167+4
 2433 0040 1346     		mov	r3, r2
 2434 0042 5B00     		lsls	r3, r3, #1
 2435 0044 1344     		add	r3, r3, r2
 2436 0046 9B00     		lsls	r3, r3, #2
 2437 0048 0B44     		add	r3, r3, r1
 2438 004a 0233     		adds	r3, r3, #2
 2439 004c 0246     		mov	r2, r0
 2440 004e 1A70     		strb	r2, [r3]
1125:Generated_Source\PSoC5/USB_std.c **** 
1126:Generated_Source\PSoC5/USB_std.c ****         /* Clear the data toggle */
1127:Generated_Source\PSoC5/USB_std.c ****         USB_EP[ep].epToggle = 0u;
 2441              		.loc 1 1127 0
 2442 0050 BA79     		ldrb	r2, [r7, #6]	@ zero_extendqisi2
 2443 0052 2349     		ldr	r1, .L167+4
 2444 0054 1346     		mov	r3, r2
 2445 0056 5B00     		lsls	r3, r3, #1
 2446 0058 1344     		add	r3, r3, r2
 2447 005a 9B00     		lsls	r3, r3, #2
 2448 005c 0B44     		add	r3, r3, r1
 2449 005e 0333     		adds	r3, r3, #3
 2450 0060 0022     		movs	r2, #0
 2451 0062 1A70     		strb	r2, [r3]
1128:Generated_Source\PSoC5/USB_std.c ****         USB_EP[ep].apiEpState |= USB_NO_EVENT_ALLOWED;
 2452              		.loc 1 1128 0
 2453 0064 BA79     		ldrb	r2, [r7, #6]	@ zero_extendqisi2
 2454 0066 B979     		ldrb	r1, [r7, #6]	@ zero_extendqisi2
 2455 0068 1D48     		ldr	r0, .L167+4
 2456 006a 0B46     		mov	r3, r1
 2457 006c 5B00     		lsls	r3, r3, #1
 2458 006e 0B44     		add	r3, r3, r1
 2459 0070 9B00     		lsls	r3, r3, #2
 2460 0072 0344     		add	r3, r3, r0
 2461 0074 0133     		adds	r3, r3, #1
 2462 0076 1B78     		ldrb	r3, [r3]
 2463 0078 DBB2     		uxtb	r3, r3
 2464 007a 43F00203 		orr	r3, r3, #2
 2465 007e D8B2     		uxtb	r0, r3
 2466 0080 1749     		ldr	r1, .L167+4
 2467 0082 1346     		mov	r3, r2
 2468 0084 5B00     		lsls	r3, r3, #1
 2469 0086 1344     		add	r3, r3, r2
 2470 0088 9B00     		lsls	r3, r3, #2
 2471 008a 0B44     		add	r3, r3, r1
 2472 008c 0133     		adds	r3, r3, #1
 2473 008e 0246     		mov	r2, r0
 2474 0090 1A70     		strb	r2, [r3]
1129:Generated_Source\PSoC5/USB_std.c **** 
1130:Generated_Source\PSoC5/USB_std.c ****         if ((USB_EP[ep].addr & USB_DIR_IN) != 0u)
 2475              		.loc 1 1130 0
 2476 0092 BA79     		ldrb	r2, [r7, #6]	@ zero_extendqisi2
ARM GAS  C:\Users\Admin\AppData\Local\Temp\ccqZUt8d.s 			page 66


 2477 0094 1249     		ldr	r1, .L167+4
 2478 0096 1346     		mov	r3, r2
 2479 0098 5B00     		lsls	r3, r3, #1
 2480 009a 1344     		add	r3, r3, r2
 2481 009c 9B00     		lsls	r3, r3, #2
 2482 009e 0B44     		add	r3, r3, r1
 2483 00a0 0433     		adds	r3, r3, #4
 2484 00a2 1B78     		ldrb	r3, [r3]
 2485 00a4 DBB2     		uxtb	r3, r3
 2486 00a6 5BB2     		sxtb	r3, r3
 2487 00a8 002B     		cmp	r3, #0
 2488 00aa 07DA     		bge	.L164
1131:Generated_Source\PSoC5/USB_std.c ****         {
1132:Generated_Source\PSoC5/USB_std.c ****             /* IN Endpoint */
1133:Generated_Source\PSoC5/USB_std.c ****             USB_SIE_EP_BASE.sieEp[ep].epCr0 = (USB_MODE_STALL_DATA_EP | 
 2489              		.loc 1 1133 0
 2490 00ac 0D4A     		ldr	r2, .L167+8
 2491 00ae BB79     		ldrb	r3, [r7, #6]	@ zero_extendqisi2
 2492 00b0 1B01     		lsls	r3, r3, #4
 2493 00b2 1344     		add	r3, r3, r2
 2494 00b4 0233     		adds	r3, r3, #2
 2495 00b6 8D22     		movs	r2, #141
 2496 00b8 1A70     		strb	r2, [r3]
 2497 00ba 06E0     		b	.L165
 2498              	.L164:
1134:Generated_Source\PSoC5/USB_std.c ****                                                             USB_MODE_ACK_IN);
1135:Generated_Source\PSoC5/USB_std.c ****         }
1136:Generated_Source\PSoC5/USB_std.c ****         else
1137:Generated_Source\PSoC5/USB_std.c ****         {
1138:Generated_Source\PSoC5/USB_std.c ****             /* OUT Endpoint */
1139:Generated_Source\PSoC5/USB_std.c ****             USB_SIE_EP_BASE.sieEp[ep].epCr0 = (USB_MODE_STALL_DATA_EP | 
 2499              		.loc 1 1139 0
 2500 00bc 094A     		ldr	r2, .L167+8
 2501 00be BB79     		ldrb	r3, [r7, #6]	@ zero_extendqisi2
 2502 00c0 1B01     		lsls	r3, r3, #4
 2503 00c2 1344     		add	r3, r3, r2
 2504 00c4 0233     		adds	r3, r3, #2
 2505 00c6 8922     		movs	r2, #137
 2506 00c8 1A70     		strb	r2, [r3]
 2507              	.L165:
1140:Generated_Source\PSoC5/USB_std.c ****                                                             USB_MODE_ACK_OUT);
1141:Generated_Source\PSoC5/USB_std.c ****         }
1142:Generated_Source\PSoC5/USB_std.c ****         requestHandled = USB_InitNoDataControlTransfer();
 2508              		.loc 1 1142 0
 2509 00ca FFF7FEFF 		bl	USB_InitNoDataControlTransfer
 2510 00ce 0346     		mov	r3, r0
 2511 00d0 FB71     		strb	r3, [r7, #7]
 2512              	.L163:
1143:Generated_Source\PSoC5/USB_std.c ****     }
1144:Generated_Source\PSoC5/USB_std.c **** 
1145:Generated_Source\PSoC5/USB_std.c ****     return (requestHandled);
 2513              		.loc 1 1145 0
 2514 00d2 FB79     		ldrb	r3, [r7, #7]	@ zero_extendqisi2
1146:Generated_Source\PSoC5/USB_std.c **** }
 2515              		.loc 1 1146 0
 2516 00d4 1846     		mov	r0, r3
 2517 00d6 0837     		adds	r7, r7, #8
ARM GAS  C:\Users\Admin\AppData\Local\Temp\ccqZUt8d.s 			page 67


 2518              		.cfi_def_cfa_offset 8
 2519 00d8 BD46     		mov	sp, r7
 2520              		.cfi_def_cfa_register 13
 2521              		@ sp needed
 2522 00da 80BD     		pop	{r7, pc}
 2523              	.L168:
 2524              		.align	2
 2525              	.L167:
 2526 00dc 00600040 		.word	1073766400
 2527 00e0 00000000 		.word	USB_EP
 2528 00e4 FC5F0040 		.word	1073766396
 2529              		.cfi_endproc
 2530              	.LFE10:
 2531              		.size	USB_SetEndpointHalt, .-USB_SetEndpointHalt
 2532              		.section	.text.USB_ClearEndpointHalt,"ax",%progbits
 2533              		.align	2
 2534              		.global	USB_ClearEndpointHalt
 2535              		.thumb
 2536              		.thumb_func
 2537              		.type	USB_ClearEndpointHalt, %function
 2538              	USB_ClearEndpointHalt:
 2539              	.LFB11:
1147:Generated_Source\PSoC5/USB_std.c **** 
1148:Generated_Source\PSoC5/USB_std.c **** 
1149:Generated_Source\PSoC5/USB_std.c **** /*******************************************************************************
1150:Generated_Source\PSoC5/USB_std.c **** * Function Name: USB_ClearEndpointHalt
1151:Generated_Source\PSoC5/USB_std.c **** ****************************************************************************//**
1152:Generated_Source\PSoC5/USB_std.c **** *
1153:Generated_Source\PSoC5/USB_std.c **** *  This routine handles clear endpoint halt.
1154:Generated_Source\PSoC5/USB_std.c **** *
1155:Generated_Source\PSoC5/USB_std.c **** * \return
1156:Generated_Source\PSoC5/USB_std.c **** *  requestHandled.
1157:Generated_Source\PSoC5/USB_std.c **** *
1158:Generated_Source\PSoC5/USB_std.c **** * \reentrant
1159:Generated_Source\PSoC5/USB_std.c **** *  No.
1160:Generated_Source\PSoC5/USB_std.c **** *
1161:Generated_Source\PSoC5/USB_std.c **** *******************************************************************************/
1162:Generated_Source\PSoC5/USB_std.c **** uint8 USB_ClearEndpointHalt(void) 
1163:Generated_Source\PSoC5/USB_std.c **** {
 2540              		.loc 1 1163 0
 2541              		.cfi_startproc
 2542              		@ args = 0, pretend = 0, frame = 8
 2543              		@ frame_needed = 1, uses_anonymous_args = 0
 2544 0000 80B5     		push	{r7, lr}
 2545              		.cfi_def_cfa_offset 8
 2546              		.cfi_offset 7, -8
 2547              		.cfi_offset 14, -4
 2548 0002 82B0     		sub	sp, sp, #8
 2549              		.cfi_def_cfa_offset 16
 2550 0004 00AF     		add	r7, sp, #0
 2551              		.cfi_def_cfa_register 7
1164:Generated_Source\PSoC5/USB_std.c ****     uint8 requestHandled = USB_FALSE;
 2552              		.loc 1 1164 0
 2553 0006 0023     		movs	r3, #0
 2554 0008 FB71     		strb	r3, [r7, #7]
1165:Generated_Source\PSoC5/USB_std.c ****     uint8 ep;
1166:Generated_Source\PSoC5/USB_std.c **** 
ARM GAS  C:\Users\Admin\AppData\Local\Temp\ccqZUt8d.s 			page 68


1167:Generated_Source\PSoC5/USB_std.c ****     /* Clear endpoint halt */
1168:Generated_Source\PSoC5/USB_std.c ****     ep = USB_wIndexLoReg & USB_DIR_UNUSED;
 2555              		.loc 1 1168 0
 2556 000a 504B     		ldr	r3, .L177
 2557 000c 1B79     		ldrb	r3, [r3, #4]
 2558 000e DBB2     		uxtb	r3, r3
 2559 0010 03F07F03 		and	r3, r3, #127
 2560 0014 BB71     		strb	r3, [r7, #6]
1169:Generated_Source\PSoC5/USB_std.c **** 
1170:Generated_Source\PSoC5/USB_std.c ****     if ((ep > USB_EP0) && (ep < USB_MAX_EP))
 2561              		.loc 1 1170 0
 2562 0016 BB79     		ldrb	r3, [r7, #6]	@ zero_extendqisi2
 2563 0018 002B     		cmp	r3, #0
 2564 001a 00F09280 		beq	.L170
 2565              		.loc 1 1170 0 is_stmt 0 discriminator 1
 2566 001e BB79     		ldrb	r3, [r7, #6]	@ zero_extendqisi2
 2567 0020 082B     		cmp	r3, #8
 2568 0022 00F28E80 		bhi	.L170
1171:Generated_Source\PSoC5/USB_std.c ****     {
1172:Generated_Source\PSoC5/USB_std.c ****         /* Clear the endpoint Halt */
1173:Generated_Source\PSoC5/USB_std.c ****         USB_EP[ep].hwEpState &= (uint8) ~USB_ENDPOINT_STATUS_HALT;
 2569              		.loc 1 1173 0 is_stmt 1
 2570 0026 BA79     		ldrb	r2, [r7, #6]	@ zero_extendqisi2
 2571 0028 B979     		ldrb	r1, [r7, #6]	@ zero_extendqisi2
 2572 002a 4948     		ldr	r0, .L177+4
 2573 002c 0B46     		mov	r3, r1
 2574 002e 5B00     		lsls	r3, r3, #1
 2575 0030 0B44     		add	r3, r3, r1
 2576 0032 9B00     		lsls	r3, r3, #2
 2577 0034 0344     		add	r3, r3, r0
 2578 0036 0233     		adds	r3, r3, #2
 2579 0038 1B78     		ldrb	r3, [r3]
 2580 003a DBB2     		uxtb	r3, r3
 2581 003c 23F00103 		bic	r3, r3, #1
 2582 0040 D8B2     		uxtb	r0, r3
 2583 0042 4349     		ldr	r1, .L177+4
 2584 0044 1346     		mov	r3, r2
 2585 0046 5B00     		lsls	r3, r3, #1
 2586 0048 1344     		add	r3, r3, r2
 2587 004a 9B00     		lsls	r3, r3, #2
 2588 004c 0B44     		add	r3, r3, r1
 2589 004e 0233     		adds	r3, r3, #2
 2590 0050 0246     		mov	r2, r0
 2591 0052 1A70     		strb	r2, [r3]
1174:Generated_Source\PSoC5/USB_std.c **** 
1175:Generated_Source\PSoC5/USB_std.c ****         /* Clear the data toggle */
1176:Generated_Source\PSoC5/USB_std.c ****         USB_EP[ep].epToggle = 0u;
 2592              		.loc 1 1176 0
 2593 0054 BA79     		ldrb	r2, [r7, #6]	@ zero_extendqisi2
 2594 0056 3E49     		ldr	r1, .L177+4
 2595 0058 1346     		mov	r3, r2
 2596 005a 5B00     		lsls	r3, r3, #1
 2597 005c 1344     		add	r3, r3, r2
 2598 005e 9B00     		lsls	r3, r3, #2
 2599 0060 0B44     		add	r3, r3, r1
 2600 0062 0333     		adds	r3, r3, #3
 2601 0064 0022     		movs	r2, #0
ARM GAS  C:\Users\Admin\AppData\Local\Temp\ccqZUt8d.s 			page 69


 2602 0066 1A70     		strb	r2, [r3]
1177:Generated_Source\PSoC5/USB_std.c ****         
1178:Generated_Source\PSoC5/USB_std.c ****         /* Clear toggle bit for already armed packet */
1179:Generated_Source\PSoC5/USB_std.c ****         USB_SIE_EP_BASE.sieEp[ep].epCnt0 &= (uint8) ~(uint8)USB_EPX_CNT_DATA_TOGGLE;
 2603              		.loc 1 1179 0
 2604 0068 3A49     		ldr	r1, .L177+8
 2605 006a BB79     		ldrb	r3, [r7, #6]	@ zero_extendqisi2
 2606 006c 3948     		ldr	r0, .L177+8
 2607 006e BA79     		ldrb	r2, [r7, #6]	@ zero_extendqisi2
 2608 0070 1201     		lsls	r2, r2, #4
 2609 0072 0244     		add	r2, r2, r0
 2610 0074 1278     		ldrb	r2, [r2]
 2611 0076 D2B2     		uxtb	r2, r2
 2612 0078 02F07F02 		and	r2, r2, #127
 2613 007c D2B2     		uxtb	r2, r2
 2614 007e 1B01     		lsls	r3, r3, #4
 2615 0080 0B44     		add	r3, r3, r1
 2616 0082 1A70     		strb	r2, [r3]
1180:Generated_Source\PSoC5/USB_std.c ****         
1181:Generated_Source\PSoC5/USB_std.c ****         /* Return API State as it was defined before */
1182:Generated_Source\PSoC5/USB_std.c ****         USB_EP[ep].apiEpState &= (uint8) ~USB_NO_EVENT_ALLOWED;
 2617              		.loc 1 1182 0
 2618 0084 BA79     		ldrb	r2, [r7, #6]	@ zero_extendqisi2
 2619 0086 B979     		ldrb	r1, [r7, #6]	@ zero_extendqisi2
 2620 0088 3148     		ldr	r0, .L177+4
 2621 008a 0B46     		mov	r3, r1
 2622 008c 5B00     		lsls	r3, r3, #1
 2623 008e 0B44     		add	r3, r3, r1
 2624 0090 9B00     		lsls	r3, r3, #2
 2625 0092 0344     		add	r3, r3, r0
 2626 0094 0133     		adds	r3, r3, #1
 2627 0096 1B78     		ldrb	r3, [r3]
 2628 0098 DBB2     		uxtb	r3, r3
 2629 009a 23F00203 		bic	r3, r3, #2
 2630 009e D8B2     		uxtb	r0, r3
 2631 00a0 2B49     		ldr	r1, .L177+4
 2632 00a2 1346     		mov	r3, r2
 2633 00a4 5B00     		lsls	r3, r3, #1
 2634 00a6 1344     		add	r3, r3, r2
 2635 00a8 9B00     		lsls	r3, r3, #2
 2636 00aa 0B44     		add	r3, r3, r1
 2637 00ac 0133     		adds	r3, r3, #1
 2638 00ae 0246     		mov	r2, r0
 2639 00b0 1A70     		strb	r2, [r3]
1183:Generated_Source\PSoC5/USB_std.c **** 
1184:Generated_Source\PSoC5/USB_std.c ****         if ((USB_EP[ep].addr & USB_DIR_IN) != 0u)
 2640              		.loc 1 1184 0
 2641 00b2 BA79     		ldrb	r2, [r7, #6]	@ zero_extendqisi2
 2642 00b4 2649     		ldr	r1, .L177+4
 2643 00b6 1346     		mov	r3, r2
 2644 00b8 5B00     		lsls	r3, r3, #1
 2645 00ba 1344     		add	r3, r3, r2
 2646 00bc 9B00     		lsls	r3, r3, #2
 2647 00be 0B44     		add	r3, r3, r1
 2648 00c0 0433     		adds	r3, r3, #4
 2649 00c2 1B78     		ldrb	r3, [r3]
 2650 00c4 DBB2     		uxtb	r3, r3
ARM GAS  C:\Users\Admin\AppData\Local\Temp\ccqZUt8d.s 			page 70


 2651 00c6 5BB2     		sxtb	r3, r3
 2652 00c8 002B     		cmp	r3, #0
 2653 00ca 1BDA     		bge	.L171
1185:Generated_Source\PSoC5/USB_std.c ****         {
1186:Generated_Source\PSoC5/USB_std.c ****             /* IN Endpoint */
1187:Generated_Source\PSoC5/USB_std.c ****             if(USB_EP[ep].apiEpState == USB_IN_BUFFER_EMPTY)
 2654              		.loc 1 1187 0
 2655 00cc BA79     		ldrb	r2, [r7, #6]	@ zero_extendqisi2
 2656 00ce 2049     		ldr	r1, .L177+4
 2657 00d0 1346     		mov	r3, r2
 2658 00d2 5B00     		lsls	r3, r3, #1
 2659 00d4 1344     		add	r3, r3, r2
 2660 00d6 9B00     		lsls	r3, r3, #2
 2661 00d8 0B44     		add	r3, r3, r1
 2662 00da 0133     		adds	r3, r3, #1
 2663 00dc 1B78     		ldrb	r3, [r3]
 2664 00de DBB2     		uxtb	r3, r3
 2665 00e0 012B     		cmp	r3, #1
 2666 00e2 07D1     		bne	.L172
1188:Generated_Source\PSoC5/USB_std.c ****             {       
1189:Generated_Source\PSoC5/USB_std.c ****                 /* Wait for next packet from application */
1190:Generated_Source\PSoC5/USB_std.c ****                 USB_SIE_EP_BASE.sieEp[ep].epCr0 = USB_MODE_NAK_IN;
 2667              		.loc 1 1190 0
 2668 00e4 1B4A     		ldr	r2, .L177+8
 2669 00e6 BB79     		ldrb	r3, [r7, #6]	@ zero_extendqisi2
 2670 00e8 1B01     		lsls	r3, r3, #4
 2671 00ea 1344     		add	r3, r3, r2
 2672 00ec 0233     		adds	r3, r3, #2
 2673 00ee 0C22     		movs	r2, #12
 2674 00f0 1A70     		strb	r2, [r3]
 2675 00f2 22E0     		b	.L174
 2676              	.L172:
1191:Generated_Source\PSoC5/USB_std.c ****             }
1192:Generated_Source\PSoC5/USB_std.c ****             else    /* Continue armed transfer */
1193:Generated_Source\PSoC5/USB_std.c ****             {
1194:Generated_Source\PSoC5/USB_std.c ****                 USB_SIE_EP_BASE.sieEp[ep].epCr0 = USB_MODE_ACK_IN;
 2677              		.loc 1 1194 0
 2678 00f4 174A     		ldr	r2, .L177+8
 2679 00f6 BB79     		ldrb	r3, [r7, #6]	@ zero_extendqisi2
 2680 00f8 1B01     		lsls	r3, r3, #4
 2681 00fa 1344     		add	r3, r3, r2
 2682 00fc 0233     		adds	r3, r3, #2
 2683 00fe 0D22     		movs	r2, #13
 2684 0100 1A70     		strb	r2, [r3]
 2685 0102 1AE0     		b	.L174
 2686              	.L171:
1195:Generated_Source\PSoC5/USB_std.c ****             }
1196:Generated_Source\PSoC5/USB_std.c ****         }
1197:Generated_Source\PSoC5/USB_std.c ****         else
1198:Generated_Source\PSoC5/USB_std.c ****         {
1199:Generated_Source\PSoC5/USB_std.c ****             /* OUT Endpoint */
1200:Generated_Source\PSoC5/USB_std.c ****             if (USB_EP[ep].apiEpState == USB_OUT_BUFFER_FULL)
 2687              		.loc 1 1200 0
 2688 0104 BA79     		ldrb	r2, [r7, #6]	@ zero_extendqisi2
 2689 0106 1249     		ldr	r1, .L177+4
 2690 0108 1346     		mov	r3, r2
 2691 010a 5B00     		lsls	r3, r3, #1
ARM GAS  C:\Users\Admin\AppData\Local\Temp\ccqZUt8d.s 			page 71


 2692 010c 1344     		add	r3, r3, r2
 2693 010e 9B00     		lsls	r3, r3, #2
 2694 0110 0B44     		add	r3, r3, r1
 2695 0112 0133     		adds	r3, r3, #1
 2696 0114 1B78     		ldrb	r3, [r3]
 2697 0116 DBB2     		uxtb	r3, r3
 2698 0118 012B     		cmp	r3, #1
 2699 011a 07D1     		bne	.L175
1201:Generated_Source\PSoC5/USB_std.c ****             {       
1202:Generated_Source\PSoC5/USB_std.c ****                 /* Allow application to read full buffer */
1203:Generated_Source\PSoC5/USB_std.c ****                 USB_SIE_EP_BASE.sieEp[ep].epCr0 = USB_MODE_NAK_OUT;
 2700              		.loc 1 1203 0
 2701 011c 0D4A     		ldr	r2, .L177+8
 2702 011e BB79     		ldrb	r3, [r7, #6]	@ zero_extendqisi2
 2703 0120 1B01     		lsls	r3, r3, #4
 2704 0122 1344     		add	r3, r3, r2
 2705 0124 0233     		adds	r3, r3, #2
 2706 0126 0822     		movs	r2, #8
 2707 0128 1A70     		strb	r2, [r3]
 2708 012a 06E0     		b	.L174
 2709              	.L175:
1204:Generated_Source\PSoC5/USB_std.c ****             }
1205:Generated_Source\PSoC5/USB_std.c ****             else    /* Mark endpoint as empty, so it will be reloaded */
1206:Generated_Source\PSoC5/USB_std.c ****             {
1207:Generated_Source\PSoC5/USB_std.c ****                 USB_SIE_EP_BASE.sieEp[ep].epCr0 = USB_MODE_ACK_OUT;
 2710              		.loc 1 1207 0
 2711 012c 094A     		ldr	r2, .L177+8
 2712 012e BB79     		ldrb	r3, [r7, #6]	@ zero_extendqisi2
 2713 0130 1B01     		lsls	r3, r3, #4
 2714 0132 1344     		add	r3, r3, r2
 2715 0134 0233     		adds	r3, r3, #2
 2716 0136 0922     		movs	r2, #9
 2717 0138 1A70     		strb	r2, [r3]
 2718              	.L174:
1208:Generated_Source\PSoC5/USB_std.c ****             }
1209:Generated_Source\PSoC5/USB_std.c ****         }
1210:Generated_Source\PSoC5/USB_std.c ****         
1211:Generated_Source\PSoC5/USB_std.c ****         requestHandled = USB_InitNoDataControlTransfer();
 2719              		.loc 1 1211 0
 2720 013a FFF7FEFF 		bl	USB_InitNoDataControlTransfer
 2721 013e 0346     		mov	r3, r0
 2722 0140 FB71     		strb	r3, [r7, #7]
 2723              	.L170:
1212:Generated_Source\PSoC5/USB_std.c ****     }
1213:Generated_Source\PSoC5/USB_std.c **** 
1214:Generated_Source\PSoC5/USB_std.c ****     return(requestHandled);
 2724              		.loc 1 1214 0
 2725 0142 FB79     		ldrb	r3, [r7, #7]	@ zero_extendqisi2
1215:Generated_Source\PSoC5/USB_std.c **** }
 2726              		.loc 1 1215 0
 2727 0144 1846     		mov	r0, r3
 2728 0146 0837     		adds	r7, r7, #8
 2729              		.cfi_def_cfa_offset 8
 2730 0148 BD46     		mov	sp, r7
 2731              		.cfi_def_cfa_register 13
 2732              		@ sp needed
 2733 014a 80BD     		pop	{r7, pc}
ARM GAS  C:\Users\Admin\AppData\Local\Temp\ccqZUt8d.s 			page 72


 2734              	.L178:
 2735              		.align	2
 2736              	.L177:
 2737 014c 00600040 		.word	1073766400
 2738 0150 00000000 		.word	USB_EP
 2739 0154 FC5F0040 		.word	1073766396
 2740              		.cfi_endproc
 2741              	.LFE11:
 2742              		.size	USB_ClearEndpointHalt, .-USB_ClearEndpointHalt
 2743              		.section	.text.USB_ValidateAlternateSetting,"ax",%progbits
 2744              		.align	2
 2745              		.global	USB_ValidateAlternateSetting
 2746              		.thumb
 2747              		.thumb_func
 2748              		.type	USB_ValidateAlternateSetting, %function
 2749              	USB_ValidateAlternateSetting:
 2750              	.LFB12:
1216:Generated_Source\PSoC5/USB_std.c **** 
1217:Generated_Source\PSoC5/USB_std.c **** 
1218:Generated_Source\PSoC5/USB_std.c **** /*******************************************************************************
1219:Generated_Source\PSoC5/USB_std.c **** * Function Name: USB_ValidateAlternateSetting
1220:Generated_Source\PSoC5/USB_std.c **** ****************************************************************************//**
1221:Generated_Source\PSoC5/USB_std.c **** *
1222:Generated_Source\PSoC5/USB_std.c **** *  Validates (and records) a SET INTERFACE request.
1223:Generated_Source\PSoC5/USB_std.c **** *
1224:Generated_Source\PSoC5/USB_std.c **** * \return
1225:Generated_Source\PSoC5/USB_std.c **** *  requestHandled.
1226:Generated_Source\PSoC5/USB_std.c **** *
1227:Generated_Source\PSoC5/USB_std.c **** * \reentrant
1228:Generated_Source\PSoC5/USB_std.c **** *  No.
1229:Generated_Source\PSoC5/USB_std.c **** *
1230:Generated_Source\PSoC5/USB_std.c **** *******************************************************************************/
1231:Generated_Source\PSoC5/USB_std.c **** uint8 USB_ValidateAlternateSetting(void) 
1232:Generated_Source\PSoC5/USB_std.c **** {
 2751              		.loc 1 1232 0
 2752              		.cfi_startproc
 2753              		@ args = 0, pretend = 0, frame = 16
 2754              		@ frame_needed = 1, uses_anonymous_args = 0
 2755 0000 80B5     		push	{r7, lr}
 2756              		.cfi_def_cfa_offset 8
 2757              		.cfi_offset 7, -8
 2758              		.cfi_offset 14, -4
 2759 0002 84B0     		sub	sp, sp, #16
 2760              		.cfi_def_cfa_offset 24
 2761 0004 00AF     		add	r7, sp, #0
 2762              		.cfi_def_cfa_register 7
1233:Generated_Source\PSoC5/USB_std.c ****     uint8 requestHandled = USB_FALSE;
 2763              		.loc 1 1233 0
 2764 0006 0023     		movs	r3, #0
 2765 0008 FB73     		strb	r3, [r7, #15]
1234:Generated_Source\PSoC5/USB_std.c ****     
1235:Generated_Source\PSoC5/USB_std.c ****     uint8 interfaceNum;
1236:Generated_Source\PSoC5/USB_std.c ****     uint8 curInterfacesNum;
1237:Generated_Source\PSoC5/USB_std.c ****     const T_USB_LUT CYCODE *pTmp;
1238:Generated_Source\PSoC5/USB_std.c ****     
1239:Generated_Source\PSoC5/USB_std.c ****     /* Get interface number from the request. */
1240:Generated_Source\PSoC5/USB_std.c ****     interfaceNum = (uint8) USB_wIndexLoReg;
ARM GAS  C:\Users\Admin\AppData\Local\Temp\ccqZUt8d.s 			page 73


 2766              		.loc 1 1240 0
 2767 000a 154B     		ldr	r3, .L183
 2768 000c 1B79     		ldrb	r3, [r3, #4]
 2769 000e BB73     		strb	r3, [r7, #14]
1241:Generated_Source\PSoC5/USB_std.c ****     
1242:Generated_Source\PSoC5/USB_std.c ****     /* Get number of interfaces for current configuration. */
1243:Generated_Source\PSoC5/USB_std.c ****     pTmp = USB_GetConfigTablePtr(USB_configuration - 1u);
 2770              		.loc 1 1243 0
 2771 0010 144B     		ldr	r3, .L183+4
 2772 0012 1B78     		ldrb	r3, [r3]
 2773 0014 DBB2     		uxtb	r3, r3
 2774 0016 013B     		subs	r3, r3, #1
 2775 0018 DBB2     		uxtb	r3, r3
 2776 001a 1846     		mov	r0, r3
 2777 001c FFF7FEFF 		bl	USB_GetConfigTablePtr
 2778 0020 B860     		str	r0, [r7, #8]
1244:Generated_Source\PSoC5/USB_std.c ****     curInterfacesNum  = ((const uint8 *) pTmp->p_list)[USB_CONFIG_DESCR_NUM_INTERFACES];
 2779              		.loc 1 1244 0
 2780 0022 BB68     		ldr	r3, [r7, #8]
 2781 0024 5B68     		ldr	r3, [r3, #4]
 2782 0026 1B79     		ldrb	r3, [r3, #4]
 2783 0028 FB71     		strb	r3, [r7, #7]
1245:Generated_Source\PSoC5/USB_std.c **** 
1246:Generated_Source\PSoC5/USB_std.c ****     /* Validate that interface number is within range. */
1247:Generated_Source\PSoC5/USB_std.c ****     if ((interfaceNum <= curInterfacesNum) || (interfaceNum <= USB_MAX_INTERFACES_NUMBER))
 2784              		.loc 1 1247 0
 2785 002a BA7B     		ldrb	r2, [r7, #14]	@ zero_extendqisi2
 2786 002c FB79     		ldrb	r3, [r7, #7]	@ zero_extendqisi2
 2787 002e 9A42     		cmp	r2, r3
 2788 0030 02D9     		bls	.L180
 2789              		.loc 1 1247 0 is_stmt 0 discriminator 1
 2790 0032 BB7B     		ldrb	r3, [r7, #14]	@ zero_extendqisi2
 2791 0034 022B     		cmp	r3, #2
 2792 0036 0ED8     		bhi	.L181
 2793              	.L180:
1248:Generated_Source\PSoC5/USB_std.c ****     {
1249:Generated_Source\PSoC5/USB_std.c ****         /* Save current and new alternate settings (come with request) to make 
1250:Generated_Source\PSoC5/USB_std.c ****         * desicion about following endpoint re-configuration.
1251:Generated_Source\PSoC5/USB_std.c ****         */
1252:Generated_Source\PSoC5/USB_std.c ****         USB_interfaceSettingLast[interfaceNum] = USB_interfaceSetting[interfaceNum];
 2794              		.loc 1 1252 0 is_stmt 1
 2795 0038 BB7B     		ldrb	r3, [r7, #14]	@ zero_extendqisi2
 2796 003a BA7B     		ldrb	r2, [r7, #14]	@ zero_extendqisi2
 2797 003c 0A49     		ldr	r1, .L183+8
 2798 003e 8A5C     		ldrb	r2, [r1, r2]
 2799 0040 D1B2     		uxtb	r1, r2
 2800 0042 0A4A     		ldr	r2, .L183+12
 2801 0044 D154     		strb	r1, [r2, r3]
1253:Generated_Source\PSoC5/USB_std.c ****         USB_interfaceSetting[interfaceNum]     = (uint8) USB_wValueLoReg;
 2802              		.loc 1 1253 0
 2803 0046 BB7B     		ldrb	r3, [r7, #14]	@ zero_extendqisi2
 2804 0048 054A     		ldr	r2, .L183
 2805 004a 9278     		ldrb	r2, [r2, #2]
 2806 004c D1B2     		uxtb	r1, r2
 2807 004e 064A     		ldr	r2, .L183+8
 2808 0050 D154     		strb	r1, [r2, r3]
1254:Generated_Source\PSoC5/USB_std.c ****         
ARM GAS  C:\Users\Admin\AppData\Local\Temp\ccqZUt8d.s 			page 74


1255:Generated_Source\PSoC5/USB_std.c ****         requestHandled = USB_TRUE;
 2809              		.loc 1 1255 0
 2810 0052 0123     		movs	r3, #1
 2811 0054 FB73     		strb	r3, [r7, #15]
 2812              	.L181:
1256:Generated_Source\PSoC5/USB_std.c ****     }
1257:Generated_Source\PSoC5/USB_std.c **** 
1258:Generated_Source\PSoC5/USB_std.c ****     return (requestHandled);
 2813              		.loc 1 1258 0
 2814 0056 FB7B     		ldrb	r3, [r7, #15]	@ zero_extendqisi2
1259:Generated_Source\PSoC5/USB_std.c **** }
 2815              		.loc 1 1259 0
 2816 0058 1846     		mov	r0, r3
 2817 005a 1037     		adds	r7, r7, #16
 2818              		.cfi_def_cfa_offset 8
 2819 005c BD46     		mov	sp, r7
 2820              		.cfi_def_cfa_register 13
 2821              		@ sp needed
 2822 005e 80BD     		pop	{r7, pc}
 2823              	.L184:
 2824              		.align	2
 2825              	.L183:
 2826 0060 00600040 		.word	1073766400
 2827 0064 00000000 		.word	USB_configuration
 2828 0068 00000000 		.word	USB_interfaceSetting
 2829 006c 00000000 		.word	USB_interfaceSettingLast
 2830              		.cfi_endproc
 2831              	.LFE12:
 2832              		.size	USB_ValidateAlternateSetting, .-USB_ValidateAlternateSetting
 2833              		.bss
 2834              		.align	2
 2835              	USB_tBuffer.5262:
 2836 0000 0000     		.space	2
 2837              		.text
 2838              	.Letext0:
 2839              		.file 2 "Generated_Source\\PSoC5\\cytypes.h"
 2840              		.file 3 "Generated_Source\\PSoC5\\USB.h"
 2841              		.file 4 "Generated_Source\\PSoC5\\USB_pvt.h"
 2842              		.section	.debug_info,"",%progbits
 2843              	.Ldebug_info0:
 2844 0000 5D090000 		.4byte	0x95d
 2845 0004 0400     		.2byte	0x4
 2846 0006 00000000 		.4byte	.Ldebug_abbrev0
 2847 000a 04       		.byte	0x4
 2848 000b 01       		.uleb128 0x1
 2849 000c 4B000000 		.4byte	.LASF114
 2850 0010 0C       		.byte	0xc
 2851 0011 7C050000 		.4byte	.LASF115
 2852 0015 D3040000 		.4byte	.LASF116
 2853 0019 00000000 		.4byte	.Ldebug_ranges0+0
 2854 001d 00000000 		.4byte	0
 2855 0021 00000000 		.4byte	.Ldebug_line0
 2856 0025 02       		.uleb128 0x2
 2857 0026 01       		.byte	0x1
 2858 0027 06       		.byte	0x6
 2859 0028 81010000 		.4byte	.LASF0
 2860 002c 02       		.uleb128 0x2
ARM GAS  C:\Users\Admin\AppData\Local\Temp\ccqZUt8d.s 			page 75


 2861 002d 01       		.byte	0x1
 2862 002e 08       		.byte	0x8
 2863 002f 98040000 		.4byte	.LASF1
 2864 0033 02       		.uleb128 0x2
 2865 0034 02       		.byte	0x2
 2866 0035 05       		.byte	0x5
 2867 0036 C9040000 		.4byte	.LASF2
 2868 003a 02       		.uleb128 0x2
 2869 003b 02       		.byte	0x2
 2870 003c 07       		.byte	0x7
 2871 003d D7020000 		.4byte	.LASF3
 2872 0041 02       		.uleb128 0x2
 2873 0042 04       		.byte	0x4
 2874 0043 05       		.byte	0x5
 2875 0044 DC010000 		.4byte	.LASF4
 2876 0048 02       		.uleb128 0x2
 2877 0049 04       		.byte	0x4
 2878 004a 07       		.byte	0x7
 2879 004b 8D010000 		.4byte	.LASF5
 2880 004f 02       		.uleb128 0x2
 2881 0050 08       		.byte	0x8
 2882 0051 05       		.byte	0x5
 2883 0052 73010000 		.4byte	.LASF6
 2884 0056 02       		.uleb128 0x2
 2885 0057 08       		.byte	0x8
 2886 0058 07       		.byte	0x7
 2887 0059 FD000000 		.4byte	.LASF7
 2888 005d 03       		.uleb128 0x3
 2889 005e 04       		.byte	0x4
 2890 005f 05       		.byte	0x5
 2891 0060 696E7400 		.ascii	"int\000"
 2892 0064 02       		.uleb128 0x2
 2893 0065 04       		.byte	0x4
 2894 0066 07       		.byte	0x7
 2895 0067 B3020000 		.4byte	.LASF8
 2896 006b 04       		.uleb128 0x4
 2897 006c 04020000 		.4byte	.LASF9
 2898 0070 02       		.byte	0x2
 2899 0071 E401     		.2byte	0x1e4
 2900 0073 2C000000 		.4byte	0x2c
 2901 0077 04       		.uleb128 0x4
 2902 0078 2B000000 		.4byte	.LASF10
 2903 007c 02       		.byte	0x2
 2904 007d E501     		.2byte	0x1e5
 2905 007f 3A000000 		.4byte	0x3a
 2906 0083 04       		.uleb128 0x4
 2907 0084 22020000 		.4byte	.LASF11
 2908 0088 02       		.byte	0x2
 2909 0089 E601     		.2byte	0x1e6
 2910 008b 48000000 		.4byte	0x48
 2911 008f 02       		.uleb128 0x2
 2912 0090 04       		.byte	0x4
 2913 0091 04       		.byte	0x4
 2914 0092 34040000 		.4byte	.LASF12
 2915 0096 02       		.uleb128 0x2
 2916 0097 08       		.byte	0x8
 2917 0098 04       		.byte	0x4
ARM GAS  C:\Users\Admin\AppData\Local\Temp\ccqZUt8d.s 			page 76


 2918 0099 BF050000 		.4byte	.LASF13
 2919 009d 04       		.uleb128 0x4
 2920 009e 27060000 		.4byte	.LASF14
 2921 00a2 02       		.byte	0x2
 2922 00a3 F501     		.2byte	0x1f5
 2923 00a5 A9000000 		.4byte	0xa9
 2924 00a9 02       		.uleb128 0x2
 2925 00aa 01       		.byte	0x1
 2926 00ab 08       		.byte	0x8
 2927 00ac F1050000 		.4byte	.LASF15
 2928 00b0 04       		.uleb128 0x4
 2929 00b1 8D040000 		.4byte	.LASF16
 2930 00b5 02       		.byte	0x2
 2931 00b6 8E02     		.2byte	0x28e
 2932 00b8 BC000000 		.4byte	0xbc
 2933 00bc 05       		.uleb128 0x5
 2934 00bd 6B000000 		.4byte	0x6b
 2935 00c1 02       		.uleb128 0x2
 2936 00c2 08       		.byte	0x8
 2937 00c3 04       		.byte	0x4
 2938 00c4 DA050000 		.4byte	.LASF17
 2939 00c8 02       		.uleb128 0x2
 2940 00c9 04       		.byte	0x4
 2941 00ca 07       		.byte	0x7
 2942 00cb 80030000 		.4byte	.LASF18
 2943 00cf 06       		.uleb128 0x6
 2944 00d0 0C       		.byte	0xc
 2945 00d1 03       		.byte	0x3
 2946 00d2 91       		.byte	0x91
 2947 00d3 44010000 		.4byte	0x144
 2948 00d7 07       		.uleb128 0x7
 2949 00d8 CD030000 		.4byte	.LASF19
 2950 00dc 03       		.byte	0x3
 2951 00dd 93       		.byte	0x93
 2952 00de 6B000000 		.4byte	0x6b
 2953 00e2 00       		.byte	0
 2954 00e3 07       		.uleb128 0x7
 2955 00e4 3A040000 		.4byte	.LASF20
 2956 00e8 03       		.byte	0x3
 2957 00e9 94       		.byte	0x94
 2958 00ea 6B000000 		.4byte	0x6b
 2959 00ee 01       		.byte	0x1
 2960 00ef 07       		.uleb128 0x7
 2961 00f0 13020000 		.4byte	.LASF21
 2962 00f4 03       		.byte	0x3
 2963 00f5 95       		.byte	0x95
 2964 00f6 6B000000 		.4byte	0x6b
 2965 00fa 02       		.byte	0x2
 2966 00fb 07       		.uleb128 0x7
 2967 00fc 0A020000 		.4byte	.LASF22
 2968 0100 03       		.byte	0x3
 2969 0101 96       		.byte	0x96
 2970 0102 6B000000 		.4byte	0x6b
 2971 0106 03       		.byte	0x3
 2972 0107 07       		.uleb128 0x7
 2973 0108 14010000 		.4byte	.LASF23
 2974 010c 03       		.byte	0x3
ARM GAS  C:\Users\Admin\AppData\Local\Temp\ccqZUt8d.s 			page 77


 2975 010d 97       		.byte	0x97
 2976 010e 6B000000 		.4byte	0x6b
 2977 0112 04       		.byte	0x4
 2978 0113 07       		.uleb128 0x7
 2979 0114 55020000 		.4byte	.LASF24
 2980 0118 03       		.byte	0x3
 2981 0119 98       		.byte	0x98
 2982 011a 6B000000 		.4byte	0x6b
 2983 011e 05       		.byte	0x5
 2984 011f 07       		.uleb128 0x7
 2985 0120 1C060000 		.4byte	.LASF25
 2986 0124 03       		.byte	0x3
 2987 0125 99       		.byte	0x99
 2988 0126 77000000 		.4byte	0x77
 2989 012a 06       		.byte	0x6
 2990 012b 07       		.uleb128 0x7
 2991 012c 02060000 		.4byte	.LASF26
 2992 0130 03       		.byte	0x3
 2993 0131 9A       		.byte	0x9a
 2994 0132 77000000 		.4byte	0x77
 2995 0136 08       		.byte	0x8
 2996 0137 07       		.uleb128 0x7
 2997 0138 23030000 		.4byte	.LASF27
 2998 013c 03       		.byte	0x3
 2999 013d 9B       		.byte	0x9b
 3000 013e 6B000000 		.4byte	0x6b
 3001 0142 0A       		.byte	0xa
 3002 0143 00       		.byte	0
 3003 0144 08       		.uleb128 0x8
 3004 0145 A0020000 		.4byte	.LASF28
 3005 0149 03       		.byte	0x3
 3006 014a 9C       		.byte	0x9c
 3007 014b CF000000 		.4byte	0xcf
 3008 014f 06       		.uleb128 0x6
 3009 0150 08       		.byte	0x8
 3010 0151 03       		.byte	0x3
 3011 0152 9E       		.byte	0x9e
 3012 0153 A0010000 		.4byte	0x1a0
 3013 0157 07       		.uleb128 0x7
 3014 0158 23030000 		.4byte	.LASF27
 3015 015c 03       		.byte	0x3
 3016 015d A0       		.byte	0xa0
 3017 015e 6B000000 		.4byte	0x6b
 3018 0162 00       		.byte	0
 3019 0163 07       		.uleb128 0x7
 3020 0164 E6050000 		.4byte	.LASF29
 3021 0168 03       		.byte	0x3
 3022 0169 A1       		.byte	0xa1
 3023 016a 6B000000 		.4byte	0x6b
 3024 016e 01       		.byte	0x1
 3025 016f 07       		.uleb128 0x7
 3026 0170 14010000 		.4byte	.LASF23
 3027 0174 03       		.byte	0x3
 3028 0175 A2       		.byte	0xa2
 3029 0176 6B000000 		.4byte	0x6b
 3030 017a 02       		.byte	0x2
 3031 017b 07       		.uleb128 0x7
ARM GAS  C:\Users\Admin\AppData\Local\Temp\ccqZUt8d.s 			page 78


 3032 017c B4050000 		.4byte	.LASF30
 3033 0180 03       		.byte	0x3
 3034 0181 A3       		.byte	0xa3
 3035 0182 6B000000 		.4byte	0x6b
 3036 0186 03       		.byte	0x3
 3037 0187 07       		.uleb128 0x7
 3038 0188 02060000 		.4byte	.LASF26
 3039 018c 03       		.byte	0x3
 3040 018d A4       		.byte	0xa4
 3041 018e 77000000 		.4byte	0x77
 3042 0192 04       		.byte	0x4
 3043 0193 07       		.uleb128 0x7
 3044 0194 A1060000 		.4byte	.LASF31
 3045 0198 03       		.byte	0x3
 3046 0199 A5       		.byte	0xa5
 3047 019a 6B000000 		.4byte	0x6b
 3048 019e 06       		.byte	0x6
 3049 019f 00       		.byte	0
 3050 01a0 08       		.uleb128 0x8
 3051 01a1 0D000000 		.4byte	.LASF32
 3052 01a5 03       		.byte	0x3
 3053 01a6 A6       		.byte	0xa6
 3054 01a7 4F010000 		.4byte	0x14f
 3055 01ab 06       		.uleb128 0x6
 3056 01ac 04       		.byte	0x4
 3057 01ad 03       		.byte	0x3
 3058 01ae A8       		.byte	0xa8
 3059 01af CC010000 		.4byte	0x1cc
 3060 01b3 07       		.uleb128 0x7
 3061 01b4 6B060000 		.4byte	.LASF33
 3062 01b8 03       		.byte	0x3
 3063 01b9 AA       		.byte	0xaa
 3064 01ba 6B000000 		.4byte	0x6b
 3065 01be 00       		.byte	0
 3066 01bf 07       		.uleb128 0x7
 3067 01c0 BB060000 		.4byte	.LASF34
 3068 01c4 03       		.byte	0x3
 3069 01c5 AB       		.byte	0xab
 3070 01c6 77000000 		.4byte	0x77
 3071 01ca 02       		.byte	0x2
 3072 01cb 00       		.byte	0
 3073 01cc 08       		.uleb128 0x8
 3074 01cd 88020000 		.4byte	.LASF35
 3075 01d1 03       		.byte	0x3
 3076 01d2 AC       		.byte	0xac
 3077 01d3 AB010000 		.4byte	0x1ab
 3078 01d7 06       		.uleb128 0x6
 3079 01d8 0C       		.byte	0xc
 3080 01d9 03       		.byte	0x3
 3081 01da AE       		.byte	0xae
 3082 01db 04020000 		.4byte	0x204
 3083 01df 07       		.uleb128 0x7
 3084 01e0 25000000 		.4byte	.LASF36
 3085 01e4 03       		.byte	0x3
 3086 01e5 B0       		.byte	0xb0
 3087 01e6 77000000 		.4byte	0x77
 3088 01ea 00       		.byte	0
ARM GAS  C:\Users\Admin\AppData\Local\Temp\ccqZUt8d.s 			page 79


 3089 01eb 07       		.uleb128 0x7
 3090 01ec 29020000 		.4byte	.LASF37
 3091 01f0 03       		.byte	0x3
 3092 01f1 B1       		.byte	0xb1
 3093 01f2 04020000 		.4byte	0x204
 3094 01f6 04       		.byte	0x4
 3095 01f7 07       		.uleb128 0x7
 3096 01f8 00000000 		.4byte	.LASF38
 3097 01fc 03       		.byte	0x3
 3098 01fd B2       		.byte	0xb2
 3099 01fe 0A020000 		.4byte	0x20a
 3100 0202 08       		.byte	0x8
 3101 0203 00       		.byte	0
 3102 0204 09       		.uleb128 0x9
 3103 0205 04       		.byte	0x4
 3104 0206 BC000000 		.4byte	0xbc
 3105 020a 09       		.uleb128 0x9
 3106 020b 04       		.byte	0x4
 3107 020c CC010000 		.4byte	0x1cc
 3108 0210 08       		.uleb128 0x8
 3109 0211 2F020000 		.4byte	.LASF39
 3110 0215 03       		.byte	0x3
 3111 0216 B3       		.byte	0xb3
 3112 0217 D7010000 		.4byte	0x1d7
 3113 021b 06       		.uleb128 0x6
 3114 021c 08       		.byte	0x8
 3115 021d 03       		.byte	0x3
 3116 021e B5       		.byte	0xb5
 3117 021f 3A020000 		.4byte	0x23a
 3118 0223 0A       		.uleb128 0xa
 3119 0224 6300     		.ascii	"c\000"
 3120 0226 03       		.byte	0x3
 3121 0227 B7       		.byte	0xb7
 3122 0228 6B000000 		.4byte	0x6b
 3123 022c 00       		.byte	0
 3124 022d 07       		.uleb128 0x7
 3125 022e BC030000 		.4byte	.LASF40
 3126 0232 03       		.byte	0x3
 3127 0233 B8       		.byte	0xb8
 3128 0234 3A020000 		.4byte	0x23a
 3129 0238 04       		.byte	0x4
 3130 0239 00       		.byte	0
 3131 023a 09       		.uleb128 0x9
 3132 023b 04       		.byte	0x4
 3133 023c 40020000 		.4byte	0x240
 3134 0240 0B       		.uleb128 0xb
 3135 0241 08       		.uleb128 0x8
 3136 0242 D2010000 		.4byte	.LASF41
 3137 0246 03       		.byte	0x3
 3138 0247 B9       		.byte	0xb9
 3139 0248 1B020000 		.4byte	0x21b
 3140 024c 06       		.uleb128 0x6
 3141 024d 08       		.byte	0x8
 3142 024e 03       		.byte	0x3
 3143 024f C9       		.byte	0xc9
 3144 0250 61020000 		.4byte	0x261
 3145 0254 07       		.uleb128 0x7
ARM GAS  C:\Users\Admin\AppData\Local\Temp\ccqZUt8d.s 			page 80


 3146 0255 9A060000 		.4byte	.LASF42
 3147 0259 03       		.byte	0x3
 3148 025a CB       		.byte	0xcb
 3149 025b 61020000 		.4byte	0x261
 3150 025f 00       		.byte	0
 3151 0260 00       		.byte	0
 3152 0261 0C       		.uleb128 0xc
 3153 0262 6B000000 		.4byte	0x6b
 3154 0266 71020000 		.4byte	0x271
 3155 026a 0D       		.uleb128 0xd
 3156 026b C8000000 		.4byte	0xc8
 3157 026f 07       		.byte	0x7
 3158 0270 00       		.byte	0
 3159 0271 08       		.uleb128 0x8
 3160 0272 A7060000 		.4byte	.LASF43
 3161 0276 03       		.byte	0x3
 3162 0277 CC       		.byte	0xcc
 3163 0278 4C020000 		.4byte	0x24c
 3164 027c 06       		.uleb128 0x6
 3165 027d 10       		.byte	0x10
 3166 027e 03       		.byte	0x3
 3167 027f D8       		.byte	0xd8
 3168 0280 B5020000 		.4byte	0x2b5
 3169 0284 07       		.uleb128 0x7
 3170 0285 44000000 		.4byte	.LASF44
 3171 0289 03       		.byte	0x3
 3172 028a DA       		.byte	0xda
 3173 028b 6B000000 		.4byte	0x6b
 3174 028f 00       		.byte	0
 3175 0290 07       		.uleb128 0x7
 3176 0291 0A040000 		.4byte	.LASF45
 3177 0295 03       		.byte	0x3
 3178 0296 DB       		.byte	0xdb
 3179 0297 6B000000 		.4byte	0x6b
 3180 029b 01       		.byte	0x1
 3181 029c 07       		.uleb128 0x7
 3182 029d 18040000 		.4byte	.LASF46
 3183 02a1 03       		.byte	0x3
 3184 02a2 DC       		.byte	0xdc
 3185 02a3 6B000000 		.4byte	0x6b
 3186 02a7 02       		.byte	0x2
 3187 02a8 0A       		.uleb128 0xa
 3188 02a9 67617000 		.ascii	"gap\000"
 3189 02ad 03       		.byte	0x3
 3190 02ae DD       		.byte	0xdd
 3191 02af B5020000 		.4byte	0x2b5
 3192 02b3 03       		.byte	0x3
 3193 02b4 00       		.byte	0
 3194 02b5 0C       		.uleb128 0xc
 3195 02b6 6B000000 		.4byte	0x6b
 3196 02ba C5020000 		.4byte	0x2c5
 3197 02be 0D       		.uleb128 0xd
 3198 02bf C8000000 		.4byte	0xc8
 3199 02c3 0C       		.byte	0xc
 3200 02c4 00       		.byte	0
 3201 02c5 08       		.uleb128 0x8
 3202 02c6 59060000 		.4byte	.LASF47
ARM GAS  C:\Users\Admin\AppData\Local\Temp\ccqZUt8d.s 			page 81


 3203 02ca 03       		.byte	0x3
 3204 02cb DE       		.byte	0xde
 3205 02cc 7C020000 		.4byte	0x27c
 3206 02d0 06       		.uleb128 0x6
 3207 02d1 10       		.byte	0x10
 3208 02d2 03       		.byte	0x3
 3209 02d3 EA       		.byte	0xea
 3210 02d4 51030000 		.4byte	0x351
 3211 02d8 07       		.uleb128 0x7
 3212 02d9 F1020000 		.4byte	.LASF48
 3213 02dd 03       		.byte	0x3
 3214 02de EC       		.byte	0xec
 3215 02df 6B000000 		.4byte	0x6b
 3216 02e3 00       		.byte	0
 3217 02e4 07       		.uleb128 0x7
 3218 02e5 C2060000 		.4byte	.LASF49
 3219 02e9 03       		.byte	0x3
 3220 02ea ED       		.byte	0xed
 3221 02eb 6B000000 		.4byte	0x6b
 3222 02ef 01       		.byte	0x1
 3223 02f0 07       		.uleb128 0x7
 3224 02f1 1D020000 		.4byte	.LASF50
 3225 02f5 03       		.byte	0x3
 3226 02f6 EE       		.byte	0xee
 3227 02f7 6B000000 		.4byte	0x6b
 3228 02fb 02       		.byte	0x2
 3229 02fc 07       		.uleb128 0x7
 3230 02fd 71020000 		.4byte	.LASF51
 3231 0301 03       		.byte	0x3
 3232 0302 EF       		.byte	0xef
 3233 0303 6B000000 		.4byte	0x6b
 3234 0307 03       		.byte	0x3
 3235 0308 07       		.uleb128 0x7
 3236 0309 D2020000 		.4byte	.LASF52
 3237 030d 03       		.byte	0x3
 3238 030e F0       		.byte	0xf0
 3239 030f 6B000000 		.4byte	0x6b
 3240 0313 04       		.byte	0x4
 3241 0314 07       		.uleb128 0x7
 3242 0315 74050000 		.4byte	.LASF53
 3243 0319 03       		.byte	0x3
 3244 031a F1       		.byte	0xf1
 3245 031b 6B000000 		.4byte	0x6b
 3246 031f 05       		.byte	0x5
 3247 0320 07       		.uleb128 0x7
 3248 0321 6F050000 		.4byte	.LASF54
 3249 0325 03       		.byte	0x3
 3250 0326 F2       		.byte	0xf2
 3251 0327 6B000000 		.4byte	0x6b
 3252 032b 06       		.byte	0x6
 3253 032c 07       		.uleb128 0x7
 3254 032d ED030000 		.4byte	.LASF55
 3255 0331 03       		.byte	0x3
 3256 0332 F3       		.byte	0xf3
 3257 0333 6B000000 		.4byte	0x6b
 3258 0337 07       		.byte	0x7
 3259 0338 07       		.uleb128 0x7
ARM GAS  C:\Users\Admin\AppData\Local\Temp\ccqZUt8d.s 			page 82


 3260 0339 72060000 		.4byte	.LASF56
 3261 033d 03       		.byte	0x3
 3262 033e F4       		.byte	0xf4
 3263 033f 6B000000 		.4byte	0x6b
 3264 0343 08       		.byte	0x8
 3265 0344 0A       		.uleb128 0xa
 3266 0345 67617000 		.ascii	"gap\000"
 3267 0349 03       		.byte	0x3
 3268 034a F5       		.byte	0xf5
 3269 034b 51030000 		.4byte	0x351
 3270 034f 09       		.byte	0x9
 3271 0350 00       		.byte	0
 3272 0351 0C       		.uleb128 0xc
 3273 0352 6B000000 		.4byte	0x6b
 3274 0356 61030000 		.4byte	0x361
 3275 035a 0D       		.uleb128 0xd
 3276 035b C8000000 		.4byte	0xc8
 3277 035f 06       		.byte	0x6
 3278 0360 00       		.byte	0
 3279 0361 08       		.uleb128 0x8
 3280 0362 76040000 		.4byte	.LASF57
 3281 0366 03       		.byte	0x3
 3282 0367 F6       		.byte	0xf6
 3283 0368 D0020000 		.4byte	0x2d0
 3284 036c 0E       		.uleb128 0xe
 3285 036d 90       		.byte	0x90
 3286 036e 03       		.byte	0x3
 3287 036f 1201     		.2byte	0x112
 3288 0371 83030000 		.4byte	0x383
 3289 0375 0F       		.uleb128 0xf
 3290 0376 A0030000 		.4byte	.LASF58
 3291 037a 03       		.byte	0x3
 3292 037b 1401     		.2byte	0x114
 3293 037d 83030000 		.4byte	0x383
 3294 0381 00       		.byte	0
 3295 0382 00       		.byte	0
 3296 0383 0C       		.uleb128 0xc
 3297 0384 C5020000 		.4byte	0x2c5
 3298 0388 93030000 		.4byte	0x393
 3299 038c 0D       		.uleb128 0xd
 3300 038d C8000000 		.4byte	0xc8
 3301 0391 08       		.byte	0x8
 3302 0392 00       		.byte	0
 3303 0393 04       		.uleb128 0x4
 3304 0394 4E030000 		.4byte	.LASF59
 3305 0398 03       		.byte	0x3
 3306 0399 1501     		.2byte	0x115
 3307 039b 6C030000 		.4byte	0x36c
 3308 039f 0E       		.uleb128 0xe
 3309 03a0 90       		.byte	0x90
 3310 03a1 03       		.byte	0x3
 3311 03a2 1801     		.2byte	0x118
 3312 03a4 B6030000 		.4byte	0x3b6
 3313 03a8 0F       		.uleb128 0xf
 3314 03a9 1D030000 		.4byte	.LASF60
 3315 03ad 03       		.byte	0x3
 3316 03ae 1A01     		.2byte	0x11a
ARM GAS  C:\Users\Admin\AppData\Local\Temp\ccqZUt8d.s 			page 83


 3317 03b0 B6030000 		.4byte	0x3b6
 3318 03b4 00       		.byte	0
 3319 03b5 00       		.byte	0
 3320 03b6 0C       		.uleb128 0xc
 3321 03b7 61030000 		.4byte	0x361
 3322 03bb C6030000 		.4byte	0x3c6
 3323 03bf 0D       		.uleb128 0xd
 3324 03c0 C8000000 		.4byte	0xc8
 3325 03c4 08       		.byte	0x8
 3326 03c5 00       		.byte	0
 3327 03c6 04       		.uleb128 0x4
 3328 03c7 61030000 		.4byte	.LASF61
 3329 03cb 03       		.byte	0x3
 3330 03cc 1B01     		.2byte	0x11b
 3331 03ce 9F030000 		.4byte	0x39f
 3332 03d2 10       		.uleb128 0x10
 3333 03d3 89030000 		.4byte	.LASF85
 3334 03d7 01       		.byte	0x1
 3335 03d8 54       		.byte	0x54
 3336 03d9 6B000000 		.4byte	0x6b
 3337 03dd 00000000 		.4byte	.LFB0
 3338 03e1 A4040000 		.4byte	.LFE0-.LFB0
 3339 03e5 01       		.uleb128 0x1
 3340 03e6 9C       		.byte	0x9c
 3341 03e7 6D040000 		.4byte	0x46d
 3342 03eb 11       		.uleb128 0x11
 3343 03ec 0D060000 		.4byte	.LASF62
 3344 03f0 01       		.byte	0x1
 3345 03f1 56       		.byte	0x56
 3346 03f2 6B000000 		.4byte	0x6b
 3347 03f6 02       		.uleb128 0x2
 3348 03f7 91       		.byte	0x91
 3349 03f8 77       		.sleb128 -9
 3350 03f9 11       		.uleb128 0x11
 3351 03fa 19010000 		.4byte	.LASF63
 3352 03fe 01       		.byte	0x1
 3353 03ff 57       		.byte	0x57
 3354 0400 6B000000 		.4byte	0x6b
 3355 0404 02       		.uleb128 0x2
 3356 0405 91       		.byte	0x91
 3357 0406 64       		.sleb128 -28
 3358 0407 11       		.uleb128 0x11
 3359 0408 55040000 		.4byte	.LASF64
 3360 040c 01       		.byte	0x1
 3361 040d 58       		.byte	0x58
 3362 040e 6B000000 		.4byte	0x6b
 3363 0412 02       		.uleb128 0x2
 3364 0413 91       		.byte	0x91
 3365 0414 65       		.sleb128 -27
 3366 0415 11       		.uleb128 0x11
 3367 0416 63020000 		.4byte	.LASF65
 3368 041a 01       		.byte	0x1
 3369 041b 59       		.byte	0x59
 3370 041c 6B000000 		.4byte	0x6b
 3371 0420 02       		.uleb128 0x2
 3372 0421 91       		.byte	0x91
 3373 0422 67       		.sleb128 -25
ARM GAS  C:\Users\Admin\AppData\Local\Temp\ccqZUt8d.s 			page 84


 3374 0423 11       		.uleb128 0x11
 3375 0424 88040000 		.4byte	.LASF66
 3376 0428 01       		.byte	0x1
 3377 0429 5C       		.byte	0x5c
 3378 042a 04020000 		.4byte	0x204
 3379 042e 02       		.uleb128 0x2
 3380 042f 91       		.byte	0x91
 3381 0430 70       		.sleb128 -16
 3382 0431 11       		.uleb128 0x11
 3383 0432 54060000 		.4byte	.LASF67
 3384 0436 01       		.byte	0x1
 3385 0437 5E       		.byte	0x5e
 3386 0438 6B000000 		.4byte	0x6b
 3387 043c 02       		.uleb128 0x2
 3388 043d 91       		.byte	0x91
 3389 043e 6F       		.sleb128 -17
 3390 043f 11       		.uleb128 0x11
 3391 0440 74030000 		.4byte	.LASF68
 3392 0444 01       		.byte	0x1
 3393 0445 5F       		.byte	0x5f
 3394 0446 6B000000 		.4byte	0x6b
 3395 044a 02       		.uleb128 0x2
 3396 044b 91       		.byte	0x91
 3397 044c 66       		.sleb128 -26
 3398 044d 11       		.uleb128 0x11
 3399 044e F6050000 		.4byte	.LASF69
 3400 0452 01       		.byte	0x1
 3401 0453 63       		.byte	0x63
 3402 0454 7D040000 		.4byte	0x47d
 3403 0458 05       		.uleb128 0x5
 3404 0459 03       		.byte	0x3
 3405 045a 00000000 		.4byte	USB_tBuffer.5262
 3406 045e 11       		.uleb128 0x11
 3407 045f 88060000 		.4byte	.LASF70
 3408 0463 01       		.byte	0x1
 3409 0464 64       		.byte	0x64
 3410 0465 82040000 		.4byte	0x482
 3411 0469 02       		.uleb128 0x2
 3412 046a 91       		.byte	0x91
 3413 046b 68       		.sleb128 -24
 3414 046c 00       		.byte	0
 3415 046d 0C       		.uleb128 0xc
 3416 046e BC000000 		.4byte	0xbc
 3417 0472 7D040000 		.4byte	0x47d
 3418 0476 0D       		.uleb128 0xd
 3419 0477 C8000000 		.4byte	0xc8
 3420 047b 01       		.byte	0x1
 3421 047c 00       		.byte	0
 3422 047d 05       		.uleb128 0x5
 3423 047e 6D040000 		.4byte	0x46d
 3424 0482 09       		.uleb128 0x9
 3425 0483 04       		.byte	0x4
 3426 0484 88040000 		.4byte	0x488
 3427 0488 12       		.uleb128 0x12
 3428 0489 41020000 		.4byte	0x241
 3429 048d 13       		.uleb128 0x13
 3430 048e 7A020000 		.4byte	.LASF72
ARM GAS  C:\Users\Admin\AppData\Local\Temp\ccqZUt8d.s 			page 85


 3431 0492 01       		.byte	0x1
 3432 0493 8E01     		.2byte	0x18e
 3433 0495 00000000 		.4byte	.LFB1
 3434 0499 D8000000 		.4byte	.LFE1-.LFB1
 3435 049d 01       		.uleb128 0x1
 3436 049e 9C       		.byte	0x9c
 3437 049f EB040000 		.4byte	0x4eb
 3438 04a3 14       		.uleb128 0x14
 3439 04a4 92040000 		.4byte	.LASF76
 3440 04a8 01       		.byte	0x1
 3441 04a9 8E01     		.2byte	0x18e
 3442 04ab EB040000 		.4byte	0x4eb
 3443 04af 02       		.uleb128 0x2
 3444 04b0 91       		.byte	0x91
 3445 04b1 4C       		.sleb128 -52
 3446 04b2 15       		.uleb128 0x15
 3447 04b3 68657800 		.ascii	"hex\000"
 3448 04b7 01       		.byte	0x1
 3449 04b8 9001     		.2byte	0x190
 3450 04ba 06050000 		.4byte	0x506
 3451 04be 02       		.uleb128 0x2
 3452 04bf 91       		.byte	0x91
 3453 04c0 5C       		.sleb128 -36
 3454 04c1 15       		.uleb128 0x15
 3455 04c2 6900     		.ascii	"i\000"
 3456 04c4 01       		.byte	0x1
 3457 04c5 9101     		.2byte	0x191
 3458 04c7 6B000000 		.4byte	0x6b
 3459 04cb 02       		.uleb128 0x2
 3460 04cc 91       		.byte	0x91
 3461 04cd 6F       		.sleb128 -17
 3462 04ce 15       		.uleb128 0x15
 3463 04cf 6A00     		.ascii	"j\000"
 3464 04d1 01       		.byte	0x1
 3465 04d2 9201     		.2byte	0x192
 3466 04d4 6B000000 		.4byte	0x6b
 3467 04d8 02       		.uleb128 0x2
 3468 04d9 91       		.byte	0x91
 3469 04da 6E       		.sleb128 -18
 3470 04db 16       		.uleb128 0x16
 3471 04dc 2D060000 		.4byte	.LASF71
 3472 04e0 01       		.byte	0x1
 3473 04e1 9301     		.2byte	0x193
 3474 04e3 61020000 		.4byte	0x261
 3475 04e7 02       		.uleb128 0x2
 3476 04e8 91       		.byte	0x91
 3477 04e9 54       		.sleb128 -44
 3478 04ea 00       		.byte	0
 3479 04eb 09       		.uleb128 0x9
 3480 04ec 04       		.byte	0x4
 3481 04ed 6B000000 		.4byte	0x6b
 3482 04f1 0C       		.uleb128 0xc
 3483 04f2 01050000 		.4byte	0x501
 3484 04f6 01050000 		.4byte	0x501
 3485 04fa 0D       		.uleb128 0xd
 3486 04fb C8000000 		.4byte	0xc8
 3487 04ff 10       		.byte	0x10
ARM GAS  C:\Users\Admin\AppData\Local\Temp\ccqZUt8d.s 			page 86


 3488 0500 00       		.byte	0
 3489 0501 12       		.uleb128 0x12
 3490 0502 9D000000 		.4byte	0x9d
 3491 0506 12       		.uleb128 0x12
 3492 0507 F1040000 		.4byte	0x4f1
 3493 050b 17       		.uleb128 0x17
 3494 050c DF030000 		.4byte	.LASF73
 3495 0510 01       		.byte	0x1
 3496 0511 B501     		.2byte	0x1b5
 3497 0513 00000000 		.4byte	.LFB2
 3498 0517 38010000 		.4byte	.LFE2-.LFB2
 3499 051b 01       		.uleb128 0x1
 3500 051c 9C       		.byte	0x9c
 3501 051d 30050000 		.4byte	0x530
 3502 0521 15       		.uleb128 0x15
 3503 0522 657000   		.ascii	"ep\000"
 3504 0525 01       		.byte	0x1
 3505 0526 B701     		.2byte	0x1b7
 3506 0528 6B000000 		.4byte	0x6b
 3507 052c 02       		.uleb128 0x2
 3508 052d 91       		.byte	0x91
 3509 052e 77       		.sleb128 -9
 3510 052f 00       		.byte	0
 3511 0530 17       		.uleb128 0x17
 3512 0531 C2010000 		.4byte	.LASF74
 3513 0535 01       		.byte	0x1
 3514 0536 1402     		.2byte	0x214
 3515 0538 00000000 		.4byte	.LFB3
 3516 053c 6C000000 		.4byte	.LFE3-.LFB3
 3517 0540 01       		.uleb128 0x1
 3518 0541 9C       		.byte	0x9c
 3519 0542 54050000 		.4byte	0x554
 3520 0546 15       		.uleb128 0x15
 3521 0547 6900     		.ascii	"i\000"
 3522 0549 01       		.byte	0x1
 3523 054a 1602     		.2byte	0x216
 3524 054c 6B000000 		.4byte	0x6b
 3525 0550 02       		.uleb128 0x2
 3526 0551 91       		.byte	0x91
 3527 0552 77       		.sleb128 -9
 3528 0553 00       		.byte	0
 3529 0554 13       		.uleb128 0x13
 3530 0555 36060000 		.4byte	.LASF75
 3531 0559 01       		.byte	0x1
 3532 055a 3A02     		.2byte	0x23a
 3533 055c 00000000 		.4byte	.LFB4
 3534 0560 B4030000 		.4byte	.LFE4-.LFB4
 3535 0564 01       		.uleb128 0x1
 3536 0565 9C       		.byte	0x9c
 3537 0566 08060000 		.4byte	0x608
 3538 056a 14       		.uleb128 0x14
 3539 056b 45040000 		.4byte	.LASF77
 3540 056f 01       		.byte	0x1
 3541 0570 3A02     		.2byte	0x23a
 3542 0572 6B000000 		.4byte	0x6b
 3543 0576 02       		.uleb128 0x2
 3544 0577 91       		.byte	0x91
ARM GAS  C:\Users\Admin\AppData\Local\Temp\ccqZUt8d.s 			page 87


 3545 0578 57       		.sleb128 -41
 3546 0579 15       		.uleb128 0x15
 3547 057a 657000   		.ascii	"ep\000"
 3548 057d 01       		.byte	0x1
 3549 057e 3C02     		.2byte	0x23c
 3550 0580 6B000000 		.4byte	0x6b
 3551 0584 02       		.uleb128 0x2
 3552 0585 91       		.byte	0x91
 3553 0586 77       		.sleb128 -9
 3554 0587 16       		.uleb128 0x16
 3555 0588 ED000000 		.4byte	.LASF78
 3556 058c 01       		.byte	0x1
 3557 058d 3D02     		.2byte	0x23d
 3558 058f 6B000000 		.4byte	0x6b
 3559 0593 02       		.uleb128 0x2
 3560 0594 91       		.byte	0x91
 3561 0595 76       		.sleb128 -10
 3562 0596 15       		.uleb128 0x15
 3563 0597 6900     		.ascii	"i\000"
 3564 0599 01       		.byte	0x1
 3565 059a 3E02     		.2byte	0x23e
 3566 059c 6B000000 		.4byte	0x6b
 3567 05a0 02       		.uleb128 0x2
 3568 05a1 91       		.byte	0x91
 3569 05a2 75       		.sleb128 -11
 3570 05a3 16       		.uleb128 0x16
 3571 05a4 5C020000 		.4byte	.LASF79
 3572 05a8 01       		.byte	0x1
 3573 05a9 3F02     		.2byte	0x23f
 3574 05ab 6B000000 		.4byte	0x6b
 3575 05af 02       		.uleb128 0x2
 3576 05b0 91       		.byte	0x91
 3577 05b1 5F       		.sleb128 -33
 3578 05b2 16       		.uleb128 0x16
 3579 05b3 EA020000 		.4byte	.LASF80
 3580 05b7 01       		.byte	0x1
 3581 05b8 4002     		.2byte	0x240
 3582 05ba 08060000 		.4byte	0x608
 3583 05be 02       		.uleb128 0x2
 3584 05bf 91       		.byte	0x91
 3585 05c0 60       		.sleb128 -32
 3586 05c1 16       		.uleb128 0x16
 3587 05c2 C3030000 		.4byte	.LASF81
 3588 05c6 01       		.byte	0x1
 3589 05c7 4302     		.2byte	0x243
 3590 05c9 77000000 		.4byte	0x77
 3591 05cd 02       		.uleb128 0x2
 3592 05ce 91       		.byte	0x91
 3593 05cf 72       		.sleb128 -14
 3594 05d0 16       		.uleb128 0x16
 3595 05d1 88060000 		.4byte	.LASF70
 3596 05d5 01       		.byte	0x1
 3597 05d6 4602     		.2byte	0x246
 3598 05d8 82040000 		.4byte	0x482
 3599 05dc 02       		.uleb128 0x2
 3600 05dd 91       		.byte	0x91
 3601 05de 64       		.sleb128 -28
ARM GAS  C:\Users\Admin\AppData\Local\Temp\ccqZUt8d.s 			page 88


 3602 05df 15       		.uleb128 0x15
 3603 05e0 70455000 		.ascii	"pEP\000"
 3604 05e4 01       		.byte	0x1
 3605 05e5 4702     		.2byte	0x247
 3606 05e7 13060000 		.4byte	0x613
 3607 05eb 02       		.uleb128 0x2
 3608 05ec 91       		.byte	0x91
 3609 05ed 6C       		.sleb128 -20
 3610 05ee 18       		.uleb128 0x18
 3611 05ef 00010000 		.4byte	.LBB2
 3612 05f3 A2020000 		.4byte	.LBE2-.LBB2
 3613 05f7 16       		.uleb128 0x16
 3614 05f8 E5010000 		.4byte	.LASF82
 3615 05fc 01       		.byte	0x1
 3616 05fd 6302     		.2byte	0x263
 3617 05ff 6B000000 		.4byte	0x6b
 3618 0603 02       		.uleb128 0x2
 3619 0604 91       		.byte	0x91
 3620 0605 6B       		.sleb128 -21
 3621 0606 00       		.byte	0
 3622 0607 00       		.byte	0
 3623 0608 09       		.uleb128 0x9
 3624 0609 04       		.byte	0x4
 3625 060a 0E060000 		.4byte	0x60e
 3626 060e 12       		.uleb128 0x12
 3627 060f 6B000000 		.4byte	0x6b
 3628 0613 09       		.uleb128 0x9
 3629 0614 04       		.byte	0x4
 3630 0615 19060000 		.4byte	0x619
 3631 0619 12       		.uleb128 0x12
 3632 061a A0010000 		.4byte	0x1a0
 3633 061e 13       		.uleb128 0x13
 3634 061f F7060000 		.4byte	.LASF83
 3635 0623 01       		.byte	0x1
 3636 0624 2503     		.2byte	0x325
 3637 0626 00000000 		.4byte	.LFB5
 3638 062a 5C020000 		.4byte	.LFE5-.LFB5
 3639 062e 01       		.uleb128 0x1
 3640 062f 9C       		.byte	0x9c
 3641 0630 9B060000 		.4byte	0x69b
 3642 0634 15       		.uleb128 0x15
 3643 0635 657000   		.ascii	"ep\000"
 3644 0638 01       		.byte	0x1
 3645 0639 2703     		.2byte	0x327
 3646 063b 6B000000 		.4byte	0x6b
 3647 063f 02       		.uleb128 0x2
 3648 0640 91       		.byte	0x91
 3649 0641 63       		.sleb128 -29
 3650 0642 16       		.uleb128 0x16
 3651 0643 ED000000 		.4byte	.LASF78
 3652 0647 01       		.byte	0x1
 3653 0648 2803     		.2byte	0x328
 3654 064a 6B000000 		.4byte	0x6b
 3655 064e 02       		.uleb128 0x2
 3656 064f 91       		.byte	0x91
 3657 0650 61       		.sleb128 -31
 3658 0651 16       		.uleb128 0x16
ARM GAS  C:\Users\Admin\AppData\Local\Temp\ccqZUt8d.s 			page 89


 3659 0652 5C020000 		.4byte	.LASF79
 3660 0656 01       		.byte	0x1
 3661 0657 2903     		.2byte	0x329
 3662 0659 6B000000 		.4byte	0x6b
 3663 065d 02       		.uleb128 0x2
 3664 065e 91       		.byte	0x91
 3665 065f 60       		.sleb128 -32
 3666 0660 15       		.uleb128 0x15
 3667 0661 6900     		.ascii	"i\000"
 3668 0663 01       		.byte	0x1
 3669 0664 2A03     		.2byte	0x32a
 3670 0666 6B000000 		.4byte	0x6b
 3671 066a 02       		.uleb128 0x2
 3672 066b 91       		.byte	0x91
 3673 066c 6F       		.sleb128 -17
 3674 066d 16       		.uleb128 0x16
 3675 066e 8D060000 		.4byte	.LASF84
 3676 0672 01       		.byte	0x1
 3677 0673 2B03     		.2byte	0x32b
 3678 0675 6B000000 		.4byte	0x6b
 3679 0679 02       		.uleb128 0x2
 3680 067a 91       		.byte	0x91
 3681 067b 62       		.sleb128 -30
 3682 067c 16       		.uleb128 0x16
 3683 067d 88060000 		.4byte	.LASF70
 3684 0681 01       		.byte	0x1
 3685 0682 2D03     		.2byte	0x32d
 3686 0684 82040000 		.4byte	0x482
 3687 0688 02       		.uleb128 0x2
 3688 0689 91       		.byte	0x91
 3689 068a 64       		.sleb128 -28
 3690 068b 15       		.uleb128 0x15
 3691 068c 70455000 		.ascii	"pEP\000"
 3692 0690 01       		.byte	0x1
 3693 0691 2E03     		.2byte	0x32e
 3694 0693 13060000 		.4byte	0x613
 3695 0697 02       		.uleb128 0x2
 3696 0698 91       		.byte	0x91
 3697 0699 68       		.sleb128 -24
 3698 069a 00       		.byte	0
 3699 069b 19       		.uleb128 0x19
 3700 069c F7020000 		.4byte	.LASF86
 3701 06a0 01       		.byte	0x1
 3702 06a1 AE03     		.2byte	0x3ae
 3703 06a3 82040000 		.4byte	0x482
 3704 06a7 00000000 		.4byte	.LFB6
 3705 06ab 50000000 		.4byte	.LFE6-.LFB6
 3706 06af 01       		.uleb128 0x1
 3707 06b0 9C       		.byte	0x9c
 3708 06b1 D4060000 		.4byte	0x6d4
 3709 06b5 14       		.uleb128 0x14
 3710 06b6 F3000000 		.4byte	.LASF87
 3711 06ba 01       		.byte	0x1
 3712 06bb AE03     		.2byte	0x3ae
 3713 06bd 6B000000 		.4byte	0x6b
 3714 06c1 02       		.uleb128 0x2
 3715 06c2 91       		.byte	0x91
ARM GAS  C:\Users\Admin\AppData\Local\Temp\ccqZUt8d.s 			page 90


 3716 06c3 6F       		.sleb128 -17
 3717 06c4 16       		.uleb128 0x16
 3718 06c5 88060000 		.4byte	.LASF70
 3719 06c9 01       		.byte	0x1
 3720 06ca B203     		.2byte	0x3b2
 3721 06cc 82040000 		.4byte	0x482
 3722 06d0 02       		.uleb128 0x2
 3723 06d1 91       		.byte	0x91
 3724 06d2 74       		.sleb128 -12
 3725 06d3 00       		.byte	0
 3726 06d4 1A       		.uleb128 0x1a
 3727 06d5 A6030000 		.4byte	.LASF117
 3728 06d9 01       		.byte	0x1
 3729 06da F303     		.2byte	0x3f3
 3730 06dc 82040000 		.4byte	0x482
 3731 06e0 00000000 		.4byte	.LFB7
 3732 06e4 24000000 		.4byte	.LFE7-.LFB7
 3733 06e8 01       		.uleb128 0x1
 3734 06e9 9C       		.byte	0x9c
 3735 06ea 1B       		.uleb128 0x1b
 3736 06eb 55010000 		.4byte	.LASF88
 3737 06ef 01       		.byte	0x1
 3738 06f0 0604     		.2byte	0x406
 3739 06f2 08060000 		.4byte	0x608
 3740 06f6 00000000 		.4byte	.LFB8
 3741 06fa 4C000000 		.4byte	.LFE8-.LFB8
 3742 06fe 01       		.uleb128 0x1
 3743 06ff 9C       		.byte	0x9c
 3744 0700 32070000 		.4byte	0x732
 3745 0704 16       		.uleb128 0x16
 3746 0705 88060000 		.4byte	.LASF70
 3747 0709 01       		.byte	0x1
 3748 070a 0904     		.2byte	0x409
 3749 070c 82040000 		.4byte	0x482
 3750 0710 02       		.uleb128 0x2
 3751 0711 91       		.byte	0x91
 3752 0712 70       		.sleb128 -16
 3753 0713 16       		.uleb128 0x16
 3754 0714 0D030000 		.4byte	.LASF89
 3755 0718 01       		.byte	0x1
 3756 0719 0A04     		.2byte	0x40a
 3757 071b 08060000 		.4byte	0x608
 3758 071f 02       		.uleb128 0x2
 3759 0720 91       		.byte	0x91
 3760 0721 74       		.sleb128 -12
 3761 0722 16       		.uleb128 0x16
 3762 0723 F5030000 		.4byte	.LASF90
 3763 0727 01       		.byte	0x1
 3764 0728 0B04     		.2byte	0x40b
 3765 072a 6B000000 		.4byte	0x6b
 3766 072e 02       		.uleb128 0x2
 3767 072f 91       		.byte	0x91
 3768 0730 6F       		.sleb128 -17
 3769 0731 00       		.byte	0
 3770 0732 17       		.uleb128 0x17
 3771 0733 2D030000 		.4byte	.LASF91
 3772 0737 01       		.byte	0x1
ARM GAS  C:\Users\Admin\AppData\Local\Temp\ccqZUt8d.s 			page 91


 3773 0738 3004     		.2byte	0x430
 3774 073a 00000000 		.4byte	.LFB9
 3775 073e C0000000 		.4byte	.LFE9-.LFB9
 3776 0742 01       		.uleb128 0x1
 3777 0743 9C       		.byte	0x9c
 3778 0744 58070000 		.4byte	0x758
 3779 0748 14       		.uleb128 0x14
 3780 0749 4C010000 		.4byte	.LASF92
 3781 074d 01       		.byte	0x1
 3782 074e 3004     		.2byte	0x430
 3783 0750 6B000000 		.4byte	0x6b
 3784 0754 02       		.uleb128 0x2
 3785 0755 91       		.byte	0x91
 3786 0756 77       		.sleb128 -9
 3787 0757 00       		.byte	0
 3788 0758 1B       		.uleb128 0x1b
 3789 0759 D9000000 		.4byte	.LASF93
 3790 075d 01       		.byte	0x1
 3791 075e 5904     		.2byte	0x459
 3792 0760 6B000000 		.4byte	0x6b
 3793 0764 00000000 		.4byte	.LFB10
 3794 0768 E8000000 		.4byte	.LFE10-.LFB10
 3795 076c 01       		.uleb128 0x1
 3796 076d 9C       		.byte	0x9c
 3797 076e 90070000 		.4byte	0x790
 3798 0772 16       		.uleb128 0x16
 3799 0773 0D060000 		.4byte	.LASF62
 3800 0777 01       		.byte	0x1
 3801 0778 5B04     		.2byte	0x45b
 3802 077a 6B000000 		.4byte	0x6b
 3803 077e 02       		.uleb128 0x2
 3804 077f 91       		.byte	0x91
 3805 0780 77       		.sleb128 -9
 3806 0781 15       		.uleb128 0x15
 3807 0782 657000   		.ascii	"ep\000"
 3808 0785 01       		.byte	0x1
 3809 0786 5C04     		.2byte	0x45c
 3810 0788 6B000000 		.4byte	0x6b
 3811 078c 02       		.uleb128 0x2
 3812 078d 91       		.byte	0x91
 3813 078e 76       		.sleb128 -10
 3814 078f 00       		.byte	0
 3815 0790 1B       		.uleb128 0x1b
 3816 0791 1E040000 		.4byte	.LASF94
 3817 0795 01       		.byte	0x1
 3818 0796 8A04     		.2byte	0x48a
 3819 0798 6B000000 		.4byte	0x6b
 3820 079c 00000000 		.4byte	.LFB11
 3821 07a0 58010000 		.4byte	.LFE11-.LFB11
 3822 07a4 01       		.uleb128 0x1
 3823 07a5 9C       		.byte	0x9c
 3824 07a6 C8070000 		.4byte	0x7c8
 3825 07aa 16       		.uleb128 0x16
 3826 07ab 0D060000 		.4byte	.LASF62
 3827 07af 01       		.byte	0x1
 3828 07b0 8C04     		.2byte	0x48c
 3829 07b2 6B000000 		.4byte	0x6b
ARM GAS  C:\Users\Admin\AppData\Local\Temp\ccqZUt8d.s 			page 92


 3830 07b6 02       		.uleb128 0x2
 3831 07b7 91       		.byte	0x91
 3832 07b8 77       		.sleb128 -9
 3833 07b9 15       		.uleb128 0x15
 3834 07ba 657000   		.ascii	"ep\000"
 3835 07bd 01       		.byte	0x1
 3836 07be 8D04     		.2byte	0x48d
 3837 07c0 6B000000 		.4byte	0x6b
 3838 07c4 02       		.uleb128 0x2
 3839 07c5 91       		.byte	0x91
 3840 07c6 76       		.sleb128 -10
 3841 07c7 00       		.byte	0
 3842 07c8 1B       		.uleb128 0x1b
 3843 07c9 38020000 		.4byte	.LASF95
 3844 07cd 01       		.byte	0x1
 3845 07ce CF04     		.2byte	0x4cf
 3846 07d0 6B000000 		.4byte	0x6b
 3847 07d4 00000000 		.4byte	.LFB12
 3848 07d8 70000000 		.4byte	.LFE12-.LFB12
 3849 07dc 01       		.uleb128 0x1
 3850 07dd 9C       		.byte	0x9c
 3851 07de 1F080000 		.4byte	0x81f
 3852 07e2 16       		.uleb128 0x16
 3853 07e3 0D060000 		.4byte	.LASF62
 3854 07e7 01       		.byte	0x1
 3855 07e8 D104     		.2byte	0x4d1
 3856 07ea 6B000000 		.4byte	0x6b
 3857 07ee 02       		.uleb128 0x2
 3858 07ef 91       		.byte	0x91
 3859 07f0 77       		.sleb128 -9
 3860 07f1 16       		.uleb128 0x16
 3861 07f2 8D060000 		.4byte	.LASF84
 3862 07f6 01       		.byte	0x1
 3863 07f7 D304     		.2byte	0x4d3
 3864 07f9 6B000000 		.4byte	0x6b
 3865 07fd 02       		.uleb128 0x2
 3866 07fe 91       		.byte	0x91
 3867 07ff 76       		.sleb128 -10
 3868 0800 16       		.uleb128 0x16
 3869 0801 77060000 		.4byte	.LASF96
 3870 0805 01       		.byte	0x1
 3871 0806 D404     		.2byte	0x4d4
 3872 0808 6B000000 		.4byte	0x6b
 3873 080c 02       		.uleb128 0x2
 3874 080d 91       		.byte	0x91
 3875 080e 6F       		.sleb128 -17
 3876 080f 16       		.uleb128 0x16
 3877 0810 88060000 		.4byte	.LASF70
 3878 0814 01       		.byte	0x1
 3879 0815 D504     		.2byte	0x4d5
 3880 0817 82040000 		.4byte	0x482
 3881 081b 02       		.uleb128 0x2
 3882 081c 91       		.byte	0x91
 3883 081d 70       		.sleb128 -16
 3884 081e 00       		.byte	0
 3885 081f 1C       		.uleb128 0x1c
 3886 0820 D4030000 		.4byte	.LASF97
ARM GAS  C:\Users\Admin\AppData\Local\Temp\ccqZUt8d.s 			page 93


 3887 0824 03       		.byte	0x3
 3888 0825 D602     		.2byte	0x2d6
 3889 0827 BC000000 		.4byte	0xbc
 3890 082b 1C       		.uleb128 0x1c
 3891 082c 32000000 		.4byte	.LASF98
 3892 0830 03       		.byte	0x3
 3893 0831 D802     		.2byte	0x2d8
 3894 0833 BC000000 		.4byte	0xbc
 3895 0837 1C       		.uleb128 0x1c
 3896 0838 CA060000 		.4byte	.LASF99
 3897 083c 03       		.byte	0x3
 3898 083d D902     		.2byte	0x2d9
 3899 083f BC000000 		.4byte	0xbc
 3900 0843 1C       		.uleb128 0x1c
 3901 0844 3D030000 		.4byte	.LASF100
 3902 0848 03       		.byte	0x3
 3903 0849 DA02     		.2byte	0x2da
 3904 084b BC000000 		.4byte	0xbc
 3905 084f 0C       		.uleb128 0xc
 3906 0850 0E060000 		.4byte	0x60e
 3907 0854 5F080000 		.4byte	0x85f
 3908 0858 0D       		.uleb128 0xd
 3909 0859 C8000000 		.4byte	0xc8
 3910 085d 11       		.byte	0x11
 3911 085e 00       		.byte	0
 3912 085f 1D       		.uleb128 0x1d
 3913 0860 C0020000 		.4byte	.LASF101
 3914 0864 04       		.byte	0x4
 3915 0865 61       		.byte	0x61
 3916 0866 6A080000 		.4byte	0x86a
 3917 086a 12       		.uleb128 0x12
 3918 086b 4F080000 		.4byte	0x84f
 3919 086f 0C       		.uleb128 0xc
 3920 0870 88040000 		.4byte	0x488
 3921 0874 7F080000 		.4byte	0x87f
 3922 0878 0D       		.uleb128 0xd
 3923 0879 C8000000 		.4byte	0xc8
 3924 087d 00       		.byte	0
 3925 087e 00       		.byte	0
 3926 087f 1D       		.uleb128 0x1d
 3927 0880 B8010000 		.4byte	.LASF102
 3928 0884 04       		.byte	0x4
 3929 0885 67       		.byte	0x67
 3930 0886 8A080000 		.4byte	0x88a
 3931 088a 12       		.uleb128 0x12
 3932 088b 6F080000 		.4byte	0x86f
 3933 088f 0C       		.uleb128 0xc
 3934 0890 0E060000 		.4byte	0x60e
 3935 0894 9F080000 		.4byte	0x89f
 3936 0898 0D       		.uleb128 0xd
 3937 0899 C8000000 		.4byte	0xc8
 3938 089d E6       		.byte	0xe6
 3939 089e 00       		.byte	0
 3940 089f 1D       		.uleb128 0x1d
 3941 08a0 9D050000 		.4byte	.LASF103
 3942 08a4 04       		.byte	0x4
 3943 08a5 69       		.byte	0x69
ARM GAS  C:\Users\Admin\AppData\Local\Temp\ccqZUt8d.s 			page 94


 3944 08a6 AA080000 		.4byte	0x8aa
 3945 08aa 12       		.uleb128 0x12
 3946 08ab 8F080000 		.4byte	0x88f
 3947 08af 1D       		.uleb128 0x1d
 3948 08b0 F0010000 		.4byte	.LASF104
 3949 08b4 04       		.byte	0x4
 3950 08b5 6D       		.byte	0x6d
 3951 08b6 BA080000 		.4byte	0x8ba
 3952 08ba 12       		.uleb128 0x12
 3953 08bb 4F080000 		.4byte	0x84f
 3954 08bf 0C       		.uleb128 0xc
 3955 08c0 6B000000 		.4byte	0x6b
 3956 08c4 CF080000 		.4byte	0x8cf
 3957 08c8 0D       		.uleb128 0xd
 3958 08c9 C8000000 		.4byte	0xc8
 3959 08cd 21       		.byte	0x21
 3960 08ce 00       		.byte	0
 3961 08cf 1D       		.uleb128 0x1d
 3962 08d0 A6040000 		.4byte	.LASF105
 3963 08d4 04       		.byte	0x4
 3964 08d5 70       		.byte	0x70
 3965 08d6 BF080000 		.4byte	0x8bf
 3966 08da 1D       		.uleb128 0x1d
 3967 08db E3060000 		.4byte	.LASF106
 3968 08df 04       		.byte	0x4
 3969 08e0 73       		.byte	0x73
 3970 08e1 BC000000 		.4byte	0xbc
 3971 08e5 1D       		.uleb128 0x1d
 3972 08e6 29010000 		.4byte	.LASF107
 3973 08ea 04       		.byte	0x4
 3974 08eb 74       		.byte	0x74
 3975 08ec F0080000 		.4byte	0x8f0
 3976 08f0 05       		.uleb128 0x5
 3977 08f1 6D040000 		.4byte	0x46d
 3978 08f5 1D       		.uleb128 0x1d
 3979 08f6 9F010000 		.4byte	.LASF108
 3980 08fa 04       		.byte	0x4
 3981 08fb 75       		.byte	0x75
 3982 08fc 00090000 		.4byte	0x900
 3983 0900 05       		.uleb128 0x5
 3984 0901 6D040000 		.4byte	0x46d
 3985 0905 1D       		.uleb128 0x1d
 3986 0906 64040000 		.4byte	.LASF109
 3987 090a 04       		.byte	0x4
 3988 090b 76       		.byte	0x76
 3989 090c BC000000 		.4byte	0xbc
 3990 0910 1D       		.uleb128 0x1d
 3991 0911 C6050000 		.4byte	.LASF110
 3992 0915 04       		.byte	0x4
 3993 0916 77       		.byte	0x77
 3994 0917 1B090000 		.4byte	0x91b
 3995 091b 05       		.uleb128 0x5
 3996 091c 6D040000 		.4byte	0x46d
 3997 0920 1D       		.uleb128 0x1d
 3998 0921 41060000 		.4byte	.LASF111
 3999 0925 04       		.byte	0x4
 4000 0926 78       		.byte	0x78
ARM GAS  C:\Users\Admin\AppData\Local\Temp\ccqZUt8d.s 			page 95


 4001 0927 08060000 		.4byte	0x608
 4002 092b 0C       		.uleb128 0xc
 4003 092c 3B090000 		.4byte	0x93b
 4004 0930 3B090000 		.4byte	0x93b
 4005 0934 0D       		.uleb128 0xd
 4006 0935 C8000000 		.4byte	0xc8
 4007 0939 08       		.byte	0x8
 4008 093a 00       		.byte	0
 4009 093b 05       		.uleb128 0x5
 4010 093c 44010000 		.4byte	0x144
 4011 0940 1D       		.uleb128 0x1d
 4012 0941 11040000 		.4byte	.LASF112
 4013 0945 04       		.byte	0x4
 4014 0946 7A       		.byte	0x7a
 4015 0947 4B090000 		.4byte	0x94b
 4016 094b 05       		.uleb128 0x5
 4017 094c 2B090000 		.4byte	0x92b
 4018 0950 1D       		.uleb128 0x1d
 4019 0951 3E010000 		.4byte	.LASF113
 4020 0955 04       		.byte	0x4
 4021 0956 7B       		.byte	0x7b
 4022 0957 5B090000 		.4byte	0x95b
 4023 095b 05       		.uleb128 0x5
 4024 095c 10020000 		.4byte	0x210
 4025 0960 00       		.byte	0
 4026              		.section	.debug_abbrev,"",%progbits
 4027              	.Ldebug_abbrev0:
 4028 0000 01       		.uleb128 0x1
 4029 0001 11       		.uleb128 0x11
 4030 0002 01       		.byte	0x1
 4031 0003 25       		.uleb128 0x25
 4032 0004 0E       		.uleb128 0xe
 4033 0005 13       		.uleb128 0x13
 4034 0006 0B       		.uleb128 0xb
 4035 0007 03       		.uleb128 0x3
 4036 0008 0E       		.uleb128 0xe
 4037 0009 1B       		.uleb128 0x1b
 4038 000a 0E       		.uleb128 0xe
 4039 000b 55       		.uleb128 0x55
 4040 000c 17       		.uleb128 0x17
 4041 000d 11       		.uleb128 0x11
 4042 000e 01       		.uleb128 0x1
 4043 000f 10       		.uleb128 0x10
 4044 0010 17       		.uleb128 0x17
 4045 0011 00       		.byte	0
 4046 0012 00       		.byte	0
 4047 0013 02       		.uleb128 0x2
 4048 0014 24       		.uleb128 0x24
 4049 0015 00       		.byte	0
 4050 0016 0B       		.uleb128 0xb
 4051 0017 0B       		.uleb128 0xb
 4052 0018 3E       		.uleb128 0x3e
 4053 0019 0B       		.uleb128 0xb
 4054 001a 03       		.uleb128 0x3
 4055 001b 0E       		.uleb128 0xe
 4056 001c 00       		.byte	0
 4057 001d 00       		.byte	0
ARM GAS  C:\Users\Admin\AppData\Local\Temp\ccqZUt8d.s 			page 96


 4058 001e 03       		.uleb128 0x3
 4059 001f 24       		.uleb128 0x24
 4060 0020 00       		.byte	0
 4061 0021 0B       		.uleb128 0xb
 4062 0022 0B       		.uleb128 0xb
 4063 0023 3E       		.uleb128 0x3e
 4064 0024 0B       		.uleb128 0xb
 4065 0025 03       		.uleb128 0x3
 4066 0026 08       		.uleb128 0x8
 4067 0027 00       		.byte	0
 4068 0028 00       		.byte	0
 4069 0029 04       		.uleb128 0x4
 4070 002a 16       		.uleb128 0x16
 4071 002b 00       		.byte	0
 4072 002c 03       		.uleb128 0x3
 4073 002d 0E       		.uleb128 0xe
 4074 002e 3A       		.uleb128 0x3a
 4075 002f 0B       		.uleb128 0xb
 4076 0030 3B       		.uleb128 0x3b
 4077 0031 05       		.uleb128 0x5
 4078 0032 49       		.uleb128 0x49
 4079 0033 13       		.uleb128 0x13
 4080 0034 00       		.byte	0
 4081 0035 00       		.byte	0
 4082 0036 05       		.uleb128 0x5
 4083 0037 35       		.uleb128 0x35
 4084 0038 00       		.byte	0
 4085 0039 49       		.uleb128 0x49
 4086 003a 13       		.uleb128 0x13
 4087 003b 00       		.byte	0
 4088 003c 00       		.byte	0
 4089 003d 06       		.uleb128 0x6
 4090 003e 13       		.uleb128 0x13
 4091 003f 01       		.byte	0x1
 4092 0040 0B       		.uleb128 0xb
 4093 0041 0B       		.uleb128 0xb
 4094 0042 3A       		.uleb128 0x3a
 4095 0043 0B       		.uleb128 0xb
 4096 0044 3B       		.uleb128 0x3b
 4097 0045 0B       		.uleb128 0xb
 4098 0046 01       		.uleb128 0x1
 4099 0047 13       		.uleb128 0x13
 4100 0048 00       		.byte	0
 4101 0049 00       		.byte	0
 4102 004a 07       		.uleb128 0x7
 4103 004b 0D       		.uleb128 0xd
 4104 004c 00       		.byte	0
 4105 004d 03       		.uleb128 0x3
 4106 004e 0E       		.uleb128 0xe
 4107 004f 3A       		.uleb128 0x3a
 4108 0050 0B       		.uleb128 0xb
 4109 0051 3B       		.uleb128 0x3b
 4110 0052 0B       		.uleb128 0xb
 4111 0053 49       		.uleb128 0x49
 4112 0054 13       		.uleb128 0x13
 4113 0055 38       		.uleb128 0x38
 4114 0056 0B       		.uleb128 0xb
ARM GAS  C:\Users\Admin\AppData\Local\Temp\ccqZUt8d.s 			page 97


 4115 0057 00       		.byte	0
 4116 0058 00       		.byte	0
 4117 0059 08       		.uleb128 0x8
 4118 005a 16       		.uleb128 0x16
 4119 005b 00       		.byte	0
 4120 005c 03       		.uleb128 0x3
 4121 005d 0E       		.uleb128 0xe
 4122 005e 3A       		.uleb128 0x3a
 4123 005f 0B       		.uleb128 0xb
 4124 0060 3B       		.uleb128 0x3b
 4125 0061 0B       		.uleb128 0xb
 4126 0062 49       		.uleb128 0x49
 4127 0063 13       		.uleb128 0x13
 4128 0064 00       		.byte	0
 4129 0065 00       		.byte	0
 4130 0066 09       		.uleb128 0x9
 4131 0067 0F       		.uleb128 0xf
 4132 0068 00       		.byte	0
 4133 0069 0B       		.uleb128 0xb
 4134 006a 0B       		.uleb128 0xb
 4135 006b 49       		.uleb128 0x49
 4136 006c 13       		.uleb128 0x13
 4137 006d 00       		.byte	0
 4138 006e 00       		.byte	0
 4139 006f 0A       		.uleb128 0xa
 4140 0070 0D       		.uleb128 0xd
 4141 0071 00       		.byte	0
 4142 0072 03       		.uleb128 0x3
 4143 0073 08       		.uleb128 0x8
 4144 0074 3A       		.uleb128 0x3a
 4145 0075 0B       		.uleb128 0xb
 4146 0076 3B       		.uleb128 0x3b
 4147 0077 0B       		.uleb128 0xb
 4148 0078 49       		.uleb128 0x49
 4149 0079 13       		.uleb128 0x13
 4150 007a 38       		.uleb128 0x38
 4151 007b 0B       		.uleb128 0xb
 4152 007c 00       		.byte	0
 4153 007d 00       		.byte	0
 4154 007e 0B       		.uleb128 0xb
 4155 007f 26       		.uleb128 0x26
 4156 0080 00       		.byte	0
 4157 0081 00       		.byte	0
 4158 0082 00       		.byte	0
 4159 0083 0C       		.uleb128 0xc
 4160 0084 01       		.uleb128 0x1
 4161 0085 01       		.byte	0x1
 4162 0086 49       		.uleb128 0x49
 4163 0087 13       		.uleb128 0x13
 4164 0088 01       		.uleb128 0x1
 4165 0089 13       		.uleb128 0x13
 4166 008a 00       		.byte	0
 4167 008b 00       		.byte	0
 4168 008c 0D       		.uleb128 0xd
 4169 008d 21       		.uleb128 0x21
 4170 008e 00       		.byte	0
 4171 008f 49       		.uleb128 0x49
ARM GAS  C:\Users\Admin\AppData\Local\Temp\ccqZUt8d.s 			page 98


 4172 0090 13       		.uleb128 0x13
 4173 0091 2F       		.uleb128 0x2f
 4174 0092 0B       		.uleb128 0xb
 4175 0093 00       		.byte	0
 4176 0094 00       		.byte	0
 4177 0095 0E       		.uleb128 0xe
 4178 0096 13       		.uleb128 0x13
 4179 0097 01       		.byte	0x1
 4180 0098 0B       		.uleb128 0xb
 4181 0099 0B       		.uleb128 0xb
 4182 009a 3A       		.uleb128 0x3a
 4183 009b 0B       		.uleb128 0xb
 4184 009c 3B       		.uleb128 0x3b
 4185 009d 05       		.uleb128 0x5
 4186 009e 01       		.uleb128 0x1
 4187 009f 13       		.uleb128 0x13
 4188 00a0 00       		.byte	0
 4189 00a1 00       		.byte	0
 4190 00a2 0F       		.uleb128 0xf
 4191 00a3 0D       		.uleb128 0xd
 4192 00a4 00       		.byte	0
 4193 00a5 03       		.uleb128 0x3
 4194 00a6 0E       		.uleb128 0xe
 4195 00a7 3A       		.uleb128 0x3a
 4196 00a8 0B       		.uleb128 0xb
 4197 00a9 3B       		.uleb128 0x3b
 4198 00aa 05       		.uleb128 0x5
 4199 00ab 49       		.uleb128 0x49
 4200 00ac 13       		.uleb128 0x13
 4201 00ad 38       		.uleb128 0x38
 4202 00ae 0B       		.uleb128 0xb
 4203 00af 00       		.byte	0
 4204 00b0 00       		.byte	0
 4205 00b1 10       		.uleb128 0x10
 4206 00b2 2E       		.uleb128 0x2e
 4207 00b3 01       		.byte	0x1
 4208 00b4 3F       		.uleb128 0x3f
 4209 00b5 19       		.uleb128 0x19
 4210 00b6 03       		.uleb128 0x3
 4211 00b7 0E       		.uleb128 0xe
 4212 00b8 3A       		.uleb128 0x3a
 4213 00b9 0B       		.uleb128 0xb
 4214 00ba 3B       		.uleb128 0x3b
 4215 00bb 0B       		.uleb128 0xb
 4216 00bc 27       		.uleb128 0x27
 4217 00bd 19       		.uleb128 0x19
 4218 00be 49       		.uleb128 0x49
 4219 00bf 13       		.uleb128 0x13
 4220 00c0 11       		.uleb128 0x11
 4221 00c1 01       		.uleb128 0x1
 4222 00c2 12       		.uleb128 0x12
 4223 00c3 06       		.uleb128 0x6
 4224 00c4 40       		.uleb128 0x40
 4225 00c5 18       		.uleb128 0x18
 4226 00c6 9642     		.uleb128 0x2116
 4227 00c8 19       		.uleb128 0x19
 4228 00c9 01       		.uleb128 0x1
ARM GAS  C:\Users\Admin\AppData\Local\Temp\ccqZUt8d.s 			page 99


 4229 00ca 13       		.uleb128 0x13
 4230 00cb 00       		.byte	0
 4231 00cc 00       		.byte	0
 4232 00cd 11       		.uleb128 0x11
 4233 00ce 34       		.uleb128 0x34
 4234 00cf 00       		.byte	0
 4235 00d0 03       		.uleb128 0x3
 4236 00d1 0E       		.uleb128 0xe
 4237 00d2 3A       		.uleb128 0x3a
 4238 00d3 0B       		.uleb128 0xb
 4239 00d4 3B       		.uleb128 0x3b
 4240 00d5 0B       		.uleb128 0xb
 4241 00d6 49       		.uleb128 0x49
 4242 00d7 13       		.uleb128 0x13
 4243 00d8 02       		.uleb128 0x2
 4244 00d9 18       		.uleb128 0x18
 4245 00da 00       		.byte	0
 4246 00db 00       		.byte	0
 4247 00dc 12       		.uleb128 0x12
 4248 00dd 26       		.uleb128 0x26
 4249 00de 00       		.byte	0
 4250 00df 49       		.uleb128 0x49
 4251 00e0 13       		.uleb128 0x13
 4252 00e1 00       		.byte	0
 4253 00e2 00       		.byte	0
 4254 00e3 13       		.uleb128 0x13
 4255 00e4 2E       		.uleb128 0x2e
 4256 00e5 01       		.byte	0x1
 4257 00e6 3F       		.uleb128 0x3f
 4258 00e7 19       		.uleb128 0x19
 4259 00e8 03       		.uleb128 0x3
 4260 00e9 0E       		.uleb128 0xe
 4261 00ea 3A       		.uleb128 0x3a
 4262 00eb 0B       		.uleb128 0xb
 4263 00ec 3B       		.uleb128 0x3b
 4264 00ed 05       		.uleb128 0x5
 4265 00ee 27       		.uleb128 0x27
 4266 00ef 19       		.uleb128 0x19
 4267 00f0 11       		.uleb128 0x11
 4268 00f1 01       		.uleb128 0x1
 4269 00f2 12       		.uleb128 0x12
 4270 00f3 06       		.uleb128 0x6
 4271 00f4 40       		.uleb128 0x40
 4272 00f5 18       		.uleb128 0x18
 4273 00f6 9642     		.uleb128 0x2116
 4274 00f8 19       		.uleb128 0x19
 4275 00f9 01       		.uleb128 0x1
 4276 00fa 13       		.uleb128 0x13
 4277 00fb 00       		.byte	0
 4278 00fc 00       		.byte	0
 4279 00fd 14       		.uleb128 0x14
 4280 00fe 05       		.uleb128 0x5
 4281 00ff 00       		.byte	0
 4282 0100 03       		.uleb128 0x3
 4283 0101 0E       		.uleb128 0xe
 4284 0102 3A       		.uleb128 0x3a
 4285 0103 0B       		.uleb128 0xb
ARM GAS  C:\Users\Admin\AppData\Local\Temp\ccqZUt8d.s 			page 100


 4286 0104 3B       		.uleb128 0x3b
 4287 0105 05       		.uleb128 0x5
 4288 0106 49       		.uleb128 0x49
 4289 0107 13       		.uleb128 0x13
 4290 0108 02       		.uleb128 0x2
 4291 0109 18       		.uleb128 0x18
 4292 010a 00       		.byte	0
 4293 010b 00       		.byte	0
 4294 010c 15       		.uleb128 0x15
 4295 010d 34       		.uleb128 0x34
 4296 010e 00       		.byte	0
 4297 010f 03       		.uleb128 0x3
 4298 0110 08       		.uleb128 0x8
 4299 0111 3A       		.uleb128 0x3a
 4300 0112 0B       		.uleb128 0xb
 4301 0113 3B       		.uleb128 0x3b
 4302 0114 05       		.uleb128 0x5
 4303 0115 49       		.uleb128 0x49
 4304 0116 13       		.uleb128 0x13
 4305 0117 02       		.uleb128 0x2
 4306 0118 18       		.uleb128 0x18
 4307 0119 00       		.byte	0
 4308 011a 00       		.byte	0
 4309 011b 16       		.uleb128 0x16
 4310 011c 34       		.uleb128 0x34
 4311 011d 00       		.byte	0
 4312 011e 03       		.uleb128 0x3
 4313 011f 0E       		.uleb128 0xe
 4314 0120 3A       		.uleb128 0x3a
 4315 0121 0B       		.uleb128 0xb
 4316 0122 3B       		.uleb128 0x3b
 4317 0123 05       		.uleb128 0x5
 4318 0124 49       		.uleb128 0x49
 4319 0125 13       		.uleb128 0x13
 4320 0126 02       		.uleb128 0x2
 4321 0127 18       		.uleb128 0x18
 4322 0128 00       		.byte	0
 4323 0129 00       		.byte	0
 4324 012a 17       		.uleb128 0x17
 4325 012b 2E       		.uleb128 0x2e
 4326 012c 01       		.byte	0x1
 4327 012d 3F       		.uleb128 0x3f
 4328 012e 19       		.uleb128 0x19
 4329 012f 03       		.uleb128 0x3
 4330 0130 0E       		.uleb128 0xe
 4331 0131 3A       		.uleb128 0x3a
 4332 0132 0B       		.uleb128 0xb
 4333 0133 3B       		.uleb128 0x3b
 4334 0134 05       		.uleb128 0x5
 4335 0135 27       		.uleb128 0x27
 4336 0136 19       		.uleb128 0x19
 4337 0137 11       		.uleb128 0x11
 4338 0138 01       		.uleb128 0x1
 4339 0139 12       		.uleb128 0x12
 4340 013a 06       		.uleb128 0x6
 4341 013b 40       		.uleb128 0x40
 4342 013c 18       		.uleb128 0x18
ARM GAS  C:\Users\Admin\AppData\Local\Temp\ccqZUt8d.s 			page 101


 4343 013d 9742     		.uleb128 0x2117
 4344 013f 19       		.uleb128 0x19
 4345 0140 01       		.uleb128 0x1
 4346 0141 13       		.uleb128 0x13
 4347 0142 00       		.byte	0
 4348 0143 00       		.byte	0
 4349 0144 18       		.uleb128 0x18
 4350 0145 0B       		.uleb128 0xb
 4351 0146 01       		.byte	0x1
 4352 0147 11       		.uleb128 0x11
 4353 0148 01       		.uleb128 0x1
 4354 0149 12       		.uleb128 0x12
 4355 014a 06       		.uleb128 0x6
 4356 014b 00       		.byte	0
 4357 014c 00       		.byte	0
 4358 014d 19       		.uleb128 0x19
 4359 014e 2E       		.uleb128 0x2e
 4360 014f 01       		.byte	0x1
 4361 0150 3F       		.uleb128 0x3f
 4362 0151 19       		.uleb128 0x19
 4363 0152 03       		.uleb128 0x3
 4364 0153 0E       		.uleb128 0xe
 4365 0154 3A       		.uleb128 0x3a
 4366 0155 0B       		.uleb128 0xb
 4367 0156 3B       		.uleb128 0x3b
 4368 0157 05       		.uleb128 0x5
 4369 0158 27       		.uleb128 0x27
 4370 0159 19       		.uleb128 0x19
 4371 015a 49       		.uleb128 0x49
 4372 015b 13       		.uleb128 0x13
 4373 015c 11       		.uleb128 0x11
 4374 015d 01       		.uleb128 0x1
 4375 015e 12       		.uleb128 0x12
 4376 015f 06       		.uleb128 0x6
 4377 0160 40       		.uleb128 0x40
 4378 0161 18       		.uleb128 0x18
 4379 0162 9742     		.uleb128 0x2117
 4380 0164 19       		.uleb128 0x19
 4381 0165 01       		.uleb128 0x1
 4382 0166 13       		.uleb128 0x13
 4383 0167 00       		.byte	0
 4384 0168 00       		.byte	0
 4385 0169 1A       		.uleb128 0x1a
 4386 016a 2E       		.uleb128 0x2e
 4387 016b 00       		.byte	0
 4388 016c 3F       		.uleb128 0x3f
 4389 016d 19       		.uleb128 0x19
 4390 016e 03       		.uleb128 0x3
 4391 016f 0E       		.uleb128 0xe
 4392 0170 3A       		.uleb128 0x3a
 4393 0171 0B       		.uleb128 0xb
 4394 0172 3B       		.uleb128 0x3b
 4395 0173 05       		.uleb128 0x5
 4396 0174 27       		.uleb128 0x27
 4397 0175 19       		.uleb128 0x19
 4398 0176 49       		.uleb128 0x49
 4399 0177 13       		.uleb128 0x13
ARM GAS  C:\Users\Admin\AppData\Local\Temp\ccqZUt8d.s 			page 102


 4400 0178 11       		.uleb128 0x11
 4401 0179 01       		.uleb128 0x1
 4402 017a 12       		.uleb128 0x12
 4403 017b 06       		.uleb128 0x6
 4404 017c 40       		.uleb128 0x40
 4405 017d 18       		.uleb128 0x18
 4406 017e 9742     		.uleb128 0x2117
 4407 0180 19       		.uleb128 0x19
 4408 0181 00       		.byte	0
 4409 0182 00       		.byte	0
 4410 0183 1B       		.uleb128 0x1b
 4411 0184 2E       		.uleb128 0x2e
 4412 0185 01       		.byte	0x1
 4413 0186 3F       		.uleb128 0x3f
 4414 0187 19       		.uleb128 0x19
 4415 0188 03       		.uleb128 0x3
 4416 0189 0E       		.uleb128 0xe
 4417 018a 3A       		.uleb128 0x3a
 4418 018b 0B       		.uleb128 0xb
 4419 018c 3B       		.uleb128 0x3b
 4420 018d 05       		.uleb128 0x5
 4421 018e 27       		.uleb128 0x27
 4422 018f 19       		.uleb128 0x19
 4423 0190 49       		.uleb128 0x49
 4424 0191 13       		.uleb128 0x13
 4425 0192 11       		.uleb128 0x11
 4426 0193 01       		.uleb128 0x1
 4427 0194 12       		.uleb128 0x12
 4428 0195 06       		.uleb128 0x6
 4429 0196 40       		.uleb128 0x40
 4430 0197 18       		.uleb128 0x18
 4431 0198 9642     		.uleb128 0x2116
 4432 019a 19       		.uleb128 0x19
 4433 019b 01       		.uleb128 0x1
 4434 019c 13       		.uleb128 0x13
 4435 019d 00       		.byte	0
 4436 019e 00       		.byte	0
 4437 019f 1C       		.uleb128 0x1c
 4438 01a0 34       		.uleb128 0x34
 4439 01a1 00       		.byte	0
 4440 01a2 03       		.uleb128 0x3
 4441 01a3 0E       		.uleb128 0xe
 4442 01a4 3A       		.uleb128 0x3a
 4443 01a5 0B       		.uleb128 0xb
 4444 01a6 3B       		.uleb128 0x3b
 4445 01a7 05       		.uleb128 0x5
 4446 01a8 49       		.uleb128 0x49
 4447 01a9 13       		.uleb128 0x13
 4448 01aa 3F       		.uleb128 0x3f
 4449 01ab 19       		.uleb128 0x19
 4450 01ac 3C       		.uleb128 0x3c
 4451 01ad 19       		.uleb128 0x19
 4452 01ae 00       		.byte	0
 4453 01af 00       		.byte	0
 4454 01b0 1D       		.uleb128 0x1d
 4455 01b1 34       		.uleb128 0x34
 4456 01b2 00       		.byte	0
ARM GAS  C:\Users\Admin\AppData\Local\Temp\ccqZUt8d.s 			page 103


 4457 01b3 03       		.uleb128 0x3
 4458 01b4 0E       		.uleb128 0xe
 4459 01b5 3A       		.uleb128 0x3a
 4460 01b6 0B       		.uleb128 0xb
 4461 01b7 3B       		.uleb128 0x3b
 4462 01b8 0B       		.uleb128 0xb
 4463 01b9 49       		.uleb128 0x49
 4464 01ba 13       		.uleb128 0x13
 4465 01bb 3F       		.uleb128 0x3f
 4466 01bc 19       		.uleb128 0x19
 4467 01bd 3C       		.uleb128 0x3c
 4468 01be 19       		.uleb128 0x19
 4469 01bf 00       		.byte	0
 4470 01c0 00       		.byte	0
 4471 01c1 00       		.byte	0
 4472              		.section	.debug_aranges,"",%progbits
 4473 0000 7C000000 		.4byte	0x7c
 4474 0004 0200     		.2byte	0x2
 4475 0006 00000000 		.4byte	.Ldebug_info0
 4476 000a 04       		.byte	0x4
 4477 000b 00       		.byte	0
 4478 000c 0000     		.2byte	0
 4479 000e 0000     		.2byte	0
 4480 0010 00000000 		.4byte	.LFB0
 4481 0014 A4040000 		.4byte	.LFE0-.LFB0
 4482 0018 00000000 		.4byte	.LFB1
 4483 001c D8000000 		.4byte	.LFE1-.LFB1
 4484 0020 00000000 		.4byte	.LFB2
 4485 0024 38010000 		.4byte	.LFE2-.LFB2
 4486 0028 00000000 		.4byte	.LFB3
 4487 002c 6C000000 		.4byte	.LFE3-.LFB3
 4488 0030 00000000 		.4byte	.LFB4
 4489 0034 B4030000 		.4byte	.LFE4-.LFB4
 4490 0038 00000000 		.4byte	.LFB5
 4491 003c 5C020000 		.4byte	.LFE5-.LFB5
 4492 0040 00000000 		.4byte	.LFB6
 4493 0044 50000000 		.4byte	.LFE6-.LFB6
 4494 0048 00000000 		.4byte	.LFB7
 4495 004c 24000000 		.4byte	.LFE7-.LFB7
 4496 0050 00000000 		.4byte	.LFB8
 4497 0054 4C000000 		.4byte	.LFE8-.LFB8
 4498 0058 00000000 		.4byte	.LFB9
 4499 005c C0000000 		.4byte	.LFE9-.LFB9
 4500 0060 00000000 		.4byte	.LFB10
 4501 0064 E8000000 		.4byte	.LFE10-.LFB10
 4502 0068 00000000 		.4byte	.LFB11
 4503 006c 58010000 		.4byte	.LFE11-.LFB11
 4504 0070 00000000 		.4byte	.LFB12
 4505 0074 70000000 		.4byte	.LFE12-.LFB12
 4506 0078 00000000 		.4byte	0
 4507 007c 00000000 		.4byte	0
 4508              		.section	.debug_ranges,"",%progbits
 4509              	.Ldebug_ranges0:
 4510 0000 00000000 		.4byte	.LFB0
 4511 0004 A4040000 		.4byte	.LFE0
 4512 0008 00000000 		.4byte	.LFB1
 4513 000c D8000000 		.4byte	.LFE1
ARM GAS  C:\Users\Admin\AppData\Local\Temp\ccqZUt8d.s 			page 104


 4514 0010 00000000 		.4byte	.LFB2
 4515 0014 38010000 		.4byte	.LFE2
 4516 0018 00000000 		.4byte	.LFB3
 4517 001c 6C000000 		.4byte	.LFE3
 4518 0020 00000000 		.4byte	.LFB4
 4519 0024 B4030000 		.4byte	.LFE4
 4520 0028 00000000 		.4byte	.LFB5
 4521 002c 5C020000 		.4byte	.LFE5
 4522 0030 00000000 		.4byte	.LFB6
 4523 0034 50000000 		.4byte	.LFE6
 4524 0038 00000000 		.4byte	.LFB7
 4525 003c 24000000 		.4byte	.LFE7
 4526 0040 00000000 		.4byte	.LFB8
 4527 0044 4C000000 		.4byte	.LFE8
 4528 0048 00000000 		.4byte	.LFB9
 4529 004c C0000000 		.4byte	.LFE9
 4530 0050 00000000 		.4byte	.LFB10
 4531 0054 E8000000 		.4byte	.LFE10
 4532 0058 00000000 		.4byte	.LFB11
 4533 005c 58010000 		.4byte	.LFE11
 4534 0060 00000000 		.4byte	.LFB12
 4535 0064 70000000 		.4byte	.LFE12
 4536 0068 00000000 		.4byte	0
 4537 006c 00000000 		.4byte	0
 4538              		.section	.debug_line,"",%progbits
 4539              	.Ldebug_line0:
 4540 0000 67040000 		.section	.debug_str,"MS",%progbits,1
 4540      02005A00 
 4540      00000201 
 4540      FB0E0D00 
 4540      01010101 
 4541              	.LASF38:
 4542 0000 70537461 		.ascii	"pStatusBlock\000"
 4542      74757342 
 4542      6C6F636B 
 4542      00
 4543              	.LASF32:
 4544 000d 545F5553 		.ascii	"T_USB_EP_SETTINGS_BLOCK\000"
 4544      425F4550 
 4544      5F534554 
 4544      54494E47 
 4544      535F424C 
 4545              	.LASF36:
 4546 0025 636F756E 		.ascii	"count\000"
 4546      7400
 4547              	.LASF10:
 4548 002b 75696E74 		.ascii	"uint16\000"
 4548      313600
 4549              	.LASF98:
 4550 0032 5553425F 		.ascii	"USB_configuration\000"
 4550      636F6E66 
 4550      69677572 
 4550      6174696F 
 4550      6E00
 4551              	.LASF44:
 4552 0044 6570436E 		.ascii	"epCnt0\000"
 4552      743000
ARM GAS  C:\Users\Admin\AppData\Local\Temp\ccqZUt8d.s 			page 105


 4553              	.LASF114:
 4554 004b 474E5520 		.ascii	"GNU C11 5.4.1 20160609 (release) [ARM/embedded-5-br"
 4554      43313120 
 4554      352E342E 
 4554      31203230 
 4554      31363036 
 4555 007e 616E6368 		.ascii	"anch revision 237715] -mcpu=cortex-m3 -mthumb -g -O"
 4555      20726576 
 4555      6973696F 
 4555      6E203233 
 4555      37373135 
 4556 00b1 30202D66 		.ascii	"0 -ffunction-sections -ffat-lto-objects\000"
 4556      66756E63 
 4556      74696F6E 
 4556      2D736563 
 4556      74696F6E 
 4557              	.LASF93:
 4558 00d9 5553425F 		.ascii	"USB_SetEndpointHalt\000"
 4558      53657445 
 4558      6E64706F 
 4558      696E7448 
 4558      616C7400 
 4559              	.LASF78:
 4560 00ed 63757245 		.ascii	"curEp\000"
 4560      7000
 4561              	.LASF87:
 4562 00f3 636F6E66 		.ascii	"confIndex\000"
 4562      496E6465 
 4562      7800
 4563              	.LASF7:
 4564 00fd 6C6F6E67 		.ascii	"long long unsigned int\000"
 4564      206C6F6E 
 4564      6720756E 
 4564      7369676E 
 4564      65642069 
 4565              	.LASF23:
 4566 0114 61646472 		.ascii	"addr\000"
 4566      00
 4567              	.LASF63:
 4568 0119 696E7465 		.ascii	"interfaceNumber\000"
 4568      72666163 
 4568      654E756D 
 4568      62657200 
 4569              	.LASF107:
 4570 0129 5553425F 		.ascii	"USB_interfaceSetting\000"
 4570      696E7465 
 4570      72666163 
 4570      65536574 
 4570      74696E67 
 4571              	.LASF113:
 4572 013e 5553425F 		.ascii	"USB_currentTD\000"
 4572      63757272 
 4572      656E7454 
 4572      4400
 4573              	.LASF92:
 4574 014c 65704E75 		.ascii	"epNumber\000"
 4574      6D626572 
ARM GAS  C:\Users\Admin\AppData\Local\Temp\ccqZUt8d.s 			page 106


 4574      00
 4575              	.LASF88:
 4576 0155 5553425F 		.ascii	"USB_GetInterfaceClassTablePtr\000"
 4576      47657449 
 4576      6E746572 
 4576      66616365 
 4576      436C6173 
 4577              	.LASF6:
 4578 0173 6C6F6E67 		.ascii	"long long int\000"
 4578      206C6F6E 
 4578      6720696E 
 4578      7400
 4579              	.LASF0:
 4580 0181 7369676E 		.ascii	"signed char\000"
 4580      65642063 
 4580      68617200 
 4581              	.LASF5:
 4582 018d 6C6F6E67 		.ascii	"long unsigned int\000"
 4582      20756E73 
 4582      69676E65 
 4582      6420696E 
 4582      7400
 4583              	.LASF108:
 4584 019f 5553425F 		.ascii	"USB_interfaceSettingLast\000"
 4584      696E7465 
 4584      72666163 
 4584      65536574 
 4584      74696E67 
 4585              	.LASF102:
 4586 01b8 5553425F 		.ascii	"USB_TABLE\000"
 4586      5441424C 
 4586      4500
 4587              	.LASF74:
 4588 01c2 5553425F 		.ascii	"USB_EpStateInit\000"
 4588      45705374 
 4588      61746549 
 4588      6E697400 
 4589              	.LASF41:
 4590 01d2 545F5553 		.ascii	"T_USB_LUT\000"
 4590      425F4C55 
 4590      5400
 4591              	.LASF4:
 4592 01dc 6C6F6E67 		.ascii	"long int\000"
 4592      20696E74 
 4592      00
 4593              	.LASF82:
 4594 01e5 63646343 		.ascii	"cdcComNums\000"
 4594      6F6D4E75 
 4594      6D7300
 4595              	.LASF104:
 4596 01f0 5553425F 		.ascii	"USB_MSOS_DESCRIPTOR\000"
 4596      4D534F53 
 4596      5F444553 
 4596      43524950 
 4596      544F5200 
 4597              	.LASF9:
 4598 0204 75696E74 		.ascii	"uint8\000"
ARM GAS  C:\Users\Admin\AppData\Local\Temp\ccqZUt8d.s 			page 107


 4598      3800
 4599              	.LASF22:
 4600 020a 6570546F 		.ascii	"epToggle\000"
 4600      67676C65 
 4600      00
 4601              	.LASF21:
 4602 0213 68774570 		.ascii	"hwEpState\000"
 4602      53746174 
 4602      6500
 4603              	.LASF50:
 4604 021d 65705372 		.ascii	"epSr\000"
 4604      00
 4605              	.LASF11:
 4606 0222 75696E74 		.ascii	"uint32\000"
 4606      333200
 4607              	.LASF37:
 4608 0229 70446174 		.ascii	"pData\000"
 4608      6100
 4609              	.LASF39:
 4610 022f 545F5553 		.ascii	"T_USB_TD\000"
 4610      425F5444 
 4610      00
 4611              	.LASF95:
 4612 0238 5553425F 		.ascii	"USB_ValidateAlternateSetting\000"
 4612      56616C69 
 4612      64617465 
 4612      416C7465 
 4612      726E6174 
 4613              	.LASF24:
 4614 0255 65704D6F 		.ascii	"epMode\000"
 4614      646500
 4615              	.LASF79:
 4616 025c 65705479 		.ascii	"epType\000"
 4616      706500
 4617              	.LASF65:
 4618 0263 626D5265 		.ascii	"bmRequestType\000"
 4618      71756573 
 4618      74547970 
 4618      6500
 4619              	.LASF51:
 4620 0271 72657365 		.ascii	"reserved\000"
 4620      72766564 
 4620      00
 4621              	.LASF72:
 4622 027a 5553425F 		.ascii	"USB_ReadDieID\000"
 4622      52656164 
 4622      44696549 
 4622      4400
 4623              	.LASF35:
 4624 0288 545F5553 		.ascii	"T_USB_XFER_STATUS_BLOCK\000"
 4624      425F5846 
 4624      45525F53 
 4624      54415455 
 4624      535F424C 
 4625              	.LASF28:
 4626 02a0 545F5553 		.ascii	"T_USB_EP_CTL_BLOCK\000"
 4626      425F4550 
ARM GAS  C:\Users\Admin\AppData\Local\Temp\ccqZUt8d.s 			page 108


 4626      5F43544C 
 4626      5F424C4F 
 4626      434B00
 4627              	.LASF8:
 4628 02b3 756E7369 		.ascii	"unsigned int\000"
 4628      676E6564 
 4628      20696E74 
 4628      00
 4629              	.LASF101:
 4630 02c0 5553425F 		.ascii	"USB_DEVICE0_DESCR\000"
 4630      44455649 
 4630      4345305F 
 4630      44455343 
 4630      5200
 4631              	.LASF52:
 4632 02d2 72775761 		.ascii	"rwWa\000"
 4632      00
 4633              	.LASF3:
 4634 02d7 73686F72 		.ascii	"short unsigned int\000"
 4634      7420756E 
 4634      7369676E 
 4634      65642069 
 4634      6E7400
 4635              	.LASF80:
 4636 02ea 70446573 		.ascii	"pDescr\000"
 4636      637200
 4637              	.LASF48:
 4638 02f1 65704366 		.ascii	"epCfg\000"
 4638      6700
 4639              	.LASF86:
 4640 02f7 5553425F 		.ascii	"USB_GetConfigTablePtr\000"
 4640      47657443 
 4640      6F6E6669 
 4640      67546162 
 4640      6C655074 
 4641              	.LASF89:
 4642 030d 70496E74 		.ascii	"pInterfaceClass\000"
 4642      65726661 
 4642      6365436C 
 4642      61737300 
 4643              	.LASF60:
 4644 031d 61726245 		.ascii	"arbEp\000"
 4644      7000
 4645              	.LASF27:
 4646 0323 696E7465 		.ascii	"interface\000"
 4646      72666163 
 4646      6500
 4647              	.LASF91:
 4648 032d 5553425F 		.ascii	"USB_TerminateEP\000"
 4648      5465726D 
 4648      696E6174 
 4648      65455000 
 4649              	.LASF100:
 4650 033d 5553425F 		.ascii	"USB_deviceStatus\000"
 4650      64657669 
 4650      63655374 
 4650      61747573 
ARM GAS  C:\Users\Admin\AppData\Local\Temp\ccqZUt8d.s 			page 109


 4650      00
 4651              	.LASF59:
 4652 034e 5553425F 		.ascii	"USB_sie_eps_struct\000"
 4652      7369655F 
 4652      6570735F 
 4652      73747275 
 4652      637400
 4653              	.LASF61:
 4654 0361 5553425F 		.ascii	"USB_arb_eps_struct\000"
 4654      6172625F 
 4654      6570735F 
 4654      73747275 
 4654      637400
 4655              	.LASF68:
 4656 0374 64657363 		.ascii	"descrLength\000"
 4656      724C656E 
 4656      67746800 
 4657              	.LASF18:
 4658 0380 73697A65 		.ascii	"sizetype\000"
 4658      74797065 
 4658      00
 4659              	.LASF85:
 4660 0389 5553425F 		.ascii	"USB_HandleStandardRqst\000"
 4660      48616E64 
 4660      6C655374 
 4660      616E6461 
 4660      72645271 
 4661              	.LASF58:
 4662 03a0 73696545 		.ascii	"sieEp\000"
 4662      7000
 4663              	.LASF117:
 4664 03a6 5553425F 		.ascii	"USB_GetDeviceTablePtr\000"
 4664      47657444 
 4664      65766963 
 4664      65546162 
 4664      6C655074 
 4665              	.LASF40:
 4666 03bc 705F6C69 		.ascii	"p_list\000"
 4666      737400
 4667              	.LASF81:
 4668 03c3 62756666 		.ascii	"buffCount\000"
 4668      436F756E 
 4668      7400
 4669              	.LASF19:
 4670 03cd 61747472 		.ascii	"attrib\000"
 4670      696200
 4671              	.LASF97:
 4672 03d4 5553425F 		.ascii	"USB_device\000"
 4672      64657669 
 4672      636500
 4673              	.LASF73:
 4674 03df 5553425F 		.ascii	"USB_ConfigReg\000"
 4674      436F6E66 
 4674      69675265 
 4674      6700
 4675              	.LASF55:
 4676 03ed 72775261 		.ascii	"rwRaMsb\000"
ARM GAS  C:\Users\Admin\AppData\Local\Temp\ccqZUt8d.s 			page 110


 4676      4D736200 
 4677              	.LASF90:
 4678 03f5 63757272 		.ascii	"currentInterfacesNum\000"
 4678      656E7449 
 4678      6E746572 
 4678      66616365 
 4678      734E756D 
 4679              	.LASF45:
 4680 040a 6570436E 		.ascii	"epCnt1\000"
 4680      743100
 4681              	.LASF112:
 4682 0411 5553425F 		.ascii	"USB_EP\000"
 4682      455000
 4683              	.LASF46:
 4684 0418 65704372 		.ascii	"epCr0\000"
 4684      3000
 4685              	.LASF94:
 4686 041e 5553425F 		.ascii	"USB_ClearEndpointHalt\000"
 4686      436C6561 
 4686      72456E64 
 4686      706F696E 
 4686      7448616C 
 4687              	.LASF12:
 4688 0434 666C6F61 		.ascii	"float\000"
 4688      7400
 4689              	.LASF20:
 4690 043a 61706945 		.ascii	"apiEpState\000"
 4690      70537461 
 4690      746500
 4691              	.LASF77:
 4692 0445 636C6561 		.ascii	"clearAltSetting\000"
 4692      72416C74 
 4692      53657474 
 4692      696E6700 
 4693              	.LASF64:
 4694 0455 636F6E66 		.ascii	"configurationN\000"
 4694      69677572 
 4694      6174696F 
 4694      6E4E00
 4695              	.LASF109:
 4696 0464 5553425F 		.ascii	"USB_deviceAddress\000"
 4696      64657669 
 4696      63654164 
 4696      64726573 
 4696      7300
 4697              	.LASF57:
 4698 0476 5553425F 		.ascii	"USB_arb_ep_struct\000"
 4698      6172625F 
 4698      65705F73 
 4698      74727563 
 4698      7400
 4699              	.LASF66:
 4700 0488 70537472 		.ascii	"pStr\000"
 4700      00
 4701              	.LASF16:
 4702 048d 72656738 		.ascii	"reg8\000"
 4702      00
ARM GAS  C:\Users\Admin\AppData\Local\Temp\ccqZUt8d.s 			page 111


 4703              	.LASF76:
 4704 0492 64657363 		.ascii	"descr\000"
 4704      7200
 4705              	.LASF1:
 4706 0498 756E7369 		.ascii	"unsigned char\000"
 4706      676E6564 
 4706      20636861 
 4706      7200
 4707              	.LASF105:
 4708 04a6 5553425F 		.ascii	"USB_idSerialNumberStringDescriptor\000"
 4708      69645365 
 4708      7269616C 
 4708      4E756D62 
 4708      65725374 
 4709              	.LASF2:
 4710 04c9 73686F72 		.ascii	"short int\000"
 4710      7420696E 
 4710      7400
 4711              	.LASF116:
 4712 04d3 433A5C55 		.ascii	"C:\\Users\\Admin\\Dropbox\\My PC (DESKTOP-JTCBHVV)\\"
 4712      73657273 
 4712      5C41646D 
 4712      696E5C44 
 4712      726F7062 
 4713 0502 446F776E 		.ascii	"Downloads\\fw comp\\firmware_binaries_Firmware for "
 4713      6C6F6164 
 4713      735C6677 
 4713      20636F6D 
 4713      705C6669 
 4714 0533 53686F6E 		.ascii	"ShonitV2.2 PCB AI100 N_seriesV2.4_devlopment\\Desig"
 4714      69745632 
 4714      2E322050 
 4714      43422041 
 4714      49313030 
 4715 0565 6E30312E 		.ascii	"n01.cydsn\000"
 4715      63796473 
 4715      6E00
 4716              	.LASF54:
 4717 056f 72775261 		.ascii	"rwRa\000"
 4717      00
 4718              	.LASF53:
 4719 0574 72775761 		.ascii	"rwWaMsb\000"
 4719      4D736200 
 4720              	.LASF115:
 4721 057c 47656E65 		.ascii	"Generated_Source\\PSoC5\\USB_std.c\000"
 4721      72617465 
 4721      645F536F 
 4721      75726365 
 4721      5C50536F 
 4722              	.LASF103:
 4723 059d 5553425F 		.ascii	"USB_STRING_DESCRIPTORS\000"
 4723      53545249 
 4723      4E475F44 
 4723      45534352 
 4723      4950544F 
 4724              	.LASF30:
 4725 05b4 61747472 		.ascii	"attributes\000"
ARM GAS  C:\Users\Admin\AppData\Local\Temp\ccqZUt8d.s 			page 112


 4725      69627574 
 4725      657300
 4726              	.LASF13:
 4727 05bf 646F7562 		.ascii	"double\000"
 4727      6C6500
 4728              	.LASF110:
 4729 05c6 5553425F 		.ascii	"USB_interfaceStatus\000"
 4729      696E7465 
 4729      72666163 
 4729      65537461 
 4729      74757300 
 4730              	.LASF17:
 4731 05da 6C6F6E67 		.ascii	"long double\000"
 4731      20646F75 
 4731      626C6500 
 4732              	.LASF29:
 4733 05e6 616C7453 		.ascii	"altSetting\000"
 4733      65747469 
 4733      6E6700
 4734              	.LASF15:
 4735 05f1 63686172 		.ascii	"char\000"
 4735      00
 4736              	.LASF69:
 4737 05f6 5553425F 		.ascii	"USB_tBuffer\000"
 4737      74427566 
 4737      66657200 
 4738              	.LASF26:
 4739 0602 62756666 		.ascii	"bufferSize\000"
 4739      65725369 
 4739      7A6500
 4740              	.LASF62:
 4741 060d 72657175 		.ascii	"requestHandled\000"
 4741      65737448 
 4741      616E646C 
 4741      656400
 4742              	.LASF25:
 4743 061c 62756666 		.ascii	"buffOffset\000"
 4743      4F666673 
 4743      657400
 4744              	.LASF14:
 4745 0627 63686172 		.ascii	"char8\000"
 4745      3800
 4746              	.LASF71:
 4747 062d 756E6971 		.ascii	"uniqueId\000"
 4747      75654964 
 4747      00
 4748              	.LASF75:
 4749 0636 5553425F 		.ascii	"USB_Config\000"
 4749      436F6E66 
 4749      696700
 4750              	.LASF111:
 4751 0641 5553425F 		.ascii	"USB_interfaceClass\000"
 4751      696E7465 
 4751      72666163 
 4751      65436C61 
 4751      737300
 4752              	.LASF67:
ARM GAS  C:\Users\Admin\AppData\Local\Temp\ccqZUt8d.s 			page 113


 4753 0654 6E537472 		.ascii	"nStr\000"
 4753      00
 4754              	.LASF47:
 4755 0659 5553425F 		.ascii	"USB_sie_ep_struct\000"
 4755      7369655F 
 4755      65705F73 
 4755      74727563 
 4755      7400
 4756              	.LASF33:
 4757 066b 73746174 		.ascii	"status\000"
 4757      757300
 4758              	.LASF56:
 4759 0672 72774472 		.ascii	"rwDr\000"
 4759      00
 4760              	.LASF96:
 4761 0677 63757249 		.ascii	"curInterfacesNum\000"
 4761      6E746572 
 4761      66616365 
 4761      734E756D 
 4761      00
 4762              	.LASF70:
 4763 0688 70546D70 		.ascii	"pTmp\000"
 4763      00
 4764              	.LASF84:
 4765 068d 696E7465 		.ascii	"interfaceNum\000"
 4765      72666163 
 4765      654E756D 
 4765      00
 4766              	.LASF42:
 4767 069a 65704461 		.ascii	"epData\000"
 4767      746100
 4768              	.LASF31:
 4769 06a1 624D6973 		.ascii	"bMisc\000"
 4769      6300
 4770              	.LASF43:
 4771 06a7 5553425F 		.ascii	"USB_ep0_data_struct\000"
 4771      6570305F 
 4771      64617461 
 4771      5F737472 
 4771      75637400 
 4772              	.LASF34:
 4773 06bb 6C656E67 		.ascii	"length\000"
 4773      746800
 4774              	.LASF49:
 4775 06c2 6570496E 		.ascii	"epIntEn\000"
 4775      74456E00 
 4776              	.LASF99:
 4777 06ca 5553425F 		.ascii	"USB_configurationChanged\000"
 4777      636F6E66 
 4777      69677572 
 4777      6174696F 
 4777      6E436861 
 4778              	.LASF106:
 4779 06e3 5553425F 		.ascii	"USB_interfaceNumber\000"
 4779      696E7465 
 4779      72666163 
 4779      654E756D 
ARM GAS  C:\Users\Admin\AppData\Local\Temp\ccqZUt8d.s 			page 114


 4779      62657200 
 4780              	.LASF83:
 4781 06f7 5553425F 		.ascii	"USB_ConfigAltChanged\000"
 4781      436F6E66 
 4781      6967416C 
 4781      74436861 
 4781      6E676564 
 4782              		.ident	"GCC: (GNU Tools for ARM Embedded Processors) 5.4.1 20160609 (release) [ARM/embedded-5-bran
