ARM GAS  C:\Users\Admin\AppData\Local\Temp\cchDS2nB.s 			page 1


   1              		.syntax unified
   2              		.cpu cortex-m3
   3              		.fpu softvfp
   4              		.eabi_attribute 20, 1
   5              		.eabi_attribute 21, 1
   6              		.eabi_attribute 23, 3
   7              		.eabi_attribute 24, 1
   8              		.eabi_attribute 25, 1
   9              		.eabi_attribute 26, 1
  10              		.eabi_attribute 30, 6
  11              		.eabi_attribute 34, 1
  12              		.eabi_attribute 18, 4
  13              		.thumb
  14              		.syntax unified
  15              		.file	"ADC_SAR_Seq_SAR.c"
  16              		.text
  17              	.Ltext0:
  18              		.cfi_sections	.debug_frame
  19              		.global	ADC_SAR_Seq_SAR_initVar
  20              		.bss
  21              		.type	ADC_SAR_Seq_SAR_initVar, %object
  22              		.size	ADC_SAR_Seq_SAR_initVar, 1
  23              	ADC_SAR_Seq_SAR_initVar:
  24 0000 00       		.space	1
  25              		.comm	ADC_SAR_Seq_SAR_offset,2,2
  26              		.comm	ADC_SAR_Seq_SAR_countsPerVolt,2,2
  27              		.comm	ADC_SAR_Seq_SAR_countsPer10Volt,4,4
  28              		.comm	ADC_SAR_Seq_SAR_shift,2,2
  29              		.section	.text.ADC_SAR_Seq_SAR_Start,"ax",%progbits
  30              		.align	2
  31              		.global	ADC_SAR_Seq_SAR_Start
  32              		.thumb
  33              		.thumb_func
  34              		.type	ADC_SAR_Seq_SAR_Start, %function
  35              	ADC_SAR_Seq_SAR_Start:
  36              	.LFB0:
  37              		.file 1 "Generated_Source\\PSoC5\\ADC_SAR_Seq_SAR.c"
   1:Generated_Source\PSoC5/ADC_SAR_Seq_SAR.c **** /*******************************************************************************
   2:Generated_Source\PSoC5/ADC_SAR_Seq_SAR.c **** * File Name: ADC_SAR_Seq_SAR.c
   3:Generated_Source\PSoC5/ADC_SAR_Seq_SAR.c **** * Version 3.10
   4:Generated_Source\PSoC5/ADC_SAR_Seq_SAR.c **** *
   5:Generated_Source\PSoC5/ADC_SAR_Seq_SAR.c **** * Description:
   6:Generated_Source\PSoC5/ADC_SAR_Seq_SAR.c **** *  This file provides the source code to the API for the Successive
   7:Generated_Source\PSoC5/ADC_SAR_Seq_SAR.c **** *  approximation ADC Component.
   8:Generated_Source\PSoC5/ADC_SAR_Seq_SAR.c **** *
   9:Generated_Source\PSoC5/ADC_SAR_Seq_SAR.c **** * Note:
  10:Generated_Source\PSoC5/ADC_SAR_Seq_SAR.c **** *
  11:Generated_Source\PSoC5/ADC_SAR_Seq_SAR.c **** ********************************************************************************
  12:Generated_Source\PSoC5/ADC_SAR_Seq_SAR.c **** * Copyright 2008-2015, Cypress Semiconductor Corporation.  All rights reserved.
  13:Generated_Source\PSoC5/ADC_SAR_Seq_SAR.c **** * You may use this file only in accordance with the license, terms, conditions,
  14:Generated_Source\PSoC5/ADC_SAR_Seq_SAR.c **** * disclaimers, and limitations in the end user license agreement accompanying
  15:Generated_Source\PSoC5/ADC_SAR_Seq_SAR.c **** * the software package with which this file was provided.
  16:Generated_Source\PSoC5/ADC_SAR_Seq_SAR.c **** *******************************************************************************/
  17:Generated_Source\PSoC5/ADC_SAR_Seq_SAR.c **** 
  18:Generated_Source\PSoC5/ADC_SAR_Seq_SAR.c **** #include "CyLib.h"
  19:Generated_Source\PSoC5/ADC_SAR_Seq_SAR.c **** #include "ADC_SAR_Seq_SAR.h"
  20:Generated_Source\PSoC5/ADC_SAR_Seq_SAR.c **** 
ARM GAS  C:\Users\Admin\AppData\Local\Temp\cchDS2nB.s 			page 2


  21:Generated_Source\PSoC5/ADC_SAR_Seq_SAR.c **** #if(ADC_SAR_Seq_SAR_DEFAULT_INTERNAL_CLK)
  22:Generated_Source\PSoC5/ADC_SAR_Seq_SAR.c ****     #include "ADC_SAR_Seq_SAR_theACLK.h"
  23:Generated_Source\PSoC5/ADC_SAR_Seq_SAR.c **** #endif /* End ADC_SAR_Seq_SAR_DEFAULT_INTERNAL_CLK */
  24:Generated_Source\PSoC5/ADC_SAR_Seq_SAR.c **** 
  25:Generated_Source\PSoC5/ADC_SAR_Seq_SAR.c **** 
  26:Generated_Source\PSoC5/ADC_SAR_Seq_SAR.c **** /***************************************
  27:Generated_Source\PSoC5/ADC_SAR_Seq_SAR.c **** * Forward function references
  28:Generated_Source\PSoC5/ADC_SAR_Seq_SAR.c **** ***************************************/
  29:Generated_Source\PSoC5/ADC_SAR_Seq_SAR.c **** static void ADC_SAR_Seq_SAR_CalcGain(uint8 resolution);
  30:Generated_Source\PSoC5/ADC_SAR_Seq_SAR.c **** 
  31:Generated_Source\PSoC5/ADC_SAR_Seq_SAR.c **** 
  32:Generated_Source\PSoC5/ADC_SAR_Seq_SAR.c **** /***************************************
  33:Generated_Source\PSoC5/ADC_SAR_Seq_SAR.c **** * Global data allocation
  34:Generated_Source\PSoC5/ADC_SAR_Seq_SAR.c **** ***************************************/
  35:Generated_Source\PSoC5/ADC_SAR_Seq_SAR.c **** uint8 ADC_SAR_Seq_SAR_initVar = 0u;
  36:Generated_Source\PSoC5/ADC_SAR_Seq_SAR.c **** volatile int16 ADC_SAR_Seq_SAR_offset;
  37:Generated_Source\PSoC5/ADC_SAR_Seq_SAR.c **** volatile int16 ADC_SAR_Seq_SAR_countsPerVolt;     /* Obsolete Gain compensation */
  38:Generated_Source\PSoC5/ADC_SAR_Seq_SAR.c **** volatile int32 ADC_SAR_Seq_SAR_countsPer10Volt;   /* Gain compensation */
  39:Generated_Source\PSoC5/ADC_SAR_Seq_SAR.c **** volatile int16 ADC_SAR_Seq_SAR_shift;
  40:Generated_Source\PSoC5/ADC_SAR_Seq_SAR.c **** 
  41:Generated_Source\PSoC5/ADC_SAR_Seq_SAR.c **** 
  42:Generated_Source\PSoC5/ADC_SAR_Seq_SAR.c **** /*******************************************************************************
  43:Generated_Source\PSoC5/ADC_SAR_Seq_SAR.c **** * Function Name: ADC_SAR_Seq_SAR_Start
  44:Generated_Source\PSoC5/ADC_SAR_Seq_SAR.c **** ********************************************************************************
  45:Generated_Source\PSoC5/ADC_SAR_Seq_SAR.c **** *
  46:Generated_Source\PSoC5/ADC_SAR_Seq_SAR.c **** * Summary:
  47:Generated_Source\PSoC5/ADC_SAR_Seq_SAR.c **** *  This is the preferred method to begin component operation.
  48:Generated_Source\PSoC5/ADC_SAR_Seq_SAR.c **** *  ADC_SAR_Seq_SAR_Start() sets the initVar variable, calls the
  49:Generated_Source\PSoC5/ADC_SAR_Seq_SAR.c **** *  ADC_SAR_Seq_SAR_Init() function, and then calls the
  50:Generated_Source\PSoC5/ADC_SAR_Seq_SAR.c **** *  ADC_SAR_Seq_SAR_Enable() function.
  51:Generated_Source\PSoC5/ADC_SAR_Seq_SAR.c **** *
  52:Generated_Source\PSoC5/ADC_SAR_Seq_SAR.c **** * Parameters:
  53:Generated_Source\PSoC5/ADC_SAR_Seq_SAR.c **** *  None.
  54:Generated_Source\PSoC5/ADC_SAR_Seq_SAR.c **** *
  55:Generated_Source\PSoC5/ADC_SAR_Seq_SAR.c **** * Return:
  56:Generated_Source\PSoC5/ADC_SAR_Seq_SAR.c **** *  None.
  57:Generated_Source\PSoC5/ADC_SAR_Seq_SAR.c **** *
  58:Generated_Source\PSoC5/ADC_SAR_Seq_SAR.c **** * Global variables:
  59:Generated_Source\PSoC5/ADC_SAR_Seq_SAR.c **** *  The ADC_SAR_Seq_SAR_initVar variable is used to indicate when/if initial
  60:Generated_Source\PSoC5/ADC_SAR_Seq_SAR.c **** *  configuration of this component has happened. The variable is initialized to
  61:Generated_Source\PSoC5/ADC_SAR_Seq_SAR.c **** *  zero and set to 1 the first time ADC_Start() is called. This allows for
  62:Generated_Source\PSoC5/ADC_SAR_Seq_SAR.c **** *  component Re-Start without re-initialization in all subsequent calls to the
  63:Generated_Source\PSoC5/ADC_SAR_Seq_SAR.c **** *  ADC_SAR_Seq_SAR_Start() routine.
  64:Generated_Source\PSoC5/ADC_SAR_Seq_SAR.c **** *  If re-initialization of the component is required the variable should be set
  65:Generated_Source\PSoC5/ADC_SAR_Seq_SAR.c **** *  to zero before call of ADC_SAR_Seq_SAR_Start() routine, or the user may call
  66:Generated_Source\PSoC5/ADC_SAR_Seq_SAR.c **** *  ADC_SAR_Seq_SAR_Init() and ADC_SAR_Seq_SAR_Enable() as done in the
  67:Generated_Source\PSoC5/ADC_SAR_Seq_SAR.c **** *  ADC_SAR_Seq_SAR_Start() routine.
  68:Generated_Source\PSoC5/ADC_SAR_Seq_SAR.c **** *
  69:Generated_Source\PSoC5/ADC_SAR_Seq_SAR.c **** * Side Effect:
  70:Generated_Source\PSoC5/ADC_SAR_Seq_SAR.c **** *  If the initVar variable is already set, this function only calls the
  71:Generated_Source\PSoC5/ADC_SAR_Seq_SAR.c **** *  ADC_SAR_Seq_SAR_Enable() function.
  72:Generated_Source\PSoC5/ADC_SAR_Seq_SAR.c **** *
  73:Generated_Source\PSoC5/ADC_SAR_Seq_SAR.c **** *******************************************************************************/
  74:Generated_Source\PSoC5/ADC_SAR_Seq_SAR.c **** void ADC_SAR_Seq_SAR_Start(void)
  75:Generated_Source\PSoC5/ADC_SAR_Seq_SAR.c **** {
  38              		.loc 1 75 0
  39              		.cfi_startproc
ARM GAS  C:\Users\Admin\AppData\Local\Temp\cchDS2nB.s 			page 3


  40              		@ args = 0, pretend = 0, frame = 0
  41              		@ frame_needed = 1, uses_anonymous_args = 0
  42 0000 80B5     		push	{r7, lr}
  43              		.cfi_def_cfa_offset 8
  44              		.cfi_offset 7, -8
  45              		.cfi_offset 14, -4
  46 0002 00AF     		add	r7, sp, #0
  47              		.cfi_def_cfa_register 7
  76:Generated_Source\PSoC5/ADC_SAR_Seq_SAR.c **** 
  77:Generated_Source\PSoC5/ADC_SAR_Seq_SAR.c ****     /* If not Initialized then initialize all required hardware and software */
  78:Generated_Source\PSoC5/ADC_SAR_Seq_SAR.c ****     if(ADC_SAR_Seq_SAR_initVar == 0u)
  48              		.loc 1 78 0
  49 0004 064B     		ldr	r3, .L3
  50 0006 1B78     		ldrb	r3, [r3]	@ zero_extendqisi2
  51 0008 002B     		cmp	r3, #0
  52 000a 04D1     		bne	.L2
  79:Generated_Source\PSoC5/ADC_SAR_Seq_SAR.c ****     {
  80:Generated_Source\PSoC5/ADC_SAR_Seq_SAR.c ****         ADC_SAR_Seq_SAR_Init();
  53              		.loc 1 80 0
  54 000c FFF7FEFF 		bl	ADC_SAR_Seq_SAR_Init
  81:Generated_Source\PSoC5/ADC_SAR_Seq_SAR.c ****         ADC_SAR_Seq_SAR_initVar = 1u;
  55              		.loc 1 81 0
  56 0010 034B     		ldr	r3, .L3
  57 0012 0122     		movs	r2, #1
  58 0014 1A70     		strb	r2, [r3]
  59              	.L2:
  82:Generated_Source\PSoC5/ADC_SAR_Seq_SAR.c ****     }
  83:Generated_Source\PSoC5/ADC_SAR_Seq_SAR.c ****     ADC_SAR_Seq_SAR_Enable();
  60              		.loc 1 83 0
  61 0016 FFF7FEFF 		bl	ADC_SAR_Seq_SAR_Enable
  84:Generated_Source\PSoC5/ADC_SAR_Seq_SAR.c **** }
  62              		.loc 1 84 0
  63 001a 00BF     		nop
  64 001c 80BD     		pop	{r7, pc}
  65              	.L4:
  66 001e 00BF     		.align	2
  67              	.L3:
  68 0020 00000000 		.word	ADC_SAR_Seq_SAR_initVar
  69              		.cfi_endproc
  70              	.LFE0:
  71              		.size	ADC_SAR_Seq_SAR_Start, .-ADC_SAR_Seq_SAR_Start
  72              		.section	.text.ADC_SAR_Seq_SAR_Init,"ax",%progbits
  73              		.align	2
  74              		.global	ADC_SAR_Seq_SAR_Init
  75              		.thumb
  76              		.thumb_func
  77              		.type	ADC_SAR_Seq_SAR_Init, %function
  78              	ADC_SAR_Seq_SAR_Init:
  79              	.LFB1:
  85:Generated_Source\PSoC5/ADC_SAR_Seq_SAR.c **** 
  86:Generated_Source\PSoC5/ADC_SAR_Seq_SAR.c **** 
  87:Generated_Source\PSoC5/ADC_SAR_Seq_SAR.c **** /*******************************************************************************
  88:Generated_Source\PSoC5/ADC_SAR_Seq_SAR.c **** * Function Name: ADC_SAR_Seq_SAR_Init
  89:Generated_Source\PSoC5/ADC_SAR_Seq_SAR.c **** ********************************************************************************
  90:Generated_Source\PSoC5/ADC_SAR_Seq_SAR.c **** *
  91:Generated_Source\PSoC5/ADC_SAR_Seq_SAR.c **** * Summary:
  92:Generated_Source\PSoC5/ADC_SAR_Seq_SAR.c **** *  Initialize component's parameters to the parameters set by user in the
ARM GAS  C:\Users\Admin\AppData\Local\Temp\cchDS2nB.s 			page 4


  93:Generated_Source\PSoC5/ADC_SAR_Seq_SAR.c **** *  customizer of the component placed onto schematic. Usually called in
  94:Generated_Source\PSoC5/ADC_SAR_Seq_SAR.c **** *  ADC_SAR_Seq_SAR_Start().
  95:Generated_Source\PSoC5/ADC_SAR_Seq_SAR.c **** *
  96:Generated_Source\PSoC5/ADC_SAR_Seq_SAR.c **** * Parameters:
  97:Generated_Source\PSoC5/ADC_SAR_Seq_SAR.c **** *  None.
  98:Generated_Source\PSoC5/ADC_SAR_Seq_SAR.c **** *
  99:Generated_Source\PSoC5/ADC_SAR_Seq_SAR.c **** * Return:
 100:Generated_Source\PSoC5/ADC_SAR_Seq_SAR.c **** *  None.
 101:Generated_Source\PSoC5/ADC_SAR_Seq_SAR.c **** *
 102:Generated_Source\PSoC5/ADC_SAR_Seq_SAR.c **** * Global variables:
 103:Generated_Source\PSoC5/ADC_SAR_Seq_SAR.c **** *  The ADC_SAR_Seq_SAR_offset variable is initialized to 0.
 104:Generated_Source\PSoC5/ADC_SAR_Seq_SAR.c **** *
 105:Generated_Source\PSoC5/ADC_SAR_Seq_SAR.c **** *******************************************************************************/
 106:Generated_Source\PSoC5/ADC_SAR_Seq_SAR.c **** void ADC_SAR_Seq_SAR_Init(void)
 107:Generated_Source\PSoC5/ADC_SAR_Seq_SAR.c **** {
  80              		.loc 1 107 0
  81              		.cfi_startproc
  82              		@ args = 0, pretend = 0, frame = 0
  83              		@ frame_needed = 1, uses_anonymous_args = 0
  84 0000 80B5     		push	{r7, lr}
  85              		.cfi_def_cfa_offset 8
  86              		.cfi_offset 7, -8
  87              		.cfi_offset 14, -4
  88 0002 00AF     		add	r7, sp, #0
  89              		.cfi_def_cfa_register 7
 108:Generated_Source\PSoC5/ADC_SAR_Seq_SAR.c **** 
 109:Generated_Source\PSoC5/ADC_SAR_Seq_SAR.c ****     /* This is only valid if there is an internal clock */
 110:Generated_Source\PSoC5/ADC_SAR_Seq_SAR.c ****     #if(ADC_SAR_Seq_SAR_DEFAULT_INTERNAL_CLK)
 111:Generated_Source\PSoC5/ADC_SAR_Seq_SAR.c ****         ADC_SAR_Seq_SAR_theACLK_SetMode(CYCLK_DUTY);
 112:Generated_Source\PSoC5/ADC_SAR_Seq_SAR.c ****     #endif /* End ADC_SAR_Seq_SAR_DEFAULT_INTERNAL_CLK */
 113:Generated_Source\PSoC5/ADC_SAR_Seq_SAR.c **** 
 114:Generated_Source\PSoC5/ADC_SAR_Seq_SAR.c ****     #if(ADC_SAR_Seq_SAR_IRQ_REMOVE == 0u)
 115:Generated_Source\PSoC5/ADC_SAR_Seq_SAR.c ****         /* Start and set interrupt vector */
 116:Generated_Source\PSoC5/ADC_SAR_Seq_SAR.c ****         CyIntSetPriority(ADC_SAR_Seq_SAR_INTC_NUMBER, ADC_SAR_Seq_SAR_INTC_PRIOR_NUMBER);
 117:Generated_Source\PSoC5/ADC_SAR_Seq_SAR.c ****         (void)CyIntSetVector(ADC_SAR_Seq_SAR_INTC_NUMBER, &ADC_SAR_Seq_SAR_ISR);
 118:Generated_Source\PSoC5/ADC_SAR_Seq_SAR.c ****     #endif   /* End ADC_SAR_Seq_SAR_IRQ_REMOVE */
 119:Generated_Source\PSoC5/ADC_SAR_Seq_SAR.c **** 
 120:Generated_Source\PSoC5/ADC_SAR_Seq_SAR.c ****     /* Enable IRQ mode*/
 121:Generated_Source\PSoC5/ADC_SAR_Seq_SAR.c ****     ADC_SAR_Seq_SAR_SAR_CSR1_REG |= ADC_SAR_Seq_SAR_SAR_IRQ_MASK_EN | ADC_SAR_Seq_SAR_SAR_IRQ_MODE_
  90              		.loc 1 121 0
  91 0004 074A     		ldr	r2, .L6
  92 0006 074B     		ldr	r3, .L6
  93 0008 1B78     		ldrb	r3, [r3]
  94 000a DBB2     		uxtb	r3, r3
  95 000c 43F00603 		orr	r3, r3, #6
  96 0010 DBB2     		uxtb	r3, r3
  97 0012 1370     		strb	r3, [r2]
 122:Generated_Source\PSoC5/ADC_SAR_Seq_SAR.c **** 
 123:Generated_Source\PSoC5/ADC_SAR_Seq_SAR.c ****     /*Set SAR ADC resolution ADC */
 124:Generated_Source\PSoC5/ADC_SAR_Seq_SAR.c ****     ADC_SAR_Seq_SAR_SetResolution(ADC_SAR_Seq_SAR_DEFAULT_RESOLUTION);
  98              		.loc 1 124 0
  99 0014 0820     		movs	r0, #8
 100 0016 FFF7FEFF 		bl	ADC_SAR_Seq_SAR_SetResolution
 125:Generated_Source\PSoC5/ADC_SAR_Seq_SAR.c ****     ADC_SAR_Seq_SAR_offset = 0;
 101              		.loc 1 125 0
 102 001a 034B     		ldr	r3, .L6+4
 103 001c 0022     		movs	r2, #0
ARM GAS  C:\Users\Admin\AppData\Local\Temp\cchDS2nB.s 			page 5


 104 001e 1A80     		strh	r2, [r3]	@ movhi
 126:Generated_Source\PSoC5/ADC_SAR_Seq_SAR.c **** }
 105              		.loc 1 126 0
 106 0020 00BF     		nop
 107 0022 80BD     		pop	{r7, pc}
 108              	.L7:
 109              		.align	2
 110              	.L6:
 111 0024 01590040 		.word	1073764609
 112 0028 00000000 		.word	ADC_SAR_Seq_SAR_offset
 113              		.cfi_endproc
 114              	.LFE1:
 115              		.size	ADC_SAR_Seq_SAR_Init, .-ADC_SAR_Seq_SAR_Init
 116              		.section	.text.ADC_SAR_Seq_SAR_Enable,"ax",%progbits
 117              		.align	2
 118              		.global	ADC_SAR_Seq_SAR_Enable
 119              		.thumb
 120              		.thumb_func
 121              		.type	ADC_SAR_Seq_SAR_Enable, %function
 122              	ADC_SAR_Seq_SAR_Enable:
 123              	.LFB2:
 127:Generated_Source\PSoC5/ADC_SAR_Seq_SAR.c **** 
 128:Generated_Source\PSoC5/ADC_SAR_Seq_SAR.c **** 
 129:Generated_Source\PSoC5/ADC_SAR_Seq_SAR.c **** /*******************************************************************************
 130:Generated_Source\PSoC5/ADC_SAR_Seq_SAR.c **** * Function Name: ADC_SAR_Seq_SAR_Enable
 131:Generated_Source\PSoC5/ADC_SAR_Seq_SAR.c **** ********************************************************************************
 132:Generated_Source\PSoC5/ADC_SAR_Seq_SAR.c **** *
 133:Generated_Source\PSoC5/ADC_SAR_Seq_SAR.c **** * Summary:
 134:Generated_Source\PSoC5/ADC_SAR_Seq_SAR.c **** *  Enables the reference, clock and power for SAR ADC.
 135:Generated_Source\PSoC5/ADC_SAR_Seq_SAR.c **** *
 136:Generated_Source\PSoC5/ADC_SAR_Seq_SAR.c **** * Parameters:
 137:Generated_Source\PSoC5/ADC_SAR_Seq_SAR.c **** *  None.
 138:Generated_Source\PSoC5/ADC_SAR_Seq_SAR.c **** *
 139:Generated_Source\PSoC5/ADC_SAR_Seq_SAR.c **** * Return:
 140:Generated_Source\PSoC5/ADC_SAR_Seq_SAR.c **** *  None.
 141:Generated_Source\PSoC5/ADC_SAR_Seq_SAR.c **** *
 142:Generated_Source\PSoC5/ADC_SAR_Seq_SAR.c **** *******************************************************************************/
 143:Generated_Source\PSoC5/ADC_SAR_Seq_SAR.c **** void ADC_SAR_Seq_SAR_Enable(void)
 144:Generated_Source\PSoC5/ADC_SAR_Seq_SAR.c **** {
 124              		.loc 1 144 0
 125              		.cfi_startproc
 126              		@ args = 0, pretend = 0, frame = 8
 127              		@ frame_needed = 1, uses_anonymous_args = 0
 128 0000 80B5     		push	{r7, lr}
 129              		.cfi_def_cfa_offset 8
 130              		.cfi_offset 7, -8
 131              		.cfi_offset 14, -4
 132 0002 82B0     		sub	sp, sp, #8
 133              		.cfi_def_cfa_offset 16
 134 0004 00AF     		add	r7, sp, #0
 135              		.cfi_def_cfa_register 7
 145:Generated_Source\PSoC5/ADC_SAR_Seq_SAR.c ****     uint8 tmpReg;
 146:Generated_Source\PSoC5/ADC_SAR_Seq_SAR.c ****     uint8 enableInterrupts;
 147:Generated_Source\PSoC5/ADC_SAR_Seq_SAR.c ****     enableInterrupts = CyEnterCriticalSection();
 136              		.loc 1 147 0
 137 0006 FFF7FEFF 		bl	CyEnterCriticalSection
 138 000a 0346     		mov	r3, r0
ARM GAS  C:\Users\Admin\AppData\Local\Temp\cchDS2nB.s 			page 6


 139 000c FB71     		strb	r3, [r7, #7]
 148:Generated_Source\PSoC5/ADC_SAR_Seq_SAR.c **** 
 149:Generated_Source\PSoC5/ADC_SAR_Seq_SAR.c ****     /* Enable the SAR ADC block in Active Power Mode */
 150:Generated_Source\PSoC5/ADC_SAR_Seq_SAR.c ****     ADC_SAR_Seq_SAR_PWRMGR_SAR_REG |= ADC_SAR_Seq_SAR_ACT_PWR_SAR_EN;
 140              		.loc 1 150 0
 141 000e 254A     		ldr	r2, .L9
 142 0010 244B     		ldr	r3, .L9
 143 0012 1B78     		ldrb	r3, [r3]
 144 0014 DBB2     		uxtb	r3, r3
 145 0016 43F00103 		orr	r3, r3, #1
 146 001a DBB2     		uxtb	r3, r3
 147 001c 1370     		strb	r3, [r2]
 151:Generated_Source\PSoC5/ADC_SAR_Seq_SAR.c **** 
 152:Generated_Source\PSoC5/ADC_SAR_Seq_SAR.c ****      /* Enable the SAR ADC in Standby Power Mode*/
 153:Generated_Source\PSoC5/ADC_SAR_Seq_SAR.c ****     ADC_SAR_Seq_SAR_STBY_PWRMGR_SAR_REG |= ADC_SAR_Seq_SAR_STBY_PWR_SAR_EN;
 148              		.loc 1 153 0
 149 001e 224A     		ldr	r2, .L9+4
 150 0020 214B     		ldr	r3, .L9+4
 151 0022 1B78     		ldrb	r3, [r3]
 152 0024 DBB2     		uxtb	r3, r3
 153 0026 43F00103 		orr	r3, r3, #1
 154 002a DBB2     		uxtb	r3, r3
 155 002c 1370     		strb	r3, [r2]
 154:Generated_Source\PSoC5/ADC_SAR_Seq_SAR.c **** 
 155:Generated_Source\PSoC5/ADC_SAR_Seq_SAR.c ****     /* This is only valid if there is an internal clock */
 156:Generated_Source\PSoC5/ADC_SAR_Seq_SAR.c ****     #if(ADC_SAR_Seq_SAR_DEFAULT_INTERNAL_CLK)
 157:Generated_Source\PSoC5/ADC_SAR_Seq_SAR.c ****         ADC_SAR_Seq_SAR_PWRMGR_CLK_REG |= ADC_SAR_Seq_SAR_ACT_PWR_CLK_EN;
 158:Generated_Source\PSoC5/ADC_SAR_Seq_SAR.c ****         ADC_SAR_Seq_SAR_STBY_PWRMGR_CLK_REG |= ADC_SAR_Seq_SAR_STBY_PWR_CLK_EN;
 159:Generated_Source\PSoC5/ADC_SAR_Seq_SAR.c ****     #endif /* End ADC_SAR_Seq_SAR_DEFAULT_INTERNAL_CLK */
 160:Generated_Source\PSoC5/ADC_SAR_Seq_SAR.c **** 
 161:Generated_Source\PSoC5/ADC_SAR_Seq_SAR.c ****     /* Enable VCM buffer and Enable Int Ref Amp */
 162:Generated_Source\PSoC5/ADC_SAR_Seq_SAR.c ****     tmpReg = ADC_SAR_Seq_SAR_SAR_CSR3_REG;
 156              		.loc 1 162 0
 157 002e 1F4B     		ldr	r3, .L9+8
 158 0030 1B78     		ldrb	r3, [r3]
 159 0032 BB71     		strb	r3, [r7, #6]
 163:Generated_Source\PSoC5/ADC_SAR_Seq_SAR.c ****     tmpReg |= ADC_SAR_Seq_SAR_SAR_EN_BUF_VCM_EN;
 160              		.loc 1 163 0
 161 0034 BB79     		ldrb	r3, [r7, #6]
 162 0036 43F00203 		orr	r3, r3, #2
 163 003a BB71     		strb	r3, [r7, #6]
 164:Generated_Source\PSoC5/ADC_SAR_Seq_SAR.c ****     /* PD_BUF_VREF is OFF in External reference or Vdda reference mode */
 165:Generated_Source\PSoC5/ADC_SAR_Seq_SAR.c ****     #if((ADC_SAR_Seq_SAR_DEFAULT_REFERENCE == ADC_SAR_Seq_SAR__EXT_REF) || \
 166:Generated_Source\PSoC5/ADC_SAR_Seq_SAR.c ****         (ADC_SAR_Seq_SAR_DEFAULT_RANGE == ADC_SAR_Seq_SAR__VNEG_VDDA_DIFF))
 167:Generated_Source\PSoC5/ADC_SAR_Seq_SAR.c ****         tmpReg &= (uint8)~ADC_SAR_Seq_SAR_SAR_EN_BUF_VREF_EN;
 168:Generated_Source\PSoC5/ADC_SAR_Seq_SAR.c ****     #else /* In INTREF or INTREF Bypassed this buffer is ON */
 169:Generated_Source\PSoC5/ADC_SAR_Seq_SAR.c ****         tmpReg |= ADC_SAR_Seq_SAR_SAR_EN_BUF_VREF_EN;
 164              		.loc 1 169 0
 165 003c BB79     		ldrb	r3, [r7, #6]
 166 003e 43F00103 		orr	r3, r3, #1
 167 0042 BB71     		strb	r3, [r7, #6]
 170:Generated_Source\PSoC5/ADC_SAR_Seq_SAR.c ****     #endif /* ADC_SAR_Seq_SAR_DEFAULT_REFERENCE == ADC_SAR_Seq_SAR__EXT_REF */
 171:Generated_Source\PSoC5/ADC_SAR_Seq_SAR.c ****     ADC_SAR_Seq_SAR_SAR_CSR3_REG = tmpReg;
 168              		.loc 1 171 0
 169 0044 194A     		ldr	r2, .L9+8
 170 0046 BB79     		ldrb	r3, [r7, #6]
 171 0048 1370     		strb	r3, [r2]
ARM GAS  C:\Users\Admin\AppData\Local\Temp\cchDS2nB.s 			page 7


 172:Generated_Source\PSoC5/ADC_SAR_Seq_SAR.c **** 
 173:Generated_Source\PSoC5/ADC_SAR_Seq_SAR.c ****     /* Set reference for ADC */
 174:Generated_Source\PSoC5/ADC_SAR_Seq_SAR.c ****     #if(ADC_SAR_Seq_SAR_DEFAULT_RANGE == ADC_SAR_Seq_SAR__VNEG_VDDA_DIFF)
 175:Generated_Source\PSoC5/ADC_SAR_Seq_SAR.c ****         #if(ADC_SAR_Seq_SAR_DEFAULT_REFERENCE == ADC_SAR_Seq_SAR__EXT_REF)
 176:Generated_Source\PSoC5/ADC_SAR_Seq_SAR.c ****             ADC_SAR_Seq_SAR_SAR_CSR6_REG = ADC_SAR_Seq_SAR_INT_BYPASS_EXT_VREF; /* S2 */
 177:Generated_Source\PSoC5/ADC_SAR_Seq_SAR.c ****         #else /* Internal Vdda reference or obsolete bypass mode */
 178:Generated_Source\PSoC5/ADC_SAR_Seq_SAR.c ****             ADC_SAR_Seq_SAR_SAR_CSR6_REG = ADC_SAR_Seq_SAR_VDDA_VREF;           /* S7 */
 179:Generated_Source\PSoC5/ADC_SAR_Seq_SAR.c ****         #endif /* ADC_SAR_Seq_SAR_DEFAULT_REFERENCE == ADC_SAR_Seq_SAR__EXT_REF */
 180:Generated_Source\PSoC5/ADC_SAR_Seq_SAR.c ****     #else  /* Reference goes through internal buffer */
 181:Generated_Source\PSoC5/ADC_SAR_Seq_SAR.c ****         #if(ADC_SAR_Seq_SAR_DEFAULT_REFERENCE == ADC_SAR_Seq_SAR__INT_REF_NOT_BYPASSED)
 182:Generated_Source\PSoC5/ADC_SAR_Seq_SAR.c ****             ADC_SAR_Seq_SAR_SAR_CSR6_REG = ADC_SAR_Seq_SAR_INT_VREF;            /* S3 + S4 */
 172              		.loc 1 182 0
 173 004a 194B     		ldr	r3, .L9+12
 174 004c 1822     		movs	r2, #24
 175 004e 1A70     		strb	r2, [r3]
 183:Generated_Source\PSoC5/ADC_SAR_Seq_SAR.c ****         #else /* INTREF Bypassed of External */
 184:Generated_Source\PSoC5/ADC_SAR_Seq_SAR.c ****             ADC_SAR_Seq_SAR_SAR_CSR6_REG = ADC_SAR_Seq_SAR_INT_BYPASS_EXT_VREF; /* S2 */
 185:Generated_Source\PSoC5/ADC_SAR_Seq_SAR.c ****         #endif /* ADC_SAR_Seq_SAR_DEFAULT_REFERENCE == ADC_SAR_Seq_SAR__INT_REF_NOT_BYPASSED */
 186:Generated_Source\PSoC5/ADC_SAR_Seq_SAR.c ****     #endif /* VNEG_VDDA_DIFF */
 187:Generated_Source\PSoC5/ADC_SAR_Seq_SAR.c **** 
 188:Generated_Source\PSoC5/ADC_SAR_Seq_SAR.c ****     /* Low non-overlap delay for sampling clock signals (for 1MSPS) */
 189:Generated_Source\PSoC5/ADC_SAR_Seq_SAR.c ****     #if(ADC_SAR_Seq_SAR_HIGH_POWER_PULSE == 0u) /* MinPulseWidth <= 50 ns */
 190:Generated_Source\PSoC5/ADC_SAR_Seq_SAR.c ****         ADC_SAR_Seq_SAR_SAR_CSR5_REG &= (uint8)~ADC_SAR_Seq_SAR_SAR_DLY_INC;
 191:Generated_Source\PSoC5/ADC_SAR_Seq_SAR.c ****     #else /* Set High non-overlap delay for sampling clock signals (for <500KSPS)*/
 192:Generated_Source\PSoC5/ADC_SAR_Seq_SAR.c ****         ADC_SAR_Seq_SAR_SAR_CSR5_REG |= ADC_SAR_Seq_SAR_SAR_DLY_INC;
 176              		.loc 1 192 0
 177 0050 184A     		ldr	r2, .L9+16
 178 0052 184B     		ldr	r3, .L9+16
 179 0054 1B78     		ldrb	r3, [r3]
 180 0056 DBB2     		uxtb	r3, r3
 181 0058 43F04003 		orr	r3, r3, #64
 182 005c DBB2     		uxtb	r3, r3
 183 005e 1370     		strb	r3, [r2]
 193:Generated_Source\PSoC5/ADC_SAR_Seq_SAR.c ****     #endif /* ADC_SAR_Seq_SAR_HIGH_POWER_PULSE == 0u */
 194:Generated_Source\PSoC5/ADC_SAR_Seq_SAR.c **** 
 195:Generated_Source\PSoC5/ADC_SAR_Seq_SAR.c ****     /* Increase comparator latch enable delay by 20%, 
 196:Generated_Source\PSoC5/ADC_SAR_Seq_SAR.c ****     *  Increase comparator bias current by 30% without impacting delaysDelay 
 197:Generated_Source\PSoC5/ADC_SAR_Seq_SAR.c ****     *  Default for 1MSPS) 
 198:Generated_Source\PSoC5/ADC_SAR_Seq_SAR.c ****     */
 199:Generated_Source\PSoC5/ADC_SAR_Seq_SAR.c ****     #if(ADC_SAR_Seq_SAR_HIGH_POWER_PULSE == 0u)    /* MinPulseWidth <= 50 ns */
 200:Generated_Source\PSoC5/ADC_SAR_Seq_SAR.c ****         ADC_SAR_Seq_SAR_SAR_CSR5_REG |= ADC_SAR_Seq_SAR_SAR_SEL_CSEL_DFT_CHAR;
 201:Generated_Source\PSoC5/ADC_SAR_Seq_SAR.c ****     #else /* for <500ksps */
 202:Generated_Source\PSoC5/ADC_SAR_Seq_SAR.c ****         ADC_SAR_Seq_SAR_SAR_CSR5_REG &= (uint8)~ADC_SAR_Seq_SAR_SAR_SEL_CSEL_DFT_CHAR;
 184              		.loc 1 202 0
 185 0060 144A     		ldr	r2, .L9+16
 186 0062 144B     		ldr	r3, .L9+16
 187 0064 1B78     		ldrb	r3, [r3]
 188 0066 DBB2     		uxtb	r3, r3
 189 0068 23F00303 		bic	r3, r3, #3
 190 006c DBB2     		uxtb	r3, r3
 191 006e 1370     		strb	r3, [r2]
 203:Generated_Source\PSoC5/ADC_SAR_Seq_SAR.c ****     #endif /* ADC_SAR_Seq_SAR_HIGH_POWER_PULSE == 0u */
 204:Generated_Source\PSoC5/ADC_SAR_Seq_SAR.c **** 
 205:Generated_Source\PSoC5/ADC_SAR_Seq_SAR.c ****     /* Set default power and other configurations for control register 0 in multiple lines */
 206:Generated_Source\PSoC5/ADC_SAR_Seq_SAR.c ****     ADC_SAR_Seq_SAR_SAR_CSR0_REG = (uint8)((uint8)ADC_SAR_Seq_SAR_DEFAULT_POWER << ADC_SAR_Seq_SAR_
 192              		.loc 1 206 0
 193 0070 114B     		ldr	r3, .L9+20
ARM GAS  C:\Users\Admin\AppData\Local\Temp\cchDS2nB.s 			page 8


 194 0072 C822     		movs	r2, #200
 195 0074 1A70     		strb	r2, [r3]
 207:Generated_Source\PSoC5/ADC_SAR_Seq_SAR.c ****     /* SAR_HIZ_CLEAR:   Should not be used for LP */
 208:Generated_Source\PSoC5/ADC_SAR_Seq_SAR.c ****     #if ((CY_PSOC5LP) || (ADC_SAR_Seq_SAR_DEFAULT_REFERENCE != ADC_SAR_Seq_SAR__EXT_REF))
 209:Generated_Source\PSoC5/ADC_SAR_Seq_SAR.c ****         | ADC_SAR_Seq_SAR_SAR_HIZ_CLEAR
 210:Generated_Source\PSoC5/ADC_SAR_Seq_SAR.c ****     #endif /* SAR_HIZ_CLEAR */
 211:Generated_Source\PSoC5/ADC_SAR_Seq_SAR.c ****     /*Set Convertion mode */
 212:Generated_Source\PSoC5/ADC_SAR_Seq_SAR.c ****     #if(ADC_SAR_Seq_SAR_DEFAULT_CONV_MODE != ADC_SAR_Seq_SAR__FREE_RUNNING)      /* If triggered mo
 213:Generated_Source\PSoC5/ADC_SAR_Seq_SAR.c ****         | ADC_SAR_Seq_SAR_SAR_MX_SOF_UDB           /* source: UDB */
 214:Generated_Source\PSoC5/ADC_SAR_Seq_SAR.c ****         | ADC_SAR_Seq_SAR_SAR_SOF_MODE_EDGE        /* Set edge-sensitive sof source */
 215:Generated_Source\PSoC5/ADC_SAR_Seq_SAR.c ****     #endif /* ADC_SAR_Seq_SAR_DEFAULT_CONV_MODE */
 216:Generated_Source\PSoC5/ADC_SAR_Seq_SAR.c ****     ; /* end of multiple line initialization */
 217:Generated_Source\PSoC5/ADC_SAR_Seq_SAR.c **** 
 218:Generated_Source\PSoC5/ADC_SAR_Seq_SAR.c ****     ADC_SAR_Seq_SAR_SAR_TR0_REG = ADC_SAR_Seq_SAR_SAR_CAP_TRIM_2;
 196              		.loc 1 218 0
 197 0076 114B     		ldr	r3, .L9+24
 198 0078 0222     		movs	r2, #2
 199 007a 1A70     		strb	r2, [r3]
 219:Generated_Source\PSoC5/ADC_SAR_Seq_SAR.c **** 
 220:Generated_Source\PSoC5/ADC_SAR_Seq_SAR.c ****     /* Enable clock for SAR ADC*/
 221:Generated_Source\PSoC5/ADC_SAR_Seq_SAR.c ****     ADC_SAR_Seq_SAR_SAR_CLK_REG |= ADC_SAR_Seq_SAR_SAR_MX_CLK_EN;
 200              		.loc 1 221 0
 201 007c 104A     		ldr	r2, .L9+28
 202 007e 104B     		ldr	r3, .L9+28
 203 0080 1B78     		ldrb	r3, [r3]
 204 0082 DBB2     		uxtb	r3, r3
 205 0084 43F00803 		orr	r3, r3, #8
 206 0088 DBB2     		uxtb	r3, r3
 207 008a 1370     		strb	r3, [r2]
 222:Generated_Source\PSoC5/ADC_SAR_Seq_SAR.c **** 
 223:Generated_Source\PSoC5/ADC_SAR_Seq_SAR.c ****     CyDelayUs(10u); /* The block is ready to use 10 us after the enable signal is set high. */
 208              		.loc 1 223 0
 209 008c 0A20     		movs	r0, #10
 210 008e FFF7FEFF 		bl	CyDelayUs
 224:Generated_Source\PSoC5/ADC_SAR_Seq_SAR.c **** 
 225:Generated_Source\PSoC5/ADC_SAR_Seq_SAR.c ****     #if(ADC_SAR_Seq_SAR_IRQ_REMOVE == 0u)
 226:Generated_Source\PSoC5/ADC_SAR_Seq_SAR.c ****         /* Clear a pending interrupt */
 227:Generated_Source\PSoC5/ADC_SAR_Seq_SAR.c ****         CyIntClearPending(ADC_SAR_Seq_SAR_INTC_NUMBER);
 228:Generated_Source\PSoC5/ADC_SAR_Seq_SAR.c ****     #endif   /* End ADC_SAR_Seq_SAR_IRQ_REMOVE */
 229:Generated_Source\PSoC5/ADC_SAR_Seq_SAR.c **** 
 230:Generated_Source\PSoC5/ADC_SAR_Seq_SAR.c ****     CyExitCriticalSection(enableInterrupts);
 211              		.loc 1 230 0
 212 0092 FB79     		ldrb	r3, [r7, #7]	@ zero_extendqisi2
 213 0094 1846     		mov	r0, r3
 214 0096 FFF7FEFF 		bl	CyExitCriticalSection
 231:Generated_Source\PSoC5/ADC_SAR_Seq_SAR.c **** }
 215              		.loc 1 231 0
 216 009a 00BF     		nop
 217 009c 0837     		adds	r7, r7, #8
 218              		.cfi_def_cfa_offset 8
 219 009e BD46     		mov	sp, r7
 220              		.cfi_def_cfa_register 13
 221              		@ sp needed
 222 00a0 80BD     		pop	{r7, pc}
 223              	.L10:
 224 00a2 00BF     		.align	2
 225              	.L9:
ARM GAS  C:\Users\Admin\AppData\Local\Temp\cchDS2nB.s 			page 9


 226 00a4 AB430040 		.word	1073759147
 227 00a8 BB430040 		.word	1073759163
 228 00ac 03590040 		.word	1073764611
 229 00b0 06590040 		.word	1073764614
 230 00b4 05590040 		.word	1073764613
 231 00b8 00590040 		.word	1073764608
 232 00bc 14460040 		.word	1073759764
 233 00c0 275B0040 		.word	1073765159
 234              		.cfi_endproc
 235              	.LFE2:
 236              		.size	ADC_SAR_Seq_SAR_Enable, .-ADC_SAR_Seq_SAR_Enable
 237              		.section	.text.ADC_SAR_Seq_SAR_Stop,"ax",%progbits
 238              		.align	2
 239              		.global	ADC_SAR_Seq_SAR_Stop
 240              		.thumb
 241              		.thumb_func
 242              		.type	ADC_SAR_Seq_SAR_Stop, %function
 243              	ADC_SAR_Seq_SAR_Stop:
 244              	.LFB3:
 232:Generated_Source\PSoC5/ADC_SAR_Seq_SAR.c **** 
 233:Generated_Source\PSoC5/ADC_SAR_Seq_SAR.c **** 
 234:Generated_Source\PSoC5/ADC_SAR_Seq_SAR.c **** /*******************************************************************************
 235:Generated_Source\PSoC5/ADC_SAR_Seq_SAR.c **** * Function Name: ADC_SAR_Seq_SAR_Stop
 236:Generated_Source\PSoC5/ADC_SAR_Seq_SAR.c **** ********************************************************************************
 237:Generated_Source\PSoC5/ADC_SAR_Seq_SAR.c **** *
 238:Generated_Source\PSoC5/ADC_SAR_Seq_SAR.c **** * Summary:
 239:Generated_Source\PSoC5/ADC_SAR_Seq_SAR.c **** *  Stops ADC conversions and puts the ADC into its lowest power mode.
 240:Generated_Source\PSoC5/ADC_SAR_Seq_SAR.c **** *
 241:Generated_Source\PSoC5/ADC_SAR_Seq_SAR.c **** * Parameters:
 242:Generated_Source\PSoC5/ADC_SAR_Seq_SAR.c **** *  None.
 243:Generated_Source\PSoC5/ADC_SAR_Seq_SAR.c **** *
 244:Generated_Source\PSoC5/ADC_SAR_Seq_SAR.c **** * Return:
 245:Generated_Source\PSoC5/ADC_SAR_Seq_SAR.c **** *  None.
 246:Generated_Source\PSoC5/ADC_SAR_Seq_SAR.c **** *
 247:Generated_Source\PSoC5/ADC_SAR_Seq_SAR.c **** *******************************************************************************/
 248:Generated_Source\PSoC5/ADC_SAR_Seq_SAR.c **** void ADC_SAR_Seq_SAR_Stop(void)
 249:Generated_Source\PSoC5/ADC_SAR_Seq_SAR.c **** {
 245              		.loc 1 249 0
 246              		.cfi_startproc
 247              		@ args = 0, pretend = 0, frame = 8
 248              		@ frame_needed = 1, uses_anonymous_args = 0
 249 0000 80B5     		push	{r7, lr}
 250              		.cfi_def_cfa_offset 8
 251              		.cfi_offset 7, -8
 252              		.cfi_offset 14, -4
 253 0002 82B0     		sub	sp, sp, #8
 254              		.cfi_def_cfa_offset 16
 255 0004 00AF     		add	r7, sp, #0
 256              		.cfi_def_cfa_register 7
 250:Generated_Source\PSoC5/ADC_SAR_Seq_SAR.c ****     uint8 enableInterrupts;
 251:Generated_Source\PSoC5/ADC_SAR_Seq_SAR.c ****     enableInterrupts = CyEnterCriticalSection();
 257              		.loc 1 251 0
 258 0006 FFF7FEFF 		bl	CyEnterCriticalSection
 259 000a 0346     		mov	r3, r0
 260 000c FB71     		strb	r3, [r7, #7]
 252:Generated_Source\PSoC5/ADC_SAR_Seq_SAR.c **** 
 253:Generated_Source\PSoC5/ADC_SAR_Seq_SAR.c ****     /* Stop all conversions */
ARM GAS  C:\Users\Admin\AppData\Local\Temp\cchDS2nB.s 			page 10


 254:Generated_Source\PSoC5/ADC_SAR_Seq_SAR.c ****     ADC_SAR_Seq_SAR_SAR_CSR0_REG &= (uint8)~ADC_SAR_Seq_SAR_SAR_SOF_START_CONV;
 261              		.loc 1 254 0
 262 000e 104A     		ldr	r2, .L12
 263 0010 0F4B     		ldr	r3, .L12
 264 0012 1B78     		ldrb	r3, [r3]
 265 0014 DBB2     		uxtb	r3, r3
 266 0016 23F00103 		bic	r3, r3, #1
 267 001a DBB2     		uxtb	r3, r3
 268 001c 1370     		strb	r3, [r2]
 255:Generated_Source\PSoC5/ADC_SAR_Seq_SAR.c ****     /* Disable the SAR ADC block in Active Power Mode */
 256:Generated_Source\PSoC5/ADC_SAR_Seq_SAR.c ****     ADC_SAR_Seq_SAR_PWRMGR_SAR_REG &= (uint8)~ADC_SAR_Seq_SAR_ACT_PWR_SAR_EN;
 269              		.loc 1 256 0
 270 001e 0D4A     		ldr	r2, .L12+4
 271 0020 0C4B     		ldr	r3, .L12+4
 272 0022 1B78     		ldrb	r3, [r3]
 273 0024 DBB2     		uxtb	r3, r3
 274 0026 23F00103 		bic	r3, r3, #1
 275 002a DBB2     		uxtb	r3, r3
 276 002c 1370     		strb	r3, [r2]
 257:Generated_Source\PSoC5/ADC_SAR_Seq_SAR.c ****     /* Disable the SAR ADC in Standby Power Mode */
 258:Generated_Source\PSoC5/ADC_SAR_Seq_SAR.c ****     ADC_SAR_Seq_SAR_STBY_PWRMGR_SAR_REG &= (uint8)~ADC_SAR_Seq_SAR_STBY_PWR_SAR_EN;
 277              		.loc 1 258 0
 278 002e 0A4A     		ldr	r2, .L12+8
 279 0030 094B     		ldr	r3, .L12+8
 280 0032 1B78     		ldrb	r3, [r3]
 281 0034 DBB2     		uxtb	r3, r3
 282 0036 23F00103 		bic	r3, r3, #1
 283 003a DBB2     		uxtb	r3, r3
 284 003c 1370     		strb	r3, [r2]
 259:Generated_Source\PSoC5/ADC_SAR_Seq_SAR.c **** 
 260:Generated_Source\PSoC5/ADC_SAR_Seq_SAR.c ****     /* This is only valid if there is an internal clock */
 261:Generated_Source\PSoC5/ADC_SAR_Seq_SAR.c ****     #if(ADC_SAR_Seq_SAR_DEFAULT_INTERNAL_CLK)
 262:Generated_Source\PSoC5/ADC_SAR_Seq_SAR.c ****         ADC_SAR_Seq_SAR_PWRMGR_CLK_REG &= (uint8)~ADC_SAR_Seq_SAR_ACT_PWR_CLK_EN;
 263:Generated_Source\PSoC5/ADC_SAR_Seq_SAR.c ****         ADC_SAR_Seq_SAR_STBY_PWRMGR_CLK_REG &= (uint8)~ADC_SAR_Seq_SAR_STBY_PWR_CLK_EN;
 264:Generated_Source\PSoC5/ADC_SAR_Seq_SAR.c ****     #endif /* End ADC_SAR_Seq_SAR_DEFAULT_INTERNAL_CLK */
 265:Generated_Source\PSoC5/ADC_SAR_Seq_SAR.c **** 
 266:Generated_Source\PSoC5/ADC_SAR_Seq_SAR.c ****     CyExitCriticalSection(enableInterrupts);
 285              		.loc 1 266 0
 286 003e FB79     		ldrb	r3, [r7, #7]	@ zero_extendqisi2
 287 0040 1846     		mov	r0, r3
 288 0042 FFF7FEFF 		bl	CyExitCriticalSection
 267:Generated_Source\PSoC5/ADC_SAR_Seq_SAR.c **** 
 268:Generated_Source\PSoC5/ADC_SAR_Seq_SAR.c **** }
 289              		.loc 1 268 0
 290 0046 00BF     		nop
 291 0048 0837     		adds	r7, r7, #8
 292              		.cfi_def_cfa_offset 8
 293 004a BD46     		mov	sp, r7
 294              		.cfi_def_cfa_register 13
 295              		@ sp needed
 296 004c 80BD     		pop	{r7, pc}
 297              	.L13:
 298 004e 00BF     		.align	2
 299              	.L12:
 300 0050 00590040 		.word	1073764608
 301 0054 AB430040 		.word	1073759147
 302 0058 BB430040 		.word	1073759163
ARM GAS  C:\Users\Admin\AppData\Local\Temp\cchDS2nB.s 			page 11


 303              		.cfi_endproc
 304              	.LFE3:
 305              		.size	ADC_SAR_Seq_SAR_Stop, .-ADC_SAR_Seq_SAR_Stop
 306              		.section	.text.ADC_SAR_Seq_SAR_SetPower,"ax",%progbits
 307              		.align	2
 308              		.global	ADC_SAR_Seq_SAR_SetPower
 309              		.thumb
 310              		.thumb_func
 311              		.type	ADC_SAR_Seq_SAR_SetPower, %function
 312              	ADC_SAR_Seq_SAR_SetPower:
 313              	.LFB4:
 269:Generated_Source\PSoC5/ADC_SAR_Seq_SAR.c **** 
 270:Generated_Source\PSoC5/ADC_SAR_Seq_SAR.c **** 
 271:Generated_Source\PSoC5/ADC_SAR_Seq_SAR.c **** /*******************************************************************************
 272:Generated_Source\PSoC5/ADC_SAR_Seq_SAR.c **** * Function Name: ADC_SAR_Seq_SAR_SetPower
 273:Generated_Source\PSoC5/ADC_SAR_Seq_SAR.c **** ********************************************************************************
 274:Generated_Source\PSoC5/ADC_SAR_Seq_SAR.c **** *
 275:Generated_Source\PSoC5/ADC_SAR_Seq_SAR.c **** * Summary:
 276:Generated_Source\PSoC5/ADC_SAR_Seq_SAR.c **** *  Sets the operational power of the ADC. You should use the higher power
 277:Generated_Source\PSoC5/ADC_SAR_Seq_SAR.c **** *  settings with faster clock speeds.
 278:Generated_Source\PSoC5/ADC_SAR_Seq_SAR.c **** *
 279:Generated_Source\PSoC5/ADC_SAR_Seq_SAR.c **** * Parameters:
 280:Generated_Source\PSoC5/ADC_SAR_Seq_SAR.c **** *  power:  Power setting for ADC
 281:Generated_Source\PSoC5/ADC_SAR_Seq_SAR.c **** *  0 ->    Normal
 282:Generated_Source\PSoC5/ADC_SAR_Seq_SAR.c **** *  1 ->    Medium power
 283:Generated_Source\PSoC5/ADC_SAR_Seq_SAR.c **** *  2 ->    1.25 power
 284:Generated_Source\PSoC5/ADC_SAR_Seq_SAR.c **** *  3 ->    Minimum power.
 285:Generated_Source\PSoC5/ADC_SAR_Seq_SAR.c **** *
 286:Generated_Source\PSoC5/ADC_SAR_Seq_SAR.c **** * Return:
 287:Generated_Source\PSoC5/ADC_SAR_Seq_SAR.c **** *  None.
 288:Generated_Source\PSoC5/ADC_SAR_Seq_SAR.c **** *
 289:Generated_Source\PSoC5/ADC_SAR_Seq_SAR.c **** *******************************************************************************/
 290:Generated_Source\PSoC5/ADC_SAR_Seq_SAR.c **** void ADC_SAR_Seq_SAR_SetPower(uint8 power)
 291:Generated_Source\PSoC5/ADC_SAR_Seq_SAR.c **** {
 314              		.loc 1 291 0
 315              		.cfi_startproc
 316              		@ args = 0, pretend = 0, frame = 16
 317              		@ frame_needed = 1, uses_anonymous_args = 0
 318              		@ link register save eliminated.
 319 0000 80B4     		push	{r7}
 320              		.cfi_def_cfa_offset 4
 321              		.cfi_offset 7, -4
 322 0002 85B0     		sub	sp, sp, #20
 323              		.cfi_def_cfa_offset 24
 324 0004 00AF     		add	r7, sp, #0
 325              		.cfi_def_cfa_register 7
 326 0006 0346     		mov	r3, r0
 327 0008 FB71     		strb	r3, [r7, #7]
 292:Generated_Source\PSoC5/ADC_SAR_Seq_SAR.c ****     uint8 tmpReg;
 293:Generated_Source\PSoC5/ADC_SAR_Seq_SAR.c **** 
 294:Generated_Source\PSoC5/ADC_SAR_Seq_SAR.c ****     /* mask off invalid power settings */
 295:Generated_Source\PSoC5/ADC_SAR_Seq_SAR.c ****     power &= ADC_SAR_Seq_SAR_SAR_API_POWER_MASK;
 328              		.loc 1 295 0
 329 000a FB79     		ldrb	r3, [r7, #7]
 330 000c 03F00303 		and	r3, r3, #3
 331 0010 FB71     		strb	r3, [r7, #7]
 296:Generated_Source\PSoC5/ADC_SAR_Seq_SAR.c **** 
ARM GAS  C:\Users\Admin\AppData\Local\Temp\cchDS2nB.s 			page 12


 297:Generated_Source\PSoC5/ADC_SAR_Seq_SAR.c ****     /* Set Power parameter  */
 298:Generated_Source\PSoC5/ADC_SAR_Seq_SAR.c ****     tmpReg = ADC_SAR_Seq_SAR_SAR_CSR0_REG & (uint8)~ADC_SAR_Seq_SAR_SAR_POWER_MASK;
 332              		.loc 1 298 0
 333 0012 0A4B     		ldr	r3, .L15
 334 0014 1B78     		ldrb	r3, [r3]
 335 0016 DBB2     		uxtb	r3, r3
 336 0018 03F03F03 		and	r3, r3, #63
 337 001c FB73     		strb	r3, [r7, #15]
 299:Generated_Source\PSoC5/ADC_SAR_Seq_SAR.c ****     tmpReg |= (uint8)(power << ADC_SAR_Seq_SAR_SAR_POWER_SHIFT);
 338              		.loc 1 299 0
 339 001e FB79     		ldrb	r3, [r7, #7]
 340 0020 9B01     		lsls	r3, r3, #6
 341 0022 DAB2     		uxtb	r2, r3
 342 0024 FB7B     		ldrb	r3, [r7, #15]
 343 0026 1343     		orrs	r3, r3, r2
 344 0028 FB73     		strb	r3, [r7, #15]
 300:Generated_Source\PSoC5/ADC_SAR_Seq_SAR.c ****     ADC_SAR_Seq_SAR_SAR_CSR0_REG = tmpReg;
 345              		.loc 1 300 0
 346 002a 044A     		ldr	r2, .L15
 347 002c FB7B     		ldrb	r3, [r7, #15]
 348 002e 1370     		strb	r3, [r2]
 301:Generated_Source\PSoC5/ADC_SAR_Seq_SAR.c **** }
 349              		.loc 1 301 0
 350 0030 00BF     		nop
 351 0032 1437     		adds	r7, r7, #20
 352              		.cfi_def_cfa_offset 4
 353 0034 BD46     		mov	sp, r7
 354              		.cfi_def_cfa_register 13
 355              		@ sp needed
 356 0036 80BC     		pop	{r7}
 357              		.cfi_restore 7
 358              		.cfi_def_cfa_offset 0
 359 0038 7047     		bx	lr
 360              	.L16:
 361 003a 00BF     		.align	2
 362              	.L15:
 363 003c 00590040 		.word	1073764608
 364              		.cfi_endproc
 365              	.LFE4:
 366              		.size	ADC_SAR_Seq_SAR_SetPower, .-ADC_SAR_Seq_SAR_SetPower
 367              		.section	.text.ADC_SAR_Seq_SAR_SetResolution,"ax",%progbits
 368              		.align	2
 369              		.global	ADC_SAR_Seq_SAR_SetResolution
 370              		.thumb
 371              		.thumb_func
 372              		.type	ADC_SAR_Seq_SAR_SetResolution, %function
 373              	ADC_SAR_Seq_SAR_SetResolution:
 374              	.LFB5:
 302:Generated_Source\PSoC5/ADC_SAR_Seq_SAR.c **** 
 303:Generated_Source\PSoC5/ADC_SAR_Seq_SAR.c **** 
 304:Generated_Source\PSoC5/ADC_SAR_Seq_SAR.c **** /*******************************************************************************
 305:Generated_Source\PSoC5/ADC_SAR_Seq_SAR.c **** * Function Name: ADC_SAR_Seq_SAR_SetResolution
 306:Generated_Source\PSoC5/ADC_SAR_Seq_SAR.c **** ********************************************************************************
 307:Generated_Source\PSoC5/ADC_SAR_Seq_SAR.c **** *
 308:Generated_Source\PSoC5/ADC_SAR_Seq_SAR.c **** * Summary:
 309:Generated_Source\PSoC5/ADC_SAR_Seq_SAR.c **** *  Sets the Relution of the SAR.
 310:Generated_Source\PSoC5/ADC_SAR_Seq_SAR.c **** *
ARM GAS  C:\Users\Admin\AppData\Local\Temp\cchDS2nB.s 			page 13


 311:Generated_Source\PSoC5/ADC_SAR_Seq_SAR.c **** * Parameters:
 312:Generated_Source\PSoC5/ADC_SAR_Seq_SAR.c **** *  resolution:
 313:Generated_Source\PSoC5/ADC_SAR_Seq_SAR.c **** *  12 ->    RES12
 314:Generated_Source\PSoC5/ADC_SAR_Seq_SAR.c **** *  10 ->    RES10
 315:Generated_Source\PSoC5/ADC_SAR_Seq_SAR.c **** *  8  ->    RES8
 316:Generated_Source\PSoC5/ADC_SAR_Seq_SAR.c **** *
 317:Generated_Source\PSoC5/ADC_SAR_Seq_SAR.c **** * Return:
 318:Generated_Source\PSoC5/ADC_SAR_Seq_SAR.c **** *  None.
 319:Generated_Source\PSoC5/ADC_SAR_Seq_SAR.c **** *
 320:Generated_Source\PSoC5/ADC_SAR_Seq_SAR.c **** * Side Effects:
 321:Generated_Source\PSoC5/ADC_SAR_Seq_SAR.c **** *  The ADC resolution cannot be changed during a conversion cycle. The
 322:Generated_Source\PSoC5/ADC_SAR_Seq_SAR.c **** *  recommended best practice is to stop conversions with
 323:Generated_Source\PSoC5/ADC_SAR_Seq_SAR.c **** *  ADC_StopConvert(), change the resolution, then restart the
 324:Generated_Source\PSoC5/ADC_SAR_Seq_SAR.c **** *  conversions with ADC_StartConvert().
 325:Generated_Source\PSoC5/ADC_SAR_Seq_SAR.c **** *  If you decide not to stop conversions before calling this API, you
 326:Generated_Source\PSoC5/ADC_SAR_Seq_SAR.c **** *  should use ADC_IsEndConversion() to wait until conversion is complete
 327:Generated_Source\PSoC5/ADC_SAR_Seq_SAR.c **** *  before changing the resolution.
 328:Generated_Source\PSoC5/ADC_SAR_Seq_SAR.c **** *  If you call ADC_SetResolution() during a conversion, the resolution will
 329:Generated_Source\PSoC5/ADC_SAR_Seq_SAR.c **** *  not be changed until the current conversion is complete. Data will not be
 330:Generated_Source\PSoC5/ADC_SAR_Seq_SAR.c **** *  available in the new resolution for another 6 + "New Resolution(in bits)"
 331:Generated_Source\PSoC5/ADC_SAR_Seq_SAR.c **** *  clock cycles.
 332:Generated_Source\PSoC5/ADC_SAR_Seq_SAR.c **** *  You may need add a delay of this number of clock cycles after
 333:Generated_Source\PSoC5/ADC_SAR_Seq_SAR.c **** *  ADC_SetResolution() is called before data is valid again.
 334:Generated_Source\PSoC5/ADC_SAR_Seq_SAR.c **** *  Affects ADC_CountsTo_Volts(), ADC_CountsTo_mVolts(), and
 335:Generated_Source\PSoC5/ADC_SAR_Seq_SAR.c **** *  ADC_CountsTo_uVolts() by calculating the correct conversion between ADC
 336:Generated_Source\PSoC5/ADC_SAR_Seq_SAR.c **** *  counts and the applied input voltage. Calculation depends on resolution,
 337:Generated_Source\PSoC5/ADC_SAR_Seq_SAR.c **** *  input range, and voltage reference.
 338:Generated_Source\PSoC5/ADC_SAR_Seq_SAR.c **** *
 339:Generated_Source\PSoC5/ADC_SAR_Seq_SAR.c **** *******************************************************************************/
 340:Generated_Source\PSoC5/ADC_SAR_Seq_SAR.c **** void ADC_SAR_Seq_SAR_SetResolution(uint8 resolution)
 341:Generated_Source\PSoC5/ADC_SAR_Seq_SAR.c **** {
 375              		.loc 1 341 0
 376              		.cfi_startproc
 377              		@ args = 0, pretend = 0, frame = 16
 378              		@ frame_needed = 1, uses_anonymous_args = 0
 379 0000 80B5     		push	{r7, lr}
 380              		.cfi_def_cfa_offset 8
 381              		.cfi_offset 7, -8
 382              		.cfi_offset 14, -4
 383 0002 84B0     		sub	sp, sp, #16
 384              		.cfi_def_cfa_offset 24
 385 0004 00AF     		add	r7, sp, #0
 386              		.cfi_def_cfa_register 7
 387 0006 0346     		mov	r3, r0
 388 0008 FB71     		strb	r3, [r7, #7]
 342:Generated_Source\PSoC5/ADC_SAR_Seq_SAR.c ****     uint8 tmpReg;
 343:Generated_Source\PSoC5/ADC_SAR_Seq_SAR.c **** 
 344:Generated_Source\PSoC5/ADC_SAR_Seq_SAR.c ****     /* Set SAR ADC resolution and sample width: 18 conversion cycles at 12bits + 1 gap */
 345:Generated_Source\PSoC5/ADC_SAR_Seq_SAR.c ****     switch (resolution)
 389              		.loc 1 345 0
 390 000a FB79     		ldrb	r3, [r7, #7]	@ zero_extendqisi2
 391 000c 0A2B     		cmp	r3, #10
 392 000e 07D0     		beq	.L19
 393 0010 0C2B     		cmp	r3, #12
 394 0012 02D0     		beq	.L20
 395 0014 082B     		cmp	r3, #8
 396 0016 06D0     		beq	.L21
ARM GAS  C:\Users\Admin\AppData\Local\Temp\cchDS2nB.s 			page 14


 397 0018 08E0     		b	.L23
 398              	.L20:
 346:Generated_Source\PSoC5/ADC_SAR_Seq_SAR.c ****     {
 347:Generated_Source\PSoC5/ADC_SAR_Seq_SAR.c ****         case (uint8)ADC_SAR_Seq_SAR__BITS_12:
 348:Generated_Source\PSoC5/ADC_SAR_Seq_SAR.c ****             tmpReg = ADC_SAR_Seq_SAR_SAR_RESOLUTION_12BIT | ADC_SAR_Seq_SAR_SAR_SAMPLE_WIDTH;
 399              		.loc 1 348 0
 400 001a C223     		movs	r3, #194
 401 001c FB73     		strb	r3, [r7, #15]
 349:Generated_Source\PSoC5/ADC_SAR_Seq_SAR.c ****             break;
 402              		.loc 1 349 0
 403 001e 08E0     		b	.L22
 404              	.L19:
 350:Generated_Source\PSoC5/ADC_SAR_Seq_SAR.c ****         case (uint8)ADC_SAR_Seq_SAR__BITS_10:
 351:Generated_Source\PSoC5/ADC_SAR_Seq_SAR.c ****             tmpReg = ADC_SAR_Seq_SAR_SAR_RESOLUTION_10BIT | ADC_SAR_Seq_SAR_SAR_SAMPLE_WIDTH;
 405              		.loc 1 351 0
 406 0020 8223     		movs	r3, #130
 407 0022 FB73     		strb	r3, [r7, #15]
 352:Generated_Source\PSoC5/ADC_SAR_Seq_SAR.c ****             break;
 408              		.loc 1 352 0
 409 0024 05E0     		b	.L22
 410              	.L21:
 353:Generated_Source\PSoC5/ADC_SAR_Seq_SAR.c ****         case (uint8)ADC_SAR_Seq_SAR__BITS_8:
 354:Generated_Source\PSoC5/ADC_SAR_Seq_SAR.c ****             tmpReg = ADC_SAR_Seq_SAR_SAR_RESOLUTION_8BIT | ADC_SAR_Seq_SAR_SAR_SAMPLE_WIDTH;
 411              		.loc 1 354 0
 412 0026 4223     		movs	r3, #66
 413 0028 FB73     		strb	r3, [r7, #15]
 355:Generated_Source\PSoC5/ADC_SAR_Seq_SAR.c ****             break;
 414              		.loc 1 355 0
 415 002a 02E0     		b	.L22
 416              	.L23:
 356:Generated_Source\PSoC5/ADC_SAR_Seq_SAR.c ****         default:
 357:Generated_Source\PSoC5/ADC_SAR_Seq_SAR.c ****             tmpReg = ADC_SAR_Seq_SAR_SAR_RESOLUTION_12BIT | ADC_SAR_Seq_SAR_SAR_SAMPLE_WIDTH;
 417              		.loc 1 357 0
 418 002c C223     		movs	r3, #194
 419 002e FB73     		strb	r3, [r7, #15]
 358:Generated_Source\PSoC5/ADC_SAR_Seq_SAR.c ****             /* Halt CPU in debug mode if resolution is out of valid range */
 359:Generated_Source\PSoC5/ADC_SAR_Seq_SAR.c ****             CYASSERT(0u != 0u);
 360:Generated_Source\PSoC5/ADC_SAR_Seq_SAR.c ****             break;
 420              		.loc 1 360 0
 421 0030 00BF     		nop
 422              	.L22:
 361:Generated_Source\PSoC5/ADC_SAR_Seq_SAR.c ****     }
 362:Generated_Source\PSoC5/ADC_SAR_Seq_SAR.c ****     ADC_SAR_Seq_SAR_SAR_CSR2_REG = tmpReg;
 423              		.loc 1 362 0
 424 0032 054A     		ldr	r2, .L24
 425 0034 FB7B     		ldrb	r3, [r7, #15]
 426 0036 1370     		strb	r3, [r2]
 363:Generated_Source\PSoC5/ADC_SAR_Seq_SAR.c **** 
 364:Generated_Source\PSoC5/ADC_SAR_Seq_SAR.c ****      /* Calculate gain for convert counts to volts */
 365:Generated_Source\PSoC5/ADC_SAR_Seq_SAR.c ****     ADC_SAR_Seq_SAR_CalcGain(resolution);
 427              		.loc 1 365 0
 428 0038 FB79     		ldrb	r3, [r7, #7]	@ zero_extendqisi2
 429 003a 1846     		mov	r0, r3
 430 003c FFF7FEFF 		bl	ADC_SAR_Seq_SAR_CalcGain
 366:Generated_Source\PSoC5/ADC_SAR_Seq_SAR.c **** }
 431              		.loc 1 366 0
 432 0040 00BF     		nop
ARM GAS  C:\Users\Admin\AppData\Local\Temp\cchDS2nB.s 			page 15


 433 0042 1037     		adds	r7, r7, #16
 434              		.cfi_def_cfa_offset 8
 435 0044 BD46     		mov	sp, r7
 436              		.cfi_def_cfa_register 13
 437              		@ sp needed
 438 0046 80BD     		pop	{r7, pc}
 439              	.L25:
 440              		.align	2
 441              	.L24:
 442 0048 02590040 		.word	1073764610
 443              		.cfi_endproc
 444              	.LFE5:
 445              		.size	ADC_SAR_Seq_SAR_SetResolution, .-ADC_SAR_Seq_SAR_SetResolution
 446              		.section	.text.ADC_SAR_Seq_SAR_StartConvert,"ax",%progbits
 447              		.align	2
 448              		.global	ADC_SAR_Seq_SAR_StartConvert
 449              		.thumb
 450              		.thumb_func
 451              		.type	ADC_SAR_Seq_SAR_StartConvert, %function
 452              	ADC_SAR_Seq_SAR_StartConvert:
 453              	.LFB6:
 367:Generated_Source\PSoC5/ADC_SAR_Seq_SAR.c **** 
 368:Generated_Source\PSoC5/ADC_SAR_Seq_SAR.c **** 
 369:Generated_Source\PSoC5/ADC_SAR_Seq_SAR.c **** #if(ADC_SAR_Seq_SAR_DEFAULT_CONV_MODE != ADC_SAR_Seq_SAR__HARDWARE_TRIGGER)
 370:Generated_Source\PSoC5/ADC_SAR_Seq_SAR.c **** 
 371:Generated_Source\PSoC5/ADC_SAR_Seq_SAR.c **** 
 372:Generated_Source\PSoC5/ADC_SAR_Seq_SAR.c ****     /*******************************************************************************
 373:Generated_Source\PSoC5/ADC_SAR_Seq_SAR.c ****     * Function Name: ADC_SAR_Seq_SAR_StartConvert
 374:Generated_Source\PSoC5/ADC_SAR_Seq_SAR.c ****     ********************************************************************************
 375:Generated_Source\PSoC5/ADC_SAR_Seq_SAR.c ****     *
 376:Generated_Source\PSoC5/ADC_SAR_Seq_SAR.c ****     * Summary:
 377:Generated_Source\PSoC5/ADC_SAR_Seq_SAR.c ****     *  Forces the ADC to initiate a conversion. In free-running mode, the ADC runs
 378:Generated_Source\PSoC5/ADC_SAR_Seq_SAR.c ****     *  continuously. In software trigger mode, the function also acts as a software
 379:Generated_Source\PSoC5/ADC_SAR_Seq_SAR.c ****     *  version of the SOC and every conversion must be triggered by
 380:Generated_Source\PSoC5/ADC_SAR_Seq_SAR.c ****     *  ADC_SAR_Seq_SAR_StartConvert(). This function is not available when the
 381:Generated_Source\PSoC5/ADC_SAR_Seq_SAR.c ****     *  Hardware Trigger sample mode is selected.
 382:Generated_Source\PSoC5/ADC_SAR_Seq_SAR.c ****     *
 383:Generated_Source\PSoC5/ADC_SAR_Seq_SAR.c ****     * Parameters:
 384:Generated_Source\PSoC5/ADC_SAR_Seq_SAR.c ****     *  None.
 385:Generated_Source\PSoC5/ADC_SAR_Seq_SAR.c ****     *
 386:Generated_Source\PSoC5/ADC_SAR_Seq_SAR.c ****     * Return:
 387:Generated_Source\PSoC5/ADC_SAR_Seq_SAR.c ****     *  None.
 388:Generated_Source\PSoC5/ADC_SAR_Seq_SAR.c ****     *
 389:Generated_Source\PSoC5/ADC_SAR_Seq_SAR.c ****     * Theory:
 390:Generated_Source\PSoC5/ADC_SAR_Seq_SAR.c ****     *  Forces the ADC to initiate a conversion. In Free Running mode, the ADC will
 391:Generated_Source\PSoC5/ADC_SAR_Seq_SAR.c ****     *  run continuously. In a software trigger mode the function also acts as a
 392:Generated_Source\PSoC5/ADC_SAR_Seq_SAR.c ****     *  software version of the SOC. Here every conversion has to be triggered by
 393:Generated_Source\PSoC5/ADC_SAR_Seq_SAR.c ****     *  the routine. This writes into the SOC bit in SAR_CTRL reg.
 394:Generated_Source\PSoC5/ADC_SAR_Seq_SAR.c ****     *
 395:Generated_Source\PSoC5/ADC_SAR_Seq_SAR.c ****     * Side Effects:
 396:Generated_Source\PSoC5/ADC_SAR_Seq_SAR.c ****     *  In a software trigger mode the function switches source for SOF from the
 397:Generated_Source\PSoC5/ADC_SAR_Seq_SAR.c ****     *  external pin to the internal SOF generation. Application should not call
 398:Generated_Source\PSoC5/ADC_SAR_Seq_SAR.c ****     *  StartConvert if external source used for SOF.
 399:Generated_Source\PSoC5/ADC_SAR_Seq_SAR.c ****     *
 400:Generated_Source\PSoC5/ADC_SAR_Seq_SAR.c ****     *******************************************************************************/
 401:Generated_Source\PSoC5/ADC_SAR_Seq_SAR.c ****     void ADC_SAR_Seq_SAR_StartConvert(void)
 402:Generated_Source\PSoC5/ADC_SAR_Seq_SAR.c ****     {
ARM GAS  C:\Users\Admin\AppData\Local\Temp\cchDS2nB.s 			page 16


 454              		.loc 1 402 0
 455              		.cfi_startproc
 456              		@ args = 0, pretend = 0, frame = 0
 457              		@ frame_needed = 1, uses_anonymous_args = 0
 458              		@ link register save eliminated.
 459 0000 80B4     		push	{r7}
 460              		.cfi_def_cfa_offset 4
 461              		.cfi_offset 7, -4
 462 0002 00AF     		add	r7, sp, #0
 463              		.cfi_def_cfa_register 7
 403:Generated_Source\PSoC5/ADC_SAR_Seq_SAR.c ****         #if(ADC_SAR_Seq_SAR_DEFAULT_CONV_MODE != ADC_SAR_Seq_SAR__FREE_RUNNING)  /* If software tri
 404:Generated_Source\PSoC5/ADC_SAR_Seq_SAR.c ****             ADC_SAR_Seq_SAR_SAR_CSR0_REG &= (uint8)~ADC_SAR_Seq_SAR_SAR_MX_SOF_UDB;   /* source: SO
 405:Generated_Source\PSoC5/ADC_SAR_Seq_SAR.c ****         #endif /* End ADC_SAR_Seq_SAR_DEFAULT_CONV_MODE */
 406:Generated_Source\PSoC5/ADC_SAR_Seq_SAR.c **** 
 407:Generated_Source\PSoC5/ADC_SAR_Seq_SAR.c ****         /* Start the conversion */
 408:Generated_Source\PSoC5/ADC_SAR_Seq_SAR.c ****         ADC_SAR_Seq_SAR_SAR_CSR0_REG |= ADC_SAR_Seq_SAR_SAR_SOF_START_CONV;
 464              		.loc 1 408 0
 465 0004 054A     		ldr	r2, .L27
 466 0006 054B     		ldr	r3, .L27
 467 0008 1B78     		ldrb	r3, [r3]
 468 000a DBB2     		uxtb	r3, r3
 469 000c 43F00103 		orr	r3, r3, #1
 470 0010 DBB2     		uxtb	r3, r3
 471 0012 1370     		strb	r3, [r2]
 409:Generated_Source\PSoC5/ADC_SAR_Seq_SAR.c ****     }
 472              		.loc 1 409 0
 473 0014 00BF     		nop
 474 0016 BD46     		mov	sp, r7
 475              		.cfi_def_cfa_register 13
 476              		@ sp needed
 477 0018 80BC     		pop	{r7}
 478              		.cfi_restore 7
 479              		.cfi_def_cfa_offset 0
 480 001a 7047     		bx	lr
 481              	.L28:
 482              		.align	2
 483              	.L27:
 484 001c 00590040 		.word	1073764608
 485              		.cfi_endproc
 486              	.LFE6:
 487              		.size	ADC_SAR_Seq_SAR_StartConvert, .-ADC_SAR_Seq_SAR_StartConvert
 488              		.section	.text.ADC_SAR_Seq_SAR_StopConvert,"ax",%progbits
 489              		.align	2
 490              		.global	ADC_SAR_Seq_SAR_StopConvert
 491              		.thumb
 492              		.thumb_func
 493              		.type	ADC_SAR_Seq_SAR_StopConvert, %function
 494              	ADC_SAR_Seq_SAR_StopConvert:
 495              	.LFB7:
 410:Generated_Source\PSoC5/ADC_SAR_Seq_SAR.c **** 
 411:Generated_Source\PSoC5/ADC_SAR_Seq_SAR.c **** 
 412:Generated_Source\PSoC5/ADC_SAR_Seq_SAR.c ****     /*******************************************************************************
 413:Generated_Source\PSoC5/ADC_SAR_Seq_SAR.c ****     * Function Name: ADC_SAR_Seq_SAR_StopConvert
 414:Generated_Source\PSoC5/ADC_SAR_Seq_SAR.c ****     ********************************************************************************
 415:Generated_Source\PSoC5/ADC_SAR_Seq_SAR.c ****     *
 416:Generated_Source\PSoC5/ADC_SAR_Seq_SAR.c ****     * Summary:
 417:Generated_Source\PSoC5/ADC_SAR_Seq_SAR.c ****     *  Forces the ADC to stop conversions. If a conversion is currently executing,
ARM GAS  C:\Users\Admin\AppData\Local\Temp\cchDS2nB.s 			page 17


 418:Generated_Source\PSoC5/ADC_SAR_Seq_SAR.c ****     *  that conversion will complete, but no further conversions will occur. This
 419:Generated_Source\PSoC5/ADC_SAR_Seq_SAR.c ****     *  function is not available when the Hardware Trigger sample mode is selected.
 420:Generated_Source\PSoC5/ADC_SAR_Seq_SAR.c ****     *
 421:Generated_Source\PSoC5/ADC_SAR_Seq_SAR.c ****     * Parameters:
 422:Generated_Source\PSoC5/ADC_SAR_Seq_SAR.c ****     *  None.
 423:Generated_Source\PSoC5/ADC_SAR_Seq_SAR.c ****     *
 424:Generated_Source\PSoC5/ADC_SAR_Seq_SAR.c ****     * Return:
 425:Generated_Source\PSoC5/ADC_SAR_Seq_SAR.c ****     *  None.
 426:Generated_Source\PSoC5/ADC_SAR_Seq_SAR.c ****     *
 427:Generated_Source\PSoC5/ADC_SAR_Seq_SAR.c ****     * Theory:
 428:Generated_Source\PSoC5/ADC_SAR_Seq_SAR.c ****     *  Stops ADC conversion in Free Running mode.
 429:Generated_Source\PSoC5/ADC_SAR_Seq_SAR.c ****     *
 430:Generated_Source\PSoC5/ADC_SAR_Seq_SAR.c ****     * Side Effects:
 431:Generated_Source\PSoC5/ADC_SAR_Seq_SAR.c ****     *  In Software Trigger sample mode, this function sets a software version of the
 432:Generated_Source\PSoC5/ADC_SAR_Seq_SAR.c ****     *  SOC to low level and switches the SOC source to hardware SOC input.
 433:Generated_Source\PSoC5/ADC_SAR_Seq_SAR.c ****     *
 434:Generated_Source\PSoC5/ADC_SAR_Seq_SAR.c ****     *******************************************************************************/
 435:Generated_Source\PSoC5/ADC_SAR_Seq_SAR.c ****     void ADC_SAR_Seq_SAR_StopConvert(void)
 436:Generated_Source\PSoC5/ADC_SAR_Seq_SAR.c ****     {
 496              		.loc 1 436 0
 497              		.cfi_startproc
 498              		@ args = 0, pretend = 0, frame = 0
 499              		@ frame_needed = 1, uses_anonymous_args = 0
 500              		@ link register save eliminated.
 501 0000 80B4     		push	{r7}
 502              		.cfi_def_cfa_offset 4
 503              		.cfi_offset 7, -4
 504 0002 00AF     		add	r7, sp, #0
 505              		.cfi_def_cfa_register 7
 437:Generated_Source\PSoC5/ADC_SAR_Seq_SAR.c ****         /* Stop all conversions */
 438:Generated_Source\PSoC5/ADC_SAR_Seq_SAR.c ****         ADC_SAR_Seq_SAR_SAR_CSR0_REG &= (uint8)~ADC_SAR_Seq_SAR_SAR_SOF_START_CONV;
 506              		.loc 1 438 0
 507 0004 054A     		ldr	r2, .L30
 508 0006 054B     		ldr	r3, .L30
 509 0008 1B78     		ldrb	r3, [r3]
 510 000a DBB2     		uxtb	r3, r3
 511 000c 23F00103 		bic	r3, r3, #1
 512 0010 DBB2     		uxtb	r3, r3
 513 0012 1370     		strb	r3, [r2]
 439:Generated_Source\PSoC5/ADC_SAR_Seq_SAR.c **** 
 440:Generated_Source\PSoC5/ADC_SAR_Seq_SAR.c ****         #if(ADC_SAR_Seq_SAR_DEFAULT_CONV_MODE != ADC_SAR_Seq_SAR__FREE_RUNNING)  /* If software tri
 441:Generated_Source\PSoC5/ADC_SAR_Seq_SAR.c ****             /* Return source to UDB for hardware SOF signal */
 442:Generated_Source\PSoC5/ADC_SAR_Seq_SAR.c ****             ADC_SAR_Seq_SAR_SAR_CSR0_REG |= ADC_SAR_Seq_SAR_SAR_MX_SOF_UDB;    /* source: UDB */
 443:Generated_Source\PSoC5/ADC_SAR_Seq_SAR.c ****         #endif /* End ADC_SAR_Seq_SAR_DEFAULT_CONV_MODE */
 444:Generated_Source\PSoC5/ADC_SAR_Seq_SAR.c **** 
 445:Generated_Source\PSoC5/ADC_SAR_Seq_SAR.c ****     }
 514              		.loc 1 445 0
 515 0014 00BF     		nop
 516 0016 BD46     		mov	sp, r7
 517              		.cfi_def_cfa_register 13
 518              		@ sp needed
 519 0018 80BC     		pop	{r7}
 520              		.cfi_restore 7
 521              		.cfi_def_cfa_offset 0
 522 001a 7047     		bx	lr
 523              	.L31:
 524              		.align	2
ARM GAS  C:\Users\Admin\AppData\Local\Temp\cchDS2nB.s 			page 18


 525              	.L30:
 526 001c 00590040 		.word	1073764608
 527              		.cfi_endproc
 528              	.LFE7:
 529              		.size	ADC_SAR_Seq_SAR_StopConvert, .-ADC_SAR_Seq_SAR_StopConvert
 530              		.section	.text.ADC_SAR_Seq_SAR_IsEndConversion,"ax",%progbits
 531              		.align	2
 532              		.global	ADC_SAR_Seq_SAR_IsEndConversion
 533              		.thumb
 534              		.thumb_func
 535              		.type	ADC_SAR_Seq_SAR_IsEndConversion, %function
 536              	ADC_SAR_Seq_SAR_IsEndConversion:
 537              	.LFB8:
 446:Generated_Source\PSoC5/ADC_SAR_Seq_SAR.c **** 
 447:Generated_Source\PSoC5/ADC_SAR_Seq_SAR.c **** #endif /* End ADC_SAR_Seq_SAR_DEFAULT_CONV_MODE != ADC_SAR_Seq_SAR__HARDWARE_TRIGGER */
 448:Generated_Source\PSoC5/ADC_SAR_Seq_SAR.c **** 
 449:Generated_Source\PSoC5/ADC_SAR_Seq_SAR.c **** 
 450:Generated_Source\PSoC5/ADC_SAR_Seq_SAR.c **** /*******************************************************************************
 451:Generated_Source\PSoC5/ADC_SAR_Seq_SAR.c **** * Function Name: ADC_SAR_Seq_SAR_IsEndConversion
 452:Generated_Source\PSoC5/ADC_SAR_Seq_SAR.c **** ********************************************************************************
 453:Generated_Source\PSoC5/ADC_SAR_Seq_SAR.c **** *
 454:Generated_Source\PSoC5/ADC_SAR_Seq_SAR.c **** * Summary:
 455:Generated_Source\PSoC5/ADC_SAR_Seq_SAR.c **** *  Immediately returns the status of the conversion or does not return
 456:Generated_Source\PSoC5/ADC_SAR_Seq_SAR.c **** *  (blocking) until the conversion completes, depending on the retMode
 457:Generated_Source\PSoC5/ADC_SAR_Seq_SAR.c **** *  parameter.
 458:Generated_Source\PSoC5/ADC_SAR_Seq_SAR.c **** *
 459:Generated_Source\PSoC5/ADC_SAR_Seq_SAR.c **** * Parameters:
 460:Generated_Source\PSoC5/ADC_SAR_Seq_SAR.c **** *  retMode:  Check conversion return mode.
 461:Generated_Source\PSoC5/ADC_SAR_Seq_SAR.c **** *   ADC_SAR_Seq_SAR_RETURN_STATUS: Immediately returns the status. If the
 462:Generated_Source\PSoC5/ADC_SAR_Seq_SAR.c **** *     value returned is zero, the conversion is not complete, and this function
 463:Generated_Source\PSoC5/ADC_SAR_Seq_SAR.c **** *     should be retried until a nonzero result is returned.
 464:Generated_Source\PSoC5/ADC_SAR_Seq_SAR.c **** *   ADC_SAR_Seq_SAR_WAIT_FOR_RESULT: Does not return a result until the ADC
 465:Generated_Source\PSoC5/ADC_SAR_Seq_SAR.c **** *     conversion is complete.
 466:Generated_Source\PSoC5/ADC_SAR_Seq_SAR.c **** *
 467:Generated_Source\PSoC5/ADC_SAR_Seq_SAR.c **** * Return:
 468:Generated_Source\PSoC5/ADC_SAR_Seq_SAR.c **** *  (uint8)  0 =>  The ADC is still calculating the last result.
 469:Generated_Source\PSoC5/ADC_SAR_Seq_SAR.c **** *           1 =>  The last conversion is complete.
 470:Generated_Source\PSoC5/ADC_SAR_Seq_SAR.c **** *
 471:Generated_Source\PSoC5/ADC_SAR_Seq_SAR.c **** * Side Effects:
 472:Generated_Source\PSoC5/ADC_SAR_Seq_SAR.c **** *  This function reads the end of conversion status, which is cleared on read.
 473:Generated_Source\PSoC5/ADC_SAR_Seq_SAR.c **** *
 474:Generated_Source\PSoC5/ADC_SAR_Seq_SAR.c **** *******************************************************************************/
 475:Generated_Source\PSoC5/ADC_SAR_Seq_SAR.c **** uint8 ADC_SAR_Seq_SAR_IsEndConversion(uint8 retMode)
 476:Generated_Source\PSoC5/ADC_SAR_Seq_SAR.c **** {
 538              		.loc 1 476 0
 539              		.cfi_startproc
 540              		@ args = 0, pretend = 0, frame = 16
 541              		@ frame_needed = 1, uses_anonymous_args = 0
 542 0000 80B5     		push	{r7, lr}
 543              		.cfi_def_cfa_offset 8
 544              		.cfi_offset 7, -8
 545              		.cfi_offset 14, -4
 546 0002 84B0     		sub	sp, sp, #16
 547              		.cfi_def_cfa_offset 24
 548 0004 00AF     		add	r7, sp, #0
 549              		.cfi_def_cfa_register 7
 550 0006 0346     		mov	r3, r0
ARM GAS  C:\Users\Admin\AppData\Local\Temp\cchDS2nB.s 			page 19


 551 0008 FB71     		strb	r3, [r7, #7]
 552              	.L34:
 477:Generated_Source\PSoC5/ADC_SAR_Seq_SAR.c ****     uint8 status;
 478:Generated_Source\PSoC5/ADC_SAR_Seq_SAR.c **** 
 479:Generated_Source\PSoC5/ADC_SAR_Seq_SAR.c ****     do
 480:Generated_Source\PSoC5/ADC_SAR_Seq_SAR.c ****     {
 481:Generated_Source\PSoC5/ADC_SAR_Seq_SAR.c ****         status = ADC_SAR_Seq_SAR_SAR_CSR1_REG & ADC_SAR_Seq_SAR_SAR_EOF_1;
 553              		.loc 1 481 0 discriminator 2
 554 000a 0C4B     		ldr	r3, .L37
 555 000c 1B78     		ldrb	r3, [r3]
 556 000e DBB2     		uxtb	r3, r3
 557 0010 03F00103 		and	r3, r3, #1
 558 0014 FB73     		strb	r3, [r7, #15]
 482:Generated_Source\PSoC5/ADC_SAR_Seq_SAR.c ****     } while ((status != ADC_SAR_Seq_SAR_SAR_EOF_1) && (retMode == ADC_SAR_Seq_SAR_WAIT_FOR_RESULT))
 559              		.loc 1 482 0 discriminator 2
 560 0016 FB7B     		ldrb	r3, [r7, #15]	@ zero_extendqisi2
 561 0018 012B     		cmp	r3, #1
 562 001a 02D0     		beq	.L33
 563              		.loc 1 482 0 is_stmt 0 discriminator 1
 564 001c FB79     		ldrb	r3, [r7, #7]	@ zero_extendqisi2
 565 001e 002B     		cmp	r3, #0
 566 0020 F3D0     		beq	.L34
 567              	.L33:
 483:Generated_Source\PSoC5/ADC_SAR_Seq_SAR.c ****     /* If convertion complete, wait until EOF bit released */
 484:Generated_Source\PSoC5/ADC_SAR_Seq_SAR.c ****     if(status == ADC_SAR_Seq_SAR_SAR_EOF_1)
 568              		.loc 1 484 0 is_stmt 1
 569 0022 FB7B     		ldrb	r3, [r7, #15]	@ zero_extendqisi2
 570 0024 012B     		cmp	r3, #1
 571 0026 04D1     		bne	.L35
 485:Generated_Source\PSoC5/ADC_SAR_Seq_SAR.c ****     {
 486:Generated_Source\PSoC5/ADC_SAR_Seq_SAR.c ****         /* wait one ADC clock to let the EOC status bit release */
 487:Generated_Source\PSoC5/ADC_SAR_Seq_SAR.c ****         CyDelayUs(1u);
 572              		.loc 1 487 0
 573 0028 0120     		movs	r0, #1
 574 002a FFF7FEFF 		bl	CyDelayUs
 488:Generated_Source\PSoC5/ADC_SAR_Seq_SAR.c ****         /* Do the unconditional read operation of the CSR1 register to make sure the EOC bit has be
 489:Generated_Source\PSoC5/ADC_SAR_Seq_SAR.c ****         CY_GET_REG8(ADC_SAR_Seq_SAR_SAR_CSR1_PTR);
 575              		.loc 1 489 0
 576 002e 034B     		ldr	r3, .L37
 577 0030 1B78     		ldrb	r3, [r3]
 578              	.L35:
 490:Generated_Source\PSoC5/ADC_SAR_Seq_SAR.c ****     }
 491:Generated_Source\PSoC5/ADC_SAR_Seq_SAR.c **** 
 492:Generated_Source\PSoC5/ADC_SAR_Seq_SAR.c ****     return(status);
 579              		.loc 1 492 0
 580 0032 FB7B     		ldrb	r3, [r7, #15]	@ zero_extendqisi2
 493:Generated_Source\PSoC5/ADC_SAR_Seq_SAR.c **** }
 581              		.loc 1 493 0
 582 0034 1846     		mov	r0, r3
 583 0036 1037     		adds	r7, r7, #16
 584              		.cfi_def_cfa_offset 8
 585 0038 BD46     		mov	sp, r7
 586              		.cfi_def_cfa_register 13
 587              		@ sp needed
 588 003a 80BD     		pop	{r7, pc}
 589              	.L38:
 590              		.align	2
ARM GAS  C:\Users\Admin\AppData\Local\Temp\cchDS2nB.s 			page 20


 591              	.L37:
 592 003c 01590040 		.word	1073764609
 593              		.cfi_endproc
 594              	.LFE8:
 595              		.size	ADC_SAR_Seq_SAR_IsEndConversion, .-ADC_SAR_Seq_SAR_IsEndConversion
 596              		.section	.text.ADC_SAR_Seq_SAR_GetResult8,"ax",%progbits
 597              		.align	2
 598              		.global	ADC_SAR_Seq_SAR_GetResult8
 599              		.thumb
 600              		.thumb_func
 601              		.type	ADC_SAR_Seq_SAR_GetResult8, %function
 602              	ADC_SAR_Seq_SAR_GetResult8:
 603              	.LFB9:
 494:Generated_Source\PSoC5/ADC_SAR_Seq_SAR.c **** 
 495:Generated_Source\PSoC5/ADC_SAR_Seq_SAR.c **** 
 496:Generated_Source\PSoC5/ADC_SAR_Seq_SAR.c **** /*******************************************************************************
 497:Generated_Source\PSoC5/ADC_SAR_Seq_SAR.c **** * Function Name: ADC_SAR_Seq_SAR_GetResult8
 498:Generated_Source\PSoC5/ADC_SAR_Seq_SAR.c **** ********************************************************************************
 499:Generated_Source\PSoC5/ADC_SAR_Seq_SAR.c **** *
 500:Generated_Source\PSoC5/ADC_SAR_Seq_SAR.c **** * Summary:
 501:Generated_Source\PSoC5/ADC_SAR_Seq_SAR.c **** *  Returns the result of an 8-bit conversion. If the resolution is set greater
 502:Generated_Source\PSoC5/ADC_SAR_Seq_SAR.c **** *  than 8 bits, the function returns the LSB of the result.
 503:Generated_Source\PSoC5/ADC_SAR_Seq_SAR.c **** *  ADC_SAR_Seq_SAR_IsEndConversion() should be called to verify that the data
 504:Generated_Source\PSoC5/ADC_SAR_Seq_SAR.c **** *   sample is ready.
 505:Generated_Source\PSoC5/ADC_SAR_Seq_SAR.c **** *
 506:Generated_Source\PSoC5/ADC_SAR_Seq_SAR.c **** * Parameters:
 507:Generated_Source\PSoC5/ADC_SAR_Seq_SAR.c **** *  None.
 508:Generated_Source\PSoC5/ADC_SAR_Seq_SAR.c **** *
 509:Generated_Source\PSoC5/ADC_SAR_Seq_SAR.c **** * Return:
 510:Generated_Source\PSoC5/ADC_SAR_Seq_SAR.c **** *  The LSB of the last ADC conversion.
 511:Generated_Source\PSoC5/ADC_SAR_Seq_SAR.c **** *
 512:Generated_Source\PSoC5/ADC_SAR_Seq_SAR.c **** * Global Variables:
 513:Generated_Source\PSoC5/ADC_SAR_Seq_SAR.c **** *  ADC_SAR_Seq_SAR_shift - used to convert the ADC counts to the 2s
 514:Generated_Source\PSoC5/ADC_SAR_Seq_SAR.c **** *  compliment form.
 515:Generated_Source\PSoC5/ADC_SAR_Seq_SAR.c **** *
 516:Generated_Source\PSoC5/ADC_SAR_Seq_SAR.c **** * Side Effects:
 517:Generated_Source\PSoC5/ADC_SAR_Seq_SAR.c **** *  Converts the ADC counts to the 2s complement form.
 518:Generated_Source\PSoC5/ADC_SAR_Seq_SAR.c **** *
 519:Generated_Source\PSoC5/ADC_SAR_Seq_SAR.c **** *******************************************************************************/
 520:Generated_Source\PSoC5/ADC_SAR_Seq_SAR.c **** int8 ADC_SAR_Seq_SAR_GetResult8( void )
 521:Generated_Source\PSoC5/ADC_SAR_Seq_SAR.c **** {
 604              		.loc 1 521 0
 605              		.cfi_startproc
 606              		@ args = 0, pretend = 0, frame = 0
 607              		@ frame_needed = 1, uses_anonymous_args = 0
 608              		@ link register save eliminated.
 609 0000 80B4     		push	{r7}
 610              		.cfi_def_cfa_offset 4
 611              		.cfi_offset 7, -4
 612 0002 00AF     		add	r7, sp, #0
 613              		.cfi_def_cfa_register 7
 522:Generated_Source\PSoC5/ADC_SAR_Seq_SAR.c ****     return( (int8)ADC_SAR_Seq_SAR_SAR_WRK0_REG - (int8)ADC_SAR_Seq_SAR_shift);
 614              		.loc 1 522 0
 615 0004 064B     		ldr	r3, .L41
 616 0006 1B78     		ldrb	r3, [r3]
 617 0008 DAB2     		uxtb	r2, r3
 618 000a 064B     		ldr	r3, .L41+4
ARM GAS  C:\Users\Admin\AppData\Local\Temp\cchDS2nB.s 			page 21


 619 000c 1B88     		ldrh	r3, [r3]	@ movhi
 620 000e 1BB2     		sxth	r3, r3
 621 0010 DBB2     		uxtb	r3, r3
 622 0012 D31A     		subs	r3, r2, r3
 623 0014 DBB2     		uxtb	r3, r3
 624 0016 5BB2     		sxtb	r3, r3
 523:Generated_Source\PSoC5/ADC_SAR_Seq_SAR.c **** }
 625              		.loc 1 523 0
 626 0018 1846     		mov	r0, r3
 627 001a BD46     		mov	sp, r7
 628              		.cfi_def_cfa_register 13
 629              		@ sp needed
 630 001c 80BC     		pop	{r7}
 631              		.cfi_restore 7
 632              		.cfi_def_cfa_offset 0
 633 001e 7047     		bx	lr
 634              	.L42:
 635              		.align	2
 636              	.L41:
 637 0020 A05B0040 		.word	1073765280
 638 0024 00000000 		.word	ADC_SAR_Seq_SAR_shift
 639              		.cfi_endproc
 640              	.LFE9:
 641              		.size	ADC_SAR_Seq_SAR_GetResult8, .-ADC_SAR_Seq_SAR_GetResult8
 642              		.section	.text.ADC_SAR_Seq_SAR_GetResult16,"ax",%progbits
 643              		.align	2
 644              		.global	ADC_SAR_Seq_SAR_GetResult16
 645              		.thumb
 646              		.thumb_func
 647              		.type	ADC_SAR_Seq_SAR_GetResult16, %function
 648              	ADC_SAR_Seq_SAR_GetResult16:
 649              	.LFB10:
 524:Generated_Source\PSoC5/ADC_SAR_Seq_SAR.c **** 
 525:Generated_Source\PSoC5/ADC_SAR_Seq_SAR.c **** 
 526:Generated_Source\PSoC5/ADC_SAR_Seq_SAR.c **** /*******************************************************************************
 527:Generated_Source\PSoC5/ADC_SAR_Seq_SAR.c **** * Function Name: ADC_SAR_Seq_SAR_GetResult16
 528:Generated_Source\PSoC5/ADC_SAR_Seq_SAR.c **** ********************************************************************************
 529:Generated_Source\PSoC5/ADC_SAR_Seq_SAR.c **** *
 530:Generated_Source\PSoC5/ADC_SAR_Seq_SAR.c **** * Summary:
 531:Generated_Source\PSoC5/ADC_SAR_Seq_SAR.c **** *  Returns a 16-bit result for a conversion with a result that has a resolution
 532:Generated_Source\PSoC5/ADC_SAR_Seq_SAR.c **** *  of 8 to 12 bits.
 533:Generated_Source\PSoC5/ADC_SAR_Seq_SAR.c **** *  ADC_SAR_Seq_SAR_IsEndConversion() should be called to verify that the data
 534:Generated_Source\PSoC5/ADC_SAR_Seq_SAR.c **** *   sample is ready
 535:Generated_Source\PSoC5/ADC_SAR_Seq_SAR.c **** *
 536:Generated_Source\PSoC5/ADC_SAR_Seq_SAR.c **** * Parameters:
 537:Generated_Source\PSoC5/ADC_SAR_Seq_SAR.c **** *  None.
 538:Generated_Source\PSoC5/ADC_SAR_Seq_SAR.c **** *
 539:Generated_Source\PSoC5/ADC_SAR_Seq_SAR.c **** * Return:
 540:Generated_Source\PSoC5/ADC_SAR_Seq_SAR.c **** *  The 16-bit result of the last ADC conversion
 541:Generated_Source\PSoC5/ADC_SAR_Seq_SAR.c **** *
 542:Generated_Source\PSoC5/ADC_SAR_Seq_SAR.c **** * Global Variables:
 543:Generated_Source\PSoC5/ADC_SAR_Seq_SAR.c **** *  ADC_SAR_Seq_SAR_shift - used to convert the ADC counts to the 2s
 544:Generated_Source\PSoC5/ADC_SAR_Seq_SAR.c **** *  compliment form.
 545:Generated_Source\PSoC5/ADC_SAR_Seq_SAR.c **** *
 546:Generated_Source\PSoC5/ADC_SAR_Seq_SAR.c **** * Side Effects:
 547:Generated_Source\PSoC5/ADC_SAR_Seq_SAR.c **** *  Converts the ADC counts to the 2s complement form.
 548:Generated_Source\PSoC5/ADC_SAR_Seq_SAR.c **** *
ARM GAS  C:\Users\Admin\AppData\Local\Temp\cchDS2nB.s 			page 22


 549:Generated_Source\PSoC5/ADC_SAR_Seq_SAR.c **** *******************************************************************************/
 550:Generated_Source\PSoC5/ADC_SAR_Seq_SAR.c **** int16 ADC_SAR_Seq_SAR_GetResult16( void )
 551:Generated_Source\PSoC5/ADC_SAR_Seq_SAR.c **** {
 650              		.loc 1 551 0
 651              		.cfi_startproc
 652              		@ args = 0, pretend = 0, frame = 8
 653              		@ frame_needed = 1, uses_anonymous_args = 0
 654              		@ link register save eliminated.
 655 0000 80B4     		push	{r7}
 656              		.cfi_def_cfa_offset 4
 657              		.cfi_offset 7, -4
 658 0002 83B0     		sub	sp, sp, #12
 659              		.cfi_def_cfa_offset 16
 660 0004 00AF     		add	r7, sp, #0
 661              		.cfi_def_cfa_register 7
 552:Generated_Source\PSoC5/ADC_SAR_Seq_SAR.c ****     uint16 res;
 553:Generated_Source\PSoC5/ADC_SAR_Seq_SAR.c **** 
 554:Generated_Source\PSoC5/ADC_SAR_Seq_SAR.c ****     res = CY_GET_REG16(ADC_SAR_Seq_SAR_SAR_WRK_PTR);
 662              		.loc 1 554 0
 663 0006 084B     		ldr	r3, .L45
 664 0008 1B88     		ldrh	r3, [r3]	@ movhi
 665 000a FB80     		strh	r3, [r7, #6]	@ movhi
 555:Generated_Source\PSoC5/ADC_SAR_Seq_SAR.c **** 
 556:Generated_Source\PSoC5/ADC_SAR_Seq_SAR.c ****     return( (int16)res - ADC_SAR_Seq_SAR_shift );
 666              		.loc 1 556 0
 667 000c 074B     		ldr	r3, .L45+4
 668 000e 1B88     		ldrh	r3, [r3]	@ movhi
 669 0010 1BB2     		sxth	r3, r3
 670 0012 9BB2     		uxth	r3, r3
 671 0014 FA88     		ldrh	r2, [r7, #6]	@ movhi
 672 0016 D31A     		subs	r3, r2, r3
 673 0018 9BB2     		uxth	r3, r3
 674 001a 1BB2     		sxth	r3, r3
 557:Generated_Source\PSoC5/ADC_SAR_Seq_SAR.c **** }
 675              		.loc 1 557 0
 676 001c 1846     		mov	r0, r3
 677 001e 0C37     		adds	r7, r7, #12
 678              		.cfi_def_cfa_offset 4
 679 0020 BD46     		mov	sp, r7
 680              		.cfi_def_cfa_register 13
 681              		@ sp needed
 682 0022 80BC     		pop	{r7}
 683              		.cfi_restore 7
 684              		.cfi_def_cfa_offset 0
 685 0024 7047     		bx	lr
 686              	.L46:
 687 0026 00BF     		.align	2
 688              	.L45:
 689 0028 A05B0040 		.word	1073765280
 690 002c 00000000 		.word	ADC_SAR_Seq_SAR_shift
 691              		.cfi_endproc
 692              	.LFE10:
 693              		.size	ADC_SAR_Seq_SAR_GetResult16, .-ADC_SAR_Seq_SAR_GetResult16
 694              		.section	.text.ADC_SAR_Seq_SAR_SetOffset,"ax",%progbits
 695              		.align	2
 696              		.global	ADC_SAR_Seq_SAR_SetOffset
 697              		.thumb
ARM GAS  C:\Users\Admin\AppData\Local\Temp\cchDS2nB.s 			page 23


 698              		.thumb_func
 699              		.type	ADC_SAR_Seq_SAR_SetOffset, %function
 700              	ADC_SAR_Seq_SAR_SetOffset:
 701              	.LFB11:
 558:Generated_Source\PSoC5/ADC_SAR_Seq_SAR.c **** 
 559:Generated_Source\PSoC5/ADC_SAR_Seq_SAR.c **** 
 560:Generated_Source\PSoC5/ADC_SAR_Seq_SAR.c **** /*******************************************************************************
 561:Generated_Source\PSoC5/ADC_SAR_Seq_SAR.c **** * Function Name: ADC_SAR_Seq_SAR_SetOffset
 562:Generated_Source\PSoC5/ADC_SAR_Seq_SAR.c **** ********************************************************************************
 563:Generated_Source\PSoC5/ADC_SAR_Seq_SAR.c **** *
 564:Generated_Source\PSoC5/ADC_SAR_Seq_SAR.c **** * Summary:
 565:Generated_Source\PSoC5/ADC_SAR_Seq_SAR.c **** *  Sets the ADC offset, which is used by ADC_SAR_Seq_SAR_CountsTo_Volts(),
 566:Generated_Source\PSoC5/ADC_SAR_Seq_SAR.c **** *  ADC_SAR_Seq_SAR_CountsTo_mVolts(), and ADC_SAR_Seq_SAR_CountsTo_uVolts()
 567:Generated_Source\PSoC5/ADC_SAR_Seq_SAR.c **** *  to subtract the offset from the given reading before calculating the voltage
 568:Generated_Source\PSoC5/ADC_SAR_Seq_SAR.c **** *  conversion.
 569:Generated_Source\PSoC5/ADC_SAR_Seq_SAR.c **** *
 570:Generated_Source\PSoC5/ADC_SAR_Seq_SAR.c **** * Parameters:
 571:Generated_Source\PSoC5/ADC_SAR_Seq_SAR.c **** *  int16: This value is measured when the inputs are shorted or connected to
 572:Generated_Source\PSoC5/ADC_SAR_Seq_SAR.c ****    the same input voltage.
 573:Generated_Source\PSoC5/ADC_SAR_Seq_SAR.c **** *
 574:Generated_Source\PSoC5/ADC_SAR_Seq_SAR.c **** * Return:
 575:Generated_Source\PSoC5/ADC_SAR_Seq_SAR.c **** *  None.
 576:Generated_Source\PSoC5/ADC_SAR_Seq_SAR.c **** *
 577:Generated_Source\PSoC5/ADC_SAR_Seq_SAR.c **** * Global Variables:
 578:Generated_Source\PSoC5/ADC_SAR_Seq_SAR.c **** *  The ADC_SAR_Seq_SAR_offset variable modified. This variable is used for
 579:Generated_Source\PSoC5/ADC_SAR_Seq_SAR.c **** *  offset calibration purpose.
 580:Generated_Source\PSoC5/ADC_SAR_Seq_SAR.c **** *  Affects the ADC_SAR_Seq_SAR_CountsTo_Volts,
 581:Generated_Source\PSoC5/ADC_SAR_Seq_SAR.c **** *  ADC_SAR_Seq_SAR_CountsTo_mVolts, ADC_SAR_Seq_SAR_CountsTo_uVolts functions
 582:Generated_Source\PSoC5/ADC_SAR_Seq_SAR.c **** *  by subtracting the given offset.
 583:Generated_Source\PSoC5/ADC_SAR_Seq_SAR.c **** *
 584:Generated_Source\PSoC5/ADC_SAR_Seq_SAR.c **** *******************************************************************************/
 585:Generated_Source\PSoC5/ADC_SAR_Seq_SAR.c **** void ADC_SAR_Seq_SAR_SetOffset(int16 offset)
 586:Generated_Source\PSoC5/ADC_SAR_Seq_SAR.c **** {
 702              		.loc 1 586 0
 703              		.cfi_startproc
 704              		@ args = 0, pretend = 0, frame = 8
 705              		@ frame_needed = 1, uses_anonymous_args = 0
 706              		@ link register save eliminated.
 707 0000 80B4     		push	{r7}
 708              		.cfi_def_cfa_offset 4
 709              		.cfi_offset 7, -4
 710 0002 83B0     		sub	sp, sp, #12
 711              		.cfi_def_cfa_offset 16
 712 0004 00AF     		add	r7, sp, #0
 713              		.cfi_def_cfa_register 7
 714 0006 0346     		mov	r3, r0
 715 0008 FB80     		strh	r3, [r7, #6]	@ movhi
 587:Generated_Source\PSoC5/ADC_SAR_Seq_SAR.c ****     ADC_SAR_Seq_SAR_offset = offset;
 716              		.loc 1 587 0
 717 000a 044A     		ldr	r2, .L48
 718 000c FB88     		ldrh	r3, [r7, #6]	@ movhi
 719 000e 1380     		strh	r3, [r2]	@ movhi
 588:Generated_Source\PSoC5/ADC_SAR_Seq_SAR.c **** }
 720              		.loc 1 588 0
 721 0010 00BF     		nop
 722 0012 0C37     		adds	r7, r7, #12
 723              		.cfi_def_cfa_offset 4
ARM GAS  C:\Users\Admin\AppData\Local\Temp\cchDS2nB.s 			page 24


 724 0014 BD46     		mov	sp, r7
 725              		.cfi_def_cfa_register 13
 726              		@ sp needed
 727 0016 80BC     		pop	{r7}
 728              		.cfi_restore 7
 729              		.cfi_def_cfa_offset 0
 730 0018 7047     		bx	lr
 731              	.L49:
 732 001a 00BF     		.align	2
 733              	.L48:
 734 001c 00000000 		.word	ADC_SAR_Seq_SAR_offset
 735              		.cfi_endproc
 736              	.LFE11:
 737              		.size	ADC_SAR_Seq_SAR_SetOffset, .-ADC_SAR_Seq_SAR_SetOffset
 738              		.section	.text.ADC_SAR_Seq_SAR_CalcGain,"ax",%progbits
 739              		.align	2
 740              		.thumb
 741              		.thumb_func
 742              		.type	ADC_SAR_Seq_SAR_CalcGain, %function
 743              	ADC_SAR_Seq_SAR_CalcGain:
 744              	.LFB12:
 589:Generated_Source\PSoC5/ADC_SAR_Seq_SAR.c **** 
 590:Generated_Source\PSoC5/ADC_SAR_Seq_SAR.c **** 
 591:Generated_Source\PSoC5/ADC_SAR_Seq_SAR.c **** /*******************************************************************************
 592:Generated_Source\PSoC5/ADC_SAR_Seq_SAR.c **** * Function Name: ADC_SAR_Seq_SAR_CalcGain
 593:Generated_Source\PSoC5/ADC_SAR_Seq_SAR.c **** ********************************************************************************
 594:Generated_Source\PSoC5/ADC_SAR_Seq_SAR.c **** *
 595:Generated_Source\PSoC5/ADC_SAR_Seq_SAR.c **** * Summary:
 596:Generated_Source\PSoC5/ADC_SAR_Seq_SAR.c **** *  This function calculates the ADC gain in counts per 10 volt.
 597:Generated_Source\PSoC5/ADC_SAR_Seq_SAR.c **** *
 598:Generated_Source\PSoC5/ADC_SAR_Seq_SAR.c **** * Parameters:
 599:Generated_Source\PSoC5/ADC_SAR_Seq_SAR.c **** *  uint8: resolution
 600:Generated_Source\PSoC5/ADC_SAR_Seq_SAR.c **** *
 601:Generated_Source\PSoC5/ADC_SAR_Seq_SAR.c **** * Return:
 602:Generated_Source\PSoC5/ADC_SAR_Seq_SAR.c **** *  None.
 603:Generated_Source\PSoC5/ADC_SAR_Seq_SAR.c **** *
 604:Generated_Source\PSoC5/ADC_SAR_Seq_SAR.c **** * Global Variables:
 605:Generated_Source\PSoC5/ADC_SAR_Seq_SAR.c **** *  ADC_SAR_Seq_SAR_shift variable initialized. This variable is used to
 606:Generated_Source\PSoC5/ADC_SAR_Seq_SAR.c **** *  convert the ADC counts to the 2s compliment form.
 607:Generated_Source\PSoC5/ADC_SAR_Seq_SAR.c **** *  ADC_SAR_Seq_SAR_countsPer10Volt variable initialized. This variable is used
 608:Generated_Source\PSoC5/ADC_SAR_Seq_SAR.c **** *  for gain calibration purpose.
 609:Generated_Source\PSoC5/ADC_SAR_Seq_SAR.c **** *
 610:Generated_Source\PSoC5/ADC_SAR_Seq_SAR.c **** *******************************************************************************/
 611:Generated_Source\PSoC5/ADC_SAR_Seq_SAR.c **** static void ADC_SAR_Seq_SAR_CalcGain( uint8 resolution )
 612:Generated_Source\PSoC5/ADC_SAR_Seq_SAR.c **** {
 745              		.loc 1 612 0
 746              		.cfi_startproc
 747              		@ args = 0, pretend = 0, frame = 16
 748              		@ frame_needed = 1, uses_anonymous_args = 0
 749              		@ link register save eliminated.
 750 0000 80B4     		push	{r7}
 751              		.cfi_def_cfa_offset 4
 752              		.cfi_offset 7, -4
 753 0002 85B0     		sub	sp, sp, #20
 754              		.cfi_def_cfa_offset 24
 755 0004 00AF     		add	r7, sp, #0
 756              		.cfi_def_cfa_register 7
ARM GAS  C:\Users\Admin\AppData\Local\Temp\cchDS2nB.s 			page 25


 757 0006 0346     		mov	r3, r0
 758 0008 FB71     		strb	r3, [r7, #7]
 613:Generated_Source\PSoC5/ADC_SAR_Seq_SAR.c ****     int32 counts;
 614:Generated_Source\PSoC5/ADC_SAR_Seq_SAR.c ****     #if(!((ADC_SAR_Seq_SAR_DEFAULT_RANGE == ADC_SAR_Seq_SAR__VSS_TO_VREF) || \
 615:Generated_Source\PSoC5/ADC_SAR_Seq_SAR.c ****          (ADC_SAR_Seq_SAR_DEFAULT_RANGE == ADC_SAR_Seq_SAR__VSSA_TO_VDDA) || \
 616:Generated_Source\PSoC5/ADC_SAR_Seq_SAR.c ****          (ADC_SAR_Seq_SAR_DEFAULT_RANGE == ADC_SAR_Seq_SAR__VSSA_TO_VDAC)) )
 617:Generated_Source\PSoC5/ADC_SAR_Seq_SAR.c ****         uint16 diff_zero;
 618:Generated_Source\PSoC5/ADC_SAR_Seq_SAR.c ****     #endif /* End ADC_SAR_Seq_SAR_DEFAULT_RANGE */
 619:Generated_Source\PSoC5/ADC_SAR_Seq_SAR.c **** 
 620:Generated_Source\PSoC5/ADC_SAR_Seq_SAR.c ****     switch (resolution)
 759              		.loc 1 620 0
 760 000a FB79     		ldrb	r3, [r7, #7]	@ zero_extendqisi2
 761 000c 0A2B     		cmp	r3, #10
 762 000e 08D0     		beq	.L52
 763 0010 0C2B     		cmp	r3, #12
 764 0012 02D0     		beq	.L53
 765 0014 082B     		cmp	r3, #8
 766 0016 08D0     		beq	.L54
 767 0018 0BE0     		b	.L56
 768              	.L53:
 621:Generated_Source\PSoC5/ADC_SAR_Seq_SAR.c ****     {
 622:Generated_Source\PSoC5/ADC_SAR_Seq_SAR.c ****         case (uint8)ADC_SAR_Seq_SAR__BITS_12:
 623:Generated_Source\PSoC5/ADC_SAR_Seq_SAR.c ****             counts = (int32)ADC_SAR_Seq_SAR_SAR_WRK_MAX_12BIT;
 769              		.loc 1 623 0
 770 001a 4FF48053 		mov	r3, #4096
 771 001e FB60     		str	r3, [r7, #12]
 624:Generated_Source\PSoC5/ADC_SAR_Seq_SAR.c ****             #if(!((ADC_SAR_Seq_SAR_DEFAULT_RANGE == ADC_SAR_Seq_SAR__VSS_TO_VREF) || \
 625:Generated_Source\PSoC5/ADC_SAR_Seq_SAR.c ****                  (ADC_SAR_Seq_SAR_DEFAULT_RANGE == ADC_SAR_Seq_SAR__VSSA_TO_VDDA) || \
 626:Generated_Source\PSoC5/ADC_SAR_Seq_SAR.c ****                  (ADC_SAR_Seq_SAR_DEFAULT_RANGE == ADC_SAR_Seq_SAR__VSSA_TO_VDAC)) )
 627:Generated_Source\PSoC5/ADC_SAR_Seq_SAR.c ****                 diff_zero = ADC_SAR_Seq_SAR_SAR_DIFF_SHIFT;
 628:Generated_Source\PSoC5/ADC_SAR_Seq_SAR.c ****             #endif /* End ADC_SAR_Seq_SAR_DEFAULT_RANGE */
 629:Generated_Source\PSoC5/ADC_SAR_Seq_SAR.c ****             break;
 772              		.loc 1 629 0
 773 0020 0AE0     		b	.L55
 774              	.L52:
 630:Generated_Source\PSoC5/ADC_SAR_Seq_SAR.c ****         case (uint8)ADC_SAR_Seq_SAR__BITS_10:
 631:Generated_Source\PSoC5/ADC_SAR_Seq_SAR.c ****             counts = (int32)ADC_SAR_Seq_SAR_SAR_WRK_MAX_10BIT;
 775              		.loc 1 631 0
 776 0022 4FF48063 		mov	r3, #1024
 777 0026 FB60     		str	r3, [r7, #12]
 632:Generated_Source\PSoC5/ADC_SAR_Seq_SAR.c ****             #if(!((ADC_SAR_Seq_SAR_DEFAULT_RANGE == ADC_SAR_Seq_SAR__VSS_TO_VREF) || \
 633:Generated_Source\PSoC5/ADC_SAR_Seq_SAR.c ****                  (ADC_SAR_Seq_SAR_DEFAULT_RANGE == ADC_SAR_Seq_SAR__VSSA_TO_VDDA) || \
 634:Generated_Source\PSoC5/ADC_SAR_Seq_SAR.c ****                  (ADC_SAR_Seq_SAR_DEFAULT_RANGE == ADC_SAR_Seq_SAR__VSSA_TO_VDAC)) )
 635:Generated_Source\PSoC5/ADC_SAR_Seq_SAR.c ****                 diff_zero = ADC_SAR_Seq_SAR_SAR_DIFF_SHIFT >> 2u;
 636:Generated_Source\PSoC5/ADC_SAR_Seq_SAR.c ****             #endif /* End ADC_SAR_Seq_SAR_DEFAULT_RANGE */
 637:Generated_Source\PSoC5/ADC_SAR_Seq_SAR.c ****             break;
 778              		.loc 1 637 0
 779 0028 06E0     		b	.L55
 780              	.L54:
 638:Generated_Source\PSoC5/ADC_SAR_Seq_SAR.c ****         case (uint8)ADC_SAR_Seq_SAR__BITS_8:
 639:Generated_Source\PSoC5/ADC_SAR_Seq_SAR.c ****             counts = (int32)ADC_SAR_Seq_SAR_SAR_WRK_MAX_8BIT;
 781              		.loc 1 639 0
 782 002a 4FF48073 		mov	r3, #256
 783 002e FB60     		str	r3, [r7, #12]
 640:Generated_Source\PSoC5/ADC_SAR_Seq_SAR.c ****             #if(!((ADC_SAR_Seq_SAR_DEFAULT_RANGE == ADC_SAR_Seq_SAR__VSS_TO_VREF) || \
 641:Generated_Source\PSoC5/ADC_SAR_Seq_SAR.c ****                  (ADC_SAR_Seq_SAR_DEFAULT_RANGE == ADC_SAR_Seq_SAR__VSSA_TO_VDDA) || \
 642:Generated_Source\PSoC5/ADC_SAR_Seq_SAR.c ****                  (ADC_SAR_Seq_SAR_DEFAULT_RANGE == ADC_SAR_Seq_SAR__VSSA_TO_VDAC)) )
ARM GAS  C:\Users\Admin\AppData\Local\Temp\cchDS2nB.s 			page 26


 643:Generated_Source\PSoC5/ADC_SAR_Seq_SAR.c ****                 diff_zero = ADC_SAR_Seq_SAR_SAR_DIFF_SHIFT >> 4u;
 644:Generated_Source\PSoC5/ADC_SAR_Seq_SAR.c ****             #endif /* End ADC_SAR_Seq_SAR_DEFAULT_RANGE */
 645:Generated_Source\PSoC5/ADC_SAR_Seq_SAR.c ****             break;
 784              		.loc 1 645 0
 785 0030 02E0     		b	.L55
 786              	.L56:
 646:Generated_Source\PSoC5/ADC_SAR_Seq_SAR.c ****         default: /* Halt CPU in debug mode if resolution is out of valid range */
 647:Generated_Source\PSoC5/ADC_SAR_Seq_SAR.c ****             counts = 0;
 787              		.loc 1 647 0
 788 0032 0023     		movs	r3, #0
 789 0034 FB60     		str	r3, [r7, #12]
 648:Generated_Source\PSoC5/ADC_SAR_Seq_SAR.c ****             #if(!((ADC_SAR_Seq_SAR_DEFAULT_RANGE == ADC_SAR_Seq_SAR__VSS_TO_VREF) || \
 649:Generated_Source\PSoC5/ADC_SAR_Seq_SAR.c ****                  (ADC_SAR_Seq_SAR_DEFAULT_RANGE == ADC_SAR_Seq_SAR__VSSA_TO_VDDA) || \
 650:Generated_Source\PSoC5/ADC_SAR_Seq_SAR.c ****                  (ADC_SAR_Seq_SAR_DEFAULT_RANGE == ADC_SAR_Seq_SAR__VSSA_TO_VDAC)) )
 651:Generated_Source\PSoC5/ADC_SAR_Seq_SAR.c ****                 diff_zero = 0u;
 652:Generated_Source\PSoC5/ADC_SAR_Seq_SAR.c ****             #endif /* End ADC_SAR_Seq_SAR_DEFAULT_RANGE */
 653:Generated_Source\PSoC5/ADC_SAR_Seq_SAR.c ****             CYASSERT(0u != 0u);
 654:Generated_Source\PSoC5/ADC_SAR_Seq_SAR.c ****             break;
 790              		.loc 1 654 0
 791 0036 00BF     		nop
 792              	.L55:
 655:Generated_Source\PSoC5/ADC_SAR_Seq_SAR.c ****     }
 656:Generated_Source\PSoC5/ADC_SAR_Seq_SAR.c ****     ADC_SAR_Seq_SAR_countsPerVolt = 0; /* Clear obsolete variable */
 793              		.loc 1 656 0
 794 0038 0C4B     		ldr	r3, .L57
 795 003a 0022     		movs	r2, #0
 796 003c 1A80     		strh	r2, [r3]	@ movhi
 657:Generated_Source\PSoC5/ADC_SAR_Seq_SAR.c ****     /* Calculate gain in counts per 10 volts with rounding */
 658:Generated_Source\PSoC5/ADC_SAR_Seq_SAR.c ****     ADC_SAR_Seq_SAR_countsPer10Volt = (((counts * ADC_SAR_Seq_SAR_10MV_COUNTS) +
 797              		.loc 1 658 0
 798 003e FB68     		ldr	r3, [r7, #12]
 799 0040 42F21072 		movw	r2, #10000
 800 0044 02FB03F3 		mul	r3, r2, r3
 801 0048 03F6C413 		addw	r3, r3, #2500
 659:Generated_Source\PSoC5/ADC_SAR_Seq_SAR.c ****                         ADC_SAR_Seq_SAR_DEFAULT_REF_VOLTAGE_MV) / (ADC_SAR_Seq_SAR_DEFAULT_REF_VOLT
 802              		.loc 1 659 0
 803 004c 084A     		ldr	r2, .L57+4
 804 004e 82FB0312 		smull	r1, r2, r2, r3
 805 0052 D212     		asrs	r2, r2, #11
 806 0054 DB17     		asrs	r3, r3, #31
 807 0056 D31A     		subs	r3, r2, r3
 658:Generated_Source\PSoC5/ADC_SAR_Seq_SAR.c ****                         ADC_SAR_Seq_SAR_DEFAULT_REF_VOLTAGE_MV) / (ADC_SAR_Seq_SAR_DEFAULT_REF_VOLT
 808              		.loc 1 658 0
 809 0058 064A     		ldr	r2, .L57+8
 810 005a 1360     		str	r3, [r2]
 660:Generated_Source\PSoC5/ADC_SAR_Seq_SAR.c **** 
 661:Generated_Source\PSoC5/ADC_SAR_Seq_SAR.c ****     #if( (ADC_SAR_Seq_SAR_DEFAULT_RANGE == ADC_SAR_Seq_SAR__VSS_TO_VREF) || \
 662:Generated_Source\PSoC5/ADC_SAR_Seq_SAR.c ****          (ADC_SAR_Seq_SAR_DEFAULT_RANGE == ADC_SAR_Seq_SAR__VSSA_TO_VDDA) || \
 663:Generated_Source\PSoC5/ADC_SAR_Seq_SAR.c ****          (ADC_SAR_Seq_SAR_DEFAULT_RANGE == ADC_SAR_Seq_SAR__VSSA_TO_VDAC) )
 664:Generated_Source\PSoC5/ADC_SAR_Seq_SAR.c ****         ADC_SAR_Seq_SAR_shift = 0;
 811              		.loc 1 664 0
 812 005c 064B     		ldr	r3, .L57+12
 813 005e 0022     		movs	r2, #0
 814 0060 1A80     		strh	r2, [r3]	@ movhi
 665:Generated_Source\PSoC5/ADC_SAR_Seq_SAR.c ****     #else
 666:Generated_Source\PSoC5/ADC_SAR_Seq_SAR.c ****         ADC_SAR_Seq_SAR_shift = diff_zero;
 667:Generated_Source\PSoC5/ADC_SAR_Seq_SAR.c ****     #endif /* End ADC_SAR_Seq_SAR_DEFAULT_RANGE */
ARM GAS  C:\Users\Admin\AppData\Local\Temp\cchDS2nB.s 			page 27


 668:Generated_Source\PSoC5/ADC_SAR_Seq_SAR.c **** }
 815              		.loc 1 668 0
 816 0062 00BF     		nop
 817 0064 1437     		adds	r7, r7, #20
 818              		.cfi_def_cfa_offset 4
 819 0066 BD46     		mov	sp, r7
 820              		.cfi_def_cfa_register 13
 821              		@ sp needed
 822 0068 80BC     		pop	{r7}
 823              		.cfi_restore 7
 824              		.cfi_def_cfa_offset 0
 825 006a 7047     		bx	lr
 826              	.L58:
 827              		.align	2
 828              	.L57:
 829 006c 00000000 		.word	ADC_SAR_Seq_SAR_countsPerVolt
 830 0070 AD8BDB68 		.word	1759218605
 831 0074 00000000 		.word	ADC_SAR_Seq_SAR_countsPer10Volt
 832 0078 00000000 		.word	ADC_SAR_Seq_SAR_shift
 833              		.cfi_endproc
 834              	.LFE12:
 835              		.size	ADC_SAR_Seq_SAR_CalcGain, .-ADC_SAR_Seq_SAR_CalcGain
 836              		.section	.text.ADC_SAR_Seq_SAR_SetGain,"ax",%progbits
 837              		.align	2
 838              		.global	ADC_SAR_Seq_SAR_SetGain
 839              		.thumb
 840              		.thumb_func
 841              		.type	ADC_SAR_Seq_SAR_SetGain, %function
 842              	ADC_SAR_Seq_SAR_SetGain:
 843              	.LFB13:
 669:Generated_Source\PSoC5/ADC_SAR_Seq_SAR.c **** 
 670:Generated_Source\PSoC5/ADC_SAR_Seq_SAR.c **** 
 671:Generated_Source\PSoC5/ADC_SAR_Seq_SAR.c **** /*******************************************************************************
 672:Generated_Source\PSoC5/ADC_SAR_Seq_SAR.c **** * Function Name: ADC_SAR_Seq_SAR_SetGain
 673:Generated_Source\PSoC5/ADC_SAR_Seq_SAR.c **** ********************************************************************************
 674:Generated_Source\PSoC5/ADC_SAR_Seq_SAR.c **** *
 675:Generated_Source\PSoC5/ADC_SAR_Seq_SAR.c **** * Summary:
 676:Generated_Source\PSoC5/ADC_SAR_Seq_SAR.c **** *  Sets the ADC gain in counts per volt for the voltage conversion functions
 677:Generated_Source\PSoC5/ADC_SAR_Seq_SAR.c **** *  that follow. This value is set by default by the reference and input range
 678:Generated_Source\PSoC5/ADC_SAR_Seq_SAR.c **** *  settings. It should only be used to further calibrate the ADC with a known
 679:Generated_Source\PSoC5/ADC_SAR_Seq_SAR.c **** *  input or if the ADC is using an external reference.
 680:Generated_Source\PSoC5/ADC_SAR_Seq_SAR.c **** *
 681:Generated_Source\PSoC5/ADC_SAR_Seq_SAR.c **** * Parameters:
 682:Generated_Source\PSoC5/ADC_SAR_Seq_SAR.c **** *  int16 adcGain counts per volt
 683:Generated_Source\PSoC5/ADC_SAR_Seq_SAR.c **** *
 684:Generated_Source\PSoC5/ADC_SAR_Seq_SAR.c **** * Return:
 685:Generated_Source\PSoC5/ADC_SAR_Seq_SAR.c **** *  None.
 686:Generated_Source\PSoC5/ADC_SAR_Seq_SAR.c **** *
 687:Generated_Source\PSoC5/ADC_SAR_Seq_SAR.c **** * Global Variables:
 688:Generated_Source\PSoC5/ADC_SAR_Seq_SAR.c **** *  ADC_SAR_Seq_SAR_countsPer10Volt variable modified. This variable is used
 689:Generated_Source\PSoC5/ADC_SAR_Seq_SAR.c **** *  for gain calibration purpose.
 690:Generated_Source\PSoC5/ADC_SAR_Seq_SAR.c **** *
 691:Generated_Source\PSoC5/ADC_SAR_Seq_SAR.c **** *******************************************************************************/
 692:Generated_Source\PSoC5/ADC_SAR_Seq_SAR.c **** void ADC_SAR_Seq_SAR_SetGain(int16 adcGain)
 693:Generated_Source\PSoC5/ADC_SAR_Seq_SAR.c **** {
 844              		.loc 1 693 0
 845              		.cfi_startproc
ARM GAS  C:\Users\Admin\AppData\Local\Temp\cchDS2nB.s 			page 28


 846              		@ args = 0, pretend = 0, frame = 8
 847              		@ frame_needed = 1, uses_anonymous_args = 0
 848              		@ link register save eliminated.
 849 0000 80B4     		push	{r7}
 850              		.cfi_def_cfa_offset 4
 851              		.cfi_offset 7, -4
 852 0002 83B0     		sub	sp, sp, #12
 853              		.cfi_def_cfa_offset 16
 854 0004 00AF     		add	r7, sp, #0
 855              		.cfi_def_cfa_register 7
 856 0006 0346     		mov	r3, r0
 857 0008 FB80     		strh	r3, [r7, #6]	@ movhi
 694:Generated_Source\PSoC5/ADC_SAR_Seq_SAR.c ****     ADC_SAR_Seq_SAR_countsPer10Volt = (int32)adcGain * 10;
 858              		.loc 1 694 0
 859 000a B7F90620 		ldrsh	r2, [r7, #6]
 860 000e 1346     		mov	r3, r2
 861 0010 9B00     		lsls	r3, r3, #2
 862 0012 1344     		add	r3, r3, r2
 863 0014 5B00     		lsls	r3, r3, #1
 864 0016 1A46     		mov	r2, r3
 865 0018 034B     		ldr	r3, .L60
 866 001a 1A60     		str	r2, [r3]
 695:Generated_Source\PSoC5/ADC_SAR_Seq_SAR.c **** }
 867              		.loc 1 695 0
 868 001c 00BF     		nop
 869 001e 0C37     		adds	r7, r7, #12
 870              		.cfi_def_cfa_offset 4
 871 0020 BD46     		mov	sp, r7
 872              		.cfi_def_cfa_register 13
 873              		@ sp needed
 874 0022 80BC     		pop	{r7}
 875              		.cfi_restore 7
 876              		.cfi_def_cfa_offset 0
 877 0024 7047     		bx	lr
 878              	.L61:
 879 0026 00BF     		.align	2
 880              	.L60:
 881 0028 00000000 		.word	ADC_SAR_Seq_SAR_countsPer10Volt
 882              		.cfi_endproc
 883              	.LFE13:
 884              		.size	ADC_SAR_Seq_SAR_SetGain, .-ADC_SAR_Seq_SAR_SetGain
 885              		.section	.text.ADC_SAR_Seq_SAR_SetScaledGain,"ax",%progbits
 886              		.align	2
 887              		.global	ADC_SAR_Seq_SAR_SetScaledGain
 888              		.thumb
 889              		.thumb_func
 890              		.type	ADC_SAR_Seq_SAR_SetScaledGain, %function
 891              	ADC_SAR_Seq_SAR_SetScaledGain:
 892              	.LFB14:
 696:Generated_Source\PSoC5/ADC_SAR_Seq_SAR.c **** 
 697:Generated_Source\PSoC5/ADC_SAR_Seq_SAR.c **** 
 698:Generated_Source\PSoC5/ADC_SAR_Seq_SAR.c **** /*******************************************************************************
 699:Generated_Source\PSoC5/ADC_SAR_Seq_SAR.c **** * Function Name: ADC_SAR_Seq_SAR_SetScaledGain
 700:Generated_Source\PSoC5/ADC_SAR_Seq_SAR.c **** ********************************************************************************
 701:Generated_Source\PSoC5/ADC_SAR_Seq_SAR.c **** *
 702:Generated_Source\PSoC5/ADC_SAR_Seq_SAR.c **** * Summary:
 703:Generated_Source\PSoC5/ADC_SAR_Seq_SAR.c **** *  Sets the ADC gain in counts per 10 volt for the voltage conversion functions
ARM GAS  C:\Users\Admin\AppData\Local\Temp\cchDS2nB.s 			page 29


 704:Generated_Source\PSoC5/ADC_SAR_Seq_SAR.c **** *  that follow. This value is set by default by the reference and input range
 705:Generated_Source\PSoC5/ADC_SAR_Seq_SAR.c **** *  settings. It should only be used to further calibrate the ADC with a known
 706:Generated_Source\PSoC5/ADC_SAR_Seq_SAR.c **** *  input or if the ADC is using an external reference.
 707:Generated_Source\PSoC5/ADC_SAR_Seq_SAR.c **** *
 708:Generated_Source\PSoC5/ADC_SAR_Seq_SAR.c **** * Parameters:
 709:Generated_Source\PSoC5/ADC_SAR_Seq_SAR.c **** *  int32 adcGain  counts per 10 volt
 710:Generated_Source\PSoC5/ADC_SAR_Seq_SAR.c **** *
 711:Generated_Source\PSoC5/ADC_SAR_Seq_SAR.c **** * Return:
 712:Generated_Source\PSoC5/ADC_SAR_Seq_SAR.c **** *  None.
 713:Generated_Source\PSoC5/ADC_SAR_Seq_SAR.c **** *
 714:Generated_Source\PSoC5/ADC_SAR_Seq_SAR.c **** * Global Variables:
 715:Generated_Source\PSoC5/ADC_SAR_Seq_SAR.c **** *  ADC_SAR_Seq_SAR_countsPer10Volt variable modified. This variable is used
 716:Generated_Source\PSoC5/ADC_SAR_Seq_SAR.c **** *  for gain calibration purpose.
 717:Generated_Source\PSoC5/ADC_SAR_Seq_SAR.c **** *
 718:Generated_Source\PSoC5/ADC_SAR_Seq_SAR.c **** *******************************************************************************/
 719:Generated_Source\PSoC5/ADC_SAR_Seq_SAR.c **** void ADC_SAR_Seq_SAR_SetScaledGain(int32 adcGain)
 720:Generated_Source\PSoC5/ADC_SAR_Seq_SAR.c **** {
 893              		.loc 1 720 0
 894              		.cfi_startproc
 895              		@ args = 0, pretend = 0, frame = 8
 896              		@ frame_needed = 1, uses_anonymous_args = 0
 897              		@ link register save eliminated.
 898 0000 80B4     		push	{r7}
 899              		.cfi_def_cfa_offset 4
 900              		.cfi_offset 7, -4
 901 0002 83B0     		sub	sp, sp, #12
 902              		.cfi_def_cfa_offset 16
 903 0004 00AF     		add	r7, sp, #0
 904              		.cfi_def_cfa_register 7
 905 0006 7860     		str	r0, [r7, #4]
 721:Generated_Source\PSoC5/ADC_SAR_Seq_SAR.c ****     ADC_SAR_Seq_SAR_countsPer10Volt = adcGain;
 906              		.loc 1 721 0
 907 0008 034A     		ldr	r2, .L63
 908 000a 7B68     		ldr	r3, [r7, #4]
 909 000c 1360     		str	r3, [r2]
 722:Generated_Source\PSoC5/ADC_SAR_Seq_SAR.c **** }
 910              		.loc 1 722 0
 911 000e 00BF     		nop
 912 0010 0C37     		adds	r7, r7, #12
 913              		.cfi_def_cfa_offset 4
 914 0012 BD46     		mov	sp, r7
 915              		.cfi_def_cfa_register 13
 916              		@ sp needed
 917 0014 80BC     		pop	{r7}
 918              		.cfi_restore 7
 919              		.cfi_def_cfa_offset 0
 920 0016 7047     		bx	lr
 921              	.L64:
 922              		.align	2
 923              	.L63:
 924 0018 00000000 		.word	ADC_SAR_Seq_SAR_countsPer10Volt
 925              		.cfi_endproc
 926              	.LFE14:
 927              		.size	ADC_SAR_Seq_SAR_SetScaledGain, .-ADC_SAR_Seq_SAR_SetScaledGain
 928              		.section	.text.ADC_SAR_Seq_SAR_CountsTo_mVolts,"ax",%progbits
 929              		.align	2
 930              		.global	ADC_SAR_Seq_SAR_CountsTo_mVolts
ARM GAS  C:\Users\Admin\AppData\Local\Temp\cchDS2nB.s 			page 30


 931              		.thumb
 932              		.thumb_func
 933              		.type	ADC_SAR_Seq_SAR_CountsTo_mVolts, %function
 934              	ADC_SAR_Seq_SAR_CountsTo_mVolts:
 935              	.LFB15:
 723:Generated_Source\PSoC5/ADC_SAR_Seq_SAR.c **** 
 724:Generated_Source\PSoC5/ADC_SAR_Seq_SAR.c **** 
 725:Generated_Source\PSoC5/ADC_SAR_Seq_SAR.c **** /*******************************************************************************
 726:Generated_Source\PSoC5/ADC_SAR_Seq_SAR.c **** * Function Name: ADC_SAR_Seq_SAR_CountsTo_mVolts
 727:Generated_Source\PSoC5/ADC_SAR_Seq_SAR.c **** ********************************************************************************
 728:Generated_Source\PSoC5/ADC_SAR_Seq_SAR.c **** *
 729:Generated_Source\PSoC5/ADC_SAR_Seq_SAR.c **** * Summary:
 730:Generated_Source\PSoC5/ADC_SAR_Seq_SAR.c **** *  Converts the ADC output to millivolts as a 16-bit integer.
 731:Generated_Source\PSoC5/ADC_SAR_Seq_SAR.c **** *
 732:Generated_Source\PSoC5/ADC_SAR_Seq_SAR.c **** * Parameters:
 733:Generated_Source\PSoC5/ADC_SAR_Seq_SAR.c **** *  int16 adcCounts:  Result from the ADC conversion
 734:Generated_Source\PSoC5/ADC_SAR_Seq_SAR.c **** *
 735:Generated_Source\PSoC5/ADC_SAR_Seq_SAR.c **** * Return:
 736:Generated_Source\PSoC5/ADC_SAR_Seq_SAR.c **** *  int16 Result in mVolts
 737:Generated_Source\PSoC5/ADC_SAR_Seq_SAR.c **** *
 738:Generated_Source\PSoC5/ADC_SAR_Seq_SAR.c **** * Global Variables:
 739:Generated_Source\PSoC5/ADC_SAR_Seq_SAR.c **** *  ADC_SAR_Seq_SAR_offset variable used.
 740:Generated_Source\PSoC5/ADC_SAR_Seq_SAR.c **** *  ADC_SAR_Seq_SAR_countsPer10Volt variable used.
 741:Generated_Source\PSoC5/ADC_SAR_Seq_SAR.c **** *
 742:Generated_Source\PSoC5/ADC_SAR_Seq_SAR.c **** *******************************************************************************/
 743:Generated_Source\PSoC5/ADC_SAR_Seq_SAR.c **** int16 ADC_SAR_Seq_SAR_CountsTo_mVolts(int16 adcCounts)
 744:Generated_Source\PSoC5/ADC_SAR_Seq_SAR.c **** {
 936              		.loc 1 744 0
 937              		.cfi_startproc
 938              		@ args = 0, pretend = 0, frame = 16
 939              		@ frame_needed = 1, uses_anonymous_args = 0
 940              		@ link register save eliminated.
 941 0000 80B4     		push	{r7}
 942              		.cfi_def_cfa_offset 4
 943              		.cfi_offset 7, -4
 944 0002 85B0     		sub	sp, sp, #20
 945              		.cfi_def_cfa_offset 24
 946 0004 00AF     		add	r7, sp, #0
 947              		.cfi_def_cfa_register 7
 948 0006 0346     		mov	r3, r0
 949 0008 FB80     		strh	r3, [r7, #6]	@ movhi
 745:Generated_Source\PSoC5/ADC_SAR_Seq_SAR.c ****     int16 mVolts;
 746:Generated_Source\PSoC5/ADC_SAR_Seq_SAR.c ****     int32 countsPer10Volt;
 747:Generated_Source\PSoC5/ADC_SAR_Seq_SAR.c **** 
 748:Generated_Source\PSoC5/ADC_SAR_Seq_SAR.c ****     if(ADC_SAR_Seq_SAR_countsPerVolt != 0)
 950              		.loc 1 748 0
 951 000a 1D4B     		ldr	r3, .L71
 952 000c 1B88     		ldrh	r3, [r3]	@ movhi
 953 000e 1BB2     		sxth	r3, r3
 954 0010 002B     		cmp	r3, #0
 955 0012 09D0     		beq	.L66
 749:Generated_Source\PSoC5/ADC_SAR_Seq_SAR.c ****     {   /* Support obsolete method */
 750:Generated_Source\PSoC5/ADC_SAR_Seq_SAR.c ****         countsPer10Volt = (int32)ADC_SAR_Seq_SAR_countsPerVolt * 10;
 956              		.loc 1 750 0
 957 0014 1A4B     		ldr	r3, .L71
 958 0016 1B88     		ldrh	r3, [r3]	@ movhi
 959 0018 1BB2     		sxth	r3, r3
ARM GAS  C:\Users\Admin\AppData\Local\Temp\cchDS2nB.s 			page 31


 960 001a 1A46     		mov	r2, r3
 961 001c 1346     		mov	r3, r2
 962 001e 9B00     		lsls	r3, r3, #2
 963 0020 1344     		add	r3, r3, r2
 964 0022 5B00     		lsls	r3, r3, #1
 965 0024 FB60     		str	r3, [r7, #12]
 966 0026 02E0     		b	.L67
 967              	.L66:
 751:Generated_Source\PSoC5/ADC_SAR_Seq_SAR.c ****     }
 752:Generated_Source\PSoC5/ADC_SAR_Seq_SAR.c ****     else
 753:Generated_Source\PSoC5/ADC_SAR_Seq_SAR.c ****     {
 754:Generated_Source\PSoC5/ADC_SAR_Seq_SAR.c ****         countsPer10Volt = ADC_SAR_Seq_SAR_countsPer10Volt;
 968              		.loc 1 754 0
 969 0028 164B     		ldr	r3, .L71+4
 970 002a 1B68     		ldr	r3, [r3]
 971 002c FB60     		str	r3, [r7, #12]
 972              	.L67:
 755:Generated_Source\PSoC5/ADC_SAR_Seq_SAR.c ****     }
 756:Generated_Source\PSoC5/ADC_SAR_Seq_SAR.c **** 
 757:Generated_Source\PSoC5/ADC_SAR_Seq_SAR.c ****     /* Subtract ADC offset */
 758:Generated_Source\PSoC5/ADC_SAR_Seq_SAR.c ****     adcCounts -= ADC_SAR_Seq_SAR_offset;
 973              		.loc 1 758 0
 974 002e 164B     		ldr	r3, .L71+8
 975 0030 1B88     		ldrh	r3, [r3]	@ movhi
 976 0032 1BB2     		sxth	r3, r3
 977 0034 FA88     		ldrh	r2, [r7, #6]
 978 0036 9BB2     		uxth	r3, r3
 979 0038 D31A     		subs	r3, r2, r3
 980 003a 9BB2     		uxth	r3, r3
 981 003c FB80     		strh	r3, [r7, #6]	@ movhi
 759:Generated_Source\PSoC5/ADC_SAR_Seq_SAR.c ****     /* Convert to millivolts with rounding */
 760:Generated_Source\PSoC5/ADC_SAR_Seq_SAR.c ****     mVolts = (int16)( (( (int32)adcCounts * ADC_SAR_Seq_SAR_10MV_COUNTS ) + ( (adcCounts > 0) ?
 982              		.loc 1 760 0
 983 003e B7F90630 		ldrsh	r3, [r7, #6]
 984 0042 42F21072 		movw	r2, #10000
 985 0046 02FB03F2 		mul	r2, r2, r3
 761:Generated_Source\PSoC5/ADC_SAR_Seq_SAR.c ****                        (countsPer10Volt / 2) : (-(countsPer10Volt / 2)) )) / countsPer10Volt);
 986              		.loc 1 761 0
 987 004a B7F90630 		ldrsh	r3, [r7, #6]
 988 004e 002B     		cmp	r3, #0
 989 0050 04DD     		ble	.L68
 990              		.loc 1 761 0 is_stmt 0 discriminator 1
 991 0052 FB68     		ldr	r3, [r7, #12]
 992 0054 D90F     		lsrs	r1, r3, #31
 993 0056 0B44     		add	r3, r3, r1
 994 0058 5B10     		asrs	r3, r3, #1
 995 005a 04E0     		b	.L69
 996              	.L68:
 997              		.loc 1 761 0 discriminator 2
 998 005c FB68     		ldr	r3, [r7, #12]
 999 005e D90F     		lsrs	r1, r3, #31
 1000 0060 0B44     		add	r3, r3, r1
 1001 0062 5B10     		asrs	r3, r3, #1
 1002 0064 5B42     		negs	r3, r3
 1003              	.L69:
 760:Generated_Source\PSoC5/ADC_SAR_Seq_SAR.c ****                        (countsPer10Volt / 2) : (-(countsPer10Volt / 2)) )) / countsPer10Volt);
 1004              		.loc 1 760 0 is_stmt 1
ARM GAS  C:\Users\Admin\AppData\Local\Temp\cchDS2nB.s 			page 32


 1005 0066 1A44     		add	r2, r2, r3
 1006              		.loc 1 761 0
 1007 0068 FB68     		ldr	r3, [r7, #12]
 1008 006a 92FBF3F3 		sdiv	r3, r2, r3
 760:Generated_Source\PSoC5/ADC_SAR_Seq_SAR.c ****                        (countsPer10Volt / 2) : (-(countsPer10Volt / 2)) )) / countsPer10Volt);
 1009              		.loc 1 760 0
 1010 006e 7B81     		strh	r3, [r7, #10]	@ movhi
 762:Generated_Source\PSoC5/ADC_SAR_Seq_SAR.c **** 
 763:Generated_Source\PSoC5/ADC_SAR_Seq_SAR.c ****     return( mVolts );
 1011              		.loc 1 763 0
 1012 0070 B7F90A30 		ldrsh	r3, [r7, #10]
 764:Generated_Source\PSoC5/ADC_SAR_Seq_SAR.c **** }
 1013              		.loc 1 764 0
 1014 0074 1846     		mov	r0, r3
 1015 0076 1437     		adds	r7, r7, #20
 1016              		.cfi_def_cfa_offset 4
 1017 0078 BD46     		mov	sp, r7
 1018              		.cfi_def_cfa_register 13
 1019              		@ sp needed
 1020 007a 80BC     		pop	{r7}
 1021              		.cfi_restore 7
 1022              		.cfi_def_cfa_offset 0
 1023 007c 7047     		bx	lr
 1024              	.L72:
 1025 007e 00BF     		.align	2
 1026              	.L71:
 1027 0080 00000000 		.word	ADC_SAR_Seq_SAR_countsPerVolt
 1028 0084 00000000 		.word	ADC_SAR_Seq_SAR_countsPer10Volt
 1029 0088 00000000 		.word	ADC_SAR_Seq_SAR_offset
 1030              		.cfi_endproc
 1031              	.LFE15:
 1032              		.size	ADC_SAR_Seq_SAR_CountsTo_mVolts, .-ADC_SAR_Seq_SAR_CountsTo_mVolts
 1033              		.global	__aeabi_ldivmod
 1034              		.section	.text.ADC_SAR_Seq_SAR_CountsTo_uVolts,"ax",%progbits
 1035              		.align	2
 1036              		.global	ADC_SAR_Seq_SAR_CountsTo_uVolts
 1037              		.thumb
 1038              		.thumb_func
 1039              		.type	ADC_SAR_Seq_SAR_CountsTo_uVolts, %function
 1040              	ADC_SAR_Seq_SAR_CountsTo_uVolts:
 1041              	.LFB16:
 765:Generated_Source\PSoC5/ADC_SAR_Seq_SAR.c **** 
 766:Generated_Source\PSoC5/ADC_SAR_Seq_SAR.c **** 
 767:Generated_Source\PSoC5/ADC_SAR_Seq_SAR.c **** /*******************************************************************************
 768:Generated_Source\PSoC5/ADC_SAR_Seq_SAR.c **** * Function Name: ADC_SAR_Seq_SAR_CountsTo_uVolts
 769:Generated_Source\PSoC5/ADC_SAR_Seq_SAR.c **** ********************************************************************************
 770:Generated_Source\PSoC5/ADC_SAR_Seq_SAR.c **** *
 771:Generated_Source\PSoC5/ADC_SAR_Seq_SAR.c **** * Summary:
 772:Generated_Source\PSoC5/ADC_SAR_Seq_SAR.c **** *  Converts the ADC output to microvolts as a 32-bit integer.
 773:Generated_Source\PSoC5/ADC_SAR_Seq_SAR.c **** *
 774:Generated_Source\PSoC5/ADC_SAR_Seq_SAR.c **** * Parameters:
 775:Generated_Source\PSoC5/ADC_SAR_Seq_SAR.c **** *  int16 adcCounts: Result from the ADC conversion
 776:Generated_Source\PSoC5/ADC_SAR_Seq_SAR.c **** *
 777:Generated_Source\PSoC5/ADC_SAR_Seq_SAR.c **** * Return:
 778:Generated_Source\PSoC5/ADC_SAR_Seq_SAR.c **** *  int32 Result in micro Volts
 779:Generated_Source\PSoC5/ADC_SAR_Seq_SAR.c **** *
 780:Generated_Source\PSoC5/ADC_SAR_Seq_SAR.c **** * Global Variables:
ARM GAS  C:\Users\Admin\AppData\Local\Temp\cchDS2nB.s 			page 33


 781:Generated_Source\PSoC5/ADC_SAR_Seq_SAR.c **** *  ADC_SAR_Seq_SAR_offset variable used.
 782:Generated_Source\PSoC5/ADC_SAR_Seq_SAR.c **** *  ADC_SAR_Seq_SAR_countsPer10Volt used to convert ADC counts to uVolts.
 783:Generated_Source\PSoC5/ADC_SAR_Seq_SAR.c **** *
 784:Generated_Source\PSoC5/ADC_SAR_Seq_SAR.c **** *******************************************************************************/
 785:Generated_Source\PSoC5/ADC_SAR_Seq_SAR.c **** int32 ADC_SAR_Seq_SAR_CountsTo_uVolts(int16 adcCounts)
 786:Generated_Source\PSoC5/ADC_SAR_Seq_SAR.c **** {
 1042              		.loc 1 786 0
 1043              		.cfi_startproc
 1044              		@ args = 0, pretend = 0, frame = 24
 1045              		@ frame_needed = 1, uses_anonymous_args = 0
 1046 0000 90B5     		push	{r4, r7, lr}
 1047              		.cfi_def_cfa_offset 12
 1048              		.cfi_offset 4, -12
 1049              		.cfi_offset 7, -8
 1050              		.cfi_offset 14, -4
 1051 0002 87B0     		sub	sp, sp, #28
 1052              		.cfi_def_cfa_offset 40
 1053 0004 00AF     		add	r7, sp, #0
 1054              		.cfi_def_cfa_register 7
 1055 0006 0346     		mov	r3, r0
 1056 0008 FB80     		strh	r3, [r7, #6]	@ movhi
 787:Generated_Source\PSoC5/ADC_SAR_Seq_SAR.c **** 
 788:Generated_Source\PSoC5/ADC_SAR_Seq_SAR.c ****     int64 uVolts;
 789:Generated_Source\PSoC5/ADC_SAR_Seq_SAR.c ****     int32 countsPer10Volt;
 790:Generated_Source\PSoC5/ADC_SAR_Seq_SAR.c **** 
 791:Generated_Source\PSoC5/ADC_SAR_Seq_SAR.c ****     if(ADC_SAR_Seq_SAR_countsPerVolt != 0)
 1057              		.loc 1 791 0
 1058 000a 1D4B     		ldr	r3, .L77
 1059 000c 1B88     		ldrh	r3, [r3]	@ movhi
 1060 000e 1BB2     		sxth	r3, r3
 1061 0010 002B     		cmp	r3, #0
 1062 0012 09D0     		beq	.L74
 792:Generated_Source\PSoC5/ADC_SAR_Seq_SAR.c ****     {   /* Support obsolete method */
 793:Generated_Source\PSoC5/ADC_SAR_Seq_SAR.c ****         countsPer10Volt = (int32)ADC_SAR_Seq_SAR_countsPerVolt * 10;
 1063              		.loc 1 793 0
 1064 0014 1A4B     		ldr	r3, .L77
 1065 0016 1B88     		ldrh	r3, [r3]	@ movhi
 1066 0018 1BB2     		sxth	r3, r3
 1067 001a 1A46     		mov	r2, r3
 1068 001c 1346     		mov	r3, r2
 1069 001e 9B00     		lsls	r3, r3, #2
 1070 0020 1344     		add	r3, r3, r2
 1071 0022 5B00     		lsls	r3, r3, #1
 1072 0024 7B61     		str	r3, [r7, #20]
 1073 0026 02E0     		b	.L75
 1074              	.L74:
 794:Generated_Source\PSoC5/ADC_SAR_Seq_SAR.c ****     }
 795:Generated_Source\PSoC5/ADC_SAR_Seq_SAR.c ****     else
 796:Generated_Source\PSoC5/ADC_SAR_Seq_SAR.c ****     {
 797:Generated_Source\PSoC5/ADC_SAR_Seq_SAR.c ****         countsPer10Volt = ADC_SAR_Seq_SAR_countsPer10Volt;
 1075              		.loc 1 797 0
 1076 0028 164B     		ldr	r3, .L77+4
 1077 002a 1B68     		ldr	r3, [r3]
 1078 002c 7B61     		str	r3, [r7, #20]
 1079              	.L75:
 798:Generated_Source\PSoC5/ADC_SAR_Seq_SAR.c ****     }
 799:Generated_Source\PSoC5/ADC_SAR_Seq_SAR.c **** 
ARM GAS  C:\Users\Admin\AppData\Local\Temp\cchDS2nB.s 			page 34


 800:Generated_Source\PSoC5/ADC_SAR_Seq_SAR.c ****     /* Subtract ADC offset */
 801:Generated_Source\PSoC5/ADC_SAR_Seq_SAR.c ****     adcCounts -= ADC_SAR_Seq_SAR_offset;
 1080              		.loc 1 801 0
 1081 002e 164B     		ldr	r3, .L77+8
 1082 0030 1B88     		ldrh	r3, [r3]	@ movhi
 1083 0032 1BB2     		sxth	r3, r3
 1084 0034 FA88     		ldrh	r2, [r7, #6]
 1085 0036 9BB2     		uxth	r3, r3
 1086 0038 D31A     		subs	r3, r2, r3
 1087 003a 9BB2     		uxth	r3, r3
 1088 003c FB80     		strh	r3, [r7, #6]	@ movhi
 802:Generated_Source\PSoC5/ADC_SAR_Seq_SAR.c ****     /* To convert adcCounts to microVolts it is required to be multiplied
 803:Generated_Source\PSoC5/ADC_SAR_Seq_SAR.c ****     *  on 10 million and later divide on gain in counts per 10V.
 804:Generated_Source\PSoC5/ADC_SAR_Seq_SAR.c ****     */
 805:Generated_Source\PSoC5/ADC_SAR_Seq_SAR.c ****     uVolts = (( (int64)adcCounts * ADC_SAR_Seq_SAR_10UV_COUNTS ) / countsPer10Volt);
 1089              		.loc 1 805 0
 1090 003e B7F90630 		ldrsh	r3, [r7, #6]
 1091 0042 4FEAE374 		asr	r4, r3, #31
 1092 0046 114A     		ldr	r2, .L77+12
 1093 0048 02FB04F1 		mul	r1, r2, r4
 1094 004c 0022     		movs	r2, #0
 1095 004e 02FB03F2 		mul	r2, r2, r3
 1096 0052 0A44     		add	r2, r2, r1
 1097 0054 0D49     		ldr	r1, .L77+12
 1098 0056 A3FB0101 		umull	r0, r1, r3, r1
 1099 005a 5318     		adds	r3, r2, r1
 1100 005c 1946     		mov	r1, r3
 1101 005e 7B69     		ldr	r3, [r7, #20]
 1102 0060 4FEAE374 		asr	r4, r3, #31
 1103 0064 1A46     		mov	r2, r3
 1104 0066 2346     		mov	r3, r4
 1105 0068 FFF7FEFF 		bl	__aeabi_ldivmod
 1106 006c 0346     		mov	r3, r0
 1107 006e 0C46     		mov	r4, r1
 1108 0070 C7E90234 		strd	r3, [r7, #8]
 806:Generated_Source\PSoC5/ADC_SAR_Seq_SAR.c **** 
 807:Generated_Source\PSoC5/ADC_SAR_Seq_SAR.c ****     return((int32) uVolts );
 1109              		.loc 1 807 0
 1110 0074 BB68     		ldr	r3, [r7, #8]
 808:Generated_Source\PSoC5/ADC_SAR_Seq_SAR.c **** }
 1111              		.loc 1 808 0
 1112 0076 1846     		mov	r0, r3
 1113 0078 1C37     		adds	r7, r7, #28
 1114              		.cfi_def_cfa_offset 12
 1115 007a BD46     		mov	sp, r7
 1116              		.cfi_def_cfa_register 13
 1117              		@ sp needed
 1118 007c 90BD     		pop	{r4, r7, pc}
 1119              	.L78:
 1120 007e 00BF     		.align	2
 1121              	.L77:
 1122 0080 00000000 		.word	ADC_SAR_Seq_SAR_countsPerVolt
 1123 0084 00000000 		.word	ADC_SAR_Seq_SAR_countsPer10Volt
 1124 0088 00000000 		.word	ADC_SAR_Seq_SAR_offset
 1125 008c 80969800 		.word	10000000
 1126              		.cfi_endproc
 1127              	.LFE16:
ARM GAS  C:\Users\Admin\AppData\Local\Temp\cchDS2nB.s 			page 35


 1128              		.size	ADC_SAR_Seq_SAR_CountsTo_uVolts, .-ADC_SAR_Seq_SAR_CountsTo_uVolts
 1129              		.global	__aeabi_i2f
 1130              		.global	__aeabi_fmul
 1131              		.global	__aeabi_fdiv
 1132              		.section	.text.ADC_SAR_Seq_SAR_CountsTo_Volts,"ax",%progbits
 1133              		.align	2
 1134              		.global	ADC_SAR_Seq_SAR_CountsTo_Volts
 1135              		.thumb
 1136              		.thumb_func
 1137              		.type	ADC_SAR_Seq_SAR_CountsTo_Volts, %function
 1138              	ADC_SAR_Seq_SAR_CountsTo_Volts:
 1139              	.LFB17:
 809:Generated_Source\PSoC5/ADC_SAR_Seq_SAR.c **** 
 810:Generated_Source\PSoC5/ADC_SAR_Seq_SAR.c **** 
 811:Generated_Source\PSoC5/ADC_SAR_Seq_SAR.c **** /*******************************************************************************
 812:Generated_Source\PSoC5/ADC_SAR_Seq_SAR.c **** * Function Name: ADC_SAR_Seq_SAR_CountsTo_Volts
 813:Generated_Source\PSoC5/ADC_SAR_Seq_SAR.c **** ********************************************************************************
 814:Generated_Source\PSoC5/ADC_SAR_Seq_SAR.c **** *
 815:Generated_Source\PSoC5/ADC_SAR_Seq_SAR.c **** * Summary:
 816:Generated_Source\PSoC5/ADC_SAR_Seq_SAR.c **** *  Converts the ADC output to volts as a floating-point number.
 817:Generated_Source\PSoC5/ADC_SAR_Seq_SAR.c **** *
 818:Generated_Source\PSoC5/ADC_SAR_Seq_SAR.c **** * Parameters:
 819:Generated_Source\PSoC5/ADC_SAR_Seq_SAR.c **** *  int16 adcCounts: Result from the ADC conversion
 820:Generated_Source\PSoC5/ADC_SAR_Seq_SAR.c **** *
 821:Generated_Source\PSoC5/ADC_SAR_Seq_SAR.c **** * Return:
 822:Generated_Source\PSoC5/ADC_SAR_Seq_SAR.c **** *  float Result in Volts
 823:Generated_Source\PSoC5/ADC_SAR_Seq_SAR.c **** *
 824:Generated_Source\PSoC5/ADC_SAR_Seq_SAR.c **** * Global Variables:
 825:Generated_Source\PSoC5/ADC_SAR_Seq_SAR.c **** *  ADC_SAR_Seq_SAR_offset variable used.
 826:Generated_Source\PSoC5/ADC_SAR_Seq_SAR.c **** *  ADC_SAR_Seq_SAR_countsPer10Volt used to convert ADC counts to Volts.
 827:Generated_Source\PSoC5/ADC_SAR_Seq_SAR.c **** *
 828:Generated_Source\PSoC5/ADC_SAR_Seq_SAR.c **** *******************************************************************************/
 829:Generated_Source\PSoC5/ADC_SAR_Seq_SAR.c **** float32 ADC_SAR_Seq_SAR_CountsTo_Volts(int16 adcCounts)
 830:Generated_Source\PSoC5/ADC_SAR_Seq_SAR.c **** {
 1140              		.loc 1 830 0
 1141              		.cfi_startproc
 1142              		@ args = 0, pretend = 0, frame = 16
 1143              		@ frame_needed = 1, uses_anonymous_args = 0
 1144 0000 90B5     		push	{r4, r7, lr}
 1145              		.cfi_def_cfa_offset 12
 1146              		.cfi_offset 4, -12
 1147              		.cfi_offset 7, -8
 1148              		.cfi_offset 14, -4
 1149 0002 85B0     		sub	sp, sp, #20
 1150              		.cfi_def_cfa_offset 32
 1151 0004 00AF     		add	r7, sp, #0
 1152              		.cfi_def_cfa_register 7
 1153 0006 0346     		mov	r3, r0
 1154 0008 FB80     		strh	r3, [r7, #6]	@ movhi
 831:Generated_Source\PSoC5/ADC_SAR_Seq_SAR.c ****     float32 volts;
 832:Generated_Source\PSoC5/ADC_SAR_Seq_SAR.c ****     int32 countsPer10Volt;
 833:Generated_Source\PSoC5/ADC_SAR_Seq_SAR.c **** 
 834:Generated_Source\PSoC5/ADC_SAR_Seq_SAR.c ****     if(ADC_SAR_Seq_SAR_countsPerVolt != 0)
 1155              		.loc 1 834 0
 1156 000a 1A4B     		ldr	r3, .L83
 1157 000c 1B88     		ldrh	r3, [r3]	@ movhi
 1158 000e 1BB2     		sxth	r3, r3
ARM GAS  C:\Users\Admin\AppData\Local\Temp\cchDS2nB.s 			page 36


 1159 0010 002B     		cmp	r3, #0
 1160 0012 09D0     		beq	.L80
 835:Generated_Source\PSoC5/ADC_SAR_Seq_SAR.c ****     {   /* Support obsolete method */
 836:Generated_Source\PSoC5/ADC_SAR_Seq_SAR.c ****         countsPer10Volt = (int32)ADC_SAR_Seq_SAR_countsPerVolt * 10;
 1161              		.loc 1 836 0
 1162 0014 174B     		ldr	r3, .L83
 1163 0016 1B88     		ldrh	r3, [r3]	@ movhi
 1164 0018 1BB2     		sxth	r3, r3
 1165 001a 1A46     		mov	r2, r3
 1166 001c 1346     		mov	r3, r2
 1167 001e 9B00     		lsls	r3, r3, #2
 1168 0020 1344     		add	r3, r3, r2
 1169 0022 5B00     		lsls	r3, r3, #1
 1170 0024 FB60     		str	r3, [r7, #12]
 1171 0026 02E0     		b	.L81
 1172              	.L80:
 837:Generated_Source\PSoC5/ADC_SAR_Seq_SAR.c ****     }
 838:Generated_Source\PSoC5/ADC_SAR_Seq_SAR.c ****     else
 839:Generated_Source\PSoC5/ADC_SAR_Seq_SAR.c ****     {
 840:Generated_Source\PSoC5/ADC_SAR_Seq_SAR.c ****         countsPer10Volt = ADC_SAR_Seq_SAR_countsPer10Volt;
 1173              		.loc 1 840 0
 1174 0028 134B     		ldr	r3, .L83+4
 1175 002a 1B68     		ldr	r3, [r3]
 1176 002c FB60     		str	r3, [r7, #12]
 1177              	.L81:
 841:Generated_Source\PSoC5/ADC_SAR_Seq_SAR.c ****     }
 842:Generated_Source\PSoC5/ADC_SAR_Seq_SAR.c **** 
 843:Generated_Source\PSoC5/ADC_SAR_Seq_SAR.c ****     /* Subtract ADC offset */
 844:Generated_Source\PSoC5/ADC_SAR_Seq_SAR.c ****     adcCounts -= ADC_SAR_Seq_SAR_offset;
 1178              		.loc 1 844 0
 1179 002e 134B     		ldr	r3, .L83+8
 1180 0030 1B88     		ldrh	r3, [r3]	@ movhi
 1181 0032 1BB2     		sxth	r3, r3
 1182 0034 FA88     		ldrh	r2, [r7, #6]
 1183 0036 9BB2     		uxth	r3, r3
 1184 0038 D31A     		subs	r3, r2, r3
 1185 003a 9BB2     		uxth	r3, r3
 1186 003c FB80     		strh	r3, [r7, #6]	@ movhi
 845:Generated_Source\PSoC5/ADC_SAR_Seq_SAR.c **** 
 846:Generated_Source\PSoC5/ADC_SAR_Seq_SAR.c ****     volts = ((float32)adcCounts * ADC_SAR_Seq_SAR_10V_COUNTS) / (float32)countsPer10Volt;
 1187              		.loc 1 846 0
 1188 003e B7F90630 		ldrsh	r3, [r7, #6]
 1189 0042 1846     		mov	r0, r3
 1190 0044 FFF7FEFF 		bl	__aeabi_i2f
 1191 0048 0346     		mov	r3, r0
 1192 004a 0D49     		ldr	r1, .L83+12
 1193 004c 1846     		mov	r0, r3
 1194 004e FFF7FEFF 		bl	__aeabi_fmul
 1195 0052 0346     		mov	r3, r0
 1196 0054 1C46     		mov	r4, r3
 1197 0056 F868     		ldr	r0, [r7, #12]
 1198 0058 FFF7FEFF 		bl	__aeabi_i2f
 1199 005c 0346     		mov	r3, r0
 1200 005e 1946     		mov	r1, r3
 1201 0060 2046     		mov	r0, r4
 1202 0062 FFF7FEFF 		bl	__aeabi_fdiv
 1203 0066 0346     		mov	r3, r0
ARM GAS  C:\Users\Admin\AppData\Local\Temp\cchDS2nB.s 			page 37


 1204 0068 BB60     		str	r3, [r7, #8]	@ float
 847:Generated_Source\PSoC5/ADC_SAR_Seq_SAR.c **** 
 848:Generated_Source\PSoC5/ADC_SAR_Seq_SAR.c ****     return( volts );
 1205              		.loc 1 848 0
 1206 006a BB68     		ldr	r3, [r7, #8]	@ float
 849:Generated_Source\PSoC5/ADC_SAR_Seq_SAR.c **** }
 1207              		.loc 1 849 0
 1208 006c 1846     		mov	r0, r3
 1209 006e 1437     		adds	r7, r7, #20
 1210              		.cfi_def_cfa_offset 12
 1211 0070 BD46     		mov	sp, r7
 1212              		.cfi_def_cfa_register 13
 1213              		@ sp needed
 1214 0072 90BD     		pop	{r4, r7, pc}
 1215              	.L84:
 1216              		.align	2
 1217              	.L83:
 1218 0074 00000000 		.word	ADC_SAR_Seq_SAR_countsPerVolt
 1219 0078 00000000 		.word	ADC_SAR_Seq_SAR_countsPer10Volt
 1220 007c 00000000 		.word	ADC_SAR_Seq_SAR_offset
 1221 0080 00002041 		.word	1092616192
 1222              		.cfi_endproc
 1223              	.LFE17:
 1224              		.size	ADC_SAR_Seq_SAR_CountsTo_Volts, .-ADC_SAR_Seq_SAR_CountsTo_Volts
 1225              		.text
 1226              	.Letext0:
 1227              		.file 2 "Generated_Source\\PSoC5\\cytypes.h"