ARM GAS  C:\Users\Admin\AppData\Local\Temp\ccd3RvSG.s 			page 1


   1              		.syntax unified
   2              		.cpu cortex-m3
   3              		.fpu softvfp
   4              		.eabi_attribute 20, 1
   5              		.eabi_attribute 21, 1
   6              		.eabi_attribute 23, 3
   7              		.eabi_attribute 24, 1
   8              		.eabi_attribute 25, 1
   9              		.eabi_attribute 26, 1
  10              		.eabi_attribute 30, 6
  11              		.eabi_attribute 34, 1
  12              		.eabi_attribute 18, 4
  13              		.thumb
  14              		.syntax unified
  15              		.file	"cyfitter_cfg.c"
  16              		.text
  17              	.Ltext0:
  18              		.cfi_sections	.debug_frame
  19              		.section	.text.CYMEMZERO,"ax",%progbits
  20              		.align	2
  21              		.thumb
  22              		.thumb_func
  23              		.type	CYMEMZERO, %function
  24              	CYMEMZERO:
  25              	.LFB0:
  26              		.file 1 "Generated_Source\\PSoC5\\cyfitter_cfg.c"
   1:Generated_Source\PSoC5/cyfitter_cfg.c **** 
   2:Generated_Source\PSoC5/cyfitter_cfg.c **** /*******************************************************************************
   3:Generated_Source\PSoC5/cyfitter_cfg.c **** * File Name: cyfitter_cfg.c
   4:Generated_Source\PSoC5/cyfitter_cfg.c **** * 
   5:Generated_Source\PSoC5/cyfitter_cfg.c **** * PSoC Creator  4.4
   6:Generated_Source\PSoC5/cyfitter_cfg.c **** *
   7:Generated_Source\PSoC5/cyfitter_cfg.c **** * Description:
   8:Generated_Source\PSoC5/cyfitter_cfg.c **** * This file contains device initialization code.
   9:Generated_Source\PSoC5/cyfitter_cfg.c **** * Except for the user defined sections in CyClockStartupError(), this file should not be modified.
  10:Generated_Source\PSoC5/cyfitter_cfg.c **** * This file is automatically generated by PSoC Creator.
  11:Generated_Source\PSoC5/cyfitter_cfg.c **** *
  12:Generated_Source\PSoC5/cyfitter_cfg.c **** ********************************************************************************
  13:Generated_Source\PSoC5/cyfitter_cfg.c **** * Copyright (c) 2007-2020 Cypress Semiconductor.  All rights reserved.
  14:Generated_Source\PSoC5/cyfitter_cfg.c **** * You may use this file only in accordance with the license, terms, conditions, 
  15:Generated_Source\PSoC5/cyfitter_cfg.c **** * disclaimers, and limitations in the end user license agreement accompanying 
  16:Generated_Source\PSoC5/cyfitter_cfg.c **** * the software package with which this file was provided.
  17:Generated_Source\PSoC5/cyfitter_cfg.c **** ********************************************************************************/
  18:Generated_Source\PSoC5/cyfitter_cfg.c **** 
  19:Generated_Source\PSoC5/cyfitter_cfg.c **** #include <string.h>
  20:Generated_Source\PSoC5/cyfitter_cfg.c **** #include "cytypes.h"
  21:Generated_Source\PSoC5/cyfitter_cfg.c **** #include "cydevice_trm.h"
  22:Generated_Source\PSoC5/cyfitter_cfg.c **** #include "cyfitter.h"
  23:Generated_Source\PSoC5/cyfitter_cfg.c **** #include "CyLib.h"
  24:Generated_Source\PSoC5/cyfitter_cfg.c **** #include "cyfitter_cfg.h"
  25:Generated_Source\PSoC5/cyfitter_cfg.c **** #include "cyapicallbacks.h"
  26:Generated_Source\PSoC5/cyfitter_cfg.c **** 
  27:Generated_Source\PSoC5/cyfitter_cfg.c **** #define CY_NEED_CYCLOCKSTARTUPERROR 1
  28:Generated_Source\PSoC5/cyfitter_cfg.c **** 
  29:Generated_Source\PSoC5/cyfitter_cfg.c **** 
  30:Generated_Source\PSoC5/cyfitter_cfg.c **** #if defined(__GNUC__) || defined(__ARMCC_VERSION)
  31:Generated_Source\PSoC5/cyfitter_cfg.c ****     #define CYPACKED 
ARM GAS  C:\Users\Admin\AppData\Local\Temp\ccd3RvSG.s 			page 2


  32:Generated_Source\PSoC5/cyfitter_cfg.c ****     #define CYPACKED_ATTR __attribute__ ((packed))
  33:Generated_Source\PSoC5/cyfitter_cfg.c ****     #define CYALIGNED __attribute__ ((aligned))
  34:Generated_Source\PSoC5/cyfitter_cfg.c ****     #define CY_CFG_UNUSED __attribute__ ((unused))
  35:Generated_Source\PSoC5/cyfitter_cfg.c ****     #ifndef CY_CFG_SECTION
  36:Generated_Source\PSoC5/cyfitter_cfg.c ****         #define CY_CFG_SECTION __attribute__ ((section(".psocinit")))
  37:Generated_Source\PSoC5/cyfitter_cfg.c ****     #endif
  38:Generated_Source\PSoC5/cyfitter_cfg.c ****     
  39:Generated_Source\PSoC5/cyfitter_cfg.c ****     #if defined(__ARMCC_VERSION)
  40:Generated_Source\PSoC5/cyfitter_cfg.c ****         #define CY_CFG_MEMORY_BARRIER() __memory_changed()
  41:Generated_Source\PSoC5/cyfitter_cfg.c ****     #else
  42:Generated_Source\PSoC5/cyfitter_cfg.c ****         #define CY_CFG_MEMORY_BARRIER() __sync_synchronize()
  43:Generated_Source\PSoC5/cyfitter_cfg.c ****     #endif
  44:Generated_Source\PSoC5/cyfitter_cfg.c ****     
  45:Generated_Source\PSoC5/cyfitter_cfg.c **** #elif defined(__ICCARM__)
  46:Generated_Source\PSoC5/cyfitter_cfg.c ****     #include <intrinsics.h>
  47:Generated_Source\PSoC5/cyfitter_cfg.c **** 
  48:Generated_Source\PSoC5/cyfitter_cfg.c ****     #define CYPACKED __packed
  49:Generated_Source\PSoC5/cyfitter_cfg.c ****     #define CYPACKED_ATTR 
  50:Generated_Source\PSoC5/cyfitter_cfg.c ****     #define CYALIGNED _Pragma("data_alignment=4")
  51:Generated_Source\PSoC5/cyfitter_cfg.c ****     #define CY_CFG_UNUSED _Pragma("diag_suppress=Pe177")
  52:Generated_Source\PSoC5/cyfitter_cfg.c ****     #define CY_CFG_SECTION _Pragma("location=\".psocinit\"")
  53:Generated_Source\PSoC5/cyfitter_cfg.c ****     
  54:Generated_Source\PSoC5/cyfitter_cfg.c ****     #define CY_CFG_MEMORY_BARRIER() __DMB()
  55:Generated_Source\PSoC5/cyfitter_cfg.c ****     
  56:Generated_Source\PSoC5/cyfitter_cfg.c **** #else
  57:Generated_Source\PSoC5/cyfitter_cfg.c ****     #error Unsupported toolchain
  58:Generated_Source\PSoC5/cyfitter_cfg.c **** #endif
  59:Generated_Source\PSoC5/cyfitter_cfg.c **** 
  60:Generated_Source\PSoC5/cyfitter_cfg.c **** #ifndef CYCODE
  61:Generated_Source\PSoC5/cyfitter_cfg.c ****     #define CYCODE
  62:Generated_Source\PSoC5/cyfitter_cfg.c **** #endif
  63:Generated_Source\PSoC5/cyfitter_cfg.c **** #ifndef CYDATA
  64:Generated_Source\PSoC5/cyfitter_cfg.c ****     #define CYDATA
  65:Generated_Source\PSoC5/cyfitter_cfg.c **** #endif
  66:Generated_Source\PSoC5/cyfitter_cfg.c **** #ifndef CYFAR
  67:Generated_Source\PSoC5/cyfitter_cfg.c ****     #define CYFAR
  68:Generated_Source\PSoC5/cyfitter_cfg.c **** #endif
  69:Generated_Source\PSoC5/cyfitter_cfg.c **** #ifndef CYXDATA
  70:Generated_Source\PSoC5/cyfitter_cfg.c ****     #define CYXDATA
  71:Generated_Source\PSoC5/cyfitter_cfg.c **** #endif
  72:Generated_Source\PSoC5/cyfitter_cfg.c **** 
  73:Generated_Source\PSoC5/cyfitter_cfg.c **** 
  74:Generated_Source\PSoC5/cyfitter_cfg.c **** CY_CFG_UNUSED
  75:Generated_Source\PSoC5/cyfitter_cfg.c **** static void CYMEMZERO(void *s, size_t n);
  76:Generated_Source\PSoC5/cyfitter_cfg.c **** CY_CFG_UNUSED
  77:Generated_Source\PSoC5/cyfitter_cfg.c **** static void CYMEMZERO(void *s, size_t n)
  78:Generated_Source\PSoC5/cyfitter_cfg.c **** {
  27              		.loc 1 78 0
  28              		.cfi_startproc
  29              		@ args = 0, pretend = 0, frame = 8
  30              		@ frame_needed = 1, uses_anonymous_args = 0
  31 0000 80B5     		push	{r7, lr}
  32              		.cfi_def_cfa_offset 8
  33              		.cfi_offset 7, -8
  34              		.cfi_offset 14, -4
  35 0002 82B0     		sub	sp, sp, #8
  36              		.cfi_def_cfa_offset 16
ARM GAS  C:\Users\Admin\AppData\Local\Temp\ccd3RvSG.s 			page 3


  37 0004 00AF     		add	r7, sp, #0
  38              		.cfi_def_cfa_register 7
  39 0006 7860     		str	r0, [r7, #4]
  40 0008 3960     		str	r1, [r7]
  79:Generated_Source\PSoC5/cyfitter_cfg.c **** 	(void)memset(s, 0, n);
  41              		.loc 1 79 0
  42 000a 3A68     		ldr	r2, [r7]
  43 000c 0021     		movs	r1, #0
  44 000e 7868     		ldr	r0, [r7, #4]
  45 0010 FFF7FEFF 		bl	memset
  80:Generated_Source\PSoC5/cyfitter_cfg.c **** }
  46              		.loc 1 80 0
  47 0014 00BF     		nop
  48 0016 0837     		adds	r7, r7, #8
  49              		.cfi_def_cfa_offset 8
  50 0018 BD46     		mov	sp, r7
  51              		.cfi_def_cfa_register 13
  52              		@ sp needed
  53 001a 80BD     		pop	{r7, pc}
  54              		.cfi_endproc
  55              	.LFE0:
  56              		.size	CYMEMZERO, .-CYMEMZERO
  57              		.section	.text.CYCONFIGCPY,"ax",%progbits
  58              		.align	2
  59              		.thumb
  60              		.thumb_func
  61              		.type	CYCONFIGCPY, %function
  62              	CYCONFIGCPY:
  63              	.LFB1:
  81:Generated_Source\PSoC5/cyfitter_cfg.c **** CY_CFG_UNUSED
  82:Generated_Source\PSoC5/cyfitter_cfg.c **** static void CYCONFIGCPY(void *dest, const void *src, size_t n);
  83:Generated_Source\PSoC5/cyfitter_cfg.c **** CY_CFG_UNUSED
  84:Generated_Source\PSoC5/cyfitter_cfg.c **** static void CYCONFIGCPY(void *dest, const void *src, size_t n)
  85:Generated_Source\PSoC5/cyfitter_cfg.c **** {
  64              		.loc 1 85 0
  65              		.cfi_startproc
  66              		@ args = 0, pretend = 0, frame = 16
  67              		@ frame_needed = 1, uses_anonymous_args = 0
  68 0000 80B5     		push	{r7, lr}
  69              		.cfi_def_cfa_offset 8
  70              		.cfi_offset 7, -8
  71              		.cfi_offset 14, -4
  72 0002 84B0     		sub	sp, sp, #16
  73              		.cfi_def_cfa_offset 24
  74 0004 00AF     		add	r7, sp, #0
  75              		.cfi_def_cfa_register 7
  76 0006 F860     		str	r0, [r7, #12]
  77 0008 B960     		str	r1, [r7, #8]
  78 000a 7A60     		str	r2, [r7, #4]
  86:Generated_Source\PSoC5/cyfitter_cfg.c **** 	(void)memcpy(dest, src, n);
  79              		.loc 1 86 0
  80 000c 7A68     		ldr	r2, [r7, #4]
  81 000e B968     		ldr	r1, [r7, #8]
  82 0010 F868     		ldr	r0, [r7, #12]
  83 0012 FFF7FEFF 		bl	memcpy
  87:Generated_Source\PSoC5/cyfitter_cfg.c **** }
  84              		.loc 1 87 0
ARM GAS  C:\Users\Admin\AppData\Local\Temp\ccd3RvSG.s 			page 4


  85 0016 00BF     		nop
  86 0018 1037     		adds	r7, r7, #16
  87              		.cfi_def_cfa_offset 8
  88 001a BD46     		mov	sp, r7
  89              		.cfi_def_cfa_register 13
  90              		@ sp needed
  91 001c 80BD     		pop	{r7, pc}
  92              		.cfi_endproc
  93              	.LFE1:
  94              		.size	CYCONFIGCPY, .-CYCONFIGCPY
  95 001e 00BF     		.section	.text.CYCONFIGCPYCODE,"ax",%progbits
  96              		.align	2
  97              		.thumb
  98              		.thumb_func
  99              		.type	CYCONFIGCPYCODE, %function
 100              	CYCONFIGCPYCODE:
 101              	.LFB2:
  88:Generated_Source\PSoC5/cyfitter_cfg.c **** CY_CFG_UNUSED
  89:Generated_Source\PSoC5/cyfitter_cfg.c **** static void CYCONFIGCPYCODE(void *dest, const void *src, size_t n);
  90:Generated_Source\PSoC5/cyfitter_cfg.c **** CY_CFG_UNUSED
  91:Generated_Source\PSoC5/cyfitter_cfg.c **** static void CYCONFIGCPYCODE(void *dest, const void *src, size_t n)
  92:Generated_Source\PSoC5/cyfitter_cfg.c **** {
 102              		.loc 1 92 0
 103              		.cfi_startproc
 104              		@ args = 0, pretend = 0, frame = 16
 105              		@ frame_needed = 1, uses_anonymous_args = 0
 106 0000 80B5     		push	{r7, lr}
 107              		.cfi_def_cfa_offset 8
 108              		.cfi_offset 7, -8
 109              		.cfi_offset 14, -4
 110 0002 84B0     		sub	sp, sp, #16
 111              		.cfi_def_cfa_offset 24
 112 0004 00AF     		add	r7, sp, #0
 113              		.cfi_def_cfa_register 7
 114 0006 F860     		str	r0, [r7, #12]
 115 0008 B960     		str	r1, [r7, #8]
 116 000a 7A60     		str	r2, [r7, #4]
  93:Generated_Source\PSoC5/cyfitter_cfg.c **** 	(void)memcpy(dest, src, n);
 117              		.loc 1 93 0
 118 000c 7A68     		ldr	r2, [r7, #4]
 119 000e B968     		ldr	r1, [r7, #8]
 120 0010 F868     		ldr	r0, [r7, #12]
 121 0012 FFF7FEFF 		bl	memcpy
  94:Generated_Source\PSoC5/cyfitter_cfg.c **** }
 122              		.loc 1 94 0
 123 0016 00BF     		nop
 124 0018 1037     		adds	r7, r7, #16
 125              		.cfi_def_cfa_offset 8
 126 001a BD46     		mov	sp, r7
 127              		.cfi_def_cfa_register 13
 128              		@ sp needed
 129 001c 80BD     		pop	{r7, pc}
 130              		.cfi_endproc
 131              	.LFE2:
 132              		.size	CYCONFIGCPYCODE, .-CYCONFIGCPYCODE
 133 001e 00BF     		.section	.text.CyClockStartupError,"ax",%progbits
 134              		.align	2
ARM GAS  C:\Users\Admin\AppData\Local\Temp\ccd3RvSG.s 			page 5


 135              		.thumb
 136              		.thumb_func
 137              		.type	CyClockStartupError, %function
 138              	CyClockStartupError:
 139              	.LFB3:
  95:Generated_Source\PSoC5/cyfitter_cfg.c **** 
  96:Generated_Source\PSoC5/cyfitter_cfg.c **** 
  97:Generated_Source\PSoC5/cyfitter_cfg.c **** 
  98:Generated_Source\PSoC5/cyfitter_cfg.c **** 
  99:Generated_Source\PSoC5/cyfitter_cfg.c **** /* Clock startup error codes                                                   */
 100:Generated_Source\PSoC5/cyfitter_cfg.c **** #define CYCLOCKSTART_NO_ERROR    0u
 101:Generated_Source\PSoC5/cyfitter_cfg.c **** #define CYCLOCKSTART_XTAL_ERROR  1u
 102:Generated_Source\PSoC5/cyfitter_cfg.c **** #define CYCLOCKSTART_32KHZ_ERROR 2u
 103:Generated_Source\PSoC5/cyfitter_cfg.c **** #define CYCLOCKSTART_PLL_ERROR   3u
 104:Generated_Source\PSoC5/cyfitter_cfg.c **** #define CYCLOCKSTART_FLL_ERROR   4u
 105:Generated_Source\PSoC5/cyfitter_cfg.c **** #define CYCLOCKSTART_WCO_ERROR   5u
 106:Generated_Source\PSoC5/cyfitter_cfg.c **** 
 107:Generated_Source\PSoC5/cyfitter_cfg.c **** 
 108:Generated_Source\PSoC5/cyfitter_cfg.c **** #ifdef CY_NEED_CYCLOCKSTARTUPERROR
 109:Generated_Source\PSoC5/cyfitter_cfg.c **** /*******************************************************************************
 110:Generated_Source\PSoC5/cyfitter_cfg.c **** * Function Name: CyClockStartupError
 111:Generated_Source\PSoC5/cyfitter_cfg.c **** ********************************************************************************
 112:Generated_Source\PSoC5/cyfitter_cfg.c **** * Summary:
 113:Generated_Source\PSoC5/cyfitter_cfg.c **** *  If an error is encountered during clock configuration (crystal startup error,
 114:Generated_Source\PSoC5/cyfitter_cfg.c **** *  PLL lock error, etc.), the system will end up here.  Unless reimplemented by
 115:Generated_Source\PSoC5/cyfitter_cfg.c **** *  the customer, this function will stop in an infinite loop.
 116:Generated_Source\PSoC5/cyfitter_cfg.c **** *
 117:Generated_Source\PSoC5/cyfitter_cfg.c **** * Parameters:
 118:Generated_Source\PSoC5/cyfitter_cfg.c **** *   void
 119:Generated_Source\PSoC5/cyfitter_cfg.c **** *
 120:Generated_Source\PSoC5/cyfitter_cfg.c **** * Return:
 121:Generated_Source\PSoC5/cyfitter_cfg.c **** *   void
 122:Generated_Source\PSoC5/cyfitter_cfg.c **** *
 123:Generated_Source\PSoC5/cyfitter_cfg.c **** *******************************************************************************/
 124:Generated_Source\PSoC5/cyfitter_cfg.c **** CY_CFG_UNUSED
 125:Generated_Source\PSoC5/cyfitter_cfg.c **** static void CyClockStartupError(uint8 errorCode);
 126:Generated_Source\PSoC5/cyfitter_cfg.c **** CY_CFG_UNUSED
 127:Generated_Source\PSoC5/cyfitter_cfg.c **** static void CyClockStartupError(uint8 errorCode)
 128:Generated_Source\PSoC5/cyfitter_cfg.c **** {
 140              		.loc 1 128 0
 141              		.cfi_startproc
 142              		@ args = 0, pretend = 0, frame = 8
 143              		@ frame_needed = 1, uses_anonymous_args = 0
 144              		@ link register save eliminated.
 145 0000 80B4     		push	{r7}
 146              		.cfi_def_cfa_offset 4
 147              		.cfi_offset 7, -4
 148 0002 83B0     		sub	sp, sp, #12
 149              		.cfi_def_cfa_offset 16
 150 0004 00AF     		add	r7, sp, #0
 151              		.cfi_def_cfa_register 7
 152 0006 0346     		mov	r3, r0
 153 0008 FB71     		strb	r3, [r7, #7]
 154              	.L5:
 129:Generated_Source\PSoC5/cyfitter_cfg.c ****     /* To remove the compiler warning if errorCode not used.                */
 130:Generated_Source\PSoC5/cyfitter_cfg.c ****     errorCode = errorCode;
 131:Generated_Source\PSoC5/cyfitter_cfg.c **** 
ARM GAS  C:\Users\Admin\AppData\Local\Temp\ccd3RvSG.s 			page 6


 132:Generated_Source\PSoC5/cyfitter_cfg.c ****     /* If we have a clock startup error (bad MHz crystal, PLL lock, etc.),  */
 133:Generated_Source\PSoC5/cyfitter_cfg.c ****     /* we will end up here to allow the customer to implement something to  */
 134:Generated_Source\PSoC5/cyfitter_cfg.c ****     /* deal with the clock condition.                                       */
 135:Generated_Source\PSoC5/cyfitter_cfg.c **** 
 136:Generated_Source\PSoC5/cyfitter_cfg.c **** #ifdef CY_CFG_CLOCK_STARTUP_ERROR_CALLBACK
 137:Generated_Source\PSoC5/cyfitter_cfg.c ****     CY_CFG_Clock_Startup_ErrorCallback();
 138:Generated_Source\PSoC5/cyfitter_cfg.c **** #else
 139:Generated_Source\PSoC5/cyfitter_cfg.c ****     /*  If not using CY_CFG_CLOCK_STARTUP_ERROR_CALLBACK, place your clock startup code here. */
 140:Generated_Source\PSoC5/cyfitter_cfg.c ****     /* `#START CyClockStartupError` */
 141:Generated_Source\PSoC5/cyfitter_cfg.c **** 
 142:Generated_Source\PSoC5/cyfitter_cfg.c **** 
 143:Generated_Source\PSoC5/cyfitter_cfg.c **** 
 144:Generated_Source\PSoC5/cyfitter_cfg.c ****     /* `#END` */
 145:Generated_Source\PSoC5/cyfitter_cfg.c **** 
 146:Generated_Source\PSoC5/cyfitter_cfg.c ****     while(1) {}
 155              		.loc 1 146 0 discriminator 1
 156 000a FEE7     		b	.L5
 157              		.cfi_endproc
 158              	.LFE3:
 159              		.size	CyClockStartupError, .-CyClockStartupError
 160              		.section	.text.cfg_write_bytes32,"ax",%progbits
 161              		.align	2
 162              		.thumb
 163              		.thumb_func
 164              		.type	cfg_write_bytes32, %function
 165              	cfg_write_bytes32:
 166              	.LFB4:
 147:Generated_Source\PSoC5/cyfitter_cfg.c **** #endif /* CY_CFG_CLOCK_STARTUP_ERROR_CALLBACK */
 148:Generated_Source\PSoC5/cyfitter_cfg.c **** }
 149:Generated_Source\PSoC5/cyfitter_cfg.c **** #endif
 150:Generated_Source\PSoC5/cyfitter_cfg.c **** 
 151:Generated_Source\PSoC5/cyfitter_cfg.c **** #define CY_CFG_BASE_ADDR_COUNT 44u
 152:Generated_Source\PSoC5/cyfitter_cfg.c **** CYPACKED typedef struct
 153:Generated_Source\PSoC5/cyfitter_cfg.c **** {
 154:Generated_Source\PSoC5/cyfitter_cfg.c **** 	uint8 offset;
 155:Generated_Source\PSoC5/cyfitter_cfg.c **** 	uint8 value;
 156:Generated_Source\PSoC5/cyfitter_cfg.c **** } CYPACKED_ATTR cy_cfg_addrvalue_t;
 157:Generated_Source\PSoC5/cyfitter_cfg.c **** 
 158:Generated_Source\PSoC5/cyfitter_cfg.c **** 
 159:Generated_Source\PSoC5/cyfitter_cfg.c **** 
 160:Generated_Source\PSoC5/cyfitter_cfg.c **** /*******************************************************************************
 161:Generated_Source\PSoC5/cyfitter_cfg.c **** * Function Name: cfg_write_bytes32
 162:Generated_Source\PSoC5/cyfitter_cfg.c **** ********************************************************************************
 163:Generated_Source\PSoC5/cyfitter_cfg.c **** * Summary:
 164:Generated_Source\PSoC5/cyfitter_cfg.c **** *  This function is used for setting up the chip configuration areas that
 165:Generated_Source\PSoC5/cyfitter_cfg.c **** *  contain relatively sparse data.
 166:Generated_Source\PSoC5/cyfitter_cfg.c **** *
 167:Generated_Source\PSoC5/cyfitter_cfg.c **** * Parameters:
 168:Generated_Source\PSoC5/cyfitter_cfg.c **** *   void
 169:Generated_Source\PSoC5/cyfitter_cfg.c **** *
 170:Generated_Source\PSoC5/cyfitter_cfg.c **** * Return:
 171:Generated_Source\PSoC5/cyfitter_cfg.c **** *   void
 172:Generated_Source\PSoC5/cyfitter_cfg.c **** *
 173:Generated_Source\PSoC5/cyfitter_cfg.c **** *******************************************************************************/
 174:Generated_Source\PSoC5/cyfitter_cfg.c **** static void cfg_write_bytes32(const uint32 addr_table[], const cy_cfg_addrvalue_t data_table[]);
 175:Generated_Source\PSoC5/cyfitter_cfg.c **** static void cfg_write_bytes32(const uint32 addr_table[], const cy_cfg_addrvalue_t data_table[])
 176:Generated_Source\PSoC5/cyfitter_cfg.c **** {
ARM GAS  C:\Users\Admin\AppData\Local\Temp\ccd3RvSG.s 			page 7


 167              		.loc 1 176 0
 168              		.cfi_startproc
 169              		@ args = 0, pretend = 0, frame = 24
 170              		@ frame_needed = 1, uses_anonymous_args = 0
 171              		@ link register save eliminated.
 172 0000 80B4     		push	{r7}
 173              		.cfi_def_cfa_offset 4
 174              		.cfi_offset 7, -4
 175 0002 87B0     		sub	sp, sp, #28
 176              		.cfi_def_cfa_offset 32
 177 0004 00AF     		add	r7, sp, #0
 178              		.cfi_def_cfa_register 7
 179 0006 7860     		str	r0, [r7, #4]
 180 0008 3960     		str	r1, [r7]
 177:Generated_Source\PSoC5/cyfitter_cfg.c **** 	/* For 32-bit little-endian architectures */
 178:Generated_Source\PSoC5/cyfitter_cfg.c **** 	uint32 i, j = 0u;
 181              		.loc 1 178 0
 182 000a 0023     		movs	r3, #0
 183 000c 3B61     		str	r3, [r7, #16]
 179:Generated_Source\PSoC5/cyfitter_cfg.c **** 	for (i = 0u; i < CY_CFG_BASE_ADDR_COUNT; i++)
 184              		.loc 1 179 0
 185 000e 0023     		movs	r3, #0
 186 0010 7B61     		str	r3, [r7, #20]
 187 0012 27E0     		b	.L7
 188              	.L10:
 189              	.LBB2:
 180:Generated_Source\PSoC5/cyfitter_cfg.c **** 	{
 181:Generated_Source\PSoC5/cyfitter_cfg.c **** 		uint32 baseAddr = addr_table[i];
 190              		.loc 1 181 0
 191 0014 7B69     		ldr	r3, [r7, #20]
 192 0016 9B00     		lsls	r3, r3, #2
 193 0018 7A68     		ldr	r2, [r7, #4]
 194 001a 1344     		add	r3, r3, r2
 195 001c 1B68     		ldr	r3, [r3]
 196 001e BB60     		str	r3, [r7, #8]
 182:Generated_Source\PSoC5/cyfitter_cfg.c **** 		uint8 count = (uint8)baseAddr;
 197              		.loc 1 182 0
 198 0020 BB68     		ldr	r3, [r7, #8]
 199 0022 FB73     		strb	r3, [r7, #15]
 183:Generated_Source\PSoC5/cyfitter_cfg.c **** 		baseAddr &= 0xFFFFFF00u;
 200              		.loc 1 183 0
 201 0024 BB68     		ldr	r3, [r7, #8]
 202 0026 23F0FF03 		bic	r3, r3, #255
 203 002a BB60     		str	r3, [r7, #8]
 184:Generated_Source\PSoC5/cyfitter_cfg.c **** 		while (count != 0u)
 204              		.loc 1 184 0
 205 002c 14E0     		b	.L8
 206              	.L9:
 185:Generated_Source\PSoC5/cyfitter_cfg.c **** 		{
 186:Generated_Source\PSoC5/cyfitter_cfg.c **** 			CY_SET_REG8((void *)(baseAddr + data_table[j].offset), data_table[j].value);
 207              		.loc 1 186 0
 208 002e 3B69     		ldr	r3, [r7, #16]
 209 0030 5B00     		lsls	r3, r3, #1
 210 0032 3A68     		ldr	r2, [r7]
 211 0034 1344     		add	r3, r3, r2
 212 0036 1B78     		ldrb	r3, [r3]	@ zero_extendqisi2
 213 0038 1A46     		mov	r2, r3
ARM GAS  C:\Users\Admin\AppData\Local\Temp\ccd3RvSG.s 			page 8


 214 003a BB68     		ldr	r3, [r7, #8]
 215 003c 1344     		add	r3, r3, r2
 216 003e 1946     		mov	r1, r3
 217 0040 3B69     		ldr	r3, [r7, #16]
 218 0042 5B00     		lsls	r3, r3, #1
 219 0044 3A68     		ldr	r2, [r7]
 220 0046 1344     		add	r3, r3, r2
 221 0048 5B78     		ldrb	r3, [r3, #1]	@ zero_extendqisi2
 222 004a 0B70     		strb	r3, [r1]
 187:Generated_Source\PSoC5/cyfitter_cfg.c **** 			j++;
 223              		.loc 1 187 0
 224 004c 3B69     		ldr	r3, [r7, #16]
 225 004e 0133     		adds	r3, r3, #1
 226 0050 3B61     		str	r3, [r7, #16]
 188:Generated_Source\PSoC5/cyfitter_cfg.c **** 			count--;
 227              		.loc 1 188 0
 228 0052 FB7B     		ldrb	r3, [r7, #15]	@ zero_extendqisi2
 229 0054 013B     		subs	r3, r3, #1
 230 0056 FB73     		strb	r3, [r7, #15]
 231              	.L8:
 184:Generated_Source\PSoC5/cyfitter_cfg.c **** 		{
 232              		.loc 1 184 0
 233 0058 FB7B     		ldrb	r3, [r7, #15]	@ zero_extendqisi2
 234 005a 002B     		cmp	r3, #0
 235 005c E7D1     		bne	.L9
 236              	.LBE2:
 179:Generated_Source\PSoC5/cyfitter_cfg.c **** 	{
 237              		.loc 1 179 0 discriminator 2
 238 005e 7B69     		ldr	r3, [r7, #20]
 239 0060 0133     		adds	r3, r3, #1
 240 0062 7B61     		str	r3, [r7, #20]
 241              	.L7:
 179:Generated_Source\PSoC5/cyfitter_cfg.c **** 	{
 242              		.loc 1 179 0 is_stmt 0 discriminator 1
 243 0064 7B69     		ldr	r3, [r7, #20]
 244 0066 2B2B     		cmp	r3, #43
 245 0068 D4D9     		bls	.L10
 189:Generated_Source\PSoC5/cyfitter_cfg.c **** 		}
 190:Generated_Source\PSoC5/cyfitter_cfg.c **** 	}
 191:Generated_Source\PSoC5/cyfitter_cfg.c **** }
 246              		.loc 1 191 0 is_stmt 1
 247 006a 00BF     		nop
 248 006c 1C37     		adds	r7, r7, #28
 249              		.cfi_def_cfa_offset 4
 250 006e BD46     		mov	sp, r7
 251              		.cfi_def_cfa_register 13
 252              		@ sp needed
 253 0070 80BC     		pop	{r7}
 254              		.cfi_restore 7
 255              		.cfi_def_cfa_offset 0
 256 0072 7047     		bx	lr
 257              		.cfi_endproc
 258              	.LFE4:
 259              		.size	cfg_write_bytes32, .-cfg_write_bytes32
 260              		.section	.text.ClockSetup,"ax",%progbits
 261              		.align	2
 262              		.thumb
ARM GAS  C:\Users\Admin\AppData\Local\Temp\ccd3RvSG.s 			page 9


 263              		.thumb_func
 264              		.type	ClockSetup, %function
 265              	ClockSetup:
 266              	.LFB5:
 192:Generated_Source\PSoC5/cyfitter_cfg.c **** 
 193:Generated_Source\PSoC5/cyfitter_cfg.c **** /*******************************************************************************
 194:Generated_Source\PSoC5/cyfitter_cfg.c **** * Function Name: ClockSetup
 195:Generated_Source\PSoC5/cyfitter_cfg.c **** ********************************************************************************
 196:Generated_Source\PSoC5/cyfitter_cfg.c **** *
 197:Generated_Source\PSoC5/cyfitter_cfg.c **** * Summary:
 198:Generated_Source\PSoC5/cyfitter_cfg.c **** *  Performs the initialization of all of the clocks in the device based on the
 199:Generated_Source\PSoC5/cyfitter_cfg.c **** *  settings in the Clock tab of the DWR.  This includes enabling the requested
 200:Generated_Source\PSoC5/cyfitter_cfg.c **** *  clocks and setting the necessary dividers to produce the desired frequency. 
 201:Generated_Source\PSoC5/cyfitter_cfg.c **** *
 202:Generated_Source\PSoC5/cyfitter_cfg.c **** * Parameters:
 203:Generated_Source\PSoC5/cyfitter_cfg.c **** *  void
 204:Generated_Source\PSoC5/cyfitter_cfg.c **** *
 205:Generated_Source\PSoC5/cyfitter_cfg.c **** * Return:
 206:Generated_Source\PSoC5/cyfitter_cfg.c **** *  void
 207:Generated_Source\PSoC5/cyfitter_cfg.c **** *
 208:Generated_Source\PSoC5/cyfitter_cfg.c **** *******************************************************************************/
 209:Generated_Source\PSoC5/cyfitter_cfg.c **** static void ClockSetup(void);
 210:Generated_Source\PSoC5/cyfitter_cfg.c **** static void ClockSetup(void)
 211:Generated_Source\PSoC5/cyfitter_cfg.c **** {
 267              		.loc 1 211 0
 268              		.cfi_startproc
 269              		@ args = 0, pretend = 0, frame = 8
 270              		@ frame_needed = 1, uses_anonymous_args = 0
 271 0000 80B5     		push	{r7, lr}
 272              		.cfi_def_cfa_offset 8
 273              		.cfi_offset 7, -8
 274              		.cfi_offset 14, -4
 275 0002 82B0     		sub	sp, sp, #8
 276              		.cfi_def_cfa_offset 16
 277 0004 00AF     		add	r7, sp, #0
 278              		.cfi_def_cfa_register 7
 212:Generated_Source\PSoC5/cyfitter_cfg.c **** 	uint32 timeout;
 213:Generated_Source\PSoC5/cyfitter_cfg.c **** 	uint8 pllLock;
 214:Generated_Source\PSoC5/cyfitter_cfg.c **** 
 215:Generated_Source\PSoC5/cyfitter_cfg.c **** 
 216:Generated_Source\PSoC5/cyfitter_cfg.c **** 	/* Configure Digital Clocks based on settings from Clock DWR */
 217:Generated_Source\PSoC5/cyfitter_cfg.c **** 	CY_SET_XTND_REG16((void CYFAR *)(CYREG_CLKDIST_DCFG0_CFG0), 0x0001u);
 279              		.loc 1 217 0
 280 0006 3C4B     		ldr	r3, .L16
 281 0008 0122     		movs	r2, #1
 282 000a 1A80     		strh	r2, [r3]	@ movhi
 218:Generated_Source\PSoC5/cyfitter_cfg.c **** 	CY_SET_XTND_REG8((void CYFAR *)(CYREG_CLKDIST_DCFG0_CFG0 + 0x2u), 0x18u);
 283              		.loc 1 218 0
 284 000c 3B4B     		ldr	r3, .L16+4
 285 000e 1822     		movs	r2, #24
 286 0010 1A70     		strb	r2, [r3]
 219:Generated_Source\PSoC5/cyfitter_cfg.c **** 	CY_SET_XTND_REG16((void CYFAR *)(CYREG_CLKDIST_DCFG1_CFG0), 0x0001u);
 287              		.loc 1 219 0
 288 0012 3B4B     		ldr	r3, .L16+8
 289 0014 0122     		movs	r2, #1
 290 0016 1A80     		strh	r2, [r3]	@ movhi
 220:Generated_Source\PSoC5/cyfitter_cfg.c **** 	CY_SET_XTND_REG8((void CYFAR *)(CYREG_CLKDIST_DCFG1_CFG0 + 0x2u), 0x18u);
ARM GAS  C:\Users\Admin\AppData\Local\Temp\ccd3RvSG.s 			page 10


 291              		.loc 1 220 0
 292 0018 3A4B     		ldr	r3, .L16+12
 293 001a 1822     		movs	r2, #24
 294 001c 1A70     		strb	r2, [r3]
 221:Generated_Source\PSoC5/cyfitter_cfg.c **** 	CY_SET_XTND_REG16((void CYFAR *)(CYREG_CLKDIST_DCFG2_CFG0), 0x0017u);
 295              		.loc 1 221 0
 296 001e 3A4B     		ldr	r3, .L16+16
 297 0020 1722     		movs	r2, #23
 298 0022 1A80     		strh	r2, [r3]	@ movhi
 222:Generated_Source\PSoC5/cyfitter_cfg.c **** 	CY_SET_XTND_REG8((void CYFAR *)(CYREG_CLKDIST_DCFG2_CFG0 + 0x2u), 0x18u);
 299              		.loc 1 222 0
 300 0024 394B     		ldr	r3, .L16+20
 301 0026 1822     		movs	r2, #24
 302 0028 1A70     		strb	r2, [r3]
 223:Generated_Source\PSoC5/cyfitter_cfg.c **** 	CY_SET_XTND_REG16((void CYFAR *)(CYREG_CLKDIST_DCFG3_CFG0), 0x0019u);
 303              		.loc 1 223 0
 304 002a 394B     		ldr	r3, .L16+24
 305 002c 1922     		movs	r2, #25
 306 002e 1A80     		strh	r2, [r3]	@ movhi
 224:Generated_Source\PSoC5/cyfitter_cfg.c **** 	CY_SET_XTND_REG8((void CYFAR *)(CYREG_CLKDIST_DCFG3_CFG0 + 0x2u), 0x18u);
 307              		.loc 1 224 0
 308 0030 384B     		ldr	r3, .L16+28
 309 0032 1822     		movs	r2, #24
 310 0034 1A70     		strb	r2, [r3]
 225:Generated_Source\PSoC5/cyfitter_cfg.c **** 	CY_SET_XTND_REG16((void CYFAR *)(CYREG_CLKDIST_DCFG4_CFG0), 0x002Fu);
 311              		.loc 1 225 0
 312 0036 384B     		ldr	r3, .L16+32
 313 0038 2F22     		movs	r2, #47
 314 003a 1A80     		strh	r2, [r3]	@ movhi
 226:Generated_Source\PSoC5/cyfitter_cfg.c **** 	CY_SET_XTND_REG8((void CYFAR *)(CYREG_CLKDIST_DCFG4_CFG0 + 0x2u), 0x18u);
 315              		.loc 1 226 0
 316 003c 374B     		ldr	r3, .L16+36
 317 003e 1822     		movs	r2, #24
 318 0040 1A70     		strb	r2, [r3]
 227:Generated_Source\PSoC5/cyfitter_cfg.c **** 
 228:Generated_Source\PSoC5/cyfitter_cfg.c **** 	/* Configure ILO based on settings from Clock DWR */
 229:Generated_Source\PSoC5/cyfitter_cfg.c **** 	CY_SET_XTND_REG8((void CYFAR *)(CYREG_SLOWCLK_ILO_CR0), 0x06u);
 319              		.loc 1 229 0
 320 0042 374B     		ldr	r3, .L16+40
 321 0044 0622     		movs	r2, #6
 322 0046 1A70     		strb	r2, [r3]
 230:Generated_Source\PSoC5/cyfitter_cfg.c **** 
 231:Generated_Source\PSoC5/cyfitter_cfg.c **** 	/* Configure IMO based on settings from Clock DWR */
 232:Generated_Source\PSoC5/cyfitter_cfg.c **** 	CY_SET_XTND_REG8((void CYFAR *)(CYREG_FASTCLK_IMO_CR), 0x52u);
 323              		.loc 1 232 0
 324 0048 364B     		ldr	r3, .L16+44
 325 004a 5222     		movs	r2, #82
 326 004c 1A70     		strb	r2, [r3]
 233:Generated_Source\PSoC5/cyfitter_cfg.c **** 	CY_SET_XTND_REG8((void CYFAR *)(CYREG_IMO_TR1), (CY_GET_XTND_REG8((void CYFAR *)CYREG_FLSHID_CUST_
 327              		.loc 1 233 0
 328 004e 364B     		ldr	r3, .L16+48
 329 0050 364A     		ldr	r2, .L16+52
 330 0052 1278     		ldrb	r2, [r2]
 331 0054 D2B2     		uxtb	r2, r2
 332 0056 1A70     		strb	r2, [r3]
 234:Generated_Source\PSoC5/cyfitter_cfg.c **** 
 235:Generated_Source\PSoC5/cyfitter_cfg.c **** 	/* Configure PLL based on settings from Clock DWR */
ARM GAS  C:\Users\Admin\AppData\Local\Temp\ccd3RvSG.s 			page 11


 236:Generated_Source\PSoC5/cyfitter_cfg.c **** 	CY_SET_XTND_REG16((void CYFAR *)(CYREG_FASTCLK_PLL_P), 0x0710u);
 333              		.loc 1 236 0
 334 0058 354B     		ldr	r3, .L16+56
 335 005a 4FF4E262 		mov	r2, #1808
 336 005e 1A80     		strh	r2, [r3]	@ movhi
 237:Generated_Source\PSoC5/cyfitter_cfg.c **** 	CY_SET_XTND_REG16((void CYFAR *)(CYREG_FASTCLK_PLL_CFG0), 0x1251u);
 337              		.loc 1 237 0
 338 0060 344B     		ldr	r3, .L16+60
 339 0062 41F25122 		movw	r2, #4689
 340 0066 1A80     		strh	r2, [r3]	@ movhi
 238:Generated_Source\PSoC5/cyfitter_cfg.c **** 	/* Wait up to 250us for the PLL to lock */
 239:Generated_Source\PSoC5/cyfitter_cfg.c **** 	pllLock = 0u;
 341              		.loc 1 239 0
 342 0068 0023     		movs	r3, #0
 343 006a FB70     		strb	r3, [r7, #3]
 240:Generated_Source\PSoC5/cyfitter_cfg.c **** 	for (timeout = 250u / 10u; (timeout > 0u) && (pllLock != 0x03u); timeout--)
 344              		.loc 1 240 0
 345 006c 1923     		movs	r3, #25
 346 006e 7B60     		str	r3, [r7, #4]
 347 0070 14E0     		b	.L12
 348              	.L14:
 241:Generated_Source\PSoC5/cyfitter_cfg.c **** 	{ 
 242:Generated_Source\PSoC5/cyfitter_cfg.c **** 		pllLock = 0x03u & ((uint8)((uint8)pllLock << 1) | ((CY_GET_XTND_REG8((void CYFAR *)CYREG_FASTCLK_
 349              		.loc 1 242 0 discriminator 4
 350 0072 FB78     		ldrb	r3, [r7, #3]
 351 0074 5B00     		lsls	r3, r3, #1
 352 0076 DAB2     		uxtb	r2, r3
 353 0078 2F4B     		ldr	r3, .L16+64
 354 007a 1B78     		ldrb	r3, [r3]
 355 007c DBB2     		uxtb	r3, r3
 356 007e 03F00103 		and	r3, r3, #1
 357 0082 DBB2     		uxtb	r3, r3
 358 0084 1343     		orrs	r3, r3, r2
 359 0086 DBB2     		uxtb	r3, r3
 360 0088 03F00303 		and	r3, r3, #3
 361 008c FB70     		strb	r3, [r7, #3]
 243:Generated_Source\PSoC5/cyfitter_cfg.c **** 		CyDelayCycles(10u * 48u); /* Delay 10us based on 48MHz clock */
 362              		.loc 1 243 0 discriminator 4
 363 008e 4FF4F070 		mov	r0, #480
 364 0092 FFF7FEFF 		bl	CyDelayCycles
 240:Generated_Source\PSoC5/cyfitter_cfg.c **** 	for (timeout = 250u / 10u; (timeout > 0u) && (pllLock != 0x03u); timeout--)
 365              		.loc 1 240 0 discriminator 4
 366 0096 7B68     		ldr	r3, [r7, #4]
 367 0098 013B     		subs	r3, r3, #1
 368 009a 7B60     		str	r3, [r7, #4]
 369              	.L12:
 240:Generated_Source\PSoC5/cyfitter_cfg.c **** 	for (timeout = 250u / 10u; (timeout > 0u) && (pllLock != 0x03u); timeout--)
 370              		.loc 1 240 0 is_stmt 0 discriminator 1
 371 009c 7B68     		ldr	r3, [r7, #4]
 372 009e 002B     		cmp	r3, #0
 373 00a0 02D0     		beq	.L13
 240:Generated_Source\PSoC5/cyfitter_cfg.c **** 	for (timeout = 250u / 10u; (timeout > 0u) && (pllLock != 0x03u); timeout--)
 374              		.loc 1 240 0 discriminator 3
 375 00a2 FB78     		ldrb	r3, [r7, #3]	@ zero_extendqisi2
 376 00a4 032B     		cmp	r3, #3
 377 00a6 E4D1     		bne	.L14
 378              	.L13:
ARM GAS  C:\Users\Admin\AppData\Local\Temp\ccd3RvSG.s 			page 12


 244:Generated_Source\PSoC5/cyfitter_cfg.c **** 	}
 245:Generated_Source\PSoC5/cyfitter_cfg.c **** 	/* If we ran out of time the PLL didn't lock so go to the error function */
 246:Generated_Source\PSoC5/cyfitter_cfg.c **** 	if (timeout == 0u)
 379              		.loc 1 246 0 is_stmt 1
 380 00a8 7B68     		ldr	r3, [r7, #4]
 381 00aa 002B     		cmp	r3, #0
 382 00ac 02D1     		bne	.L15
 247:Generated_Source\PSoC5/cyfitter_cfg.c **** 	{
 248:Generated_Source\PSoC5/cyfitter_cfg.c **** 		CyClockStartupError(CYCLOCKSTART_PLL_ERROR);
 383              		.loc 1 248 0
 384 00ae 0320     		movs	r0, #3
 385 00b0 FFF7FEFF 		bl	CyClockStartupError
 386              	.L15:
 249:Generated_Source\PSoC5/cyfitter_cfg.c **** 	}
 250:Generated_Source\PSoC5/cyfitter_cfg.c **** 
 251:Generated_Source\PSoC5/cyfitter_cfg.c **** 	/* Configure Bus/Master Clock based on settings from Clock DWR */
 252:Generated_Source\PSoC5/cyfitter_cfg.c **** 	CY_SET_XTND_REG16((void CYFAR *)(CYREG_CLKDIST_MSTR0), 0x0100u);
 387              		.loc 1 252 0
 388 00b4 214B     		ldr	r3, .L16+68
 389 00b6 4FF48072 		mov	r2, #256
 390 00ba 1A80     		strh	r2, [r3]	@ movhi
 253:Generated_Source\PSoC5/cyfitter_cfg.c **** 	CY_SET_XTND_REG8((void CYFAR *)(CYREG_CLKDIST_MSTR0), 0x07u);
 391              		.loc 1 253 0
 392 00bc 1F4B     		ldr	r3, .L16+68
 393 00be 0722     		movs	r2, #7
 394 00c0 1A70     		strb	r2, [r3]
 254:Generated_Source\PSoC5/cyfitter_cfg.c **** 	CY_SET_XTND_REG8((void CYFAR *)(CYREG_CLKDIST_BCFG0), 0x00u);
 395              		.loc 1 254 0
 396 00c2 1F4B     		ldr	r3, .L16+72
 397 00c4 0022     		movs	r2, #0
 398 00c6 1A70     		strb	r2, [r3]
 255:Generated_Source\PSoC5/cyfitter_cfg.c **** 	CY_SET_XTND_REG8((void CYFAR *)(CYREG_CLKDIST_BCFG2), 0x48u);
 399              		.loc 1 255 0
 400 00c8 1E4B     		ldr	r3, .L16+76
 401 00ca 4822     		movs	r2, #72
 402 00cc 1A70     		strb	r2, [r3]
 256:Generated_Source\PSoC5/cyfitter_cfg.c **** 	CY_SET_XTND_REG8((void CYFAR *)(CYREG_CLKDIST_MSTR0), 0x00u);
 403              		.loc 1 256 0
 404 00ce 1B4B     		ldr	r3, .L16+68
 405 00d0 0022     		movs	r2, #0
 406 00d2 1A70     		strb	r2, [r3]
 257:Generated_Source\PSoC5/cyfitter_cfg.c **** 
 258:Generated_Source\PSoC5/cyfitter_cfg.c **** 	/* Configure USB Clock based on settings from Clock DWR */
 259:Generated_Source\PSoC5/cyfitter_cfg.c **** 	CY_SET_XTND_REG8((void CYFAR *)(CYREG_CLKDIST_UCFG), 0x00u);
 407              		.loc 1 259 0
 408 00d4 1C4B     		ldr	r3, .L16+80
 409 00d6 0022     		movs	r2, #0
 410 00d8 1A70     		strb	r2, [r3]
 260:Generated_Source\PSoC5/cyfitter_cfg.c **** 	CY_SET_XTND_REG8((void CYFAR *)(CYREG_CLKDIST_LD), 0x02u);
 411              		.loc 1 260 0
 412 00da 1C4B     		ldr	r3, .L16+84
 413 00dc 0222     		movs	r2, #2
 414 00de 1A70     		strb	r2, [r3]
 261:Generated_Source\PSoC5/cyfitter_cfg.c **** 
 262:Generated_Source\PSoC5/cyfitter_cfg.c **** 	CY_SET_XTND_REG8((void CYFAR *)(CYREG_PM_ACT_CFG2), ((CY_GET_XTND_REG8((void CYFAR *)CYREG_PM_ACT_
 415              		.loc 1 262 0
 416 00e0 1B4A     		ldr	r2, .L16+88
ARM GAS  C:\Users\Admin\AppData\Local\Temp\ccd3RvSG.s 			page 13


 417 00e2 1B4B     		ldr	r3, .L16+88
 418 00e4 1B78     		ldrb	r3, [r3]
 419 00e6 DBB2     		uxtb	r3, r3
 420 00e8 43F01F03 		orr	r3, r3, #31
 421 00ec DBB2     		uxtb	r3, r3
 422 00ee 1370     		strb	r3, [r2]
 263:Generated_Source\PSoC5/cyfitter_cfg.c **** }
 423              		.loc 1 263 0
 424 00f0 00BF     		nop
 425 00f2 0837     		adds	r7, r7, #8
 426              		.cfi_def_cfa_offset 8
 427 00f4 BD46     		mov	sp, r7
 428              		.cfi_def_cfa_register 13
 429              		@ sp needed
 430 00f6 80BD     		pop	{r7, pc}
 431              	.L17:
 432              		.align	2
 433              	.L16:
 434 00f8 80400040 		.word	1073758336
 435 00fc 82400040 		.word	1073758338
 436 0100 84400040 		.word	1073758340
 437 0104 86400040 		.word	1073758342
 438 0108 88400040 		.word	1073758344
 439 010c 8A400040 		.word	1073758346
 440 0110 8C400040 		.word	1073758348
 441 0114 8E400040 		.word	1073758350
 442 0118 90400040 		.word	1073758352
 443 011c 92400040 		.word	1073758354
 444 0120 00430040 		.word	1073758976
 445 0124 00420040 		.word	1073758720
 446 0128 A1460040 		.word	1073759905
 447 012c 0F010049 		.word	1224737039
 448 0130 22420040 		.word	1073758754
 449 0134 20420040 		.word	1073758752
 450 0138 25420040 		.word	1073758757
 451 013c 04400040 		.word	1073758212
 452 0140 06400040 		.word	1073758214
 453 0144 08400040 		.word	1073758216
 454 0148 09400040 		.word	1073758217
 455 014c 01400040 		.word	1073758209
 456 0150 A2430040 		.word	1073759138
 457              		.cfi_endproc
 458              	.LFE5:
 459              		.size	ClockSetup, .-ClockSetup
 460              		.section	.text.AnalogSetDefault,"ax",%progbits
 461              		.align	2
 462              		.thumb
 463              		.thumb_func
 464              		.type	AnalogSetDefault, %function
 465              	AnalogSetDefault:
 466              	.LFB6:
 264:Generated_Source\PSoC5/cyfitter_cfg.c **** 
 265:Generated_Source\PSoC5/cyfitter_cfg.c **** 
 266:Generated_Source\PSoC5/cyfitter_cfg.c **** /* Analog API Functions */
 267:Generated_Source\PSoC5/cyfitter_cfg.c **** 
 268:Generated_Source\PSoC5/cyfitter_cfg.c **** 
 269:Generated_Source\PSoC5/cyfitter_cfg.c **** /*******************************************************************************
ARM GAS  C:\Users\Admin\AppData\Local\Temp\ccd3RvSG.s 			page 14


 270:Generated_Source\PSoC5/cyfitter_cfg.c **** * Function Name: AnalogSetDefault
 271:Generated_Source\PSoC5/cyfitter_cfg.c **** ********************************************************************************
 272:Generated_Source\PSoC5/cyfitter_cfg.c **** *
 273:Generated_Source\PSoC5/cyfitter_cfg.c **** * Summary:
 274:Generated_Source\PSoC5/cyfitter_cfg.c **** *  Sets up the analog portions of the chip to default values based on chip
 275:Generated_Source\PSoC5/cyfitter_cfg.c **** *  configuration options from the project.
 276:Generated_Source\PSoC5/cyfitter_cfg.c **** *
 277:Generated_Source\PSoC5/cyfitter_cfg.c **** * Parameters:
 278:Generated_Source\PSoC5/cyfitter_cfg.c **** *  void
 279:Generated_Source\PSoC5/cyfitter_cfg.c **** *
 280:Generated_Source\PSoC5/cyfitter_cfg.c **** * Return:
 281:Generated_Source\PSoC5/cyfitter_cfg.c **** *  void
 282:Generated_Source\PSoC5/cyfitter_cfg.c **** *
 283:Generated_Source\PSoC5/cyfitter_cfg.c **** *******************************************************************************/
 284:Generated_Source\PSoC5/cyfitter_cfg.c **** static void AnalogSetDefault(void);
 285:Generated_Source\PSoC5/cyfitter_cfg.c **** static void AnalogSetDefault(void)
 286:Generated_Source\PSoC5/cyfitter_cfg.c **** {
 467              		.loc 1 286 0
 468              		.cfi_startproc
 469              		@ args = 0, pretend = 0, frame = 8
 470              		@ frame_needed = 1, uses_anonymous_args = 0
 471 0000 80B5     		push	{r7, lr}
 472              		.cfi_def_cfa_offset 8
 473              		.cfi_offset 7, -8
 474              		.cfi_offset 14, -4
 475 0002 82B0     		sub	sp, sp, #8
 476              		.cfi_def_cfa_offset 16
 477 0004 00AF     		add	r7, sp, #0
 478              		.cfi_def_cfa_register 7
 287:Generated_Source\PSoC5/cyfitter_cfg.c **** 	uint8 bg_xover_inl_trim = CY_GET_XTND_REG8((void CYFAR *)(CYREG_FLSHID_MFG_CFG_BG_XOVER_INL_TRIM +
 479              		.loc 1 287 0
 480 0006 224B     		ldr	r3, .L19
 481 0008 1B78     		ldrb	r3, [r3]
 482 000a FB71     		strb	r3, [r7, #7]
 288:Generated_Source\PSoC5/cyfitter_cfg.c **** 	uint8 cr4 = CY_GET_XTND_REG8((void CYFAR *)(CYREG_RESET_CR4));
 483              		.loc 1 288 0
 484 000c 214B     		ldr	r3, .L19+4
 485 000e 1B78     		ldrb	r3, [r3]
 486 0010 BB71     		strb	r3, [r7, #6]
 289:Generated_Source\PSoC5/cyfitter_cfg.c **** 	uint8 cr5 = CY_GET_XTND_REG8((void CYFAR *)(CYREG_RESET_CR5));
 487              		.loc 1 289 0
 488 0012 214B     		ldr	r3, .L19+8
 489 0014 1B78     		ldrb	r3, [r3]
 490 0016 7B71     		strb	r3, [r7, #5]
 290:Generated_Source\PSoC5/cyfitter_cfg.c **** 	CY_SET_XTND_REG8((void CYFAR *)(CYREG_BG_DFT0), (bg_xover_inl_trim & 0x07u));
 491              		.loc 1 290 0
 492 0018 204A     		ldr	r2, .L19+12
 493 001a FB79     		ldrb	r3, [r7, #7]
 494 001c 03F00703 		and	r3, r3, #7
 495 0020 DBB2     		uxtb	r3, r3
 496 0022 1370     		strb	r3, [r2]
 291:Generated_Source\PSoC5/cyfitter_cfg.c **** 	CY_SET_XTND_REG8((void CYFAR *)(CYREG_BG_DFT1), ((bg_xover_inl_trim >> 4) & 0x0Fu));
 497              		.loc 1 291 0
 498 0024 1E4A     		ldr	r2, .L19+16
 499 0026 FB79     		ldrb	r3, [r7, #7]	@ zero_extendqisi2
 500 0028 1B09     		lsrs	r3, r3, #4
 501 002a DBB2     		uxtb	r3, r3
ARM GAS  C:\Users\Admin\AppData\Local\Temp\ccd3RvSG.s 			page 15


 502 002c 1370     		strb	r3, [r2]
 292:Generated_Source\PSoC5/cyfitter_cfg.c **** 	/* Disable PRES while setting up SAR voltage reference */
 293:Generated_Source\PSoC5/cyfitter_cfg.c **** 	CY_SET_XTND_REG8((void CYFAR *)(CYREG_RESET_CR4), (cr4 | 0x03u));
 503              		.loc 1 293 0
 504 002e 194A     		ldr	r2, .L19+4
 505 0030 BB79     		ldrb	r3, [r7, #6]
 506 0032 43F00303 		orr	r3, r3, #3
 507 0036 DBB2     		uxtb	r3, r3
 508 0038 1370     		strb	r3, [r2]
 294:Generated_Source\PSoC5/cyfitter_cfg.c **** 	CY_SET_XTND_REG8((void CYFAR *)(CYREG_RESET_CR5), (cr5 | 0x03u));
 509              		.loc 1 294 0
 510 003a 174A     		ldr	r2, .L19+8
 511 003c 7B79     		ldrb	r3, [r7, #5]
 512 003e 43F00303 		orr	r3, r3, #3
 513 0042 DBB2     		uxtb	r3, r3
 514 0044 1370     		strb	r3, [r2]
 295:Generated_Source\PSoC5/cyfitter_cfg.c **** 	CY_SET_XTND_REG8((void CYFAR *)CYREG_PRT1_AG, 0xD0u);
 515              		.loc 1 295 0
 516 0046 174B     		ldr	r3, .L19+20
 517 0048 D022     		movs	r2, #208
 518 004a 1A70     		strb	r2, [r3]
 296:Generated_Source\PSoC5/cyfitter_cfg.c **** 	CY_SET_XTND_REG8((void CYFAR *)CYREG_SAR0_CSR1, 0x40u);
 519              		.loc 1 296 0
 520 004c 164B     		ldr	r3, .L19+24
 521 004e 4022     		movs	r2, #64
 522 0050 1A70     		strb	r2, [r3]
 297:Generated_Source\PSoC5/cyfitter_cfg.c **** 	CY_SET_XTND_REG8((void CYFAR *)CYREG_SAR0_CSR3, 0x40u);
 523              		.loc 1 297 0
 524 0052 164B     		ldr	r3, .L19+28
 525 0054 4022     		movs	r2, #64
 526 0056 1A70     		strb	r2, [r3]
 298:Generated_Source\PSoC5/cyfitter_cfg.c **** 	CY_SET_XTND_REG8((void CYFAR *)CYREG_SAR0_SW0, 0x04u);
 527              		.loc 1 298 0
 528 0058 154B     		ldr	r3, .L19+32
 529 005a 0422     		movs	r2, #4
 530 005c 1A70     		strb	r2, [r3]
 299:Generated_Source\PSoC5/cyfitter_cfg.c **** 	CY_SET_XTND_REG8((void CYFAR *)CYREG_SAR0_SW3, 0x20u);
 531              		.loc 1 299 0
 532 005e 154B     		ldr	r3, .L19+36
 533 0060 2022     		movs	r2, #32
 534 0062 1A70     		strb	r2, [r3]
 300:Generated_Source\PSoC5/cyfitter_cfg.c **** 	CY_SET_XTND_REG8((void CYFAR *)CYREG_SAR1_SW0, 0x0Du);
 535              		.loc 1 300 0
 536 0064 144B     		ldr	r3, .L19+40
 537 0066 0D22     		movs	r2, #13
 538 0068 1A70     		strb	r2, [r3]
 301:Generated_Source\PSoC5/cyfitter_cfg.c **** 	CY_SET_XTND_REG8((void CYFAR *)CYREG_BUS_SW0, 0x04u);
 539              		.loc 1 301 0
 540 006a 144B     		ldr	r3, .L19+44
 541 006c 0422     		movs	r2, #4
 542 006e 1A70     		strb	r2, [r3]
 302:Generated_Source\PSoC5/cyfitter_cfg.c **** 	CyDelayUs(10u); /* Allow vref to settle before re-enabling PRES */
 543              		.loc 1 302 0
 544 0070 0A20     		movs	r0, #10
 545 0072 FFF7FEFF 		bl	CyDelayUs
 303:Generated_Source\PSoC5/cyfitter_cfg.c **** 	CY_SET_XTND_REG8((void CYFAR *)(CYREG_RESET_CR5), (cr5));
 546              		.loc 1 303 0
ARM GAS  C:\Users\Admin\AppData\Local\Temp\ccd3RvSG.s 			page 16


 547 0076 084A     		ldr	r2, .L19+8
 548 0078 7B79     		ldrb	r3, [r7, #5]
 549 007a 1370     		strb	r3, [r2]
 304:Generated_Source\PSoC5/cyfitter_cfg.c **** 	CY_SET_XTND_REG8((void CYFAR *)(CYREG_RESET_CR4), (cr4));
 550              		.loc 1 304 0
 551 007c 054A     		ldr	r2, .L19+4
 552 007e BB79     		ldrb	r3, [r7, #6]
 553 0080 1370     		strb	r3, [r2]
 305:Generated_Source\PSoC5/cyfitter_cfg.c **** 	CY_SET_XTND_REG8((void CYFAR *)CYREG_PUMP_CR0, 0x44u);
 554              		.loc 1 305 0
 555 0082 0F4B     		ldr	r3, .L19+48
 556 0084 4422     		movs	r2, #68
 557 0086 1A70     		strb	r2, [r3]
 306:Generated_Source\PSoC5/cyfitter_cfg.c **** }
 558              		.loc 1 306 0
 559 0088 00BF     		nop
 560 008a 0837     		adds	r7, r7, #8
 561              		.cfi_def_cfa_offset 8
 562 008c BD46     		mov	sp, r7
 563              		.cfi_def_cfa_register 13
 564              		@ sp needed
 565 008e 80BD     		pop	{r7, pc}
 566              	.L20:
 567              		.align	2
 568              	.L19:
 569 0090 CF010049 		.word	1224737231
 570 0094 F8460040 		.word	1073759992
 571 0098 F9460040 		.word	1073759993
 572 009c 6E580040 		.word	1073764462
 573 00a0 6F580040 		.word	1073764463
 574 00a4 1D510040 		.word	1073762589
 575 00a8 01590040 		.word	1073764609
 576 00ac 03590040 		.word	1073764611
 577 00b0 205B0040 		.word	1073765152
 578 00b4 235B0040 		.word	1073765155
 579 00b8 285B0040 		.word	1073765160
 580 00bc 585B0040 		.word	1073765208
 581 00c0 76580040 		.word	1073764470
 582              		.cfi_endproc
 583              	.LFE6:
 584              		.size	AnalogSetDefault, .-AnalogSetDefault
 585              		.section	.text.SetAnalogRoutingPumps,"ax",%progbits
 586              		.align	2
 587              		.global	SetAnalogRoutingPumps
 588              		.thumb
 589              		.thumb_func
 590              		.type	SetAnalogRoutingPumps, %function
 591              	SetAnalogRoutingPumps:
 592              	.LFB7:
 307:Generated_Source\PSoC5/cyfitter_cfg.c **** 
 308:Generated_Source\PSoC5/cyfitter_cfg.c **** 
 309:Generated_Source\PSoC5/cyfitter_cfg.c **** /*******************************************************************************
 310:Generated_Source\PSoC5/cyfitter_cfg.c **** * Function Name: SetAnalogRoutingPumps
 311:Generated_Source\PSoC5/cyfitter_cfg.c **** ********************************************************************************
 312:Generated_Source\PSoC5/cyfitter_cfg.c **** *
 313:Generated_Source\PSoC5/cyfitter_cfg.c **** * Summary:
 314:Generated_Source\PSoC5/cyfitter_cfg.c **** * Enables or disables the analog pumps feeding analog routing switches.
ARM GAS  C:\Users\Admin\AppData\Local\Temp\ccd3RvSG.s 			page 17


 315:Generated_Source\PSoC5/cyfitter_cfg.c **** * Intended to be called at startup, based on the Vdda system configuration;
 316:Generated_Source\PSoC5/cyfitter_cfg.c **** * may be called during operation when the user informs us that the Vdda voltage
 317:Generated_Source\PSoC5/cyfitter_cfg.c **** * crossed the pump threshold.
 318:Generated_Source\PSoC5/cyfitter_cfg.c **** *
 319:Generated_Source\PSoC5/cyfitter_cfg.c **** * Parameters:
 320:Generated_Source\PSoC5/cyfitter_cfg.c **** *  enabled - 1 to enable the pumps, 0 to disable the pumps
 321:Generated_Source\PSoC5/cyfitter_cfg.c **** *
 322:Generated_Source\PSoC5/cyfitter_cfg.c **** * Return:
 323:Generated_Source\PSoC5/cyfitter_cfg.c **** *  void
 324:Generated_Source\PSoC5/cyfitter_cfg.c **** *
 325:Generated_Source\PSoC5/cyfitter_cfg.c **** *******************************************************************************/
 326:Generated_Source\PSoC5/cyfitter_cfg.c **** void SetAnalogRoutingPumps(uint8 enabled)
 327:Generated_Source\PSoC5/cyfitter_cfg.c **** {
 593              		.loc 1 327 0
 594              		.cfi_startproc
 595              		@ args = 0, pretend = 0, frame = 16
 596              		@ frame_needed = 1, uses_anonymous_args = 0
 597              		@ link register save eliminated.
 598 0000 80B4     		push	{r7}
 599              		.cfi_def_cfa_offset 4
 600              		.cfi_offset 7, -4
 601 0002 85B0     		sub	sp, sp, #20
 602              		.cfi_def_cfa_offset 24
 603 0004 00AF     		add	r7, sp, #0
 604              		.cfi_def_cfa_register 7
 605 0006 0346     		mov	r3, r0
 606 0008 FB71     		strb	r3, [r7, #7]
 328:Generated_Source\PSoC5/cyfitter_cfg.c **** 	uint8 regValue = CY_GET_XTND_REG8((void CYFAR *)CYREG_PUMP_CR0);
 607              		.loc 1 328 0
 608 000a 0B4B     		ldr	r3, .L24
 609 000c 1B78     		ldrb	r3, [r3]
 610 000e FB73     		strb	r3, [r7, #15]
 329:Generated_Source\PSoC5/cyfitter_cfg.c **** 	if (enabled != 0u)
 611              		.loc 1 329 0
 612 0010 FB79     		ldrb	r3, [r7, #7]	@ zero_extendqisi2
 613 0012 002B     		cmp	r3, #0
 614 0014 04D0     		beq	.L22
 330:Generated_Source\PSoC5/cyfitter_cfg.c **** 	{
 331:Generated_Source\PSoC5/cyfitter_cfg.c **** 		regValue |= 0x22u;
 615              		.loc 1 331 0
 616 0016 FB7B     		ldrb	r3, [r7, #15]
 617 0018 43F02203 		orr	r3, r3, #34
 618 001c FB73     		strb	r3, [r7, #15]
 619 001e 03E0     		b	.L23
 620              	.L22:
 332:Generated_Source\PSoC5/cyfitter_cfg.c **** 	}
 333:Generated_Source\PSoC5/cyfitter_cfg.c **** 	else
 334:Generated_Source\PSoC5/cyfitter_cfg.c **** 	{
 335:Generated_Source\PSoC5/cyfitter_cfg.c **** 		regValue &= (uint8)~0x22u;
 621              		.loc 1 335 0
 622 0020 FB7B     		ldrb	r3, [r7, #15]
 623 0022 23F02203 		bic	r3, r3, #34
 624 0026 FB73     		strb	r3, [r7, #15]
 625              	.L23:
 336:Generated_Source\PSoC5/cyfitter_cfg.c **** 	}
 337:Generated_Source\PSoC5/cyfitter_cfg.c **** 	CY_SET_XTND_REG8((void CYFAR *)CYREG_PUMP_CR0, regValue);
 626              		.loc 1 337 0
ARM GAS  C:\Users\Admin\AppData\Local\Temp\ccd3RvSG.s 			page 18


 627 0028 034A     		ldr	r2, .L24
 628 002a FB7B     		ldrb	r3, [r7, #15]
 629 002c 1370     		strb	r3, [r2]
 338:Generated_Source\PSoC5/cyfitter_cfg.c **** }
 630              		.loc 1 338 0
 631 002e 00BF     		nop
 632 0030 1437     		adds	r7, r7, #20
 633              		.cfi_def_cfa_offset 4
 634 0032 BD46     		mov	sp, r7
 635              		.cfi_def_cfa_register 13
 636              		@ sp needed
 637 0034 80BC     		pop	{r7}
 638              		.cfi_restore 7
 639              		.cfi_def_cfa_offset 0
 640 0036 7047     		bx	lr
 641              	.L25:
 642              		.align	2
 643              	.L24:
 644 0038 76580040 		.word	1073764470
 645              		.cfi_endproc
 646              	.LFE7:
 647              		.size	SetAnalogRoutingPumps, .-SetAnalogRoutingPumps
 648              		.section	.text.cyfitter_cfg,"ax",%progbits
 649              		.align	2
 650              		.global	cyfitter_cfg
 651              		.thumb
 652              		.thumb_func
 653              		.type	cyfitter_cfg, %function
 654              	cyfitter_cfg:
 655              	.LFB8:
 339:Generated_Source\PSoC5/cyfitter_cfg.c **** 
 340:Generated_Source\PSoC5/cyfitter_cfg.c **** 
 341:Generated_Source\PSoC5/cyfitter_cfg.c **** #define CY_AMUX_UNUSED CYREG_BOOST_SR
 342:Generated_Source\PSoC5/cyfitter_cfg.c **** 
 343:Generated_Source\PSoC5/cyfitter_cfg.c **** 
 344:Generated_Source\PSoC5/cyfitter_cfg.c **** /*******************************************************************************
 345:Generated_Source\PSoC5/cyfitter_cfg.c **** * Function Name: cyfitter_cfg
 346:Generated_Source\PSoC5/cyfitter_cfg.c **** ********************************************************************************
 347:Generated_Source\PSoC5/cyfitter_cfg.c **** * Summary:
 348:Generated_Source\PSoC5/cyfitter_cfg.c **** *  This function is called by the start-up code for the selected device. It
 349:Generated_Source\PSoC5/cyfitter_cfg.c **** *  performs all of the necessary device configuration based on the design
 350:Generated_Source\PSoC5/cyfitter_cfg.c **** *  settings.  This includes settings from the Design Wide Resources (DWR) such
 351:Generated_Source\PSoC5/cyfitter_cfg.c **** *  as Clocks and Pins as well as any component configuration that is necessary.
 352:Generated_Source\PSoC5/cyfitter_cfg.c **** *
 353:Generated_Source\PSoC5/cyfitter_cfg.c **** * Parameters:
 354:Generated_Source\PSoC5/cyfitter_cfg.c **** *   void
 355:Generated_Source\PSoC5/cyfitter_cfg.c **** *
 356:Generated_Source\PSoC5/cyfitter_cfg.c **** * Return:
 357:Generated_Source\PSoC5/cyfitter_cfg.c **** *   void
 358:Generated_Source\PSoC5/cyfitter_cfg.c **** *
 359:Generated_Source\PSoC5/cyfitter_cfg.c **** *******************************************************************************/
 360:Generated_Source\PSoC5/cyfitter_cfg.c **** 
 361:Generated_Source\PSoC5/cyfitter_cfg.c **** void cyfitter_cfg(void)
 362:Generated_Source\PSoC5/cyfitter_cfg.c **** {
 656              		.loc 1 362 0
 657              		.cfi_startproc
 658              		@ args = 0, pretend = 0, frame = 24
ARM GAS  C:\Users\Admin\AppData\Local\Temp\ccd3RvSG.s 			page 19


 659              		@ frame_needed = 1, uses_anonymous_args = 0
 660 0000 80B5     		push	{r7, lr}
 661              		.cfi_def_cfa_offset 8
 662              		.cfi_offset 7, -8
 663              		.cfi_offset 14, -4
 664 0002 86B0     		sub	sp, sp, #24
 665              		.cfi_def_cfa_offset 32
 666 0004 00AF     		add	r7, sp, #0
 667              		.cfi_def_cfa_register 7
 363:Generated_Source\PSoC5/cyfitter_cfg.c **** 	/* IOPINS0_0 Address: CYREG_PRT0_DR Size (bytes): 10 */
 364:Generated_Source\PSoC5/cyfitter_cfg.c **** 	static const uint8 CYCODE BS_IOPINS0_0_VAL[] = {
 365:Generated_Source\PSoC5/cyfitter_cfg.c **** 		0x82u, 0x00u, 0x40u, 0xA2u, 0xA0u, 0x00u, 0xA0u, 0x00u, 0x00u, 0x00u};
 366:Generated_Source\PSoC5/cyfitter_cfg.c **** 
 367:Generated_Source\PSoC5/cyfitter_cfg.c **** 	/* IOPINS0_7 Address: CYREG_PRT12_DR Size (bytes): 10 */
 368:Generated_Source\PSoC5/cyfitter_cfg.c **** 	static const uint8 CYCODE BS_IOPINS0_7_VAL[] = {
 369:Generated_Source\PSoC5/cyfitter_cfg.c **** 		0x0Cu, 0x00u, 0x80u, 0x8Du, 0x05u, 0x00u, 0x01u, 0x00u, 0x00u, 0x00u};
 370:Generated_Source\PSoC5/cyfitter_cfg.c **** 
 371:Generated_Source\PSoC5/cyfitter_cfg.c **** 	/* IOPINS0_8 Address: CYREG_PRT15_DR Size (bytes): 10 */
 372:Generated_Source\PSoC5/cyfitter_cfg.c **** 	static const uint8 CYCODE BS_IOPINS0_8_VAL[] = {
 373:Generated_Source\PSoC5/cyfitter_cfg.c **** 		0x42u, 0x00u, 0x0Cu, 0x03u, 0x03u, 0x00u, 0x01u, 0x00u, 0xC0u, 0x00u};
 374:Generated_Source\PSoC5/cyfitter_cfg.c **** 
 375:Generated_Source\PSoC5/cyfitter_cfg.c **** 	/* IOPINS0_1 Address: CYREG_PRT1_DM0 Size (bytes): 8 */
 376:Generated_Source\PSoC5/cyfitter_cfg.c **** 	static const uint8 CYCODE BS_IOPINS0_1_VAL[] = {
 377:Generated_Source\PSoC5/cyfitter_cfg.c **** 		0x00u, 0xDBu, 0xDBu, 0x00u, 0x00u, 0xD0u, 0xD0u, 0x00u};
 378:Generated_Source\PSoC5/cyfitter_cfg.c **** 
 379:Generated_Source\PSoC5/cyfitter_cfg.c **** 	/* IOPINS0_2 Address: CYREG_PRT2_DR Size (bytes): 10 */
 380:Generated_Source\PSoC5/cyfitter_cfg.c **** 	static const uint8 CYCODE BS_IOPINS0_2_VAL[] = {
 381:Generated_Source\PSoC5/cyfitter_cfg.c **** 		0x60u, 0x00u, 0x00u, 0x60u, 0x40u, 0x00u, 0x40u, 0x00u, 0x00u, 0x00u};
 382:Generated_Source\PSoC5/cyfitter_cfg.c **** 
 383:Generated_Source\PSoC5/cyfitter_cfg.c **** 	/* IOPINS0_3 Address: CYREG_PRT3_DR Size (bytes): 10 */
 384:Generated_Source\PSoC5/cyfitter_cfg.c **** 	static const uint8 CYCODE BS_IOPINS0_3_VAL[] = {
 385:Generated_Source\PSoC5/cyfitter_cfg.c **** 		0x3Bu, 0x00u, 0x20u, 0x7Bu, 0x48u, 0x00u, 0x40u, 0x00u, 0x00u, 0x00u};
 386:Generated_Source\PSoC5/cyfitter_cfg.c **** 
 387:Generated_Source\PSoC5/cyfitter_cfg.c **** 	/* IOPINS0_4 Address: CYREG_PRT4_DM0 Size (bytes): 8 */
 388:Generated_Source\PSoC5/cyfitter_cfg.c **** 	static const uint8 CYCODE BS_IOPINS0_4_VAL[] = {
 389:Generated_Source\PSoC5/cyfitter_cfg.c **** 		0x30u, 0x01u, 0x01u, 0x00u, 0x01u, 0x00u, 0x00u, 0x00u};
 390:Generated_Source\PSoC5/cyfitter_cfg.c **** 
 391:Generated_Source\PSoC5/cyfitter_cfg.c **** 	/* IOPINS0_6 Address: CYREG_PRT6_DR Size (bytes): 10 */
 392:Generated_Source\PSoC5/cyfitter_cfg.c **** 	static const uint8 CYCODE BS_IOPINS0_6_VAL[] = {
 393:Generated_Source\PSoC5/cyfitter_cfg.c **** 		0x02u, 0x00u, 0x03u, 0x00u, 0x00u, 0x00u, 0x00u, 0x00u, 0x00u, 0x00u};
 394:Generated_Source\PSoC5/cyfitter_cfg.c **** 
 395:Generated_Source\PSoC5/cyfitter_cfg.c **** 	/* PHUB_CFGMEM1 Address: CYREG_PHUB_CFGMEM1_CFG0 Size (bytes): 4 */
 396:Generated_Source\PSoC5/cyfitter_cfg.c **** 	static const uint8 CYCODE BS_PHUB_CFGMEM1_VAL[] = {
 397:Generated_Source\PSoC5/cyfitter_cfg.c **** 		0x00u, 0x01u, 0x00u, 0x00u};
 398:Generated_Source\PSoC5/cyfitter_cfg.c **** 
 399:Generated_Source\PSoC5/cyfitter_cfg.c **** #ifdef CYGlobalIntDisable
 400:Generated_Source\PSoC5/cyfitter_cfg.c **** 	/* Disable interrupts by default. Let user enable if/when they want. */
 401:Generated_Source\PSoC5/cyfitter_cfg.c **** 	CYGlobalIntDisable
 668              		.loc 1 401 0
 669              		.syntax unified
 670              	@ 401 "Generated_Source\PSoC5\cyfitter_cfg.c" 1
 671 0006 72B6     		CPSID   i
 672              	@ 0 "" 2
 402:Generated_Source\PSoC5/cyfitter_cfg.c **** #endif
 403:Generated_Source\PSoC5/cyfitter_cfg.c **** 
 404:Generated_Source\PSoC5/cyfitter_cfg.c **** 	/* Enable/Disable Debug functionality based on settings from System DWR */
 405:Generated_Source\PSoC5/cyfitter_cfg.c **** 	CY_SET_XTND_REG8((void CYFAR *)CYREG_MLOGIC_DEBUG, (CY_GET_XTND_REG8((void CYFAR *)CYREG_MLOGIC_DE
ARM GAS  C:\Users\Admin\AppData\Local\Temp\ccd3RvSG.s 			page 20


 673              		.loc 1 405 0
 674              		.thumb
 675              		.syntax unified
 676 0008 5B4A     		ldr	r2, .L31
 677 000a 5B4B     		ldr	r3, .L31
 678 000c 1B78     		ldrb	r3, [r3]
 679 000e DBB2     		uxtb	r3, r3
 680 0010 43F00403 		orr	r3, r3, #4
 681 0014 DBB2     		uxtb	r3, r3
 682 0016 1370     		strb	r3, [r2]
 683              	.LBB3:
 406:Generated_Source\PSoC5/cyfitter_cfg.c **** 
 407:Generated_Source\PSoC5/cyfitter_cfg.c **** 	{
 408:Generated_Source\PSoC5/cyfitter_cfg.c **** 		static const uint32 CYCODE cy_cfg_addr_table[] = {
 409:Generated_Source\PSoC5/cyfitter_cfg.c **** 			0x40004501u, /* Base address: 0x40004500 Count: 1 */
 410:Generated_Source\PSoC5/cyfitter_cfg.c **** 			0x40004F01u, /* Base address: 0x40004F00 Count: 1 */
 411:Generated_Source\PSoC5/cyfitter_cfg.c **** 			0x4000520Au, /* Base address: 0x40005200 Count: 10 */
 412:Generated_Source\PSoC5/cyfitter_cfg.c **** 			0x40005B01u, /* Base address: 0x40005B00 Count: 1 */
 413:Generated_Source\PSoC5/cyfitter_cfg.c **** 			0x40006404u, /* Base address: 0x40006400 Count: 4 */
 414:Generated_Source\PSoC5/cyfitter_cfg.c **** 			0x40006503u, /* Base address: 0x40006500 Count: 3 */
 415:Generated_Source\PSoC5/cyfitter_cfg.c **** 			0x40010048u, /* Base address: 0x40010000 Count: 72 */
 416:Generated_Source\PSoC5/cyfitter_cfg.c **** 			0x4001012Fu, /* Base address: 0x40010100 Count: 47 */
 417:Generated_Source\PSoC5/cyfitter_cfg.c **** 			0x40010269u, /* Base address: 0x40010200 Count: 105 */
 418:Generated_Source\PSoC5/cyfitter_cfg.c **** 			0x40010351u, /* Base address: 0x40010300 Count: 81 */
 419:Generated_Source\PSoC5/cyfitter_cfg.c **** 			0x4001042Au, /* Base address: 0x40010400 Count: 42 */
 420:Generated_Source\PSoC5/cyfitter_cfg.c **** 			0x4001054Au, /* Base address: 0x40010500 Count: 74 */
 421:Generated_Source\PSoC5/cyfitter_cfg.c **** 			0x40010644u, /* Base address: 0x40010600 Count: 68 */
 422:Generated_Source\PSoC5/cyfitter_cfg.c **** 			0x40010745u, /* Base address: 0x40010700 Count: 69 */
 423:Generated_Source\PSoC5/cyfitter_cfg.c **** 			0x4001083Du, /* Base address: 0x40010800 Count: 61 */
 424:Generated_Source\PSoC5/cyfitter_cfg.c **** 			0x40010949u, /* Base address: 0x40010900 Count: 73 */
 425:Generated_Source\PSoC5/cyfitter_cfg.c **** 			0x40010A47u, /* Base address: 0x40010A00 Count: 71 */
 426:Generated_Source\PSoC5/cyfitter_cfg.c **** 			0x40010B5Au, /* Base address: 0x40010B00 Count: 90 */
 427:Generated_Source\PSoC5/cyfitter_cfg.c **** 			0x40010C28u, /* Base address: 0x40010C00 Count: 40 */
 428:Generated_Source\PSoC5/cyfitter_cfg.c **** 			0x40010D54u, /* Base address: 0x40010D00 Count: 84 */
 429:Generated_Source\PSoC5/cyfitter_cfg.c **** 			0x40010E41u, /* Base address: 0x40010E00 Count: 65 */
 430:Generated_Source\PSoC5/cyfitter_cfg.c **** 			0x40010F34u, /* Base address: 0x40010F00 Count: 52 */
 431:Generated_Source\PSoC5/cyfitter_cfg.c **** 			0x40011437u, /* Base address: 0x40011400 Count: 55 */
 432:Generated_Source\PSoC5/cyfitter_cfg.c **** 			0x4001154Du, /* Base address: 0x40011500 Count: 77 */
 433:Generated_Source\PSoC5/cyfitter_cfg.c **** 			0x40011642u, /* Base address: 0x40011600 Count: 66 */
 434:Generated_Source\PSoC5/cyfitter_cfg.c **** 			0x4001174Au, /* Base address: 0x40011700 Count: 74 */
 435:Generated_Source\PSoC5/cyfitter_cfg.c **** 			0x40011834u, /* Base address: 0x40011800 Count: 52 */
 436:Generated_Source\PSoC5/cyfitter_cfg.c **** 			0x40011952u, /* Base address: 0x40011900 Count: 82 */
 437:Generated_Source\PSoC5/cyfitter_cfg.c **** 			0x40011A32u, /* Base address: 0x40011A00 Count: 50 */
 438:Generated_Source\PSoC5/cyfitter_cfg.c **** 			0x40011B5Au, /* Base address: 0x40011B00 Count: 90 */
 439:Generated_Source\PSoC5/cyfitter_cfg.c **** 			0x40014014u, /* Base address: 0x40014000 Count: 20 */
 440:Generated_Source\PSoC5/cyfitter_cfg.c **** 			0x40014112u, /* Base address: 0x40014100 Count: 18 */
 441:Generated_Source\PSoC5/cyfitter_cfg.c **** 			0x4001420Eu, /* Base address: 0x40014200 Count: 14 */
 442:Generated_Source\PSoC5/cyfitter_cfg.c **** 			0x40014309u, /* Base address: 0x40014300 Count: 9 */
 443:Generated_Source\PSoC5/cyfitter_cfg.c **** 			0x40014403u, /* Base address: 0x40014400 Count: 3 */
 444:Generated_Source\PSoC5/cyfitter_cfg.c **** 			0x40014508u, /* Base address: 0x40014500 Count: 8 */
 445:Generated_Source\PSoC5/cyfitter_cfg.c **** 			0x40014607u, /* Base address: 0x40014600 Count: 7 */
 446:Generated_Source\PSoC5/cyfitter_cfg.c **** 			0x40014708u, /* Base address: 0x40014700 Count: 8 */
 447:Generated_Source\PSoC5/cyfitter_cfg.c **** 			0x40014815u, /* Base address: 0x40014800 Count: 21 */
 448:Generated_Source\PSoC5/cyfitter_cfg.c **** 			0x4001490Eu, /* Base address: 0x40014900 Count: 14 */
 449:Generated_Source\PSoC5/cyfitter_cfg.c **** 			0x40014C0Cu, /* Base address: 0x40014C00 Count: 12 */
 450:Generated_Source\PSoC5/cyfitter_cfg.c **** 			0x40014D02u, /* Base address: 0x40014D00 Count: 2 */
 451:Generated_Source\PSoC5/cyfitter_cfg.c **** 			0x40015003u, /* Base address: 0x40015000 Count: 3 */
ARM GAS  C:\Users\Admin\AppData\Local\Temp\ccd3RvSG.s 			page 21


 452:Generated_Source\PSoC5/cyfitter_cfg.c **** 			0x40015103u, /* Base address: 0x40015100 Count: 3 */
 453:Generated_Source\PSoC5/cyfitter_cfg.c **** 		};
 454:Generated_Source\PSoC5/cyfitter_cfg.c **** 
 455:Generated_Source\PSoC5/cyfitter_cfg.c **** 		static const cy_cfg_addrvalue_t CYCODE cy_cfg_data_table[] = {
 456:Generated_Source\PSoC5/cyfitter_cfg.c **** 			{0x7Eu, 0x02u},
 457:Generated_Source\PSoC5/cyfitter_cfg.c **** 			{0x0Au, 0x4Bu},
 458:Generated_Source\PSoC5/cyfitter_cfg.c **** 			{0x00u, 0x20u},
 459:Generated_Source\PSoC5/cyfitter_cfg.c **** 			{0x01u, 0x80u},
 460:Generated_Source\PSoC5/cyfitter_cfg.c **** 			{0x08u, 0x50u},
 461:Generated_Source\PSoC5/cyfitter_cfg.c **** 			{0x09u, 0x40u},
 462:Generated_Source\PSoC5/cyfitter_cfg.c **** 			{0x11u, 0x40u},
 463:Generated_Source\PSoC5/cyfitter_cfg.c **** 			{0x20u, 0x01u},
 464:Generated_Source\PSoC5/cyfitter_cfg.c **** 			{0x21u, 0x01u},
 465:Generated_Source\PSoC5/cyfitter_cfg.c **** 			{0x60u, 0x01u},
 466:Generated_Source\PSoC5/cyfitter_cfg.c **** 			{0x79u, 0x01u},
 467:Generated_Source\PSoC5/cyfitter_cfg.c **** 			{0x7Cu, 0x40u},
 468:Generated_Source\PSoC5/cyfitter_cfg.c **** 			{0x27u, 0x84u},
 469:Generated_Source\PSoC5/cyfitter_cfg.c **** 			{0x81u, 0x0Fu},
 470:Generated_Source\PSoC5/cyfitter_cfg.c **** 			{0x83u, 0x0Fu},
 471:Generated_Source\PSoC5/cyfitter_cfg.c **** 			{0x87u, 0x6Fu},
 472:Generated_Source\PSoC5/cyfitter_cfg.c **** 			{0x8Cu, 0x6Fu},
 473:Generated_Source\PSoC5/cyfitter_cfg.c **** 			{0x87u, 0x0Fu},
 474:Generated_Source\PSoC5/cyfitter_cfg.c **** 			{0x88u, 0x02u},
 475:Generated_Source\PSoC5/cyfitter_cfg.c **** 			{0x8Bu, 0x0Fu},
 476:Generated_Source\PSoC5/cyfitter_cfg.c **** 			{0x00u, 0x06u},
 477:Generated_Source\PSoC5/cyfitter_cfg.c **** 			{0x03u, 0x07u},
 478:Generated_Source\PSoC5/cyfitter_cfg.c **** 			{0x05u, 0x21u},
 479:Generated_Source\PSoC5/cyfitter_cfg.c **** 			{0x07u, 0x12u},
 480:Generated_Source\PSoC5/cyfitter_cfg.c **** 			{0x09u, 0x10u},
 481:Generated_Source\PSoC5/cyfitter_cfg.c **** 			{0x0Bu, 0x20u},
 482:Generated_Source\PSoC5/cyfitter_cfg.c **** 			{0x0Du, 0x07u},
 483:Generated_Source\PSoC5/cyfitter_cfg.c **** 			{0x14u, 0x08u},
 484:Generated_Source\PSoC5/cyfitter_cfg.c **** 			{0x17u, 0x04u},
 485:Generated_Source\PSoC5/cyfitter_cfg.c **** 			{0x19u, 0x10u},
 486:Generated_Source\PSoC5/cyfitter_cfg.c **** 			{0x1Bu, 0x20u},
 487:Generated_Source\PSoC5/cyfitter_cfg.c **** 			{0x1Cu, 0x03u},
 488:Generated_Source\PSoC5/cyfitter_cfg.c **** 			{0x1Du, 0x01u},
 489:Generated_Source\PSoC5/cyfitter_cfg.c **** 			{0x1Fu, 0x02u},
 490:Generated_Source\PSoC5/cyfitter_cfg.c **** 			{0x21u, 0x10u},
 491:Generated_Source\PSoC5/cyfitter_cfg.c **** 			{0x22u, 0x18u},
 492:Generated_Source\PSoC5/cyfitter_cfg.c **** 			{0x23u, 0x20u},
 493:Generated_Source\PSoC5/cyfitter_cfg.c **** 			{0x24u, 0x06u},
 494:Generated_Source\PSoC5/cyfitter_cfg.c **** 			{0x25u, 0x04u},
 495:Generated_Source\PSoC5/cyfitter_cfg.c **** 			{0x28u, 0x05u},
 496:Generated_Source\PSoC5/cyfitter_cfg.c **** 			{0x2Bu, 0x08u},
 497:Generated_Source\PSoC5/cyfitter_cfg.c **** 			{0x2Du, 0x07u},
 498:Generated_Source\PSoC5/cyfitter_cfg.c **** 			{0x2Eu, 0x20u},
 499:Generated_Source\PSoC5/cyfitter_cfg.c **** 			{0x30u, 0x20u},
 500:Generated_Source\PSoC5/cyfitter_cfg.c **** 			{0x31u, 0x0Fu},
 501:Generated_Source\PSoC5/cyfitter_cfg.c **** 			{0x32u, 0x10u},
 502:Generated_Source\PSoC5/cyfitter_cfg.c **** 			{0x33u, 0x30u},
 503:Generated_Source\PSoC5/cyfitter_cfg.c **** 			{0x34u, 0x08u},
 504:Generated_Source\PSoC5/cyfitter_cfg.c **** 			{0x36u, 0x07u},
 505:Generated_Source\PSoC5/cyfitter_cfg.c **** 			{0x38u, 0x80u},
 506:Generated_Source\PSoC5/cyfitter_cfg.c **** 			{0x3Bu, 0x08u},
 507:Generated_Source\PSoC5/cyfitter_cfg.c **** 			{0x3Eu, 0x10u},
 508:Generated_Source\PSoC5/cyfitter_cfg.c **** 			{0x58u, 0x04u},
ARM GAS  C:\Users\Admin\AppData\Local\Temp\ccd3RvSG.s 			page 22


 509:Generated_Source\PSoC5/cyfitter_cfg.c **** 			{0x59u, 0x04u},
 510:Generated_Source\PSoC5/cyfitter_cfg.c **** 			{0x5Cu, 0x11u},
 511:Generated_Source\PSoC5/cyfitter_cfg.c **** 			{0x5Fu, 0x01u},
 512:Generated_Source\PSoC5/cyfitter_cfg.c **** 			{0x80u, 0x06u},
 513:Generated_Source\PSoC5/cyfitter_cfg.c **** 			{0x87u, 0x08u},
 514:Generated_Source\PSoC5/cyfitter_cfg.c **** 			{0x88u, 0x09u},
 515:Generated_Source\PSoC5/cyfitter_cfg.c **** 			{0x89u, 0x77u},
 516:Generated_Source\PSoC5/cyfitter_cfg.c **** 			{0x8Cu, 0x06u},
 517:Generated_Source\PSoC5/cyfitter_cfg.c **** 			{0x8Fu, 0x07u},
 518:Generated_Source\PSoC5/cyfitter_cfg.c **** 			{0x92u, 0x09u},
 519:Generated_Source\PSoC5/cyfitter_cfg.c **** 			{0x95u, 0x84u},
 520:Generated_Source\PSoC5/cyfitter_cfg.c **** 			{0x97u, 0x10u},
 521:Generated_Source\PSoC5/cyfitter_cfg.c **** 			{0x99u, 0xC0u},
 522:Generated_Source\PSoC5/cyfitter_cfg.c **** 			{0x9Bu, 0x24u},
 523:Generated_Source\PSoC5/cyfitter_cfg.c **** 			{0x9Cu, 0x02u},
 524:Generated_Source\PSoC5/cyfitter_cfg.c **** 			{0x9Du, 0xC1u},
 525:Generated_Source\PSoC5/cyfitter_cfg.c **** 			{0x9Fu, 0x12u},
 526:Generated_Source\PSoC5/cyfitter_cfg.c **** 			{0xA0u, 0x08u},
 527:Generated_Source\PSoC5/cyfitter_cfg.c **** 			{0xA2u, 0x01u},
 528:Generated_Source\PSoC5/cyfitter_cfg.c **** 			{0xA5u, 0x01u},
 529:Generated_Source\PSoC5/cyfitter_cfg.c **** 			{0xA7u, 0xF2u},
 530:Generated_Source\PSoC5/cyfitter_cfg.c **** 			{0xADu, 0xB7u},
 531:Generated_Source\PSoC5/cyfitter_cfg.c **** 			{0xAFu, 0x40u},
 532:Generated_Source\PSoC5/cyfitter_cfg.c **** 			{0xB0u, 0x04u},
 533:Generated_Source\PSoC5/cyfitter_cfg.c **** 			{0xB2u, 0x08u},
 534:Generated_Source\PSoC5/cyfitter_cfg.c **** 			{0xB3u, 0xF0u},
 535:Generated_Source\PSoC5/cyfitter_cfg.c **** 			{0xB4u, 0x01u},
 536:Generated_Source\PSoC5/cyfitter_cfg.c **** 			{0xB6u, 0x02u},
 537:Generated_Source\PSoC5/cyfitter_cfg.c **** 			{0xB7u, 0x0Fu},
 538:Generated_Source\PSoC5/cyfitter_cfg.c **** 			{0xB8u, 0x82u},
 539:Generated_Source\PSoC5/cyfitter_cfg.c **** 			{0xBEu, 0x54u},
 540:Generated_Source\PSoC5/cyfitter_cfg.c **** 			{0xD4u, 0x0Fu},
 541:Generated_Source\PSoC5/cyfitter_cfg.c **** 			{0xD6u, 0x04u},
 542:Generated_Source\PSoC5/cyfitter_cfg.c **** 			{0xD8u, 0x04u},
 543:Generated_Source\PSoC5/cyfitter_cfg.c **** 			{0xD9u, 0x04u},
 544:Generated_Source\PSoC5/cyfitter_cfg.c **** 			{0xDBu, 0x04u},
 545:Generated_Source\PSoC5/cyfitter_cfg.c **** 			{0xDCu, 0x11u},
 546:Generated_Source\PSoC5/cyfitter_cfg.c **** 			{0xDDu, 0x10u},
 547:Generated_Source\PSoC5/cyfitter_cfg.c **** 			{0xDFu, 0x01u},
 548:Generated_Source\PSoC5/cyfitter_cfg.c **** 			{0x03u, 0x40u},
 549:Generated_Source\PSoC5/cyfitter_cfg.c **** 			{0x04u, 0x92u},
 550:Generated_Source\PSoC5/cyfitter_cfg.c **** 			{0x0Au, 0x11u},
 551:Generated_Source\PSoC5/cyfitter_cfg.c **** 			{0x0Eu, 0x81u},
 552:Generated_Source\PSoC5/cyfitter_cfg.c **** 			{0x10u, 0x90u},
 553:Generated_Source\PSoC5/cyfitter_cfg.c **** 			{0x11u, 0x20u},
 554:Generated_Source\PSoC5/cyfitter_cfg.c **** 			{0x13u, 0x80u},
 555:Generated_Source\PSoC5/cyfitter_cfg.c **** 			{0x15u, 0x02u},
 556:Generated_Source\PSoC5/cyfitter_cfg.c **** 			{0x19u, 0x42u},
 557:Generated_Source\PSoC5/cyfitter_cfg.c **** 			{0x1Au, 0x19u},
 558:Generated_Source\PSoC5/cyfitter_cfg.c **** 			{0x1Du, 0xA0u},
 559:Generated_Source\PSoC5/cyfitter_cfg.c **** 			{0x1Eu, 0xA0u},
 560:Generated_Source\PSoC5/cyfitter_cfg.c **** 			{0x21u, 0x05u},
 561:Generated_Source\PSoC5/cyfitter_cfg.c **** 			{0x22u, 0x01u},
 562:Generated_Source\PSoC5/cyfitter_cfg.c **** 			{0x25u, 0x40u},
 563:Generated_Source\PSoC5/cyfitter_cfg.c **** 			{0x27u, 0x11u},
 564:Generated_Source\PSoC5/cyfitter_cfg.c **** 			{0x29u, 0x52u},
 565:Generated_Source\PSoC5/cyfitter_cfg.c **** 			{0x2Au, 0x08u},
ARM GAS  C:\Users\Admin\AppData\Local\Temp\ccd3RvSG.s 			page 23


 566:Generated_Source\PSoC5/cyfitter_cfg.c **** 			{0x2Fu, 0x22u},
 567:Generated_Source\PSoC5/cyfitter_cfg.c **** 			{0x30u, 0x20u},
 568:Generated_Source\PSoC5/cyfitter_cfg.c **** 			{0x33u, 0x48u},
 569:Generated_Source\PSoC5/cyfitter_cfg.c **** 			{0x36u, 0x88u},
 570:Generated_Source\PSoC5/cyfitter_cfg.c **** 			{0x37u, 0x10u},
 571:Generated_Source\PSoC5/cyfitter_cfg.c **** 			{0x38u, 0x20u},
 572:Generated_Source\PSoC5/cyfitter_cfg.c **** 			{0x39u, 0x0Au},
 573:Generated_Source\PSoC5/cyfitter_cfg.c **** 			{0x3Au, 0x80u},
 574:Generated_Source\PSoC5/cyfitter_cfg.c **** 			{0x3Du, 0x88u},
 575:Generated_Source\PSoC5/cyfitter_cfg.c **** 			{0x3Fu, 0x10u},
 576:Generated_Source\PSoC5/cyfitter_cfg.c **** 			{0x5Eu, 0x60u},
 577:Generated_Source\PSoC5/cyfitter_cfg.c **** 			{0x5Fu, 0x09u},
 578:Generated_Source\PSoC5/cyfitter_cfg.c **** 			{0x67u, 0x40u},
 579:Generated_Source\PSoC5/cyfitter_cfg.c **** 			{0x80u, 0x20u},
 580:Generated_Source\PSoC5/cyfitter_cfg.c **** 			{0x81u, 0x20u},
 581:Generated_Source\PSoC5/cyfitter_cfg.c **** 			{0x82u, 0x40u},
 582:Generated_Source\PSoC5/cyfitter_cfg.c **** 			{0x83u, 0x80u},
 583:Generated_Source\PSoC5/cyfitter_cfg.c **** 			{0x87u, 0x40u},
 584:Generated_Source\PSoC5/cyfitter_cfg.c **** 			{0x89u, 0x04u},
 585:Generated_Source\PSoC5/cyfitter_cfg.c **** 			{0xC0u, 0xD8u},
 586:Generated_Source\PSoC5/cyfitter_cfg.c **** 			{0xC2u, 0x95u},
 587:Generated_Source\PSoC5/cyfitter_cfg.c **** 			{0xC4u, 0x1Fu},
 588:Generated_Source\PSoC5/cyfitter_cfg.c **** 			{0xCAu, 0x5Fu},
 589:Generated_Source\PSoC5/cyfitter_cfg.c **** 			{0xCCu, 0x7Eu},
 590:Generated_Source\PSoC5/cyfitter_cfg.c **** 			{0xCEu, 0x7Fu},
 591:Generated_Source\PSoC5/cyfitter_cfg.c **** 			{0xD6u, 0xF0u},
 592:Generated_Source\PSoC5/cyfitter_cfg.c **** 			{0xD8u, 0x80u},
 593:Generated_Source\PSoC5/cyfitter_cfg.c **** 			{0xE2u, 0x41u},
 594:Generated_Source\PSoC5/cyfitter_cfg.c **** 			{0xE4u, 0x01u},
 595:Generated_Source\PSoC5/cyfitter_cfg.c **** 			{0x00u, 0x9Eu},
 596:Generated_Source\PSoC5/cyfitter_cfg.c **** 			{0x02u, 0x60u},
 597:Generated_Source\PSoC5/cyfitter_cfg.c **** 			{0x09u, 0x73u},
 598:Generated_Source\PSoC5/cyfitter_cfg.c **** 			{0x0Fu, 0x0Fu},
 599:Generated_Source\PSoC5/cyfitter_cfg.c **** 			{0x12u, 0x0Fu},
 600:Generated_Source\PSoC5/cyfitter_cfg.c **** 			{0x15u, 0x30u},
 601:Generated_Source\PSoC5/cyfitter_cfg.c **** 			{0x17u, 0xC9u},
 602:Generated_Source\PSoC5/cyfitter_cfg.c **** 			{0x18u, 0xCFu},
 603:Generated_Source\PSoC5/cyfitter_cfg.c **** 			{0x19u, 0xCFu},
 604:Generated_Source\PSoC5/cyfitter_cfg.c **** 			{0x1Au, 0x30u},
 605:Generated_Source\PSoC5/cyfitter_cfg.c **** 			{0x1Bu, 0x30u},
 606:Generated_Source\PSoC5/cyfitter_cfg.c **** 			{0x1Cu, 0x73u},
 607:Generated_Source\PSoC5/cyfitter_cfg.c **** 			{0x1Du, 0x9Eu},
 608:Generated_Source\PSoC5/cyfitter_cfg.c **** 			{0x1Fu, 0x60u},
 609:Generated_Source\PSoC5/cyfitter_cfg.c **** 			{0x20u, 0x30u},
 610:Generated_Source\PSoC5/cyfitter_cfg.c **** 			{0x22u, 0xC9u},
 611:Generated_Source\PSoC5/cyfitter_cfg.c **** 			{0x24u, 0x94u},
 612:Generated_Source\PSoC5/cyfitter_cfg.c **** 			{0x25u, 0x94u},
 613:Generated_Source\PSoC5/cyfitter_cfg.c **** 			{0x26u, 0x60u},
 614:Generated_Source\PSoC5/cyfitter_cfg.c **** 			{0x27u, 0x60u},
 615:Generated_Source\PSoC5/cyfitter_cfg.c **** 			{0x28u, 0xFDu},
 616:Generated_Source\PSoC5/cyfitter_cfg.c **** 			{0x2Au, 0x02u},
 617:Generated_Source\PSoC5/cyfitter_cfg.c **** 			{0x2Du, 0xFDu},
 618:Generated_Source\PSoC5/cyfitter_cfg.c **** 			{0x2Fu, 0x02u},
 619:Generated_Source\PSoC5/cyfitter_cfg.c **** 			{0x33u, 0xFFu},
 620:Generated_Source\PSoC5/cyfitter_cfg.c **** 			{0x34u, 0xFFu},
 621:Generated_Source\PSoC5/cyfitter_cfg.c **** 			{0x3Eu, 0x10u},
 622:Generated_Source\PSoC5/cyfitter_cfg.c **** 			{0x3Fu, 0x04u},
ARM GAS  C:\Users\Admin\AppData\Local\Temp\ccd3RvSG.s 			page 24


 623:Generated_Source\PSoC5/cyfitter_cfg.c **** 			{0x40u, 0x21u},
 624:Generated_Source\PSoC5/cyfitter_cfg.c **** 			{0x41u, 0x05u},
 625:Generated_Source\PSoC5/cyfitter_cfg.c **** 			{0x49u, 0xFFu},
 626:Generated_Source\PSoC5/cyfitter_cfg.c **** 			{0x4Au, 0xFFu},
 627:Generated_Source\PSoC5/cyfitter_cfg.c **** 			{0x4Bu, 0xFFu},
 628:Generated_Source\PSoC5/cyfitter_cfg.c **** 			{0x4Du, 0xA0u},
 629:Generated_Source\PSoC5/cyfitter_cfg.c **** 			{0x4Fu, 0x01u},
 630:Generated_Source\PSoC5/cyfitter_cfg.c **** 			{0x50u, 0x18u},
 631:Generated_Source\PSoC5/cyfitter_cfg.c **** 			{0x58u, 0x04u},
 632:Generated_Source\PSoC5/cyfitter_cfg.c **** 			{0x59u, 0x04u},
 633:Generated_Source\PSoC5/cyfitter_cfg.c **** 			{0x5Au, 0x04u},
 634:Generated_Source\PSoC5/cyfitter_cfg.c **** 			{0x5Du, 0x01u},
 635:Generated_Source\PSoC5/cyfitter_cfg.c **** 			{0x5Fu, 0x01u},
 636:Generated_Source\PSoC5/cyfitter_cfg.c **** 			{0x60u, 0x40u},
 637:Generated_Source\PSoC5/cyfitter_cfg.c **** 			{0x62u, 0x80u},
 638:Generated_Source\PSoC5/cyfitter_cfg.c **** 			{0x64u, 0x40u},
 639:Generated_Source\PSoC5/cyfitter_cfg.c **** 			{0x65u, 0x40u},
 640:Generated_Source\PSoC5/cyfitter_cfg.c **** 			{0x66u, 0x80u},
 641:Generated_Source\PSoC5/cyfitter_cfg.c **** 			{0x68u, 0x40u},
 642:Generated_Source\PSoC5/cyfitter_cfg.c **** 			{0x6Au, 0x80u},
 643:Generated_Source\PSoC5/cyfitter_cfg.c **** 			{0x6Cu, 0x40u},
 644:Generated_Source\PSoC5/cyfitter_cfg.c **** 			{0x6Du, 0x20u},
 645:Generated_Source\PSoC5/cyfitter_cfg.c **** 			{0x6Eu, 0x80u},
 646:Generated_Source\PSoC5/cyfitter_cfg.c **** 			{0x83u, 0x03u},
 647:Generated_Source\PSoC5/cyfitter_cfg.c **** 			{0x84u, 0x03u},
 648:Generated_Source\PSoC5/cyfitter_cfg.c **** 			{0x85u, 0x0Cu},
 649:Generated_Source\PSoC5/cyfitter_cfg.c **** 			{0x88u, 0x08u},
 650:Generated_Source\PSoC5/cyfitter_cfg.c **** 			{0x89u, 0x02u},
 651:Generated_Source\PSoC5/cyfitter_cfg.c **** 			{0x91u, 0x08u},
 652:Generated_Source\PSoC5/cyfitter_cfg.c **** 			{0x93u, 0x04u},
 653:Generated_Source\PSoC5/cyfitter_cfg.c **** 			{0xA3u, 0x0Cu},
 654:Generated_Source\PSoC5/cyfitter_cfg.c **** 			{0xA4u, 0x03u},
 655:Generated_Source\PSoC5/cyfitter_cfg.c **** 			{0xA6u, 0x0Cu},
 656:Generated_Source\PSoC5/cyfitter_cfg.c **** 			{0xA8u, 0x01u},
 657:Generated_Source\PSoC5/cyfitter_cfg.c **** 			{0xB0u, 0x02u},
 658:Generated_Source\PSoC5/cyfitter_cfg.c **** 			{0xB1u, 0x02u},
 659:Generated_Source\PSoC5/cyfitter_cfg.c **** 			{0xB2u, 0x04u},
 660:Generated_Source\PSoC5/cyfitter_cfg.c **** 			{0xB3u, 0x01u},
 661:Generated_Source\PSoC5/cyfitter_cfg.c **** 			{0xB4u, 0x01u},
 662:Generated_Source\PSoC5/cyfitter_cfg.c **** 			{0xB5u, 0x08u},
 663:Generated_Source\PSoC5/cyfitter_cfg.c **** 			{0xB6u, 0x08u},
 664:Generated_Source\PSoC5/cyfitter_cfg.c **** 			{0xB7u, 0x04u},
 665:Generated_Source\PSoC5/cyfitter_cfg.c **** 			{0xB8u, 0x22u},
 666:Generated_Source\PSoC5/cyfitter_cfg.c **** 			{0xBEu, 0x50u},
 667:Generated_Source\PSoC5/cyfitter_cfg.c **** 			{0xBFu, 0x51u},
 668:Generated_Source\PSoC5/cyfitter_cfg.c **** 			{0xC0u, 0x61u},
 669:Generated_Source\PSoC5/cyfitter_cfg.c **** 			{0xC1u, 0x04u},
 670:Generated_Source\PSoC5/cyfitter_cfg.c **** 			{0xC5u, 0x4Eu},
 671:Generated_Source\PSoC5/cyfitter_cfg.c **** 			{0xC6u, 0xC3u},
 672:Generated_Source\PSoC5/cyfitter_cfg.c **** 			{0xC7u, 0x20u},
 673:Generated_Source\PSoC5/cyfitter_cfg.c **** 			{0xC8u, 0x2Fu},
 674:Generated_Source\PSoC5/cyfitter_cfg.c **** 			{0xC9u, 0xFFu},
 675:Generated_Source\PSoC5/cyfitter_cfg.c **** 			{0xCAu, 0xFFu},
 676:Generated_Source\PSoC5/cyfitter_cfg.c **** 			{0xCBu, 0xFFu},
 677:Generated_Source\PSoC5/cyfitter_cfg.c **** 			{0xCDu, 0xAFu},
 678:Generated_Source\PSoC5/cyfitter_cfg.c **** 			{0xCEu, 0x07u},
 679:Generated_Source\PSoC5/cyfitter_cfg.c **** 			{0xCFu, 0x01u},
ARM GAS  C:\Users\Admin\AppData\Local\Temp\ccd3RvSG.s 			page 25


 680:Generated_Source\PSoC5/cyfitter_cfg.c **** 			{0xD0u, 0x18u},
 681:Generated_Source\PSoC5/cyfitter_cfg.c **** 			{0xD4u, 0x0Fu},
 682:Generated_Source\PSoC5/cyfitter_cfg.c **** 			{0xD6u, 0x04u},
 683:Generated_Source\PSoC5/cyfitter_cfg.c **** 			{0xD8u, 0x04u},
 684:Generated_Source\PSoC5/cyfitter_cfg.c **** 			{0xD9u, 0x04u},
 685:Generated_Source\PSoC5/cyfitter_cfg.c **** 			{0xDAu, 0x04u},
 686:Generated_Source\PSoC5/cyfitter_cfg.c **** 			{0xDBu, 0x04u},
 687:Generated_Source\PSoC5/cyfitter_cfg.c **** 			{0xDCu, 0x11u},
 688:Generated_Source\PSoC5/cyfitter_cfg.c **** 			{0xDDu, 0x11u},
 689:Generated_Source\PSoC5/cyfitter_cfg.c **** 			{0xDFu, 0x01u},
 690:Generated_Source\PSoC5/cyfitter_cfg.c **** 			{0xE0u, 0x40u},
 691:Generated_Source\PSoC5/cyfitter_cfg.c **** 			{0xE2u, 0x80u},
 692:Generated_Source\PSoC5/cyfitter_cfg.c **** 			{0xE4u, 0x40u},
 693:Generated_Source\PSoC5/cyfitter_cfg.c **** 			{0xE5u, 0x40u},
 694:Generated_Source\PSoC5/cyfitter_cfg.c **** 			{0xE6u, 0x80u},
 695:Generated_Source\PSoC5/cyfitter_cfg.c **** 			{0xE8u, 0x40u},
 696:Generated_Source\PSoC5/cyfitter_cfg.c **** 			{0xEAu, 0x80u},
 697:Generated_Source\PSoC5/cyfitter_cfg.c **** 			{0xECu, 0x40u},
 698:Generated_Source\PSoC5/cyfitter_cfg.c **** 			{0xEDu, 0x20u},
 699:Generated_Source\PSoC5/cyfitter_cfg.c **** 			{0xEEu, 0x80u},
 700:Generated_Source\PSoC5/cyfitter_cfg.c **** 			{0x00u, 0x08u},
 701:Generated_Source\PSoC5/cyfitter_cfg.c **** 			{0x03u, 0x08u},
 702:Generated_Source\PSoC5/cyfitter_cfg.c **** 			{0x07u, 0x40u},
 703:Generated_Source\PSoC5/cyfitter_cfg.c **** 			{0x0Cu, 0x10u},
 704:Generated_Source\PSoC5/cyfitter_cfg.c **** 			{0x0Du, 0x01u},
 705:Generated_Source\PSoC5/cyfitter_cfg.c **** 			{0x0Eu, 0x01u},
 706:Generated_Source\PSoC5/cyfitter_cfg.c **** 			{0x10u, 0x24u},
 707:Generated_Source\PSoC5/cyfitter_cfg.c **** 			{0x13u, 0x10u},
 708:Generated_Source\PSoC5/cyfitter_cfg.c **** 			{0x14u, 0x80u},
 709:Generated_Source\PSoC5/cyfitter_cfg.c **** 			{0x15u, 0x08u},
 710:Generated_Source\PSoC5/cyfitter_cfg.c **** 			{0x16u, 0x04u},
 711:Generated_Source\PSoC5/cyfitter_cfg.c **** 			{0x19u, 0x61u},
 712:Generated_Source\PSoC5/cyfitter_cfg.c **** 			{0x1Au, 0x04u},
 713:Generated_Source\PSoC5/cyfitter_cfg.c **** 			{0x1Bu, 0x08u},
 714:Generated_Source\PSoC5/cyfitter_cfg.c **** 			{0x1Du, 0x10u},
 715:Generated_Source\PSoC5/cyfitter_cfg.c **** 			{0x20u, 0x10u},
 716:Generated_Source\PSoC5/cyfitter_cfg.c **** 			{0x22u, 0x50u},
 717:Generated_Source\PSoC5/cyfitter_cfg.c **** 			{0x23u, 0x80u},
 718:Generated_Source\PSoC5/cyfitter_cfg.c **** 			{0x25u, 0x04u},
 719:Generated_Source\PSoC5/cyfitter_cfg.c **** 			{0x29u, 0x01u},
 720:Generated_Source\PSoC5/cyfitter_cfg.c **** 			{0x2Cu, 0x01u},
 721:Generated_Source\PSoC5/cyfitter_cfg.c **** 			{0x2Fu, 0x22u},
 722:Generated_Source\PSoC5/cyfitter_cfg.c **** 			{0x33u, 0x01u},
 723:Generated_Source\PSoC5/cyfitter_cfg.c **** 			{0x36u, 0x88u},
 724:Generated_Source\PSoC5/cyfitter_cfg.c **** 			{0x37u, 0x10u},
 725:Generated_Source\PSoC5/cyfitter_cfg.c **** 			{0x38u, 0x14u},
 726:Generated_Source\PSoC5/cyfitter_cfg.c **** 			{0x3Bu, 0x01u},
 727:Generated_Source\PSoC5/cyfitter_cfg.c **** 			{0x3Du, 0x80u},
 728:Generated_Source\PSoC5/cyfitter_cfg.c **** 			{0x3Fu, 0x10u},
 729:Generated_Source\PSoC5/cyfitter_cfg.c **** 			{0x41u, 0x81u},
 730:Generated_Source\PSoC5/cyfitter_cfg.c **** 			{0x45u, 0x80u},
 731:Generated_Source\PSoC5/cyfitter_cfg.c **** 			{0x47u, 0x20u},
 732:Generated_Source\PSoC5/cyfitter_cfg.c **** 			{0x48u, 0x10u},
 733:Generated_Source\PSoC5/cyfitter_cfg.c **** 			{0x4Au, 0x04u},
 734:Generated_Source\PSoC5/cyfitter_cfg.c **** 			{0x4Bu, 0x01u},
 735:Generated_Source\PSoC5/cyfitter_cfg.c **** 			{0x4Eu, 0x01u},
 736:Generated_Source\PSoC5/cyfitter_cfg.c **** 			{0x50u, 0xC1u},
ARM GAS  C:\Users\Admin\AppData\Local\Temp\ccd3RvSG.s 			page 26


 737:Generated_Source\PSoC5/cyfitter_cfg.c **** 			{0x51u, 0x20u},
 738:Generated_Source\PSoC5/cyfitter_cfg.c **** 			{0x58u, 0x05u},
 739:Generated_Source\PSoC5/cyfitter_cfg.c **** 			{0x5Au, 0xA0u},
 740:Generated_Source\PSoC5/cyfitter_cfg.c **** 			{0x63u, 0x80u},
 741:Generated_Source\PSoC5/cyfitter_cfg.c **** 			{0x88u, 0x08u},
 742:Generated_Source\PSoC5/cyfitter_cfg.c **** 			{0x89u, 0x01u},
 743:Generated_Source\PSoC5/cyfitter_cfg.c **** 			{0x8Du, 0x02u},
 744:Generated_Source\PSoC5/cyfitter_cfg.c **** 			{0x91u, 0x0Au},
 745:Generated_Source\PSoC5/cyfitter_cfg.c **** 			{0x92u, 0x0Bu},
 746:Generated_Source\PSoC5/cyfitter_cfg.c **** 			{0x94u, 0x92u},
 747:Generated_Source\PSoC5/cyfitter_cfg.c **** 			{0x97u, 0x10u},
 748:Generated_Source\PSoC5/cyfitter_cfg.c **** 			{0x98u, 0x90u},
 749:Generated_Source\PSoC5/cyfitter_cfg.c **** 			{0x9Au, 0x0Cu},
 750:Generated_Source\PSoC5/cyfitter_cfg.c **** 			{0x9Bu, 0x11u},
 751:Generated_Source\PSoC5/cyfitter_cfg.c **** 			{0x9Du, 0x10u},
 752:Generated_Source\PSoC5/cyfitter_cfg.c **** 			{0x9Fu, 0x40u},
 753:Generated_Source\PSoC5/cyfitter_cfg.c **** 			{0xA1u, 0xD0u},
 754:Generated_Source\PSoC5/cyfitter_cfg.c **** 			{0xA4u, 0x80u},
 755:Generated_Source\PSoC5/cyfitter_cfg.c **** 			{0xA5u, 0x04u},
 756:Generated_Source\PSoC5/cyfitter_cfg.c **** 			{0xA6u, 0x88u},
 757:Generated_Source\PSoC5/cyfitter_cfg.c **** 			{0xA7u, 0x22u},
 758:Generated_Source\PSoC5/cyfitter_cfg.c **** 			{0xA8u, 0x90u},
 759:Generated_Source\PSoC5/cyfitter_cfg.c **** 			{0xA9u, 0x10u},
 760:Generated_Source\PSoC5/cyfitter_cfg.c **** 			{0xAAu, 0x8Cu},
 761:Generated_Source\PSoC5/cyfitter_cfg.c **** 			{0xABu, 0x01u},
 762:Generated_Source\PSoC5/cyfitter_cfg.c **** 			{0xAEu, 0x01u},
 763:Generated_Source\PSoC5/cyfitter_cfg.c **** 			{0xAFu, 0x08u},
 764:Generated_Source\PSoC5/cyfitter_cfg.c **** 			{0xB0u, 0x10u},
 765:Generated_Source\PSoC5/cyfitter_cfg.c **** 			{0xB3u, 0x08u},
 766:Generated_Source\PSoC5/cyfitter_cfg.c **** 			{0xC0u, 0x16u},
 767:Generated_Source\PSoC5/cyfitter_cfg.c **** 			{0xC2u, 0xD0u},
 768:Generated_Source\PSoC5/cyfitter_cfg.c **** 			{0xC4u, 0x76u},
 769:Generated_Source\PSoC5/cyfitter_cfg.c **** 			{0xCAu, 0x51u},
 770:Generated_Source\PSoC5/cyfitter_cfg.c **** 			{0xCCu, 0x71u},
 771:Generated_Source\PSoC5/cyfitter_cfg.c **** 			{0xCEu, 0x37u},
 772:Generated_Source\PSoC5/cyfitter_cfg.c **** 			{0xD0u, 0x39u},
 773:Generated_Source\PSoC5/cyfitter_cfg.c **** 			{0xD2u, 0x14u},
 774:Generated_Source\PSoC5/cyfitter_cfg.c **** 			{0xD6u, 0x0Fu},
 775:Generated_Source\PSoC5/cyfitter_cfg.c **** 			{0xD8u, 0x01u},
 776:Generated_Source\PSoC5/cyfitter_cfg.c **** 			{0xE6u, 0x01u},
 777:Generated_Source\PSoC5/cyfitter_cfg.c **** 			{0xE8u, 0x18u},
 778:Generated_Source\PSoC5/cyfitter_cfg.c **** 			{0xEAu, 0x05u},
 779:Generated_Source\PSoC5/cyfitter_cfg.c **** 			{0xECu, 0x80u},
 780:Generated_Source\PSoC5/cyfitter_cfg.c **** 			{0xEEu, 0x01u},
 781:Generated_Source\PSoC5/cyfitter_cfg.c **** 			{0x04u, 0x04u},
 782:Generated_Source\PSoC5/cyfitter_cfg.c **** 			{0x05u, 0x06u},
 783:Generated_Source\PSoC5/cyfitter_cfg.c **** 			{0x09u, 0x03u},
 784:Generated_Source\PSoC5/cyfitter_cfg.c **** 			{0x12u, 0x02u},
 785:Generated_Source\PSoC5/cyfitter_cfg.c **** 			{0x1Bu, 0x08u},
 786:Generated_Source\PSoC5/cyfitter_cfg.c **** 			{0x1Du, 0x06u},
 787:Generated_Source\PSoC5/cyfitter_cfg.c **** 			{0x26u, 0x04u},
 788:Generated_Source\PSoC5/cyfitter_cfg.c **** 			{0x28u, 0x01u},
 789:Generated_Source\PSoC5/cyfitter_cfg.c **** 			{0x2Bu, 0x10u},
 790:Generated_Source\PSoC5/cyfitter_cfg.c **** 			{0x2Du, 0x05u},
 791:Generated_Source\PSoC5/cyfitter_cfg.c **** 			{0x30u, 0x04u},
 792:Generated_Source\PSoC5/cyfitter_cfg.c **** 			{0x31u, 0x08u},
 793:Generated_Source\PSoC5/cyfitter_cfg.c **** 			{0x32u, 0x01u},
ARM GAS  C:\Users\Admin\AppData\Local\Temp\ccd3RvSG.s 			page 27


 794:Generated_Source\PSoC5/cyfitter_cfg.c **** 			{0x33u, 0x07u},
 795:Generated_Source\PSoC5/cyfitter_cfg.c **** 			{0x34u, 0x02u},
 796:Generated_Source\PSoC5/cyfitter_cfg.c **** 			{0x35u, 0x10u},
 797:Generated_Source\PSoC5/cyfitter_cfg.c **** 			{0x39u, 0x08u},
 798:Generated_Source\PSoC5/cyfitter_cfg.c **** 			{0x3Eu, 0x05u},
 799:Generated_Source\PSoC5/cyfitter_cfg.c **** 			{0x40u, 0x32u},
 800:Generated_Source\PSoC5/cyfitter_cfg.c **** 			{0x41u, 0x04u},
 801:Generated_Source\PSoC5/cyfitter_cfg.c **** 			{0x49u, 0xFFu},
 802:Generated_Source\PSoC5/cyfitter_cfg.c **** 			{0x4Au, 0xFFu},
 803:Generated_Source\PSoC5/cyfitter_cfg.c **** 			{0x4Bu, 0xFFu},
 804:Generated_Source\PSoC5/cyfitter_cfg.c **** 			{0x4Du, 0xA0u},
 805:Generated_Source\PSoC5/cyfitter_cfg.c **** 			{0x4Fu, 0x01u},
 806:Generated_Source\PSoC5/cyfitter_cfg.c **** 			{0x50u, 0x18u},
 807:Generated_Source\PSoC5/cyfitter_cfg.c **** 			{0x58u, 0x04u},
 808:Generated_Source\PSoC5/cyfitter_cfg.c **** 			{0x59u, 0x04u},
 809:Generated_Source\PSoC5/cyfitter_cfg.c **** 			{0x5Au, 0x04u},
 810:Generated_Source\PSoC5/cyfitter_cfg.c **** 			{0x5Cu, 0x11u},
 811:Generated_Source\PSoC5/cyfitter_cfg.c **** 			{0x5Du, 0x01u},
 812:Generated_Source\PSoC5/cyfitter_cfg.c **** 			{0x5Fu, 0x01u},
 813:Generated_Source\PSoC5/cyfitter_cfg.c **** 			{0x60u, 0x40u},
 814:Generated_Source\PSoC5/cyfitter_cfg.c **** 			{0x62u, 0x80u},
 815:Generated_Source\PSoC5/cyfitter_cfg.c **** 			{0x64u, 0x40u},
 816:Generated_Source\PSoC5/cyfitter_cfg.c **** 			{0x65u, 0x40u},
 817:Generated_Source\PSoC5/cyfitter_cfg.c **** 			{0x66u, 0x80u},
 818:Generated_Source\PSoC5/cyfitter_cfg.c **** 			{0x68u, 0x40u},
 819:Generated_Source\PSoC5/cyfitter_cfg.c **** 			{0x6Au, 0x80u},
 820:Generated_Source\PSoC5/cyfitter_cfg.c **** 			{0x6Cu, 0x40u},
 821:Generated_Source\PSoC5/cyfitter_cfg.c **** 			{0x6Du, 0x20u},
 822:Generated_Source\PSoC5/cyfitter_cfg.c **** 			{0x6Eu, 0x80u},
 823:Generated_Source\PSoC5/cyfitter_cfg.c **** 			{0x00u, 0x34u},
 824:Generated_Source\PSoC5/cyfitter_cfg.c **** 			{0x04u, 0x08u},
 825:Generated_Source\PSoC5/cyfitter_cfg.c **** 			{0x07u, 0x54u},
 826:Generated_Source\PSoC5/cyfitter_cfg.c **** 			{0x0Au, 0x40u},
 827:Generated_Source\PSoC5/cyfitter_cfg.c **** 			{0x0Cu, 0x50u},
 828:Generated_Source\PSoC5/cyfitter_cfg.c **** 			{0x0Du, 0x04u},
 829:Generated_Source\PSoC5/cyfitter_cfg.c **** 			{0x0Eu, 0x11u},
 830:Generated_Source\PSoC5/cyfitter_cfg.c **** 			{0x10u, 0x08u},
 831:Generated_Source\PSoC5/cyfitter_cfg.c **** 			{0x12u, 0x10u},
 832:Generated_Source\PSoC5/cyfitter_cfg.c **** 			{0x14u, 0x80u},
 833:Generated_Source\PSoC5/cyfitter_cfg.c **** 			{0x16u, 0x04u},
 834:Generated_Source\PSoC5/cyfitter_cfg.c **** 			{0x19u, 0x1Au},
 835:Generated_Source\PSoC5/cyfitter_cfg.c **** 			{0x1Fu, 0x01u},
 836:Generated_Source\PSoC5/cyfitter_cfg.c **** 			{0x20u, 0x44u},
 837:Generated_Source\PSoC5/cyfitter_cfg.c **** 			{0x23u, 0x10u},
 838:Generated_Source\PSoC5/cyfitter_cfg.c **** 			{0x26u, 0x04u},
 839:Generated_Source\PSoC5/cyfitter_cfg.c **** 			{0x27u, 0x66u},
 840:Generated_Source\PSoC5/cyfitter_cfg.c **** 			{0x2Au, 0x10u},
 841:Generated_Source\PSoC5/cyfitter_cfg.c **** 			{0x2Bu, 0x02u},
 842:Generated_Source\PSoC5/cyfitter_cfg.c **** 			{0x2Cu, 0x10u},
 843:Generated_Source\PSoC5/cyfitter_cfg.c **** 			{0x2Eu, 0x11u},
 844:Generated_Source\PSoC5/cyfitter_cfg.c **** 			{0x2Fu, 0x01u},
 845:Generated_Source\PSoC5/cyfitter_cfg.c **** 			{0x31u, 0x10u},
 846:Generated_Source\PSoC5/cyfitter_cfg.c **** 			{0x32u, 0x80u},
 847:Generated_Source\PSoC5/cyfitter_cfg.c **** 			{0x37u, 0x46u},
 848:Generated_Source\PSoC5/cyfitter_cfg.c **** 			{0x38u, 0x08u},
 849:Generated_Source\PSoC5/cyfitter_cfg.c **** 			{0x3Bu, 0x10u},
 850:Generated_Source\PSoC5/cyfitter_cfg.c **** 			{0x3Du, 0x20u},
ARM GAS  C:\Users\Admin\AppData\Local\Temp\ccd3RvSG.s 			page 28


 851:Generated_Source\PSoC5/cyfitter_cfg.c **** 			{0x3Eu, 0x88u},
 852:Generated_Source\PSoC5/cyfitter_cfg.c **** 			{0x42u, 0x04u},
 853:Generated_Source\PSoC5/cyfitter_cfg.c **** 			{0x43u, 0x09u},
 854:Generated_Source\PSoC5/cyfitter_cfg.c **** 			{0x45u, 0x08u},
 855:Generated_Source\PSoC5/cyfitter_cfg.c **** 			{0x47u, 0x01u},
 856:Generated_Source\PSoC5/cyfitter_cfg.c **** 			{0x4Cu, 0x20u},
 857:Generated_Source\PSoC5/cyfitter_cfg.c **** 			{0x4Du, 0x21u},
 858:Generated_Source\PSoC5/cyfitter_cfg.c **** 			{0x54u, 0x04u},
 859:Generated_Source\PSoC5/cyfitter_cfg.c **** 			{0x56u, 0x10u},
 860:Generated_Source\PSoC5/cyfitter_cfg.c **** 			{0x57u, 0x01u},
 861:Generated_Source\PSoC5/cyfitter_cfg.c **** 			{0x76u, 0x80u},
 862:Generated_Source\PSoC5/cyfitter_cfg.c **** 			{0x88u, 0x04u},
 863:Generated_Source\PSoC5/cyfitter_cfg.c **** 			{0x8Cu, 0x08u},
 864:Generated_Source\PSoC5/cyfitter_cfg.c **** 			{0x91u, 0x08u},
 865:Generated_Source\PSoC5/cyfitter_cfg.c **** 			{0x92u, 0x0Du},
 866:Generated_Source\PSoC5/cyfitter_cfg.c **** 			{0x94u, 0x04u},
 867:Generated_Source\PSoC5/cyfitter_cfg.c **** 			{0x95u, 0x01u},
 868:Generated_Source\PSoC5/cyfitter_cfg.c **** 			{0x97u, 0x10u},
 869:Generated_Source\PSoC5/cyfitter_cfg.c **** 			{0x98u, 0xBAu},
 870:Generated_Source\PSoC5/cyfitter_cfg.c **** 			{0x99u, 0x20u},
 871:Generated_Source\PSoC5/cyfitter_cfg.c **** 			{0x9Au, 0x0Cu},
 872:Generated_Source\PSoC5/cyfitter_cfg.c **** 			{0x9Bu, 0x91u},
 873:Generated_Source\PSoC5/cyfitter_cfg.c **** 			{0x9Du, 0x02u},
 874:Generated_Source\PSoC5/cyfitter_cfg.c **** 			{0x9Fu, 0x60u},
 875:Generated_Source\PSoC5/cyfitter_cfg.c **** 			{0xA0u, 0x10u},
 876:Generated_Source\PSoC5/cyfitter_cfg.c **** 			{0xA1u, 0x30u},
 877:Generated_Source\PSoC5/cyfitter_cfg.c **** 			{0xA4u, 0x24u},
 878:Generated_Source\PSoC5/cyfitter_cfg.c **** 			{0xA6u, 0x8Cu},
 879:Generated_Source\PSoC5/cyfitter_cfg.c **** 			{0xA7u, 0x23u},
 880:Generated_Source\PSoC5/cyfitter_cfg.c **** 			{0xA8u, 0x02u},
 881:Generated_Source\PSoC5/cyfitter_cfg.c **** 			{0xAFu, 0x11u},
 882:Generated_Source\PSoC5/cyfitter_cfg.c **** 			{0xB1u, 0x40u},
 883:Generated_Source\PSoC5/cyfitter_cfg.c **** 			{0xB4u, 0x21u},
 884:Generated_Source\PSoC5/cyfitter_cfg.c **** 			{0xB7u, 0x40u},
 885:Generated_Source\PSoC5/cyfitter_cfg.c **** 			{0xC0u, 0x54u},
 886:Generated_Source\PSoC5/cyfitter_cfg.c **** 			{0xC2u, 0xE8u},
 887:Generated_Source\PSoC5/cyfitter_cfg.c **** 			{0xC4u, 0x56u},
 888:Generated_Source\PSoC5/cyfitter_cfg.c **** 			{0xCAu, 0xFCu},
 889:Generated_Source\PSoC5/cyfitter_cfg.c **** 			{0xCCu, 0xDCu},
 890:Generated_Source\PSoC5/cyfitter_cfg.c **** 			{0xCEu, 0x76u},
 891:Generated_Source\PSoC5/cyfitter_cfg.c **** 			{0xD0u, 0xC7u},
 892:Generated_Source\PSoC5/cyfitter_cfg.c **** 			{0xD2u, 0x20u},
 893:Generated_Source\PSoC5/cyfitter_cfg.c **** 			{0xE6u, 0x05u},
 894:Generated_Source\PSoC5/cyfitter_cfg.c **** 			{0xE8u, 0x08u},
 895:Generated_Source\PSoC5/cyfitter_cfg.c **** 			{0xECu, 0x08u},
 896:Generated_Source\PSoC5/cyfitter_cfg.c **** 			{0xEEu, 0x41u},
 897:Generated_Source\PSoC5/cyfitter_cfg.c **** 			{0x02u, 0x01u},
 898:Generated_Source\PSoC5/cyfitter_cfg.c **** 			{0x04u, 0x50u},
 899:Generated_Source\PSoC5/cyfitter_cfg.c **** 			{0x06u, 0xA4u},
 900:Generated_Source\PSoC5/cyfitter_cfg.c **** 			{0x09u, 0x7Fu},
 901:Generated_Source\PSoC5/cyfitter_cfg.c **** 			{0x0Au, 0x08u},
 902:Generated_Source\PSoC5/cyfitter_cfg.c **** 			{0x0Eu, 0x03u},
 903:Generated_Source\PSoC5/cyfitter_cfg.c **** 			{0x13u, 0x01u},
 904:Generated_Source\PSoC5/cyfitter_cfg.c **** 			{0x14u, 0x70u},
 905:Generated_Source\PSoC5/cyfitter_cfg.c **** 			{0x15u, 0x96u},
 906:Generated_Source\PSoC5/cyfitter_cfg.c **** 			{0x17u, 0x68u},
 907:Generated_Source\PSoC5/cyfitter_cfg.c **** 			{0x18u, 0x01u},
ARM GAS  C:\Users\Admin\AppData\Local\Temp\ccd3RvSG.s 			page 29


 908:Generated_Source\PSoC5/cyfitter_cfg.c **** 			{0x19u, 0xA3u},
 909:Generated_Source\PSoC5/cyfitter_cfg.c **** 			{0x1Bu, 0x5Cu},
 910:Generated_Source\PSoC5/cyfitter_cfg.c **** 			{0x1Cu, 0xA4u},
 911:Generated_Source\PSoC5/cyfitter_cfg.c **** 			{0x1Du, 0xC5u},
 912:Generated_Source\PSoC5/cyfitter_cfg.c **** 			{0x1Eu, 0x50u},
 913:Generated_Source\PSoC5/cyfitter_cfg.c **** 			{0x1Fu, 0x3Au},
 914:Generated_Source\PSoC5/cyfitter_cfg.c **** 			{0x20u, 0xF4u},
 915:Generated_Source\PSoC5/cyfitter_cfg.c **** 			{0x24u, 0x34u},
 916:Generated_Source\PSoC5/cyfitter_cfg.c **** 			{0x25u, 0x0Eu},
 917:Generated_Source\PSoC5/cyfitter_cfg.c **** 			{0x26u, 0xC0u},
 918:Generated_Source\PSoC5/cyfitter_cfg.c **** 			{0x27u, 0xF0u},
 919:Generated_Source\PSoC5/cyfitter_cfg.c **** 			{0x28u, 0xC4u},
 920:Generated_Source\PSoC5/cyfitter_cfg.c **** 			{0x2Au, 0x30u},
 921:Generated_Source\PSoC5/cyfitter_cfg.c **** 			{0x2Du, 0xFEu},
 922:Generated_Source\PSoC5/cyfitter_cfg.c **** 			{0x2Fu, 0x01u},
 923:Generated_Source\PSoC5/cyfitter_cfg.c **** 			{0x30u, 0xF0u},
 924:Generated_Source\PSoC5/cyfitter_cfg.c **** 			{0x32u, 0x01u},
 925:Generated_Source\PSoC5/cyfitter_cfg.c **** 			{0x34u, 0x02u},
 926:Generated_Source\PSoC5/cyfitter_cfg.c **** 			{0x35u, 0xFFu},
 927:Generated_Source\PSoC5/cyfitter_cfg.c **** 			{0x36u, 0x0Cu},
 928:Generated_Source\PSoC5/cyfitter_cfg.c **** 			{0x3Eu, 0x04u},
 929:Generated_Source\PSoC5/cyfitter_cfg.c **** 			{0x3Fu, 0x10u},
 930:Generated_Source\PSoC5/cyfitter_cfg.c **** 			{0x52u, 0x80u},
 931:Generated_Source\PSoC5/cyfitter_cfg.c **** 			{0x58u, 0x04u},
 932:Generated_Source\PSoC5/cyfitter_cfg.c **** 			{0x59u, 0x04u},
 933:Generated_Source\PSoC5/cyfitter_cfg.c **** 			{0x5Bu, 0x04u},
 934:Generated_Source\PSoC5/cyfitter_cfg.c **** 			{0x5Cu, 0x01u},
 935:Generated_Source\PSoC5/cyfitter_cfg.c **** 			{0x5Du, 0x10u},
 936:Generated_Source\PSoC5/cyfitter_cfg.c **** 			{0x5Fu, 0x01u},
 937:Generated_Source\PSoC5/cyfitter_cfg.c **** 			{0x85u, 0x10u},
 938:Generated_Source\PSoC5/cyfitter_cfg.c **** 			{0x87u, 0x20u},
 939:Generated_Source\PSoC5/cyfitter_cfg.c **** 			{0x89u, 0x07u},
 940:Generated_Source\PSoC5/cyfitter_cfg.c **** 			{0x8Du, 0x10u},
 941:Generated_Source\PSoC5/cyfitter_cfg.c **** 			{0x8Fu, 0x60u},
 942:Generated_Source\PSoC5/cyfitter_cfg.c **** 			{0x95u, 0x20u},
 943:Generated_Source\PSoC5/cyfitter_cfg.c **** 			{0x97u, 0x1Fu},
 944:Generated_Source\PSoC5/cyfitter_cfg.c **** 			{0x99u, 0x08u},
 945:Generated_Source\PSoC5/cyfitter_cfg.c **** 			{0x9Bu, 0x01u},
 946:Generated_Source\PSoC5/cyfitter_cfg.c **** 			{0x9Du, 0x0Cu},
 947:Generated_Source\PSoC5/cyfitter_cfg.c **** 			{0x9Fu, 0x02u},
 948:Generated_Source\PSoC5/cyfitter_cfg.c **** 			{0xA5u, 0x0Cu},
 949:Generated_Source\PSoC5/cyfitter_cfg.c **** 			{0xA7u, 0x01u},
 950:Generated_Source\PSoC5/cyfitter_cfg.c **** 			{0xA9u, 0x10u},
 951:Generated_Source\PSoC5/cyfitter_cfg.c **** 			{0xABu, 0x20u},
 952:Generated_Source\PSoC5/cyfitter_cfg.c **** 			{0xADu, 0x0Bu},
 953:Generated_Source\PSoC5/cyfitter_cfg.c **** 			{0xAFu, 0x04u},
 954:Generated_Source\PSoC5/cyfitter_cfg.c **** 			{0xB3u, 0x30u},
 955:Generated_Source\PSoC5/cyfitter_cfg.c **** 			{0xB5u, 0x40u},
 956:Generated_Source\PSoC5/cyfitter_cfg.c **** 			{0xB7u, 0x0Fu},
 957:Generated_Source\PSoC5/cyfitter_cfg.c **** 			{0xBBu, 0x08u},
 958:Generated_Source\PSoC5/cyfitter_cfg.c **** 			{0xD4u, 0x0Fu},
 959:Generated_Source\PSoC5/cyfitter_cfg.c **** 			{0xD8u, 0x04u},
 960:Generated_Source\PSoC5/cyfitter_cfg.c **** 			{0xD9u, 0x04u},
 961:Generated_Source\PSoC5/cyfitter_cfg.c **** 			{0xDBu, 0x04u},
 962:Generated_Source\PSoC5/cyfitter_cfg.c **** 			{0xDCu, 0x14u},
 963:Generated_Source\PSoC5/cyfitter_cfg.c **** 			{0xDDu, 0x10u},
 964:Generated_Source\PSoC5/cyfitter_cfg.c **** 			{0xDFu, 0x05u},
ARM GAS  C:\Users\Admin\AppData\Local\Temp\ccd3RvSG.s 			page 30


 965:Generated_Source\PSoC5/cyfitter_cfg.c **** 			{0x01u, 0x90u},
 966:Generated_Source\PSoC5/cyfitter_cfg.c **** 			{0x05u, 0x40u},
 967:Generated_Source\PSoC5/cyfitter_cfg.c **** 			{0x07u, 0x68u},
 968:Generated_Source\PSoC5/cyfitter_cfg.c **** 			{0x08u, 0x80u},
 969:Generated_Source\PSoC5/cyfitter_cfg.c **** 			{0x09u, 0x04u},
 970:Generated_Source\PSoC5/cyfitter_cfg.c **** 			{0x0Bu, 0x40u},
 971:Generated_Source\PSoC5/cyfitter_cfg.c **** 			{0x0Eu, 0x04u},
 972:Generated_Source\PSoC5/cyfitter_cfg.c **** 			{0x0Fu, 0x11u},
 973:Generated_Source\PSoC5/cyfitter_cfg.c **** 			{0x10u, 0x02u},
 974:Generated_Source\PSoC5/cyfitter_cfg.c **** 			{0x11u, 0x01u},
 975:Generated_Source\PSoC5/cyfitter_cfg.c **** 			{0x15u, 0x04u},
 976:Generated_Source\PSoC5/cyfitter_cfg.c **** 			{0x16u, 0x80u},
 977:Generated_Source\PSoC5/cyfitter_cfg.c **** 			{0x17u, 0x10u},
 978:Generated_Source\PSoC5/cyfitter_cfg.c **** 			{0x1Du, 0x48u},
 979:Generated_Source\PSoC5/cyfitter_cfg.c **** 			{0x1Eu, 0x06u},
 980:Generated_Source\PSoC5/cyfitter_cfg.c **** 			{0x1Fu, 0x0Au},
 981:Generated_Source\PSoC5/cyfitter_cfg.c **** 			{0x22u, 0x88u},
 982:Generated_Source\PSoC5/cyfitter_cfg.c **** 			{0x23u, 0x25u},
 983:Generated_Source\PSoC5/cyfitter_cfg.c **** 			{0x27u, 0x08u},
 984:Generated_Source\PSoC5/cyfitter_cfg.c **** 			{0x28u, 0x10u},
 985:Generated_Source\PSoC5/cyfitter_cfg.c **** 			{0x29u, 0x10u},
 986:Generated_Source\PSoC5/cyfitter_cfg.c **** 			{0x2Bu, 0x02u},
 987:Generated_Source\PSoC5/cyfitter_cfg.c **** 			{0x2Du, 0x04u},
 988:Generated_Source\PSoC5/cyfitter_cfg.c **** 			{0x2Eu, 0x80u},
 989:Generated_Source\PSoC5/cyfitter_cfg.c **** 			{0x2Fu, 0x22u},
 990:Generated_Source\PSoC5/cyfitter_cfg.c **** 			{0x32u, 0x88u},
 991:Generated_Source\PSoC5/cyfitter_cfg.c **** 			{0x33u, 0x20u},
 992:Generated_Source\PSoC5/cyfitter_cfg.c **** 			{0x34u, 0x10u},
 993:Generated_Source\PSoC5/cyfitter_cfg.c **** 			{0x36u, 0x89u},
 994:Generated_Source\PSoC5/cyfitter_cfg.c **** 			{0x37u, 0x10u},
 995:Generated_Source\PSoC5/cyfitter_cfg.c **** 			{0x38u, 0x40u},
 996:Generated_Source\PSoC5/cyfitter_cfg.c **** 			{0x3Bu, 0x14u},
 997:Generated_Source\PSoC5/cyfitter_cfg.c **** 			{0x3Fu, 0x10u},
 998:Generated_Source\PSoC5/cyfitter_cfg.c **** 			{0x58u, 0x22u},
 999:Generated_Source\PSoC5/cyfitter_cfg.c **** 			{0x5Au, 0x08u},
1000:Generated_Source\PSoC5/cyfitter_cfg.c **** 			{0x5Bu, 0x80u},
1001:Generated_Source\PSoC5/cyfitter_cfg.c **** 			{0x60u, 0x10u},
1002:Generated_Source\PSoC5/cyfitter_cfg.c **** 			{0x61u, 0x20u},
1003:Generated_Source\PSoC5/cyfitter_cfg.c **** 			{0x77u, 0x40u},
1004:Generated_Source\PSoC5/cyfitter_cfg.c **** 			{0x78u, 0x40u},
1005:Generated_Source\PSoC5/cyfitter_cfg.c **** 			{0x82u, 0x02u},
1006:Generated_Source\PSoC5/cyfitter_cfg.c **** 			{0x84u, 0x82u},
1007:Generated_Source\PSoC5/cyfitter_cfg.c **** 			{0x85u, 0x20u},
1008:Generated_Source\PSoC5/cyfitter_cfg.c **** 			{0x8Au, 0x01u},
1009:Generated_Source\PSoC5/cyfitter_cfg.c **** 			{0x8Du, 0x01u},
1010:Generated_Source\PSoC5/cyfitter_cfg.c **** 			{0x90u, 0x50u},
1011:Generated_Source\PSoC5/cyfitter_cfg.c **** 			{0x92u, 0x08u},
1012:Generated_Source\PSoC5/cyfitter_cfg.c **** 			{0x93u, 0x10u},
1013:Generated_Source\PSoC5/cyfitter_cfg.c **** 			{0x96u, 0x40u},
1014:Generated_Source\PSoC5/cyfitter_cfg.c **** 			{0x98u, 0x6Au},
1015:Generated_Source\PSoC5/cyfitter_cfg.c **** 			{0x99u, 0x18u},
1016:Generated_Source\PSoC5/cyfitter_cfg.c **** 			{0x9Bu, 0x90u},
1017:Generated_Source\PSoC5/cyfitter_cfg.c **** 			{0xA0u, 0x08u},
1018:Generated_Source\PSoC5/cyfitter_cfg.c **** 			{0xA1u, 0x20u},
1019:Generated_Source\PSoC5/cyfitter_cfg.c **** 			{0xA5u, 0x08u},
1020:Generated_Source\PSoC5/cyfitter_cfg.c **** 			{0xA6u, 0x88u},
1021:Generated_Source\PSoC5/cyfitter_cfg.c **** 			{0xA7u, 0x2Au},
ARM GAS  C:\Users\Admin\AppData\Local\Temp\ccd3RvSG.s 			page 31


1022:Generated_Source\PSoC5/cyfitter_cfg.c **** 			{0xB7u, 0x40u},
1023:Generated_Source\PSoC5/cyfitter_cfg.c **** 			{0xC0u, 0xF3u},
1024:Generated_Source\PSoC5/cyfitter_cfg.c **** 			{0xC2u, 0xEDu},
1025:Generated_Source\PSoC5/cyfitter_cfg.c **** 			{0xC4u, 0x79u},
1026:Generated_Source\PSoC5/cyfitter_cfg.c **** 			{0xCAu, 0x5Eu},
1027:Generated_Source\PSoC5/cyfitter_cfg.c **** 			{0xCCu, 0xFEu},
1028:Generated_Source\PSoC5/cyfitter_cfg.c **** 			{0xCEu, 0x2Eu},
1029:Generated_Source\PSoC5/cyfitter_cfg.c **** 			{0xD6u, 0x0Fu},
1030:Generated_Source\PSoC5/cyfitter_cfg.c **** 			{0xD8u, 0x06u},
1031:Generated_Source\PSoC5/cyfitter_cfg.c **** 			{0xDEu, 0x08u},
1032:Generated_Source\PSoC5/cyfitter_cfg.c **** 			{0xE2u, 0x0Cu},
1033:Generated_Source\PSoC5/cyfitter_cfg.c **** 			{0xE6u, 0x06u},
1034:Generated_Source\PSoC5/cyfitter_cfg.c **** 			{0x01u, 0x02u},
1035:Generated_Source\PSoC5/cyfitter_cfg.c **** 			{0x02u, 0x04u},
1036:Generated_Source\PSoC5/cyfitter_cfg.c **** 			{0x04u, 0x04u},
1037:Generated_Source\PSoC5/cyfitter_cfg.c **** 			{0x07u, 0x02u},
1038:Generated_Source\PSoC5/cyfitter_cfg.c **** 			{0x09u, 0x20u},
1039:Generated_Source\PSoC5/cyfitter_cfg.c **** 			{0x0Au, 0x01u},
1040:Generated_Source\PSoC5/cyfitter_cfg.c **** 			{0x0Bu, 0x10u},
1041:Generated_Source\PSoC5/cyfitter_cfg.c **** 			{0x0Du, 0x80u},
1042:Generated_Source\PSoC5/cyfitter_cfg.c **** 			{0x0Fu, 0x40u},
1043:Generated_Source\PSoC5/cyfitter_cfg.c **** 			{0x11u, 0x10u},
1044:Generated_Source\PSoC5/cyfitter_cfg.c **** 			{0x13u, 0x20u},
1045:Generated_Source\PSoC5/cyfitter_cfg.c **** 			{0x14u, 0x01u},
1046:Generated_Source\PSoC5/cyfitter_cfg.c **** 			{0x15u, 0x08u},
1047:Generated_Source\PSoC5/cyfitter_cfg.c **** 			{0x18u, 0x02u},
1048:Generated_Source\PSoC5/cyfitter_cfg.c **** 			{0x1Bu, 0x01u},
1049:Generated_Source\PSoC5/cyfitter_cfg.c **** 			{0x1Du, 0x04u},
1050:Generated_Source\PSoC5/cyfitter_cfg.c **** 			{0x21u, 0x40u},
1051:Generated_Source\PSoC5/cyfitter_cfg.c **** 			{0x22u, 0x02u},
1052:Generated_Source\PSoC5/cyfitter_cfg.c **** 			{0x23u, 0x80u},
1053:Generated_Source\PSoC5/cyfitter_cfg.c **** 			{0x25u, 0x01u},
1054:Generated_Source\PSoC5/cyfitter_cfg.c **** 			{0x26u, 0x10u},
1055:Generated_Source\PSoC5/cyfitter_cfg.c **** 			{0x2Au, 0x08u},
1056:Generated_Source\PSoC5/cyfitter_cfg.c **** 			{0x2Bu, 0x04u},
1057:Generated_Source\PSoC5/cyfitter_cfg.c **** 			{0x2Cu, 0x08u},
1058:Generated_Source\PSoC5/cyfitter_cfg.c **** 			{0x2Fu, 0x08u},
1059:Generated_Source\PSoC5/cyfitter_cfg.c **** 			{0x34u, 0x1Fu},
1060:Generated_Source\PSoC5/cyfitter_cfg.c **** 			{0x35u, 0xFFu},
1061:Generated_Source\PSoC5/cyfitter_cfg.c **** 			{0x38u, 0x20u},
1062:Generated_Source\PSoC5/cyfitter_cfg.c **** 			{0x3Eu, 0x10u},
1063:Generated_Source\PSoC5/cyfitter_cfg.c **** 			{0x3Fu, 0x10u},
1064:Generated_Source\PSoC5/cyfitter_cfg.c **** 			{0x54u, 0x40u},
1065:Generated_Source\PSoC5/cyfitter_cfg.c **** 			{0x58u, 0x04u},
1066:Generated_Source\PSoC5/cyfitter_cfg.c **** 			{0x59u, 0x04u},
1067:Generated_Source\PSoC5/cyfitter_cfg.c **** 			{0x5Bu, 0x04u},
1068:Generated_Source\PSoC5/cyfitter_cfg.c **** 			{0x5Cu, 0x04u},
1069:Generated_Source\PSoC5/cyfitter_cfg.c **** 			{0x5Du, 0x20u},
1070:Generated_Source\PSoC5/cyfitter_cfg.c **** 			{0x5Fu, 0x01u},
1071:Generated_Source\PSoC5/cyfitter_cfg.c **** 			{0x87u, 0x01u},
1072:Generated_Source\PSoC5/cyfitter_cfg.c **** 			{0x89u, 0x02u},
1073:Generated_Source\PSoC5/cyfitter_cfg.c **** 			{0x8Au, 0x02u},
1074:Generated_Source\PSoC5/cyfitter_cfg.c **** 			{0x8Cu, 0x02u},
1075:Generated_Source\PSoC5/cyfitter_cfg.c **** 			{0x91u, 0x02u},
1076:Generated_Source\PSoC5/cyfitter_cfg.c **** 			{0x96u, 0x01u},
1077:Generated_Source\PSoC5/cyfitter_cfg.c **** 			{0x97u, 0x02u},
1078:Generated_Source\PSoC5/cyfitter_cfg.c **** 			{0x98u, 0x02u},
ARM GAS  C:\Users\Admin\AppData\Local\Temp\ccd3RvSG.s 			page 32


1079:Generated_Source\PSoC5/cyfitter_cfg.c **** 			{0x99u, 0x02u},
1080:Generated_Source\PSoC5/cyfitter_cfg.c **** 			{0x9Du, 0x02u},
1081:Generated_Source\PSoC5/cyfitter_cfg.c **** 			{0xA0u, 0x02u},
1082:Generated_Source\PSoC5/cyfitter_cfg.c **** 			{0xA4u, 0x02u},
1083:Generated_Source\PSoC5/cyfitter_cfg.c **** 			{0xA5u, 0x02u},
1084:Generated_Source\PSoC5/cyfitter_cfg.c **** 			{0xA8u, 0x02u},
1085:Generated_Source\PSoC5/cyfitter_cfg.c **** 			{0xACu, 0x02u},
1086:Generated_Source\PSoC5/cyfitter_cfg.c **** 			{0xAFu, 0x02u},
1087:Generated_Source\PSoC5/cyfitter_cfg.c **** 			{0xB0u, 0x01u},
1088:Generated_Source\PSoC5/cyfitter_cfg.c **** 			{0xB3u, 0x02u},
1089:Generated_Source\PSoC5/cyfitter_cfg.c **** 			{0xB4u, 0x02u},
1090:Generated_Source\PSoC5/cyfitter_cfg.c **** 			{0xB5u, 0x01u},
1091:Generated_Source\PSoC5/cyfitter_cfg.c **** 			{0xD8u, 0x04u},
1092:Generated_Source\PSoC5/cyfitter_cfg.c **** 			{0xD9u, 0x04u},
1093:Generated_Source\PSoC5/cyfitter_cfg.c **** 			{0xDCu, 0x44u},
1094:Generated_Source\PSoC5/cyfitter_cfg.c **** 			{0xDFu, 0x01u},
1095:Generated_Source\PSoC5/cyfitter_cfg.c **** 			{0x02u, 0x08u},
1096:Generated_Source\PSoC5/cyfitter_cfg.c **** 			{0x03u, 0x02u},
1097:Generated_Source\PSoC5/cyfitter_cfg.c **** 			{0x06u, 0x28u},
1098:Generated_Source\PSoC5/cyfitter_cfg.c **** 			{0x07u, 0x41u},
1099:Generated_Source\PSoC5/cyfitter_cfg.c **** 			{0x08u, 0x08u},
1100:Generated_Source\PSoC5/cyfitter_cfg.c **** 			{0x0Bu, 0x08u},
1101:Generated_Source\PSoC5/cyfitter_cfg.c **** 			{0x0Cu, 0x90u},
1102:Generated_Source\PSoC5/cyfitter_cfg.c **** 			{0x0Eu, 0x64u},
1103:Generated_Source\PSoC5/cyfitter_cfg.c **** 			{0x10u, 0x91u},
1104:Generated_Source\PSoC5/cyfitter_cfg.c **** 			{0x13u, 0x20u},
1105:Generated_Source\PSoC5/cyfitter_cfg.c **** 			{0x14u, 0x08u},
1106:Generated_Source\PSoC5/cyfitter_cfg.c **** 			{0x15u, 0x41u},
1107:Generated_Source\PSoC5/cyfitter_cfg.c **** 			{0x17u, 0x04u},
1108:Generated_Source\PSoC5/cyfitter_cfg.c **** 			{0x19u, 0x10u},
1109:Generated_Source\PSoC5/cyfitter_cfg.c **** 			{0x1Bu, 0x02u},
1110:Generated_Source\PSoC5/cyfitter_cfg.c **** 			{0x1Du, 0x20u},
1111:Generated_Source\PSoC5/cyfitter_cfg.c **** 			{0x22u, 0x20u},
1112:Generated_Source\PSoC5/cyfitter_cfg.c **** 			{0x23u, 0x10u},
1113:Generated_Source\PSoC5/cyfitter_cfg.c **** 			{0x27u, 0x04u},
1114:Generated_Source\PSoC5/cyfitter_cfg.c **** 			{0x28u, 0x11u},
1115:Generated_Source\PSoC5/cyfitter_cfg.c **** 			{0x2Cu, 0x80u},
1116:Generated_Source\PSoC5/cyfitter_cfg.c **** 			{0x2Du, 0x40u},
1117:Generated_Source\PSoC5/cyfitter_cfg.c **** 			{0x2Eu, 0x28u},
1118:Generated_Source\PSoC5/cyfitter_cfg.c **** 			{0x2Fu, 0x46u},
1119:Generated_Source\PSoC5/cyfitter_cfg.c **** 			{0x30u, 0x80u},
1120:Generated_Source\PSoC5/cyfitter_cfg.c **** 			{0x32u, 0x28u},
1121:Generated_Source\PSoC5/cyfitter_cfg.c **** 			{0x33u, 0x02u},
1122:Generated_Source\PSoC5/cyfitter_cfg.c **** 			{0x34u, 0x09u},
1123:Generated_Source\PSoC5/cyfitter_cfg.c **** 			{0x35u, 0x01u},
1124:Generated_Source\PSoC5/cyfitter_cfg.c **** 			{0x36u, 0x35u},
1125:Generated_Source\PSoC5/cyfitter_cfg.c **** 			{0x37u, 0x61u},
1126:Generated_Source\PSoC5/cyfitter_cfg.c **** 			{0x3Au, 0x28u},
1127:Generated_Source\PSoC5/cyfitter_cfg.c **** 			{0x3Cu, 0x08u},
1128:Generated_Source\PSoC5/cyfitter_cfg.c **** 			{0x3Du, 0x91u},
1129:Generated_Source\PSoC5/cyfitter_cfg.c **** 			{0x3Eu, 0x06u},
1130:Generated_Source\PSoC5/cyfitter_cfg.c **** 			{0x65u, 0x04u},
1131:Generated_Source\PSoC5/cyfitter_cfg.c **** 			{0x67u, 0x05u},
1132:Generated_Source\PSoC5/cyfitter_cfg.c **** 			{0x7Cu, 0x80u},
1133:Generated_Source\PSoC5/cyfitter_cfg.c **** 			{0x7Du, 0x80u},
1134:Generated_Source\PSoC5/cyfitter_cfg.c **** 			{0x82u, 0x80u},
1135:Generated_Source\PSoC5/cyfitter_cfg.c **** 			{0x84u, 0x04u},
ARM GAS  C:\Users\Admin\AppData\Local\Temp\ccd3RvSG.s 			page 33


1136:Generated_Source\PSoC5/cyfitter_cfg.c **** 			{0x86u, 0x20u},
1137:Generated_Source\PSoC5/cyfitter_cfg.c **** 			{0x87u, 0x02u},
1138:Generated_Source\PSoC5/cyfitter_cfg.c **** 			{0x8Bu, 0x10u},
1139:Generated_Source\PSoC5/cyfitter_cfg.c **** 			{0x8Cu, 0x10u},
1140:Generated_Source\PSoC5/cyfitter_cfg.c **** 			{0x90u, 0x02u},
1141:Generated_Source\PSoC5/cyfitter_cfg.c **** 			{0x92u, 0x80u},
1142:Generated_Source\PSoC5/cyfitter_cfg.c **** 			{0x93u, 0x88u},
1143:Generated_Source\PSoC5/cyfitter_cfg.c **** 			{0x94u, 0x20u},
1144:Generated_Source\PSoC5/cyfitter_cfg.c **** 			{0x95u, 0x14u},
1145:Generated_Source\PSoC5/cyfitter_cfg.c **** 			{0x96u, 0x40u},
1146:Generated_Source\PSoC5/cyfitter_cfg.c **** 			{0x97u, 0x20u},
1147:Generated_Source\PSoC5/cyfitter_cfg.c **** 			{0x99u, 0x08u},
1148:Generated_Source\PSoC5/cyfitter_cfg.c **** 			{0x9Bu, 0x08u},
1149:Generated_Source\PSoC5/cyfitter_cfg.c **** 			{0x9Cu, 0x84u},
1150:Generated_Source\PSoC5/cyfitter_cfg.c **** 			{0x9Fu, 0x60u},
1151:Generated_Source\PSoC5/cyfitter_cfg.c **** 			{0xA0u, 0x02u},
1152:Generated_Source\PSoC5/cyfitter_cfg.c **** 			{0xA2u, 0x81u},
1153:Generated_Source\PSoC5/cyfitter_cfg.c **** 			{0xA4u, 0x04u},
1154:Generated_Source\PSoC5/cyfitter_cfg.c **** 			{0xA6u, 0x20u},
1155:Generated_Source\PSoC5/cyfitter_cfg.c **** 			{0xA7u, 0x02u},
1156:Generated_Source\PSoC5/cyfitter_cfg.c **** 			{0xB6u, 0x08u},
1157:Generated_Source\PSoC5/cyfitter_cfg.c **** 			{0xC0u, 0xF3u},
1158:Generated_Source\PSoC5/cyfitter_cfg.c **** 			{0xC2u, 0xF6u},
1159:Generated_Source\PSoC5/cyfitter_cfg.c **** 			{0xC4u, 0xFFu},
1160:Generated_Source\PSoC5/cyfitter_cfg.c **** 			{0xCAu, 0xFAu},
1161:Generated_Source\PSoC5/cyfitter_cfg.c **** 			{0xCCu, 0xFFu},
1162:Generated_Source\PSoC5/cyfitter_cfg.c **** 			{0xCEu, 0xF6u},
1163:Generated_Source\PSoC5/cyfitter_cfg.c **** 			{0xD8u, 0x70u},
1164:Generated_Source\PSoC5/cyfitter_cfg.c **** 			{0xE0u, 0x20u},
1165:Generated_Source\PSoC5/cyfitter_cfg.c **** 			{0xE2u, 0x04u},
1166:Generated_Source\PSoC5/cyfitter_cfg.c **** 			{0xE4u, 0x40u},
1167:Generated_Source\PSoC5/cyfitter_cfg.c **** 			{0xE8u, 0x10u},
1168:Generated_Source\PSoC5/cyfitter_cfg.c **** 			{0x06u, 0x01u},
1169:Generated_Source\PSoC5/cyfitter_cfg.c **** 			{0x0Cu, 0x08u},
1170:Generated_Source\PSoC5/cyfitter_cfg.c **** 			{0x0Du, 0x01u},
1171:Generated_Source\PSoC5/cyfitter_cfg.c **** 			{0x12u, 0x02u},
1172:Generated_Source\PSoC5/cyfitter_cfg.c **** 			{0x14u, 0x01u},
1173:Generated_Source\PSoC5/cyfitter_cfg.c **** 			{0x18u, 0x04u},
1174:Generated_Source\PSoC5/cyfitter_cfg.c **** 			{0x26u, 0x04u},
1175:Generated_Source\PSoC5/cyfitter_cfg.c **** 			{0x28u, 0x08u},
1176:Generated_Source\PSoC5/cyfitter_cfg.c **** 			{0x2Bu, 0x03u},
1177:Generated_Source\PSoC5/cyfitter_cfg.c **** 			{0x32u, 0x08u},
1178:Generated_Source\PSoC5/cyfitter_cfg.c **** 			{0x34u, 0x03u},
1179:Generated_Source\PSoC5/cyfitter_cfg.c **** 			{0x35u, 0x01u},
1180:Generated_Source\PSoC5/cyfitter_cfg.c **** 			{0x36u, 0x04u},
1181:Generated_Source\PSoC5/cyfitter_cfg.c **** 			{0x37u, 0x02u},
1182:Generated_Source\PSoC5/cyfitter_cfg.c **** 			{0x38u, 0x08u},
1183:Generated_Source\PSoC5/cyfitter_cfg.c **** 			{0x3Eu, 0x44u},
1184:Generated_Source\PSoC5/cyfitter_cfg.c **** 			{0x52u, 0x03u},
1185:Generated_Source\PSoC5/cyfitter_cfg.c **** 			{0x53u, 0x02u},
1186:Generated_Source\PSoC5/cyfitter_cfg.c **** 			{0x58u, 0x04u},
1187:Generated_Source\PSoC5/cyfitter_cfg.c **** 			{0x59u, 0x0Fu},
1188:Generated_Source\PSoC5/cyfitter_cfg.c **** 			{0x5Bu, 0x04u},
1189:Generated_Source\PSoC5/cyfitter_cfg.c **** 			{0x5Cu, 0x49u},
1190:Generated_Source\PSoC5/cyfitter_cfg.c **** 			{0x5Du, 0x40u},
1191:Generated_Source\PSoC5/cyfitter_cfg.c **** 			{0x5Fu, 0x01u},
1192:Generated_Source\PSoC5/cyfitter_cfg.c **** 			{0x83u, 0x20u},
ARM GAS  C:\Users\Admin\AppData\Local\Temp\ccd3RvSG.s 			page 34


1193:Generated_Source\PSoC5/cyfitter_cfg.c **** 			{0x85u, 0xDCu},
1194:Generated_Source\PSoC5/cyfitter_cfg.c **** 			{0x87u, 0x22u},
1195:Generated_Source\PSoC5/cyfitter_cfg.c **** 			{0x88u, 0x03u},
1196:Generated_Source\PSoC5/cyfitter_cfg.c **** 			{0x8Cu, 0x03u},
1197:Generated_Source\PSoC5/cyfitter_cfg.c **** 			{0x97u, 0x03u},
1198:Generated_Source\PSoC5/cyfitter_cfg.c **** 			{0x99u, 0x10u},
1199:Generated_Source\PSoC5/cyfitter_cfg.c **** 			{0x9Bu, 0xACu},
1200:Generated_Source\PSoC5/cyfitter_cfg.c **** 			{0x9Du, 0x0Cu},
1201:Generated_Source\PSoC5/cyfitter_cfg.c **** 			{0x9Fu, 0x71u},
1202:Generated_Source\PSoC5/cyfitter_cfg.c **** 			{0xA1u, 0x10u},
1203:Generated_Source\PSoC5/cyfitter_cfg.c **** 			{0xA2u, 0x04u},
1204:Generated_Source\PSoC5/cyfitter_cfg.c **** 			{0xA3u, 0x40u},
1205:Generated_Source\PSoC5/cyfitter_cfg.c **** 			{0xA4u, 0x02u},
1206:Generated_Source\PSoC5/cyfitter_cfg.c **** 			{0xA5u, 0x09u},
1207:Generated_Source\PSoC5/cyfitter_cfg.c **** 			{0xA7u, 0xD0u},
1208:Generated_Source\PSoC5/cyfitter_cfg.c **** 			{0xA9u, 0x14u},
1209:Generated_Source\PSoC5/cyfitter_cfg.c **** 			{0xAEu, 0x01u},
1210:Generated_Source\PSoC5/cyfitter_cfg.c **** 			{0xB2u, 0x03u},
1211:Generated_Source\PSoC5/cyfitter_cfg.c **** 			{0xB5u, 0x1Fu},
1212:Generated_Source\PSoC5/cyfitter_cfg.c **** 			{0xB6u, 0x04u},
1213:Generated_Source\PSoC5/cyfitter_cfg.c **** 			{0xB7u, 0xE0u},
1214:Generated_Source\PSoC5/cyfitter_cfg.c **** 			{0xB8u, 0x08u},
1215:Generated_Source\PSoC5/cyfitter_cfg.c **** 			{0xBBu, 0x80u},
1216:Generated_Source\PSoC5/cyfitter_cfg.c **** 			{0xBEu, 0x04u},
1217:Generated_Source\PSoC5/cyfitter_cfg.c **** 			{0xC0u, 0x21u},
1218:Generated_Source\PSoC5/cyfitter_cfg.c **** 			{0xC1u, 0x04u},
1219:Generated_Source\PSoC5/cyfitter_cfg.c **** 			{0xC5u, 0x0Eu},
1220:Generated_Source\PSoC5/cyfitter_cfg.c **** 			{0xC7u, 0xCBu},
1221:Generated_Source\PSoC5/cyfitter_cfg.c **** 			{0xC8u, 0x31u},
1222:Generated_Source\PSoC5/cyfitter_cfg.c **** 			{0xC9u, 0xFFu},
1223:Generated_Source\PSoC5/cyfitter_cfg.c **** 			{0xCAu, 0xFFu},
1224:Generated_Source\PSoC5/cyfitter_cfg.c **** 			{0xCBu, 0xFFu},
1225:Generated_Source\PSoC5/cyfitter_cfg.c **** 			{0xCEu, 0xF0u},
1226:Generated_Source\PSoC5/cyfitter_cfg.c **** 			{0xCFu, 0x44u},
1227:Generated_Source\PSoC5/cyfitter_cfg.c **** 			{0xD0u, 0x0Cu},
1228:Generated_Source\PSoC5/cyfitter_cfg.c **** 			{0xD4u, 0x01u},
1229:Generated_Source\PSoC5/cyfitter_cfg.c **** 			{0xD8u, 0x04u},
1230:Generated_Source\PSoC5/cyfitter_cfg.c **** 			{0xD9u, 0x04u},
1231:Generated_Source\PSoC5/cyfitter_cfg.c **** 			{0xDAu, 0x04u},
1232:Generated_Source\PSoC5/cyfitter_cfg.c **** 			{0xDBu, 0x0Fu},
1233:Generated_Source\PSoC5/cyfitter_cfg.c **** 			{0xDCu, 0x34u},
1234:Generated_Source\PSoC5/cyfitter_cfg.c **** 			{0xDDu, 0x43u},
1235:Generated_Source\PSoC5/cyfitter_cfg.c **** 			{0xDFu, 0x01u},
1236:Generated_Source\PSoC5/cyfitter_cfg.c **** 			{0xE6u, 0xC0u},
1237:Generated_Source\PSoC5/cyfitter_cfg.c **** 			{0xEAu, 0x40u},
1238:Generated_Source\PSoC5/cyfitter_cfg.c **** 			{0xEBu, 0x02u},
1239:Generated_Source\PSoC5/cyfitter_cfg.c **** 			{0x00u, 0x04u},
1240:Generated_Source\PSoC5/cyfitter_cfg.c **** 			{0x02u, 0x01u},
1241:Generated_Source\PSoC5/cyfitter_cfg.c **** 			{0x04u, 0x20u},
1242:Generated_Source\PSoC5/cyfitter_cfg.c **** 			{0x05u, 0x11u},
1243:Generated_Source\PSoC5/cyfitter_cfg.c **** 			{0x06u, 0x04u},
1244:Generated_Source\PSoC5/cyfitter_cfg.c **** 			{0x07u, 0x21u},
1245:Generated_Source\PSoC5/cyfitter_cfg.c **** 			{0x08u, 0x02u},
1246:Generated_Source\PSoC5/cyfitter_cfg.c **** 			{0x09u, 0x20u},
1247:Generated_Source\PSoC5/cyfitter_cfg.c **** 			{0x0Au, 0x20u},
1248:Generated_Source\PSoC5/cyfitter_cfg.c **** 			{0x0Cu, 0x04u},
1249:Generated_Source\PSoC5/cyfitter_cfg.c **** 			{0x0Eu, 0x42u},
ARM GAS  C:\Users\Admin\AppData\Local\Temp\ccd3RvSG.s 			page 35


1250:Generated_Source\PSoC5/cyfitter_cfg.c **** 			{0x0Fu, 0x04u},
1251:Generated_Source\PSoC5/cyfitter_cfg.c **** 			{0x10u, 0x18u},
1252:Generated_Source\PSoC5/cyfitter_cfg.c **** 			{0x14u, 0x80u},
1253:Generated_Source\PSoC5/cyfitter_cfg.c **** 			{0x15u, 0x04u},
1254:Generated_Source\PSoC5/cyfitter_cfg.c **** 			{0x16u, 0x02u},
1255:Generated_Source\PSoC5/cyfitter_cfg.c **** 			{0x17u, 0x10u},
1256:Generated_Source\PSoC5/cyfitter_cfg.c **** 			{0x18u, 0x04u},
1257:Generated_Source\PSoC5/cyfitter_cfg.c **** 			{0x19u, 0x28u},
1258:Generated_Source\PSoC5/cyfitter_cfg.c **** 			{0x1Au, 0x01u},
1259:Generated_Source\PSoC5/cyfitter_cfg.c **** 			{0x1Du, 0x08u},
1260:Generated_Source\PSoC5/cyfitter_cfg.c **** 			{0x1Fu, 0x40u},
1261:Generated_Source\PSoC5/cyfitter_cfg.c **** 			{0x21u, 0x40u},
1262:Generated_Source\PSoC5/cyfitter_cfg.c **** 			{0x22u, 0x10u},
1263:Generated_Source\PSoC5/cyfitter_cfg.c **** 			{0x24u, 0x02u},
1264:Generated_Source\PSoC5/cyfitter_cfg.c **** 			{0x26u, 0x40u},
1265:Generated_Source\PSoC5/cyfitter_cfg.c **** 			{0x27u, 0x05u},
1266:Generated_Source\PSoC5/cyfitter_cfg.c **** 			{0x29u, 0x20u},
1267:Generated_Source\PSoC5/cyfitter_cfg.c **** 			{0x2Cu, 0x80u},
1268:Generated_Source\PSoC5/cyfitter_cfg.c **** 			{0x2Fu, 0x18u},
1269:Generated_Source\PSoC5/cyfitter_cfg.c **** 			{0x35u, 0x10u},
1270:Generated_Source\PSoC5/cyfitter_cfg.c **** 			{0x36u, 0x40u},
1271:Generated_Source\PSoC5/cyfitter_cfg.c **** 			{0x37u, 0x04u},
1272:Generated_Source\PSoC5/cyfitter_cfg.c **** 			{0x39u, 0x80u},
1273:Generated_Source\PSoC5/cyfitter_cfg.c **** 			{0x3Bu, 0x0Cu},
1274:Generated_Source\PSoC5/cyfitter_cfg.c **** 			{0x3Du, 0x04u},
1275:Generated_Source\PSoC5/cyfitter_cfg.c **** 			{0x3Eu, 0x02u},
1276:Generated_Source\PSoC5/cyfitter_cfg.c **** 			{0x46u, 0x06u},
1277:Generated_Source\PSoC5/cyfitter_cfg.c **** 			{0x47u, 0x01u},
1278:Generated_Source\PSoC5/cyfitter_cfg.c **** 			{0x4Cu, 0x20u},
1279:Generated_Source\PSoC5/cyfitter_cfg.c **** 			{0x54u, 0x02u},
1280:Generated_Source\PSoC5/cyfitter_cfg.c **** 			{0x57u, 0x08u},
1281:Generated_Source\PSoC5/cyfitter_cfg.c **** 			{0x5Du, 0x40u},
1282:Generated_Source\PSoC5/cyfitter_cfg.c **** 			{0x64u, 0x40u},
1283:Generated_Source\PSoC5/cyfitter_cfg.c **** 			{0x65u, 0x01u},
1284:Generated_Source\PSoC5/cyfitter_cfg.c **** 			{0x67u, 0x80u},
1285:Generated_Source\PSoC5/cyfitter_cfg.c **** 			{0x68u, 0x08u},
1286:Generated_Source\PSoC5/cyfitter_cfg.c **** 			{0x6Au, 0x80u},
1287:Generated_Source\PSoC5/cyfitter_cfg.c **** 			{0x6Bu, 0x08u},
1288:Generated_Source\PSoC5/cyfitter_cfg.c **** 			{0x79u, 0x01u},
1289:Generated_Source\PSoC5/cyfitter_cfg.c **** 			{0x7Du, 0x01u},
1290:Generated_Source\PSoC5/cyfitter_cfg.c **** 			{0x7Eu, 0x40u},
1291:Generated_Source\PSoC5/cyfitter_cfg.c **** 			{0x81u, 0x40u},
1292:Generated_Source\PSoC5/cyfitter_cfg.c **** 			{0x82u, 0x11u},
1293:Generated_Source\PSoC5/cyfitter_cfg.c **** 			{0x88u, 0x10u},
1294:Generated_Source\PSoC5/cyfitter_cfg.c **** 			{0x8Cu, 0x20u},
1295:Generated_Source\PSoC5/cyfitter_cfg.c **** 			{0x93u, 0x08u},
1296:Generated_Source\PSoC5/cyfitter_cfg.c **** 			{0x95u, 0x10u},
1297:Generated_Source\PSoC5/cyfitter_cfg.c **** 			{0x96u, 0x41u},
1298:Generated_Source\PSoC5/cyfitter_cfg.c **** 			{0x98u, 0x02u},
1299:Generated_Source\PSoC5/cyfitter_cfg.c **** 			{0x9Au, 0x02u},
1300:Generated_Source\PSoC5/cyfitter_cfg.c **** 			{0x9Bu, 0x10u},
1301:Generated_Source\PSoC5/cyfitter_cfg.c **** 			{0x9Cu, 0x50u},
1302:Generated_Source\PSoC5/cyfitter_cfg.c **** 			{0x9Eu, 0x08u},
1303:Generated_Source\PSoC5/cyfitter_cfg.c **** 			{0x9Fu, 0x44u},
1304:Generated_Source\PSoC5/cyfitter_cfg.c **** 			{0xA0u, 0x80u},
1305:Generated_Source\PSoC5/cyfitter_cfg.c **** 			{0xA1u, 0x20u},
1306:Generated_Source\PSoC5/cyfitter_cfg.c **** 			{0xA2u, 0x81u},
ARM GAS  C:\Users\Admin\AppData\Local\Temp\ccd3RvSG.s 			page 36


1307:Generated_Source\PSoC5/cyfitter_cfg.c **** 			{0xA4u, 0x04u},
1308:Generated_Source\PSoC5/cyfitter_cfg.c **** 			{0xA5u, 0x08u},
1309:Generated_Source\PSoC5/cyfitter_cfg.c **** 			{0xA6u, 0x20u},
1310:Generated_Source\PSoC5/cyfitter_cfg.c **** 			{0xA7u, 0x02u},
1311:Generated_Source\PSoC5/cyfitter_cfg.c **** 			{0xABu, 0x02u},
1312:Generated_Source\PSoC5/cyfitter_cfg.c **** 			{0xADu, 0x08u},
1313:Generated_Source\PSoC5/cyfitter_cfg.c **** 			{0xAFu, 0x40u},
1314:Generated_Source\PSoC5/cyfitter_cfg.c **** 			{0xB0u, 0x08u},
1315:Generated_Source\PSoC5/cyfitter_cfg.c **** 			{0xB6u, 0x04u},
1316:Generated_Source\PSoC5/cyfitter_cfg.c **** 			{0xC0u, 0xF5u},
1317:Generated_Source\PSoC5/cyfitter_cfg.c **** 			{0xC2u, 0xFEu},
1318:Generated_Source\PSoC5/cyfitter_cfg.c **** 			{0xC4u, 0xF6u},
1319:Generated_Source\PSoC5/cyfitter_cfg.c **** 			{0xCAu, 0xE4u},
1320:Generated_Source\PSoC5/cyfitter_cfg.c **** 			{0xCCu, 0x70u},
1321:Generated_Source\PSoC5/cyfitter_cfg.c **** 			{0xCEu, 0xC8u},
1322:Generated_Source\PSoC5/cyfitter_cfg.c **** 			{0xD0u, 0xB0u},
1323:Generated_Source\PSoC5/cyfitter_cfg.c **** 			{0xD6u, 0x10u},
1324:Generated_Source\PSoC5/cyfitter_cfg.c **** 			{0xDEu, 0x81u},
1325:Generated_Source\PSoC5/cyfitter_cfg.c **** 			{0xE0u, 0x20u},
1326:Generated_Source\PSoC5/cyfitter_cfg.c **** 			{0xE2u, 0x04u},
1327:Generated_Source\PSoC5/cyfitter_cfg.c **** 			{0xE6u, 0x11u},
1328:Generated_Source\PSoC5/cyfitter_cfg.c **** 			{0xE8u, 0xC0u},
1329:Generated_Source\PSoC5/cyfitter_cfg.c **** 			{0x09u, 0x01u},
1330:Generated_Source\PSoC5/cyfitter_cfg.c **** 			{0x17u, 0x01u},
1331:Generated_Source\PSoC5/cyfitter_cfg.c **** 			{0x2Au, 0x02u},
1332:Generated_Source\PSoC5/cyfitter_cfg.c **** 			{0x2Eu, 0x01u},
1333:Generated_Source\PSoC5/cyfitter_cfg.c **** 			{0x32u, 0x01u},
1334:Generated_Source\PSoC5/cyfitter_cfg.c **** 			{0x36u, 0x02u},
1335:Generated_Source\PSoC5/cyfitter_cfg.c **** 			{0x37u, 0x01u},
1336:Generated_Source\PSoC5/cyfitter_cfg.c **** 			{0x3Fu, 0x40u},
1337:Generated_Source\PSoC5/cyfitter_cfg.c **** 			{0x40u, 0x03u},
1338:Generated_Source\PSoC5/cyfitter_cfg.c **** 			{0x45u, 0x40u},
1339:Generated_Source\PSoC5/cyfitter_cfg.c **** 			{0x49u, 0xFFu},
1340:Generated_Source\PSoC5/cyfitter_cfg.c **** 			{0x4Au, 0x07u},
1341:Generated_Source\PSoC5/cyfitter_cfg.c **** 			{0x4Bu, 0xFFu},
1342:Generated_Source\PSoC5/cyfitter_cfg.c **** 			{0x4Cu, 0x40u},
1343:Generated_Source\PSoC5/cyfitter_cfg.c **** 			{0x4Du, 0x20u},
1344:Generated_Source\PSoC5/cyfitter_cfg.c **** 			{0x4Eu, 0xF0u},
1345:Generated_Source\PSoC5/cyfitter_cfg.c **** 			{0x4Fu, 0x05u},
1346:Generated_Source\PSoC5/cyfitter_cfg.c **** 			{0x50u, 0x08u},
1347:Generated_Source\PSoC5/cyfitter_cfg.c **** 			{0x54u, 0x0Fu},
1348:Generated_Source\PSoC5/cyfitter_cfg.c **** 			{0x58u, 0x04u},
1349:Generated_Source\PSoC5/cyfitter_cfg.c **** 			{0x59u, 0x04u},
1350:Generated_Source\PSoC5/cyfitter_cfg.c **** 			{0x5Au, 0x04u},
1351:Generated_Source\PSoC5/cyfitter_cfg.c **** 			{0x5Bu, 0x04u},
1352:Generated_Source\PSoC5/cyfitter_cfg.c **** 			{0x5Cu, 0x44u},
1353:Generated_Source\PSoC5/cyfitter_cfg.c **** 			{0x5Du, 0x13u},
1354:Generated_Source\PSoC5/cyfitter_cfg.c **** 			{0x5Fu, 0x05u},
1355:Generated_Source\PSoC5/cyfitter_cfg.c **** 			{0x60u, 0x40u},
1356:Generated_Source\PSoC5/cyfitter_cfg.c **** 			{0x61u, 0xA8u},
1357:Generated_Source\PSoC5/cyfitter_cfg.c **** 			{0x62u, 0x40u},
1358:Generated_Source\PSoC5/cyfitter_cfg.c **** 			{0x63u, 0x20u},
1359:Generated_Source\PSoC5/cyfitter_cfg.c **** 			{0x88u, 0x01u},
1360:Generated_Source\PSoC5/cyfitter_cfg.c **** 			{0xB4u, 0x01u},
1361:Generated_Source\PSoC5/cyfitter_cfg.c **** 			{0xBEu, 0x10u},
1362:Generated_Source\PSoC5/cyfitter_cfg.c **** 			{0xD6u, 0x08u},
1363:Generated_Source\PSoC5/cyfitter_cfg.c **** 			{0xD8u, 0x04u},
ARM GAS  C:\Users\Admin\AppData\Local\Temp\ccd3RvSG.s 			page 37


1364:Generated_Source\PSoC5/cyfitter_cfg.c **** 			{0xD9u, 0x04u},
1365:Generated_Source\PSoC5/cyfitter_cfg.c **** 			{0xDBu, 0x04u},
1366:Generated_Source\PSoC5/cyfitter_cfg.c **** 			{0xDCu, 0x44u},
1367:Generated_Source\PSoC5/cyfitter_cfg.c **** 			{0xDDu, 0x90u},
1368:Generated_Source\PSoC5/cyfitter_cfg.c **** 			{0xDFu, 0x01u},
1369:Generated_Source\PSoC5/cyfitter_cfg.c **** 			{0x00u, 0x08u},
1370:Generated_Source\PSoC5/cyfitter_cfg.c **** 			{0x01u, 0x04u},
1371:Generated_Source\PSoC5/cyfitter_cfg.c **** 			{0x03u, 0x16u},
1372:Generated_Source\PSoC5/cyfitter_cfg.c **** 			{0x04u, 0x10u},
1373:Generated_Source\PSoC5/cyfitter_cfg.c **** 			{0x06u, 0x80u},
1374:Generated_Source\PSoC5/cyfitter_cfg.c **** 			{0x08u, 0x40u},
1375:Generated_Source\PSoC5/cyfitter_cfg.c **** 			{0x0Au, 0x40u},
1376:Generated_Source\PSoC5/cyfitter_cfg.c **** 			{0x0Bu, 0x08u},
1377:Generated_Source\PSoC5/cyfitter_cfg.c **** 			{0x0Cu, 0x41u},
1378:Generated_Source\PSoC5/cyfitter_cfg.c **** 			{0x0Eu, 0x60u},
1379:Generated_Source\PSoC5/cyfitter_cfg.c **** 			{0x12u, 0x20u},
1380:Generated_Source\PSoC5/cyfitter_cfg.c **** 			{0x13u, 0x40u},
1381:Generated_Source\PSoC5/cyfitter_cfg.c **** 			{0x15u, 0x14u},
1382:Generated_Source\PSoC5/cyfitter_cfg.c **** 			{0x17u, 0x41u},
1383:Generated_Source\PSoC5/cyfitter_cfg.c **** 			{0x18u, 0x08u},
1384:Generated_Source\PSoC5/cyfitter_cfg.c **** 			{0x1Cu, 0x10u},
1385:Generated_Source\PSoC5/cyfitter_cfg.c **** 			{0x1Eu, 0x02u},
1386:Generated_Source\PSoC5/cyfitter_cfg.c **** 			{0x1Fu, 0x04u},
1387:Generated_Source\PSoC5/cyfitter_cfg.c **** 			{0x27u, 0x02u},
1388:Generated_Source\PSoC5/cyfitter_cfg.c **** 			{0x28u, 0x60u},
1389:Generated_Source\PSoC5/cyfitter_cfg.c **** 			{0x2Du, 0x04u},
1390:Generated_Source\PSoC5/cyfitter_cfg.c **** 			{0x2Eu, 0x80u},
1391:Generated_Source\PSoC5/cyfitter_cfg.c **** 			{0x2Fu, 0x07u},
1392:Generated_Source\PSoC5/cyfitter_cfg.c **** 			{0x30u, 0x01u},
1393:Generated_Source\PSoC5/cyfitter_cfg.c **** 			{0x33u, 0x10u},
1394:Generated_Source\PSoC5/cyfitter_cfg.c **** 			{0x34u, 0x60u},
1395:Generated_Source\PSoC5/cyfitter_cfg.c **** 			{0x36u, 0x35u},
1396:Generated_Source\PSoC5/cyfitter_cfg.c **** 			{0x37u, 0x01u},
1397:Generated_Source\PSoC5/cyfitter_cfg.c **** 			{0x3Bu, 0x4Au},
1398:Generated_Source\PSoC5/cyfitter_cfg.c **** 			{0x3Cu, 0x20u},
1399:Generated_Source\PSoC5/cyfitter_cfg.c **** 			{0x3Eu, 0x40u},
1400:Generated_Source\PSoC5/cyfitter_cfg.c **** 			{0x45u, 0x08u},
1401:Generated_Source\PSoC5/cyfitter_cfg.c **** 			{0x4Au, 0x03u},
1402:Generated_Source\PSoC5/cyfitter_cfg.c **** 			{0x4Bu, 0x40u},
1403:Generated_Source\PSoC5/cyfitter_cfg.c **** 			{0x4Cu, 0x80u},
1404:Generated_Source\PSoC5/cyfitter_cfg.c **** 			{0x4Eu, 0x80u},
1405:Generated_Source\PSoC5/cyfitter_cfg.c **** 			{0x56u, 0x02u},
1406:Generated_Source\PSoC5/cyfitter_cfg.c **** 			{0x58u, 0x10u},
1407:Generated_Source\PSoC5/cyfitter_cfg.c **** 			{0x59u, 0x20u},
1408:Generated_Source\PSoC5/cyfitter_cfg.c **** 			{0x5Au, 0x80u},
1409:Generated_Source\PSoC5/cyfitter_cfg.c **** 			{0x5Cu, 0x08u},
1410:Generated_Source\PSoC5/cyfitter_cfg.c **** 			{0x5Du, 0x60u},
1411:Generated_Source\PSoC5/cyfitter_cfg.c **** 			{0x5Eu, 0x01u},
1412:Generated_Source\PSoC5/cyfitter_cfg.c **** 			{0x60u, 0x02u},
1413:Generated_Source\PSoC5/cyfitter_cfg.c **** 			{0x65u, 0x08u},
1414:Generated_Source\PSoC5/cyfitter_cfg.c **** 			{0x66u, 0x20u},
1415:Generated_Source\PSoC5/cyfitter_cfg.c **** 			{0x7Fu, 0x40u},
1416:Generated_Source\PSoC5/cyfitter_cfg.c **** 			{0x8Au, 0x22u},
1417:Generated_Source\PSoC5/cyfitter_cfg.c **** 			{0x8Cu, 0x04u},
1418:Generated_Source\PSoC5/cyfitter_cfg.c **** 			{0x8Du, 0x40u},
1419:Generated_Source\PSoC5/cyfitter_cfg.c **** 			{0x92u, 0x80u},
1420:Generated_Source\PSoC5/cyfitter_cfg.c **** 			{0x96u, 0x40u},
ARM GAS  C:\Users\Admin\AppData\Local\Temp\ccd3RvSG.s 			page 38


1421:Generated_Source\PSoC5/cyfitter_cfg.c **** 			{0x97u, 0x0Au},
1422:Generated_Source\PSoC5/cyfitter_cfg.c **** 			{0x9Cu, 0x50u},
1423:Generated_Source\PSoC5/cyfitter_cfg.c **** 			{0x9Eu, 0x08u},
1424:Generated_Source\PSoC5/cyfitter_cfg.c **** 			{0xA0u, 0x10u},
1425:Generated_Source\PSoC5/cyfitter_cfg.c **** 			{0xA1u, 0x20u},
1426:Generated_Source\PSoC5/cyfitter_cfg.c **** 			{0xA4u, 0x04u},
1427:Generated_Source\PSoC5/cyfitter_cfg.c **** 			{0xA6u, 0x26u},
1428:Generated_Source\PSoC5/cyfitter_cfg.c **** 			{0xA8u, 0x30u},
1429:Generated_Source\PSoC5/cyfitter_cfg.c **** 			{0xABu, 0x14u},
1430:Generated_Source\PSoC5/cyfitter_cfg.c **** 			{0xACu, 0x80u},
1431:Generated_Source\PSoC5/cyfitter_cfg.c **** 			{0xAFu, 0x02u},
1432:Generated_Source\PSoC5/cyfitter_cfg.c **** 			{0xB1u, 0x40u},
1433:Generated_Source\PSoC5/cyfitter_cfg.c **** 			{0xB2u, 0x60u},
1434:Generated_Source\PSoC5/cyfitter_cfg.c **** 			{0xB4u, 0x20u},
1435:Generated_Source\PSoC5/cyfitter_cfg.c **** 			{0xB6u, 0x40u},
1436:Generated_Source\PSoC5/cyfitter_cfg.c **** 			{0xC0u, 0x57u},
1437:Generated_Source\PSoC5/cyfitter_cfg.c **** 			{0xC2u, 0xBBu},
1438:Generated_Source\PSoC5/cyfitter_cfg.c **** 			{0xC4u, 0xF5u},
1439:Generated_Source\PSoC5/cyfitter_cfg.c **** 			{0xCAu, 0x73u},
1440:Generated_Source\PSoC5/cyfitter_cfg.c **** 			{0xCCu, 0xF5u},
1441:Generated_Source\PSoC5/cyfitter_cfg.c **** 			{0xCEu, 0x3Bu},
1442:Generated_Source\PSoC5/cyfitter_cfg.c **** 			{0xD0u, 0x40u},
1443:Generated_Source\PSoC5/cyfitter_cfg.c **** 			{0xD6u, 0xF8u},
1444:Generated_Source\PSoC5/cyfitter_cfg.c **** 			{0xD8u, 0x68u},
1445:Generated_Source\PSoC5/cyfitter_cfg.c **** 			{0xDEu, 0x80u},
1446:Generated_Source\PSoC5/cyfitter_cfg.c **** 			{0xE0u, 0x40u},
1447:Generated_Source\PSoC5/cyfitter_cfg.c **** 			{0xE2u, 0x80u},
1448:Generated_Source\PSoC5/cyfitter_cfg.c **** 			{0xE4u, 0x80u},
1449:Generated_Source\PSoC5/cyfitter_cfg.c **** 			{0xE6u, 0x01u},
1450:Generated_Source\PSoC5/cyfitter_cfg.c **** 			{0xE8u, 0x10u},
1451:Generated_Source\PSoC5/cyfitter_cfg.c **** 			{0xEAu, 0x20u},
1452:Generated_Source\PSoC5/cyfitter_cfg.c **** 			{0xECu, 0x80u},
1453:Generated_Source\PSoC5/cyfitter_cfg.c **** 			{0x01u, 0x08u},
1454:Generated_Source\PSoC5/cyfitter_cfg.c **** 			{0x03u, 0x10u},
1455:Generated_Source\PSoC5/cyfitter_cfg.c **** 			{0x09u, 0x06u},
1456:Generated_Source\PSoC5/cyfitter_cfg.c **** 			{0x0Du, 0x02u},
1457:Generated_Source\PSoC5/cyfitter_cfg.c **** 			{0x0Fu, 0x04u},
1458:Generated_Source\PSoC5/cyfitter_cfg.c **** 			{0x15u, 0x10u},
1459:Generated_Source\PSoC5/cyfitter_cfg.c **** 			{0x17u, 0x08u},
1460:Generated_Source\PSoC5/cyfitter_cfg.c **** 			{0x1Bu, 0x01u},
1461:Generated_Source\PSoC5/cyfitter_cfg.c **** 			{0x1Du, 0x08u},
1462:Generated_Source\PSoC5/cyfitter_cfg.c **** 			{0x1Fu, 0x10u},
1463:Generated_Source\PSoC5/cyfitter_cfg.c **** 			{0x21u, 0x08u},
1464:Generated_Source\PSoC5/cyfitter_cfg.c **** 			{0x23u, 0x10u},
1465:Generated_Source\PSoC5/cyfitter_cfg.c **** 			{0x27u, 0x02u},
1466:Generated_Source\PSoC5/cyfitter_cfg.c **** 			{0x2Bu, 0x04u},
1467:Generated_Source\PSoC5/cyfitter_cfg.c **** 			{0x31u, 0x06u},
1468:Generated_Source\PSoC5/cyfitter_cfg.c **** 			{0x33u, 0x18u},
1469:Generated_Source\PSoC5/cyfitter_cfg.c **** 			{0x35u, 0x01u},
1470:Generated_Source\PSoC5/cyfitter_cfg.c **** 			{0x3Bu, 0x08u},
1471:Generated_Source\PSoC5/cyfitter_cfg.c **** 			{0x58u, 0x04u},
1472:Generated_Source\PSoC5/cyfitter_cfg.c **** 			{0x59u, 0x04u},
1473:Generated_Source\PSoC5/cyfitter_cfg.c **** 			{0x5Bu, 0x04u},
1474:Generated_Source\PSoC5/cyfitter_cfg.c **** 			{0x5Cu, 0x14u},
1475:Generated_Source\PSoC5/cyfitter_cfg.c **** 			{0x5Fu, 0x01u},
1476:Generated_Source\PSoC5/cyfitter_cfg.c **** 			{0x81u, 0x18u},
1477:Generated_Source\PSoC5/cyfitter_cfg.c **** 			{0x83u, 0x60u},
ARM GAS  C:\Users\Admin\AppData\Local\Temp\ccd3RvSG.s 			page 39


1478:Generated_Source\PSoC5/cyfitter_cfg.c **** 			{0x85u, 0x50u},
1479:Generated_Source\PSoC5/cyfitter_cfg.c **** 			{0x87u, 0x28u},
1480:Generated_Source\PSoC5/cyfitter_cfg.c **** 			{0x88u, 0x30u},
1481:Generated_Source\PSoC5/cyfitter_cfg.c **** 			{0x89u, 0x03u},
1482:Generated_Source\PSoC5/cyfitter_cfg.c **** 			{0x8Au, 0x04u},
1483:Generated_Source\PSoC5/cyfitter_cfg.c **** 			{0x8Du, 0x60u},
1484:Generated_Source\PSoC5/cyfitter_cfg.c **** 			{0x8Eu, 0x01u},
1485:Generated_Source\PSoC5/cyfitter_cfg.c **** 			{0x8Fu, 0x18u},
1486:Generated_Source\PSoC5/cyfitter_cfg.c **** 			{0x90u, 0x30u},
1487:Generated_Source\PSoC5/cyfitter_cfg.c **** 			{0x91u, 0x01u},
1488:Generated_Source\PSoC5/cyfitter_cfg.c **** 			{0x92u, 0x08u},
1489:Generated_Source\PSoC5/cyfitter_cfg.c **** 			{0x93u, 0x02u},
1490:Generated_Source\PSoC5/cyfitter_cfg.c **** 			{0x94u, 0x20u},
1491:Generated_Source\PSoC5/cyfitter_cfg.c **** 			{0x95u, 0x28u},
1492:Generated_Source\PSoC5/cyfitter_cfg.c **** 			{0x96u, 0x04u},
1493:Generated_Source\PSoC5/cyfitter_cfg.c **** 			{0x97u, 0x50u},
1494:Generated_Source\PSoC5/cyfitter_cfg.c **** 			{0x9Au, 0x02u},
1495:Generated_Source\PSoC5/cyfitter_cfg.c **** 			{0x9Bu, 0x04u},
1496:Generated_Source\PSoC5/cyfitter_cfg.c **** 			{0x9Cu, 0x1Cu},
1497:Generated_Source\PSoC5/cyfitter_cfg.c **** 			{0x9Fu, 0x01u},
1498:Generated_Source\PSoC5/cyfitter_cfg.c **** 			{0xA2u, 0x3Cu},
1499:Generated_Source\PSoC5/cyfitter_cfg.c **** 			{0xA3u, 0x80u},
1500:Generated_Source\PSoC5/cyfitter_cfg.c **** 			{0xA4u, 0x2Cu},
1501:Generated_Source\PSoC5/cyfitter_cfg.c **** 			{0xA5u, 0x78u},
1502:Generated_Source\PSoC5/cyfitter_cfg.c **** 			{0xA6u, 0x10u},
1503:Generated_Source\PSoC5/cyfitter_cfg.c **** 			{0xABu, 0x02u},
1504:Generated_Source\PSoC5/cyfitter_cfg.c **** 			{0xADu, 0x38u},
1505:Generated_Source\PSoC5/cyfitter_cfg.c **** 			{0xB0u, 0x3Cu},
1506:Generated_Source\PSoC5/cyfitter_cfg.c **** 			{0xB1u, 0x04u},
1507:Generated_Source\PSoC5/cyfitter_cfg.c **** 			{0xB2u, 0x02u},
1508:Generated_Source\PSoC5/cyfitter_cfg.c **** 			{0xB3u, 0x03u},
1509:Generated_Source\PSoC5/cyfitter_cfg.c **** 			{0xB5u, 0x78u},
1510:Generated_Source\PSoC5/cyfitter_cfg.c **** 			{0xB6u, 0x01u},
1511:Generated_Source\PSoC5/cyfitter_cfg.c **** 			{0xB7u, 0x80u},
1512:Generated_Source\PSoC5/cyfitter_cfg.c **** 			{0xB8u, 0x20u},
1513:Generated_Source\PSoC5/cyfitter_cfg.c **** 			{0xBEu, 0x10u},
1514:Generated_Source\PSoC5/cyfitter_cfg.c **** 			{0xD8u, 0x04u},
1515:Generated_Source\PSoC5/cyfitter_cfg.c **** 			{0xD9u, 0x04u},
1516:Generated_Source\PSoC5/cyfitter_cfg.c **** 			{0xDCu, 0x11u},
1517:Generated_Source\PSoC5/cyfitter_cfg.c **** 			{0xDFu, 0x01u},
1518:Generated_Source\PSoC5/cyfitter_cfg.c **** 			{0x00u, 0x08u},
1519:Generated_Source\PSoC5/cyfitter_cfg.c **** 			{0x02u, 0x02u},
1520:Generated_Source\PSoC5/cyfitter_cfg.c **** 			{0x04u, 0x40u},
1521:Generated_Source\PSoC5/cyfitter_cfg.c **** 			{0x06u, 0x08u},
1522:Generated_Source\PSoC5/cyfitter_cfg.c **** 			{0x0Au, 0x40u},
1523:Generated_Source\PSoC5/cyfitter_cfg.c **** 			{0x0Bu, 0x0Au},
1524:Generated_Source\PSoC5/cyfitter_cfg.c **** 			{0x0Cu, 0x80u},
1525:Generated_Source\PSoC5/cyfitter_cfg.c **** 			{0x0Du, 0x08u},
1526:Generated_Source\PSoC5/cyfitter_cfg.c **** 			{0x0Eu, 0x88u},
1527:Generated_Source\PSoC5/cyfitter_cfg.c **** 			{0x10u, 0x40u},
1528:Generated_Source\PSoC5/cyfitter_cfg.c **** 			{0x12u, 0x20u},
1529:Generated_Source\PSoC5/cyfitter_cfg.c **** 			{0x15u, 0x01u},
1530:Generated_Source\PSoC5/cyfitter_cfg.c **** 			{0x17u, 0x04u},
1531:Generated_Source\PSoC5/cyfitter_cfg.c **** 			{0x1Cu, 0xA0u},
1532:Generated_Source\PSoC5/cyfitter_cfg.c **** 			{0x1Du, 0x10u},
1533:Generated_Source\PSoC5/cyfitter_cfg.c **** 			{0x1Eu, 0x80u},
1534:Generated_Source\PSoC5/cyfitter_cfg.c **** 			{0x1Fu, 0x80u},
ARM GAS  C:\Users\Admin\AppData\Local\Temp\ccd3RvSG.s 			page 40


1535:Generated_Source\PSoC5/cyfitter_cfg.c **** 			{0x20u, 0x50u},
1536:Generated_Source\PSoC5/cyfitter_cfg.c **** 			{0x21u, 0x29u},
1537:Generated_Source\PSoC5/cyfitter_cfg.c **** 			{0x22u, 0x08u},
1538:Generated_Source\PSoC5/cyfitter_cfg.c **** 			{0x24u, 0x80u},
1539:Generated_Source\PSoC5/cyfitter_cfg.c **** 			{0x25u, 0x80u},
1540:Generated_Source\PSoC5/cyfitter_cfg.c **** 			{0x27u, 0x14u},
1541:Generated_Source\PSoC5/cyfitter_cfg.c **** 			{0x28u, 0x20u},
1542:Generated_Source\PSoC5/cyfitter_cfg.c **** 			{0x2Au, 0x20u},
1543:Generated_Source\PSoC5/cyfitter_cfg.c **** 			{0x2Bu, 0x80u},
1544:Generated_Source\PSoC5/cyfitter_cfg.c **** 			{0x2Cu, 0x20u},
1545:Generated_Source\PSoC5/cyfitter_cfg.c **** 			{0x2Du, 0x20u},
1546:Generated_Source\PSoC5/cyfitter_cfg.c **** 			{0x2Fu, 0x82u},
1547:Generated_Source\PSoC5/cyfitter_cfg.c **** 			{0x30u, 0x10u},
1548:Generated_Source\PSoC5/cyfitter_cfg.c **** 			{0x31u, 0x88u},
1549:Generated_Source\PSoC5/cyfitter_cfg.c **** 			{0x35u, 0x40u},
1550:Generated_Source\PSoC5/cyfitter_cfg.c **** 			{0x36u, 0x08u},
1551:Generated_Source\PSoC5/cyfitter_cfg.c **** 			{0x37u, 0x12u},
1552:Generated_Source\PSoC5/cyfitter_cfg.c **** 			{0x39u, 0x52u},
1553:Generated_Source\PSoC5/cyfitter_cfg.c **** 			{0x3Cu, 0x80u},
1554:Generated_Source\PSoC5/cyfitter_cfg.c **** 			{0x3Du, 0x11u},
1555:Generated_Source\PSoC5/cyfitter_cfg.c **** 			{0x3Eu, 0x08u},
1556:Generated_Source\PSoC5/cyfitter_cfg.c **** 			{0x69u, 0x50u},
1557:Generated_Source\PSoC5/cyfitter_cfg.c **** 			{0x6Bu, 0x02u},
1558:Generated_Source\PSoC5/cyfitter_cfg.c **** 			{0x80u, 0x40u},
1559:Generated_Source\PSoC5/cyfitter_cfg.c **** 			{0x81u, 0x20u},
1560:Generated_Source\PSoC5/cyfitter_cfg.c **** 			{0x89u, 0x01u},
1561:Generated_Source\PSoC5/cyfitter_cfg.c **** 			{0x8Du, 0x10u},
1562:Generated_Source\PSoC5/cyfitter_cfg.c **** 			{0xC0u, 0xC5u},
1563:Generated_Source\PSoC5/cyfitter_cfg.c **** 			{0xC2u, 0xFBu},
1564:Generated_Source\PSoC5/cyfitter_cfg.c **** 			{0xC4u, 0x3Cu},
1565:Generated_Source\PSoC5/cyfitter_cfg.c **** 			{0xCAu, 0xF7u},
1566:Generated_Source\PSoC5/cyfitter_cfg.c **** 			{0xCCu, 0xFEu},
1567:Generated_Source\PSoC5/cyfitter_cfg.c **** 			{0xCEu, 0xFDu},
1568:Generated_Source\PSoC5/cyfitter_cfg.c **** 			{0xE2u, 0x40u},
1569:Generated_Source\PSoC5/cyfitter_cfg.c **** 			{0xE4u, 0x80u},
1570:Generated_Source\PSoC5/cyfitter_cfg.c **** 			{0x01u, 0x02u},
1571:Generated_Source\PSoC5/cyfitter_cfg.c **** 			{0x03u, 0x48u},
1572:Generated_Source\PSoC5/cyfitter_cfg.c **** 			{0x04u, 0x31u},
1573:Generated_Source\PSoC5/cyfitter_cfg.c **** 			{0x05u, 0x30u},
1574:Generated_Source\PSoC5/cyfitter_cfg.c **** 			{0x06u, 0x02u},
1575:Generated_Source\PSoC5/cyfitter_cfg.c **** 			{0x07u, 0x80u},
1576:Generated_Source\PSoC5/cyfitter_cfg.c **** 			{0x09u, 0x80u},
1577:Generated_Source\PSoC5/cyfitter_cfg.c **** 			{0x0Cu, 0x18u},
1578:Generated_Source\PSoC5/cyfitter_cfg.c **** 			{0x0Eu, 0x04u},
1579:Generated_Source\PSoC5/cyfitter_cfg.c **** 			{0x0Fu, 0x80u},
1580:Generated_Source\PSoC5/cyfitter_cfg.c **** 			{0x10u, 0x19u},
1581:Generated_Source\PSoC5/cyfitter_cfg.c **** 			{0x11u, 0x62u},
1582:Generated_Source\PSoC5/cyfitter_cfg.c **** 			{0x13u, 0x14u},
1583:Generated_Source\PSoC5/cyfitter_cfg.c **** 			{0x14u, 0x01u},
1584:Generated_Source\PSoC5/cyfitter_cfg.c **** 			{0x15u, 0x0Du},
1585:Generated_Source\PSoC5/cyfitter_cfg.c **** 			{0x16u, 0x18u},
1586:Generated_Source\PSoC5/cyfitter_cfg.c **** 			{0x18u, 0x19u},
1587:Generated_Source\PSoC5/cyfitter_cfg.c **** 			{0x19u, 0x02u},
1588:Generated_Source\PSoC5/cyfitter_cfg.c **** 			{0x1Bu, 0x0Du},
1589:Generated_Source\PSoC5/cyfitter_cfg.c **** 			{0x1Cu, 0x3Eu},
1590:Generated_Source\PSoC5/cyfitter_cfg.c **** 			{0x1Du, 0x0Du},
1591:Generated_Source\PSoC5/cyfitter_cfg.c **** 			{0x1Eu, 0x01u},
ARM GAS  C:\Users\Admin\AppData\Local\Temp\ccd3RvSG.s 			page 41


1592:Generated_Source\PSoC5/cyfitter_cfg.c **** 			{0x21u, 0x0Du},
1593:Generated_Source\PSoC5/cyfitter_cfg.c **** 			{0x24u, 0x18u},
1594:Generated_Source\PSoC5/cyfitter_cfg.c **** 			{0x25u, 0x0Du},
1595:Generated_Source\PSoC5/cyfitter_cfg.c **** 			{0x26u, 0x01u},
1596:Generated_Source\PSoC5/cyfitter_cfg.c **** 			{0x28u, 0x19u},
1597:Generated_Source\PSoC5/cyfitter_cfg.c **** 			{0x29u, 0x0Du},
1598:Generated_Source\PSoC5/cyfitter_cfg.c **** 			{0x2Cu, 0x24u},
1599:Generated_Source\PSoC5/cyfitter_cfg.c **** 			{0x2Du, 0x51u},
1600:Generated_Source\PSoC5/cyfitter_cfg.c **** 			{0x2Eu, 0x19u},
1601:Generated_Source\PSoC5/cyfitter_cfg.c **** 			{0x2Fu, 0x22u},
1602:Generated_Source\PSoC5/cyfitter_cfg.c **** 			{0x30u, 0x0Fu},
1603:Generated_Source\PSoC5/cyfitter_cfg.c **** 			{0x33u, 0x70u},
1604:Generated_Source\PSoC5/cyfitter_cfg.c **** 			{0x34u, 0x11u},
1605:Generated_Source\PSoC5/cyfitter_cfg.c **** 			{0x35u, 0x0Fu},
1606:Generated_Source\PSoC5/cyfitter_cfg.c **** 			{0x36u, 0x20u},
1607:Generated_Source\PSoC5/cyfitter_cfg.c **** 			{0x37u, 0x80u},
1608:Generated_Source\PSoC5/cyfitter_cfg.c **** 			{0x39u, 0x08u},
1609:Generated_Source\PSoC5/cyfitter_cfg.c **** 			{0x3Au, 0x03u},
1610:Generated_Source\PSoC5/cyfitter_cfg.c **** 			{0x3Bu, 0x20u},
1611:Generated_Source\PSoC5/cyfitter_cfg.c **** 			{0x3Eu, 0x40u},
1612:Generated_Source\PSoC5/cyfitter_cfg.c **** 			{0x3Fu, 0x40u},
1613:Generated_Source\PSoC5/cyfitter_cfg.c **** 			{0x54u, 0x09u},
1614:Generated_Source\PSoC5/cyfitter_cfg.c **** 			{0x56u, 0x04u},
1615:Generated_Source\PSoC5/cyfitter_cfg.c **** 			{0x58u, 0x04u},
1616:Generated_Source\PSoC5/cyfitter_cfg.c **** 			{0x59u, 0x04u},
1617:Generated_Source\PSoC5/cyfitter_cfg.c **** 			{0x5Bu, 0x04u},
1618:Generated_Source\PSoC5/cyfitter_cfg.c **** 			{0x5Cu, 0x22u},
1619:Generated_Source\PSoC5/cyfitter_cfg.c **** 			{0x5Du, 0x20u},
1620:Generated_Source\PSoC5/cyfitter_cfg.c **** 			{0x5Fu, 0x01u},
1621:Generated_Source\PSoC5/cyfitter_cfg.c **** 			{0xD8u, 0x04u},
1622:Generated_Source\PSoC5/cyfitter_cfg.c **** 			{0xD9u, 0x04u},
1623:Generated_Source\PSoC5/cyfitter_cfg.c **** 			{0xDCu, 0x44u},
1624:Generated_Source\PSoC5/cyfitter_cfg.c **** 			{0xDFu, 0x01u},
1625:Generated_Source\PSoC5/cyfitter_cfg.c **** 			{0x00u, 0x04u},
1626:Generated_Source\PSoC5/cyfitter_cfg.c **** 			{0x03u, 0x02u},
1627:Generated_Source\PSoC5/cyfitter_cfg.c **** 			{0x05u, 0xA2u},
1628:Generated_Source\PSoC5/cyfitter_cfg.c **** 			{0x06u, 0x20u},
1629:Generated_Source\PSoC5/cyfitter_cfg.c **** 			{0x08u, 0x20u},
1630:Generated_Source\PSoC5/cyfitter_cfg.c **** 			{0x09u, 0x08u},
1631:Generated_Source\PSoC5/cyfitter_cfg.c **** 			{0x0Au, 0x80u},
1632:Generated_Source\PSoC5/cyfitter_cfg.c **** 			{0x0Bu, 0x01u},
1633:Generated_Source\PSoC5/cyfitter_cfg.c **** 			{0x0Fu, 0x40u},
1634:Generated_Source\PSoC5/cyfitter_cfg.c **** 			{0x10u, 0x34u},
1635:Generated_Source\PSoC5/cyfitter_cfg.c **** 			{0x12u, 0x02u},
1636:Generated_Source\PSoC5/cyfitter_cfg.c **** 			{0x15u, 0x05u},
1637:Generated_Source\PSoC5/cyfitter_cfg.c **** 			{0x17u, 0x08u},
1638:Generated_Source\PSoC5/cyfitter_cfg.c **** 			{0x18u, 0x85u},
1639:Generated_Source\PSoC5/cyfitter_cfg.c **** 			{0x1Au, 0x04u},
1640:Generated_Source\PSoC5/cyfitter_cfg.c **** 			{0x20u, 0x02u},
1641:Generated_Source\PSoC5/cyfitter_cfg.c **** 			{0x21u, 0x24u},
1642:Generated_Source\PSoC5/cyfitter_cfg.c **** 			{0x23u, 0x20u},
1643:Generated_Source\PSoC5/cyfitter_cfg.c **** 			{0x28u, 0x14u},
1644:Generated_Source\PSoC5/cyfitter_cfg.c **** 			{0x2Au, 0x82u},
1645:Generated_Source\PSoC5/cyfitter_cfg.c **** 			{0x2Du, 0x84u},
1646:Generated_Source\PSoC5/cyfitter_cfg.c **** 			{0x31u, 0x28u},
1647:Generated_Source\PSoC5/cyfitter_cfg.c **** 			{0x32u, 0x42u},
1648:Generated_Source\PSoC5/cyfitter_cfg.c **** 			{0x35u, 0x22u},
ARM GAS  C:\Users\Admin\AppData\Local\Temp\ccd3RvSG.s 			page 42


1649:Generated_Source\PSoC5/cyfitter_cfg.c **** 			{0x39u, 0x58u},
1650:Generated_Source\PSoC5/cyfitter_cfg.c **** 			{0x3Bu, 0x01u},
1651:Generated_Source\PSoC5/cyfitter_cfg.c **** 			{0x3Du, 0x01u},
1652:Generated_Source\PSoC5/cyfitter_cfg.c **** 			{0x3Eu, 0x20u},
1653:Generated_Source\PSoC5/cyfitter_cfg.c **** 			{0x3Fu, 0x40u},
1654:Generated_Source\PSoC5/cyfitter_cfg.c **** 			{0x58u, 0x08u},
1655:Generated_Source\PSoC5/cyfitter_cfg.c **** 			{0x5Bu, 0x92u},
1656:Generated_Source\PSoC5/cyfitter_cfg.c **** 			{0x60u, 0x01u},
1657:Generated_Source\PSoC5/cyfitter_cfg.c **** 			{0x63u, 0x80u},
1658:Generated_Source\PSoC5/cyfitter_cfg.c **** 			{0x68u, 0x04u},
1659:Generated_Source\PSoC5/cyfitter_cfg.c **** 			{0x69u, 0x50u},
1660:Generated_Source\PSoC5/cyfitter_cfg.c **** 			{0x6Bu, 0x04u},
1661:Generated_Source\PSoC5/cyfitter_cfg.c **** 			{0x80u, 0x60u},
1662:Generated_Source\PSoC5/cyfitter_cfg.c **** 			{0x82u, 0x42u},
1663:Generated_Source\PSoC5/cyfitter_cfg.c **** 			{0x83u, 0x01u},
1664:Generated_Source\PSoC5/cyfitter_cfg.c **** 			{0x84u, 0x01u},
1665:Generated_Source\PSoC5/cyfitter_cfg.c **** 			{0x86u, 0x84u},
1666:Generated_Source\PSoC5/cyfitter_cfg.c **** 			{0x87u, 0x02u},
1667:Generated_Source\PSoC5/cyfitter_cfg.c **** 			{0x88u, 0x2Cu},
1668:Generated_Source\PSoC5/cyfitter_cfg.c **** 			{0x8Bu, 0x40u},
1669:Generated_Source\PSoC5/cyfitter_cfg.c **** 			{0x8Du, 0x08u},
1670:Generated_Source\PSoC5/cyfitter_cfg.c **** 			{0x8Fu, 0x12u},
1671:Generated_Source\PSoC5/cyfitter_cfg.c **** 			{0x91u, 0x01u},
1672:Generated_Source\PSoC5/cyfitter_cfg.c **** 			{0x94u, 0x84u},
1673:Generated_Source\PSoC5/cyfitter_cfg.c **** 			{0x95u, 0x40u},
1674:Generated_Source\PSoC5/cyfitter_cfg.c **** 			{0x97u, 0x40u},
1675:Generated_Source\PSoC5/cyfitter_cfg.c **** 			{0x99u, 0xA2u},
1676:Generated_Source\PSoC5/cyfitter_cfg.c **** 			{0x9Au, 0x20u},
1677:Generated_Source\PSoC5/cyfitter_cfg.c **** 			{0x9Bu, 0x88u},
1678:Generated_Source\PSoC5/cyfitter_cfg.c **** 			{0x9Fu, 0x24u},
1679:Generated_Source\PSoC5/cyfitter_cfg.c **** 			{0xA2u, 0x02u},
1680:Generated_Source\PSoC5/cyfitter_cfg.c **** 			{0xA4u, 0x04u},
1681:Generated_Source\PSoC5/cyfitter_cfg.c **** 			{0xA7u, 0x40u},
1682:Generated_Source\PSoC5/cyfitter_cfg.c **** 			{0xA9u, 0x04u},
1683:Generated_Source\PSoC5/cyfitter_cfg.c **** 			{0xAAu, 0x80u},
1684:Generated_Source\PSoC5/cyfitter_cfg.c **** 			{0xABu, 0x08u},
1685:Generated_Source\PSoC5/cyfitter_cfg.c **** 			{0xAEu, 0x20u},
1686:Generated_Source\PSoC5/cyfitter_cfg.c **** 			{0xAFu, 0x12u},
1687:Generated_Source\PSoC5/cyfitter_cfg.c **** 			{0xB0u, 0x10u},
1688:Generated_Source\PSoC5/cyfitter_cfg.c **** 			{0xB1u, 0x12u},
1689:Generated_Source\PSoC5/cyfitter_cfg.c **** 			{0xB2u, 0x01u},
1690:Generated_Source\PSoC5/cyfitter_cfg.c **** 			{0xC0u, 0xF5u},
1691:Generated_Source\PSoC5/cyfitter_cfg.c **** 			{0xC2u, 0x1Fu},
1692:Generated_Source\PSoC5/cyfitter_cfg.c **** 			{0xC4u, 0x37u},
1693:Generated_Source\PSoC5/cyfitter_cfg.c **** 			{0xCAu, 0x5Fu},
1694:Generated_Source\PSoC5/cyfitter_cfg.c **** 			{0xCCu, 0xAFu},
1695:Generated_Source\PSoC5/cyfitter_cfg.c **** 			{0xCEu, 0xBFu},
1696:Generated_Source\PSoC5/cyfitter_cfg.c **** 			{0xD6u, 0x0Fu},
1697:Generated_Source\PSoC5/cyfitter_cfg.c **** 			{0xD8u, 0x09u},
1698:Generated_Source\PSoC5/cyfitter_cfg.c **** 			{0xE0u, 0x03u},
1699:Generated_Source\PSoC5/cyfitter_cfg.c **** 			{0xE6u, 0x07u},
1700:Generated_Source\PSoC5/cyfitter_cfg.c **** 			{0xEAu, 0x0Eu},
1701:Generated_Source\PSoC5/cyfitter_cfg.c **** 			{0xECu, 0x02u},
1702:Generated_Source\PSoC5/cyfitter_cfg.c **** 			{0x02u, 0x10u},
1703:Generated_Source\PSoC5/cyfitter_cfg.c **** 			{0x0Cu, 0x01u},
1704:Generated_Source\PSoC5/cyfitter_cfg.c **** 			{0x0Eu, 0x02u},
1705:Generated_Source\PSoC5/cyfitter_cfg.c **** 			{0x14u, 0x01u},
ARM GAS  C:\Users\Admin\AppData\Local\Temp\ccd3RvSG.s 			page 43


1706:Generated_Source\PSoC5/cyfitter_cfg.c **** 			{0x16u, 0x06u},
1707:Generated_Source\PSoC5/cyfitter_cfg.c **** 			{0x18u, 0x02u},
1708:Generated_Source\PSoC5/cyfitter_cfg.c **** 			{0x1Au, 0x01u},
1709:Generated_Source\PSoC5/cyfitter_cfg.c **** 			{0x1Cu, 0x01u},
1710:Generated_Source\PSoC5/cyfitter_cfg.c **** 			{0x1Eu, 0x0Au},
1711:Generated_Source\PSoC5/cyfitter_cfg.c **** 			{0x30u, 0x04u},
1712:Generated_Source\PSoC5/cyfitter_cfg.c **** 			{0x32u, 0x08u},
1713:Generated_Source\PSoC5/cyfitter_cfg.c **** 			{0x34u, 0x03u},
1714:Generated_Source\PSoC5/cyfitter_cfg.c **** 			{0x36u, 0x10u},
1715:Generated_Source\PSoC5/cyfitter_cfg.c **** 			{0x3Au, 0x20u},
1716:Generated_Source\PSoC5/cyfitter_cfg.c **** 			{0x58u, 0x04u},
1717:Generated_Source\PSoC5/cyfitter_cfg.c **** 			{0x59u, 0x04u},
1718:Generated_Source\PSoC5/cyfitter_cfg.c **** 			{0x5Cu, 0x41u},
1719:Generated_Source\PSoC5/cyfitter_cfg.c **** 			{0x5Fu, 0x01u},
1720:Generated_Source\PSoC5/cyfitter_cfg.c **** 			{0x80u, 0x0Au},
1721:Generated_Source\PSoC5/cyfitter_cfg.c **** 			{0x82u, 0x54u},
1722:Generated_Source\PSoC5/cyfitter_cfg.c **** 			{0x83u, 0x08u},
1723:Generated_Source\PSoC5/cyfitter_cfg.c **** 			{0x84u, 0x80u},
1724:Generated_Source\PSoC5/cyfitter_cfg.c **** 			{0x87u, 0x20u},
1725:Generated_Source\PSoC5/cyfitter_cfg.c **** 			{0x89u, 0x0Cu},
1726:Generated_Source\PSoC5/cyfitter_cfg.c **** 			{0x8Bu, 0x03u},
1727:Generated_Source\PSoC5/cyfitter_cfg.c **** 			{0x8Cu, 0x03u},
1728:Generated_Source\PSoC5/cyfitter_cfg.c **** 			{0x8Eu, 0x44u},
1729:Generated_Source\PSoC5/cyfitter_cfg.c **** 			{0x8Fu, 0x20u},
1730:Generated_Source\PSoC5/cyfitter_cfg.c **** 			{0x90u, 0x53u},
1731:Generated_Source\PSoC5/cyfitter_cfg.c **** 			{0x91u, 0x20u},
1732:Generated_Source\PSoC5/cyfitter_cfg.c **** 			{0x92u, 0x0Cu},
1733:Generated_Source\PSoC5/cyfitter_cfg.c **** 			{0x94u, 0x20u},
1734:Generated_Source\PSoC5/cyfitter_cfg.c **** 			{0x96u, 0x45u},
1735:Generated_Source\PSoC5/cyfitter_cfg.c **** 			{0x97u, 0x10u},
1736:Generated_Source\PSoC5/cyfitter_cfg.c **** 			{0x9Bu, 0x0Cu},
1737:Generated_Source\PSoC5/cyfitter_cfg.c **** 			{0x9Du, 0x01u},
1738:Generated_Source\PSoC5/cyfitter_cfg.c **** 			{0x9Eu, 0x08u},
1739:Generated_Source\PSoC5/cyfitter_cfg.c **** 			{0x9Fu, 0x0Eu},
1740:Generated_Source\PSoC5/cyfitter_cfg.c **** 			{0xA0u, 0x53u},
1741:Generated_Source\PSoC5/cyfitter_cfg.c **** 			{0xA1u, 0x01u},
1742:Generated_Source\PSoC5/cyfitter_cfg.c **** 			{0xA2u, 0x04u},
1743:Generated_Source\PSoC5/cyfitter_cfg.c **** 			{0xA3u, 0x06u},
1744:Generated_Source\PSoC5/cyfitter_cfg.c **** 			{0xA7u, 0x10u},
1745:Generated_Source\PSoC5/cyfitter_cfg.c **** 			{0xAAu, 0x80u},
1746:Generated_Source\PSoC5/cyfitter_cfg.c **** 			{0xABu, 0x03u},
1747:Generated_Source\PSoC5/cyfitter_cfg.c **** 			{0xACu, 0x80u},
1748:Generated_Source\PSoC5/cyfitter_cfg.c **** 			{0xADu, 0x10u},
1749:Generated_Source\PSoC5/cyfitter_cfg.c **** 			{0xB0u, 0x0Fu},
1750:Generated_Source\PSoC5/cyfitter_cfg.c **** 			{0xB1u, 0x20u},
1751:Generated_Source\PSoC5/cyfitter_cfg.c **** 			{0xB2u, 0x80u},
1752:Generated_Source\PSoC5/cyfitter_cfg.c **** 			{0xB4u, 0x40u},
1753:Generated_Source\PSoC5/cyfitter_cfg.c **** 			{0xB5u, 0x10u},
1754:Generated_Source\PSoC5/cyfitter_cfg.c **** 			{0xB6u, 0x30u},
1755:Generated_Source\PSoC5/cyfitter_cfg.c **** 			{0xB7u, 0x0Fu},
1756:Generated_Source\PSoC5/cyfitter_cfg.c **** 			{0xB8u, 0x80u},
1757:Generated_Source\PSoC5/cyfitter_cfg.c **** 			{0xBAu, 0x02u},
1758:Generated_Source\PSoC5/cyfitter_cfg.c **** 			{0xBBu, 0x80u},
1759:Generated_Source\PSoC5/cyfitter_cfg.c **** 			{0xBEu, 0x14u},
1760:Generated_Source\PSoC5/cyfitter_cfg.c **** 			{0xBFu, 0x11u},
1761:Generated_Source\PSoC5/cyfitter_cfg.c **** 			{0xD4u, 0x01u},
1762:Generated_Source\PSoC5/cyfitter_cfg.c **** 			{0xD8u, 0x04u},
ARM GAS  C:\Users\Admin\AppData\Local\Temp\ccd3RvSG.s 			page 44


1763:Generated_Source\PSoC5/cyfitter_cfg.c **** 			{0xD9u, 0x04u},
1764:Generated_Source\PSoC5/cyfitter_cfg.c **** 			{0xDBu, 0x04u},
1765:Generated_Source\PSoC5/cyfitter_cfg.c **** 			{0xDCu, 0x33u},
1766:Generated_Source\PSoC5/cyfitter_cfg.c **** 			{0xDDu, 0x30u},
1767:Generated_Source\PSoC5/cyfitter_cfg.c **** 			{0xDFu, 0x01u},
1768:Generated_Source\PSoC5/cyfitter_cfg.c **** 			{0x00u, 0x0Au},
1769:Generated_Source\PSoC5/cyfitter_cfg.c **** 			{0x03u, 0x02u},
1770:Generated_Source\PSoC5/cyfitter_cfg.c **** 			{0x04u, 0x40u},
1771:Generated_Source\PSoC5/cyfitter_cfg.c **** 			{0x06u, 0x80u},
1772:Generated_Source\PSoC5/cyfitter_cfg.c **** 			{0x08u, 0x08u},
1773:Generated_Source\PSoC5/cyfitter_cfg.c **** 			{0x0Au, 0x42u},
1774:Generated_Source\PSoC5/cyfitter_cfg.c **** 			{0x0Du, 0x08u},
1775:Generated_Source\PSoC5/cyfitter_cfg.c **** 			{0x0Eu, 0x05u},
1776:Generated_Source\PSoC5/cyfitter_cfg.c **** 			{0x10u, 0x01u},
1777:Generated_Source\PSoC5/cyfitter_cfg.c **** 			{0x11u, 0x40u},
1778:Generated_Source\PSoC5/cyfitter_cfg.c **** 			{0x12u, 0x84u},
1779:Generated_Source\PSoC5/cyfitter_cfg.c **** 			{0x13u, 0x20u},
1780:Generated_Source\PSoC5/cyfitter_cfg.c **** 			{0x18u, 0x08u},
1781:Generated_Source\PSoC5/cyfitter_cfg.c **** 			{0x19u, 0x01u},
1782:Generated_Source\PSoC5/cyfitter_cfg.c **** 			{0x1Au, 0x42u},
1783:Generated_Source\PSoC5/cyfitter_cfg.c **** 			{0x1Bu, 0x04u},
1784:Generated_Source\PSoC5/cyfitter_cfg.c **** 			{0x1Cu, 0x40u},
1785:Generated_Source\PSoC5/cyfitter_cfg.c **** 			{0x1Du, 0x08u},
1786:Generated_Source\PSoC5/cyfitter_cfg.c **** 			{0x1Eu, 0x05u},
1787:Generated_Source\PSoC5/cyfitter_cfg.c **** 			{0x1Fu, 0x20u},
1788:Generated_Source\PSoC5/cyfitter_cfg.c **** 			{0x20u, 0x02u},
1789:Generated_Source\PSoC5/cyfitter_cfg.c **** 			{0x22u, 0x20u},
1790:Generated_Source\PSoC5/cyfitter_cfg.c **** 			{0x23u, 0x82u},
1791:Generated_Source\PSoC5/cyfitter_cfg.c **** 			{0x28u, 0x09u},
1792:Generated_Source\PSoC5/cyfitter_cfg.c **** 			{0x29u, 0x01u},
1793:Generated_Source\PSoC5/cyfitter_cfg.c **** 			{0x2Au, 0x04u},
1794:Generated_Source\PSoC5/cyfitter_cfg.c **** 			{0x2Cu, 0x02u},
1795:Generated_Source\PSoC5/cyfitter_cfg.c **** 			{0x2Du, 0x90u},
1796:Generated_Source\PSoC5/cyfitter_cfg.c **** 			{0x30u, 0x10u},
1797:Generated_Source\PSoC5/cyfitter_cfg.c **** 			{0x32u, 0x82u},
1798:Generated_Source\PSoC5/cyfitter_cfg.c **** 			{0x33u, 0x04u},
1799:Generated_Source\PSoC5/cyfitter_cfg.c **** 			{0x35u, 0x20u},
1800:Generated_Source\PSoC5/cyfitter_cfg.c **** 			{0x37u, 0x08u},
1801:Generated_Source\PSoC5/cyfitter_cfg.c **** 			{0x38u, 0x84u},
1802:Generated_Source\PSoC5/cyfitter_cfg.c **** 			{0x3Au, 0x02u},
1803:Generated_Source\PSoC5/cyfitter_cfg.c **** 			{0x3Bu, 0x20u},
1804:Generated_Source\PSoC5/cyfitter_cfg.c **** 			{0x3Du, 0x01u},
1805:Generated_Source\PSoC5/cyfitter_cfg.c **** 			{0x3Eu, 0x20u},
1806:Generated_Source\PSoC5/cyfitter_cfg.c **** 			{0x3Fu, 0x40u},
1807:Generated_Source\PSoC5/cyfitter_cfg.c **** 			{0x58u, 0x80u},
1808:Generated_Source\PSoC5/cyfitter_cfg.c **** 			{0x59u, 0x08u},
1809:Generated_Source\PSoC5/cyfitter_cfg.c **** 			{0x5Bu, 0x11u},
1810:Generated_Source\PSoC5/cyfitter_cfg.c **** 			{0x82u, 0xA2u},
1811:Generated_Source\PSoC5/cyfitter_cfg.c **** 			{0x83u, 0x12u},
1812:Generated_Source\PSoC5/cyfitter_cfg.c **** 			{0x88u, 0x08u},
1813:Generated_Source\PSoC5/cyfitter_cfg.c **** 			{0x8Bu, 0x01u},
1814:Generated_Source\PSoC5/cyfitter_cfg.c **** 			{0x8Cu, 0x84u},
1815:Generated_Source\PSoC5/cyfitter_cfg.c **** 			{0x8Fu, 0x44u},
1816:Generated_Source\PSoC5/cyfitter_cfg.c **** 			{0x91u, 0x01u},
1817:Generated_Source\PSoC5/cyfitter_cfg.c **** 			{0x95u, 0x10u},
1818:Generated_Source\PSoC5/cyfitter_cfg.c **** 			{0x96u, 0x02u},
1819:Generated_Source\PSoC5/cyfitter_cfg.c **** 			{0x97u, 0x40u},
ARM GAS  C:\Users\Admin\AppData\Local\Temp\ccd3RvSG.s 			page 45


1820:Generated_Source\PSoC5/cyfitter_cfg.c **** 			{0x98u, 0x08u},
1821:Generated_Source\PSoC5/cyfitter_cfg.c **** 			{0x99u, 0x28u},
1822:Generated_Source\PSoC5/cyfitter_cfg.c **** 			{0x9Au, 0x02u},
1823:Generated_Source\PSoC5/cyfitter_cfg.c **** 			{0x9Du, 0x01u},
1824:Generated_Source\PSoC5/cyfitter_cfg.c **** 			{0xA0u, 0x0Au},
1825:Generated_Source\PSoC5/cyfitter_cfg.c **** 			{0xA5u, 0x04u},
1826:Generated_Source\PSoC5/cyfitter_cfg.c **** 			{0xA7u, 0x20u},
1827:Generated_Source\PSoC5/cyfitter_cfg.c **** 			{0xAAu, 0x40u},
1828:Generated_Source\PSoC5/cyfitter_cfg.c **** 			{0xADu, 0x01u},
1829:Generated_Source\PSoC5/cyfitter_cfg.c **** 			{0xB5u, 0x80u},
1830:Generated_Source\PSoC5/cyfitter_cfg.c **** 			{0xC0u, 0x9Du},
1831:Generated_Source\PSoC5/cyfitter_cfg.c **** 			{0xC2u, 0xEDu},
1832:Generated_Source\PSoC5/cyfitter_cfg.c **** 			{0xC4u, 0x0Bu},
1833:Generated_Source\PSoC5/cyfitter_cfg.c **** 			{0xCAu, 0x3Fu},
1834:Generated_Source\PSoC5/cyfitter_cfg.c **** 			{0xCCu, 0x6Fu},
1835:Generated_Source\PSoC5/cyfitter_cfg.c **** 			{0xCEu, 0xBFu},
1836:Generated_Source\PSoC5/cyfitter_cfg.c **** 			{0xD6u, 0x0Fu},
1837:Generated_Source\PSoC5/cyfitter_cfg.c **** 			{0xE0u, 0x20u},
1838:Generated_Source\PSoC5/cyfitter_cfg.c **** 			{0xE2u, 0x45u},
1839:Generated_Source\PSoC5/cyfitter_cfg.c **** 			{0xE4u, 0x08u},
1840:Generated_Source\PSoC5/cyfitter_cfg.c **** 			{0xE6u, 0x44u},
1841:Generated_Source\PSoC5/cyfitter_cfg.c **** 			{0xEAu, 0x1Au},
1842:Generated_Source\PSoC5/cyfitter_cfg.c **** 			{0x03u, 0x40u},
1843:Generated_Source\PSoC5/cyfitter_cfg.c **** 			{0x04u, 0x02u},
1844:Generated_Source\PSoC5/cyfitter_cfg.c **** 			{0x05u, 0x83u},
1845:Generated_Source\PSoC5/cyfitter_cfg.c **** 			{0x07u, 0x0Cu},
1846:Generated_Source\PSoC5/cyfitter_cfg.c **** 			{0x0Au, 0x60u},
1847:Generated_Source\PSoC5/cyfitter_cfg.c **** 			{0x0Cu, 0xA3u},
1848:Generated_Source\PSoC5/cyfitter_cfg.c **** 			{0x0Du, 0x70u},
1849:Generated_Source\PSoC5/cyfitter_cfg.c **** 			{0x0Eu, 0x4Cu},
1850:Generated_Source\PSoC5/cyfitter_cfg.c **** 			{0x10u, 0x02u},
1851:Generated_Source\PSoC5/cyfitter_cfg.c **** 			{0x11u, 0x70u},
1852:Generated_Source\PSoC5/cyfitter_cfg.c **** 			{0x12u, 0x10u},
1853:Generated_Source\PSoC5/cyfitter_cfg.c **** 			{0x14u, 0x10u},
1854:Generated_Source\PSoC5/cyfitter_cfg.c **** 			{0x15u, 0x81u},
1855:Generated_Source\PSoC5/cyfitter_cfg.c **** 			{0x16u, 0x02u},
1856:Generated_Source\PSoC5/cyfitter_cfg.c **** 			{0x17u, 0x1Au},
1857:Generated_Source\PSoC5/cyfitter_cfg.c **** 			{0x19u, 0x70u},
1858:Generated_Source\PSoC5/cyfitter_cfg.c **** 			{0x1Au, 0x80u},
1859:Generated_Source\PSoC5/cyfitter_cfg.c **** 			{0x1Cu, 0x12u},
1860:Generated_Source\PSoC5/cyfitter_cfg.c **** 			{0x1Du, 0x02u},
1861:Generated_Source\PSoC5/cyfitter_cfg.c **** 			{0x1Fu, 0x1Du},
1862:Generated_Source\PSoC5/cyfitter_cfg.c **** 			{0x20u, 0x41u},
1863:Generated_Source\PSoC5/cyfitter_cfg.c **** 			{0x21u, 0x03u},
1864:Generated_Source\PSoC5/cyfitter_cfg.c **** 			{0x22u, 0x94u},
1865:Generated_Source\PSoC5/cyfitter_cfg.c **** 			{0x23u, 0x94u},
1866:Generated_Source\PSoC5/cyfitter_cfg.c **** 			{0x24u, 0xC3u},
1867:Generated_Source\PSoC5/cyfitter_cfg.c **** 			{0x26u, 0x38u},
1868:Generated_Source\PSoC5/cyfitter_cfg.c **** 			{0x28u, 0x12u},
1869:Generated_Source\PSoC5/cyfitter_cfg.c **** 			{0x29u, 0x70u},
1870:Generated_Source\PSoC5/cyfitter_cfg.c **** 			{0x2Cu, 0x12u},
1871:Generated_Source\PSoC5/cyfitter_cfg.c **** 			{0x2Fu, 0x70u},
1872:Generated_Source\PSoC5/cyfitter_cfg.c **** 			{0x30u, 0x1Fu},
1873:Generated_Source\PSoC5/cyfitter_cfg.c **** 			{0x31u, 0x80u},
1874:Generated_Source\PSoC5/cyfitter_cfg.c **** 			{0x32u, 0xE0u},
1875:Generated_Source\PSoC5/cyfitter_cfg.c **** 			{0x33u, 0x40u},
1876:Generated_Source\PSoC5/cyfitter_cfg.c **** 			{0x35u, 0x20u},
ARM GAS  C:\Users\Admin\AppData\Local\Temp\ccd3RvSG.s 			page 46


1877:Generated_Source\PSoC5/cyfitter_cfg.c **** 			{0x37u, 0x1Fu},
1878:Generated_Source\PSoC5/cyfitter_cfg.c **** 			{0x38u, 0x02u},
1879:Generated_Source\PSoC5/cyfitter_cfg.c **** 			{0x39u, 0x02u},
1880:Generated_Source\PSoC5/cyfitter_cfg.c **** 			{0x3Bu, 0x80u},
1881:Generated_Source\PSoC5/cyfitter_cfg.c **** 			{0x3Fu, 0x14u},
1882:Generated_Source\PSoC5/cyfitter_cfg.c **** 			{0x56u, 0x02u},
1883:Generated_Source\PSoC5/cyfitter_cfg.c **** 			{0x57u, 0x3Au},
1884:Generated_Source\PSoC5/cyfitter_cfg.c **** 			{0x58u, 0x04u},
1885:Generated_Source\PSoC5/cyfitter_cfg.c **** 			{0x59u, 0x04u},
1886:Generated_Source\PSoC5/cyfitter_cfg.c **** 			{0x5Bu, 0x0Fu},
1887:Generated_Source\PSoC5/cyfitter_cfg.c **** 			{0x5Cu, 0x22u},
1888:Generated_Source\PSoC5/cyfitter_cfg.c **** 			{0x5Du, 0x40u},
1889:Generated_Source\PSoC5/cyfitter_cfg.c **** 			{0x5Fu, 0x01u},
1890:Generated_Source\PSoC5/cyfitter_cfg.c **** 			{0xD8u, 0x04u},
1891:Generated_Source\PSoC5/cyfitter_cfg.c **** 			{0xD9u, 0x04u},
1892:Generated_Source\PSoC5/cyfitter_cfg.c **** 			{0xDCu, 0x44u},
1893:Generated_Source\PSoC5/cyfitter_cfg.c **** 			{0xDFu, 0x01u},
1894:Generated_Source\PSoC5/cyfitter_cfg.c **** 			{0x00u, 0x08u},
1895:Generated_Source\PSoC5/cyfitter_cfg.c **** 			{0x01u, 0x40u},
1896:Generated_Source\PSoC5/cyfitter_cfg.c **** 			{0x04u, 0x10u},
1897:Generated_Source\PSoC5/cyfitter_cfg.c **** 			{0x05u, 0x80u},
1898:Generated_Source\PSoC5/cyfitter_cfg.c **** 			{0x06u, 0x20u},
1899:Generated_Source\PSoC5/cyfitter_cfg.c **** 			{0x08u, 0x04u},
1900:Generated_Source\PSoC5/cyfitter_cfg.c **** 			{0x0Bu, 0x08u},
1901:Generated_Source\PSoC5/cyfitter_cfg.c **** 			{0x0Cu, 0x08u},
1902:Generated_Source\PSoC5/cyfitter_cfg.c **** 			{0x0Eu, 0x42u},
1903:Generated_Source\PSoC5/cyfitter_cfg.c **** 			{0x0Fu, 0x08u},
1904:Generated_Source\PSoC5/cyfitter_cfg.c **** 			{0x10u, 0x90u},
1905:Generated_Source\PSoC5/cyfitter_cfg.c **** 			{0x12u, 0x48u},
1906:Generated_Source\PSoC5/cyfitter_cfg.c **** 			{0x15u, 0x01u},
1907:Generated_Source\PSoC5/cyfitter_cfg.c **** 			{0x16u, 0x81u},
1908:Generated_Source\PSoC5/cyfitter_cfg.c **** 			{0x17u, 0x14u},
1909:Generated_Source\PSoC5/cyfitter_cfg.c **** 			{0x1Cu, 0x10u},
1910:Generated_Source\PSoC5/cyfitter_cfg.c **** 			{0x1Du, 0x02u},
1911:Generated_Source\PSoC5/cyfitter_cfg.c **** 			{0x25u, 0x18u},
1912:Generated_Source\PSoC5/cyfitter_cfg.c **** 			{0x26u, 0xA2u},
1913:Generated_Source\PSoC5/cyfitter_cfg.c **** 			{0x28u, 0x04u},
1914:Generated_Source\PSoC5/cyfitter_cfg.c **** 			{0x2Au, 0x40u},
1915:Generated_Source\PSoC5/cyfitter_cfg.c **** 			{0x2Cu, 0x08u},
1916:Generated_Source\PSoC5/cyfitter_cfg.c **** 			{0x2Du, 0x01u},
1917:Generated_Source\PSoC5/cyfitter_cfg.c **** 			{0x2Eu, 0x40u},
1918:Generated_Source\PSoC5/cyfitter_cfg.c **** 			{0x30u, 0x10u},
1919:Generated_Source\PSoC5/cyfitter_cfg.c **** 			{0x31u, 0x21u},
1920:Generated_Source\PSoC5/cyfitter_cfg.c **** 			{0x34u, 0x80u},
1921:Generated_Source\PSoC5/cyfitter_cfg.c **** 			{0x36u, 0x81u},
1922:Generated_Source\PSoC5/cyfitter_cfg.c **** 			{0x37u, 0x14u},
1923:Generated_Source\PSoC5/cyfitter_cfg.c **** 			{0x39u, 0x40u},
1924:Generated_Source\PSoC5/cyfitter_cfg.c **** 			{0x3Bu, 0x28u},
1925:Generated_Source\PSoC5/cyfitter_cfg.c **** 			{0x3Cu, 0x80u},
1926:Generated_Source\PSoC5/cyfitter_cfg.c **** 			{0x3Du, 0x08u},
1927:Generated_Source\PSoC5/cyfitter_cfg.c **** 			{0x3Fu, 0x03u},
1928:Generated_Source\PSoC5/cyfitter_cfg.c **** 			{0x5Fu, 0x08u},
1929:Generated_Source\PSoC5/cyfitter_cfg.c **** 			{0x61u, 0x0Cu},
1930:Generated_Source\PSoC5/cyfitter_cfg.c **** 			{0x65u, 0x08u},
1931:Generated_Source\PSoC5/cyfitter_cfg.c **** 			{0x6Du, 0x90u},
1932:Generated_Source\PSoC5/cyfitter_cfg.c **** 			{0x6Eu, 0x08u},
1933:Generated_Source\PSoC5/cyfitter_cfg.c **** 			{0x6Fu, 0x40u},
ARM GAS  C:\Users\Admin\AppData\Local\Temp\ccd3RvSG.s 			page 47


1934:Generated_Source\PSoC5/cyfitter_cfg.c **** 			{0x76u, 0x0Au},
1935:Generated_Source\PSoC5/cyfitter_cfg.c **** 			{0x7Eu, 0x40u},
1936:Generated_Source\PSoC5/cyfitter_cfg.c **** 			{0x80u, 0x03u},
1937:Generated_Source\PSoC5/cyfitter_cfg.c **** 			{0x81u, 0x02u},
1938:Generated_Source\PSoC5/cyfitter_cfg.c **** 			{0x82u, 0x80u},
1939:Generated_Source\PSoC5/cyfitter_cfg.c **** 			{0x88u, 0x02u},
1940:Generated_Source\PSoC5/cyfitter_cfg.c **** 			{0x8Bu, 0x10u},
1941:Generated_Source\PSoC5/cyfitter_cfg.c **** 			{0x8Du, 0x10u},
1942:Generated_Source\PSoC5/cyfitter_cfg.c **** 			{0x90u, 0x02u},
1943:Generated_Source\PSoC5/cyfitter_cfg.c **** 			{0x91u, 0x40u},
1944:Generated_Source\PSoC5/cyfitter_cfg.c **** 			{0x92u, 0x80u},
1945:Generated_Source\PSoC5/cyfitter_cfg.c **** 			{0x93u, 0x18u},
1946:Generated_Source\PSoC5/cyfitter_cfg.c **** 			{0x94u, 0x10u},
1947:Generated_Source\PSoC5/cyfitter_cfg.c **** 			{0x95u, 0x14u},
1948:Generated_Source\PSoC5/cyfitter_cfg.c **** 			{0x96u, 0x04u},
1949:Generated_Source\PSoC5/cyfitter_cfg.c **** 			{0x97u, 0x05u},
1950:Generated_Source\PSoC5/cyfitter_cfg.c **** 			{0x99u, 0x19u},
1951:Generated_Source\PSoC5/cyfitter_cfg.c **** 			{0x9Bu, 0x28u},
1952:Generated_Source\PSoC5/cyfitter_cfg.c **** 			{0x9Du, 0x04u},
1953:Generated_Source\PSoC5/cyfitter_cfg.c **** 			{0x9Eu, 0x0Au},
1954:Generated_Source\PSoC5/cyfitter_cfg.c **** 			{0x9Fu, 0x40u},
1955:Generated_Source\PSoC5/cyfitter_cfg.c **** 			{0xA0u, 0x86u},
1956:Generated_Source\PSoC5/cyfitter_cfg.c **** 			{0xA1u, 0x20u},
1957:Generated_Source\PSoC5/cyfitter_cfg.c **** 			{0xA5u, 0x40u},
1958:Generated_Source\PSoC5/cyfitter_cfg.c **** 			{0xA6u, 0x04u},
1959:Generated_Source\PSoC5/cyfitter_cfg.c **** 			{0xAFu, 0x40u},
1960:Generated_Source\PSoC5/cyfitter_cfg.c **** 			{0xB4u, 0x10u},
1961:Generated_Source\PSoC5/cyfitter_cfg.c **** 			{0xB5u, 0x20u},
1962:Generated_Source\PSoC5/cyfitter_cfg.c **** 			{0xB6u, 0x48u},
1963:Generated_Source\PSoC5/cyfitter_cfg.c **** 			{0xC0u, 0xE5u},
1964:Generated_Source\PSoC5/cyfitter_cfg.c **** 			{0xC2u, 0xF6u},
1965:Generated_Source\PSoC5/cyfitter_cfg.c **** 			{0xC4u, 0xFEu},
1966:Generated_Source\PSoC5/cyfitter_cfg.c **** 			{0xCAu, 0xBCu},
1967:Generated_Source\PSoC5/cyfitter_cfg.c **** 			{0xCCu, 0xF5u},
1968:Generated_Source\PSoC5/cyfitter_cfg.c **** 			{0xCEu, 0xDEu},
1969:Generated_Source\PSoC5/cyfitter_cfg.c **** 			{0xD6u, 0x40u},
1970:Generated_Source\PSoC5/cyfitter_cfg.c **** 			{0xD8u, 0x40u},
1971:Generated_Source\PSoC5/cyfitter_cfg.c **** 			{0xDEu, 0x80u},
1972:Generated_Source\PSoC5/cyfitter_cfg.c **** 			{0xE0u, 0x20u},
1973:Generated_Source\PSoC5/cyfitter_cfg.c **** 			{0xE4u, 0x08u},
1974:Generated_Source\PSoC5/cyfitter_cfg.c **** 			{0xEAu, 0x12u},
1975:Generated_Source\PSoC5/cyfitter_cfg.c **** 			{0xEEu, 0x40u},
1976:Generated_Source\PSoC5/cyfitter_cfg.c **** 			{0x00u, 0x01u},
1977:Generated_Source\PSoC5/cyfitter_cfg.c **** 			{0x14u, 0x01u},
1978:Generated_Source\PSoC5/cyfitter_cfg.c **** 			{0x18u, 0x01u},
1979:Generated_Source\PSoC5/cyfitter_cfg.c **** 			{0x22u, 0x01u},
1980:Generated_Source\PSoC5/cyfitter_cfg.c **** 			{0x26u, 0x01u},
1981:Generated_Source\PSoC5/cyfitter_cfg.c **** 			{0x28u, 0x01u},
1982:Generated_Source\PSoC5/cyfitter_cfg.c **** 			{0x2Cu, 0x01u},
1983:Generated_Source\PSoC5/cyfitter_cfg.c **** 			{0x30u, 0x01u},
1984:Generated_Source\PSoC5/cyfitter_cfg.c **** 			{0x58u, 0x04u},
1985:Generated_Source\PSoC5/cyfitter_cfg.c **** 			{0x59u, 0x04u},
1986:Generated_Source\PSoC5/cyfitter_cfg.c **** 			{0x5Cu, 0x44u},
1987:Generated_Source\PSoC5/cyfitter_cfg.c **** 			{0x5Fu, 0x01u},
1988:Generated_Source\PSoC5/cyfitter_cfg.c **** 			{0x8Eu, 0x01u},
1989:Generated_Source\PSoC5/cyfitter_cfg.c **** 			{0xB4u, 0x01u},
1990:Generated_Source\PSoC5/cyfitter_cfg.c **** 			{0xC0u, 0x45u},
ARM GAS  C:\Users\Admin\AppData\Local\Temp\ccd3RvSG.s 			page 48


1991:Generated_Source\PSoC5/cyfitter_cfg.c **** 			{0xC1u, 0x03u},
1992:Generated_Source\PSoC5/cyfitter_cfg.c **** 			{0xC2u, 0x20u},
1993:Generated_Source\PSoC5/cyfitter_cfg.c **** 			{0xC4u, 0x01u},
1994:Generated_Source\PSoC5/cyfitter_cfg.c **** 			{0xC5u, 0xDFu},
1995:Generated_Source\PSoC5/cyfitter_cfg.c **** 			{0xC6u, 0xC0u},
1996:Generated_Source\PSoC5/cyfitter_cfg.c **** 			{0xC7u, 0xEBu},
1997:Generated_Source\PSoC5/cyfitter_cfg.c **** 			{0xC8u, 0x3Bu},
1998:Generated_Source\PSoC5/cyfitter_cfg.c **** 			{0xC9u, 0xFFu},
1999:Generated_Source\PSoC5/cyfitter_cfg.c **** 			{0xCAu, 0xFFu},
2000:Generated_Source\PSoC5/cyfitter_cfg.c **** 			{0xCBu, 0xFFu},
2001:Generated_Source\PSoC5/cyfitter_cfg.c **** 			{0xCCu, 0x22u},
2002:Generated_Source\PSoC5/cyfitter_cfg.c **** 			{0xCEu, 0xF0u},
2003:Generated_Source\PSoC5/cyfitter_cfg.c **** 			{0xCFu, 0x0Cu},
2004:Generated_Source\PSoC5/cyfitter_cfg.c **** 			{0xD0u, 0x04u},
2005:Generated_Source\PSoC5/cyfitter_cfg.c **** 			{0xD6u, 0x02u},
2006:Generated_Source\PSoC5/cyfitter_cfg.c **** 			{0xD7u, 0x2Cu},
2007:Generated_Source\PSoC5/cyfitter_cfg.c **** 			{0xD8u, 0x04u},
2008:Generated_Source\PSoC5/cyfitter_cfg.c **** 			{0xD9u, 0x04u},
2009:Generated_Source\PSoC5/cyfitter_cfg.c **** 			{0xDAu, 0x04u},
2010:Generated_Source\PSoC5/cyfitter_cfg.c **** 			{0xDBu, 0x04u},
2011:Generated_Source\PSoC5/cyfitter_cfg.c **** 			{0xDCu, 0x44u},
2012:Generated_Source\PSoC5/cyfitter_cfg.c **** 			{0xDDu, 0x22u},
2013:Generated_Source\PSoC5/cyfitter_cfg.c **** 			{0xDFu, 0x01u},
2014:Generated_Source\PSoC5/cyfitter_cfg.c **** 			{0xE2u, 0xC0u},
2015:Generated_Source\PSoC5/cyfitter_cfg.c **** 			{0xE4u, 0x40u},
2016:Generated_Source\PSoC5/cyfitter_cfg.c **** 			{0xE5u, 0x01u},
2017:Generated_Source\PSoC5/cyfitter_cfg.c **** 			{0xE6u, 0x10u},
2018:Generated_Source\PSoC5/cyfitter_cfg.c **** 			{0xE7u, 0x11u},
2019:Generated_Source\PSoC5/cyfitter_cfg.c **** 			{0xE8u, 0xC0u},
2020:Generated_Source\PSoC5/cyfitter_cfg.c **** 			{0xE9u, 0x01u},
2021:Generated_Source\PSoC5/cyfitter_cfg.c **** 			{0xEBu, 0x11u},
2022:Generated_Source\PSoC5/cyfitter_cfg.c **** 			{0xECu, 0x40u},
2023:Generated_Source\PSoC5/cyfitter_cfg.c **** 			{0xEDu, 0x01u},
2024:Generated_Source\PSoC5/cyfitter_cfg.c **** 			{0xEEu, 0x40u},
2025:Generated_Source\PSoC5/cyfitter_cfg.c **** 			{0xEFu, 0x01u},
2026:Generated_Source\PSoC5/cyfitter_cfg.c **** 			{0x03u, 0x40u},
2027:Generated_Source\PSoC5/cyfitter_cfg.c **** 			{0x05u, 0x01u},
2028:Generated_Source\PSoC5/cyfitter_cfg.c **** 			{0x06u, 0x02u},
2029:Generated_Source\PSoC5/cyfitter_cfg.c **** 			{0x07u, 0x60u},
2030:Generated_Source\PSoC5/cyfitter_cfg.c **** 			{0x0Bu, 0x28u},
2031:Generated_Source\PSoC5/cyfitter_cfg.c **** 			{0x0Cu, 0x80u},
2032:Generated_Source\PSoC5/cyfitter_cfg.c **** 			{0x0Eu, 0x24u},
2033:Generated_Source\PSoC5/cyfitter_cfg.c **** 			{0x10u, 0x94u},
2034:Generated_Source\PSoC5/cyfitter_cfg.c **** 			{0x11u, 0x40u},
2035:Generated_Source\PSoC5/cyfitter_cfg.c **** 			{0x13u, 0x20u},
2036:Generated_Source\PSoC5/cyfitter_cfg.c **** 			{0x14u, 0x10u},
2037:Generated_Source\PSoC5/cyfitter_cfg.c **** 			{0x16u, 0x40u},
2038:Generated_Source\PSoC5/cyfitter_cfg.c **** 			{0x19u, 0x02u},
2039:Generated_Source\PSoC5/cyfitter_cfg.c **** 			{0x1Eu, 0x04u},
2040:Generated_Source\PSoC5/cyfitter_cfg.c **** 			{0x1Fu, 0x10u},
2041:Generated_Source\PSoC5/cyfitter_cfg.c **** 			{0x28u, 0x05u},
2042:Generated_Source\PSoC5/cyfitter_cfg.c **** 			{0x2Au, 0x40u},
2043:Generated_Source\PSoC5/cyfitter_cfg.c **** 			{0x2Cu, 0x11u},
2044:Generated_Source\PSoC5/cyfitter_cfg.c **** 			{0x2Du, 0x40u},
2045:Generated_Source\PSoC5/cyfitter_cfg.c **** 			{0x2Fu, 0x04u},
2046:Generated_Source\PSoC5/cyfitter_cfg.c **** 			{0x30u, 0x90u},
2047:Generated_Source\PSoC5/cyfitter_cfg.c **** 			{0x31u, 0x01u},
ARM GAS  C:\Users\Admin\AppData\Local\Temp\ccd3RvSG.s 			page 49


2048:Generated_Source\PSoC5/cyfitter_cfg.c **** 			{0x32u, 0x80u},
2049:Generated_Source\PSoC5/cyfitter_cfg.c **** 			{0x35u, 0x01u},
2050:Generated_Source\PSoC5/cyfitter_cfg.c **** 			{0x36u, 0x80u},
2051:Generated_Source\PSoC5/cyfitter_cfg.c **** 			{0x37u, 0x20u},
2052:Generated_Source\PSoC5/cyfitter_cfg.c **** 			{0x3Bu, 0x28u},
2053:Generated_Source\PSoC5/cyfitter_cfg.c **** 			{0x3Eu, 0x04u},
2054:Generated_Source\PSoC5/cyfitter_cfg.c **** 			{0x44u, 0x02u},
2055:Generated_Source\PSoC5/cyfitter_cfg.c **** 			{0x45u, 0x16u},
2056:Generated_Source\PSoC5/cyfitter_cfg.c **** 			{0x46u, 0x10u},
2057:Generated_Source\PSoC5/cyfitter_cfg.c **** 			{0x4Eu, 0x02u},
2058:Generated_Source\PSoC5/cyfitter_cfg.c **** 			{0x4Fu, 0x06u},
2059:Generated_Source\PSoC5/cyfitter_cfg.c **** 			{0x54u, 0x01u},
2060:Generated_Source\PSoC5/cyfitter_cfg.c **** 			{0x56u, 0x20u},
2061:Generated_Source\PSoC5/cyfitter_cfg.c **** 			{0x57u, 0x04u},
2062:Generated_Source\PSoC5/cyfitter_cfg.c **** 			{0x64u, 0x80u},
2063:Generated_Source\PSoC5/cyfitter_cfg.c **** 			{0x6Cu, 0x08u},
2064:Generated_Source\PSoC5/cyfitter_cfg.c **** 			{0x6Eu, 0x4Au},
2065:Generated_Source\PSoC5/cyfitter_cfg.c **** 			{0x6Fu, 0x11u},
2066:Generated_Source\PSoC5/cyfitter_cfg.c **** 			{0x74u, 0x40u},
2067:Generated_Source\PSoC5/cyfitter_cfg.c **** 			{0x75u, 0x80u},
2068:Generated_Source\PSoC5/cyfitter_cfg.c **** 			{0x76u, 0x01u},
2069:Generated_Source\PSoC5/cyfitter_cfg.c **** 			{0x82u, 0x07u},
2070:Generated_Source\PSoC5/cyfitter_cfg.c **** 			{0x83u, 0x04u},
2071:Generated_Source\PSoC5/cyfitter_cfg.c **** 			{0x85u, 0x02u},
2072:Generated_Source\PSoC5/cyfitter_cfg.c **** 			{0x86u, 0x30u},
2073:Generated_Source\PSoC5/cyfitter_cfg.c **** 			{0x88u, 0x01u},
2074:Generated_Source\PSoC5/cyfitter_cfg.c **** 			{0x89u, 0x80u},
2075:Generated_Source\PSoC5/cyfitter_cfg.c **** 			{0x8Bu, 0x11u},
2076:Generated_Source\PSoC5/cyfitter_cfg.c **** 			{0x8Cu, 0x08u},
2077:Generated_Source\PSoC5/cyfitter_cfg.c **** 			{0x8Eu, 0x20u},
2078:Generated_Source\PSoC5/cyfitter_cfg.c **** 			{0x91u, 0x40u},
2079:Generated_Source\PSoC5/cyfitter_cfg.c **** 			{0x93u, 0x08u},
2080:Generated_Source\PSoC5/cyfitter_cfg.c **** 			{0x96u, 0x44u},
2081:Generated_Source\PSoC5/cyfitter_cfg.c **** 			{0x97u, 0x24u},
2082:Generated_Source\PSoC5/cyfitter_cfg.c **** 			{0x98u, 0x92u},
2083:Generated_Source\PSoC5/cyfitter_cfg.c **** 			{0x99u, 0x01u},
2084:Generated_Source\PSoC5/cyfitter_cfg.c **** 			{0x9Au, 0x02u},
2085:Generated_Source\PSoC5/cyfitter_cfg.c **** 			{0x9Bu, 0x20u},
2086:Generated_Source\PSoC5/cyfitter_cfg.c **** 			{0x9Cu, 0x04u},
2087:Generated_Source\PSoC5/cyfitter_cfg.c **** 			{0x9Eu, 0x21u},
2088:Generated_Source\PSoC5/cyfitter_cfg.c **** 			{0x9Fu, 0x14u},
2089:Generated_Source\PSoC5/cyfitter_cfg.c **** 			{0xA0u, 0x80u},
2090:Generated_Source\PSoC5/cyfitter_cfg.c **** 			{0xA1u, 0x12u},
2091:Generated_Source\PSoC5/cyfitter_cfg.c **** 			{0xA2u, 0x30u},
2092:Generated_Source\PSoC5/cyfitter_cfg.c **** 			{0xA4u, 0x48u},
2093:Generated_Source\PSoC5/cyfitter_cfg.c **** 			{0xA5u, 0x04u},
2094:Generated_Source\PSoC5/cyfitter_cfg.c **** 			{0xA6u, 0x01u},
2095:Generated_Source\PSoC5/cyfitter_cfg.c **** 			{0xA7u, 0x05u},
2096:Generated_Source\PSoC5/cyfitter_cfg.c **** 			{0xA9u, 0x01u},
2097:Generated_Source\PSoC5/cyfitter_cfg.c **** 			{0xAAu, 0x08u},
2098:Generated_Source\PSoC5/cyfitter_cfg.c **** 			{0xADu, 0x24u},
2099:Generated_Source\PSoC5/cyfitter_cfg.c **** 			{0xAEu, 0x02u},
2100:Generated_Source\PSoC5/cyfitter_cfg.c **** 			{0xB2u, 0x10u},
2101:Generated_Source\PSoC5/cyfitter_cfg.c **** 			{0xB3u, 0x04u},
2102:Generated_Source\PSoC5/cyfitter_cfg.c **** 			{0xB5u, 0x84u},
2103:Generated_Source\PSoC5/cyfitter_cfg.c **** 			{0xC0u, 0xB8u},
2104:Generated_Source\PSoC5/cyfitter_cfg.c **** 			{0xC2u, 0xE6u},
ARM GAS  C:\Users\Admin\AppData\Local\Temp\ccd3RvSG.s 			page 50


2105:Generated_Source\PSoC5/cyfitter_cfg.c **** 			{0xC4u, 0x3Fu},
2106:Generated_Source\PSoC5/cyfitter_cfg.c **** 			{0xCAu, 0x7Cu},
2107:Generated_Source\PSoC5/cyfitter_cfg.c **** 			{0xCCu, 0xBDu},
2108:Generated_Source\PSoC5/cyfitter_cfg.c **** 			{0xCEu, 0x46u},
2109:Generated_Source\PSoC5/cyfitter_cfg.c **** 			{0xD0u, 0xF0u},
2110:Generated_Source\PSoC5/cyfitter_cfg.c **** 			{0xD2u, 0x10u},
2111:Generated_Source\PSoC5/cyfitter_cfg.c **** 			{0xD8u, 0x80u},
2112:Generated_Source\PSoC5/cyfitter_cfg.c **** 			{0xE2u, 0xA0u},
2113:Generated_Source\PSoC5/cyfitter_cfg.c **** 			{0xE4u, 0x08u},
2114:Generated_Source\PSoC5/cyfitter_cfg.c **** 			{0xE6u, 0xF0u},
2115:Generated_Source\PSoC5/cyfitter_cfg.c **** 			{0xEAu, 0x80u},
2116:Generated_Source\PSoC5/cyfitter_cfg.c **** 			{0x0Bu, 0x80u},
2117:Generated_Source\PSoC5/cyfitter_cfg.c **** 			{0x0Fu, 0x20u},
2118:Generated_Source\PSoC5/cyfitter_cfg.c **** 			{0x13u, 0x02u},
2119:Generated_Source\PSoC5/cyfitter_cfg.c **** 			{0x16u, 0x80u},
2120:Generated_Source\PSoC5/cyfitter_cfg.c **** 			{0x33u, 0x82u},
2121:Generated_Source\PSoC5/cyfitter_cfg.c **** 			{0x35u, 0x01u},
2122:Generated_Source\PSoC5/cyfitter_cfg.c **** 			{0x36u, 0x40u},
2123:Generated_Source\PSoC5/cyfitter_cfg.c **** 			{0x38u, 0x18u},
2124:Generated_Source\PSoC5/cyfitter_cfg.c **** 			{0x3Eu, 0x80u},
2125:Generated_Source\PSoC5/cyfitter_cfg.c **** 			{0x55u, 0x01u},
2126:Generated_Source\PSoC5/cyfitter_cfg.c **** 			{0x83u, 0x10u},
2127:Generated_Source\PSoC5/cyfitter_cfg.c **** 			{0x86u, 0x40u},
2128:Generated_Source\PSoC5/cyfitter_cfg.c **** 			{0x8Cu, 0x08u},
2129:Generated_Source\PSoC5/cyfitter_cfg.c **** 			{0xC2u, 0x30u},
2130:Generated_Source\PSoC5/cyfitter_cfg.c **** 			{0xC4u, 0x30u},
2131:Generated_Source\PSoC5/cyfitter_cfg.c **** 			{0xCCu, 0xF0u},
2132:Generated_Source\PSoC5/cyfitter_cfg.c **** 			{0xCEu, 0x70u},
2133:Generated_Source\PSoC5/cyfitter_cfg.c **** 			{0xD6u, 0x20u},
2134:Generated_Source\PSoC5/cyfitter_cfg.c **** 			{0xE4u, 0x80u},
2135:Generated_Source\PSoC5/cyfitter_cfg.c **** 			{0xE6u, 0x40u},
2136:Generated_Source\PSoC5/cyfitter_cfg.c **** 			{0x0Au, 0x02u},
2137:Generated_Source\PSoC5/cyfitter_cfg.c **** 			{0x33u, 0x10u},
2138:Generated_Source\PSoC5/cyfitter_cfg.c **** 			{0x37u, 0x20u},
2139:Generated_Source\PSoC5/cyfitter_cfg.c **** 			{0x5Eu, 0x02u},
2140:Generated_Source\PSoC5/cyfitter_cfg.c **** 			{0x61u, 0x04u},
2141:Generated_Source\PSoC5/cyfitter_cfg.c **** 			{0x80u, 0x10u},
2142:Generated_Source\PSoC5/cyfitter_cfg.c **** 			{0x94u, 0x18u},
2143:Generated_Source\PSoC5/cyfitter_cfg.c **** 			{0x98u, 0x08u},
2144:Generated_Source\PSoC5/cyfitter_cfg.c **** 			{0x9Du, 0x01u},
2145:Generated_Source\PSoC5/cyfitter_cfg.c **** 			{0xA5u, 0x01u},
2146:Generated_Source\PSoC5/cyfitter_cfg.c **** 			{0xA7u, 0x82u},
2147:Generated_Source\PSoC5/cyfitter_cfg.c **** 			{0xB3u, 0x40u},
2148:Generated_Source\PSoC5/cyfitter_cfg.c **** 			{0xB7u, 0x02u},
2149:Generated_Source\PSoC5/cyfitter_cfg.c **** 			{0xC2u, 0x40u},
2150:Generated_Source\PSoC5/cyfitter_cfg.c **** 			{0xCCu, 0x30u},
2151:Generated_Source\PSoC5/cyfitter_cfg.c **** 			{0xD6u, 0x80u},
2152:Generated_Source\PSoC5/cyfitter_cfg.c **** 			{0xD8u, 0x40u},
2153:Generated_Source\PSoC5/cyfitter_cfg.c **** 			{0xE6u, 0x80u},
2154:Generated_Source\PSoC5/cyfitter_cfg.c **** 			{0x58u, 0x08u},
2155:Generated_Source\PSoC5/cyfitter_cfg.c **** 			{0x80u, 0x04u},
2156:Generated_Source\PSoC5/cyfitter_cfg.c **** 			{0x83u, 0x80u},
2157:Generated_Source\PSoC5/cyfitter_cfg.c **** 			{0x92u, 0x02u},
2158:Generated_Source\PSoC5/cyfitter_cfg.c **** 			{0x94u, 0x08u},
2159:Generated_Source\PSoC5/cyfitter_cfg.c **** 			{0x98u, 0x08u},
2160:Generated_Source\PSoC5/cyfitter_cfg.c **** 			{0x9Du, 0x05u},
2161:Generated_Source\PSoC5/cyfitter_cfg.c **** 			{0x9Fu, 0x30u},
ARM GAS  C:\Users\Admin\AppData\Local\Temp\ccd3RvSG.s 			page 51


2162:Generated_Source\PSoC5/cyfitter_cfg.c **** 			{0xA5u, 0x01u},
2163:Generated_Source\PSoC5/cyfitter_cfg.c **** 			{0xA6u, 0x01u},
2164:Generated_Source\PSoC5/cyfitter_cfg.c **** 			{0xA7u, 0x80u},
2165:Generated_Source\PSoC5/cyfitter_cfg.c **** 			{0xB7u, 0x02u},
2166:Generated_Source\PSoC5/cyfitter_cfg.c **** 			{0xD6u, 0x40u},
2167:Generated_Source\PSoC5/cyfitter_cfg.c **** 			{0xE6u, 0xA0u},
2168:Generated_Source\PSoC5/cyfitter_cfg.c **** 			{0x19u, 0x04u},
2169:Generated_Source\PSoC5/cyfitter_cfg.c **** 			{0x83u, 0x10u},
2170:Generated_Source\PSoC5/cyfitter_cfg.c **** 			{0x92u, 0x02u},
2171:Generated_Source\PSoC5/cyfitter_cfg.c **** 			{0x9Du, 0x05u},
2172:Generated_Source\PSoC5/cyfitter_cfg.c **** 			{0x9Fu, 0x30u},
2173:Generated_Source\PSoC5/cyfitter_cfg.c **** 			{0xA5u, 0x01u},
2174:Generated_Source\PSoC5/cyfitter_cfg.c **** 			{0xA6u, 0x01u},
2175:Generated_Source\PSoC5/cyfitter_cfg.c **** 			{0xC6u, 0x10u},
2176:Generated_Source\PSoC5/cyfitter_cfg.c **** 			{0xE2u, 0x20u},
2177:Generated_Source\PSoC5/cyfitter_cfg.c **** 			{0x03u, 0x20u},
2178:Generated_Source\PSoC5/cyfitter_cfg.c **** 			{0x05u, 0x02u},
2179:Generated_Source\PSoC5/cyfitter_cfg.c **** 			{0xC0u, 0x0Cu},
2180:Generated_Source\PSoC5/cyfitter_cfg.c **** 			{0x60u, 0x10u},
2181:Generated_Source\PSoC5/cyfitter_cfg.c **** 			{0x81u, 0x01u},
2182:Generated_Source\PSoC5/cyfitter_cfg.c **** 			{0x8Cu, 0x10u},
2183:Generated_Source\PSoC5/cyfitter_cfg.c **** 			{0xB3u, 0x20u},
2184:Generated_Source\PSoC5/cyfitter_cfg.c **** 			{0xB5u, 0x02u},
2185:Generated_Source\PSoC5/cyfitter_cfg.c **** 			{0xD8u, 0x02u},
2186:Generated_Source\PSoC5/cyfitter_cfg.c **** 			{0xE0u, 0x08u},
2187:Generated_Source\PSoC5/cyfitter_cfg.c **** 			{0xEAu, 0x03u},
2188:Generated_Source\PSoC5/cyfitter_cfg.c **** 			{0x1Bu, 0x08u},
2189:Generated_Source\PSoC5/cyfitter_cfg.c **** 			{0x26u, 0x08u},
2190:Generated_Source\PSoC5/cyfitter_cfg.c **** 			{0x82u, 0x08u},
2191:Generated_Source\PSoC5/cyfitter_cfg.c **** 			{0x83u, 0x08u},
2192:Generated_Source\PSoC5/cyfitter_cfg.c **** 			{0xA5u, 0x01u},
2193:Generated_Source\PSoC5/cyfitter_cfg.c **** 			{0xC6u, 0x08u},
2194:Generated_Source\PSoC5/cyfitter_cfg.c **** 			{0xC8u, 0x01u},
2195:Generated_Source\PSoC5/cyfitter_cfg.c **** 			{0x09u, 0x01u},
2196:Generated_Source\PSoC5/cyfitter_cfg.c **** 			{0x0Bu, 0x04u},
2197:Generated_Source\PSoC5/cyfitter_cfg.c **** 			{0x0Fu, 0x80u},
2198:Generated_Source\PSoC5/cyfitter_cfg.c **** 			{0x44u, 0x08u},
2199:Generated_Source\PSoC5/cyfitter_cfg.c **** 			{0x83u, 0x40u},
2200:Generated_Source\PSoC5/cyfitter_cfg.c **** 			{0xA5u, 0x01u},
2201:Generated_Source\PSoC5/cyfitter_cfg.c **** 			{0xC2u, 0x0Eu},
2202:Generated_Source\PSoC5/cyfitter_cfg.c **** 			{0xD0u, 0x04u},
2203:Generated_Source\PSoC5/cyfitter_cfg.c **** 			{0x02u, 0x01u},
2204:Generated_Source\PSoC5/cyfitter_cfg.c **** 			{0x07u, 0x04u},
2205:Generated_Source\PSoC5/cyfitter_cfg.c **** 			{0x53u, 0x01u},
2206:Generated_Source\PSoC5/cyfitter_cfg.c **** 			{0x81u, 0x01u},
2207:Generated_Source\PSoC5/cyfitter_cfg.c **** 			{0x87u, 0x80u},
2208:Generated_Source\PSoC5/cyfitter_cfg.c **** 			{0x8Au, 0x01u},
2209:Generated_Source\PSoC5/cyfitter_cfg.c **** 			{0x8Du, 0x01u},
2210:Generated_Source\PSoC5/cyfitter_cfg.c **** 			{0x8Fu, 0x01u},
2211:Generated_Source\PSoC5/cyfitter_cfg.c **** 			{0x92u, 0x02u},
2212:Generated_Source\PSoC5/cyfitter_cfg.c **** 			{0x9Du, 0x01u},
2213:Generated_Source\PSoC5/cyfitter_cfg.c **** 			{0x9Eu, 0x01u},
2214:Generated_Source\PSoC5/cyfitter_cfg.c **** 			{0xA5u, 0x01u},
2215:Generated_Source\PSoC5/cyfitter_cfg.c **** 			{0xAAu, 0x01u},
2216:Generated_Source\PSoC5/cyfitter_cfg.c **** 			{0xAFu, 0x20u},
2217:Generated_Source\PSoC5/cyfitter_cfg.c **** 			{0xB6u, 0x01u},
2218:Generated_Source\PSoC5/cyfitter_cfg.c **** 			{0xC0u, 0xC0u},
ARM GAS  C:\Users\Admin\AppData\Local\Temp\ccd3RvSG.s 			page 52


2219:Generated_Source\PSoC5/cyfitter_cfg.c **** 			{0xD4u, 0x80u},
2220:Generated_Source\PSoC5/cyfitter_cfg.c **** 			{0xE4u, 0x10u},
2221:Generated_Source\PSoC5/cyfitter_cfg.c **** 			{0xE6u, 0x80u},
2222:Generated_Source\PSoC5/cyfitter_cfg.c **** 			{0xE8u, 0x20u},
2223:Generated_Source\PSoC5/cyfitter_cfg.c **** 			{0xEAu, 0x40u},
2224:Generated_Source\PSoC5/cyfitter_cfg.c **** 			{0x1Fu, 0x80u},
2225:Generated_Source\PSoC5/cyfitter_cfg.c **** 			{0x63u, 0x02u},
2226:Generated_Source\PSoC5/cyfitter_cfg.c **** 			{0x77u, 0x80u},
2227:Generated_Source\PSoC5/cyfitter_cfg.c **** 			{0x87u, 0x01u},
2228:Generated_Source\PSoC5/cyfitter_cfg.c **** 			{0x9Bu, 0x80u},
2229:Generated_Source\PSoC5/cyfitter_cfg.c **** 			{0xA7u, 0x80u},
2230:Generated_Source\PSoC5/cyfitter_cfg.c **** 			{0xABu, 0x04u},
2231:Generated_Source\PSoC5/cyfitter_cfg.c **** 			{0xAFu, 0x80u},
2232:Generated_Source\PSoC5/cyfitter_cfg.c **** 			{0xC6u, 0x80u},
2233:Generated_Source\PSoC5/cyfitter_cfg.c **** 			{0xD6u, 0x40u},
2234:Generated_Source\PSoC5/cyfitter_cfg.c **** 			{0xDEu, 0x20u},
2235:Generated_Source\PSoC5/cyfitter_cfg.c **** 			{0xE6u, 0x10u},
2236:Generated_Source\PSoC5/cyfitter_cfg.c **** 			{0xE8u, 0x80u},
2237:Generated_Source\PSoC5/cyfitter_cfg.c **** 			{0xEAu, 0x40u},
2238:Generated_Source\PSoC5/cyfitter_cfg.c **** 			{0x5Au, 0x01u},
2239:Generated_Source\PSoC5/cyfitter_cfg.c **** 			{0x5Du, 0x08u},
2240:Generated_Source\PSoC5/cyfitter_cfg.c **** 			{0x66u, 0x02u},
2241:Generated_Source\PSoC5/cyfitter_cfg.c **** 			{0x84u, 0x08u},
2242:Generated_Source\PSoC5/cyfitter_cfg.c **** 			{0x8Au, 0x01u},
2243:Generated_Source\PSoC5/cyfitter_cfg.c **** 			{0x8Eu, 0x02u},
2244:Generated_Source\PSoC5/cyfitter_cfg.c **** 			{0x9Cu, 0x08u},
2245:Generated_Source\PSoC5/cyfitter_cfg.c **** 			{0xAFu, 0x04u},
2246:Generated_Source\PSoC5/cyfitter_cfg.c **** 			{0xD6u, 0x03u},
2247:Generated_Source\PSoC5/cyfitter_cfg.c **** 			{0xD8u, 0x01u},
2248:Generated_Source\PSoC5/cyfitter_cfg.c **** 			{0xE0u, 0x02u},
2249:Generated_Source\PSoC5/cyfitter_cfg.c **** 			{0xE4u, 0x01u},
2250:Generated_Source\PSoC5/cyfitter_cfg.c **** 			{0x85u, 0x08u},
2251:Generated_Source\PSoC5/cyfitter_cfg.c **** 			{0x9Du, 0x08u},
2252:Generated_Source\PSoC5/cyfitter_cfg.c **** 			{0x10u, 0x1Eu},
2253:Generated_Source\PSoC5/cyfitter_cfg.c **** 			{0x1Au, 0x1Eu},
2254:Generated_Source\PSoC5/cyfitter_cfg.c **** 			{0x1Cu, 0x14u},
2255:Generated_Source\PSoC5/cyfitter_cfg.c **** 			{0x00u, 0xFFu},
2256:Generated_Source\PSoC5/cyfitter_cfg.c **** 			{0x01u, 0x2Au},
2257:Generated_Source\PSoC5/cyfitter_cfg.c **** 			{0x10u, 0x0Au},
2258:Generated_Source\PSoC5/cyfitter_cfg.c **** 		};
2259:Generated_Source\PSoC5/cyfitter_cfg.c **** 
2260:Generated_Source\PSoC5/cyfitter_cfg.c **** 
2261:Generated_Source\PSoC5/cyfitter_cfg.c **** 
2262:Generated_Source\PSoC5/cyfitter_cfg.c **** 		CYPACKED typedef struct {
2263:Generated_Source\PSoC5/cyfitter_cfg.c **** 			void CYFAR *address;
2264:Generated_Source\PSoC5/cyfitter_cfg.c **** 			uint16 size;
2265:Generated_Source\PSoC5/cyfitter_cfg.c **** 		} CYPACKED_ATTR cfg_memset_t;
2266:Generated_Source\PSoC5/cyfitter_cfg.c **** 
2267:Generated_Source\PSoC5/cyfitter_cfg.c **** 
2268:Generated_Source\PSoC5/cyfitter_cfg.c **** 		CYPACKED typedef struct {
2269:Generated_Source\PSoC5/cyfitter_cfg.c **** 			void CYFAR *dest;
2270:Generated_Source\PSoC5/cyfitter_cfg.c **** 			const void CYCODE *src;
2271:Generated_Source\PSoC5/cyfitter_cfg.c **** 			uint16 size;
2272:Generated_Source\PSoC5/cyfitter_cfg.c **** 		} CYPACKED_ATTR cfg_memcpy_t;
2273:Generated_Source\PSoC5/cyfitter_cfg.c **** 
2274:Generated_Source\PSoC5/cyfitter_cfg.c **** 		static const cfg_memset_t CYCODE cfg_memset_list[] = {
2275:Generated_Source\PSoC5/cyfitter_cfg.c **** 			/* address, size */
ARM GAS  C:\Users\Admin\AppData\Local\Temp\ccd3RvSG.s 			page 53


2276:Generated_Source\PSoC5/cyfitter_cfg.c **** 			{(void CYFAR *)(CYREG_TMR0_CFG0), 12u},
2277:Generated_Source\PSoC5/cyfitter_cfg.c **** 			{(void CYFAR *)(CYREG_PRT5_DR), 16u},
2278:Generated_Source\PSoC5/cyfitter_cfg.c **** 			{(void CYFAR *)(CYDEV_UCFG_B0_P0_U0_BASE), 1152u},
2279:Generated_Source\PSoC5/cyfitter_cfg.c **** 			{(void CYFAR *)(CYDEV_UCFG_B0_P2_ROUTE_BASE), 2816u},
2280:Generated_Source\PSoC5/cyfitter_cfg.c **** 			{(void CYFAR *)(CYDEV_UCFG_B1_P2_U0_BASE), 2048u},
2281:Generated_Source\PSoC5/cyfitter_cfg.c **** 			{(void CYFAR *)(CYDEV_UCFG_DSI0_BASE), 2560u},
2282:Generated_Source\PSoC5/cyfitter_cfg.c **** 			{(void CYFAR *)(CYDEV_UCFG_DSI12_BASE), 512u},
2283:Generated_Source\PSoC5/cyfitter_cfg.c **** 			{(void CYFAR *)(CYREG_BCTL1_MDCLK_EN), 16u},
2284:Generated_Source\PSoC5/cyfitter_cfg.c **** 		};
2285:Generated_Source\PSoC5/cyfitter_cfg.c **** 
2286:Generated_Source\PSoC5/cyfitter_cfg.c **** 		/* UDB_1_3_1_CONFIG Address: CYDEV_UCFG_B0_P2_U1_BASE Size (bytes): 128 */
2287:Generated_Source\PSoC5/cyfitter_cfg.c **** 		static const uint8 CYCODE BS_UDB_1_3_1_CONFIG_VAL[] = {
2288:Generated_Source\PSoC5/cyfitter_cfg.c **** 			0xC5u, 0x00u, 0x3Au, 0x00u, 0x00u, 0x00u, 0x00u, 0x74u, 0x00u, 0x34u, 0x01u, 0x40u, 0x00u, 0x00u
2289:Generated_Source\PSoC5/cyfitter_cfg.c **** 			0x00u, 0x01u, 0x00u, 0x00u, 0x0Eu, 0x00u, 0xF0u, 0x03u, 0xA3u, 0x00u, 0x5Cu, 0x00u, 0x7Fu, 0x44u
2290:Generated_Source\PSoC5/cyfitter_cfg.c **** 			0x96u, 0x70u, 0x68u, 0x00u, 0x00u, 0x44u, 0x00u, 0x10u, 0xFEu, 0x04u, 0x01u, 0x10u, 0x00u, 0x00u
2291:Generated_Source\PSoC5/cyfitter_cfg.c **** 			0xFFu, 0x74u, 0x00u, 0x01u, 0x00u, 0x0Cu, 0x00u, 0x02u, 0x00u, 0x00u, 0x00u, 0x00u, 0x00u, 0x00u
2292:Generated_Source\PSoC5/cyfitter_cfg.c **** 			0x36u, 0x04u, 0x00u, 0x00u, 0x00u, 0xC3u, 0x40u, 0xE2u, 0x3Bu, 0xFFu, 0xFFu, 0xFFu, 0x00u, 0xAFu
2293:Generated_Source\PSoC5/cyfitter_cfg.c **** 			0x18u, 0x00u, 0x80u, 0x00u, 0x00u, 0x00u, 0x00u, 0x00u, 0x04u, 0x04u, 0x04u, 0x04u, 0x10u, 0x11u
2294:Generated_Source\PSoC5/cyfitter_cfg.c **** 			0x40u, 0x00u, 0x80u, 0x00u, 0x40u, 0x40u, 0x80u, 0x00u, 0x40u, 0x00u, 0x80u, 0x00u, 0x40u, 0x20u
2295:Generated_Source\PSoC5/cyfitter_cfg.c **** 			0x00u, 0x00u, 0x00u, 0x00u, 0x00u, 0x00u, 0x00u, 0x00u, 0x00u, 0x00u, 0x00u, 0x00u, 0x00u, 0x00u
2296:Generated_Source\PSoC5/cyfitter_cfg.c **** 
2297:Generated_Source\PSoC5/cyfitter_cfg.c **** 		/* UCFG_BCTL0 Address: CYREG_BCTL0_MDCLK_EN Size (bytes): 16 */
2298:Generated_Source\PSoC5/cyfitter_cfg.c **** 		static const uint8 CYCODE BS_UCFG_BCTL0_VAL[] = {
2299:Generated_Source\PSoC5/cyfitter_cfg.c **** 			0x1Eu, 0x01u, 0x00u, 0x00u, 0x00u, 0x00u, 0x00u, 0x00u, 0x02u, 0x00u, 0x12u, 0x00u, 0x1Cu, 0x01u
2300:Generated_Source\PSoC5/cyfitter_cfg.c **** 
2301:Generated_Source\PSoC5/cyfitter_cfg.c **** 		static const cfg_memcpy_t CYCODE cfg_memcpy_list [] = {
2302:Generated_Source\PSoC5/cyfitter_cfg.c **** 			/* dest, src, size */
2303:Generated_Source\PSoC5/cyfitter_cfg.c **** 			{(void CYFAR *)(CYDEV_UCFG_B0_P2_U1_BASE), BS_UDB_1_3_1_CONFIG_VAL, 128u},
2304:Generated_Source\PSoC5/cyfitter_cfg.c **** 			{(void CYFAR *)(CYREG_BCTL0_MDCLK_EN), BS_UCFG_BCTL0_VAL, 16u},
2305:Generated_Source\PSoC5/cyfitter_cfg.c **** 		};
2306:Generated_Source\PSoC5/cyfitter_cfg.c **** 
2307:Generated_Source\PSoC5/cyfitter_cfg.c **** 		uint8 CYDATA i;
2308:Generated_Source\PSoC5/cyfitter_cfg.c **** 
2309:Generated_Source\PSoC5/cyfitter_cfg.c **** 		/* Zero out critical memory blocks before beginning configuration */
2310:Generated_Source\PSoC5/cyfitter_cfg.c **** 		for (i = 0u; i < (sizeof(cfg_memset_list)/sizeof(cfg_memset_list[0])); i++)
 684              		.loc 1 2310 0
 685 0018 0023     		movs	r3, #0
 686 001a FB75     		strb	r3, [r7, #23]
 687 001c 13E0     		b	.L27
 688              	.L28:
 689              	.LBB4:
2311:Generated_Source\PSoC5/cyfitter_cfg.c **** 		{
2312:Generated_Source\PSoC5/cyfitter_cfg.c **** 			const cfg_memset_t CYCODE * CYDATA ms = &cfg_memset_list[i];
 690              		.loc 1 2312 0 discriminator 3
 691 001e FA7D     		ldrb	r2, [r7, #23]	@ zero_extendqisi2
 692 0020 1346     		mov	r3, r2
 693 0022 5B00     		lsls	r3, r3, #1
 694 0024 1344     		add	r3, r3, r2
 695 0026 5B00     		lsls	r3, r3, #1
 696 0028 544A     		ldr	r2, .L31+4
 697 002a 1344     		add	r3, r3, r2
 698 002c 3B61     		str	r3, [r7, #16]
2313:Generated_Source\PSoC5/cyfitter_cfg.c **** 			CYMEMZERO(ms->address, (size_t)(uint32)(ms->size));
 699              		.loc 1 2313 0 discriminator 3
 700 002e 3B69     		ldr	r3, [r7, #16]
 701 0030 1A68     		ldr	r2, [r3]	@ unaligned
 702 0032 3B69     		ldr	r3, [r7, #16]
ARM GAS  C:\Users\Admin\AppData\Local\Temp\ccd3RvSG.s 			page 54


 703 0034 9B88     		ldrh	r3, [r3, #4]	@ unaligned
 704 0036 9BB2     		uxth	r3, r3
 705 0038 1946     		mov	r1, r3
 706 003a 1046     		mov	r0, r2
 707 003c FFF7FEFF 		bl	CYMEMZERO
 708              	.LBE4:
2310:Generated_Source\PSoC5/cyfitter_cfg.c **** 		{
 709              		.loc 1 2310 0 discriminator 3
 710 0040 FB7D     		ldrb	r3, [r7, #23]	@ zero_extendqisi2
 711 0042 0133     		adds	r3, r3, #1
 712 0044 FB75     		strb	r3, [r7, #23]
 713              	.L27:
2310:Generated_Source\PSoC5/cyfitter_cfg.c **** 		{
 714              		.loc 1 2310 0 is_stmt 0 discriminator 1
 715 0046 FB7D     		ldrb	r3, [r7, #23]	@ zero_extendqisi2
 716 0048 072B     		cmp	r3, #7
 717 004a E8D9     		bls	.L28
2314:Generated_Source\PSoC5/cyfitter_cfg.c **** 		}
2315:Generated_Source\PSoC5/cyfitter_cfg.c **** 
2316:Generated_Source\PSoC5/cyfitter_cfg.c **** 		/* Copy device configuration data into registers */
2317:Generated_Source\PSoC5/cyfitter_cfg.c **** 		for (i = 0u; i < (sizeof(cfg_memcpy_list)/sizeof(cfg_memcpy_list[0])); i++)
 718              		.loc 1 2317 0 is_stmt 1
 719 004c 0023     		movs	r3, #0
 720 004e FB75     		strb	r3, [r7, #23]
 721 0050 1CE0     		b	.L29
 722              	.L30:
 723              	.LBB5:
2318:Generated_Source\PSoC5/cyfitter_cfg.c **** 		{
2319:Generated_Source\PSoC5/cyfitter_cfg.c **** 			const cfg_memcpy_t CYCODE * CYDATA mc = &cfg_memcpy_list[i];
 724              		.loc 1 2319 0 discriminator 3
 725 0052 FA7D     		ldrb	r2, [r7, #23]	@ zero_extendqisi2
 726 0054 1346     		mov	r3, r2
 727 0056 9B00     		lsls	r3, r3, #2
 728 0058 1344     		add	r3, r3, r2
 729 005a 5B00     		lsls	r3, r3, #1
 730 005c 484A     		ldr	r2, .L31+8
 731 005e 1344     		add	r3, r3, r2
 732 0060 FB60     		str	r3, [r7, #12]
2320:Generated_Source\PSoC5/cyfitter_cfg.c **** 			void * CYDATA destPtr = mc->dest;
 733              		.loc 1 2320 0 discriminator 3
 734 0062 FB68     		ldr	r3, [r7, #12]
 735 0064 1B68     		ldr	r3, [r3]	@ unaligned
 736 0066 BB60     		str	r3, [r7, #8]
2321:Generated_Source\PSoC5/cyfitter_cfg.c **** 			const void CYCODE * CYDATA srcPtr = mc->src;
 737              		.loc 1 2321 0 discriminator 3
 738 0068 FB68     		ldr	r3, [r7, #12]
 739 006a 5B68     		ldr	r3, [r3, #4]	@ unaligned
 740 006c 7B60     		str	r3, [r7, #4]
2322:Generated_Source\PSoC5/cyfitter_cfg.c **** 			uint16 CYDATA numBytes = mc->size;
 741              		.loc 1 2322 0 discriminator 3
 742 006e FB68     		ldr	r3, [r7, #12]
 743 0070 1A7A     		ldrb	r2, [r3, #8]	@ zero_extendqisi2
 744 0072 5B7A     		ldrb	r3, [r3, #9]	@ zero_extendqisi2
 745 0074 1B02     		lsls	r3, r3, #8
 746 0076 1343     		orrs	r3, r3, r2
 747 0078 7B80     		strh	r3, [r7, #2]	@ movhi
2323:Generated_Source\PSoC5/cyfitter_cfg.c **** 			CYCONFIGCPYCODE(destPtr, srcPtr, numBytes);
ARM GAS  C:\Users\Admin\AppData\Local\Temp\ccd3RvSG.s 			page 55


 748              		.loc 1 2323 0 discriminator 3
 749 007a 7B88     		ldrh	r3, [r7, #2]
 750 007c 1A46     		mov	r2, r3
 751 007e 7968     		ldr	r1, [r7, #4]
 752 0080 B868     		ldr	r0, [r7, #8]
 753 0082 FFF7FEFF 		bl	CYCONFIGCPYCODE
 754              	.LBE5:
2317:Generated_Source\PSoC5/cyfitter_cfg.c **** 		{
 755              		.loc 1 2317 0 discriminator 3
 756 0086 FB7D     		ldrb	r3, [r7, #23]	@ zero_extendqisi2
 757 0088 0133     		adds	r3, r3, #1
 758 008a FB75     		strb	r3, [r7, #23]
 759              	.L29:
2317:Generated_Source\PSoC5/cyfitter_cfg.c **** 		{
 760              		.loc 1 2317 0 is_stmt 0 discriminator 1
 761 008c FB7D     		ldrb	r3, [r7, #23]	@ zero_extendqisi2
 762 008e 012B     		cmp	r3, #1
 763 0090 DFD9     		bls	.L30
2324:Generated_Source\PSoC5/cyfitter_cfg.c **** 		}
2325:Generated_Source\PSoC5/cyfitter_cfg.c **** 
2326:Generated_Source\PSoC5/cyfitter_cfg.c **** 		cfg_write_bytes32(cy_cfg_addr_table, cy_cfg_data_table);
 764              		.loc 1 2326 0 is_stmt 1
 765 0092 3C49     		ldr	r1, .L31+12
 766 0094 3C48     		ldr	r0, .L31+16
 767 0096 FFF7FEFF 		bl	cfg_write_bytes32
2327:Generated_Source\PSoC5/cyfitter_cfg.c **** 
2328:Generated_Source\PSoC5/cyfitter_cfg.c **** 		/* Perform normal device configuration. Order is not critical for these items. */
2329:Generated_Source\PSoC5/cyfitter_cfg.c **** 		CYMEMZERO((void CYFAR *)(CYREG_PHUB_CFGMEM0_CFG0), 4u);
 768              		.loc 1 2329 0
 769 009a 0421     		movs	r1, #4
 770 009c 3B48     		ldr	r0, .L31+20
 771 009e FFF7FEFF 		bl	CYMEMZERO
2330:Generated_Source\PSoC5/cyfitter_cfg.c **** 		CYCONFIGCPYCODE((void CYFAR *)(CYREG_PHUB_CFGMEM1_CFG0), (const void CYCODE *)(BS_PHUB_CFGMEM1_VA
 772              		.loc 1 2330 0
 773 00a2 0422     		movs	r2, #4
 774 00a4 3A49     		ldr	r1, .L31+24
 775 00a6 3B48     		ldr	r0, .L31+28
 776 00a8 FFF7FEFF 		bl	CYCONFIGCPYCODE
2331:Generated_Source\PSoC5/cyfitter_cfg.c **** 
2332:Generated_Source\PSoC5/cyfitter_cfg.c **** 		/* B0_P6_U0_CFG24 Starting address: CYDEV_UCFG_B0_P6_U0_CFG24 */
2333:Generated_Source\PSoC5/cyfitter_cfg.c **** 		CY_SET_XTND_REG32((void CYFAR *)(CYREG_B0_P6_U0_CFG24), 0xC4040404u);
 777              		.loc 1 2333 0
 778 00ac 3A4B     		ldr	r3, .L31+32
 779 00ae 3B4A     		ldr	r2, .L31+36
 780 00b0 1A60     		str	r2, [r3]
2334:Generated_Source\PSoC5/cyfitter_cfg.c **** 
2335:Generated_Source\PSoC5/cyfitter_cfg.c **** 		/* Enable digital routing */
2336:Generated_Source\PSoC5/cyfitter_cfg.c **** 		CY_SET_XTND_REG8((void CYFAR *)CYREG_BCTL0_BANK_CTL, CY_GET_XTND_REG8((void CYFAR *)CYREG_BCTL0_B
 781              		.loc 1 2336 0
 782 00b2 3B4A     		ldr	r2, .L31+40
 783 00b4 3A4B     		ldr	r3, .L31+40
 784 00b6 1B78     		ldrb	r3, [r3]
 785 00b8 DBB2     		uxtb	r3, r3
 786 00ba 43F00203 		orr	r3, r3, #2
 787 00be DBB2     		uxtb	r3, r3
 788 00c0 1370     		strb	r3, [r2]
2337:Generated_Source\PSoC5/cyfitter_cfg.c **** 		CY_SET_XTND_REG8((void CYFAR *)CYREG_BCTL1_BANK_CTL, CY_GET_XTND_REG8((void CYFAR *)CYREG_BCTL1_B
ARM GAS  C:\Users\Admin\AppData\Local\Temp\ccd3RvSG.s 			page 56


 789              		.loc 1 2337 0
 790 00c2 384A     		ldr	r2, .L31+44
 791 00c4 374B     		ldr	r3, .L31+44
 792 00c6 1B78     		ldrb	r3, [r3]
 793 00c8 DBB2     		uxtb	r3, r3
 794 00ca 43F00203 		orr	r3, r3, #2
 795 00ce DBB2     		uxtb	r3, r3
 796 00d0 1370     		strb	r3, [r2]
2338:Generated_Source\PSoC5/cyfitter_cfg.c **** 
2339:Generated_Source\PSoC5/cyfitter_cfg.c **** 		/* Enable UDB array */
2340:Generated_Source\PSoC5/cyfitter_cfg.c **** 		CY_SET_XTND_REG8((void CYFAR *)CYREG_PM_ACT_CFG0, CY_GET_XTND_REG8((void CYFAR *)CYREG_PM_ACT_CFG
 797              		.loc 1 2340 0
 798 00d2 354A     		ldr	r2, .L31+48
 799 00d4 344B     		ldr	r3, .L31+48
 800 00d6 1B78     		ldrb	r3, [r3]
 801 00d8 DBB2     		uxtb	r3, r3
 802 00da 43F04003 		orr	r3, r3, #64
 803 00de DBB2     		uxtb	r3, r3
 804 00e0 1370     		strb	r3, [r2]
2341:Generated_Source\PSoC5/cyfitter_cfg.c **** 		CY_SET_XTND_REG8((void CYFAR *)CYREG_PM_AVAIL_CR2, CY_GET_XTND_REG8((void CYFAR *)CYREG_PM_AVAIL_
 805              		.loc 1 2341 0
 806 00e2 324A     		ldr	r2, .L31+52
 807 00e4 314B     		ldr	r3, .L31+52
 808 00e6 1B78     		ldrb	r3, [r3]
 809 00e8 DBB2     		uxtb	r3, r3
 810 00ea 43F01003 		orr	r3, r3, #16
 811 00ee DBB2     		uxtb	r3, r3
 812 00f0 1370     		strb	r3, [r2]
 813              	.LBE3:
2342:Generated_Source\PSoC5/cyfitter_cfg.c **** 	}
2343:Generated_Source\PSoC5/cyfitter_cfg.c **** 
2344:Generated_Source\PSoC5/cyfitter_cfg.c **** 
2345:Generated_Source\PSoC5/cyfitter_cfg.c **** 	/* Perform second pass device configuration. These items must be configured in specific order afte
2346:Generated_Source\PSoC5/cyfitter_cfg.c **** 	CYCONFIGCPYCODE((void CYFAR *)(CYREG_PRT0_DR), (const void CYCODE *)(BS_IOPINS0_0_VAL), 10u);
 814              		.loc 1 2346 0
 815 00f2 0A22     		movs	r2, #10
 816 00f4 2E49     		ldr	r1, .L31+56
 817 00f6 2F48     		ldr	r0, .L31+60
 818 00f8 FFF7FEFF 		bl	CYCONFIGCPYCODE
2347:Generated_Source\PSoC5/cyfitter_cfg.c **** 	CYCONFIGCPYCODE((void CYFAR *)(CYREG_PRT12_DR), (const void CYCODE *)(BS_IOPINS0_7_VAL), 10u);
 819              		.loc 1 2347 0
 820 00fc 0A22     		movs	r2, #10
 821 00fe 2E49     		ldr	r1, .L31+64
 822 0100 2E48     		ldr	r0, .L31+68
 823 0102 FFF7FEFF 		bl	CYCONFIGCPYCODE
2348:Generated_Source\PSoC5/cyfitter_cfg.c **** 	CYCONFIGCPYCODE((void CYFAR *)(CYREG_PRT15_DR), (const void CYCODE *)(BS_IOPINS0_8_VAL), 10u);
 824              		.loc 1 2348 0
 825 0106 0A22     		movs	r2, #10
 826 0108 2D49     		ldr	r1, .L31+72
 827 010a 2E48     		ldr	r0, .L31+76
 828 010c FFF7FEFF 		bl	CYCONFIGCPYCODE
2349:Generated_Source\PSoC5/cyfitter_cfg.c **** 	CYCONFIGCPYCODE((void CYFAR *)(CYREG_PRT1_DM0), (const void CYCODE *)(BS_IOPINS0_1_VAL), 8u);
 829              		.loc 1 2349 0
 830 0110 0822     		movs	r2, #8
 831 0112 2D49     		ldr	r1, .L31+80
 832 0114 2D48     		ldr	r0, .L31+84
 833 0116 FFF7FEFF 		bl	CYCONFIGCPYCODE
ARM GAS  C:\Users\Admin\AppData\Local\Temp\ccd3RvSG.s 			page 57


2350:Generated_Source\PSoC5/cyfitter_cfg.c **** 	CYCONFIGCPYCODE((void CYFAR *)(CYREG_PRT2_DR), (const void CYCODE *)(BS_IOPINS0_2_VAL), 10u);
 834              		.loc 1 2350 0
 835 011a 0A22     		movs	r2, #10
 836 011c 2C49     		ldr	r1, .L31+88
 837 011e 2D48     		ldr	r0, .L31+92
 838 0120 FFF7FEFF 		bl	CYCONFIGCPYCODE
2351:Generated_Source\PSoC5/cyfitter_cfg.c **** 	CYCONFIGCPYCODE((void CYFAR *)(CYREG_PRT3_DR), (const void CYCODE *)(BS_IOPINS0_3_VAL), 10u);
 839              		.loc 1 2351 0
 840 0124 0A22     		movs	r2, #10
 841 0126 2C49     		ldr	r1, .L31+96
 842 0128 2C48     		ldr	r0, .L31+100
 843 012a FFF7FEFF 		bl	CYCONFIGCPYCODE
2352:Generated_Source\PSoC5/cyfitter_cfg.c **** 	CYCONFIGCPYCODE((void CYFAR *)(CYREG_PRT4_DM0), (const void CYCODE *)(BS_IOPINS0_4_VAL), 8u);
 844              		.loc 1 2352 0
 845 012e 0822     		movs	r2, #8
 846 0130 2B49     		ldr	r1, .L31+104
 847 0132 2C48     		ldr	r0, .L31+108
 848 0134 FFF7FEFF 		bl	CYCONFIGCPYCODE
2353:Generated_Source\PSoC5/cyfitter_cfg.c **** 	CYCONFIGCPYCODE((void CYFAR *)(CYREG_PRT6_DR), (const void CYCODE *)(BS_IOPINS0_6_VAL), 10u);
 849              		.loc 1 2353 0
 850 0138 0A22     		movs	r2, #10
 851 013a 2B49     		ldr	r1, .L31+112
 852 013c 2B48     		ldr	r0, .L31+116
 853 013e FFF7FEFF 		bl	CYCONFIGCPYCODE
2354:Generated_Source\PSoC5/cyfitter_cfg.c **** 	/* Switch Boost to the precision bandgap reference from its internal reference */
2355:Generated_Source\PSoC5/cyfitter_cfg.c **** 	CY_SET_REG8((void CYXDATA *)CYREG_BOOST_CR2, (CY_GET_REG8((void CYXDATA *)CYREG_BOOST_CR2) | 0x08u
 854              		.loc 1 2355 0
 855 0142 2B4A     		ldr	r2, .L31+120
 856 0144 2A4B     		ldr	r3, .L31+120
 857 0146 1B78     		ldrb	r3, [r3]
 858 0148 DBB2     		uxtb	r3, r3
 859 014a 43F00803 		orr	r3, r3, #8
 860 014e DBB2     		uxtb	r3, r3
 861 0150 1370     		strb	r3, [r2]
2356:Generated_Source\PSoC5/cyfitter_cfg.c **** 
2357:Generated_Source\PSoC5/cyfitter_cfg.c **** 	/* Set Flash Cycles based on max possible frequency in case a glitch occurs during ClockSetup(). *
2358:Generated_Source\PSoC5/cyfitter_cfg.c **** 	CY_SET_XTND_REG8((void CYFAR *)(CYREG_CACHE_CC_CTL), (((CYDEV_INSTRUCT_CACHE_ENABLED) != 0) ? 0x61
 862              		.loc 1 2358 0
 863 0152 284B     		ldr	r3, .L31+124
 864 0154 6122     		movs	r2, #97
 865 0156 1A70     		strb	r2, [r3]
2359:Generated_Source\PSoC5/cyfitter_cfg.c **** 	/* Setup clocks based on selections from Clock DWR */
2360:Generated_Source\PSoC5/cyfitter_cfg.c **** 	ClockSetup();
 866              		.loc 1 2360 0
 867 0158 FFF7FEFF 		bl	ClockSetup
2361:Generated_Source\PSoC5/cyfitter_cfg.c **** 	/* Set Flash Cycles based on newly configured 48.00MHz Bus Clock. */
2362:Generated_Source\PSoC5/cyfitter_cfg.c **** 	CY_SET_XTND_REG8((void CYFAR *)(CYREG_CACHE_CC_CTL), (((CYDEV_INSTRUCT_CACHE_ENABLED) != 0) ? 0xC1
 868              		.loc 1 2362 0
 869 015c 254B     		ldr	r3, .L31+124
 870 015e C122     		movs	r2, #193
 871 0160 1A70     		strb	r2, [r3]
2363:Generated_Source\PSoC5/cyfitter_cfg.c **** 
2364:Generated_Source\PSoC5/cyfitter_cfg.c **** 	/* Perform basic analog initialization to defaults */
2365:Generated_Source\PSoC5/cyfitter_cfg.c **** 	AnalogSetDefault();
 872              		.loc 1 2365 0
 873 0162 FFF7FEFF 		bl	AnalogSetDefault
2366:Generated_Source\PSoC5/cyfitter_cfg.c **** 
ARM GAS  C:\Users\Admin\AppData\Local\Temp\ccd3RvSG.s 			page 58


2367:Generated_Source\PSoC5/cyfitter_cfg.c **** 	/* Configure alternate active mode */
2368:Generated_Source\PSoC5/cyfitter_cfg.c **** 	CYCONFIGCPY((void CYFAR *)CYDEV_PM_STBY_BASE, (const void CYFAR *)CYDEV_PM_ACT_BASE, 14u);
 874              		.loc 1 2368 0
 875 0166 0E22     		movs	r2, #14
 876 0168 0F49     		ldr	r1, .L31+48
 877 016a 2348     		ldr	r0, .L31+128
 878 016c FFF7FEFF 		bl	CYCONFIGCPY
2369:Generated_Source\PSoC5/cyfitter_cfg.c **** }
 879              		.loc 1 2369 0
 880 0170 00BF     		nop
 881 0172 1837     		adds	r7, r7, #24
 882              		.cfi_def_cfa_offset 8
 883 0174 BD46     		mov	sp, r7
 884              		.cfi_def_cfa_register 13
 885              		@ sp needed
 886 0176 80BD     		pop	{r7, pc}
 887              	.L32:
 888              		.align	2
 889              	.L31:
 890 0178 E8460040 		.word	1073759976
 891 017c 00000000 		.word	cfg_memset_list.5031
 892 0180 30000000 		.word	cfg_memcpy_list.5034
 893 0184 F4000000 		.word	cy_cfg_data_table.5021
 894 0188 44000000 		.word	cy_cfg_addr_table.5020
 895 018c 00760040 		.word	1073772032
 896 0190 080F0000 		.word	BS_PHUB_CFGMEM1_VAL.5019
 897 0194 08760040 		.word	1073772040
 898 0198 580C0140 		.word	1073810520
 899 019c 040404C4 		.word	-1006369788
 900 01a0 03500140 		.word	1073827843
 901 01a4 13500140 		.word	1073827859
 902 01a8 A0430040 		.word	1073759136
 903 01ac C2430040 		.word	1073759170
 904 01b0 0C0F0000 		.word	BS_IOPINS0_0_VAL.5011
 905 01b4 00510040 		.word	1073762560
 906 01b8 180F0000 		.word	BS_IOPINS0_7_VAL.5012
 907 01bc C0510040 		.word	1073762752
 908 01c0 240F0000 		.word	BS_IOPINS0_8_VAL.5013
 909 01c4 F0510040 		.word	1073762800
 910 01c8 300F0000 		.word	BS_IOPINS0_1_VAL.5014
 911 01cc 12510040 		.word	1073762578
 912 01d0 380F0000 		.word	BS_IOPINS0_2_VAL.5015
 913 01d4 20510040 		.word	1073762592
 914 01d8 440F0000 		.word	BS_IOPINS0_3_VAL.5016
 915 01dc 30510040 		.word	1073762608
 916 01e0 500F0000 		.word	BS_IOPINS0_4_VAL.5017
 917 01e4 42510040 		.word	1073762626
 918 01e8 580F0000 		.word	BS_IOPINS0_6_VAL.5018
 919 01ec 60510040 		.word	1073762656
 920 01f0 22430040 		.word	1073759010
 921 01f4 00480040 		.word	1073760256
 922 01f8 B0430040 		.word	1073759152
 923              		.cfi_endproc
 924              	.LFE8:
 925              		.size	cyfitter_cfg, .-cyfitter_cfg
 926              		.section	.rodata
 927              		.align	2
ARM GAS  C:\Users\Admin\AppData\Local\Temp\ccd3RvSG.s 			page 59


 928              		.type	cfg_memset_list.5031, %object
 929              		.size	cfg_memset_list.5031, 48
 930              	cfg_memset_list.5031:
 931 0000 004F0040 		.word	1073762048
 932 0004 0C00     		.short	12
 933 0006 50510040 		.4byte	1073762640
 934 000a 1000     		.short	16
 935 000c 00000140 		.word	1073807360
 936 0010 8004     		.short	1152
 937 0012 00050140 		.4byte	1073808640
 938 0016 000B     		.short	2816
 939 0018 00140140 		.word	1073812480
 940 001c 0008     		.short	2048
 941 001e 00400140 		.4byte	1073823744
 942 0022 000A     		.short	2560
 943 0024 004C0140 		.word	1073826816
 944 0028 0002     		.short	512
 945 002a 10500140 		.4byte	1073827856
 946 002e 1000     		.short	16
 947              		.align	2
 948              		.type	cfg_memcpy_list.5034, %object
 949              		.size	cfg_memcpy_list.5034, 20
 950              	cfg_memcpy_list.5034:
 951 0030 80040140 		.word	1073808512
 952 0034 740F0000 		.word	BS_UDB_1_3_1_CONFIG_VAL.5032
 953 0038 8000     		.short	128
 954 003a 00500140 		.4byte	1073827840
 955 003e 640F0000 		.4byte	BS_UCFG_BCTL0_VAL.5033
 956 0042 1000     		.short	16
 957              		.align	2
 958              		.type	cy_cfg_addr_table.5020, %object
 959              		.size	cy_cfg_addr_table.5020, 176
 960              	cy_cfg_addr_table.5020:
 961 0044 01450040 		.word	1073759489
 962 0048 014F0040 		.word	1073762049
 963 004c 0A520040 		.word	1073762826
 964 0050 015B0040 		.word	1073765121
 965 0054 04640040 		.word	1073767428
 966 0058 03650040 		.word	1073767683
 967 005c 48000140 		.word	1073807432
 968 0060 2F010140 		.word	1073807663
 969 0064 69020140 		.word	1073807977
 970 0068 51030140 		.word	1073808209
 971 006c 2A040140 		.word	1073808426
 972 0070 4A050140 		.word	1073808714
 973 0074 44060140 		.word	1073808964
 974 0078 45070140 		.word	1073809221
 975 007c 3D080140 		.word	1073809469
 976 0080 49090140 		.word	1073809737
 977 0084 470A0140 		.word	1073809991
 978 0088 5A0B0140 		.word	1073810266
 979 008c 280C0140 		.word	1073810472
 980 0090 540D0140 		.word	1073810772
 981 0094 410E0140 		.word	1073811009
 982 0098 340F0140 		.word	1073811252
 983 009c 37140140 		.word	1073812535
 984 00a0 4D150140 		.word	1073812813
ARM GAS  C:\Users\Admin\AppData\Local\Temp\ccd3RvSG.s 			page 60


 985 00a4 42160140 		.word	1073813058
 986 00a8 4A170140 		.word	1073813322
 987 00ac 34180140 		.word	1073813556
 988 00b0 52190140 		.word	1073813842
 989 00b4 321A0140 		.word	1073814066
 990 00b8 5A1B0140 		.word	1073814362
 991 00bc 14400140 		.word	1073823764
 992 00c0 12410140 		.word	1073824018
 993 00c4 0E420140 		.word	1073824270
 994 00c8 09430140 		.word	1073824521
 995 00cc 03440140 		.word	1073824771
 996 00d0 08450140 		.word	1073825032
 997 00d4 07460140 		.word	1073825287
 998 00d8 08470140 		.word	1073825544
 999 00dc 15480140 		.word	1073825813
 1000 00e0 0E490140 		.word	1073826062
 1001 00e4 0C4C0140 		.word	1073826828
 1002 00e8 024D0140 		.word	1073827074
 1003 00ec 03500140 		.word	1073827843
 1004 00f0 03510140 		.word	1073828099
 1005              		.align	2
 1006              		.type	cy_cfg_data_table.5021, %object
 1007              		.size	cy_cfg_data_table.5021, 3604
 1008              	cy_cfg_data_table.5021:
 1009 00f4 7E       		.byte	126
 1010 00f5 02       		.byte	2
 1011 00f6 0A       		.byte	10
 1012 00f7 4B       		.byte	75
 1013 00f8 00       		.byte	0
 1014 00f9 20       		.byte	32
 1015 00fa 01       		.byte	1
 1016 00fb 80       		.byte	-128
 1017 00fc 08       		.byte	8
 1018 00fd 50       		.byte	80
 1019 00fe 09       		.byte	9
 1020 00ff 40       		.byte	64
 1021 0100 11       		.byte	17
 1022 0101 40       		.byte	64
 1023 0102 20       		.byte	32
 1024 0103 01       		.byte	1
 1025 0104 21       		.byte	33
 1026 0105 01       		.byte	1
 1027 0106 60       		.byte	96
 1028 0107 01       		.byte	1
 1029 0108 79       		.byte	121
 1030 0109 01       		.byte	1
 1031 010a 7C       		.byte	124
 1032 010b 40       		.byte	64
 1033 010c 27       		.byte	39
 1034 010d 84       		.byte	-124
 1035 010e 81       		.byte	-127
 1036 010f 0F       		.byte	15
 1037 0110 83       		.byte	-125
 1038 0111 0F       		.byte	15
 1039 0112 87       		.byte	-121
 1040 0113 6F       		.byte	111
 1041 0114 8C       		.byte	-116
ARM GAS  C:\Users\Admin\AppData\Local\Temp\ccd3RvSG.s 			page 61


 1042 0115 6F       		.byte	111
 1043 0116 87       		.byte	-121
 1044 0117 0F       		.byte	15
 1045 0118 88       		.byte	-120
 1046 0119 02       		.byte	2
 1047 011a 8B       		.byte	-117
 1048 011b 0F       		.byte	15
 1049 011c 00       		.byte	0
 1050 011d 06       		.byte	6
 1051 011e 03       		.byte	3
 1052 011f 07       		.byte	7
 1053 0120 05       		.byte	5
 1054 0121 21       		.byte	33
 1055 0122 07       		.byte	7
 1056 0123 12       		.byte	18
 1057 0124 09       		.byte	9
 1058 0125 10       		.byte	16
 1059 0126 0B       		.byte	11
 1060 0127 20       		.byte	32
 1061 0128 0D       		.byte	13
 1062 0129 07       		.byte	7
 1063 012a 14       		.byte	20
 1064 012b 08       		.byte	8
 1065 012c 17       		.byte	23
 1066 012d 04       		.byte	4
 1067 012e 19       		.byte	25
 1068 012f 10       		.byte	16
 1069 0130 1B       		.byte	27
 1070 0131 20       		.byte	32
 1071 0132 1C       		.byte	28
 1072 0133 03       		.byte	3
 1073 0134 1D       		.byte	29
 1074 0135 01       		.byte	1
 1075 0136 1F       		.byte	31
 1076 0137 02       		.byte	2
 1077 0138 21       		.byte	33
 1078 0139 10       		.byte	16
 1079 013a 22       		.byte	34
 1080 013b 18       		.byte	24
 1081 013c 23       		.byte	35
 1082 013d 20       		.byte	32
 1083 013e 24       		.byte	36
 1084 013f 06       		.byte	6
 1085 0140 25       		.byte	37
 1086 0141 04       		.byte	4
 1087 0142 28       		.byte	40
 1088 0143 05       		.byte	5
 1089 0144 2B       		.byte	43
 1090 0145 08       		.byte	8
 1091 0146 2D       		.byte	45
 1092 0147 07       		.byte	7
 1093 0148 2E       		.byte	46
 1094 0149 20       		.byte	32
 1095 014a 30       		.byte	48
 1096 014b 20       		.byte	32
 1097 014c 31       		.byte	49
 1098 014d 0F       		.byte	15
ARM GAS  C:\Users\Admin\AppData\Local\Temp\ccd3RvSG.s 			page 62


 1099 014e 32       		.byte	50
 1100 014f 10       		.byte	16
 1101 0150 33       		.byte	51
 1102 0151 30       		.byte	48
 1103 0152 34       		.byte	52
 1104 0153 08       		.byte	8
 1105 0154 36       		.byte	54
 1106 0155 07       		.byte	7
 1107 0156 38       		.byte	56
 1108 0157 80       		.byte	-128
 1109 0158 3B       		.byte	59
 1110 0159 08       		.byte	8
 1111 015a 3E       		.byte	62
 1112 015b 10       		.byte	16
 1113 015c 58       		.byte	88
 1114 015d 04       		.byte	4
 1115 015e 59       		.byte	89
 1116 015f 04       		.byte	4
 1117 0160 5C       		.byte	92
 1118 0161 11       		.byte	17
 1119 0162 5F       		.byte	95
 1120 0163 01       		.byte	1
 1121 0164 80       		.byte	-128
 1122 0165 06       		.byte	6
 1123 0166 87       		.byte	-121
 1124 0167 08       		.byte	8
 1125 0168 88       		.byte	-120
 1126 0169 09       		.byte	9
 1127 016a 89       		.byte	-119
 1128 016b 77       		.byte	119
 1129 016c 8C       		.byte	-116
 1130 016d 06       		.byte	6
 1131 016e 8F       		.byte	-113
 1132 016f 07       		.byte	7
 1133 0170 92       		.byte	-110
 1134 0171 09       		.byte	9
 1135 0172 95       		.byte	-107
 1136 0173 84       		.byte	-124
 1137 0174 97       		.byte	-105
 1138 0175 10       		.byte	16
 1139 0176 99       		.byte	-103
 1140 0177 C0       		.byte	-64
 1141 0178 9B       		.byte	-101
 1142 0179 24       		.byte	36
 1143 017a 9C       		.byte	-100
 1144 017b 02       		.byte	2
 1145 017c 9D       		.byte	-99
 1146 017d C1       		.byte	-63
 1147 017e 9F       		.byte	-97
 1148 017f 12       		.byte	18
 1149 0180 A0       		.byte	-96
 1150 0181 08       		.byte	8
 1151 0182 A2       		.byte	-94
 1152 0183 01       		.byte	1
 1153 0184 A5       		.byte	-91
 1154 0185 01       		.byte	1
 1155 0186 A7       		.byte	-89
ARM GAS  C:\Users\Admin\AppData\Local\Temp\ccd3RvSG.s 			page 63


 1156 0187 F2       		.byte	-14
 1157 0188 AD       		.byte	-83
 1158 0189 B7       		.byte	-73
 1159 018a AF       		.byte	-81
 1160 018b 40       		.byte	64
 1161 018c B0       		.byte	-80
 1162 018d 04       		.byte	4
 1163 018e B2       		.byte	-78
 1164 018f 08       		.byte	8
 1165 0190 B3       		.byte	-77
 1166 0191 F0       		.byte	-16
 1167 0192 B4       		.byte	-76
 1168 0193 01       		.byte	1
 1169 0194 B6       		.byte	-74
 1170 0195 02       		.byte	2
 1171 0196 B7       		.byte	-73
 1172 0197 0F       		.byte	15
 1173 0198 B8       		.byte	-72
 1174 0199 82       		.byte	-126
 1175 019a BE       		.byte	-66
 1176 019b 54       		.byte	84
 1177 019c D4       		.byte	-44
 1178 019d 0F       		.byte	15
 1179 019e D6       		.byte	-42
 1180 019f 04       		.byte	4
 1181 01a0 D8       		.byte	-40
 1182 01a1 04       		.byte	4
 1183 01a2 D9       		.byte	-39
 1184 01a3 04       		.byte	4
 1185 01a4 DB       		.byte	-37
 1186 01a5 04       		.byte	4
 1187 01a6 DC       		.byte	-36
 1188 01a7 11       		.byte	17
 1189 01a8 DD       		.byte	-35
 1190 01a9 10       		.byte	16
 1191 01aa DF       		.byte	-33
 1192 01ab 01       		.byte	1
 1193 01ac 03       		.byte	3
 1194 01ad 40       		.byte	64
 1195 01ae 04       		.byte	4
 1196 01af 92       		.byte	-110
 1197 01b0 0A       		.byte	10
 1198 01b1 11       		.byte	17
 1199 01b2 0E       		.byte	14
 1200 01b3 81       		.byte	-127
 1201 01b4 10       		.byte	16
 1202 01b5 90       		.byte	-112
 1203 01b6 11       		.byte	17
 1204 01b7 20       		.byte	32
 1205 01b8 13       		.byte	19
 1206 01b9 80       		.byte	-128
 1207 01ba 15       		.byte	21
 1208 01bb 02       		.byte	2
 1209 01bc 19       		.byte	25
 1210 01bd 42       		.byte	66
 1211 01be 1A       		.byte	26
 1212 01bf 19       		.byte	25
ARM GAS  C:\Users\Admin\AppData\Local\Temp\ccd3RvSG.s 			page 64


 1213 01c0 1D       		.byte	29
 1214 01c1 A0       		.byte	-96
 1215 01c2 1E       		.byte	30
 1216 01c3 A0       		.byte	-96
 1217 01c4 21       		.byte	33
 1218 01c5 05       		.byte	5
 1219 01c6 22       		.byte	34
 1220 01c7 01       		.byte	1
 1221 01c8 25       		.byte	37
 1222 01c9 40       		.byte	64
 1223 01ca 27       		.byte	39
 1224 01cb 11       		.byte	17
 1225 01cc 29       		.byte	41
 1226 01cd 52       		.byte	82
 1227 01ce 2A       		.byte	42
 1228 01cf 08       		.byte	8
 1229 01d0 2F       		.byte	47
 1230 01d1 22       		.byte	34
 1231 01d2 30       		.byte	48
 1232 01d3 20       		.byte	32
 1233 01d4 33       		.byte	51
 1234 01d5 48       		.byte	72
 1235 01d6 36       		.byte	54
 1236 01d7 88       		.byte	-120
 1237 01d8 37       		.byte	55
 1238 01d9 10       		.byte	16
 1239 01da 38       		.byte	56
 1240 01db 20       		.byte	32
 1241 01dc 39       		.byte	57
 1242 01dd 0A       		.byte	10
 1243 01de 3A       		.byte	58
 1244 01df 80       		.byte	-128
 1245 01e0 3D       		.byte	61
 1246 01e1 88       		.byte	-120
 1247 01e2 3F       		.byte	63
 1248 01e3 10       		.byte	16
 1249 01e4 5E       		.byte	94
 1250 01e5 60       		.byte	96
 1251 01e6 5F       		.byte	95
 1252 01e7 09       		.byte	9
 1253 01e8 67       		.byte	103
 1254 01e9 40       		.byte	64
 1255 01ea 80       		.byte	-128
 1256 01eb 20       		.byte	32
 1257 01ec 81       		.byte	-127
 1258 01ed 20       		.byte	32
 1259 01ee 82       		.byte	-126
 1260 01ef 40       		.byte	64
 1261 01f0 83       		.byte	-125
 1262 01f1 80       		.byte	-128
 1263 01f2 87       		.byte	-121
 1264 01f3 40       		.byte	64
 1265 01f4 89       		.byte	-119
 1266 01f5 04       		.byte	4
 1267 01f6 C0       		.byte	-64
 1268 01f7 D8       		.byte	-40
 1269 01f8 C2       		.byte	-62
ARM GAS  C:\Users\Admin\AppData\Local\Temp\ccd3RvSG.s 			page 65


 1270 01f9 95       		.byte	-107
 1271 01fa C4       		.byte	-60
 1272 01fb 1F       		.byte	31
 1273 01fc CA       		.byte	-54
 1274 01fd 5F       		.byte	95
 1275 01fe CC       		.byte	-52
 1276 01ff 7E       		.byte	126
 1277 0200 CE       		.byte	-50
 1278 0201 7F       		.byte	127
 1279 0202 D6       		.byte	-42
 1280 0203 F0       		.byte	-16
 1281 0204 D8       		.byte	-40
 1282 0205 80       		.byte	-128
 1283 0206 E2       		.byte	-30
 1284 0207 41       		.byte	65
 1285 0208 E4       		.byte	-28
 1286 0209 01       		.byte	1
 1287 020a 00       		.byte	0
 1288 020b 9E       		.byte	-98
 1289 020c 02       		.byte	2
 1290 020d 60       		.byte	96
 1291 020e 09       		.byte	9
 1292 020f 73       		.byte	115
 1293 0210 0F       		.byte	15
 1294 0211 0F       		.byte	15
 1295 0212 12       		.byte	18
 1296 0213 0F       		.byte	15
 1297 0214 15       		.byte	21
 1298 0215 30       		.byte	48
 1299 0216 17       		.byte	23
 1300 0217 C9       		.byte	-55
 1301 0218 18       		.byte	24
 1302 0219 CF       		.byte	-49
 1303 021a 19       		.byte	25
 1304 021b CF       		.byte	-49
 1305 021c 1A       		.byte	26
 1306 021d 30       		.byte	48
 1307 021e 1B       		.byte	27
 1308 021f 30       		.byte	48
 1309 0220 1C       		.byte	28
 1310 0221 73       		.byte	115
 1311 0222 1D       		.byte	29
 1312 0223 9E       		.byte	-98
 1313 0224 1F       		.byte	31
 1314 0225 60       		.byte	96
 1315 0226 20       		.byte	32
 1316 0227 30       		.byte	48
 1317 0228 22       		.byte	34
 1318 0229 C9       		.byte	-55
 1319 022a 24       		.byte	36
 1320 022b 94       		.byte	-108
 1321 022c 25       		.byte	37
 1322 022d 94       		.byte	-108
 1323 022e 26       		.byte	38
 1324 022f 60       		.byte	96
 1325 0230 27       		.byte	39
 1326 0231 60       		.byte	96
ARM GAS  C:\Users\Admin\AppData\Local\Temp\ccd3RvSG.s 			page 66


 1327 0232 28       		.byte	40
 1328 0233 FD       		.byte	-3
 1329 0234 2A       		.byte	42
 1330 0235 02       		.byte	2
 1331 0236 2D       		.byte	45
 1332 0237 FD       		.byte	-3
 1333 0238 2F       		.byte	47
 1334 0239 02       		.byte	2
 1335 023a 33       		.byte	51
 1336 023b FF       		.byte	-1
 1337 023c 34       		.byte	52
 1338 023d FF       		.byte	-1
 1339 023e 3E       		.byte	62
 1340 023f 10       		.byte	16
 1341 0240 3F       		.byte	63
 1342 0241 04       		.byte	4
 1343 0242 40       		.byte	64
 1344 0243 21       		.byte	33
 1345 0244 41       		.byte	65
 1346 0245 05       		.byte	5
 1347 0246 49       		.byte	73
 1348 0247 FF       		.byte	-1
 1349 0248 4A       		.byte	74
 1350 0249 FF       		.byte	-1
 1351 024a 4B       		.byte	75
 1352 024b FF       		.byte	-1
 1353 024c 4D       		.byte	77
 1354 024d A0       		.byte	-96
 1355 024e 4F       		.byte	79
 1356 024f 01       		.byte	1
 1357 0250 50       		.byte	80
 1358 0251 18       		.byte	24
 1359 0252 58       		.byte	88
 1360 0253 04       		.byte	4
 1361 0254 59       		.byte	89
 1362 0255 04       		.byte	4
 1363 0256 5A       		.byte	90
 1364 0257 04       		.byte	4
 1365 0258 5D       		.byte	93
 1366 0259 01       		.byte	1
 1367 025a 5F       		.byte	95
 1368 025b 01       		.byte	1
 1369 025c 60       		.byte	96
 1370 025d 40       		.byte	64
 1371 025e 62       		.byte	98
 1372 025f 80       		.byte	-128
 1373 0260 64       		.byte	100
 1374 0261 40       		.byte	64
 1375 0262 65       		.byte	101
 1376 0263 40       		.byte	64
 1377 0264 66       		.byte	102
 1378 0265 80       		.byte	-128
 1379 0266 68       		.byte	104
 1380 0267 40       		.byte	64
 1381 0268 6A       		.byte	106
 1382 0269 80       		.byte	-128
 1383 026a 6C       		.byte	108
ARM GAS  C:\Users\Admin\AppData\Local\Temp\ccd3RvSG.s 			page 67


 1384 026b 40       		.byte	64
 1385 026c 6D       		.byte	109
 1386 026d 20       		.byte	32
 1387 026e 6E       		.byte	110
 1388 026f 80       		.byte	-128
 1389 0270 83       		.byte	-125
 1390 0271 03       		.byte	3
 1391 0272 84       		.byte	-124
 1392 0273 03       		.byte	3
 1393 0274 85       		.byte	-123
 1394 0275 0C       		.byte	12
 1395 0276 88       		.byte	-120
 1396 0277 08       		.byte	8
 1397 0278 89       		.byte	-119
 1398 0279 02       		.byte	2
 1399 027a 91       		.byte	-111
 1400 027b 08       		.byte	8
 1401 027c 93       		.byte	-109
 1402 027d 04       		.byte	4
 1403 027e A3       		.byte	-93
 1404 027f 0C       		.byte	12
 1405 0280 A4       		.byte	-92
 1406 0281 03       		.byte	3
 1407 0282 A6       		.byte	-90
 1408 0283 0C       		.byte	12
 1409 0284 A8       		.byte	-88
 1410 0285 01       		.byte	1
 1411 0286 B0       		.byte	-80
 1412 0287 02       		.byte	2
 1413 0288 B1       		.byte	-79
 1414 0289 02       		.byte	2
 1415 028a B2       		.byte	-78
 1416 028b 04       		.byte	4
 1417 028c B3       		.byte	-77
 1418 028d 01       		.byte	1
 1419 028e B4       		.byte	-76
 1420 028f 01       		.byte	1
 1421 0290 B5       		.byte	-75
 1422 0291 08       		.byte	8
 1423 0292 B6       		.byte	-74
 1424 0293 08       		.byte	8
 1425 0294 B7       		.byte	-73
 1426 0295 04       		.byte	4
 1427 0296 B8       		.byte	-72
 1428 0297 22       		.byte	34
 1429 0298 BE       		.byte	-66
 1430 0299 50       		.byte	80
 1431 029a BF       		.byte	-65
 1432 029b 51       		.byte	81
 1433 029c C0       		.byte	-64
 1434 029d 61       		.byte	97
 1435 029e C1       		.byte	-63
 1436 029f 04       		.byte	4
 1437 02a0 C5       		.byte	-59
 1438 02a1 4E       		.byte	78
 1439 02a2 C6       		.byte	-58
 1440 02a3 C3       		.byte	-61
ARM GAS  C:\Users\Admin\AppData\Local\Temp\ccd3RvSG.s 			page 68


 1441 02a4 C7       		.byte	-57
 1442 02a5 20       		.byte	32
 1443 02a6 C8       		.byte	-56
 1444 02a7 2F       		.byte	47
 1445 02a8 C9       		.byte	-55
 1446 02a9 FF       		.byte	-1
 1447 02aa CA       		.byte	-54
 1448 02ab FF       		.byte	-1
 1449 02ac CB       		.byte	-53
 1450 02ad FF       		.byte	-1
 1451 02ae CD       		.byte	-51
 1452 02af AF       		.byte	-81
 1453 02b0 CE       		.byte	-50
 1454 02b1 07       		.byte	7
 1455 02b2 CF       		.byte	-49
 1456 02b3 01       		.byte	1
 1457 02b4 D0       		.byte	-48
 1458 02b5 18       		.byte	24
 1459 02b6 D4       		.byte	-44
 1460 02b7 0F       		.byte	15
 1461 02b8 D6       		.byte	-42
 1462 02b9 04       		.byte	4
 1463 02ba D8       		.byte	-40
 1464 02bb 04       		.byte	4
 1465 02bc D9       		.byte	-39
 1466 02bd 04       		.byte	4
 1467 02be DA       		.byte	-38
 1468 02bf 04       		.byte	4
 1469 02c0 DB       		.byte	-37
 1470 02c1 04       		.byte	4
 1471 02c2 DC       		.byte	-36
 1472 02c3 11       		.byte	17
 1473 02c4 DD       		.byte	-35
 1474 02c5 11       		.byte	17
 1475 02c6 DF       		.byte	-33
 1476 02c7 01       		.byte	1
 1477 02c8 E0       		.byte	-32
 1478 02c9 40       		.byte	64
 1479 02ca E2       		.byte	-30
 1480 02cb 80       		.byte	-128
 1481 02cc E4       		.byte	-28
 1482 02cd 40       		.byte	64
 1483 02ce E5       		.byte	-27
 1484 02cf 40       		.byte	64
 1485 02d0 E6       		.byte	-26
 1486 02d1 80       		.byte	-128
 1487 02d2 E8       		.byte	-24
 1488 02d3 40       		.byte	64
 1489 02d4 EA       		.byte	-22
 1490 02d5 80       		.byte	-128
 1491 02d6 EC       		.byte	-20
 1492 02d7 40       		.byte	64
 1493 02d8 ED       		.byte	-19
 1494 02d9 20       		.byte	32
 1495 02da EE       		.byte	-18
 1496 02db 80       		.byte	-128
 1497 02dc 00       		.byte	0
ARM GAS  C:\Users\Admin\AppData\Local\Temp\ccd3RvSG.s 			page 69


 1498 02dd 08       		.byte	8
 1499 02de 03       		.byte	3
 1500 02df 08       		.byte	8
 1501 02e0 07       		.byte	7
 1502 02e1 40       		.byte	64
 1503 02e2 0C       		.byte	12
 1504 02e3 10       		.byte	16
 1505 02e4 0D       		.byte	13
 1506 02e5 01       		.byte	1
 1507 02e6 0E       		.byte	14
 1508 02e7 01       		.byte	1
 1509 02e8 10       		.byte	16
 1510 02e9 24       		.byte	36
 1511 02ea 13       		.byte	19
 1512 02eb 10       		.byte	16
 1513 02ec 14       		.byte	20
 1514 02ed 80       		.byte	-128
 1515 02ee 15       		.byte	21
 1516 02ef 08       		.byte	8
 1517 02f0 16       		.byte	22
 1518 02f1 04       		.byte	4
 1519 02f2 19       		.byte	25
 1520 02f3 61       		.byte	97
 1521 02f4 1A       		.byte	26
 1522 02f5 04       		.byte	4
 1523 02f6 1B       		.byte	27
 1524 02f7 08       		.byte	8
 1525 02f8 1D       		.byte	29
 1526 02f9 10       		.byte	16
 1527 02fa 20       		.byte	32
 1528 02fb 10       		.byte	16
 1529 02fc 22       		.byte	34
 1530 02fd 50       		.byte	80
 1531 02fe 23       		.byte	35
 1532 02ff 80       		.byte	-128
 1533 0300 25       		.byte	37
 1534 0301 04       		.byte	4
 1535 0302 29       		.byte	41
 1536 0303 01       		.byte	1
 1537 0304 2C       		.byte	44
 1538 0305 01       		.byte	1
 1539 0306 2F       		.byte	47
 1540 0307 22       		.byte	34
 1541 0308 33       		.byte	51
 1542 0309 01       		.byte	1
 1543 030a 36       		.byte	54
 1544 030b 88       		.byte	-120
 1545 030c 37       		.byte	55
 1546 030d 10       		.byte	16
 1547 030e 38       		.byte	56
 1548 030f 14       		.byte	20
 1549 0310 3B       		.byte	59
 1550 0311 01       		.byte	1
 1551 0312 3D       		.byte	61
 1552 0313 80       		.byte	-128
 1553 0314 3F       		.byte	63
 1554 0315 10       		.byte	16
ARM GAS  C:\Users\Admin\AppData\Local\Temp\ccd3RvSG.s 			page 70


 1555 0316 41       		.byte	65
 1556 0317 81       		.byte	-127
 1557 0318 45       		.byte	69
 1558 0319 80       		.byte	-128
 1559 031a 47       		.byte	71
 1560 031b 20       		.byte	32
 1561 031c 48       		.byte	72
 1562 031d 10       		.byte	16
 1563 031e 4A       		.byte	74
 1564 031f 04       		.byte	4
 1565 0320 4B       		.byte	75
 1566 0321 01       		.byte	1
 1567 0322 4E       		.byte	78
 1568 0323 01       		.byte	1
 1569 0324 50       		.byte	80
 1570 0325 C1       		.byte	-63
 1571 0326 51       		.byte	81
 1572 0327 20       		.byte	32
 1573 0328 58       		.byte	88
 1574 0329 05       		.byte	5
 1575 032a 5A       		.byte	90
 1576 032b A0       		.byte	-96
 1577 032c 63       		.byte	99
 1578 032d 80       		.byte	-128
 1579 032e 88       		.byte	-120
 1580 032f 08       		.byte	8
 1581 0330 89       		.byte	-119
 1582 0331 01       		.byte	1
 1583 0332 8D       		.byte	-115
 1584 0333 02       		.byte	2
 1585 0334 91       		.byte	-111
 1586 0335 0A       		.byte	10
 1587 0336 92       		.byte	-110
 1588 0337 0B       		.byte	11
 1589 0338 94       		.byte	-108
 1590 0339 92       		.byte	-110
 1591 033a 97       		.byte	-105
 1592 033b 10       		.byte	16
 1593 033c 98       		.byte	-104
 1594 033d 90       		.byte	-112
 1595 033e 9A       		.byte	-102
 1596 033f 0C       		.byte	12
 1597 0340 9B       		.byte	-101
 1598 0341 11       		.byte	17
 1599 0342 9D       		.byte	-99
 1600 0343 10       		.byte	16
 1601 0344 9F       		.byte	-97
 1602 0345 40       		.byte	64
 1603 0346 A1       		.byte	-95
 1604 0347 D0       		.byte	-48
 1605 0348 A4       		.byte	-92
 1606 0349 80       		.byte	-128
 1607 034a A5       		.byte	-91
 1608 034b 04       		.byte	4
 1609 034c A6       		.byte	-90
 1610 034d 88       		.byte	-120
 1611 034e A7       		.byte	-89
ARM GAS  C:\Users\Admin\AppData\Local\Temp\ccd3RvSG.s 			page 71


 1612 034f 22       		.byte	34
 1613 0350 A8       		.byte	-88
 1614 0351 90       		.byte	-112
 1615 0352 A9       		.byte	-87
 1616 0353 10       		.byte	16
 1617 0354 AA       		.byte	-86
 1618 0355 8C       		.byte	-116
 1619 0356 AB       		.byte	-85
 1620 0357 01       		.byte	1
 1621 0358 AE       		.byte	-82
 1622 0359 01       		.byte	1
 1623 035a AF       		.byte	-81
 1624 035b 08       		.byte	8
 1625 035c B0       		.byte	-80
 1626 035d 10       		.byte	16
 1627 035e B3       		.byte	-77
 1628 035f 08       		.byte	8
 1629 0360 C0       		.byte	-64
 1630 0361 16       		.byte	22
 1631 0362 C2       		.byte	-62
 1632 0363 D0       		.byte	-48
 1633 0364 C4       		.byte	-60
 1634 0365 76       		.byte	118
 1635 0366 CA       		.byte	-54
 1636 0367 51       		.byte	81
 1637 0368 CC       		.byte	-52
 1638 0369 71       		.byte	113
 1639 036a CE       		.byte	-50
 1640 036b 37       		.byte	55
 1641 036c D0       		.byte	-48
 1642 036d 39       		.byte	57
 1643 036e D2       		.byte	-46
 1644 036f 14       		.byte	20
 1645 0370 D6       		.byte	-42
 1646 0371 0F       		.byte	15
 1647 0372 D8       		.byte	-40
 1648 0373 01       		.byte	1
 1649 0374 E6       		.byte	-26
 1650 0375 01       		.byte	1
 1651 0376 E8       		.byte	-24
 1652 0377 18       		.byte	24
 1653 0378 EA       		.byte	-22
 1654 0379 05       		.byte	5
 1655 037a EC       		.byte	-20
 1656 037b 80       		.byte	-128
 1657 037c EE       		.byte	-18
 1658 037d 01       		.byte	1
 1659 037e 04       		.byte	4
 1660 037f 04       		.byte	4
 1661 0380 05       		.byte	5
 1662 0381 06       		.byte	6
 1663 0382 09       		.byte	9
 1664 0383 03       		.byte	3
 1665 0384 12       		.byte	18
 1666 0385 02       		.byte	2
 1667 0386 1B       		.byte	27
 1668 0387 08       		.byte	8
ARM GAS  C:\Users\Admin\AppData\Local\Temp\ccd3RvSG.s 			page 72


 1669 0388 1D       		.byte	29
 1670 0389 06       		.byte	6
 1671 038a 26       		.byte	38
 1672 038b 04       		.byte	4
 1673 038c 28       		.byte	40
 1674 038d 01       		.byte	1
 1675 038e 2B       		.byte	43
 1676 038f 10       		.byte	16
 1677 0390 2D       		.byte	45
 1678 0391 05       		.byte	5
 1679 0392 30       		.byte	48
 1680 0393 04       		.byte	4
 1681 0394 31       		.byte	49
 1682 0395 08       		.byte	8
 1683 0396 32       		.byte	50
 1684 0397 01       		.byte	1
 1685 0398 33       		.byte	51
 1686 0399 07       		.byte	7
 1687 039a 34       		.byte	52
 1688 039b 02       		.byte	2
 1689 039c 35       		.byte	53
 1690 039d 10       		.byte	16
 1691 039e 39       		.byte	57
 1692 039f 08       		.byte	8
 1693 03a0 3E       		.byte	62
 1694 03a1 05       		.byte	5
 1695 03a2 40       		.byte	64
 1696 03a3 32       		.byte	50
 1697 03a4 41       		.byte	65
 1698 03a5 04       		.byte	4
 1699 03a6 49       		.byte	73
 1700 03a7 FF       		.byte	-1
 1701 03a8 4A       		.byte	74
 1702 03a9 FF       		.byte	-1
 1703 03aa 4B       		.byte	75
 1704 03ab FF       		.byte	-1
 1705 03ac 4D       		.byte	77
 1706 03ad A0       		.byte	-96
 1707 03ae 4F       		.byte	79
 1708 03af 01       		.byte	1
 1709 03b0 50       		.byte	80
 1710 03b1 18       		.byte	24
 1711 03b2 58       		.byte	88
 1712 03b3 04       		.byte	4
 1713 03b4 59       		.byte	89
 1714 03b5 04       		.byte	4
 1715 03b6 5A       		.byte	90
 1716 03b7 04       		.byte	4
 1717 03b8 5C       		.byte	92
 1718 03b9 11       		.byte	17
 1719 03ba 5D       		.byte	93
 1720 03bb 01       		.byte	1
 1721 03bc 5F       		.byte	95
 1722 03bd 01       		.byte	1
 1723 03be 60       		.byte	96
 1724 03bf 40       		.byte	64
 1725 03c0 62       		.byte	98
ARM GAS  C:\Users\Admin\AppData\Local\Temp\ccd3RvSG.s 			page 73


 1726 03c1 80       		.byte	-128
 1727 03c2 64       		.byte	100
 1728 03c3 40       		.byte	64
 1729 03c4 65       		.byte	101
 1730 03c5 40       		.byte	64
 1731 03c6 66       		.byte	102
 1732 03c7 80       		.byte	-128
 1733 03c8 68       		.byte	104
 1734 03c9 40       		.byte	64
 1735 03ca 6A       		.byte	106
 1736 03cb 80       		.byte	-128
 1737 03cc 6C       		.byte	108
 1738 03cd 40       		.byte	64
 1739 03ce 6D       		.byte	109
 1740 03cf 20       		.byte	32
 1741 03d0 6E       		.byte	110
 1742 03d1 80       		.byte	-128
 1743 03d2 00       		.byte	0
 1744 03d3 34       		.byte	52
 1745 03d4 04       		.byte	4
 1746 03d5 08       		.byte	8
 1747 03d6 07       		.byte	7
 1748 03d7 54       		.byte	84
 1749 03d8 0A       		.byte	10
 1750 03d9 40       		.byte	64
 1751 03da 0C       		.byte	12
 1752 03db 50       		.byte	80
 1753 03dc 0D       		.byte	13
 1754 03dd 04       		.byte	4
 1755 03de 0E       		.byte	14
 1756 03df 11       		.byte	17
 1757 03e0 10       		.byte	16
 1758 03e1 08       		.byte	8
 1759 03e2 12       		.byte	18
 1760 03e3 10       		.byte	16
 1761 03e4 14       		.byte	20
 1762 03e5 80       		.byte	-128
 1763 03e6 16       		.byte	22
 1764 03e7 04       		.byte	4
 1765 03e8 19       		.byte	25
 1766 03e9 1A       		.byte	26
 1767 03ea 1F       		.byte	31
 1768 03eb 01       		.byte	1
 1769 03ec 20       		.byte	32
 1770 03ed 44       		.byte	68
 1771 03ee 23       		.byte	35
 1772 03ef 10       		.byte	16
 1773 03f0 26       		.byte	38
 1774 03f1 04       		.byte	4
 1775 03f2 27       		.byte	39
 1776 03f3 66       		.byte	102
 1777 03f4 2A       		.byte	42
 1778 03f5 10       		.byte	16
 1779 03f6 2B       		.byte	43
 1780 03f7 02       		.byte	2
 1781 03f8 2C       		.byte	44
 1782 03f9 10       		.byte	16
ARM GAS  C:\Users\Admin\AppData\Local\Temp\ccd3RvSG.s 			page 74


 1783 03fa 2E       		.byte	46
 1784 03fb 11       		.byte	17
 1785 03fc 2F       		.byte	47
 1786 03fd 01       		.byte	1
 1787 03fe 31       		.byte	49
 1788 03ff 10       		.byte	16
 1789 0400 32       		.byte	50
 1790 0401 80       		.byte	-128
 1791 0402 37       		.byte	55
 1792 0403 46       		.byte	70
 1793 0404 38       		.byte	56
 1794 0405 08       		.byte	8
 1795 0406 3B       		.byte	59
 1796 0407 10       		.byte	16
 1797 0408 3D       		.byte	61
 1798 0409 20       		.byte	32
 1799 040a 3E       		.byte	62
 1800 040b 88       		.byte	-120
 1801 040c 42       		.byte	66
 1802 040d 04       		.byte	4
 1803 040e 43       		.byte	67
 1804 040f 09       		.byte	9
 1805 0410 45       		.byte	69
 1806 0411 08       		.byte	8
 1807 0412 47       		.byte	71
 1808 0413 01       		.byte	1
 1809 0414 4C       		.byte	76
 1810 0415 20       		.byte	32
 1811 0416 4D       		.byte	77
 1812 0417 21       		.byte	33
 1813 0418 54       		.byte	84
 1814 0419 04       		.byte	4
 1815 041a 56       		.byte	86
 1816 041b 10       		.byte	16
 1817 041c 57       		.byte	87
 1818 041d 01       		.byte	1
 1819 041e 76       		.byte	118
 1820 041f 80       		.byte	-128
 1821 0420 88       		.byte	-120
 1822 0421 04       		.byte	4
 1823 0422 8C       		.byte	-116
 1824 0423 08       		.byte	8
 1825 0424 91       		.byte	-111
 1826 0425 08       		.byte	8
 1827 0426 92       		.byte	-110
 1828 0427 0D       		.byte	13
 1829 0428 94       		.byte	-108
 1830 0429 04       		.byte	4
 1831 042a 95       		.byte	-107
 1832 042b 01       		.byte	1
 1833 042c 97       		.byte	-105
 1834 042d 10       		.byte	16
 1835 042e 98       		.byte	-104
 1836 042f BA       		.byte	-70
 1837 0430 99       		.byte	-103
 1838 0431 20       		.byte	32
 1839 0432 9A       		.byte	-102
ARM GAS  C:\Users\Admin\AppData\Local\Temp\ccd3RvSG.s 			page 75


 1840 0433 0C       		.byte	12
 1841 0434 9B       		.byte	-101
 1842 0435 91       		.byte	-111
 1843 0436 9D       		.byte	-99
 1844 0437 02       		.byte	2
 1845 0438 9F       		.byte	-97
 1846 0439 60       		.byte	96
 1847 043a A0       		.byte	-96
 1848 043b 10       		.byte	16
 1849 043c A1       		.byte	-95
 1850 043d 30       		.byte	48
 1851 043e A4       		.byte	-92
 1852 043f 24       		.byte	36
 1853 0440 A6       		.byte	-90
 1854 0441 8C       		.byte	-116
 1855 0442 A7       		.byte	-89
 1856 0443 23       		.byte	35
 1857 0444 A8       		.byte	-88
 1858 0445 02       		.byte	2
 1859 0446 AF       		.byte	-81
 1860 0447 11       		.byte	17
 1861 0448 B1       		.byte	-79
 1862 0449 40       		.byte	64
 1863 044a B4       		.byte	-76
 1864 044b 21       		.byte	33
 1865 044c B7       		.byte	-73
 1866 044d 40       		.byte	64
 1867 044e C0       		.byte	-64
 1868 044f 54       		.byte	84
 1869 0450 C2       		.byte	-62
 1870 0451 E8       		.byte	-24
 1871 0452 C4       		.byte	-60
 1872 0453 56       		.byte	86
 1873 0454 CA       		.byte	-54
 1874 0455 FC       		.byte	-4
 1875 0456 CC       		.byte	-52
 1876 0457 DC       		.byte	-36
 1877 0458 CE       		.byte	-50
 1878 0459 76       		.byte	118
 1879 045a D0       		.byte	-48
 1880 045b C7       		.byte	-57
 1881 045c D2       		.byte	-46
 1882 045d 20       		.byte	32
 1883 045e E6       		.byte	-26
 1884 045f 05       		.byte	5
 1885 0460 E8       		.byte	-24
 1886 0461 08       		.byte	8
 1887 0462 EC       		.byte	-20
 1888 0463 08       		.byte	8
 1889 0464 EE       		.byte	-18
 1890 0465 41       		.byte	65
 1891 0466 02       		.byte	2
 1892 0467 01       		.byte	1
 1893 0468 04       		.byte	4
 1894 0469 50       		.byte	80
 1895 046a 06       		.byte	6
 1896 046b A4       		.byte	-92
ARM GAS  C:\Users\Admin\AppData\Local\Temp\ccd3RvSG.s 			page 76


 1897 046c 09       		.byte	9
 1898 046d 7F       		.byte	127
 1899 046e 0A       		.byte	10
 1900 046f 08       		.byte	8
 1901 0470 0E       		.byte	14
 1902 0471 03       		.byte	3
 1903 0472 13       		.byte	19
 1904 0473 01       		.byte	1
 1905 0474 14       		.byte	20
 1906 0475 70       		.byte	112
 1907 0476 15       		.byte	21
 1908 0477 96       		.byte	-106
 1909 0478 17       		.byte	23
 1910 0479 68       		.byte	104
 1911 047a 18       		.byte	24
 1912 047b 01       		.byte	1
 1913 047c 19       		.byte	25
 1914 047d A3       		.byte	-93
 1915 047e 1B       		.byte	27
 1916 047f 5C       		.byte	92
 1917 0480 1C       		.byte	28
 1918 0481 A4       		.byte	-92
 1919 0482 1D       		.byte	29
 1920 0483 C5       		.byte	-59
 1921 0484 1E       		.byte	30
 1922 0485 50       		.byte	80
 1923 0486 1F       		.byte	31
 1924 0487 3A       		.byte	58
 1925 0488 20       		.byte	32
 1926 0489 F4       		.byte	-12
 1927 048a 24       		.byte	36
 1928 048b 34       		.byte	52
 1929 048c 25       		.byte	37
 1930 048d 0E       		.byte	14
 1931 048e 26       		.byte	38
 1932 048f C0       		.byte	-64
 1933 0490 27       		.byte	39
 1934 0491 F0       		.byte	-16
 1935 0492 28       		.byte	40
 1936 0493 C4       		.byte	-60
 1937 0494 2A       		.byte	42
 1938 0495 30       		.byte	48
 1939 0496 2D       		.byte	45
 1940 0497 FE       		.byte	-2
 1941 0498 2F       		.byte	47
 1942 0499 01       		.byte	1
 1943 049a 30       		.byte	48
 1944 049b F0       		.byte	-16
 1945 049c 32       		.byte	50
 1946 049d 01       		.byte	1
 1947 049e 34       		.byte	52
 1948 049f 02       		.byte	2
 1949 04a0 35       		.byte	53
 1950 04a1 FF       		.byte	-1
 1951 04a2 36       		.byte	54
 1952 04a3 0C       		.byte	12
 1953 04a4 3E       		.byte	62
ARM GAS  C:\Users\Admin\AppData\Local\Temp\ccd3RvSG.s 			page 77


 1954 04a5 04       		.byte	4
 1955 04a6 3F       		.byte	63
 1956 04a7 10       		.byte	16
 1957 04a8 52       		.byte	82
 1958 04a9 80       		.byte	-128
 1959 04aa 58       		.byte	88
 1960 04ab 04       		.byte	4
 1961 04ac 59       		.byte	89
 1962 04ad 04       		.byte	4
 1963 04ae 5B       		.byte	91
 1964 04af 04       		.byte	4
 1965 04b0 5C       		.byte	92
 1966 04b1 01       		.byte	1
 1967 04b2 5D       		.byte	93
 1968 04b3 10       		.byte	16
 1969 04b4 5F       		.byte	95
 1970 04b5 01       		.byte	1
 1971 04b6 85       		.byte	-123
 1972 04b7 10       		.byte	16
 1973 04b8 87       		.byte	-121
 1974 04b9 20       		.byte	32
 1975 04ba 89       		.byte	-119
 1976 04bb 07       		.byte	7
 1977 04bc 8D       		.byte	-115
 1978 04bd 10       		.byte	16
 1979 04be 8F       		.byte	-113
 1980 04bf 60       		.byte	96
 1981 04c0 95       		.byte	-107
 1982 04c1 20       		.byte	32
 1983 04c2 97       		.byte	-105
 1984 04c3 1F       		.byte	31
 1985 04c4 99       		.byte	-103
 1986 04c5 08       		.byte	8
 1987 04c6 9B       		.byte	-101
 1988 04c7 01       		.byte	1
 1989 04c8 9D       		.byte	-99
 1990 04c9 0C       		.byte	12
 1991 04ca 9F       		.byte	-97
 1992 04cb 02       		.byte	2
 1993 04cc A5       		.byte	-91
 1994 04cd 0C       		.byte	12
 1995 04ce A7       		.byte	-89
 1996 04cf 01       		.byte	1
 1997 04d0 A9       		.byte	-87
 1998 04d1 10       		.byte	16
 1999 04d2 AB       		.byte	-85
 2000 04d3 20       		.byte	32
 2001 04d4 AD       		.byte	-83
 2002 04d5 0B       		.byte	11
 2003 04d6 AF       		.byte	-81
 2004 04d7 04       		.byte	4
 2005 04d8 B3       		.byte	-77
 2006 04d9 30       		.byte	48
 2007 04da B5       		.byte	-75
 2008 04db 40       		.byte	64
 2009 04dc B7       		.byte	-73
 2010 04dd 0F       		.byte	15
ARM GAS  C:\Users\Admin\AppData\Local\Temp\ccd3RvSG.s 			page 78


 2011 04de BB       		.byte	-69
 2012 04df 08       		.byte	8
 2013 04e0 D4       		.byte	-44
 2014 04e1 0F       		.byte	15
 2015 04e2 D8       		.byte	-40
 2016 04e3 04       		.byte	4
 2017 04e4 D9       		.byte	-39
 2018 04e5 04       		.byte	4
 2019 04e6 DB       		.byte	-37
 2020 04e7 04       		.byte	4
 2021 04e8 DC       		.byte	-36
 2022 04e9 14       		.byte	20
 2023 04ea DD       		.byte	-35
 2024 04eb 10       		.byte	16
 2025 04ec DF       		.byte	-33
 2026 04ed 05       		.byte	5
 2027 04ee 01       		.byte	1
 2028 04ef 90       		.byte	-112
 2029 04f0 05       		.byte	5
 2030 04f1 40       		.byte	64
 2031 04f2 07       		.byte	7
 2032 04f3 68       		.byte	104
 2033 04f4 08       		.byte	8
 2034 04f5 80       		.byte	-128
 2035 04f6 09       		.byte	9
 2036 04f7 04       		.byte	4
 2037 04f8 0B       		.byte	11
 2038 04f9 40       		.byte	64
 2039 04fa 0E       		.byte	14
 2040 04fb 04       		.byte	4
 2041 04fc 0F       		.byte	15
 2042 04fd 11       		.byte	17
 2043 04fe 10       		.byte	16
 2044 04ff 02       		.byte	2
 2045 0500 11       		.byte	17
 2046 0501 01       		.byte	1
 2047 0502 15       		.byte	21
 2048 0503 04       		.byte	4
 2049 0504 16       		.byte	22
 2050 0505 80       		.byte	-128
 2051 0506 17       		.byte	23
 2052 0507 10       		.byte	16
 2053 0508 1D       		.byte	29
 2054 0509 48       		.byte	72
 2055 050a 1E       		.byte	30
 2056 050b 06       		.byte	6
 2057 050c 1F       		.byte	31
 2058 050d 0A       		.byte	10
 2059 050e 22       		.byte	34
 2060 050f 88       		.byte	-120
 2061 0510 23       		.byte	35
 2062 0511 25       		.byte	37
 2063 0512 27       		.byte	39
 2064 0513 08       		.byte	8
 2065 0514 28       		.byte	40
 2066 0515 10       		.byte	16
 2067 0516 29       		.byte	41
ARM GAS  C:\Users\Admin\AppData\Local\Temp\ccd3RvSG.s 			page 79


 2068 0517 10       		.byte	16
 2069 0518 2B       		.byte	43
 2070 0519 02       		.byte	2
 2071 051a 2D       		.byte	45
 2072 051b 04       		.byte	4
 2073 051c 2E       		.byte	46
 2074 051d 80       		.byte	-128
 2075 051e 2F       		.byte	47
 2076 051f 22       		.byte	34
 2077 0520 32       		.byte	50
 2078 0521 88       		.byte	-120
 2079 0522 33       		.byte	51
 2080 0523 20       		.byte	32
 2081 0524 34       		.byte	52
 2082 0525 10       		.byte	16
 2083 0526 36       		.byte	54
 2084 0527 89       		.byte	-119
 2085 0528 37       		.byte	55
 2086 0529 10       		.byte	16
 2087 052a 38       		.byte	56
 2088 052b 40       		.byte	64
 2089 052c 3B       		.byte	59
 2090 052d 14       		.byte	20
 2091 052e 3F       		.byte	63
 2092 052f 10       		.byte	16
 2093 0530 58       		.byte	88
 2094 0531 22       		.byte	34
 2095 0532 5A       		.byte	90
 2096 0533 08       		.byte	8
 2097 0534 5B       		.byte	91
 2098 0535 80       		.byte	-128
 2099 0536 60       		.byte	96
 2100 0537 10       		.byte	16
 2101 0538 61       		.byte	97
 2102 0539 20       		.byte	32
 2103 053a 77       		.byte	119
 2104 053b 40       		.byte	64
 2105 053c 78       		.byte	120
 2106 053d 40       		.byte	64
 2107 053e 82       		.byte	-126
 2108 053f 02       		.byte	2
 2109 0540 84       		.byte	-124
 2110 0541 82       		.byte	-126
 2111 0542 85       		.byte	-123
 2112 0543 20       		.byte	32
 2113 0544 8A       		.byte	-118
 2114 0545 01       		.byte	1
 2115 0546 8D       		.byte	-115
 2116 0547 01       		.byte	1
 2117 0548 90       		.byte	-112
 2118 0549 50       		.byte	80
 2119 054a 92       		.byte	-110
 2120 054b 08       		.byte	8
 2121 054c 93       		.byte	-109
 2122 054d 10       		.byte	16
 2123 054e 96       		.byte	-106
 2124 054f 40       		.byte	64
ARM GAS  C:\Users\Admin\AppData\Local\Temp\ccd3RvSG.s 			page 80


 2125 0550 98       		.byte	-104
 2126 0551 6A       		.byte	106
 2127 0552 99       		.byte	-103
 2128 0553 18       		.byte	24
 2129 0554 9B       		.byte	-101
 2130 0555 90       		.byte	-112
 2131 0556 A0       		.byte	-96
 2132 0557 08       		.byte	8
 2133 0558 A1       		.byte	-95
 2134 0559 20       		.byte	32
 2135 055a A5       		.byte	-91
 2136 055b 08       		.byte	8
 2137 055c A6       		.byte	-90
 2138 055d 88       		.byte	-120
 2139 055e A7       		.byte	-89
 2140 055f 2A       		.byte	42
 2141 0560 B7       		.byte	-73
 2142 0561 40       		.byte	64
 2143 0562 C0       		.byte	-64
 2144 0563 F3       		.byte	-13
 2145 0564 C2       		.byte	-62
 2146 0565 ED       		.byte	-19
 2147 0566 C4       		.byte	-60
 2148 0567 79       		.byte	121
 2149 0568 CA       		.byte	-54
 2150 0569 5E       		.byte	94
 2151 056a CC       		.byte	-52
 2152 056b FE       		.byte	-2
 2153 056c CE       		.byte	-50
 2154 056d 2E       		.byte	46
 2155 056e D6       		.byte	-42
 2156 056f 0F       		.byte	15
 2157 0570 D8       		.byte	-40
 2158 0571 06       		.byte	6
 2159 0572 DE       		.byte	-34
 2160 0573 08       		.byte	8
 2161 0574 E2       		.byte	-30
 2162 0575 0C       		.byte	12
 2163 0576 E6       		.byte	-26
 2164 0577 06       		.byte	6
 2165 0578 01       		.byte	1
 2166 0579 02       		.byte	2
 2167 057a 02       		.byte	2
 2168 057b 04       		.byte	4
 2169 057c 04       		.byte	4
 2170 057d 04       		.byte	4
 2171 057e 07       		.byte	7
 2172 057f 02       		.byte	2
 2173 0580 09       		.byte	9
 2174 0581 20       		.byte	32
 2175 0582 0A       		.byte	10
 2176 0583 01       		.byte	1
 2177 0584 0B       		.byte	11
 2178 0585 10       		.byte	16
 2179 0586 0D       		.byte	13
 2180 0587 80       		.byte	-128
 2181 0588 0F       		.byte	15
ARM GAS  C:\Users\Admin\AppData\Local\Temp\ccd3RvSG.s 			page 81


 2182 0589 40       		.byte	64
 2183 058a 11       		.byte	17
 2184 058b 10       		.byte	16
 2185 058c 13       		.byte	19
 2186 058d 20       		.byte	32
 2187 058e 14       		.byte	20
 2188 058f 01       		.byte	1
 2189 0590 15       		.byte	21
 2190 0591 08       		.byte	8
 2191 0592 18       		.byte	24
 2192 0593 02       		.byte	2
 2193 0594 1B       		.byte	27
 2194 0595 01       		.byte	1
 2195 0596 1D       		.byte	29
 2196 0597 04       		.byte	4
 2197 0598 21       		.byte	33
 2198 0599 40       		.byte	64
 2199 059a 22       		.byte	34
 2200 059b 02       		.byte	2
 2201 059c 23       		.byte	35
 2202 059d 80       		.byte	-128
 2203 059e 25       		.byte	37
 2204 059f 01       		.byte	1
 2205 05a0 26       		.byte	38
 2206 05a1 10       		.byte	16
 2207 05a2 2A       		.byte	42
 2208 05a3 08       		.byte	8
 2209 05a4 2B       		.byte	43
 2210 05a5 04       		.byte	4
 2211 05a6 2C       		.byte	44
 2212 05a7 08       		.byte	8
 2213 05a8 2F       		.byte	47
 2214 05a9 08       		.byte	8
 2215 05aa 34       		.byte	52
 2216 05ab 1F       		.byte	31
 2217 05ac 35       		.byte	53
 2218 05ad FF       		.byte	-1
 2219 05ae 38       		.byte	56
 2220 05af 20       		.byte	32
 2221 05b0 3E       		.byte	62
 2222 05b1 10       		.byte	16
 2223 05b2 3F       		.byte	63
 2224 05b3 10       		.byte	16
 2225 05b4 54       		.byte	84
 2226 05b5 40       		.byte	64
 2227 05b6 58       		.byte	88
 2228 05b7 04       		.byte	4
 2229 05b8 59       		.byte	89
 2230 05b9 04       		.byte	4
 2231 05ba 5B       		.byte	91
 2232 05bb 04       		.byte	4
 2233 05bc 5C       		.byte	92
 2234 05bd 04       		.byte	4
 2235 05be 5D       		.byte	93
 2236 05bf 20       		.byte	32
 2237 05c0 5F       		.byte	95
 2238 05c1 01       		.byte	1
ARM GAS  C:\Users\Admin\AppData\Local\Temp\ccd3RvSG.s 			page 82


 2239 05c2 87       		.byte	-121
 2240 05c3 01       		.byte	1
 2241 05c4 89       		.byte	-119
 2242 05c5 02       		.byte	2
 2243 05c6 8A       		.byte	-118
 2244 05c7 02       		.byte	2
 2245 05c8 8C       		.byte	-116
 2246 05c9 02       		.byte	2
 2247 05ca 91       		.byte	-111
 2248 05cb 02       		.byte	2
 2249 05cc 96       		.byte	-106
 2250 05cd 01       		.byte	1
 2251 05ce 97       		.byte	-105
 2252 05cf 02       		.byte	2
 2253 05d0 98       		.byte	-104
 2254 05d1 02       		.byte	2
 2255 05d2 99       		.byte	-103
 2256 05d3 02       		.byte	2
 2257 05d4 9D       		.byte	-99
 2258 05d5 02       		.byte	2
 2259 05d6 A0       		.byte	-96
 2260 05d7 02       		.byte	2
 2261 05d8 A4       		.byte	-92
 2262 05d9 02       		.byte	2
 2263 05da A5       		.byte	-91
 2264 05db 02       		.byte	2
 2265 05dc A8       		.byte	-88
 2266 05dd 02       		.byte	2
 2267 05de AC       		.byte	-84
 2268 05df 02       		.byte	2
 2269 05e0 AF       		.byte	-81
 2270 05e1 02       		.byte	2
 2271 05e2 B0       		.byte	-80
 2272 05e3 01       		.byte	1
 2273 05e4 B3       		.byte	-77
 2274 05e5 02       		.byte	2
 2275 05e6 B4       		.byte	-76
 2276 05e7 02       		.byte	2
 2277 05e8 B5       		.byte	-75
 2278 05e9 01       		.byte	1
 2279 05ea D8       		.byte	-40
 2280 05eb 04       		.byte	4
 2281 05ec D9       		.byte	-39
 2282 05ed 04       		.byte	4
 2283 05ee DC       		.byte	-36
 2284 05ef 44       		.byte	68
 2285 05f0 DF       		.byte	-33
 2286 05f1 01       		.byte	1
 2287 05f2 02       		.byte	2
 2288 05f3 08       		.byte	8
 2289 05f4 03       		.byte	3
 2290 05f5 02       		.byte	2
 2291 05f6 06       		.byte	6
 2292 05f7 28       		.byte	40
 2293 05f8 07       		.byte	7
 2294 05f9 41       		.byte	65
 2295 05fa 08       		.byte	8
ARM GAS  C:\Users\Admin\AppData\Local\Temp\ccd3RvSG.s 			page 83


 2296 05fb 08       		.byte	8
 2297 05fc 0B       		.byte	11
 2298 05fd 08       		.byte	8
 2299 05fe 0C       		.byte	12
 2300 05ff 90       		.byte	-112
 2301 0600 0E       		.byte	14
 2302 0601 64       		.byte	100
 2303 0602 10       		.byte	16
 2304 0603 91       		.byte	-111
 2305 0604 13       		.byte	19
 2306 0605 20       		.byte	32
 2307 0606 14       		.byte	20
 2308 0607 08       		.byte	8
 2309 0608 15       		.byte	21
 2310 0609 41       		.byte	65
 2311 060a 17       		.byte	23
 2312 060b 04       		.byte	4
 2313 060c 19       		.byte	25
 2314 060d 10       		.byte	16
 2315 060e 1B       		.byte	27
 2316 060f 02       		.byte	2
 2317 0610 1D       		.byte	29
 2318 0611 20       		.byte	32
 2319 0612 22       		.byte	34
 2320 0613 20       		.byte	32
 2321 0614 23       		.byte	35
 2322 0615 10       		.byte	16
 2323 0616 27       		.byte	39
 2324 0617 04       		.byte	4
 2325 0618 28       		.byte	40
 2326 0619 11       		.byte	17
 2327 061a 2C       		.byte	44
 2328 061b 80       		.byte	-128
 2329 061c 2D       		.byte	45
 2330 061d 40       		.byte	64
 2331 061e 2E       		.byte	46
 2332 061f 28       		.byte	40
 2333 0620 2F       		.byte	47
 2334 0621 46       		.byte	70
 2335 0622 30       		.byte	48
 2336 0623 80       		.byte	-128
 2337 0624 32       		.byte	50
 2338 0625 28       		.byte	40
 2339 0626 33       		.byte	51
 2340 0627 02       		.byte	2
 2341 0628 34       		.byte	52
 2342 0629 09       		.byte	9
 2343 062a 35       		.byte	53
 2344 062b 01       		.byte	1
 2345 062c 36       		.byte	54
 2346 062d 35       		.byte	53
 2347 062e 37       		.byte	55
 2348 062f 61       		.byte	97
 2349 0630 3A       		.byte	58
 2350 0631 28       		.byte	40
 2351 0632 3C       		.byte	60
 2352 0633 08       		.byte	8
ARM GAS  C:\Users\Admin\AppData\Local\Temp\ccd3RvSG.s 			page 84


 2353 0634 3D       		.byte	61
 2354 0635 91       		.byte	-111
 2355 0636 3E       		.byte	62
 2356 0637 06       		.byte	6
 2357 0638 65       		.byte	101
 2358 0639 04       		.byte	4
 2359 063a 67       		.byte	103
 2360 063b 05       		.byte	5
 2361 063c 7C       		.byte	124
 2362 063d 80       		.byte	-128
 2363 063e 7D       		.byte	125
 2364 063f 80       		.byte	-128
 2365 0640 82       		.byte	-126
 2366 0641 80       		.byte	-128
 2367 0642 84       		.byte	-124
 2368 0643 04       		.byte	4
 2369 0644 86       		.byte	-122
 2370 0645 20       		.byte	32
 2371 0646 87       		.byte	-121
 2372 0647 02       		.byte	2
 2373 0648 8B       		.byte	-117
 2374 0649 10       		.byte	16
 2375 064a 8C       		.byte	-116
 2376 064b 10       		.byte	16
 2377 064c 90       		.byte	-112
 2378 064d 02       		.byte	2
 2379 064e 92       		.byte	-110
 2380 064f 80       		.byte	-128
 2381 0650 93       		.byte	-109
 2382 0651 88       		.byte	-120
 2383 0652 94       		.byte	-108
 2384 0653 20       		.byte	32
 2385 0654 95       		.byte	-107
 2386 0655 14       		.byte	20
 2387 0656 96       		.byte	-106
 2388 0657 40       		.byte	64
 2389 0658 97       		.byte	-105
 2390 0659 20       		.byte	32
 2391 065a 99       		.byte	-103
 2392 065b 08       		.byte	8
 2393 065c 9B       		.byte	-101
 2394 065d 08       		.byte	8
 2395 065e 9C       		.byte	-100
 2396 065f 84       		.byte	-124
 2397 0660 9F       		.byte	-97
 2398 0661 60       		.byte	96
 2399 0662 A0       		.byte	-96
 2400 0663 02       		.byte	2
 2401 0664 A2       		.byte	-94
 2402 0665 81       		.byte	-127
 2403 0666 A4       		.byte	-92
 2404 0667 04       		.byte	4
 2405 0668 A6       		.byte	-90
 2406 0669 20       		.byte	32
 2407 066a A7       		.byte	-89
 2408 066b 02       		.byte	2
 2409 066c B6       		.byte	-74
ARM GAS  C:\Users\Admin\AppData\Local\Temp\ccd3RvSG.s 			page 85


 2410 066d 08       		.byte	8
 2411 066e C0       		.byte	-64
 2412 066f F3       		.byte	-13
 2413 0670 C2       		.byte	-62
 2414 0671 F6       		.byte	-10
 2415 0672 C4       		.byte	-60
 2416 0673 FF       		.byte	-1
 2417 0674 CA       		.byte	-54
 2418 0675 FA       		.byte	-6
 2419 0676 CC       		.byte	-52
 2420 0677 FF       		.byte	-1
 2421 0678 CE       		.byte	-50
 2422 0679 F6       		.byte	-10
 2423 067a D8       		.byte	-40
 2424 067b 70       		.byte	112
 2425 067c E0       		.byte	-32
 2426 067d 20       		.byte	32
 2427 067e E2       		.byte	-30
 2428 067f 04       		.byte	4
 2429 0680 E4       		.byte	-28
 2430 0681 40       		.byte	64
 2431 0682 E8       		.byte	-24
 2432 0683 10       		.byte	16
 2433 0684 06       		.byte	6
 2434 0685 01       		.byte	1
 2435 0686 0C       		.byte	12
 2436 0687 08       		.byte	8
 2437 0688 0D       		.byte	13
 2438 0689 01       		.byte	1
 2439 068a 12       		.byte	18
 2440 068b 02       		.byte	2
 2441 068c 14       		.byte	20
 2442 068d 01       		.byte	1
 2443 068e 18       		.byte	24
 2444 068f 04       		.byte	4
 2445 0690 26       		.byte	38
 2446 0691 04       		.byte	4
 2447 0692 28       		.byte	40
 2448 0693 08       		.byte	8
 2449 0694 2B       		.byte	43
 2450 0695 03       		.byte	3
 2451 0696 32       		.byte	50
 2452 0697 08       		.byte	8
 2453 0698 34       		.byte	52
 2454 0699 03       		.byte	3
 2455 069a 35       		.byte	53
 2456 069b 01       		.byte	1
 2457 069c 36       		.byte	54
 2458 069d 04       		.byte	4
 2459 069e 37       		.byte	55
 2460 069f 02       		.byte	2
 2461 06a0 38       		.byte	56
 2462 06a1 08       		.byte	8
 2463 06a2 3E       		.byte	62
 2464 06a3 44       		.byte	68
 2465 06a4 52       		.byte	82
 2466 06a5 03       		.byte	3
ARM GAS  C:\Users\Admin\AppData\Local\Temp\ccd3RvSG.s 			page 86


 2467 06a6 53       		.byte	83
 2468 06a7 02       		.byte	2
 2469 06a8 58       		.byte	88
 2470 06a9 04       		.byte	4
 2471 06aa 59       		.byte	89
 2472 06ab 0F       		.byte	15
 2473 06ac 5B       		.byte	91
 2474 06ad 04       		.byte	4
 2475 06ae 5C       		.byte	92
 2476 06af 49       		.byte	73
 2477 06b0 5D       		.byte	93
 2478 06b1 40       		.byte	64
 2479 06b2 5F       		.byte	95
 2480 06b3 01       		.byte	1
 2481 06b4 83       		.byte	-125
 2482 06b5 20       		.byte	32
 2483 06b6 85       		.byte	-123
 2484 06b7 DC       		.byte	-36
 2485 06b8 87       		.byte	-121
 2486 06b9 22       		.byte	34
 2487 06ba 88       		.byte	-120
 2488 06bb 03       		.byte	3
 2489 06bc 8C       		.byte	-116
 2490 06bd 03       		.byte	3
 2491 06be 97       		.byte	-105
 2492 06bf 03       		.byte	3
 2493 06c0 99       		.byte	-103
 2494 06c1 10       		.byte	16
 2495 06c2 9B       		.byte	-101
 2496 06c3 AC       		.byte	-84
 2497 06c4 9D       		.byte	-99
 2498 06c5 0C       		.byte	12
 2499 06c6 9F       		.byte	-97
 2500 06c7 71       		.byte	113
 2501 06c8 A1       		.byte	-95
 2502 06c9 10       		.byte	16
 2503 06ca A2       		.byte	-94
 2504 06cb 04       		.byte	4
 2505 06cc A3       		.byte	-93
 2506 06cd 40       		.byte	64
 2507 06ce A4       		.byte	-92
 2508 06cf 02       		.byte	2
 2509 06d0 A5       		.byte	-91
 2510 06d1 09       		.byte	9
 2511 06d2 A7       		.byte	-89
 2512 06d3 D0       		.byte	-48
 2513 06d4 A9       		.byte	-87
 2514 06d5 14       		.byte	20
 2515 06d6 AE       		.byte	-82
 2516 06d7 01       		.byte	1
 2517 06d8 B2       		.byte	-78
 2518 06d9 03       		.byte	3
 2519 06da B5       		.byte	-75
 2520 06db 1F       		.byte	31
 2521 06dc B6       		.byte	-74
 2522 06dd 04       		.byte	4
 2523 06de B7       		.byte	-73
ARM GAS  C:\Users\Admin\AppData\Local\Temp\ccd3RvSG.s 			page 87


 2524 06df E0       		.byte	-32
 2525 06e0 B8       		.byte	-72
 2526 06e1 08       		.byte	8
 2527 06e2 BB       		.byte	-69
 2528 06e3 80       		.byte	-128
 2529 06e4 BE       		.byte	-66
 2530 06e5 04       		.byte	4
 2531 06e6 C0       		.byte	-64
 2532 06e7 21       		.byte	33
 2533 06e8 C1       		.byte	-63
 2534 06e9 04       		.byte	4
 2535 06ea C5       		.byte	-59
 2536 06eb 0E       		.byte	14
 2537 06ec C7       		.byte	-57
 2538 06ed CB       		.byte	-53
 2539 06ee C8       		.byte	-56
 2540 06ef 31       		.byte	49
 2541 06f0 C9       		.byte	-55
 2542 06f1 FF       		.byte	-1
 2543 06f2 CA       		.byte	-54
 2544 06f3 FF       		.byte	-1
 2545 06f4 CB       		.byte	-53
 2546 06f5 FF       		.byte	-1
 2547 06f6 CE       		.byte	-50
 2548 06f7 F0       		.byte	-16
 2549 06f8 CF       		.byte	-49
 2550 06f9 44       		.byte	68
 2551 06fa D0       		.byte	-48
 2552 06fb 0C       		.byte	12
 2553 06fc D4       		.byte	-44
 2554 06fd 01       		.byte	1
 2555 06fe D8       		.byte	-40
 2556 06ff 04       		.byte	4
 2557 0700 D9       		.byte	-39
 2558 0701 04       		.byte	4
 2559 0702 DA       		.byte	-38
 2560 0703 04       		.byte	4
 2561 0704 DB       		.byte	-37
 2562 0705 0F       		.byte	15
 2563 0706 DC       		.byte	-36
 2564 0707 34       		.byte	52
 2565 0708 DD       		.byte	-35
 2566 0709 43       		.byte	67
 2567 070a DF       		.byte	-33
 2568 070b 01       		.byte	1
 2569 070c E6       		.byte	-26
 2570 070d C0       		.byte	-64
 2571 070e EA       		.byte	-22
 2572 070f 40       		.byte	64
 2573 0710 EB       		.byte	-21
 2574 0711 02       		.byte	2
 2575 0712 00       		.byte	0
 2576 0713 04       		.byte	4
 2577 0714 02       		.byte	2
 2578 0715 01       		.byte	1
 2579 0716 04       		.byte	4
 2580 0717 20       		.byte	32
ARM GAS  C:\Users\Admin\AppData\Local\Temp\ccd3RvSG.s 			page 88


 2581 0718 05       		.byte	5
 2582 0719 11       		.byte	17
 2583 071a 06       		.byte	6
 2584 071b 04       		.byte	4
 2585 071c 07       		.byte	7
 2586 071d 21       		.byte	33
 2587 071e 08       		.byte	8
 2588 071f 02       		.byte	2
 2589 0720 09       		.byte	9
 2590 0721 20       		.byte	32
 2591 0722 0A       		.byte	10
 2592 0723 20       		.byte	32
 2593 0724 0C       		.byte	12
 2594 0725 04       		.byte	4
 2595 0726 0E       		.byte	14
 2596 0727 42       		.byte	66
 2597 0728 0F       		.byte	15
 2598 0729 04       		.byte	4
 2599 072a 10       		.byte	16
 2600 072b 18       		.byte	24
 2601 072c 14       		.byte	20
 2602 072d 80       		.byte	-128
 2603 072e 15       		.byte	21
 2604 072f 04       		.byte	4
 2605 0730 16       		.byte	22
 2606 0731 02       		.byte	2
 2607 0732 17       		.byte	23
 2608 0733 10       		.byte	16
 2609 0734 18       		.byte	24
 2610 0735 04       		.byte	4
 2611 0736 19       		.byte	25
 2612 0737 28       		.byte	40
 2613 0738 1A       		.byte	26
 2614 0739 01       		.byte	1
 2615 073a 1D       		.byte	29
 2616 073b 08       		.byte	8
 2617 073c 1F       		.byte	31
 2618 073d 40       		.byte	64
 2619 073e 21       		.byte	33
 2620 073f 40       		.byte	64
 2621 0740 22       		.byte	34
 2622 0741 10       		.byte	16
 2623 0742 24       		.byte	36
 2624 0743 02       		.byte	2
 2625 0744 26       		.byte	38
 2626 0745 40       		.byte	64
 2627 0746 27       		.byte	39
 2628 0747 05       		.byte	5
 2629 0748 29       		.byte	41
 2630 0749 20       		.byte	32
 2631 074a 2C       		.byte	44
 2632 074b 80       		.byte	-128
 2633 074c 2F       		.byte	47
 2634 074d 18       		.byte	24
 2635 074e 35       		.byte	53
 2636 074f 10       		.byte	16
 2637 0750 36       		.byte	54
ARM GAS  C:\Users\Admin\AppData\Local\Temp\ccd3RvSG.s 			page 89


 2638 0751 40       		.byte	64
 2639 0752 37       		.byte	55
 2640 0753 04       		.byte	4
 2641 0754 39       		.byte	57
 2642 0755 80       		.byte	-128
 2643 0756 3B       		.byte	59
 2644 0757 0C       		.byte	12
 2645 0758 3D       		.byte	61
 2646 0759 04       		.byte	4
 2647 075a 3E       		.byte	62
 2648 075b 02       		.byte	2
 2649 075c 46       		.byte	70
 2650 075d 06       		.byte	6
 2651 075e 47       		.byte	71
 2652 075f 01       		.byte	1
 2653 0760 4C       		.byte	76
 2654 0761 20       		.byte	32
 2655 0762 54       		.byte	84
 2656 0763 02       		.byte	2
 2657 0764 57       		.byte	87
 2658 0765 08       		.byte	8
 2659 0766 5D       		.byte	93
 2660 0767 40       		.byte	64
 2661 0768 64       		.byte	100
 2662 0769 40       		.byte	64
 2663 076a 65       		.byte	101
 2664 076b 01       		.byte	1
 2665 076c 67       		.byte	103
 2666 076d 80       		.byte	-128
 2667 076e 68       		.byte	104
 2668 076f 08       		.byte	8
 2669 0770 6A       		.byte	106
 2670 0771 80       		.byte	-128
 2671 0772 6B       		.byte	107
 2672 0773 08       		.byte	8
 2673 0774 79       		.byte	121
 2674 0775 01       		.byte	1
 2675 0776 7D       		.byte	125
 2676 0777 01       		.byte	1
 2677 0778 7E       		.byte	126
 2678 0779 40       		.byte	64
 2679 077a 81       		.byte	-127
 2680 077b 40       		.byte	64
 2681 077c 82       		.byte	-126
 2682 077d 11       		.byte	17
 2683 077e 88       		.byte	-120
 2684 077f 10       		.byte	16
 2685 0780 8C       		.byte	-116
 2686 0781 20       		.byte	32
 2687 0782 93       		.byte	-109
 2688 0783 08       		.byte	8
 2689 0784 95       		.byte	-107
 2690 0785 10       		.byte	16
 2691 0786 96       		.byte	-106
 2692 0787 41       		.byte	65
 2693 0788 98       		.byte	-104
 2694 0789 02       		.byte	2
ARM GAS  C:\Users\Admin\AppData\Local\Temp\ccd3RvSG.s 			page 90


 2695 078a 9A       		.byte	-102
 2696 078b 02       		.byte	2
 2697 078c 9B       		.byte	-101
 2698 078d 10       		.byte	16
 2699 078e 9C       		.byte	-100
 2700 078f 50       		.byte	80
 2701 0790 9E       		.byte	-98
 2702 0791 08       		.byte	8
 2703 0792 9F       		.byte	-97
 2704 0793 44       		.byte	68
 2705 0794 A0       		.byte	-96
 2706 0795 80       		.byte	-128
 2707 0796 A1       		.byte	-95
 2708 0797 20       		.byte	32
 2709 0798 A2       		.byte	-94
 2710 0799 81       		.byte	-127
 2711 079a A4       		.byte	-92
 2712 079b 04       		.byte	4
 2713 079c A5       		.byte	-91
 2714 079d 08       		.byte	8
 2715 079e A6       		.byte	-90
 2716 079f 20       		.byte	32
 2717 07a0 A7       		.byte	-89
 2718 07a1 02       		.byte	2
 2719 07a2 AB       		.byte	-85
 2720 07a3 02       		.byte	2
 2721 07a4 AD       		.byte	-83
 2722 07a5 08       		.byte	8
 2723 07a6 AF       		.byte	-81
 2724 07a7 40       		.byte	64
 2725 07a8 B0       		.byte	-80
 2726 07a9 08       		.byte	8
 2727 07aa B6       		.byte	-74
 2728 07ab 04       		.byte	4
 2729 07ac C0       		.byte	-64
 2730 07ad F5       		.byte	-11
 2731 07ae C2       		.byte	-62
 2732 07af FE       		.byte	-2
 2733 07b0 C4       		.byte	-60
 2734 07b1 F6       		.byte	-10
 2735 07b2 CA       		.byte	-54
 2736 07b3 E4       		.byte	-28
 2737 07b4 CC       		.byte	-52
 2738 07b5 70       		.byte	112
 2739 07b6 CE       		.byte	-50
 2740 07b7 C8       		.byte	-56
 2741 07b8 D0       		.byte	-48
 2742 07b9 B0       		.byte	-80
 2743 07ba D6       		.byte	-42
 2744 07bb 10       		.byte	16
 2745 07bc DE       		.byte	-34
 2746 07bd 81       		.byte	-127
 2747 07be E0       		.byte	-32
 2748 07bf 20       		.byte	32
 2749 07c0 E2       		.byte	-30
 2750 07c1 04       		.byte	4
 2751 07c2 E6       		.byte	-26
ARM GAS  C:\Users\Admin\AppData\Local\Temp\ccd3RvSG.s 			page 91


 2752 07c3 11       		.byte	17
 2753 07c4 E8       		.byte	-24
 2754 07c5 C0       		.byte	-64
 2755 07c6 09       		.byte	9
 2756 07c7 01       		.byte	1
 2757 07c8 17       		.byte	23
 2758 07c9 01       		.byte	1
 2759 07ca 2A       		.byte	42
 2760 07cb 02       		.byte	2
 2761 07cc 2E       		.byte	46
 2762 07cd 01       		.byte	1
 2763 07ce 32       		.byte	50
 2764 07cf 01       		.byte	1
 2765 07d0 36       		.byte	54
 2766 07d1 02       		.byte	2
 2767 07d2 37       		.byte	55
 2768 07d3 01       		.byte	1
 2769 07d4 3F       		.byte	63
 2770 07d5 40       		.byte	64
 2771 07d6 40       		.byte	64
 2772 07d7 03       		.byte	3
 2773 07d8 45       		.byte	69
 2774 07d9 40       		.byte	64
 2775 07da 49       		.byte	73
 2776 07db FF       		.byte	-1
 2777 07dc 4A       		.byte	74
 2778 07dd 07       		.byte	7
 2779 07de 4B       		.byte	75
 2780 07df FF       		.byte	-1
 2781 07e0 4C       		.byte	76
 2782 07e1 40       		.byte	64
 2783 07e2 4D       		.byte	77
 2784 07e3 20       		.byte	32
 2785 07e4 4E       		.byte	78
 2786 07e5 F0       		.byte	-16
 2787 07e6 4F       		.byte	79
 2788 07e7 05       		.byte	5
 2789 07e8 50       		.byte	80
 2790 07e9 08       		.byte	8
 2791 07ea 54       		.byte	84
 2792 07eb 0F       		.byte	15
 2793 07ec 58       		.byte	88
 2794 07ed 04       		.byte	4
 2795 07ee 59       		.byte	89
 2796 07ef 04       		.byte	4
 2797 07f0 5A       		.byte	90
 2798 07f1 04       		.byte	4
 2799 07f2 5B       		.byte	91
 2800 07f3 04       		.byte	4
 2801 07f4 5C       		.byte	92
 2802 07f5 44       		.byte	68
 2803 07f6 5D       		.byte	93
 2804 07f7 13       		.byte	19
 2805 07f8 5F       		.byte	95
 2806 07f9 05       		.byte	5
 2807 07fa 60       		.byte	96
 2808 07fb 40       		.byte	64
ARM GAS  C:\Users\Admin\AppData\Local\Temp\ccd3RvSG.s 			page 92


 2809 07fc 61       		.byte	97
 2810 07fd A8       		.byte	-88
 2811 07fe 62       		.byte	98
 2812 07ff 40       		.byte	64
 2813 0800 63       		.byte	99
 2814 0801 20       		.byte	32
 2815 0802 88       		.byte	-120
 2816 0803 01       		.byte	1
 2817 0804 B4       		.byte	-76
 2818 0805 01       		.byte	1
 2819 0806 BE       		.byte	-66
 2820 0807 10       		.byte	16
 2821 0808 D6       		.byte	-42
 2822 0809 08       		.byte	8
 2823 080a D8       		.byte	-40
 2824 080b 04       		.byte	4
 2825 080c D9       		.byte	-39
 2826 080d 04       		.byte	4
 2827 080e DB       		.byte	-37
 2828 080f 04       		.byte	4
 2829 0810 DC       		.byte	-36
 2830 0811 44       		.byte	68
 2831 0812 DD       		.byte	-35
 2832 0813 90       		.byte	-112
 2833 0814 DF       		.byte	-33
 2834 0815 01       		.byte	1
 2835 0816 00       		.byte	0
 2836 0817 08       		.byte	8
 2837 0818 01       		.byte	1
 2838 0819 04       		.byte	4
 2839 081a 03       		.byte	3
 2840 081b 16       		.byte	22
 2841 081c 04       		.byte	4
 2842 081d 10       		.byte	16
 2843 081e 06       		.byte	6
 2844 081f 80       		.byte	-128
 2845 0820 08       		.byte	8
 2846 0821 40       		.byte	64
 2847 0822 0A       		.byte	10
 2848 0823 40       		.byte	64
 2849 0824 0B       		.byte	11
 2850 0825 08       		.byte	8
 2851 0826 0C       		.byte	12
 2852 0827 41       		.byte	65
 2853 0828 0E       		.byte	14
 2854 0829 60       		.byte	96
 2855 082a 12       		.byte	18
 2856 082b 20       		.byte	32
 2857 082c 13       		.byte	19
 2858 082d 40       		.byte	64
 2859 082e 15       		.byte	21
 2860 082f 14       		.byte	20
 2861 0830 17       		.byte	23
 2862 0831 41       		.byte	65
 2863 0832 18       		.byte	24
 2864 0833 08       		.byte	8
 2865 0834 1C       		.byte	28
ARM GAS  C:\Users\Admin\AppData\Local\Temp\ccd3RvSG.s 			page 93


 2866 0835 10       		.byte	16
 2867 0836 1E       		.byte	30
 2868 0837 02       		.byte	2
 2869 0838 1F       		.byte	31
 2870 0839 04       		.byte	4
 2871 083a 27       		.byte	39
 2872 083b 02       		.byte	2
 2873 083c 28       		.byte	40
 2874 083d 60       		.byte	96
 2875 083e 2D       		.byte	45
 2876 083f 04       		.byte	4
 2877 0840 2E       		.byte	46
 2878 0841 80       		.byte	-128
 2879 0842 2F       		.byte	47
 2880 0843 07       		.byte	7
 2881 0844 30       		.byte	48
 2882 0845 01       		.byte	1
 2883 0846 33       		.byte	51
 2884 0847 10       		.byte	16
 2885 0848 34       		.byte	52
 2886 0849 60       		.byte	96
 2887 084a 36       		.byte	54
 2888 084b 35       		.byte	53
 2889 084c 37       		.byte	55
 2890 084d 01       		.byte	1
 2891 084e 3B       		.byte	59
 2892 084f 4A       		.byte	74
 2893 0850 3C       		.byte	60
 2894 0851 20       		.byte	32
 2895 0852 3E       		.byte	62
 2896 0853 40       		.byte	64
 2897 0854 45       		.byte	69
 2898 0855 08       		.byte	8
 2899 0856 4A       		.byte	74
 2900 0857 03       		.byte	3
 2901 0858 4B       		.byte	75
 2902 0859 40       		.byte	64
 2903 085a 4C       		.byte	76
 2904 085b 80       		.byte	-128
 2905 085c 4E       		.byte	78
 2906 085d 80       		.byte	-128
 2907 085e 56       		.byte	86
 2908 085f 02       		.byte	2
 2909 0860 58       		.byte	88
 2910 0861 10       		.byte	16
 2911 0862 59       		.byte	89
 2912 0863 20       		.byte	32
 2913 0864 5A       		.byte	90
 2914 0865 80       		.byte	-128
 2915 0866 5C       		.byte	92
 2916 0867 08       		.byte	8
 2917 0868 5D       		.byte	93
 2918 0869 60       		.byte	96
 2919 086a 5E       		.byte	94
 2920 086b 01       		.byte	1
 2921 086c 60       		.byte	96
 2922 086d 02       		.byte	2
ARM GAS  C:\Users\Admin\AppData\Local\Temp\ccd3RvSG.s 			page 94


 2923 086e 65       		.byte	101
 2924 086f 08       		.byte	8
 2925 0870 66       		.byte	102
 2926 0871 20       		.byte	32
 2927 0872 7F       		.byte	127
 2928 0873 40       		.byte	64
 2929 0874 8A       		.byte	-118
 2930 0875 22       		.byte	34
 2931 0876 8C       		.byte	-116
 2932 0877 04       		.byte	4
 2933 0878 8D       		.byte	-115
 2934 0879 40       		.byte	64
 2935 087a 92       		.byte	-110
 2936 087b 80       		.byte	-128
 2937 087c 96       		.byte	-106
 2938 087d 40       		.byte	64
 2939 087e 97       		.byte	-105
 2940 087f 0A       		.byte	10
 2941 0880 9C       		.byte	-100
 2942 0881 50       		.byte	80
 2943 0882 9E       		.byte	-98
 2944 0883 08       		.byte	8
 2945 0884 A0       		.byte	-96
 2946 0885 10       		.byte	16
 2947 0886 A1       		.byte	-95
 2948 0887 20       		.byte	32
 2949 0888 A4       		.byte	-92
 2950 0889 04       		.byte	4
 2951 088a A6       		.byte	-90
 2952 088b 26       		.byte	38
 2953 088c A8       		.byte	-88
 2954 088d 30       		.byte	48
 2955 088e AB       		.byte	-85
 2956 088f 14       		.byte	20
 2957 0890 AC       		.byte	-84
 2958 0891 80       		.byte	-128
 2959 0892 AF       		.byte	-81
 2960 0893 02       		.byte	2
 2961 0894 B1       		.byte	-79
 2962 0895 40       		.byte	64
 2963 0896 B2       		.byte	-78
 2964 0897 60       		.byte	96
 2965 0898 B4       		.byte	-76
 2966 0899 20       		.byte	32
 2967 089a B6       		.byte	-74
 2968 089b 40       		.byte	64
 2969 089c C0       		.byte	-64
 2970 089d 57       		.byte	87
 2971 089e C2       		.byte	-62
 2972 089f BB       		.byte	-69
 2973 08a0 C4       		.byte	-60
 2974 08a1 F5       		.byte	-11
 2975 08a2 CA       		.byte	-54
 2976 08a3 73       		.byte	115
 2977 08a4 CC       		.byte	-52
 2978 08a5 F5       		.byte	-11
 2979 08a6 CE       		.byte	-50
ARM GAS  C:\Users\Admin\AppData\Local\Temp\ccd3RvSG.s 			page 95


 2980 08a7 3B       		.byte	59
 2981 08a8 D0       		.byte	-48
 2982 08a9 40       		.byte	64
 2983 08aa D6       		.byte	-42
 2984 08ab F8       		.byte	-8
 2985 08ac D8       		.byte	-40
 2986 08ad 68       		.byte	104
 2987 08ae DE       		.byte	-34
 2988 08af 80       		.byte	-128
 2989 08b0 E0       		.byte	-32
 2990 08b1 40       		.byte	64
 2991 08b2 E2       		.byte	-30
 2992 08b3 80       		.byte	-128
 2993 08b4 E4       		.byte	-28
 2994 08b5 80       		.byte	-128
 2995 08b6 E6       		.byte	-26
 2996 08b7 01       		.byte	1
 2997 08b8 E8       		.byte	-24
 2998 08b9 10       		.byte	16
 2999 08ba EA       		.byte	-22
 3000 08bb 20       		.byte	32
 3001 08bc EC       		.byte	-20
 3002 08bd 80       		.byte	-128
 3003 08be 01       		.byte	1
 3004 08bf 08       		.byte	8
 3005 08c0 03       		.byte	3
 3006 08c1 10       		.byte	16
 3007 08c2 09       		.byte	9
 3008 08c3 06       		.byte	6
 3009 08c4 0D       		.byte	13
 3010 08c5 02       		.byte	2
 3011 08c6 0F       		.byte	15
 3012 08c7 04       		.byte	4
 3013 08c8 15       		.byte	21
 3014 08c9 10       		.byte	16
 3015 08ca 17       		.byte	23
 3016 08cb 08       		.byte	8
 3017 08cc 1B       		.byte	27
 3018 08cd 01       		.byte	1
 3019 08ce 1D       		.byte	29
 3020 08cf 08       		.byte	8
 3021 08d0 1F       		.byte	31
 3022 08d1 10       		.byte	16
 3023 08d2 21       		.byte	33
 3024 08d3 08       		.byte	8
 3025 08d4 23       		.byte	35
 3026 08d5 10       		.byte	16
 3027 08d6 27       		.byte	39
 3028 08d7 02       		.byte	2
 3029 08d8 2B       		.byte	43
 3030 08d9 04       		.byte	4
 3031 08da 31       		.byte	49
 3032 08db 06       		.byte	6
 3033 08dc 33       		.byte	51
 3034 08dd 18       		.byte	24
 3035 08de 35       		.byte	53
 3036 08df 01       		.byte	1
ARM GAS  C:\Users\Admin\AppData\Local\Temp\ccd3RvSG.s 			page 96


 3037 08e0 3B       		.byte	59
 3038 08e1 08       		.byte	8
 3039 08e2 58       		.byte	88
 3040 08e3 04       		.byte	4
 3041 08e4 59       		.byte	89
 3042 08e5 04       		.byte	4
 3043 08e6 5B       		.byte	91
 3044 08e7 04       		.byte	4
 3045 08e8 5C       		.byte	92
 3046 08e9 14       		.byte	20
 3047 08ea 5F       		.byte	95
 3048 08eb 01       		.byte	1
 3049 08ec 81       		.byte	-127
 3050 08ed 18       		.byte	24
 3051 08ee 83       		.byte	-125
 3052 08ef 60       		.byte	96
 3053 08f0 85       		.byte	-123
 3054 08f1 50       		.byte	80
 3055 08f2 87       		.byte	-121
 3056 08f3 28       		.byte	40
 3057 08f4 88       		.byte	-120
 3058 08f5 30       		.byte	48
 3059 08f6 89       		.byte	-119
 3060 08f7 03       		.byte	3
 3061 08f8 8A       		.byte	-118
 3062 08f9 04       		.byte	4
 3063 08fa 8D       		.byte	-115
 3064 08fb 60       		.byte	96
 3065 08fc 8E       		.byte	-114
 3066 08fd 01       		.byte	1
 3067 08fe 8F       		.byte	-113
 3068 08ff 18       		.byte	24
 3069 0900 90       		.byte	-112
 3070 0901 30       		.byte	48
 3071 0902 91       		.byte	-111
 3072 0903 01       		.byte	1
 3073 0904 92       		.byte	-110
 3074 0905 08       		.byte	8
 3075 0906 93       		.byte	-109
 3076 0907 02       		.byte	2
 3077 0908 94       		.byte	-108
 3078 0909 20       		.byte	32
 3079 090a 95       		.byte	-107
 3080 090b 28       		.byte	40
 3081 090c 96       		.byte	-106
 3082 090d 04       		.byte	4
 3083 090e 97       		.byte	-105
 3084 090f 50       		.byte	80
 3085 0910 9A       		.byte	-102
 3086 0911 02       		.byte	2
 3087 0912 9B       		.byte	-101
 3088 0913 04       		.byte	4
 3089 0914 9C       		.byte	-100
 3090 0915 1C       		.byte	28
 3091 0916 9F       		.byte	-97
 3092 0917 01       		.byte	1
 3093 0918 A2       		.byte	-94
ARM GAS  C:\Users\Admin\AppData\Local\Temp\ccd3RvSG.s 			page 97


 3094 0919 3C       		.byte	60
 3095 091a A3       		.byte	-93
 3096 091b 80       		.byte	-128
 3097 091c A4       		.byte	-92
 3098 091d 2C       		.byte	44
 3099 091e A5       		.byte	-91
 3100 091f 78       		.byte	120
 3101 0920 A6       		.byte	-90
 3102 0921 10       		.byte	16
 3103 0922 AB       		.byte	-85
 3104 0923 02       		.byte	2
 3105 0924 AD       		.byte	-83
 3106 0925 38       		.byte	56
 3107 0926 B0       		.byte	-80
 3108 0927 3C       		.byte	60
 3109 0928 B1       		.byte	-79
 3110 0929 04       		.byte	4
 3111 092a B2       		.byte	-78
 3112 092b 02       		.byte	2
 3113 092c B3       		.byte	-77
 3114 092d 03       		.byte	3
 3115 092e B5       		.byte	-75
 3116 092f 78       		.byte	120
 3117 0930 B6       		.byte	-74
 3118 0931 01       		.byte	1
 3119 0932 B7       		.byte	-73
 3120 0933 80       		.byte	-128
 3121 0934 B8       		.byte	-72
 3122 0935 20       		.byte	32
 3123 0936 BE       		.byte	-66
 3124 0937 10       		.byte	16
 3125 0938 D8       		.byte	-40
 3126 0939 04       		.byte	4
 3127 093a D9       		.byte	-39
 3128 093b 04       		.byte	4
 3129 093c DC       		.byte	-36
 3130 093d 11       		.byte	17
 3131 093e DF       		.byte	-33
 3132 093f 01       		.byte	1
 3133 0940 00       		.byte	0
 3134 0941 08       		.byte	8
 3135 0942 02       		.byte	2
 3136 0943 02       		.byte	2
 3137 0944 04       		.byte	4
 3138 0945 40       		.byte	64
 3139 0946 06       		.byte	6
 3140 0947 08       		.byte	8
 3141 0948 0A       		.byte	10
 3142 0949 40       		.byte	64
 3143 094a 0B       		.byte	11
 3144 094b 0A       		.byte	10
 3145 094c 0C       		.byte	12
 3146 094d 80       		.byte	-128
 3147 094e 0D       		.byte	13
 3148 094f 08       		.byte	8
 3149 0950 0E       		.byte	14
 3150 0951 88       		.byte	-120
ARM GAS  C:\Users\Admin\AppData\Local\Temp\ccd3RvSG.s 			page 98


 3151 0952 10       		.byte	16
 3152 0953 40       		.byte	64
 3153 0954 12       		.byte	18
 3154 0955 20       		.byte	32
 3155 0956 15       		.byte	21
 3156 0957 01       		.byte	1
 3157 0958 17       		.byte	23
 3158 0959 04       		.byte	4
 3159 095a 1C       		.byte	28
 3160 095b A0       		.byte	-96
 3161 095c 1D       		.byte	29
 3162 095d 10       		.byte	16
 3163 095e 1E       		.byte	30
 3164 095f 80       		.byte	-128
 3165 0960 1F       		.byte	31
 3166 0961 80       		.byte	-128
 3167 0962 20       		.byte	32
 3168 0963 50       		.byte	80
 3169 0964 21       		.byte	33
 3170 0965 29       		.byte	41
 3171 0966 22       		.byte	34
 3172 0967 08       		.byte	8
 3173 0968 24       		.byte	36
 3174 0969 80       		.byte	-128
 3175 096a 25       		.byte	37
 3176 096b 80       		.byte	-128
 3177 096c 27       		.byte	39
 3178 096d 14       		.byte	20
 3179 096e 28       		.byte	40
 3180 096f 20       		.byte	32
 3181 0970 2A       		.byte	42
 3182 0971 20       		.byte	32
 3183 0972 2B       		.byte	43
 3184 0973 80       		.byte	-128
 3185 0974 2C       		.byte	44
 3186 0975 20       		.byte	32
 3187 0976 2D       		.byte	45
 3188 0977 20       		.byte	32
 3189 0978 2F       		.byte	47
 3190 0979 82       		.byte	-126
 3191 097a 30       		.byte	48
 3192 097b 10       		.byte	16
 3193 097c 31       		.byte	49
 3194 097d 88       		.byte	-120
 3195 097e 35       		.byte	53
 3196 097f 40       		.byte	64
 3197 0980 36       		.byte	54
 3198 0981 08       		.byte	8
 3199 0982 37       		.byte	55
 3200 0983 12       		.byte	18
 3201 0984 39       		.byte	57
 3202 0985 52       		.byte	82
 3203 0986 3C       		.byte	60
 3204 0987 80       		.byte	-128
 3205 0988 3D       		.byte	61
 3206 0989 11       		.byte	17
 3207 098a 3E       		.byte	62
ARM GAS  C:\Users\Admin\AppData\Local\Temp\ccd3RvSG.s 			page 99


 3208 098b 08       		.byte	8
 3209 098c 69       		.byte	105
 3210 098d 50       		.byte	80
 3211 098e 6B       		.byte	107
 3212 098f 02       		.byte	2
 3213 0990 80       		.byte	-128
 3214 0991 40       		.byte	64
 3215 0992 81       		.byte	-127
 3216 0993 20       		.byte	32
 3217 0994 89       		.byte	-119
 3218 0995 01       		.byte	1
 3219 0996 8D       		.byte	-115
 3220 0997 10       		.byte	16
 3221 0998 C0       		.byte	-64
 3222 0999 C5       		.byte	-59
 3223 099a C2       		.byte	-62
 3224 099b FB       		.byte	-5
 3225 099c C4       		.byte	-60
 3226 099d 3C       		.byte	60
 3227 099e CA       		.byte	-54
 3228 099f F7       		.byte	-9
 3229 09a0 CC       		.byte	-52
 3230 09a1 FE       		.byte	-2
 3231 09a2 CE       		.byte	-50
 3232 09a3 FD       		.byte	-3
 3233 09a4 E2       		.byte	-30
 3234 09a5 40       		.byte	64
 3235 09a6 E4       		.byte	-28
 3236 09a7 80       		.byte	-128
 3237 09a8 01       		.byte	1
 3238 09a9 02       		.byte	2
 3239 09aa 03       		.byte	3
 3240 09ab 48       		.byte	72
 3241 09ac 04       		.byte	4
 3242 09ad 31       		.byte	49
 3243 09ae 05       		.byte	5
 3244 09af 30       		.byte	48
 3245 09b0 06       		.byte	6
 3246 09b1 02       		.byte	2
 3247 09b2 07       		.byte	7
 3248 09b3 80       		.byte	-128
 3249 09b4 09       		.byte	9
 3250 09b5 80       		.byte	-128
 3251 09b6 0C       		.byte	12
 3252 09b7 18       		.byte	24
 3253 09b8 0E       		.byte	14
 3254 09b9 04       		.byte	4
 3255 09ba 0F       		.byte	15
 3256 09bb 80       		.byte	-128
 3257 09bc 10       		.byte	16
 3258 09bd 19       		.byte	25
 3259 09be 11       		.byte	17
 3260 09bf 62       		.byte	98
 3261 09c0 13       		.byte	19
 3262 09c1 14       		.byte	20
 3263 09c2 14       		.byte	20
 3264 09c3 01       		.byte	1
ARM GAS  C:\Users\Admin\AppData\Local\Temp\ccd3RvSG.s 			page 100


 3265 09c4 15       		.byte	21
 3266 09c5 0D       		.byte	13
 3267 09c6 16       		.byte	22
 3268 09c7 18       		.byte	24
 3269 09c8 18       		.byte	24
 3270 09c9 19       		.byte	25
 3271 09ca 19       		.byte	25
 3272 09cb 02       		.byte	2
 3273 09cc 1B       		.byte	27
 3274 09cd 0D       		.byte	13
 3275 09ce 1C       		.byte	28
 3276 09cf 3E       		.byte	62
 3277 09d0 1D       		.byte	29
 3278 09d1 0D       		.byte	13
 3279 09d2 1E       		.byte	30
 3280 09d3 01       		.byte	1
 3281 09d4 21       		.byte	33
 3282 09d5 0D       		.byte	13
 3283 09d6 24       		.byte	36
 3284 09d7 18       		.byte	24
 3285 09d8 25       		.byte	37
 3286 09d9 0D       		.byte	13
 3287 09da 26       		.byte	38
 3288 09db 01       		.byte	1
 3289 09dc 28       		.byte	40
 3290 09dd 19       		.byte	25
 3291 09de 29       		.byte	41
 3292 09df 0D       		.byte	13
 3293 09e0 2C       		.byte	44
 3294 09e1 24       		.byte	36
 3295 09e2 2D       		.byte	45
 3296 09e3 51       		.byte	81
 3297 09e4 2E       		.byte	46
 3298 09e5 19       		.byte	25
 3299 09e6 2F       		.byte	47
 3300 09e7 22       		.byte	34
 3301 09e8 30       		.byte	48
 3302 09e9 0F       		.byte	15
 3303 09ea 33       		.byte	51
 3304 09eb 70       		.byte	112
 3305 09ec 34       		.byte	52
 3306 09ed 11       		.byte	17
 3307 09ee 35       		.byte	53
 3308 09ef 0F       		.byte	15
 3309 09f0 36       		.byte	54
 3310 09f1 20       		.byte	32
 3311 09f2 37       		.byte	55
 3312 09f3 80       		.byte	-128
 3313 09f4 39       		.byte	57
 3314 09f5 08       		.byte	8
 3315 09f6 3A       		.byte	58
 3316 09f7 03       		.byte	3
 3317 09f8 3B       		.byte	59
 3318 09f9 20       		.byte	32
 3319 09fa 3E       		.byte	62
 3320 09fb 40       		.byte	64
 3321 09fc 3F       		.byte	63
ARM GAS  C:\Users\Admin\AppData\Local\Temp\ccd3RvSG.s 			page 101


 3322 09fd 40       		.byte	64
 3323 09fe 54       		.byte	84
 3324 09ff 09       		.byte	9
 3325 0a00 56       		.byte	86
 3326 0a01 04       		.byte	4
 3327 0a02 58       		.byte	88
 3328 0a03 04       		.byte	4
 3329 0a04 59       		.byte	89
 3330 0a05 04       		.byte	4
 3331 0a06 5B       		.byte	91
 3332 0a07 04       		.byte	4
 3333 0a08 5C       		.byte	92
 3334 0a09 22       		.byte	34
 3335 0a0a 5D       		.byte	93
 3336 0a0b 20       		.byte	32
 3337 0a0c 5F       		.byte	95
 3338 0a0d 01       		.byte	1
 3339 0a0e D8       		.byte	-40
 3340 0a0f 04       		.byte	4
 3341 0a10 D9       		.byte	-39
 3342 0a11 04       		.byte	4
 3343 0a12 DC       		.byte	-36
 3344 0a13 44       		.byte	68
 3345 0a14 DF       		.byte	-33
 3346 0a15 01       		.byte	1
 3347 0a16 00       		.byte	0
 3348 0a17 04       		.byte	4
 3349 0a18 03       		.byte	3
 3350 0a19 02       		.byte	2
 3351 0a1a 05       		.byte	5
 3352 0a1b A2       		.byte	-94
 3353 0a1c 06       		.byte	6
 3354 0a1d 20       		.byte	32
 3355 0a1e 08       		.byte	8
 3356 0a1f 20       		.byte	32
 3357 0a20 09       		.byte	9
 3358 0a21 08       		.byte	8
 3359 0a22 0A       		.byte	10
 3360 0a23 80       		.byte	-128
 3361 0a24 0B       		.byte	11
 3362 0a25 01       		.byte	1
 3363 0a26 0F       		.byte	15
 3364 0a27 40       		.byte	64
 3365 0a28 10       		.byte	16
 3366 0a29 34       		.byte	52
 3367 0a2a 12       		.byte	18
 3368 0a2b 02       		.byte	2
 3369 0a2c 15       		.byte	21
 3370 0a2d 05       		.byte	5
 3371 0a2e 17       		.byte	23
 3372 0a2f 08       		.byte	8
 3373 0a30 18       		.byte	24
 3374 0a31 85       		.byte	-123
 3375 0a32 1A       		.byte	26
 3376 0a33 04       		.byte	4
 3377 0a34 20       		.byte	32
 3378 0a35 02       		.byte	2
ARM GAS  C:\Users\Admin\AppData\Local\Temp\ccd3RvSG.s 			page 102


 3379 0a36 21       		.byte	33
 3380 0a37 24       		.byte	36
 3381 0a38 23       		.byte	35
 3382 0a39 20       		.byte	32
 3383 0a3a 28       		.byte	40
 3384 0a3b 14       		.byte	20
 3385 0a3c 2A       		.byte	42
 3386 0a3d 82       		.byte	-126
 3387 0a3e 2D       		.byte	45
 3388 0a3f 84       		.byte	-124
 3389 0a40 31       		.byte	49
 3390 0a41 28       		.byte	40
 3391 0a42 32       		.byte	50
 3392 0a43 42       		.byte	66
 3393 0a44 35       		.byte	53
 3394 0a45 22       		.byte	34
 3395 0a46 39       		.byte	57
 3396 0a47 58       		.byte	88
 3397 0a48 3B       		.byte	59
 3398 0a49 01       		.byte	1
 3399 0a4a 3D       		.byte	61
 3400 0a4b 01       		.byte	1
 3401 0a4c 3E       		.byte	62
 3402 0a4d 20       		.byte	32
 3403 0a4e 3F       		.byte	63
 3404 0a4f 40       		.byte	64
 3405 0a50 58       		.byte	88
 3406 0a51 08       		.byte	8
 3407 0a52 5B       		.byte	91
 3408 0a53 92       		.byte	-110
 3409 0a54 60       		.byte	96
 3410 0a55 01       		.byte	1
 3411 0a56 63       		.byte	99
 3412 0a57 80       		.byte	-128
 3413 0a58 68       		.byte	104
 3414 0a59 04       		.byte	4
 3415 0a5a 69       		.byte	105
 3416 0a5b 50       		.byte	80
 3417 0a5c 6B       		.byte	107
 3418 0a5d 04       		.byte	4
 3419 0a5e 80       		.byte	-128
 3420 0a5f 60       		.byte	96
 3421 0a60 82       		.byte	-126
 3422 0a61 42       		.byte	66
 3423 0a62 83       		.byte	-125
 3424 0a63 01       		.byte	1
 3425 0a64 84       		.byte	-124
 3426 0a65 01       		.byte	1
 3427 0a66 86       		.byte	-122
 3428 0a67 84       		.byte	-124
 3429 0a68 87       		.byte	-121
 3430 0a69 02       		.byte	2
 3431 0a6a 88       		.byte	-120
 3432 0a6b 2C       		.byte	44
 3433 0a6c 8B       		.byte	-117
 3434 0a6d 40       		.byte	64
 3435 0a6e 8D       		.byte	-115
ARM GAS  C:\Users\Admin\AppData\Local\Temp\ccd3RvSG.s 			page 103


 3436 0a6f 08       		.byte	8
 3437 0a70 8F       		.byte	-113
 3438 0a71 12       		.byte	18
 3439 0a72 91       		.byte	-111
 3440 0a73 01       		.byte	1
 3441 0a74 94       		.byte	-108
 3442 0a75 84       		.byte	-124
 3443 0a76 95       		.byte	-107
 3444 0a77 40       		.byte	64
 3445 0a78 97       		.byte	-105
 3446 0a79 40       		.byte	64
 3447 0a7a 99       		.byte	-103
 3448 0a7b A2       		.byte	-94
 3449 0a7c 9A       		.byte	-102
 3450 0a7d 20       		.byte	32
 3451 0a7e 9B       		.byte	-101
 3452 0a7f 88       		.byte	-120
 3453 0a80 9F       		.byte	-97
 3454 0a81 24       		.byte	36
 3455 0a82 A2       		.byte	-94
 3456 0a83 02       		.byte	2
 3457 0a84 A4       		.byte	-92
 3458 0a85 04       		.byte	4
 3459 0a86 A7       		.byte	-89
 3460 0a87 40       		.byte	64
 3461 0a88 A9       		.byte	-87
 3462 0a89 04       		.byte	4
 3463 0a8a AA       		.byte	-86
 3464 0a8b 80       		.byte	-128
 3465 0a8c AB       		.byte	-85
 3466 0a8d 08       		.byte	8
 3467 0a8e AE       		.byte	-82
 3468 0a8f 20       		.byte	32
 3469 0a90 AF       		.byte	-81
 3470 0a91 12       		.byte	18
 3471 0a92 B0       		.byte	-80
 3472 0a93 10       		.byte	16
 3473 0a94 B1       		.byte	-79
 3474 0a95 12       		.byte	18
 3475 0a96 B2       		.byte	-78
 3476 0a97 01       		.byte	1
 3477 0a98 C0       		.byte	-64
 3478 0a99 F5       		.byte	-11
 3479 0a9a C2       		.byte	-62
 3480 0a9b 1F       		.byte	31
 3481 0a9c C4       		.byte	-60
 3482 0a9d 37       		.byte	55
 3483 0a9e CA       		.byte	-54
 3484 0a9f 5F       		.byte	95
 3485 0aa0 CC       		.byte	-52
 3486 0aa1 AF       		.byte	-81
 3487 0aa2 CE       		.byte	-50
 3488 0aa3 BF       		.byte	-65
 3489 0aa4 D6       		.byte	-42
 3490 0aa5 0F       		.byte	15
 3491 0aa6 D8       		.byte	-40
 3492 0aa7 09       		.byte	9
ARM GAS  C:\Users\Admin\AppData\Local\Temp\ccd3RvSG.s 			page 104


 3493 0aa8 E0       		.byte	-32
 3494 0aa9 03       		.byte	3
 3495 0aaa E6       		.byte	-26
 3496 0aab 07       		.byte	7
 3497 0aac EA       		.byte	-22
 3498 0aad 0E       		.byte	14
 3499 0aae EC       		.byte	-20
 3500 0aaf 02       		.byte	2
 3501 0ab0 02       		.byte	2
 3502 0ab1 10       		.byte	16
 3503 0ab2 0C       		.byte	12
 3504 0ab3 01       		.byte	1
 3505 0ab4 0E       		.byte	14
 3506 0ab5 02       		.byte	2
 3507 0ab6 14       		.byte	20
 3508 0ab7 01       		.byte	1
 3509 0ab8 16       		.byte	22
 3510 0ab9 06       		.byte	6
 3511 0aba 18       		.byte	24
 3512 0abb 02       		.byte	2
 3513 0abc 1A       		.byte	26
 3514 0abd 01       		.byte	1
 3515 0abe 1C       		.byte	28
 3516 0abf 01       		.byte	1
 3517 0ac0 1E       		.byte	30
 3518 0ac1 0A       		.byte	10
 3519 0ac2 30       		.byte	48
 3520 0ac3 04       		.byte	4
 3521 0ac4 32       		.byte	50
 3522 0ac5 08       		.byte	8
 3523 0ac6 34       		.byte	52
 3524 0ac7 03       		.byte	3
 3525 0ac8 36       		.byte	54
 3526 0ac9 10       		.byte	16
 3527 0aca 3A       		.byte	58
 3528 0acb 20       		.byte	32
 3529 0acc 58       		.byte	88
 3530 0acd 04       		.byte	4
 3531 0ace 59       		.byte	89
 3532 0acf 04       		.byte	4
 3533 0ad0 5C       		.byte	92
 3534 0ad1 41       		.byte	65
 3535 0ad2 5F       		.byte	95
 3536 0ad3 01       		.byte	1
 3537 0ad4 80       		.byte	-128
 3538 0ad5 0A       		.byte	10
 3539 0ad6 82       		.byte	-126
 3540 0ad7 54       		.byte	84
 3541 0ad8 83       		.byte	-125
 3542 0ad9 08       		.byte	8
 3543 0ada 84       		.byte	-124
 3544 0adb 80       		.byte	-128
 3545 0adc 87       		.byte	-121
 3546 0add 20       		.byte	32
 3547 0ade 89       		.byte	-119
 3548 0adf 0C       		.byte	12
 3549 0ae0 8B       		.byte	-117
ARM GAS  C:\Users\Admin\AppData\Local\Temp\ccd3RvSG.s 			page 105


 3550 0ae1 03       		.byte	3
 3551 0ae2 8C       		.byte	-116
 3552 0ae3 03       		.byte	3
 3553 0ae4 8E       		.byte	-114
 3554 0ae5 44       		.byte	68
 3555 0ae6 8F       		.byte	-113
 3556 0ae7 20       		.byte	32
 3557 0ae8 90       		.byte	-112
 3558 0ae9 53       		.byte	83
 3559 0aea 91       		.byte	-111
 3560 0aeb 20       		.byte	32
 3561 0aec 92       		.byte	-110
 3562 0aed 0C       		.byte	12
 3563 0aee 94       		.byte	-108
 3564 0aef 20       		.byte	32
 3565 0af0 96       		.byte	-106
 3566 0af1 45       		.byte	69
 3567 0af2 97       		.byte	-105
 3568 0af3 10       		.byte	16
 3569 0af4 9B       		.byte	-101
 3570 0af5 0C       		.byte	12
 3571 0af6 9D       		.byte	-99
 3572 0af7 01       		.byte	1
 3573 0af8 9E       		.byte	-98
 3574 0af9 08       		.byte	8
 3575 0afa 9F       		.byte	-97
 3576 0afb 0E       		.byte	14
 3577 0afc A0       		.byte	-96
 3578 0afd 53       		.byte	83
 3579 0afe A1       		.byte	-95
 3580 0aff 01       		.byte	1
 3581 0b00 A2       		.byte	-94
 3582 0b01 04       		.byte	4
 3583 0b02 A3       		.byte	-93
 3584 0b03 06       		.byte	6
 3585 0b04 A7       		.byte	-89
 3586 0b05 10       		.byte	16
 3587 0b06 AA       		.byte	-86
 3588 0b07 80       		.byte	-128
 3589 0b08 AB       		.byte	-85
 3590 0b09 03       		.byte	3
 3591 0b0a AC       		.byte	-84
 3592 0b0b 80       		.byte	-128
 3593 0b0c AD       		.byte	-83
 3594 0b0d 10       		.byte	16
 3595 0b0e B0       		.byte	-80
 3596 0b0f 0F       		.byte	15
 3597 0b10 B1       		.byte	-79
 3598 0b11 20       		.byte	32
 3599 0b12 B2       		.byte	-78
 3600 0b13 80       		.byte	-128
 3601 0b14 B4       		.byte	-76
 3602 0b15 40       		.byte	64
 3603 0b16 B5       		.byte	-75
 3604 0b17 10       		.byte	16
 3605 0b18 B6       		.byte	-74
 3606 0b19 30       		.byte	48
ARM GAS  C:\Users\Admin\AppData\Local\Temp\ccd3RvSG.s 			page 106


 3607 0b1a B7       		.byte	-73
 3608 0b1b 0F       		.byte	15
 3609 0b1c B8       		.byte	-72
 3610 0b1d 80       		.byte	-128
 3611 0b1e BA       		.byte	-70
 3612 0b1f 02       		.byte	2
 3613 0b20 BB       		.byte	-69
 3614 0b21 80       		.byte	-128
 3615 0b22 BE       		.byte	-66
 3616 0b23 14       		.byte	20
 3617 0b24 BF       		.byte	-65
 3618 0b25 11       		.byte	17
 3619 0b26 D4       		.byte	-44
 3620 0b27 01       		.byte	1
 3621 0b28 D8       		.byte	-40
 3622 0b29 04       		.byte	4
 3623 0b2a D9       		.byte	-39
 3624 0b2b 04       		.byte	4
 3625 0b2c DB       		.byte	-37
 3626 0b2d 04       		.byte	4
 3627 0b2e DC       		.byte	-36
 3628 0b2f 33       		.byte	51
 3629 0b30 DD       		.byte	-35
 3630 0b31 30       		.byte	48
 3631 0b32 DF       		.byte	-33
 3632 0b33 01       		.byte	1
 3633 0b34 00       		.byte	0
 3634 0b35 0A       		.byte	10
 3635 0b36 03       		.byte	3
 3636 0b37 02       		.byte	2
 3637 0b38 04       		.byte	4
 3638 0b39 40       		.byte	64
 3639 0b3a 06       		.byte	6
 3640 0b3b 80       		.byte	-128
 3641 0b3c 08       		.byte	8
 3642 0b3d 08       		.byte	8
 3643 0b3e 0A       		.byte	10
 3644 0b3f 42       		.byte	66
 3645 0b40 0D       		.byte	13
 3646 0b41 08       		.byte	8
 3647 0b42 0E       		.byte	14
 3648 0b43 05       		.byte	5
 3649 0b44 10       		.byte	16
 3650 0b45 01       		.byte	1
 3651 0b46 11       		.byte	17
 3652 0b47 40       		.byte	64
 3653 0b48 12       		.byte	18
 3654 0b49 84       		.byte	-124
 3655 0b4a 13       		.byte	19
 3656 0b4b 20       		.byte	32
 3657 0b4c 18       		.byte	24
 3658 0b4d 08       		.byte	8
 3659 0b4e 19       		.byte	25
 3660 0b4f 01       		.byte	1
 3661 0b50 1A       		.byte	26
 3662 0b51 42       		.byte	66
 3663 0b52 1B       		.byte	27
ARM GAS  C:\Users\Admin\AppData\Local\Temp\ccd3RvSG.s 			page 107


 3664 0b53 04       		.byte	4
 3665 0b54 1C       		.byte	28
 3666 0b55 40       		.byte	64
 3667 0b56 1D       		.byte	29
 3668 0b57 08       		.byte	8
 3669 0b58 1E       		.byte	30
 3670 0b59 05       		.byte	5
 3671 0b5a 1F       		.byte	31
 3672 0b5b 20       		.byte	32
 3673 0b5c 20       		.byte	32
 3674 0b5d 02       		.byte	2
 3675 0b5e 22       		.byte	34
 3676 0b5f 20       		.byte	32
 3677 0b60 23       		.byte	35
 3678 0b61 82       		.byte	-126
 3679 0b62 28       		.byte	40
 3680 0b63 09       		.byte	9
 3681 0b64 29       		.byte	41
 3682 0b65 01       		.byte	1
 3683 0b66 2A       		.byte	42
 3684 0b67 04       		.byte	4
 3685 0b68 2C       		.byte	44
 3686 0b69 02       		.byte	2
 3687 0b6a 2D       		.byte	45
 3688 0b6b 90       		.byte	-112
 3689 0b6c 30       		.byte	48
 3690 0b6d 10       		.byte	16
 3691 0b6e 32       		.byte	50
 3692 0b6f 82       		.byte	-126
 3693 0b70 33       		.byte	51
 3694 0b71 04       		.byte	4
 3695 0b72 35       		.byte	53
 3696 0b73 20       		.byte	32
 3697 0b74 37       		.byte	55
 3698 0b75 08       		.byte	8
 3699 0b76 38       		.byte	56
 3700 0b77 84       		.byte	-124
 3701 0b78 3A       		.byte	58
 3702 0b79 02       		.byte	2
 3703 0b7a 3B       		.byte	59
 3704 0b7b 20       		.byte	32
 3705 0b7c 3D       		.byte	61
 3706 0b7d 01       		.byte	1
 3707 0b7e 3E       		.byte	62
 3708 0b7f 20       		.byte	32
 3709 0b80 3F       		.byte	63
 3710 0b81 40       		.byte	64
 3711 0b82 58       		.byte	88
 3712 0b83 80       		.byte	-128
 3713 0b84 59       		.byte	89
 3714 0b85 08       		.byte	8
 3715 0b86 5B       		.byte	91
 3716 0b87 11       		.byte	17
 3717 0b88 82       		.byte	-126
 3718 0b89 A2       		.byte	-94
 3719 0b8a 83       		.byte	-125
 3720 0b8b 12       		.byte	18
ARM GAS  C:\Users\Admin\AppData\Local\Temp\ccd3RvSG.s 			page 108


 3721 0b8c 88       		.byte	-120
 3722 0b8d 08       		.byte	8
 3723 0b8e 8B       		.byte	-117
 3724 0b8f 01       		.byte	1
 3725 0b90 8C       		.byte	-116
 3726 0b91 84       		.byte	-124
 3727 0b92 8F       		.byte	-113
 3728 0b93 44       		.byte	68
 3729 0b94 91       		.byte	-111
 3730 0b95 01       		.byte	1
 3731 0b96 95       		.byte	-107
 3732 0b97 10       		.byte	16
 3733 0b98 96       		.byte	-106
 3734 0b99 02       		.byte	2
 3735 0b9a 97       		.byte	-105
 3736 0b9b 40       		.byte	64
 3737 0b9c 98       		.byte	-104
 3738 0b9d 08       		.byte	8
 3739 0b9e 99       		.byte	-103
 3740 0b9f 28       		.byte	40
 3741 0ba0 9A       		.byte	-102
 3742 0ba1 02       		.byte	2
 3743 0ba2 9D       		.byte	-99
 3744 0ba3 01       		.byte	1
 3745 0ba4 A0       		.byte	-96
 3746 0ba5 0A       		.byte	10
 3747 0ba6 A5       		.byte	-91
 3748 0ba7 04       		.byte	4
 3749 0ba8 A7       		.byte	-89
 3750 0ba9 20       		.byte	32
 3751 0baa AA       		.byte	-86
 3752 0bab 40       		.byte	64
 3753 0bac AD       		.byte	-83
 3754 0bad 01       		.byte	1
 3755 0bae B5       		.byte	-75
 3756 0baf 80       		.byte	-128
 3757 0bb0 C0       		.byte	-64
 3758 0bb1 9D       		.byte	-99
 3759 0bb2 C2       		.byte	-62
 3760 0bb3 ED       		.byte	-19
 3761 0bb4 C4       		.byte	-60
 3762 0bb5 0B       		.byte	11
 3763 0bb6 CA       		.byte	-54
 3764 0bb7 3F       		.byte	63
 3765 0bb8 CC       		.byte	-52
 3766 0bb9 6F       		.byte	111
 3767 0bba CE       		.byte	-50
 3768 0bbb BF       		.byte	-65
 3769 0bbc D6       		.byte	-42
 3770 0bbd 0F       		.byte	15
 3771 0bbe E0       		.byte	-32
 3772 0bbf 20       		.byte	32
 3773 0bc0 E2       		.byte	-30
 3774 0bc1 45       		.byte	69
 3775 0bc2 E4       		.byte	-28
 3776 0bc3 08       		.byte	8
 3777 0bc4 E6       		.byte	-26
ARM GAS  C:\Users\Admin\AppData\Local\Temp\ccd3RvSG.s 			page 109


 3778 0bc5 44       		.byte	68
 3779 0bc6 EA       		.byte	-22
 3780 0bc7 1A       		.byte	26
 3781 0bc8 03       		.byte	3
 3782 0bc9 40       		.byte	64
 3783 0bca 04       		.byte	4
 3784 0bcb 02       		.byte	2
 3785 0bcc 05       		.byte	5
 3786 0bcd 83       		.byte	-125
 3787 0bce 07       		.byte	7
 3788 0bcf 0C       		.byte	12
 3789 0bd0 0A       		.byte	10
 3790 0bd1 60       		.byte	96
 3791 0bd2 0C       		.byte	12
 3792 0bd3 A3       		.byte	-93
 3793 0bd4 0D       		.byte	13
 3794 0bd5 70       		.byte	112
 3795 0bd6 0E       		.byte	14
 3796 0bd7 4C       		.byte	76
 3797 0bd8 10       		.byte	16
 3798 0bd9 02       		.byte	2
 3799 0bda 11       		.byte	17
 3800 0bdb 70       		.byte	112
 3801 0bdc 12       		.byte	18
 3802 0bdd 10       		.byte	16
 3803 0bde 14       		.byte	20
 3804 0bdf 10       		.byte	16
 3805 0be0 15       		.byte	21
 3806 0be1 81       		.byte	-127
 3807 0be2 16       		.byte	22
 3808 0be3 02       		.byte	2
 3809 0be4 17       		.byte	23
 3810 0be5 1A       		.byte	26
 3811 0be6 19       		.byte	25
 3812 0be7 70       		.byte	112
 3813 0be8 1A       		.byte	26
 3814 0be9 80       		.byte	-128
 3815 0bea 1C       		.byte	28
 3816 0beb 12       		.byte	18
 3817 0bec 1D       		.byte	29
 3818 0bed 02       		.byte	2
 3819 0bee 1F       		.byte	31
 3820 0bef 1D       		.byte	29
 3821 0bf0 20       		.byte	32
 3822 0bf1 41       		.byte	65
 3823 0bf2 21       		.byte	33
 3824 0bf3 03       		.byte	3
 3825 0bf4 22       		.byte	34
 3826 0bf5 94       		.byte	-108
 3827 0bf6 23       		.byte	35
 3828 0bf7 94       		.byte	-108
 3829 0bf8 24       		.byte	36
 3830 0bf9 C3       		.byte	-61
 3831 0bfa 26       		.byte	38
 3832 0bfb 38       		.byte	56
 3833 0bfc 28       		.byte	40
 3834 0bfd 12       		.byte	18
ARM GAS  C:\Users\Admin\AppData\Local\Temp\ccd3RvSG.s 			page 110


 3835 0bfe 29       		.byte	41
 3836 0bff 70       		.byte	112
 3837 0c00 2C       		.byte	44
 3838 0c01 12       		.byte	18
 3839 0c02 2F       		.byte	47
 3840 0c03 70       		.byte	112
 3841 0c04 30       		.byte	48
 3842 0c05 1F       		.byte	31
 3843 0c06 31       		.byte	49
 3844 0c07 80       		.byte	-128
 3845 0c08 32       		.byte	50
 3846 0c09 E0       		.byte	-32
 3847 0c0a 33       		.byte	51
 3848 0c0b 40       		.byte	64
 3849 0c0c 35       		.byte	53
 3850 0c0d 20       		.byte	32
 3851 0c0e 37       		.byte	55
 3852 0c0f 1F       		.byte	31
 3853 0c10 38       		.byte	56
 3854 0c11 02       		.byte	2
 3855 0c12 39       		.byte	57
 3856 0c13 02       		.byte	2
 3857 0c14 3B       		.byte	59
 3858 0c15 80       		.byte	-128
 3859 0c16 3F       		.byte	63
 3860 0c17 14       		.byte	20
 3861 0c18 56       		.byte	86
 3862 0c19 02       		.byte	2
 3863 0c1a 57       		.byte	87
 3864 0c1b 3A       		.byte	58
 3865 0c1c 58       		.byte	88
 3866 0c1d 04       		.byte	4
 3867 0c1e 59       		.byte	89
 3868 0c1f 04       		.byte	4
 3869 0c20 5B       		.byte	91
 3870 0c21 0F       		.byte	15
 3871 0c22 5C       		.byte	92
 3872 0c23 22       		.byte	34
 3873 0c24 5D       		.byte	93
 3874 0c25 40       		.byte	64
 3875 0c26 5F       		.byte	95
 3876 0c27 01       		.byte	1
 3877 0c28 D8       		.byte	-40
 3878 0c29 04       		.byte	4
 3879 0c2a D9       		.byte	-39
 3880 0c2b 04       		.byte	4
 3881 0c2c DC       		.byte	-36
 3882 0c2d 44       		.byte	68
 3883 0c2e DF       		.byte	-33
 3884 0c2f 01       		.byte	1
 3885 0c30 00       		.byte	0
 3886 0c31 08       		.byte	8
 3887 0c32 01       		.byte	1
 3888 0c33 40       		.byte	64
 3889 0c34 04       		.byte	4
 3890 0c35 10       		.byte	16
 3891 0c36 05       		.byte	5
ARM GAS  C:\Users\Admin\AppData\Local\Temp\ccd3RvSG.s 			page 111


 3892 0c37 80       		.byte	-128
 3893 0c38 06       		.byte	6
 3894 0c39 20       		.byte	32
 3895 0c3a 08       		.byte	8
 3896 0c3b 04       		.byte	4
 3897 0c3c 0B       		.byte	11
 3898 0c3d 08       		.byte	8
 3899 0c3e 0C       		.byte	12
 3900 0c3f 08       		.byte	8
 3901 0c40 0E       		.byte	14
 3902 0c41 42       		.byte	66
 3903 0c42 0F       		.byte	15
 3904 0c43 08       		.byte	8
 3905 0c44 10       		.byte	16
 3906 0c45 90       		.byte	-112
 3907 0c46 12       		.byte	18
 3908 0c47 48       		.byte	72
 3909 0c48 15       		.byte	21
 3910 0c49 01       		.byte	1
 3911 0c4a 16       		.byte	22
 3912 0c4b 81       		.byte	-127
 3913 0c4c 17       		.byte	23
 3914 0c4d 14       		.byte	20
 3915 0c4e 1C       		.byte	28
 3916 0c4f 10       		.byte	16
 3917 0c50 1D       		.byte	29
 3918 0c51 02       		.byte	2
 3919 0c52 25       		.byte	37
 3920 0c53 18       		.byte	24
 3921 0c54 26       		.byte	38
 3922 0c55 A2       		.byte	-94
 3923 0c56 28       		.byte	40
 3924 0c57 04       		.byte	4
 3925 0c58 2A       		.byte	42
 3926 0c59 40       		.byte	64
 3927 0c5a 2C       		.byte	44
 3928 0c5b 08       		.byte	8
 3929 0c5c 2D       		.byte	45
 3930 0c5d 01       		.byte	1
 3931 0c5e 2E       		.byte	46
 3932 0c5f 40       		.byte	64
 3933 0c60 30       		.byte	48
 3934 0c61 10       		.byte	16
 3935 0c62 31       		.byte	49
 3936 0c63 21       		.byte	33
 3937 0c64 34       		.byte	52
 3938 0c65 80       		.byte	-128
 3939 0c66 36       		.byte	54
 3940 0c67 81       		.byte	-127
 3941 0c68 37       		.byte	55
 3942 0c69 14       		.byte	20
 3943 0c6a 39       		.byte	57
 3944 0c6b 40       		.byte	64
 3945 0c6c 3B       		.byte	59
 3946 0c6d 28       		.byte	40
 3947 0c6e 3C       		.byte	60
 3948 0c6f 80       		.byte	-128
ARM GAS  C:\Users\Admin\AppData\Local\Temp\ccd3RvSG.s 			page 112


 3949 0c70 3D       		.byte	61
 3950 0c71 08       		.byte	8
 3951 0c72 3F       		.byte	63
 3952 0c73 03       		.byte	3
 3953 0c74 5F       		.byte	95
 3954 0c75 08       		.byte	8
 3955 0c76 61       		.byte	97
 3956 0c77 0C       		.byte	12
 3957 0c78 65       		.byte	101
 3958 0c79 08       		.byte	8
 3959 0c7a 6D       		.byte	109
 3960 0c7b 90       		.byte	-112
 3961 0c7c 6E       		.byte	110
 3962 0c7d 08       		.byte	8
 3963 0c7e 6F       		.byte	111
 3964 0c7f 40       		.byte	64
 3965 0c80 76       		.byte	118
 3966 0c81 0A       		.byte	10
 3967 0c82 7E       		.byte	126
 3968 0c83 40       		.byte	64
 3969 0c84 80       		.byte	-128
 3970 0c85 03       		.byte	3
 3971 0c86 81       		.byte	-127
 3972 0c87 02       		.byte	2
 3973 0c88 82       		.byte	-126
 3974 0c89 80       		.byte	-128
 3975 0c8a 88       		.byte	-120
 3976 0c8b 02       		.byte	2
 3977 0c8c 8B       		.byte	-117
 3978 0c8d 10       		.byte	16
 3979 0c8e 8D       		.byte	-115
 3980 0c8f 10       		.byte	16
 3981 0c90 90       		.byte	-112
 3982 0c91 02       		.byte	2
 3983 0c92 91       		.byte	-111
 3984 0c93 40       		.byte	64
 3985 0c94 92       		.byte	-110
 3986 0c95 80       		.byte	-128
 3987 0c96 93       		.byte	-109
 3988 0c97 18       		.byte	24
 3989 0c98 94       		.byte	-108
 3990 0c99 10       		.byte	16
 3991 0c9a 95       		.byte	-107
 3992 0c9b 14       		.byte	20
 3993 0c9c 96       		.byte	-106
 3994 0c9d 04       		.byte	4
 3995 0c9e 97       		.byte	-105
 3996 0c9f 05       		.byte	5
 3997 0ca0 99       		.byte	-103
 3998 0ca1 19       		.byte	25
 3999 0ca2 9B       		.byte	-101
 4000 0ca3 28       		.byte	40
 4001 0ca4 9D       		.byte	-99
 4002 0ca5 04       		.byte	4
 4003 0ca6 9E       		.byte	-98
 4004 0ca7 0A       		.byte	10
 4005 0ca8 9F       		.byte	-97
ARM GAS  C:\Users\Admin\AppData\Local\Temp\ccd3RvSG.s 			page 113


 4006 0ca9 40       		.byte	64
 4007 0caa A0       		.byte	-96
 4008 0cab 86       		.byte	-122
 4009 0cac A1       		.byte	-95
 4010 0cad 20       		.byte	32
 4011 0cae A5       		.byte	-91
 4012 0caf 40       		.byte	64
 4013 0cb0 A6       		.byte	-90
 4014 0cb1 04       		.byte	4
 4015 0cb2 AF       		.byte	-81
 4016 0cb3 40       		.byte	64
 4017 0cb4 B4       		.byte	-76
 4018 0cb5 10       		.byte	16
 4019 0cb6 B5       		.byte	-75
 4020 0cb7 20       		.byte	32
 4021 0cb8 B6       		.byte	-74
 4022 0cb9 48       		.byte	72
 4023 0cba C0       		.byte	-64
 4024 0cbb E5       		.byte	-27
 4025 0cbc C2       		.byte	-62
 4026 0cbd F6       		.byte	-10
 4027 0cbe C4       		.byte	-60
 4028 0cbf FE       		.byte	-2
 4029 0cc0 CA       		.byte	-54
 4030 0cc1 BC       		.byte	-68
 4031 0cc2 CC       		.byte	-52
 4032 0cc3 F5       		.byte	-11
 4033 0cc4 CE       		.byte	-50
 4034 0cc5 DE       		.byte	-34
 4035 0cc6 D6       		.byte	-42
 4036 0cc7 40       		.byte	64
 4037 0cc8 D8       		.byte	-40
 4038 0cc9 40       		.byte	64
 4039 0cca DE       		.byte	-34
 4040 0ccb 80       		.byte	-128
 4041 0ccc E0       		.byte	-32
 4042 0ccd 20       		.byte	32
 4043 0cce E4       		.byte	-28
 4044 0ccf 08       		.byte	8
 4045 0cd0 EA       		.byte	-22
 4046 0cd1 12       		.byte	18
 4047 0cd2 EE       		.byte	-18
 4048 0cd3 40       		.byte	64
 4049 0cd4 00       		.byte	0
 4050 0cd5 01       		.byte	1
 4051 0cd6 14       		.byte	20
 4052 0cd7 01       		.byte	1
 4053 0cd8 18       		.byte	24
 4054 0cd9 01       		.byte	1
 4055 0cda 22       		.byte	34
 4056 0cdb 01       		.byte	1
 4057 0cdc 26       		.byte	38
 4058 0cdd 01       		.byte	1
 4059 0cde 28       		.byte	40
 4060 0cdf 01       		.byte	1
 4061 0ce0 2C       		.byte	44
 4062 0ce1 01       		.byte	1
ARM GAS  C:\Users\Admin\AppData\Local\Temp\ccd3RvSG.s 			page 114


 4063 0ce2 30       		.byte	48
 4064 0ce3 01       		.byte	1
 4065 0ce4 58       		.byte	88
 4066 0ce5 04       		.byte	4
 4067 0ce6 59       		.byte	89
 4068 0ce7 04       		.byte	4
 4069 0ce8 5C       		.byte	92
 4070 0ce9 44       		.byte	68
 4071 0cea 5F       		.byte	95
 4072 0ceb 01       		.byte	1
 4073 0cec 8E       		.byte	-114
 4074 0ced 01       		.byte	1
 4075 0cee B4       		.byte	-76
 4076 0cef 01       		.byte	1
 4077 0cf0 C0       		.byte	-64
 4078 0cf1 45       		.byte	69
 4079 0cf2 C1       		.byte	-63
 4080 0cf3 03       		.byte	3
 4081 0cf4 C2       		.byte	-62
 4082 0cf5 20       		.byte	32
 4083 0cf6 C4       		.byte	-60
 4084 0cf7 01       		.byte	1
 4085 0cf8 C5       		.byte	-59
 4086 0cf9 DF       		.byte	-33
 4087 0cfa C6       		.byte	-58
 4088 0cfb C0       		.byte	-64
 4089 0cfc C7       		.byte	-57
 4090 0cfd EB       		.byte	-21
 4091 0cfe C8       		.byte	-56
 4092 0cff 3B       		.byte	59
 4093 0d00 C9       		.byte	-55
 4094 0d01 FF       		.byte	-1
 4095 0d02 CA       		.byte	-54
 4096 0d03 FF       		.byte	-1
 4097 0d04 CB       		.byte	-53
 4098 0d05 FF       		.byte	-1
 4099 0d06 CC       		.byte	-52
 4100 0d07 22       		.byte	34
 4101 0d08 CE       		.byte	-50
 4102 0d09 F0       		.byte	-16
 4103 0d0a CF       		.byte	-49
 4104 0d0b 0C       		.byte	12
 4105 0d0c D0       		.byte	-48
 4106 0d0d 04       		.byte	4
 4107 0d0e D6       		.byte	-42
 4108 0d0f 02       		.byte	2
 4109 0d10 D7       		.byte	-41
 4110 0d11 2C       		.byte	44
 4111 0d12 D8       		.byte	-40
 4112 0d13 04       		.byte	4
 4113 0d14 D9       		.byte	-39
 4114 0d15 04       		.byte	4
 4115 0d16 DA       		.byte	-38
 4116 0d17 04       		.byte	4
 4117 0d18 DB       		.byte	-37
 4118 0d19 04       		.byte	4
 4119 0d1a DC       		.byte	-36
ARM GAS  C:\Users\Admin\AppData\Local\Temp\ccd3RvSG.s 			page 115


 4120 0d1b 44       		.byte	68
 4121 0d1c DD       		.byte	-35
 4122 0d1d 22       		.byte	34
 4123 0d1e DF       		.byte	-33
 4124 0d1f 01       		.byte	1
 4125 0d20 E2       		.byte	-30
 4126 0d21 C0       		.byte	-64
 4127 0d22 E4       		.byte	-28
 4128 0d23 40       		.byte	64
 4129 0d24 E5       		.byte	-27
 4130 0d25 01       		.byte	1
 4131 0d26 E6       		.byte	-26
 4132 0d27 10       		.byte	16
 4133 0d28 E7       		.byte	-25
 4134 0d29 11       		.byte	17
 4135 0d2a E8       		.byte	-24
 4136 0d2b C0       		.byte	-64
 4137 0d2c E9       		.byte	-23
 4138 0d2d 01       		.byte	1
 4139 0d2e EB       		.byte	-21
 4140 0d2f 11       		.byte	17
 4141 0d30 EC       		.byte	-20
 4142 0d31 40       		.byte	64
 4143 0d32 ED       		.byte	-19
 4144 0d33 01       		.byte	1
 4145 0d34 EE       		.byte	-18
 4146 0d35 40       		.byte	64
 4147 0d36 EF       		.byte	-17
 4148 0d37 01       		.byte	1
 4149 0d38 03       		.byte	3
 4150 0d39 40       		.byte	64
 4151 0d3a 05       		.byte	5
 4152 0d3b 01       		.byte	1
 4153 0d3c 06       		.byte	6
 4154 0d3d 02       		.byte	2
 4155 0d3e 07       		.byte	7
 4156 0d3f 60       		.byte	96
 4157 0d40 0B       		.byte	11
 4158 0d41 28       		.byte	40
 4159 0d42 0C       		.byte	12
 4160 0d43 80       		.byte	-128
 4161 0d44 0E       		.byte	14
 4162 0d45 24       		.byte	36
 4163 0d46 10       		.byte	16
 4164 0d47 94       		.byte	-108
 4165 0d48 11       		.byte	17
 4166 0d49 40       		.byte	64
 4167 0d4a 13       		.byte	19
 4168 0d4b 20       		.byte	32
 4169 0d4c 14       		.byte	20
 4170 0d4d 10       		.byte	16
 4171 0d4e 16       		.byte	22
 4172 0d4f 40       		.byte	64
 4173 0d50 19       		.byte	25
 4174 0d51 02       		.byte	2
 4175 0d52 1E       		.byte	30
 4176 0d53 04       		.byte	4
ARM GAS  C:\Users\Admin\AppData\Local\Temp\ccd3RvSG.s 			page 116


 4177 0d54 1F       		.byte	31
 4178 0d55 10       		.byte	16
 4179 0d56 28       		.byte	40
 4180 0d57 05       		.byte	5
 4181 0d58 2A       		.byte	42
 4182 0d59 40       		.byte	64
 4183 0d5a 2C       		.byte	44
 4184 0d5b 11       		.byte	17
 4185 0d5c 2D       		.byte	45
 4186 0d5d 40       		.byte	64
 4187 0d5e 2F       		.byte	47
 4188 0d5f 04       		.byte	4
 4189 0d60 30       		.byte	48
 4190 0d61 90       		.byte	-112
 4191 0d62 31       		.byte	49
 4192 0d63 01       		.byte	1
 4193 0d64 32       		.byte	50
 4194 0d65 80       		.byte	-128
 4195 0d66 35       		.byte	53
 4196 0d67 01       		.byte	1
 4197 0d68 36       		.byte	54
 4198 0d69 80       		.byte	-128
 4199 0d6a 37       		.byte	55
 4200 0d6b 20       		.byte	32
 4201 0d6c 3B       		.byte	59
 4202 0d6d 28       		.byte	40
 4203 0d6e 3E       		.byte	62
 4204 0d6f 04       		.byte	4
 4205 0d70 44       		.byte	68
 4206 0d71 02       		.byte	2
 4207 0d72 45       		.byte	69
 4208 0d73 16       		.byte	22
 4209 0d74 46       		.byte	70
 4210 0d75 10       		.byte	16
 4211 0d76 4E       		.byte	78
 4212 0d77 02       		.byte	2
 4213 0d78 4F       		.byte	79
 4214 0d79 06       		.byte	6
 4215 0d7a 54       		.byte	84
 4216 0d7b 01       		.byte	1
 4217 0d7c 56       		.byte	86
 4218 0d7d 20       		.byte	32
 4219 0d7e 57       		.byte	87
 4220 0d7f 04       		.byte	4
 4221 0d80 64       		.byte	100
 4222 0d81 80       		.byte	-128
 4223 0d82 6C       		.byte	108
 4224 0d83 08       		.byte	8
 4225 0d84 6E       		.byte	110
 4226 0d85 4A       		.byte	74
 4227 0d86 6F       		.byte	111
 4228 0d87 11       		.byte	17
 4229 0d88 74       		.byte	116
 4230 0d89 40       		.byte	64
 4231 0d8a 75       		.byte	117
 4232 0d8b 80       		.byte	-128
 4233 0d8c 76       		.byte	118
ARM GAS  C:\Users\Admin\AppData\Local\Temp\ccd3RvSG.s 			page 117


 4234 0d8d 01       		.byte	1
 4235 0d8e 82       		.byte	-126
 4236 0d8f 07       		.byte	7
 4237 0d90 83       		.byte	-125
 4238 0d91 04       		.byte	4
 4239 0d92 85       		.byte	-123
 4240 0d93 02       		.byte	2
 4241 0d94 86       		.byte	-122
 4242 0d95 30       		.byte	48
 4243 0d96 88       		.byte	-120
 4244 0d97 01       		.byte	1
 4245 0d98 89       		.byte	-119
 4246 0d99 80       		.byte	-128
 4247 0d9a 8B       		.byte	-117
 4248 0d9b 11       		.byte	17
 4249 0d9c 8C       		.byte	-116
 4250 0d9d 08       		.byte	8
 4251 0d9e 8E       		.byte	-114
 4252 0d9f 20       		.byte	32
 4253 0da0 91       		.byte	-111
 4254 0da1 40       		.byte	64
 4255 0da2 93       		.byte	-109
 4256 0da3 08       		.byte	8
 4257 0da4 96       		.byte	-106
 4258 0da5 44       		.byte	68
 4259 0da6 97       		.byte	-105
 4260 0da7 24       		.byte	36
 4261 0da8 98       		.byte	-104
 4262 0da9 92       		.byte	-110
 4263 0daa 99       		.byte	-103
 4264 0dab 01       		.byte	1
 4265 0dac 9A       		.byte	-102
 4266 0dad 02       		.byte	2
 4267 0dae 9B       		.byte	-101
 4268 0daf 20       		.byte	32
 4269 0db0 9C       		.byte	-100
 4270 0db1 04       		.byte	4
 4271 0db2 9E       		.byte	-98
 4272 0db3 21       		.byte	33
 4273 0db4 9F       		.byte	-97
 4274 0db5 14       		.byte	20
 4275 0db6 A0       		.byte	-96
 4276 0db7 80       		.byte	-128
 4277 0db8 A1       		.byte	-95
 4278 0db9 12       		.byte	18
 4279 0dba A2       		.byte	-94
 4280 0dbb 30       		.byte	48
 4281 0dbc A4       		.byte	-92
 4282 0dbd 48       		.byte	72
 4283 0dbe A5       		.byte	-91
 4284 0dbf 04       		.byte	4
 4285 0dc0 A6       		.byte	-90
 4286 0dc1 01       		.byte	1
 4287 0dc2 A7       		.byte	-89
 4288 0dc3 05       		.byte	5
 4289 0dc4 A9       		.byte	-87
 4290 0dc5 01       		.byte	1
ARM GAS  C:\Users\Admin\AppData\Local\Temp\ccd3RvSG.s 			page 118


 4291 0dc6 AA       		.byte	-86
 4292 0dc7 08       		.byte	8
 4293 0dc8 AD       		.byte	-83
 4294 0dc9 24       		.byte	36
 4295 0dca AE       		.byte	-82
 4296 0dcb 02       		.byte	2
 4297 0dcc B2       		.byte	-78
 4298 0dcd 10       		.byte	16
 4299 0dce B3       		.byte	-77
 4300 0dcf 04       		.byte	4
 4301 0dd0 B5       		.byte	-75
 4302 0dd1 84       		.byte	-124
 4303 0dd2 C0       		.byte	-64
 4304 0dd3 B8       		.byte	-72
 4305 0dd4 C2       		.byte	-62
 4306 0dd5 E6       		.byte	-26
 4307 0dd6 C4       		.byte	-60
 4308 0dd7 3F       		.byte	63
 4309 0dd8 CA       		.byte	-54
 4310 0dd9 7C       		.byte	124
 4311 0dda CC       		.byte	-52
 4312 0ddb BD       		.byte	-67
 4313 0ddc CE       		.byte	-50
 4314 0ddd 46       		.byte	70
 4315 0dde D0       		.byte	-48
 4316 0ddf F0       		.byte	-16
 4317 0de0 D2       		.byte	-46
 4318 0de1 10       		.byte	16
 4319 0de2 D8       		.byte	-40
 4320 0de3 80       		.byte	-128
 4321 0de4 E2       		.byte	-30
 4322 0de5 A0       		.byte	-96
 4323 0de6 E4       		.byte	-28
 4324 0de7 08       		.byte	8
 4325 0de8 E6       		.byte	-26
 4326 0de9 F0       		.byte	-16
 4327 0dea EA       		.byte	-22
 4328 0deb 80       		.byte	-128
 4329 0dec 0B       		.byte	11
 4330 0ded 80       		.byte	-128
 4331 0dee 0F       		.byte	15
 4332 0def 20       		.byte	32
 4333 0df0 13       		.byte	19
 4334 0df1 02       		.byte	2
 4335 0df2 16       		.byte	22
 4336 0df3 80       		.byte	-128
 4337 0df4 33       		.byte	51
 4338 0df5 82       		.byte	-126
 4339 0df6 35       		.byte	53
 4340 0df7 01       		.byte	1
 4341 0df8 36       		.byte	54
 4342 0df9 40       		.byte	64
 4343 0dfa 38       		.byte	56
 4344 0dfb 18       		.byte	24
 4345 0dfc 3E       		.byte	62
 4346 0dfd 80       		.byte	-128
 4347 0dfe 55       		.byte	85
ARM GAS  C:\Users\Admin\AppData\Local\Temp\ccd3RvSG.s 			page 119


 4348 0dff 01       		.byte	1
 4349 0e00 83       		.byte	-125
 4350 0e01 10       		.byte	16
 4351 0e02 86       		.byte	-122
 4352 0e03 40       		.byte	64
 4353 0e04 8C       		.byte	-116
 4354 0e05 08       		.byte	8
 4355 0e06 C2       		.byte	-62
 4356 0e07 30       		.byte	48
 4357 0e08 C4       		.byte	-60
 4358 0e09 30       		.byte	48
 4359 0e0a CC       		.byte	-52
 4360 0e0b F0       		.byte	-16
 4361 0e0c CE       		.byte	-50
 4362 0e0d 70       		.byte	112
 4363 0e0e D6       		.byte	-42
 4364 0e0f 20       		.byte	32
 4365 0e10 E4       		.byte	-28
 4366 0e11 80       		.byte	-128
 4367 0e12 E6       		.byte	-26
 4368 0e13 40       		.byte	64
 4369 0e14 0A       		.byte	10
 4370 0e15 02       		.byte	2
 4371 0e16 33       		.byte	51
 4372 0e17 10       		.byte	16
 4373 0e18 37       		.byte	55
 4374 0e19 20       		.byte	32
 4375 0e1a 5E       		.byte	94
 4376 0e1b 02       		.byte	2
 4377 0e1c 61       		.byte	97
 4378 0e1d 04       		.byte	4
 4379 0e1e 80       		.byte	-128
 4380 0e1f 10       		.byte	16
 4381 0e20 94       		.byte	-108
 4382 0e21 18       		.byte	24
 4383 0e22 98       		.byte	-104
 4384 0e23 08       		.byte	8
 4385 0e24 9D       		.byte	-99
 4386 0e25 01       		.byte	1
 4387 0e26 A5       		.byte	-91
 4388 0e27 01       		.byte	1
 4389 0e28 A7       		.byte	-89
 4390 0e29 82       		.byte	-126
 4391 0e2a B3       		.byte	-77
 4392 0e2b 40       		.byte	64
 4393 0e2c B7       		.byte	-73
 4394 0e2d 02       		.byte	2
 4395 0e2e C2       		.byte	-62
 4396 0e2f 40       		.byte	64
 4397 0e30 CC       		.byte	-52
 4398 0e31 30       		.byte	48
 4399 0e32 D6       		.byte	-42
 4400 0e33 80       		.byte	-128
 4401 0e34 D8       		.byte	-40
 4402 0e35 40       		.byte	64
 4403 0e36 E6       		.byte	-26
 4404 0e37 80       		.byte	-128
ARM GAS  C:\Users\Admin\AppData\Local\Temp\ccd3RvSG.s 			page 120


 4405 0e38 58       		.byte	88
 4406 0e39 08       		.byte	8
 4407 0e3a 80       		.byte	-128
 4408 0e3b 04       		.byte	4
 4409 0e3c 83       		.byte	-125
 4410 0e3d 80       		.byte	-128
 4411 0e3e 92       		.byte	-110
 4412 0e3f 02       		.byte	2
 4413 0e40 94       		.byte	-108
 4414 0e41 08       		.byte	8
 4415 0e42 98       		.byte	-104
 4416 0e43 08       		.byte	8
 4417 0e44 9D       		.byte	-99
 4418 0e45 05       		.byte	5
 4419 0e46 9F       		.byte	-97
 4420 0e47 30       		.byte	48
 4421 0e48 A5       		.byte	-91
 4422 0e49 01       		.byte	1
 4423 0e4a A6       		.byte	-90
 4424 0e4b 01       		.byte	1
 4425 0e4c A7       		.byte	-89
 4426 0e4d 80       		.byte	-128
 4427 0e4e B7       		.byte	-73
 4428 0e4f 02       		.byte	2
 4429 0e50 D6       		.byte	-42
 4430 0e51 40       		.byte	64
 4431 0e52 E6       		.byte	-26
 4432 0e53 A0       		.byte	-96
 4433 0e54 19       		.byte	25
 4434 0e55 04       		.byte	4
 4435 0e56 83       		.byte	-125
 4436 0e57 10       		.byte	16
 4437 0e58 92       		.byte	-110
 4438 0e59 02       		.byte	2
 4439 0e5a 9D       		.byte	-99
 4440 0e5b 05       		.byte	5
 4441 0e5c 9F       		.byte	-97
 4442 0e5d 30       		.byte	48
 4443 0e5e A5       		.byte	-91
 4444 0e5f 01       		.byte	1
 4445 0e60 A6       		.byte	-90
 4446 0e61 01       		.byte	1
 4447 0e62 C6       		.byte	-58
 4448 0e63 10       		.byte	16
 4449 0e64 E2       		.byte	-30
 4450 0e65 20       		.byte	32
 4451 0e66 03       		.byte	3
 4452 0e67 20       		.byte	32
 4453 0e68 05       		.byte	5
 4454 0e69 02       		.byte	2
 4455 0e6a C0       		.byte	-64
 4456 0e6b 0C       		.byte	12
 4457 0e6c 60       		.byte	96
 4458 0e6d 10       		.byte	16
 4459 0e6e 81       		.byte	-127
 4460 0e6f 01       		.byte	1
 4461 0e70 8C       		.byte	-116
ARM GAS  C:\Users\Admin\AppData\Local\Temp\ccd3RvSG.s 			page 121


 4462 0e71 10       		.byte	16
 4463 0e72 B3       		.byte	-77
 4464 0e73 20       		.byte	32
 4465 0e74 B5       		.byte	-75
 4466 0e75 02       		.byte	2
 4467 0e76 D8       		.byte	-40
 4468 0e77 02       		.byte	2
 4469 0e78 E0       		.byte	-32
 4470 0e79 08       		.byte	8
 4471 0e7a EA       		.byte	-22
 4472 0e7b 03       		.byte	3
 4473 0e7c 1B       		.byte	27
 4474 0e7d 08       		.byte	8
 4475 0e7e 26       		.byte	38
 4476 0e7f 08       		.byte	8
 4477 0e80 82       		.byte	-126
 4478 0e81 08       		.byte	8
 4479 0e82 83       		.byte	-125
 4480 0e83 08       		.byte	8
 4481 0e84 A5       		.byte	-91
 4482 0e85 01       		.byte	1
 4483 0e86 C6       		.byte	-58
 4484 0e87 08       		.byte	8
 4485 0e88 C8       		.byte	-56
 4486 0e89 01       		.byte	1
 4487 0e8a 09       		.byte	9
 4488 0e8b 01       		.byte	1
 4489 0e8c 0B       		.byte	11
 4490 0e8d 04       		.byte	4
 4491 0e8e 0F       		.byte	15
 4492 0e8f 80       		.byte	-128
 4493 0e90 44       		.byte	68
 4494 0e91 08       		.byte	8
 4495 0e92 83       		.byte	-125
 4496 0e93 40       		.byte	64
 4497 0e94 A5       		.byte	-91
 4498 0e95 01       		.byte	1
 4499 0e96 C2       		.byte	-62
 4500 0e97 0E       		.byte	14
 4501 0e98 D0       		.byte	-48
 4502 0e99 04       		.byte	4
 4503 0e9a 02       		.byte	2
 4504 0e9b 01       		.byte	1
 4505 0e9c 07       		.byte	7
 4506 0e9d 04       		.byte	4
 4507 0e9e 53       		.byte	83
 4508 0e9f 01       		.byte	1
 4509 0ea0 81       		.byte	-127
 4510 0ea1 01       		.byte	1
 4511 0ea2 87       		.byte	-121
 4512 0ea3 80       		.byte	-128
 4513 0ea4 8A       		.byte	-118
 4514 0ea5 01       		.byte	1
 4515 0ea6 8D       		.byte	-115
 4516 0ea7 01       		.byte	1
 4517 0ea8 8F       		.byte	-113
 4518 0ea9 01       		.byte	1
ARM GAS  C:\Users\Admin\AppData\Local\Temp\ccd3RvSG.s 			page 122


 4519 0eaa 92       		.byte	-110
 4520 0eab 02       		.byte	2
 4521 0eac 9D       		.byte	-99
 4522 0ead 01       		.byte	1
 4523 0eae 9E       		.byte	-98
 4524 0eaf 01       		.byte	1
 4525 0eb0 A5       		.byte	-91
 4526 0eb1 01       		.byte	1
 4527 0eb2 AA       		.byte	-86
 4528 0eb3 01       		.byte	1
 4529 0eb4 AF       		.byte	-81
 4530 0eb5 20       		.byte	32
 4531 0eb6 B6       		.byte	-74
 4532 0eb7 01       		.byte	1
 4533 0eb8 C0       		.byte	-64
 4534 0eb9 C0       		.byte	-64
 4535 0eba D4       		.byte	-44
 4536 0ebb 80       		.byte	-128
 4537 0ebc E4       		.byte	-28
 4538 0ebd 10       		.byte	16
 4539 0ebe E6       		.byte	-26
 4540 0ebf 80       		.byte	-128
 4541 0ec0 E8       		.byte	-24
 4542 0ec1 20       		.byte	32
 4543 0ec2 EA       		.byte	-22
 4544 0ec3 40       		.byte	64
 4545 0ec4 1F       		.byte	31
 4546 0ec5 80       		.byte	-128
 4547 0ec6 63       		.byte	99
 4548 0ec7 02       		.byte	2
 4549 0ec8 77       		.byte	119
 4550 0ec9 80       		.byte	-128
 4551 0eca 87       		.byte	-121
 4552 0ecb 01       		.byte	1
 4553 0ecc 9B       		.byte	-101
 4554 0ecd 80       		.byte	-128
 4555 0ece A7       		.byte	-89
 4556 0ecf 80       		.byte	-128
 4557 0ed0 AB       		.byte	-85
 4558 0ed1 04       		.byte	4
 4559 0ed2 AF       		.byte	-81
 4560 0ed3 80       		.byte	-128
 4561 0ed4 C6       		.byte	-58
 4562 0ed5 80       		.byte	-128
 4563 0ed6 D6       		.byte	-42
 4564 0ed7 40       		.byte	64
 4565 0ed8 DE       		.byte	-34
 4566 0ed9 20       		.byte	32
 4567 0eda E6       		.byte	-26
 4568 0edb 10       		.byte	16
 4569 0edc E8       		.byte	-24
 4570 0edd 80       		.byte	-128
 4571 0ede EA       		.byte	-22
 4572 0edf 40       		.byte	64
 4573 0ee0 5A       		.byte	90
 4574 0ee1 01       		.byte	1
 4575 0ee2 5D       		.byte	93
ARM GAS  C:\Users\Admin\AppData\Local\Temp\ccd3RvSG.s 			page 123


 4576 0ee3 08       		.byte	8
 4577 0ee4 66       		.byte	102
 4578 0ee5 02       		.byte	2
 4579 0ee6 84       		.byte	-124
 4580 0ee7 08       		.byte	8
 4581 0ee8 8A       		.byte	-118
 4582 0ee9 01       		.byte	1
 4583 0eea 8E       		.byte	-114
 4584 0eeb 02       		.byte	2
 4585 0eec 9C       		.byte	-100
 4586 0eed 08       		.byte	8
 4587 0eee AF       		.byte	-81
 4588 0eef 04       		.byte	4
 4589 0ef0 D6       		.byte	-42
 4590 0ef1 03       		.byte	3
 4591 0ef2 D8       		.byte	-40
 4592 0ef3 01       		.byte	1
 4593 0ef4 E0       		.byte	-32
 4594 0ef5 02       		.byte	2
 4595 0ef6 E4       		.byte	-28
 4596 0ef7 01       		.byte	1
 4597 0ef8 85       		.byte	-123
 4598 0ef9 08       		.byte	8
 4599 0efa 9D       		.byte	-99
 4600 0efb 08       		.byte	8
 4601 0efc 10       		.byte	16
 4602 0efd 1E       		.byte	30
 4603 0efe 1A       		.byte	26
 4604 0eff 1E       		.byte	30
 4605 0f00 1C       		.byte	28
 4606 0f01 14       		.byte	20
 4607 0f02 00       		.byte	0
 4608 0f03 FF       		.byte	-1
 4609 0f04 01       		.byte	1
 4610 0f05 2A       		.byte	42
 4611 0f06 10       		.byte	16
 4612 0f07 0A       		.byte	10
 4613              		.align	2
 4614              		.type	BS_PHUB_CFGMEM1_VAL.5019, %object
 4615              		.size	BS_PHUB_CFGMEM1_VAL.5019, 4
 4616              	BS_PHUB_CFGMEM1_VAL.5019:
 4617 0f08 00       		.byte	0
 4618 0f09 01       		.byte	1
 4619 0f0a 00       		.byte	0
 4620 0f0b 00       		.byte	0
 4621              		.align	2
 4622              		.type	BS_IOPINS0_0_VAL.5011, %object
 4623              		.size	BS_IOPINS0_0_VAL.5011, 10
 4624              	BS_IOPINS0_0_VAL.5011:
 4625 0f0c 82       		.byte	-126
 4626 0f0d 00       		.byte	0
 4627 0f0e 40       		.byte	64
 4628 0f0f A2       		.byte	-94
 4629 0f10 A0       		.byte	-96
 4630 0f11 00       		.byte	0
 4631 0f12 A0       		.byte	-96
 4632 0f13 00       		.byte	0
ARM GAS  C:\Users\Admin\AppData\Local\Temp\ccd3RvSG.s 			page 124


 4633 0f14 00       		.byte	0
 4634 0f15 00       		.byte	0
 4635 0f16 0000     		.align	2
 4636              		.type	BS_IOPINS0_7_VAL.5012, %object
 4637              		.size	BS_IOPINS0_7_VAL.5012, 10
 4638              	BS_IOPINS0_7_VAL.5012:
 4639 0f18 0C       		.byte	12
 4640 0f19 00       		.byte	0
 4641 0f1a 80       		.byte	-128
 4642 0f1b 8D       		.byte	-115
 4643 0f1c 05       		.byte	5
 4644 0f1d 00       		.byte	0
 4645 0f1e 01       		.byte	1
 4646 0f1f 00       		.byte	0
 4647 0f20 00       		.byte	0
 4648 0f21 00       		.byte	0
 4649 0f22 0000     		.align	2
 4650              		.type	BS_IOPINS0_8_VAL.5013, %object
 4651              		.size	BS_IOPINS0_8_VAL.5013, 10
 4652              	BS_IOPINS0_8_VAL.5013:
 4653 0f24 42       		.byte	66
 4654 0f25 00       		.byte	0
 4655 0f26 0C       		.byte	12
 4656 0f27 03       		.byte	3
 4657 0f28 03       		.byte	3
 4658 0f29 00       		.byte	0
 4659 0f2a 01       		.byte	1
 4660 0f2b 00       		.byte	0
 4661 0f2c C0       		.byte	-64
 4662 0f2d 00       		.byte	0
 4663 0f2e 0000     		.align	2
 4664              		.type	BS_IOPINS0_1_VAL.5014, %object
 4665              		.size	BS_IOPINS0_1_VAL.5014, 8
 4666              	BS_IOPINS0_1_VAL.5014:
 4667 0f30 00       		.byte	0
 4668 0f31 DB       		.byte	-37
 4669 0f32 DB       		.byte	-37
 4670 0f33 00       		.byte	0
 4671 0f34 00       		.byte	0
 4672 0f35 D0       		.byte	-48
 4673 0f36 D0       		.byte	-48
 4674 0f37 00       		.byte	0
 4675              		.align	2
 4676              		.type	BS_IOPINS0_2_VAL.5015, %object
 4677              		.size	BS_IOPINS0_2_VAL.5015, 10
 4678              	BS_IOPINS0_2_VAL.5015:
 4679 0f38 60       		.byte	96
 4680 0f39 00       		.byte	0
 4681 0f3a 00       		.byte	0
 4682 0f3b 60       		.byte	96
 4683 0f3c 40       		.byte	64
 4684 0f3d 00       		.byte	0
 4685 0f3e 40       		.byte	64
 4686 0f3f 00       		.byte	0
 4687 0f40 00       		.byte	0
 4688 0f41 00       		.byte	0
 4689 0f42 0000     		.align	2
ARM GAS  C:\Users\Admin\AppData\Local\Temp\ccd3RvSG.s 			page 125


 4690              		.type	BS_IOPINS0_3_VAL.5016, %object
 4691              		.size	BS_IOPINS0_3_VAL.5016, 10
 4692              	BS_IOPINS0_3_VAL.5016:
 4693 0f44 3B       		.byte	59
 4694 0f45 00       		.byte	0
 4695 0f46 20       		.byte	32
 4696 0f47 7B       		.byte	123
 4697 0f48 48       		.byte	72
 4698 0f49 00       		.byte	0
 4699 0f4a 40       		.byte	64
 4700 0f4b 00       		.byte	0
 4701 0f4c 00       		.byte	0
 4702 0f4d 00       		.byte	0
 4703 0f4e 0000     		.align	2
 4704              		.type	BS_IOPINS0_4_VAL.5017, %object
 4705              		.size	BS_IOPINS0_4_VAL.5017, 8
 4706              	BS_IOPINS0_4_VAL.5017:
 4707 0f50 30       		.byte	48
 4708 0f51 01       		.byte	1
 4709 0f52 01       		.byte	1
 4710 0f53 00       		.byte	0
 4711 0f54 01       		.byte	1
 4712 0f55 00       		.byte	0
 4713 0f56 00       		.byte	0
 4714 0f57 00       		.byte	0
 4715              		.align	2
 4716              		.type	BS_IOPINS0_6_VAL.5018, %object
 4717              		.size	BS_IOPINS0_6_VAL.5018, 10
 4718              	BS_IOPINS0_6_VAL.5018:
 4719 0f58 02       		.byte	2
 4720 0f59 00       		.byte	0
 4721 0f5a 03       		.byte	3
 4722 0f5b 00       		.byte	0
 4723 0f5c 00       		.byte	0
 4724 0f5d 00       		.byte	0
 4725 0f5e 00       		.byte	0
 4726 0f5f 00       		.byte	0
 4727 0f60 00       		.byte	0
 4728 0f61 00       		.byte	0
 4729 0f62 0000     		.align	2
 4730              		.type	BS_UCFG_BCTL0_VAL.5033, %object
 4731              		.size	BS_UCFG_BCTL0_VAL.5033, 16
 4732              	BS_UCFG_BCTL0_VAL.5033:
 4733 0f64 1E       		.byte	30
 4734 0f65 01       		.byte	1
 4735 0f66 00       		.byte	0
 4736 0f67 00       		.byte	0
 4737 0f68 00       		.byte	0
 4738 0f69 00       		.byte	0
 4739 0f6a 00       		.byte	0
 4740 0f6b 00       		.byte	0
 4741 0f6c 02       		.byte	2
 4742 0f6d 00       		.byte	0
 4743 0f6e 12       		.byte	18
 4744 0f6f 00       		.byte	0
 4745 0f70 1C       		.byte	28
 4746 0f71 01       		.byte	1
ARM GAS  C:\Users\Admin\AppData\Local\Temp\ccd3RvSG.s 			page 126


 4747 0f72 1A       		.byte	26
 4748 0f73 01       		.byte	1
 4749              		.align	2
 4750              		.type	BS_UDB_1_3_1_CONFIG_VAL.5032, %object
 4751              		.size	BS_UDB_1_3_1_CONFIG_VAL.5032, 128
 4752              	BS_UDB_1_3_1_CONFIG_VAL.5032:
 4753 0f74 C5       		.byte	-59
 4754 0f75 00       		.byte	0
 4755 0f76 3A       		.byte	58
 4756 0f77 00       		.byte	0
 4757 0f78 00       		.byte	0
 4758 0f79 00       		.byte	0
 4759 0f7a 00       		.byte	0
 4760 0f7b 74       		.byte	116
 4761 0f7c 00       		.byte	0
 4762 0f7d 34       		.byte	52
 4763 0f7e 01       		.byte	1
 4764 0f7f 40       		.byte	64
 4765 0f80 00       		.byte	0
 4766 0f81 00       		.byte	0
 4767 0f82 00       		.byte	0
 4768 0f83 01       		.byte	1
 4769 0f84 00       		.byte	0
 4770 0f85 01       		.byte	1
 4771 0f86 00       		.byte	0
 4772 0f87 00       		.byte	0
 4773 0f88 0E       		.byte	14
 4774 0f89 00       		.byte	0
 4775 0f8a F0       		.byte	-16
 4776 0f8b 03       		.byte	3
 4777 0f8c A3       		.byte	-93
 4778 0f8d 00       		.byte	0
 4779 0f8e 5C       		.byte	92
 4780 0f8f 00       		.byte	0
 4781 0f90 7F       		.byte	127
 4782 0f91 44       		.byte	68
 4783 0f92 00       		.byte	0
 4784 0f93 20       		.byte	32
 4785 0f94 96       		.byte	-106
 4786 0f95 70       		.byte	112
 4787 0f96 68       		.byte	104
 4788 0f97 00       		.byte	0
 4789 0f98 00       		.byte	0
 4790 0f99 44       		.byte	68
 4791 0f9a 00       		.byte	0
 4792 0f9b 10       		.byte	16
 4793 0f9c FE       		.byte	-2
 4794 0f9d 04       		.byte	4
 4795 0f9e 01       		.byte	1
 4796 0f9f 10       		.byte	16
 4797 0fa0 00       		.byte	0
 4798 0fa1 00       		.byte	0
 4799 0fa2 00       		.byte	0
 4800 0fa3 08       		.byte	8
 4801 0fa4 FF       		.byte	-1
 4802 0fa5 74       		.byte	116
 4803 0fa6 00       		.byte	0
ARM GAS  C:\Users\Admin\AppData\Local\Temp\ccd3RvSG.s 			page 127


 4804 0fa7 01       		.byte	1
 4805 0fa8 00       		.byte	0
 4806 0fa9 0C       		.byte	12
 4807 0faa 00       		.byte	0
 4808 0fab 02       		.byte	2
 4809 0fac 00       		.byte	0
 4810 0fad 00       		.byte	0
 4811 0fae 00       		.byte	0
 4812 0faf 00       		.byte	0
 4813 0fb0 00       		.byte	0
 4814 0fb1 00       		.byte	0
 4815 0fb2 01       		.byte	1
 4816 0fb3 04       		.byte	4
 4817 0fb4 36       		.byte	54
 4818 0fb5 04       		.byte	4
 4819 0fb6 00       		.byte	0
 4820 0fb7 00       		.byte	0
 4821 0fb8 00       		.byte	0
 4822 0fb9 C3       		.byte	-61
 4823 0fba 40       		.byte	64
 4824 0fbb E2       		.byte	-30
 4825 0fbc 3B       		.byte	59
 4826 0fbd FF       		.byte	-1
 4827 0fbe FF       		.byte	-1
 4828 0fbf FF       		.byte	-1
 4829 0fc0 00       		.byte	0
 4830 0fc1 AF       		.byte	-81
 4831 0fc2 07       		.byte	7
 4832 0fc3 01       		.byte	1
 4833 0fc4 18       		.byte	24
 4834 0fc5 00       		.byte	0
 4835 0fc6 80       		.byte	-128
 4836 0fc7 00       		.byte	0
 4837 0fc8 00       		.byte	0
 4838 0fc9 00       		.byte	0
 4839 0fca 00       		.byte	0
 4840 0fcb 00       		.byte	0
 4841 0fcc 04       		.byte	4
 4842 0fcd 04       		.byte	4
 4843 0fce 04       		.byte	4
 4844 0fcf 04       		.byte	4
 4845 0fd0 10       		.byte	16
 4846 0fd1 11       		.byte	17
 4847 0fd2 00       		.byte	0
 4848 0fd3 01       		.byte	1
 4849 0fd4 40       		.byte	64
 4850 0fd5 00       		.byte	0
 4851 0fd6 80       		.byte	-128
 4852 0fd7 00       		.byte	0
 4853 0fd8 40       		.byte	64
 4854 0fd9 40       		.byte	64
 4855 0fda 80       		.byte	-128
 4856 0fdb 00       		.byte	0
 4857 0fdc 40       		.byte	64
 4858 0fdd 00       		.byte	0
 4859 0fde 80       		.byte	-128
 4860 0fdf 00       		.byte	0
ARM GAS  C:\Users\Admin\AppData\Local\Temp\ccd3RvSG.s 			page 128


 4861 0fe0 40       		.byte	64
 4862 0fe1 20       		.byte	32
 4863 0fe2 80       		.byte	-128
 4864 0fe3 00       		.byte	0
 4865 0fe4 00       		.byte	0
 4866 0fe5 00       		.byte	0
 4867 0fe6 00       		.byte	0
 4868 0fe7 00       		.byte	0
 4869 0fe8 00       		.byte	0
 4870 0fe9 00       		.byte	0
 4871 0fea 00       		.byte	0
 4872 0feb 00       		.byte	0
 4873 0fec 00       		.byte	0
 4874 0fed 00       		.byte	0
 4875 0fee 00       		.byte	0
 4876 0fef 00       		.byte	0
 4877 0ff0 00       		.byte	0
 4878 0ff1 00       		.byte	0
 4879 0ff2 00       		.byte	0
 4880 0ff3 00       		.byte	0
 4881              		.text
 4882              	.Letext0:
 4883              		.file 2 "c:\\program files (x86)\\cypress\\psoc creator\\4.4\\psoc creator\\import\\gnu\\arm\\5.4.
 4884              		.file 3 "Generated_Source\\PSoC5\\cytypes.h"
 4885              		.section	.debug_info,"",%progbits
 4886              	.Ldebug_info0:
 4887 0000 22060000 		.4byte	0x622
 4888 0004 0400     		.2byte	0x4
 4889 0006 00000000 		.4byte	.Ldebug_abbrev0
 4890 000a 04       		.byte	0x4
 4891 000b 01       		.uleb128 0x1
 4892 000c 2B000000 		.4byte	.LASF66
 4893 0010 0C       		.byte	0xc
 4894 0011 26040000 		.4byte	.LASF67
 4895 0015 FB020000 		.4byte	.LASF68
 4896 0019 00000000 		.4byte	.Ldebug_ranges0+0
 4897 001d 00000000 		.4byte	0
 4898 0021 00000000 		.4byte	.Ldebug_line0
 4899 0025 02       		.uleb128 0x2
 4900 0026 04       		.byte	0x4
 4901 0027 05       		.byte	0x5
 4902 0028 696E7400 		.ascii	"int\000"
 4903 002c 03       		.uleb128 0x3
 4904 002d 10000000 		.4byte	.LASF12
 4905 0031 02       		.byte	0x2
 4906 0032 D8       		.byte	0xd8
 4907 0033 37000000 		.4byte	0x37
 4908 0037 04       		.uleb128 0x4
 4909 0038 04       		.byte	0x4
 4910 0039 07       		.byte	0x7
 4911 003a D7010000 		.4byte	.LASF0
 4912 003e 04       		.uleb128 0x4
 4913 003f 08       		.byte	0x8
 4914 0040 05       		.byte	0x5
 4915 0041 32010000 		.4byte	.LASF1
 4916 0045 04       		.uleb128 0x4
 4917 0046 08       		.byte	0x8
ARM GAS  C:\Users\Admin\AppData\Local\Temp\ccd3RvSG.s 			page 129


 4918 0047 04       		.byte	0x4
 4919 0048 6E020000 		.4byte	.LASF2
 4920 004c 04       		.uleb128 0x4
 4921 004d 01       		.byte	0x1
 4922 004e 06       		.byte	0x6
 4923 004f 40010000 		.4byte	.LASF3
 4924 0053 04       		.uleb128 0x4
 4925 0054 01       		.byte	0x1
 4926 0055 08       		.byte	0x8
 4927 0056 D2020000 		.4byte	.LASF4
 4928 005a 04       		.uleb128 0x4
 4929 005b 02       		.byte	0x2
 4930 005c 05       		.byte	0x5
 4931 005d E0020000 		.4byte	.LASF5
 4932 0061 04       		.uleb128 0x4
 4933 0062 02       		.byte	0x2
 4934 0063 07       		.byte	0x7
 4935 0064 2B020000 		.4byte	.LASF6
 4936 0068 04       		.uleb128 0x4
 4937 0069 04       		.byte	0x4
 4938 006a 05       		.byte	0x5
 4939 006b 8E010000 		.4byte	.LASF7
 4940 006f 04       		.uleb128 0x4
 4941 0070 04       		.byte	0x4
 4942 0071 07       		.byte	0x7
 4943 0072 ED010000 		.4byte	.LASF8
 4944 0076 04       		.uleb128 0x4
 4945 0077 08       		.byte	0x8
 4946 0078 07       		.byte	0x7
 4947 0079 D5000000 		.4byte	.LASF9
 4948 007d 04       		.uleb128 0x4
 4949 007e 04       		.byte	0x4
 4950 007f 07       		.byte	0x7
 4951 0080 65020000 		.4byte	.LASF10
 4952 0084 05       		.uleb128 0x5
 4953 0085 04       		.byte	0x4
 4954 0086 04       		.uleb128 0x4
 4955 0087 01       		.byte	0x1
 4956 0088 08       		.byte	0x8
 4957 0089 D7030000 		.4byte	.LASF11
 4958 008d 06       		.uleb128 0x6
 4959 008e 9D010000 		.4byte	.LASF13
 4960 0092 03       		.byte	0x3
 4961 0093 E401     		.2byte	0x1e4
 4962 0095 53000000 		.4byte	0x53
 4963 0099 06       		.uleb128 0x6
 4964 009a 00000000 		.4byte	.LASF14
 4965 009e 03       		.byte	0x3
 4966 009f E501     		.2byte	0x1e5
 4967 00a1 61000000 		.4byte	0x61
 4968 00a5 06       		.uleb128 0x6
 4969 00a6 AA010000 		.4byte	.LASF15
 4970 00aa 03       		.byte	0x3
 4971 00ab E601     		.2byte	0x1e6
 4972 00ad 6F000000 		.4byte	0x6f
 4973 00b1 04       		.uleb128 0x4
 4974 00b2 04       		.byte	0x4
ARM GAS  C:\Users\Admin\AppData\Local\Temp\ccd3RvSG.s 			page 130


 4975 00b3 04       		.byte	0x4
 4976 00b4 BF020000 		.4byte	.LASF16
 4977 00b8 04       		.uleb128 0x4
 4978 00b9 08       		.byte	0x8
 4979 00ba 04       		.byte	0x4
 4980 00bb A3010000 		.4byte	.LASF17
 4981 00bf 06       		.uleb128 0x6
 4982 00c0 CD020000 		.4byte	.LASF18
 4983 00c4 03       		.byte	0x3
 4984 00c5 8E02     		.2byte	0x28e
 4985 00c7 CB000000 		.4byte	0xcb
 4986 00cb 07       		.uleb128 0x7
 4987 00cc 8D000000 		.4byte	0x8d
 4988 00d0 06       		.uleb128 0x6
 4989 00d1 97010000 		.4byte	.LASF19
 4990 00d5 03       		.byte	0x3
 4991 00d6 8F02     		.2byte	0x28f
 4992 00d8 DC000000 		.4byte	0xdc
 4993 00dc 07       		.uleb128 0x7
 4994 00dd 99000000 		.4byte	0x99
 4995 00e1 06       		.uleb128 0x6
 4996 00e2 4F020000 		.4byte	.LASF20
 4997 00e6 03       		.byte	0x3
 4998 00e7 9002     		.2byte	0x290
 4999 00e9 ED000000 		.4byte	0xed
 5000 00ed 07       		.uleb128 0x7
 5001 00ee A5000000 		.4byte	0xa5
 5002 00f2 08       		.uleb128 0x8
 5003 00f3 02       		.byte	0x2
 5004 00f4 01       		.byte	0x1
 5005 00f5 98       		.byte	0x98
 5006 00f6 13010000 		.4byte	0x113
 5007 00fa 09       		.uleb128 0x9
 5008 00fb 0B040000 		.4byte	.LASF21
 5009 00ff 01       		.byte	0x1
 5010 0100 9A       		.byte	0x9a
 5011 0101 8D000000 		.4byte	0x8d
 5012 0105 00       		.byte	0
 5013 0106 09       		.uleb128 0x9
 5014 0107 D1010000 		.4byte	.LASF22
 5015 010b 01       		.byte	0x1
 5016 010c 9B       		.byte	0x9b
 5017 010d 8D000000 		.4byte	0x8d
 5018 0111 01       		.byte	0x1
 5019 0112 00       		.byte	0
 5020 0113 03       		.uleb128 0x3
 5021 0114 B0030000 		.4byte	.LASF23
 5022 0118 01       		.byte	0x1
 5023 0119 9C       		.byte	0x9c
 5024 011a F2000000 		.4byte	0xf2
 5025 011e 0A       		.uleb128 0xa
 5026 011f 5E010000 		.4byte	.LASF24
 5027 0123 01       		.byte	0x1
 5028 0124 4D       		.byte	0x4d
 5029 0125 00000000 		.4byte	.LFB0
 5030 0129 1C000000 		.4byte	.LFE0-.LFB0
 5031 012d 01       		.uleb128 0x1
ARM GAS  C:\Users\Admin\AppData\Local\Temp\ccd3RvSG.s 			page 131


 5032 012e 9C       		.byte	0x9c
 5033 012f 4C010000 		.4byte	0x14c
 5034 0133 0B       		.uleb128 0xb
 5035 0134 7300     		.ascii	"s\000"
 5036 0136 01       		.byte	0x1
 5037 0137 4D       		.byte	0x4d
 5038 0138 84000000 		.4byte	0x84
 5039 013c 02       		.uleb128 0x2
 5040 013d 91       		.byte	0x91
 5041 013e 74       		.sleb128 -12
 5042 013f 0B       		.uleb128 0xb
 5043 0140 6E00     		.ascii	"n\000"
 5044 0142 01       		.byte	0x1
 5045 0143 4D       		.byte	0x4d
 5046 0144 2C000000 		.4byte	0x2c
 5047 0148 02       		.uleb128 0x2
 5048 0149 91       		.byte	0x91
 5049 014a 70       		.sleb128 -16
 5050 014b 00       		.byte	0
 5051 014c 0A       		.uleb128 0xa
 5052 014d 1A040000 		.4byte	.LASF25
 5053 0151 01       		.byte	0x1
 5054 0152 54       		.byte	0x54
 5055 0153 00000000 		.4byte	.LFB1
 5056 0157 1E000000 		.4byte	.LFE1-.LFB1
 5057 015b 01       		.uleb128 0x1
 5058 015c 9C       		.byte	0x9c
 5059 015d 8A010000 		.4byte	0x18a
 5060 0161 0C       		.uleb128 0xc
 5061 0162 BA020000 		.4byte	.LASF26
 5062 0166 01       		.byte	0x1
 5063 0167 54       		.byte	0x54
 5064 0168 84000000 		.4byte	0x84
 5065 016c 02       		.uleb128 0x2
 5066 016d 91       		.byte	0x91
 5067 016e 74       		.sleb128 -12
 5068 016f 0B       		.uleb128 0xb
 5069 0170 73726300 		.ascii	"src\000"
 5070 0174 01       		.byte	0x1
 5071 0175 54       		.byte	0x54
 5072 0176 8A010000 		.4byte	0x18a
 5073 017a 02       		.uleb128 0x2
 5074 017b 91       		.byte	0x91
 5075 017c 70       		.sleb128 -16
 5076 017d 0B       		.uleb128 0xb
 5077 017e 6E00     		.ascii	"n\000"
 5078 0180 01       		.byte	0x1
 5079 0181 54       		.byte	0x54
 5080 0182 2C000000 		.4byte	0x2c
 5081 0186 02       		.uleb128 0x2
 5082 0187 91       		.byte	0x91
 5083 0188 6C       		.sleb128 -20
 5084 0189 00       		.byte	0
 5085 018a 0D       		.uleb128 0xd
 5086 018b 04       		.byte	0x4
 5087 018c 90010000 		.4byte	0x190
 5088 0190 0E       		.uleb128 0xe
ARM GAS  C:\Users\Admin\AppData\Local\Temp\ccd3RvSG.s 			page 132


 5089 0191 0A       		.uleb128 0xa
 5090 0192 55020000 		.4byte	.LASF27
 5091 0196 01       		.byte	0x1
 5092 0197 5B       		.byte	0x5b
 5093 0198 00000000 		.4byte	.LFB2
 5094 019c 1E000000 		.4byte	.LFE2-.LFB2
 5095 01a0 01       		.uleb128 0x1
 5096 01a1 9C       		.byte	0x9c
 5097 01a2 CF010000 		.4byte	0x1cf
 5098 01a6 0C       		.uleb128 0xc
 5099 01a7 BA020000 		.4byte	.LASF26
 5100 01ab 01       		.byte	0x1
 5101 01ac 5B       		.byte	0x5b
 5102 01ad 84000000 		.4byte	0x84
 5103 01b1 02       		.uleb128 0x2
 5104 01b2 91       		.byte	0x91
 5105 01b3 74       		.sleb128 -12
 5106 01b4 0B       		.uleb128 0xb
 5107 01b5 73726300 		.ascii	"src\000"
 5108 01b9 01       		.byte	0x1
 5109 01ba 5B       		.byte	0x5b
 5110 01bb 8A010000 		.4byte	0x18a
 5111 01bf 02       		.uleb128 0x2
 5112 01c0 91       		.byte	0x91
 5113 01c1 70       		.sleb128 -16
 5114 01c2 0B       		.uleb128 0xb
 5115 01c3 6E00     		.ascii	"n\000"
 5116 01c5 01       		.byte	0x1
 5117 01c6 5B       		.byte	0x5b
 5118 01c7 2C000000 		.4byte	0x2c
 5119 01cb 02       		.uleb128 0x2
 5120 01cc 91       		.byte	0x91
 5121 01cd 6C       		.sleb128 -20
 5122 01ce 00       		.byte	0
 5123 01cf 0F       		.uleb128 0xf
 5124 01d0 17000000 		.4byte	.LASF28
 5125 01d4 01       		.byte	0x1
 5126 01d5 7F       		.byte	0x7f
 5127 01d6 00000000 		.4byte	.LFB3
 5128 01da 0C000000 		.4byte	.LFE3-.LFB3
 5129 01de 01       		.uleb128 0x1
 5130 01df 9C       		.byte	0x9c
 5131 01e0 F3010000 		.4byte	0x1f3
 5132 01e4 0C       		.uleb128 0xc
 5133 01e5 73010000 		.4byte	.LASF29
 5134 01e9 01       		.byte	0x1
 5135 01ea 7F       		.byte	0x7f
 5136 01eb 8D000000 		.4byte	0x8d
 5137 01ef 02       		.uleb128 0x2
 5138 01f0 91       		.byte	0x91
 5139 01f1 77       		.sleb128 -9
 5140 01f2 00       		.byte	0
 5141 01f3 0F       		.uleb128 0xf
 5142 01f4 14020000 		.4byte	.LASF30
 5143 01f8 01       		.byte	0x1
 5144 01f9 AF       		.byte	0xaf
 5145 01fa 00000000 		.4byte	.LFB4
ARM GAS  C:\Users\Admin\AppData\Local\Temp\ccd3RvSG.s 			page 133


 5146 01fe 74000000 		.4byte	.LFE4-.LFB4
 5147 0202 01       		.uleb128 0x1
 5148 0203 9C       		.byte	0x9c
 5149 0204 63020000 		.4byte	0x263
 5150 0208 0C       		.uleb128 0xc
 5151 0209 EC000000 		.4byte	.LASF31
 5152 020d 01       		.byte	0x1
 5153 020e AF       		.byte	0xaf
 5154 020f 63020000 		.4byte	0x263
 5155 0213 02       		.uleb128 0x2
 5156 0214 91       		.byte	0x91
 5157 0215 64       		.sleb128 -28
 5158 0216 0C       		.uleb128 0xc
 5159 0217 CA000000 		.4byte	.LASF32
 5160 021b 01       		.byte	0x1
 5161 021c AF       		.byte	0xaf
 5162 021d 6E020000 		.4byte	0x26e
 5163 0221 02       		.uleb128 0x2
 5164 0222 91       		.byte	0x91
 5165 0223 60       		.sleb128 -32
 5166 0224 10       		.uleb128 0x10
 5167 0225 6900     		.ascii	"i\000"
 5168 0227 01       		.byte	0x1
 5169 0228 B2       		.byte	0xb2
 5170 0229 A5000000 		.4byte	0xa5
 5171 022d 02       		.uleb128 0x2
 5172 022e 91       		.byte	0x91
 5173 022f 74       		.sleb128 -12
 5174 0230 10       		.uleb128 0x10
 5175 0231 6A00     		.ascii	"j\000"
 5176 0233 01       		.byte	0x1
 5177 0234 B2       		.byte	0xb2
 5178 0235 A5000000 		.4byte	0xa5
 5179 0239 02       		.uleb128 0x2
 5180 023a 91       		.byte	0x91
 5181 023b 70       		.sleb128 -16
 5182 023c 11       		.uleb128 0x11
 5183 023d 14000000 		.4byte	.LBB2
 5184 0241 4A000000 		.4byte	.LBE2-.LBB2
 5185 0245 12       		.uleb128 0x12
 5186 0246 07000000 		.4byte	.LASF33
 5187 024a 01       		.byte	0x1
 5188 024b B5       		.byte	0xb5
 5189 024c A5000000 		.4byte	0xa5
 5190 0250 02       		.uleb128 0x2
 5191 0251 91       		.byte	0x91
 5192 0252 68       		.sleb128 -24
 5193 0253 12       		.uleb128 0x12
 5194 0254 B1010000 		.4byte	.LASF34
 5195 0258 01       		.byte	0x1
 5196 0259 B6       		.byte	0xb6
 5197 025a 8D000000 		.4byte	0x8d
 5198 025e 02       		.uleb128 0x2
 5199 025f 91       		.byte	0x91
 5200 0260 6F       		.sleb128 -17
 5201 0261 00       		.byte	0
 5202 0262 00       		.byte	0
ARM GAS  C:\Users\Admin\AppData\Local\Temp\ccd3RvSG.s 			page 134


 5203 0263 0D       		.uleb128 0xd
 5204 0264 04       		.byte	0x4
 5205 0265 69020000 		.4byte	0x269
 5206 0269 13       		.uleb128 0x13
 5207 026a A5000000 		.4byte	0xa5
 5208 026e 0D       		.uleb128 0xd
 5209 026f 04       		.byte	0x4
 5210 0270 74020000 		.4byte	0x274
 5211 0274 13       		.uleb128 0x13
 5212 0275 13010000 		.4byte	0x113
 5213 0279 0A       		.uleb128 0xa
 5214 027a 68010000 		.4byte	.LASF35
 5215 027e 01       		.byte	0x1
 5216 027f D2       		.byte	0xd2
 5217 0280 00000000 		.4byte	.LFB5
 5218 0284 54010000 		.4byte	.LFE5-.LFB5
 5219 0288 01       		.uleb128 0x1
 5220 0289 9C       		.byte	0x9c
 5221 028a AB020000 		.4byte	0x2ab
 5222 028e 12       		.uleb128 0x12
 5223 028f FF010000 		.4byte	.LASF36
 5224 0293 01       		.byte	0x1
 5225 0294 D4       		.byte	0xd4
 5226 0295 A5000000 		.4byte	0xa5
 5227 0299 02       		.uleb128 0x2
 5228 029a 91       		.byte	0x91
 5229 029b 74       		.sleb128 -12
 5230 029c 12       		.uleb128 0x12
 5231 029d 97030000 		.4byte	.LASF37
 5232 02a1 01       		.byte	0x1
 5233 02a2 D5       		.byte	0xd5
 5234 02a3 8D000000 		.4byte	0x8d
 5235 02a7 02       		.uleb128 0x2
 5236 02a8 91       		.byte	0x91
 5237 02a9 73       		.sleb128 -13
 5238 02aa 00       		.byte	0
 5239 02ab 14       		.uleb128 0x14
 5240 02ac 09010000 		.4byte	.LASF38
 5241 02b0 01       		.byte	0x1
 5242 02b1 1D01     		.2byte	0x11d
 5243 02b3 00000000 		.4byte	.LFB6
 5244 02b7 C4000000 		.4byte	.LFE6-.LFB6
 5245 02bb 01       		.uleb128 0x1
 5246 02bc 9C       		.byte	0x9c
 5247 02bd EF020000 		.4byte	0x2ef
 5248 02c1 15       		.uleb128 0x15
 5249 02c2 7A020000 		.4byte	.LASF39
 5250 02c6 01       		.byte	0x1
 5251 02c7 1F01     		.2byte	0x11f
 5252 02c9 8D000000 		.4byte	0x8d
 5253 02cd 02       		.uleb128 0x2
 5254 02ce 91       		.byte	0x91
 5255 02cf 77       		.sleb128 -9
 5256 02d0 16       		.uleb128 0x16
 5257 02d1 63723400 		.ascii	"cr4\000"
 5258 02d5 01       		.byte	0x1
 5259 02d6 2001     		.2byte	0x120
ARM GAS  C:\Users\Admin\AppData\Local\Temp\ccd3RvSG.s 			page 135


 5260 02d8 8D000000 		.4byte	0x8d
 5261 02dc 02       		.uleb128 0x2
 5262 02dd 91       		.byte	0x91
 5263 02de 76       		.sleb128 -10
 5264 02df 16       		.uleb128 0x16
 5265 02e0 63723500 		.ascii	"cr5\000"
 5266 02e4 01       		.byte	0x1
 5267 02e5 2101     		.2byte	0x121
 5268 02e7 8D000000 		.4byte	0x8d
 5269 02eb 02       		.uleb128 0x2
 5270 02ec 91       		.byte	0x91
 5271 02ed 75       		.sleb128 -11
 5272 02ee 00       		.byte	0
 5273 02ef 17       		.uleb128 0x17
 5274 02f0 F5030000 		.4byte	.LASF42
 5275 02f4 01       		.byte	0x1
 5276 02f5 4601     		.2byte	0x146
 5277 02f7 00000000 		.4byte	.LFB7
 5278 02fb 3C000000 		.4byte	.LFE7-.LFB7
 5279 02ff 01       		.uleb128 0x1
 5280 0300 9C       		.byte	0x9c
 5281 0301 24030000 		.4byte	0x324
 5282 0305 18       		.uleb128 0x18
 5283 0306 12040000 		.4byte	.LASF40
 5284 030a 01       		.byte	0x1
 5285 030b 4601     		.2byte	0x146
 5286 030d 8D000000 		.4byte	0x8d
 5287 0311 02       		.uleb128 0x2
 5288 0312 91       		.byte	0x91
 5289 0313 6F       		.sleb128 -17
 5290 0314 15       		.uleb128 0x15
 5291 0315 B7010000 		.4byte	.LASF41
 5292 0319 01       		.byte	0x1
 5293 031a 4801     		.2byte	0x148
 5294 031c 8D000000 		.4byte	0x8d
 5295 0320 02       		.uleb128 0x2
 5296 0321 91       		.byte	0x91
 5297 0322 77       		.sleb128 -9
 5298 0323 00       		.byte	0
 5299 0324 19       		.uleb128 0x19
 5300 0325 75040000 		.4byte	.LASF43
 5301 0329 01       		.byte	0x1
 5302 032a 6901     		.2byte	0x169
 5303 032c 00000000 		.4byte	.LFB8
 5304 0330 FC010000 		.4byte	.LFE8-.LFB8
 5305 0334 01       		.uleb128 0x1
 5306 0335 9C       		.byte	0x9c
 5307 0336 6E050000 		.4byte	0x56e
 5308 033a 15       		.uleb128 0x15
 5309 033b EA020000 		.4byte	.LASF44
 5310 033f 01       		.byte	0x1
 5311 0340 6C01     		.2byte	0x16c
 5312 0342 83050000 		.4byte	0x583
 5313 0346 05       		.uleb128 0x5
 5314 0347 03       		.byte	0x3
 5315 0348 0C0F0000 		.4byte	BS_IOPINS0_0_VAL.5011
 5316 034c 15       		.uleb128 0x15
ARM GAS  C:\Users\Admin\AppData\Local\Temp\ccd3RvSG.s 			page 136


 5317 034d B9000000 		.4byte	.LASF45
 5318 0351 01       		.byte	0x1
 5319 0352 7001     		.2byte	0x170
 5320 0354 88050000 		.4byte	0x588
 5321 0358 05       		.uleb128 0x5
 5322 0359 03       		.byte	0x3
 5323 035a 180F0000 		.4byte	BS_IOPINS0_7_VAL.5012
 5324 035e 15       		.uleb128 0x15
 5325 035f 9F030000 		.4byte	.LASF46
 5326 0363 01       		.byte	0x1
 5327 0364 7401     		.2byte	0x174
 5328 0366 8D050000 		.4byte	0x58d
 5329 036a 05       		.uleb128 0x5
 5330 036b 03       		.byte	0x3
 5331 036c 240F0000 		.4byte	BS_IOPINS0_8_VAL.5013
 5332 0370 15       		.uleb128 0x15
 5333 0371 C0010000 		.4byte	.LASF47
 5334 0375 01       		.byte	0x1
 5335 0376 7801     		.2byte	0x178
 5336 0378 A2050000 		.4byte	0x5a2
 5337 037c 05       		.uleb128 0x5
 5338 037d 03       		.byte	0x3
 5339 037e 300F0000 		.4byte	BS_IOPINS0_1_VAL.5014
 5340 0382 15       		.uleb128 0x15
 5341 0383 54040000 		.4byte	.LASF48
 5342 0387 01       		.byte	0x1
 5343 0388 7C01     		.2byte	0x17c
 5344 038a A7050000 		.4byte	0x5a7
 5345 038e 05       		.uleb128 0x5
 5346 038f 03       		.byte	0x3
 5347 0390 380F0000 		.4byte	BS_IOPINS0_2_VAL.5015
 5348 0394 15       		.uleb128 0x15
 5349 0395 A9020000 		.4byte	.LASF49
 5350 0399 01       		.byte	0x1
 5351 039a 8001     		.2byte	0x180
 5352 039c AC050000 		.4byte	0x5ac
 5353 03a0 05       		.uleb128 0x5
 5354 03a1 03       		.byte	0x3
 5355 03a2 440F0000 		.4byte	BS_IOPINS0_3_VAL.5016
 5356 03a6 15       		.uleb128 0x15
 5357 03a7 7D010000 		.4byte	.LASF50
 5358 03ab 01       		.byte	0x1
 5359 03ac 8401     		.2byte	0x184
 5360 03ae B1050000 		.4byte	0x5b1
 5361 03b2 05       		.uleb128 0x5
 5362 03b3 03       		.byte	0x3
 5363 03b4 500F0000 		.4byte	BS_IOPINS0_4_VAL.5017
 5364 03b8 15       		.uleb128 0x15
 5365 03b9 3E020000 		.4byte	.LASF51
 5366 03bd 01       		.byte	0x1
 5367 03be 8801     		.2byte	0x188
 5368 03c0 B6050000 		.4byte	0x5b6
 5369 03c4 05       		.uleb128 0x5
 5370 03c5 03       		.byte	0x3
 5371 03c6 580F0000 		.4byte	BS_IOPINS0_6_VAL.5018
 5372 03ca 15       		.uleb128 0x15
 5373 03cb C3030000 		.4byte	.LASF52
ARM GAS  C:\Users\Admin\AppData\Local\Temp\ccd3RvSG.s 			page 137


 5374 03cf 01       		.byte	0x1
 5375 03d0 8C01     		.2byte	0x18c
 5376 03d2 CB050000 		.4byte	0x5cb
 5377 03d6 05       		.uleb128 0x5
 5378 03d7 03       		.byte	0x3
 5379 03d8 080F0000 		.4byte	BS_PHUB_CFGMEM1_VAL.5019
 5380 03dc 11       		.uleb128 0x11
 5381 03dd 18000000 		.4byte	.LBB3
 5382 03e1 DA000000 		.4byte	.LBE3-.LBB3
 5383 03e5 15       		.uleb128 0x15
 5384 03e6 4C010000 		.4byte	.LASF53
 5385 03ea 01       		.byte	0x1
 5386 03eb 9801     		.2byte	0x198
 5387 03ed E0050000 		.4byte	0x5e0
 5388 03f1 05       		.uleb128 0x5
 5389 03f2 03       		.byte	0x3
 5390 03f3 44000000 		.4byte	cy_cfg_addr_table.5020
 5391 03f7 15       		.uleb128 0x15
 5392 03f8 F7000000 		.4byte	.LASF54
 5393 03fc 01       		.byte	0x1
 5394 03fd C701     		.2byte	0x1c7
 5395 03ff F6050000 		.4byte	0x5f6
 5396 0403 05       		.uleb128 0x5
 5397 0404 03       		.byte	0x3
 5398 0405 F4000000 		.4byte	cy_cfg_data_table.5021
 5399 0409 1A       		.uleb128 0x1a
 5400 040a 06       		.byte	0x6
 5401 040b 01       		.byte	0x1
 5402 040c D608     		.2byte	0x8d6
 5403 040e 2D040000 		.4byte	0x42d
 5404 0412 1B       		.uleb128 0x1b
 5405 0413 4C040000 		.4byte	.LASF55
 5406 0417 01       		.byte	0x1
 5407 0418 D708     		.2byte	0x8d7
 5408 041a 84000000 		.4byte	0x84
 5409 041e 00       		.byte	0
 5410 041f 1B       		.uleb128 0x1b
 5411 0420 26020000 		.4byte	.LASF56
 5412 0424 01       		.byte	0x1
 5413 0425 D808     		.2byte	0x8d8
 5414 0427 99000000 		.4byte	0x99
 5415 042b 04       		.byte	0x4
 5416 042c 00       		.byte	0
 5417 042d 06       		.uleb128 0x6
 5418 042e 8C020000 		.4byte	.LASF57
 5419 0432 01       		.byte	0x1
 5420 0433 D908     		.2byte	0x8d9
 5421 0435 09040000 		.4byte	0x409
 5422 0439 1A       		.uleb128 0x1a
 5423 043a 0A       		.byte	0xa
 5424 043b 01       		.byte	0x1
 5425 043c DC08     		.2byte	0x8dc
 5426 043e 6A040000 		.4byte	0x46a
 5427 0442 1B       		.uleb128 0x1b
 5428 0443 BA020000 		.4byte	.LASF26
 5429 0447 01       		.byte	0x1
 5430 0448 DD08     		.2byte	0x8dd
ARM GAS  C:\Users\Admin\AppData\Local\Temp\ccd3RvSG.s 			page 138


 5431 044a 84000000 		.4byte	0x84
 5432 044e 00       		.byte	0
 5433 044f 1C       		.uleb128 0x1c
 5434 0450 73726300 		.ascii	"src\000"
 5435 0454 01       		.byte	0x1
 5436 0455 DE08     		.2byte	0x8de
 5437 0457 8A010000 		.4byte	0x18a
 5438 045b 04       		.byte	0x4
 5439 045c 1B       		.uleb128 0x1b
 5440 045d 26020000 		.4byte	.LASF56
 5441 0461 01       		.byte	0x1
 5442 0462 DF08     		.2byte	0x8df
 5443 0464 99000000 		.4byte	0x99
 5444 0468 08       		.byte	0x8
 5445 0469 00       		.byte	0
 5446 046a 06       		.uleb128 0x6
 5447 046b 07020000 		.4byte	.LASF58
 5448 046f 01       		.byte	0x1
 5449 0470 E008     		.2byte	0x8e0
 5450 0472 39040000 		.4byte	0x439
 5451 0476 1D       		.uleb128 0x1d
 5452 0477 86040000 		.4byte	0x486
 5453 047b 86040000 		.4byte	0x486
 5454 047f 1E       		.uleb128 0x1e
 5455 0480 7D000000 		.4byte	0x7d
 5456 0484 07       		.byte	0x7
 5457 0485 00       		.byte	0
 5458 0486 13       		.uleb128 0x13
 5459 0487 2D040000 		.4byte	0x42d
 5460 048b 15       		.uleb128 0x15
 5461 048c 99020000 		.4byte	.LASF59
 5462 0490 01       		.byte	0x1
 5463 0491 E208     		.2byte	0x8e2
 5464 0493 9D040000 		.4byte	0x49d
 5465 0497 05       		.uleb128 0x5
 5466 0498 03       		.byte	0x3
 5467 0499 00000000 		.4byte	cfg_memset_list.5031
 5468 049d 13       		.uleb128 0x13
 5469 049e 76040000 		.4byte	0x476
 5470 04a2 15       		.uleb128 0x15
 5471 04a3 1A010000 		.4byte	.LASF60
 5472 04a7 01       		.byte	0x1
 5473 04a8 EF08     		.2byte	0x8ef
 5474 04aa 0B060000 		.4byte	0x60b
 5475 04ae 05       		.uleb128 0x5
 5476 04af 03       		.byte	0x3
 5477 04b0 740F0000 		.4byte	BS_UDB_1_3_1_CONFIG_VAL.5032
 5478 04b4 15       		.uleb128 0x15
 5479 04b5 E3030000 		.4byte	.LASF61
 5480 04b9 01       		.byte	0x1
 5481 04ba FA08     		.2byte	0x8fa
 5482 04bc 20060000 		.4byte	0x620
 5483 04c0 05       		.uleb128 0x5
 5484 04c1 03       		.byte	0x3
 5485 04c2 640F0000 		.4byte	BS_UCFG_BCTL0_VAL.5033
 5486 04c6 1D       		.uleb128 0x1d
 5487 04c7 D6040000 		.4byte	0x4d6
ARM GAS  C:\Users\Admin\AppData\Local\Temp\ccd3RvSG.s 			page 139


 5488 04cb D6040000 		.4byte	0x4d6
 5489 04cf 1E       		.uleb128 0x1e
 5490 04d0 7D000000 		.4byte	0x7d
 5491 04d4 01       		.byte	0x1
 5492 04d5 00       		.byte	0
 5493 04d6 13       		.uleb128 0x13
 5494 04d7 6A040000 		.4byte	0x46a
 5495 04db 15       		.uleb128 0x15
 5496 04dc 65040000 		.4byte	.LASF62
 5497 04e0 01       		.byte	0x1
 5498 04e1 FD08     		.2byte	0x8fd
 5499 04e3 ED040000 		.4byte	0x4ed
 5500 04e7 05       		.uleb128 0x5
 5501 04e8 03       		.byte	0x3
 5502 04e9 30000000 		.4byte	cfg_memcpy_list.5034
 5503 04ed 13       		.uleb128 0x13
 5504 04ee C6040000 		.4byte	0x4c6
 5505 04f2 16       		.uleb128 0x16
 5506 04f3 6900     		.ascii	"i\000"
 5507 04f5 01       		.byte	0x1
 5508 04f6 0309     		.2byte	0x903
 5509 04f8 8D000000 		.4byte	0x8d
 5510 04fc 02       		.uleb128 0x2
 5511 04fd 91       		.byte	0x91
 5512 04fe 77       		.sleb128 -9
 5513 04ff 1F       		.uleb128 0x1f
 5514 0500 1E000000 		.4byte	.LBB4
 5515 0504 22000000 		.4byte	.LBE4-.LBB4
 5516 0508 21050000 		.4byte	0x521
 5517 050c 16       		.uleb128 0x16
 5518 050d 6D7300   		.ascii	"ms\000"
 5519 0510 01       		.byte	0x1
 5520 0511 0809     		.2byte	0x908
 5521 0513 1A050000 		.4byte	0x51a
 5522 0517 02       		.uleb128 0x2
 5523 0518 91       		.byte	0x91
 5524 0519 70       		.sleb128 -16
 5525 051a 0D       		.uleb128 0xd
 5526 051b 04       		.byte	0x4
 5527 051c 86040000 		.4byte	0x486
 5528 0520 00       		.byte	0
 5529 0521 11       		.uleb128 0x11
 5530 0522 52000000 		.4byte	.LBB5
 5531 0526 34000000 		.4byte	.LBE5-.LBB5
 5532 052a 16       		.uleb128 0x16
 5533 052b 6D6300   		.ascii	"mc\000"
 5534 052e 01       		.byte	0x1
 5535 052f 0F09     		.2byte	0x90f
 5536 0531 38050000 		.4byte	0x538
 5537 0535 02       		.uleb128 0x2
 5538 0536 91       		.byte	0x91
 5539 0537 6C       		.sleb128 -20
 5540 0538 0D       		.uleb128 0xd
 5541 0539 04       		.byte	0x4
 5542 053a D6040000 		.4byte	0x4d6
 5543 053e 15       		.uleb128 0x15
 5544 053f C5020000 		.4byte	.LASF63
ARM GAS  C:\Users\Admin\AppData\Local\Temp\ccd3RvSG.s 			page 140


 5545 0543 01       		.byte	0x1
 5546 0544 1009     		.2byte	0x910
 5547 0546 84000000 		.4byte	0x84
 5548 054a 02       		.uleb128 0x2
 5549 054b 91       		.byte	0x91
 5550 054c 68       		.sleb128 -24
 5551 054d 15       		.uleb128 0x15
 5552 054e DC030000 		.4byte	.LASF64
 5553 0552 01       		.byte	0x1
 5554 0553 1109     		.2byte	0x911
 5555 0555 8A010000 		.4byte	0x18a
 5556 0559 02       		.uleb128 0x2
 5557 055a 91       		.byte	0x91
 5558 055b 64       		.sleb128 -28
 5559 055c 15       		.uleb128 0x15
 5560 055d E4010000 		.4byte	.LASF65
 5561 0561 01       		.byte	0x1
 5562 0562 1209     		.2byte	0x912
 5563 0564 99000000 		.4byte	0x99
 5564 0568 02       		.uleb128 0x2
 5565 0569 91       		.byte	0x91
 5566 056a 62       		.sleb128 -30
 5567 056b 00       		.byte	0
 5568 056c 00       		.byte	0
 5569 056d 00       		.byte	0
 5570 056e 1D       		.uleb128 0x1d
 5571 056f 7E050000 		.4byte	0x57e
 5572 0573 7E050000 		.4byte	0x57e
 5573 0577 1E       		.uleb128 0x1e
 5574 0578 7D000000 		.4byte	0x7d
 5575 057c 09       		.byte	0x9
 5576 057d 00       		.byte	0
 5577 057e 13       		.uleb128 0x13
 5578 057f 8D000000 		.4byte	0x8d
 5579 0583 13       		.uleb128 0x13
 5580 0584 6E050000 		.4byte	0x56e
 5581 0588 13       		.uleb128 0x13
 5582 0589 6E050000 		.4byte	0x56e
 5583 058d 13       		.uleb128 0x13
 5584 058e 6E050000 		.4byte	0x56e
 5585 0592 1D       		.uleb128 0x1d
 5586 0593 7E050000 		.4byte	0x57e
 5587 0597 A2050000 		.4byte	0x5a2
 5588 059b 1E       		.uleb128 0x1e
 5589 059c 7D000000 		.4byte	0x7d
 5590 05a0 07       		.byte	0x7
 5591 05a1 00       		.byte	0
 5592 05a2 13       		.uleb128 0x13
 5593 05a3 92050000 		.4byte	0x592
 5594 05a7 13       		.uleb128 0x13
 5595 05a8 6E050000 		.4byte	0x56e
 5596 05ac 13       		.uleb128 0x13
 5597 05ad 6E050000 		.4byte	0x56e
 5598 05b1 13       		.uleb128 0x13
 5599 05b2 92050000 		.4byte	0x592
 5600 05b6 13       		.uleb128 0x13
 5601 05b7 6E050000 		.4byte	0x56e
ARM GAS  C:\Users\Admin\AppData\Local\Temp\ccd3RvSG.s 			page 141


 5602 05bb 1D       		.uleb128 0x1d
 5603 05bc 7E050000 		.4byte	0x57e
 5604 05c0 CB050000 		.4byte	0x5cb
 5605 05c4 1E       		.uleb128 0x1e
 5606 05c5 7D000000 		.4byte	0x7d
 5607 05c9 03       		.byte	0x3
 5608 05ca 00       		.byte	0
 5609 05cb 13       		.uleb128 0x13
 5610 05cc BB050000 		.4byte	0x5bb
 5611 05d0 1D       		.uleb128 0x1d
 5612 05d1 69020000 		.4byte	0x269
 5613 05d5 E0050000 		.4byte	0x5e0
 5614 05d9 1E       		.uleb128 0x1e
 5615 05da 7D000000 		.4byte	0x7d
 5616 05de 2B       		.byte	0x2b
 5617 05df 00       		.byte	0
 5618 05e0 13       		.uleb128 0x13
 5619 05e1 D0050000 		.4byte	0x5d0
 5620 05e5 1D       		.uleb128 0x1d
 5621 05e6 74020000 		.4byte	0x274
 5622 05ea F6050000 		.4byte	0x5f6
 5623 05ee 20       		.uleb128 0x20
 5624 05ef 7D000000 		.4byte	0x7d
 5625 05f3 0907     		.2byte	0x709
 5626 05f5 00       		.byte	0
 5627 05f6 13       		.uleb128 0x13
 5628 05f7 E5050000 		.4byte	0x5e5
 5629 05fb 1D       		.uleb128 0x1d
 5630 05fc 7E050000 		.4byte	0x57e
 5631 0600 0B060000 		.4byte	0x60b
 5632 0604 1E       		.uleb128 0x1e
 5633 0605 7D000000 		.4byte	0x7d
 5634 0609 7F       		.byte	0x7f
 5635 060a 00       		.byte	0
 5636 060b 13       		.uleb128 0x13
 5637 060c FB050000 		.4byte	0x5fb
 5638 0610 1D       		.uleb128 0x1d
 5639 0611 7E050000 		.4byte	0x57e
 5640 0615 20060000 		.4byte	0x620
 5641 0619 1E       		.uleb128 0x1e
 5642 061a 7D000000 		.4byte	0x7d
 5643 061e 0F       		.byte	0xf
 5644 061f 00       		.byte	0
 5645 0620 13       		.uleb128 0x13
 5646 0621 10060000 		.4byte	0x610
 5647 0625 00       		.byte	0
 5648              		.section	.debug_abbrev,"",%progbits
 5649              	.Ldebug_abbrev0:
 5650 0000 01       		.uleb128 0x1
 5651 0001 11       		.uleb128 0x11
 5652 0002 01       		.byte	0x1
 5653 0003 25       		.uleb128 0x25
 5654 0004 0E       		.uleb128 0xe
 5655 0005 13       		.uleb128 0x13
 5656 0006 0B       		.uleb128 0xb
 5657 0007 03       		.uleb128 0x3
 5658 0008 0E       		.uleb128 0xe
ARM GAS  C:\Users\Admin\AppData\Local\Temp\ccd3RvSG.s 			page 142


 5659 0009 1B       		.uleb128 0x1b
 5660 000a 0E       		.uleb128 0xe
 5661 000b 55       		.uleb128 0x55
 5662 000c 17       		.uleb128 0x17
 5663 000d 11       		.uleb128 0x11
 5664 000e 01       		.uleb128 0x1
 5665 000f 10       		.uleb128 0x10
 5666 0010 17       		.uleb128 0x17
 5667 0011 00       		.byte	0
 5668 0012 00       		.byte	0
 5669 0013 02       		.uleb128 0x2
 5670 0014 24       		.uleb128 0x24
 5671 0015 00       		.byte	0
 5672 0016 0B       		.uleb128 0xb
 5673 0017 0B       		.uleb128 0xb
 5674 0018 3E       		.uleb128 0x3e
 5675 0019 0B       		.uleb128 0xb
 5676 001a 03       		.uleb128 0x3
 5677 001b 08       		.uleb128 0x8
 5678 001c 00       		.byte	0
 5679 001d 00       		.byte	0
 5680 001e 03       		.uleb128 0x3
 5681 001f 16       		.uleb128 0x16
 5682 0020 00       		.byte	0
 5683 0021 03       		.uleb128 0x3
 5684 0022 0E       		.uleb128 0xe
 5685 0023 3A       		.uleb128 0x3a
 5686 0024 0B       		.uleb128 0xb
 5687 0025 3B       		.uleb128 0x3b
 5688 0026 0B       		.uleb128 0xb
 5689 0027 49       		.uleb128 0x49
 5690 0028 13       		.uleb128 0x13
 5691 0029 00       		.byte	0
 5692 002a 00       		.byte	0
 5693 002b 04       		.uleb128 0x4
 5694 002c 24       		.uleb128 0x24
 5695 002d 00       		.byte	0
 5696 002e 0B       		.uleb128 0xb
 5697 002f 0B       		.uleb128 0xb
 5698 0030 3E       		.uleb128 0x3e
 5699 0031 0B       		.uleb128 0xb
 5700 0032 03       		.uleb128 0x3
 5701 0033 0E       		.uleb128 0xe
 5702 0034 00       		.byte	0
 5703 0035 00       		.byte	0
 5704 0036 05       		.uleb128 0x5
 5705 0037 0F       		.uleb128 0xf
 5706 0038 00       		.byte	0
 5707 0039 0B       		.uleb128 0xb
 5708 003a 0B       		.uleb128 0xb
 5709 003b 00       		.byte	0
 5710 003c 00       		.byte	0
 5711 003d 06       		.uleb128 0x6
 5712 003e 16       		.uleb128 0x16
 5713 003f 00       		.byte	0
 5714 0040 03       		.uleb128 0x3
 5715 0041 0E       		.uleb128 0xe
ARM GAS  C:\Users\Admin\AppData\Local\Temp\ccd3RvSG.s 			page 143


 5716 0042 3A       		.uleb128 0x3a
 5717 0043 0B       		.uleb128 0xb
 5718 0044 3B       		.uleb128 0x3b
 5719 0045 05       		.uleb128 0x5
 5720 0046 49       		.uleb128 0x49
 5721 0047 13       		.uleb128 0x13
 5722 0048 00       		.byte	0
 5723 0049 00       		.byte	0
 5724 004a 07       		.uleb128 0x7
 5725 004b 35       		.uleb128 0x35
 5726 004c 00       		.byte	0
 5727 004d 49       		.uleb128 0x49
 5728 004e 13       		.uleb128 0x13
 5729 004f 00       		.byte	0
 5730 0050 00       		.byte	0
 5731 0051 08       		.uleb128 0x8
 5732 0052 13       		.uleb128 0x13
 5733 0053 01       		.byte	0x1
 5734 0054 0B       		.uleb128 0xb
 5735 0055 0B       		.uleb128 0xb
 5736 0056 3A       		.uleb128 0x3a
 5737 0057 0B       		.uleb128 0xb
 5738 0058 3B       		.uleb128 0x3b
 5739 0059 0B       		.uleb128 0xb
 5740 005a 01       		.uleb128 0x1
 5741 005b 13       		.uleb128 0x13
 5742 005c 00       		.byte	0
 5743 005d 00       		.byte	0
 5744 005e 09       		.uleb128 0x9
 5745 005f 0D       		.uleb128 0xd
 5746 0060 00       		.byte	0
 5747 0061 03       		.uleb128 0x3
 5748 0062 0E       		.uleb128 0xe
 5749 0063 3A       		.uleb128 0x3a
 5750 0064 0B       		.uleb128 0xb
 5751 0065 3B       		.uleb128 0x3b
 5752 0066 0B       		.uleb128 0xb
 5753 0067 49       		.uleb128 0x49
 5754 0068 13       		.uleb128 0x13
 5755 0069 38       		.uleb128 0x38
 5756 006a 0B       		.uleb128 0xb
 5757 006b 00       		.byte	0
 5758 006c 00       		.byte	0
 5759 006d 0A       		.uleb128 0xa
 5760 006e 2E       		.uleb128 0x2e
 5761 006f 01       		.byte	0x1
 5762 0070 03       		.uleb128 0x3
 5763 0071 0E       		.uleb128 0xe
 5764 0072 3A       		.uleb128 0x3a
 5765 0073 0B       		.uleb128 0xb
 5766 0074 3B       		.uleb128 0x3b
 5767 0075 0B       		.uleb128 0xb
 5768 0076 27       		.uleb128 0x27
 5769 0077 19       		.uleb128 0x19
 5770 0078 11       		.uleb128 0x11
 5771 0079 01       		.uleb128 0x1
 5772 007a 12       		.uleb128 0x12
ARM GAS  C:\Users\Admin\AppData\Local\Temp\ccd3RvSG.s 			page 144


 5773 007b 06       		.uleb128 0x6
 5774 007c 40       		.uleb128 0x40
 5775 007d 18       		.uleb128 0x18
 5776 007e 9642     		.uleb128 0x2116
 5777 0080 19       		.uleb128 0x19
 5778 0081 01       		.uleb128 0x1
 5779 0082 13       		.uleb128 0x13
 5780 0083 00       		.byte	0
 5781 0084 00       		.byte	0
 5782 0085 0B       		.uleb128 0xb
 5783 0086 05       		.uleb128 0x5
 5784 0087 00       		.byte	0
 5785 0088 03       		.uleb128 0x3
 5786 0089 08       		.uleb128 0x8
 5787 008a 3A       		.uleb128 0x3a
 5788 008b 0B       		.uleb128 0xb
 5789 008c 3B       		.uleb128 0x3b
 5790 008d 0B       		.uleb128 0xb
 5791 008e 49       		.uleb128 0x49
 5792 008f 13       		.uleb128 0x13
 5793 0090 02       		.uleb128 0x2
 5794 0091 18       		.uleb128 0x18
 5795 0092 00       		.byte	0
 5796 0093 00       		.byte	0
 5797 0094 0C       		.uleb128 0xc
 5798 0095 05       		.uleb128 0x5
 5799 0096 00       		.byte	0
 5800 0097 03       		.uleb128 0x3
 5801 0098 0E       		.uleb128 0xe
 5802 0099 3A       		.uleb128 0x3a
 5803 009a 0B       		.uleb128 0xb
 5804 009b 3B       		.uleb128 0x3b
 5805 009c 0B       		.uleb128 0xb
 5806 009d 49       		.uleb128 0x49
 5807 009e 13       		.uleb128 0x13
 5808 009f 02       		.uleb128 0x2
 5809 00a0 18       		.uleb128 0x18
 5810 00a1 00       		.byte	0
 5811 00a2 00       		.byte	0
 5812 00a3 0D       		.uleb128 0xd
 5813 00a4 0F       		.uleb128 0xf
 5814 00a5 00       		.byte	0
 5815 00a6 0B       		.uleb128 0xb
 5816 00a7 0B       		.uleb128 0xb
 5817 00a8 49       		.uleb128 0x49
 5818 00a9 13       		.uleb128 0x13
 5819 00aa 00       		.byte	0
 5820 00ab 00       		.byte	0
 5821 00ac 0E       		.uleb128 0xe
 5822 00ad 26       		.uleb128 0x26
 5823 00ae 00       		.byte	0
 5824 00af 00       		.byte	0
 5825 00b0 00       		.byte	0
 5826 00b1 0F       		.uleb128 0xf
 5827 00b2 2E       		.uleb128 0x2e
 5828 00b3 01       		.byte	0x1
 5829 00b4 03       		.uleb128 0x3
ARM GAS  C:\Users\Admin\AppData\Local\Temp\ccd3RvSG.s 			page 145


 5830 00b5 0E       		.uleb128 0xe
 5831 00b6 3A       		.uleb128 0x3a
 5832 00b7 0B       		.uleb128 0xb
 5833 00b8 3B       		.uleb128 0x3b
 5834 00b9 0B       		.uleb128 0xb
 5835 00ba 27       		.uleb128 0x27
 5836 00bb 19       		.uleb128 0x19
 5837 00bc 11       		.uleb128 0x11
 5838 00bd 01       		.uleb128 0x1
 5839 00be 12       		.uleb128 0x12
 5840 00bf 06       		.uleb128 0x6
 5841 00c0 40       		.uleb128 0x40
 5842 00c1 18       		.uleb128 0x18
 5843 00c2 9742     		.uleb128 0x2117
 5844 00c4 19       		.uleb128 0x19
 5845 00c5 01       		.uleb128 0x1
 5846 00c6 13       		.uleb128 0x13
 5847 00c7 00       		.byte	0
 5848 00c8 00       		.byte	0
 5849 00c9 10       		.uleb128 0x10
 5850 00ca 34       		.uleb128 0x34
 5851 00cb 00       		.byte	0
 5852 00cc 03       		.uleb128 0x3
 5853 00cd 08       		.uleb128 0x8
 5854 00ce 3A       		.uleb128 0x3a
 5855 00cf 0B       		.uleb128 0xb
 5856 00d0 3B       		.uleb128 0x3b
 5857 00d1 0B       		.uleb128 0xb
 5858 00d2 49       		.uleb128 0x49
 5859 00d3 13       		.uleb128 0x13
 5860 00d4 02       		.uleb128 0x2
 5861 00d5 18       		.uleb128 0x18
 5862 00d6 00       		.byte	0
 5863 00d7 00       		.byte	0
 5864 00d8 11       		.uleb128 0x11
 5865 00d9 0B       		.uleb128 0xb
 5866 00da 01       		.byte	0x1
 5867 00db 11       		.uleb128 0x11
 5868 00dc 01       		.uleb128 0x1
 5869 00dd 12       		.uleb128 0x12
 5870 00de 06       		.uleb128 0x6
 5871 00df 00       		.byte	0
 5872 00e0 00       		.byte	0
 5873 00e1 12       		.uleb128 0x12
 5874 00e2 34       		.uleb128 0x34
 5875 00e3 00       		.byte	0
 5876 00e4 03       		.uleb128 0x3
 5877 00e5 0E       		.uleb128 0xe
 5878 00e6 3A       		.uleb128 0x3a
 5879 00e7 0B       		.uleb128 0xb
 5880 00e8 3B       		.uleb128 0x3b
 5881 00e9 0B       		.uleb128 0xb
 5882 00ea 49       		.uleb128 0x49
 5883 00eb 13       		.uleb128 0x13
 5884 00ec 02       		.uleb128 0x2
 5885 00ed 18       		.uleb128 0x18
 5886 00ee 00       		.byte	0
ARM GAS  C:\Users\Admin\AppData\Local\Temp\ccd3RvSG.s 			page 146


 5887 00ef 00       		.byte	0
 5888 00f0 13       		.uleb128 0x13
 5889 00f1 26       		.uleb128 0x26
 5890 00f2 00       		.byte	0
 5891 00f3 49       		.uleb128 0x49
 5892 00f4 13       		.uleb128 0x13
 5893 00f5 00       		.byte	0
 5894 00f6 00       		.byte	0
 5895 00f7 14       		.uleb128 0x14
 5896 00f8 2E       		.uleb128 0x2e
 5897 00f9 01       		.byte	0x1
 5898 00fa 03       		.uleb128 0x3
 5899 00fb 0E       		.uleb128 0xe
 5900 00fc 3A       		.uleb128 0x3a
 5901 00fd 0B       		.uleb128 0xb
 5902 00fe 3B       		.uleb128 0x3b
 5903 00ff 05       		.uleb128 0x5
 5904 0100 27       		.uleb128 0x27
 5905 0101 19       		.uleb128 0x19
 5906 0102 11       		.uleb128 0x11
 5907 0103 01       		.uleb128 0x1
 5908 0104 12       		.uleb128 0x12
 5909 0105 06       		.uleb128 0x6
 5910 0106 40       		.uleb128 0x40
 5911 0107 18       		.uleb128 0x18
 5912 0108 9642     		.uleb128 0x2116
 5913 010a 19       		.uleb128 0x19
 5914 010b 01       		.uleb128 0x1
 5915 010c 13       		.uleb128 0x13
 5916 010d 00       		.byte	0
 5917 010e 00       		.byte	0
 5918 010f 15       		.uleb128 0x15
 5919 0110 34       		.uleb128 0x34
 5920 0111 00       		.byte	0
 5921 0112 03       		.uleb128 0x3
 5922 0113 0E       		.uleb128 0xe
 5923 0114 3A       		.uleb128 0x3a
 5924 0115 0B       		.uleb128 0xb
 5925 0116 3B       		.uleb128 0x3b
 5926 0117 05       		.uleb128 0x5
 5927 0118 49       		.uleb128 0x49
 5928 0119 13       		.uleb128 0x13
 5929 011a 02       		.uleb128 0x2
 5930 011b 18       		.uleb128 0x18
 5931 011c 00       		.byte	0
 5932 011d 00       		.byte	0
 5933 011e 16       		.uleb128 0x16
 5934 011f 34       		.uleb128 0x34
 5935 0120 00       		.byte	0
 5936 0121 03       		.uleb128 0x3
 5937 0122 08       		.uleb128 0x8
 5938 0123 3A       		.uleb128 0x3a
 5939 0124 0B       		.uleb128 0xb
 5940 0125 3B       		.uleb128 0x3b
 5941 0126 05       		.uleb128 0x5
 5942 0127 49       		.uleb128 0x49
 5943 0128 13       		.uleb128 0x13
ARM GAS  C:\Users\Admin\AppData\Local\Temp\ccd3RvSG.s 			page 147


 5944 0129 02       		.uleb128 0x2
 5945 012a 18       		.uleb128 0x18
 5946 012b 00       		.byte	0
 5947 012c 00       		.byte	0
 5948 012d 17       		.uleb128 0x17
 5949 012e 2E       		.uleb128 0x2e
 5950 012f 01       		.byte	0x1
 5951 0130 3F       		.uleb128 0x3f
 5952 0131 19       		.uleb128 0x19
 5953 0132 03       		.uleb128 0x3
 5954 0133 0E       		.uleb128 0xe
 5955 0134 3A       		.uleb128 0x3a
 5956 0135 0B       		.uleb128 0xb
 5957 0136 3B       		.uleb128 0x3b
 5958 0137 05       		.uleb128 0x5
 5959 0138 27       		.uleb128 0x27
 5960 0139 19       		.uleb128 0x19
 5961 013a 11       		.uleb128 0x11
 5962 013b 01       		.uleb128 0x1
 5963 013c 12       		.uleb128 0x12
 5964 013d 06       		.uleb128 0x6
 5965 013e 40       		.uleb128 0x40
 5966 013f 18       		.uleb128 0x18
 5967 0140 9742     		.uleb128 0x2117
 5968 0142 19       		.uleb128 0x19
 5969 0143 01       		.uleb128 0x1
 5970 0144 13       		.uleb128 0x13
 5971 0145 00       		.byte	0
 5972 0146 00       		.byte	0
 5973 0147 18       		.uleb128 0x18
 5974 0148 05       		.uleb128 0x5
 5975 0149 00       		.byte	0
 5976 014a 03       		.uleb128 0x3
 5977 014b 0E       		.uleb128 0xe
 5978 014c 3A       		.uleb128 0x3a
 5979 014d 0B       		.uleb128 0xb
 5980 014e 3B       		.uleb128 0x3b
 5981 014f 05       		.uleb128 0x5
 5982 0150 49       		.uleb128 0x49
 5983 0151 13       		.uleb128 0x13
 5984 0152 02       		.uleb128 0x2
 5985 0153 18       		.uleb128 0x18
 5986 0154 00       		.byte	0
 5987 0155 00       		.byte	0
 5988 0156 19       		.uleb128 0x19
 5989 0157 2E       		.uleb128 0x2e
 5990 0158 01       		.byte	0x1
 5991 0159 3F       		.uleb128 0x3f
 5992 015a 19       		.uleb128 0x19
 5993 015b 03       		.uleb128 0x3
 5994 015c 0E       		.uleb128 0xe
 5995 015d 3A       		.uleb128 0x3a
 5996 015e 0B       		.uleb128 0xb
 5997 015f 3B       		.uleb128 0x3b
 5998 0160 05       		.uleb128 0x5
 5999 0161 27       		.uleb128 0x27
 6000 0162 19       		.uleb128 0x19
ARM GAS  C:\Users\Admin\AppData\Local\Temp\ccd3RvSG.s 			page 148


 6001 0163 11       		.uleb128 0x11
 6002 0164 01       		.uleb128 0x1
 6003 0165 12       		.uleb128 0x12
 6004 0166 06       		.uleb128 0x6
 6005 0167 40       		.uleb128 0x40
 6006 0168 18       		.uleb128 0x18
 6007 0169 9642     		.uleb128 0x2116
 6008 016b 19       		.uleb128 0x19
 6009 016c 01       		.uleb128 0x1
 6010 016d 13       		.uleb128 0x13
 6011 016e 00       		.byte	0
 6012 016f 00       		.byte	0
 6013 0170 1A       		.uleb128 0x1a
 6014 0171 13       		.uleb128 0x13
 6015 0172 01       		.byte	0x1
 6016 0173 0B       		.uleb128 0xb
 6017 0174 0B       		.uleb128 0xb
 6018 0175 3A       		.uleb128 0x3a
 6019 0176 0B       		.uleb128 0xb
 6020 0177 3B       		.uleb128 0x3b
 6021 0178 05       		.uleb128 0x5
 6022 0179 01       		.uleb128 0x1
 6023 017a 13       		.uleb128 0x13
 6024 017b 00       		.byte	0
 6025 017c 00       		.byte	0
 6026 017d 1B       		.uleb128 0x1b
 6027 017e 0D       		.uleb128 0xd
 6028 017f 00       		.byte	0
 6029 0180 03       		.uleb128 0x3
 6030 0181 0E       		.uleb128 0xe
 6031 0182 3A       		.uleb128 0x3a
 6032 0183 0B       		.uleb128 0xb
 6033 0184 3B       		.uleb128 0x3b
 6034 0185 05       		.uleb128 0x5
 6035 0186 49       		.uleb128 0x49
 6036 0187 13       		.uleb128 0x13
 6037 0188 38       		.uleb128 0x38
 6038 0189 0B       		.uleb128 0xb
 6039 018a 00       		.byte	0
 6040 018b 00       		.byte	0
 6041 018c 1C       		.uleb128 0x1c
 6042 018d 0D       		.uleb128 0xd
 6043 018e 00       		.byte	0
 6044 018f 03       		.uleb128 0x3
 6045 0190 08       		.uleb128 0x8
 6046 0191 3A       		.uleb128 0x3a
 6047 0192 0B       		.uleb128 0xb
 6048 0193 3B       		.uleb128 0x3b
 6049 0194 05       		.uleb128 0x5
 6050 0195 49       		.uleb128 0x49
 6051 0196 13       		.uleb128 0x13
 6052 0197 38       		.uleb128 0x38
 6053 0198 0B       		.uleb128 0xb
 6054 0199 00       		.byte	0
 6055 019a 00       		.byte	0
 6056 019b 1D       		.uleb128 0x1d
 6057 019c 01       		.uleb128 0x1
ARM GAS  C:\Users\Admin\AppData\Local\Temp\ccd3RvSG.s 			page 149


 6058 019d 01       		.byte	0x1
 6059 019e 49       		.uleb128 0x49
 6060 019f 13       		.uleb128 0x13
 6061 01a0 01       		.uleb128 0x1
 6062 01a1 13       		.uleb128 0x13
 6063 01a2 00       		.byte	0
 6064 01a3 00       		.byte	0
 6065 01a4 1E       		.uleb128 0x1e
 6066 01a5 21       		.uleb128 0x21
 6067 01a6 00       		.byte	0
 6068 01a7 49       		.uleb128 0x49
 6069 01a8 13       		.uleb128 0x13
 6070 01a9 2F       		.uleb128 0x2f
 6071 01aa 0B       		.uleb128 0xb
 6072 01ab 00       		.byte	0
 6073 01ac 00       		.byte	0
 6074 01ad 1F       		.uleb128 0x1f
 6075 01ae 0B       		.uleb128 0xb
 6076 01af 01       		.byte	0x1
 6077 01b0 11       		.uleb128 0x11
 6078 01b1 01       		.uleb128 0x1
 6079 01b2 12       		.uleb128 0x12
 6080 01b3 06       		.uleb128 0x6
 6081 01b4 01       		.uleb128 0x1
 6082 01b5 13       		.uleb128 0x13
 6083 01b6 00       		.byte	0
 6084 01b7 00       		.byte	0
 6085 01b8 20       		.uleb128 0x20
 6086 01b9 21       		.uleb128 0x21
 6087 01ba 00       		.byte	0
 6088 01bb 49       		.uleb128 0x49
 6089 01bc 13       		.uleb128 0x13
 6090 01bd 2F       		.uleb128 0x2f
 6091 01be 05       		.uleb128 0x5
 6092 01bf 00       		.byte	0
 6093 01c0 00       		.byte	0
 6094 01c1 00       		.byte	0
 6095              		.section	.debug_aranges,"",%progbits
 6096 0000 5C000000 		.4byte	0x5c
 6097 0004 0200     		.2byte	0x2
 6098 0006 00000000 		.4byte	.Ldebug_info0
 6099 000a 04       		.byte	0x4
 6100 000b 00       		.byte	0
 6101 000c 0000     		.2byte	0
 6102 000e 0000     		.2byte	0
 6103 0010 00000000 		.4byte	.LFB0
 6104 0014 1C000000 		.4byte	.LFE0-.LFB0
 6105 0018 00000000 		.4byte	.LFB1
 6106 001c 1E000000 		.4byte	.LFE1-.LFB1
 6107 0020 00000000 		.4byte	.LFB2
 6108 0024 1E000000 		.4byte	.LFE2-.LFB2
 6109 0028 00000000 		.4byte	.LFB3
 6110 002c 0C000000 		.4byte	.LFE3-.LFB3
 6111 0030 00000000 		.4byte	.LFB4
 6112 0034 74000000 		.4byte	.LFE4-.LFB4
 6113 0038 00000000 		.4byte	.LFB5
 6114 003c 54010000 		.4byte	.LFE5-.LFB5
ARM GAS  C:\Users\Admin\AppData\Local\Temp\ccd3RvSG.s 			page 150


 6115 0040 00000000 		.4byte	.LFB6
 6116 0044 C4000000 		.4byte	.LFE6-.LFB6
 6117 0048 00000000 		.4byte	.LFB7
 6118 004c 3C000000 		.4byte	.LFE7-.LFB7
 6119 0050 00000000 		.4byte	.LFB8
 6120 0054 FC010000 		.4byte	.LFE8-.LFB8
 6121 0058 00000000 		.4byte	0
 6122 005c 00000000 		.4byte	0
 6123              		.section	.debug_ranges,"",%progbits
 6124              	.Ldebug_ranges0:
 6125 0000 00000000 		.4byte	.LFB0
 6126 0004 1C000000 		.4byte	.LFE0
 6127 0008 00000000 		.4byte	.LFB1
 6128 000c 1E000000 		.4byte	.LFE1
 6129 0010 00000000 		.4byte	.LFB2
 6130 0014 1E000000 		.4byte	.LFE2
 6131 0018 00000000 		.4byte	.LFB3
 6132 001c 0C000000 		.4byte	.LFE3
 6133 0020 00000000 		.4byte	.LFB4
 6134 0024 74000000 		.4byte	.LFE4
 6135 0028 00000000 		.4byte	.LFB5
 6136 002c 54010000 		.4byte	.LFE5
 6137 0030 00000000 		.4byte	.LFB6
 6138 0034 C4000000 		.4byte	.LFE6
 6139 0038 00000000 		.4byte	.LFB7
 6140 003c 3C000000 		.4byte	.LFE7
 6141 0040 00000000 		.4byte	.LFB8
 6142 0044 FC010000 		.4byte	.LFE8
 6143 0048 00000000 		.4byte	0
 6144 004c 00000000 		.4byte	0
 6145              		.section	.debug_line,"",%progbits
 6146              	.Ldebug_line0:
 6147 0000 36020000 		.section	.debug_str,"MS",%progbits,1
 6147      0200CB00 
 6147      00000201 
 6147      FB0E0D00 
 6147      01010101 
 6148              	.LASF14:
 6149 0000 75696E74 		.ascii	"uint16\000"
 6149      313600
 6150              	.LASF33:
 6151 0007 62617365 		.ascii	"baseAddr\000"
 6151      41646472 
 6151      00
 6152              	.LASF12:
 6153 0010 73697A65 		.ascii	"size_t\000"
 6153      5F7400
 6154              	.LASF28:
 6155 0017 4379436C 		.ascii	"CyClockStartupError\000"
 6155      6F636B53 
 6155      74617274 
 6155      75704572 
 6155      726F7200 
 6156              	.LASF66:
 6157 002b 474E5520 		.ascii	"GNU C11 5.4.1 20160609 (release) [ARM/embedded-5-br"
 6157      43313120 
 6157      352E342E 
ARM GAS  C:\Users\Admin\AppData\Local\Temp\ccd3RvSG.s 			page 151


 6157      31203230 
 6157      31363036 
 6158 005e 616E6368 		.ascii	"anch revision 237715] -mcpu=cortex-m3 -mthumb -g -O"
 6158      20726576 
 6158      6973696F 
 6158      6E203233 
 6158      37373135 
 6159 0091 30202D66 		.ascii	"0 -ffunction-sections -ffat-lto-objects\000"
 6159      66756E63 
 6159      74696F6E 
 6159      2D736563 
 6159      74696F6E 
 6160              	.LASF45:
 6161 00b9 42535F49 		.ascii	"BS_IOPINS0_7_VAL\000"
 6161      4F50494E 
 6161      53305F37 
 6161      5F56414C 
 6161      00
 6162              	.LASF32:
 6163 00ca 64617461 		.ascii	"data_table\000"
 6163      5F746162 
 6163      6C6500
 6164              	.LASF9:
 6165 00d5 6C6F6E67 		.ascii	"long long unsigned int\000"
 6165      206C6F6E 
 6165      6720756E 
 6165      7369676E 
 6165      65642069 
 6166              	.LASF31:
 6167 00ec 61646472 		.ascii	"addr_table\000"
 6167      5F746162 
 6167      6C6500
 6168              	.LASF54:
 6169 00f7 63795F63 		.ascii	"cy_cfg_data_table\000"
 6169      66675F64 
 6169      6174615F 
 6169      7461626C 
 6169      6500
 6170              	.LASF38:
 6171 0109 416E616C 		.ascii	"AnalogSetDefault\000"
 6171      6F675365 
 6171      74446566 
 6171      61756C74 
 6171      00
 6172              	.LASF60:
 6173 011a 42535F55 		.ascii	"BS_UDB_1_3_1_CONFIG_VAL\000"
 6173      44425F31 
 6173      5F335F31 
 6173      5F434F4E 
 6173      4649475F 
 6174              	.LASF1:
 6175 0132 6C6F6E67 		.ascii	"long long int\000"
 6175      206C6F6E 
 6175      6720696E 
 6175      7400
 6176              	.LASF3:
 6177 0140 7369676E 		.ascii	"signed char\000"
ARM GAS  C:\Users\Admin\AppData\Local\Temp\ccd3RvSG.s 			page 152


 6177      65642063 
 6177      68617200 
 6178              	.LASF53:
 6179 014c 63795F63 		.ascii	"cy_cfg_addr_table\000"
 6179      66675F61 
 6179      6464725F 
 6179      7461626C 
 6179      6500
 6180              	.LASF24:
 6181 015e 43594D45 		.ascii	"CYMEMZERO\000"
 6181      4D5A4552 
 6181      4F00
 6182              	.LASF35:
 6183 0168 436C6F63 		.ascii	"ClockSetup\000"
 6183      6B536574 
 6183      757000
 6184              	.LASF29:
 6185 0173 6572726F 		.ascii	"errorCode\000"
 6185      72436F64 
 6185      6500
 6186              	.LASF50:
 6187 017d 42535F49 		.ascii	"BS_IOPINS0_4_VAL\000"
 6187      4F50494E 
 6187      53305F34 
 6187      5F56414C 
 6187      00
 6188              	.LASF7:
 6189 018e 6C6F6E67 		.ascii	"long int\000"
 6189      20696E74 
 6189      00
 6190              	.LASF19:
 6191 0197 72656731 		.ascii	"reg16\000"
 6191      3600
 6192              	.LASF13:
 6193 019d 75696E74 		.ascii	"uint8\000"
 6193      3800
 6194              	.LASF17:
 6195 01a3 646F7562 		.ascii	"double\000"
 6195      6C6500
 6196              	.LASF15:
 6197 01aa 75696E74 		.ascii	"uint32\000"
 6197      333200
 6198              	.LASF34:
 6199 01b1 636F756E 		.ascii	"count\000"
 6199      7400
 6200              	.LASF41:
 6201 01b7 72656756 		.ascii	"regValue\000"
 6201      616C7565 
 6201      00
 6202              	.LASF47:
 6203 01c0 42535F49 		.ascii	"BS_IOPINS0_1_VAL\000"
 6203      4F50494E 
 6203      53305F31 
 6203      5F56414C 
 6203      00
 6204              	.LASF22:
 6205 01d1 76616C75 		.ascii	"value\000"
ARM GAS  C:\Users\Admin\AppData\Local\Temp\ccd3RvSG.s 			page 153


 6205      6500
 6206              	.LASF0:
 6207 01d7 756E7369 		.ascii	"unsigned int\000"
 6207      676E6564 
 6207      20696E74 
 6207      00
 6208              	.LASF65:
 6209 01e4 6E756D42 		.ascii	"numBytes\000"
 6209      79746573 
 6209      00
 6210              	.LASF8:
 6211 01ed 6C6F6E67 		.ascii	"long unsigned int\000"
 6211      20756E73 
 6211      69676E65 
 6211      6420696E 
 6211      7400
 6212              	.LASF36:
 6213 01ff 74696D65 		.ascii	"timeout\000"
 6213      6F757400 
 6214              	.LASF58:
 6215 0207 6366675F 		.ascii	"cfg_memcpy_t\000"
 6215      6D656D63 
 6215      70795F74 
 6215      00
 6216              	.LASF30:
 6217 0214 6366675F 		.ascii	"cfg_write_bytes32\000"
 6217      77726974 
 6217      655F6279 
 6217      74657333 
 6217      3200
 6218              	.LASF56:
 6219 0226 73697A65 		.ascii	"size\000"
 6219      00
 6220              	.LASF6:
 6221 022b 73686F72 		.ascii	"short unsigned int\000"
 6221      7420756E 
 6221      7369676E 
 6221      65642069 
 6221      6E7400
 6222              	.LASF51:
 6223 023e 42535F49 		.ascii	"BS_IOPINS0_6_VAL\000"
 6223      4F50494E 
 6223      53305F36 
 6223      5F56414C 
 6223      00
 6224              	.LASF20:
 6225 024f 72656733 		.ascii	"reg32\000"
 6225      3200
 6226              	.LASF27:
 6227 0255 4359434F 		.ascii	"CYCONFIGCPYCODE\000"
 6227      4E464947 
 6227      43505943 
 6227      4F444500 
 6228              	.LASF10:
 6229 0265 73697A65 		.ascii	"sizetype\000"
 6229      74797065 
 6229      00
ARM GAS  C:\Users\Admin\AppData\Local\Temp\ccd3RvSG.s 			page 154


 6230              	.LASF2:
 6231 026e 6C6F6E67 		.ascii	"long double\000"
 6231      20646F75 
 6231      626C6500 
 6232              	.LASF39:
 6233 027a 62675F78 		.ascii	"bg_xover_inl_trim\000"
 6233      6F766572 
 6233      5F696E6C 
 6233      5F747269 
 6233      6D00
 6234              	.LASF57:
 6235 028c 6366675F 		.ascii	"cfg_memset_t\000"
 6235      6D656D73 
 6235      65745F74 
 6235      00
 6236              	.LASF59:
 6237 0299 6366675F 		.ascii	"cfg_memset_list\000"
 6237      6D656D73 
 6237      65745F6C 
 6237      69737400 
 6238              	.LASF49:
 6239 02a9 42535F49 		.ascii	"BS_IOPINS0_3_VAL\000"
 6239      4F50494E 
 6239      53305F33 
 6239      5F56414C 
 6239      00
 6240              	.LASF26:
 6241 02ba 64657374 		.ascii	"dest\000"
 6241      00
 6242              	.LASF16:
 6243 02bf 666C6F61 		.ascii	"float\000"
 6243      7400
 6244              	.LASF63:
 6245 02c5 64657374 		.ascii	"destPtr\000"
 6245      50747200 
 6246              	.LASF18:
 6247 02cd 72656738 		.ascii	"reg8\000"
 6247      00
 6248              	.LASF4:
 6249 02d2 756E7369 		.ascii	"unsigned char\000"
 6249      676E6564 
 6249      20636861 
 6249      7200
 6250              	.LASF5:
 6251 02e0 73686F72 		.ascii	"short int\000"
 6251      7420696E 
 6251      7400
 6252              	.LASF44:
 6253 02ea 42535F49 		.ascii	"BS_IOPINS0_0_VAL\000"
 6253      4F50494E 
 6253      53305F30 
 6253      5F56414C 
 6253      00
 6254              	.LASF68:
 6255 02fb 433A5C55 		.ascii	"C:\\Users\\Admin\\Dropbox\\My PC (DESKTOP-JTCBHVV)\\"
 6255      73657273 
 6255      5C41646D 
ARM GAS  C:\Users\Admin\AppData\Local\Temp\ccd3RvSG.s 			page 155


 6255      696E5C44 
 6255      726F7062 
 6256 032a 446F776E 		.ascii	"Downloads\\fw comp\\firmware_binaries_Firmware for "
 6256      6C6F6164 
 6256      735C6677 
 6256      20636F6D 
 6256      705C6669 
 6257 035b 53686F6E 		.ascii	"ShonitV2.2 PCB AI100 N_seriesV2.4_devlopment\\Desig"
 6257      69745632 
 6257      2E322050 
 6257      43422041 
 6257      49313030 
 6258 038d 6E30312E 		.ascii	"n01.cydsn\000"
 6258      63796473 
 6258      6E00
 6259              	.LASF37:
 6260 0397 706C6C4C 		.ascii	"pllLock\000"
 6260      6F636B00 
 6261              	.LASF46:
 6262 039f 42535F49 		.ascii	"BS_IOPINS0_8_VAL\000"
 6262      4F50494E 
 6262      53305F38 
 6262      5F56414C 
 6262      00
 6263              	.LASF23:
 6264 03b0 63795F63 		.ascii	"cy_cfg_addrvalue_t\000"
 6264      66675F61 
 6264      64647276 
 6264      616C7565 
 6264      5F7400
 6265              	.LASF52:
 6266 03c3 42535F50 		.ascii	"BS_PHUB_CFGMEM1_VAL\000"
 6266      4855425F 
 6266      4346474D 
 6266      454D315F 
 6266      56414C00 
 6267              	.LASF11:
 6268 03d7 63686172 		.ascii	"char\000"
 6268      00
 6269              	.LASF64:
 6270 03dc 73726350 		.ascii	"srcPtr\000"
 6270      747200
 6271              	.LASF61:
 6272 03e3 42535F55 		.ascii	"BS_UCFG_BCTL0_VAL\000"
 6272      4346475F 
 6272      4243544C 
 6272      305F5641 
 6272      4C00
 6273              	.LASF42:
 6274 03f5 53657441 		.ascii	"SetAnalogRoutingPumps\000"
 6274      6E616C6F 
 6274      67526F75 
 6274      74696E67 
 6274      50756D70 
 6275              	.LASF21:
 6276 040b 6F666673 		.ascii	"offset\000"
 6276      657400
ARM GAS  C:\Users\Admin\AppData\Local\Temp\ccd3RvSG.s 			page 156


 6277              	.LASF40:
 6278 0412 656E6162 		.ascii	"enabled\000"
 6278      6C656400 
 6279              	.LASF25:
 6280 041a 4359434F 		.ascii	"CYCONFIGCPY\000"
 6280      4E464947 
 6280      43505900 
 6281              	.LASF67:
 6282 0426 47656E65 		.ascii	"Generated_Source\\PSoC5\\cyfitter_cfg.c\000"
 6282      72617465 
 6282      645F536F 
 6282      75726365 
 6282      5C50536F 
 6283              	.LASF55:
 6284 044c 61646472 		.ascii	"address\000"
 6284      65737300 
 6285              	.LASF48:
 6286 0454 42535F49 		.ascii	"BS_IOPINS0_2_VAL\000"
 6286      4F50494E 
 6286      53305F32 
 6286      5F56414C 
 6286      00
 6287              	.LASF62:
 6288 0465 6366675F 		.ascii	"cfg_memcpy_list\000"
 6288      6D656D63 
 6288      70795F6C 
 6288      69737400 
 6289              	.LASF43:
 6290 0475 63796669 		.ascii	"cyfitter_cfg\000"
 6290      74746572 
 6290      5F636667 
 6290      00
 6291              		.ident	"GCC: (GNU Tools for ARM Embedded Processors) 5.4.1 20160609 (release) [ARM/embedded-5-bran
