ARM GAS  C:\Users\Revanth\AppData\Local\Temp\ccVWZ3AJ.s 			page 1


   1              		.syntax unified
   2              		.cpu cortex-m3
   3              		.fpu softvfp
   4              		.eabi_attribute 20, 1
   5              		.eabi_attribute 21, 1
   6              		.eabi_attribute 23, 3
   7              		.eabi_attribute 24, 1
   8              		.eabi_attribute 25, 1
   9              		.eabi_attribute 26, 1
  10              		.eabi_attribute 30, 1
  11              		.eabi_attribute 34, 1
  12              		.eabi_attribute 18, 4
  13              		.thumb
  14              		.syntax unified
  15              		.file	"APA102.c"
  16              		.text
  17              	.Ltext0:
  18              		.cfi_sections	.debug_frame
  19              		.section	.text.LedFrame,"ax",%progbits
  20              		.align	2
  21              		.global	LedFrame
  22              		.thumb
  23              		.thumb_func
  24              		.type	LedFrame, %function
  25              	LedFrame:
  26              	.LFB64:
  27              		.file 1 "APA102.c"
   1:APA102.c      **** /* ========================================
   2:APA102.c      ****  *
   3:APA102.c      ****  * Copyright YOUR COMPANY, THE YEAR
   4:APA102.c      ****  * All Rights Reserved
   5:APA102.c      ****  * UNPUBLISHED, LICENSED SOFTWARE.
   6:APA102.c      ****  *
   7:APA102.c      ****  * CONFIDENTIAL AND PROPRIETARY INFORMATION
   8:APA102.c      ****  * WHICH IS THE PROPERTY OF your company.
   9:APA102.c      ****  *
  10:APA102.c      ****  * ========================================
  11:APA102.c      **** */
  12:APA102.c      **** 
  13:APA102.c      **** /* [] END OF FILE */
  14:APA102.c      **** 
  15:APA102.c      **** #include "APA102.h"
  16:APA102.c      **** 
  17:APA102.c      **** uint8 i,j =0;
  18:APA102.c      **** uint8_t R,G,B = 0;
  19:APA102.c      **** uint8_t MaxB = 0;
  20:APA102.c      **** uint16_t BnB = 0;
  21:APA102.c      **** uint16_t GnR = 0;
  22:APA102.c      **** uint8_t LedCnt = 0;
  23:APA102.c      **** 
  24:APA102.c      **** 
  25:APA102.c      **** uint8_t STFB[4] = {0x00,0x00,0x00,0x00};
  26:APA102.c      **** uint8_t ENFB[4] = {0xFF,0xFF,0xFF,0xFF};
  27:APA102.c      **** 
  28:APA102.c      **** 
  29:APA102.c      **** uint8_t SPI_RGB_DATA[4];
  30:APA102.c      **** 
ARM GAS  C:\Users\Revanth\AppData\Local\Temp\ccVWZ3AJ.s 			page 2


  31:APA102.c      **** void BF(uint8_t LedCnt, uint8_t R,uint8_t G,uint8_t B,uint8_t MaxB)
  32:APA102.c      **** {
  33:APA102.c      ****     
  34:APA102.c      ****     StartFrame
  35:APA102.c      ****     for(i=1;i<=170;i++ )
  36:APA102.c      ****     {    
  37:APA102.c      **** 
  38:APA102.c      ****         RGB_Byte_TxOp(0xE0);
  39:APA102.c      ****         RGB_Byte_TxOp(0x00);
  40:APA102.c      ****         RGB_Byte_TxOp(0x00);
  41:APA102.c      ****         RGB_Byte_TxOp(0x00);
  42:APA102.c      ****               
  43:APA102.c      ****     }
  44:APA102.c      ****     EndFrame
  45:APA102.c      ****     
  46:APA102.c      ****     LedFrame(MaxB,R,G,B);
  47:APA102.c      ****     StartFrame
  48:APA102.c      ****     for(i=1;i<=LedCnt;i++ )
  49:APA102.c      ****     {    
  50:APA102.c      **** //        SPIM_WriteTxData((BnB >> 8)&0xff);
  51:APA102.c      **** //        SPIM_WriteTxData(BnB&0xff);
  52:APA102.c      **** //        SPIM_WriteTxData((GnR >> 8)&0xff);
  53:APA102.c      **** //        SPIM_WriteTxData(GnR&0xff);
  54:APA102.c      ****         
  55:APA102.c      ****         RGB_Byte_TxOp((BnB >> 8)&0xff);
  56:APA102.c      ****         RGB_Byte_TxOp(BnB&0xff);
  57:APA102.c      ****         RGB_Byte_TxOp((GnR >> 8)&0xff);
  58:APA102.c      ****         RGB_Byte_TxOp(GnR&0xff);
  59:APA102.c      ****               
  60:APA102.c      ****         //SPIM_WriteTxData(BnB);
  61:APA102.c      ****         //SPIM_WriteTxData(GnR);
  62:APA102.c      ****          //SPIM_PutArray(SPI_RGB_DATA,4);
  63:APA102.c      ****     }
  64:APA102.c      ****     EndFrame
  65:APA102.c      ****     i=0;
  66:APA102.c      **** }
  67:APA102.c      **** 
  68:APA102.c      **** void LedFrame(uint8_t MB,uint8_t r,uint8_t g,uint8_t b)
  69:APA102.c      **** {
  28              		.loc 1 69 0
  29              		.cfi_startproc
  30              		@ args = 0, pretend = 0, frame = 0
  31              		@ frame_needed = 0, uses_anonymous_args = 0
  32              		@ link register save eliminated.
  33              	.LVL0:
  34 0000 10B4     		push	{r4}
  35              		.cfi_def_cfa_offset 4
  36              		.cfi_offset 4, -4
  70:APA102.c      ****     //SPI_RGB_DATA[0] = (((MB & 0b00011111)| 0b11100000)<<8);
  71:APA102.c      ****     //SPI_RGB_DATA[1] = b;
  72:APA102.c      ****     //SPI_RGB_DATA[2] = g;
  73:APA102.c      ****     //SPI_RGB_DATA[3] = r;
  74:APA102.c      ****     BnB = ((((MB & 0b00011111)| 0b11100000)<<8) | b);
  37              		.loc 1 74 0
  38 0002 40F0E000 		orr	r0, r0, #224
  39              	.LVL1:
  40 0006 044C     		ldr	r4, .L3
ARM GAS  C:\Users\Revanth\AppData\Local\Temp\ccVWZ3AJ.s 			page 3


  41 0008 43EA0023 		orr	r3, r3, r0, lsl #8
  42              	.LVL2:
  43 000c 2380     		strh	r3, [r4]	@ movhi
  75:APA102.c      ****     GnR = ((g<<8) | r); 
  44              		.loc 1 75 0
  45 000e 41EA0222 		orr	r2, r1, r2, lsl #8
  46              	.LVL3:
  47 0012 6280     		strh	r2, [r4, #2]	@ movhi
  76:APA102.c      **** }
  48              		.loc 1 76 0
  49 0014 10BC     		pop	{r4}
  50              		.cfi_restore 4
  51              		.cfi_def_cfa_offset 0
  52 0016 7047     		bx	lr
  53              	.L4:
  54              		.align	2
  55              	.L3:
  56 0018 00000000 		.word	.LANCHOR0
  57              		.cfi_endproc
  58              	.LFE64:
  59              		.size	LedFrame, .-LedFrame
  60              		.section	.text.RGB_Byte_TxOp,"ax",%progbits
  61              		.align	2
  62              		.global	RGB_Byte_TxOp
  63              		.thumb
  64              		.thumb_func
  65              		.type	RGB_Byte_TxOp, %function
  66              	RGB_Byte_TxOp:
  67              	.LFB67:
  77:APA102.c      **** 
  78:APA102.c      **** void Ring(uint8_t RngCnt,uint8_t RngR,uint8_t RngG,uint8_t RngB,uint8_t RngMB)
  79:APA102.c      **** {   
  80:APA102.c      ****     StartFrame
  81:APA102.c      ****     for(i=1;i<=52;i++ )
  82:APA102.c      ****     {    
  83:APA102.c      **** 
  84:APA102.c      ****         RGB_Byte_TxOp(0xE0);
  85:APA102.c      ****         RGB_Byte_TxOp(0x00);
  86:APA102.c      ****         RGB_Byte_TxOp(0x00);
  87:APA102.c      ****         RGB_Byte_TxOp(0x00);
  88:APA102.c      ****               
  89:APA102.c      ****     }
  90:APA102.c      ****     EndFrame
  91:APA102.c      **** 
  92:APA102.c      ****     switch (RngCnt)  
  93:APA102.c      ****     {
  94:APA102.c      ****         case 0:
  95:APA102.c      ****             StartFrame
  96:APA102.c      ****             BF2(45,0,0,0,0);
  97:APA102.c      ****             BF2(0,0,0,0,0xE0);
  98:APA102.c      ****             EndFrame
  99:APA102.c      ****             break;
 100:APA102.c      ****         case 1:
 101:APA102.c      ****             StartFrame
 102:APA102.c      ****             BF2(45,RngR,RngG,RngB,RngMB);
 103:APA102.c      ****             BF2(0,0,0,0,0xE0);
 104:APA102.c      ****             EndFrame
ARM GAS  C:\Users\Revanth\AppData\Local\Temp\ccVWZ3AJ.s 			page 4


 105:APA102.c      ****             break;
 106:APA102.c      ****                 
 107:APA102.c      ****         case 2:
 108:APA102.c      ****             StartFrame        
 109:APA102.c      ****             //BF2(45,0,0,0,0xE0);
 110:APA102.c      ****             BF2(7,RngR,RngG,RngB,RngMB);
 111:APA102.c      ****             BF2(0,0,0,0,0xE0);
 112:APA102.c      ****             EndFrame
 113:APA102.c      ****             break;
 114:APA102.c      ****             
 115:APA102.c      ****         case 3:    
 116:APA102.c      ****             StartFrame        
 117:APA102.c      ****             //BF2(45,0,0,0,0xE0);
 118:APA102.c      ****             BF2(15,RngR,RngG,RngB,RngMB);
 119:APA102.c      ****             BF2(0,0,0,0,0xE0);
 120:APA102.c      ****             EndFrame
 121:APA102.c      ****             break;
 122:APA102.c      ****         
 123:APA102.c      ****         case 4:    
 124:APA102.c      ****              StartFrame        
 125:APA102.c      ****             //BF2(14,0,0,0,0xE0);
 126:APA102.c      ****             BF2(23,RngR,RngG,RngB,RngMB);
 127:APA102.c      ****             BF2(0,0,0,0,0xE0);
 128:APA102.c      ****             EndFrame
 129:APA102.c      ****             break;
 130:APA102.c      ****         
 131:APA102.c      ****         case 5:    
 132:APA102.c      ****              StartFrame        
 133:APA102.c      ****             //BF2(14,0,0,0,0xE0);
 134:APA102.c      ****             BF2(30,RngR,RngG,RngB,RngMB);
 135:APA102.c      ****             BF2(0,0,0,0,0xE0);
 136:APA102.c      ****             EndFrame
 137:APA102.c      ****             break;
 138:APA102.c      ****             
 139:APA102.c      ****         case 6:    
 140:APA102.c      ****              StartFrame        
 141:APA102.c      ****             //BF2(14,0,0,0,0xE0);
 142:APA102.c      ****             BF2(38,RngR,RngG,RngB,RngMB);
 143:APA102.c      ****             BF2(0,0,0,0,0xE0);
 144:APA102.c      ****             EndFrame
 145:APA102.c      ****             break;   
 146:APA102.c      ****         case 7:    
 147:APA102.c      ****              StartFrame        
 148:APA102.c      ****             //BF2(14,0,0,0,0xE0);
 149:APA102.c      ****             BF2(45,RngR,RngG,RngB,RngMB);
 150:APA102.c      ****             BF2(0,0,0,0,0xE0);
 151:APA102.c      ****             EndFrame
 152:APA102.c      ****             break;     
 153:APA102.c      ****     }
 154:APA102.c      **** }
 155:APA102.c      **** 
 156:APA102.c      **** void BF2(uint8_t LedCnt, uint8_t R,uint8_t G,uint8_t B,uint8_t MaxB)
 157:APA102.c      **** {
 158:APA102.c      ****     LedFrame(MaxB,R,G,B);
 159:APA102.c      ****     for(i=1;i<=LedCnt;i++ )
 160:APA102.c      ****     {
 161:APA102.c      ****          
ARM GAS  C:\Users\Revanth\AppData\Local\Temp\ccVWZ3AJ.s 			page 5


 162:APA102.c      **** //        SPIM_WriteTxData((BnB >> 8)&0xff);
 163:APA102.c      **** //        SPIM_WriteTxData(BnB&0xff);
 164:APA102.c      **** //        SPIM_WriteTxData((GnR >> 8)&0xff);
 165:APA102.c      **** //        SPIM_WriteTxData(GnR&0xff);
 166:APA102.c      ****         
 167:APA102.c      ****         RGB_Byte_TxOp((BnB >> 8)&0xff);
 168:APA102.c      ****         RGB_Byte_TxOp(BnB&0xff);
 169:APA102.c      ****         RGB_Byte_TxOp((GnR >> 8)&0xff);
 170:APA102.c      ****         RGB_Byte_TxOp(GnR&0xff);
 171:APA102.c      ****         
 172:APA102.c      ****        
 173:APA102.c      ****         
 174:APA102.c      ****         //SPIM_WriteTxData(BnB);
 175:APA102.c      ****         //SPIM_WriteTxData(GnR);
 176:APA102.c      ****         //SPIM_PutArray(SPI_RGB_DATA,4);
 177:APA102.c      ****     }
 178:APA102.c      ****     i=0;
 179:APA102.c      **** }
 180:APA102.c      **** 
 181:APA102.c      **** 
 182:APA102.c      **** 
 183:APA102.c      **** 
 184:APA102.c      **** void RGB_Byte_TxOp(uint8_t RGB_TxByte)
 185:APA102.c      **** {
  68              		.loc 1 185 0
  69              		.cfi_startproc
  70              		@ args = 0, pretend = 0, frame = 0
  71              		@ frame_needed = 0, uses_anonymous_args = 0
  72              	.LVL4:
  73 0000 38B5     		push	{r3, r4, r5, lr}
  74              		.cfi_def_cfa_offset 16
  75              		.cfi_offset 3, -16
  76              		.cfi_offset 4, -12
  77              		.cfi_offset 5, -8
  78              		.cfi_offset 14, -4
  79 0002 0546     		mov	r5, r0
  80              	.LVL5:
 186:APA102.c      ****   uint8_t i=0;
 187:APA102.c      ****     for(i=8;i>0;i--)
  81              		.loc 1 187 0
  82 0004 0823     		movs	r3, #8
  83 0006 13E0     		b	.L6
  84              	.LVL6:
  85              	.L7:
 188:APA102.c      ****     {
 189:APA102.c      ****       
 190:APA102.c      ****       Pin_SDO_RGB_Write((RGB_TxByte >> (i-1))&0x01);
  86              		.loc 1 190 0 discriminator 3
  87 0008 5C1E     		subs	r4, r3, #1
  88 000a 45FA04F0 		asr	r0, r5, r4
  89 000e 00F00100 		and	r0, r0, #1
  90 0012 FFF7FEFF 		bl	Pin_SDO_RGB_Write
  91              	.LVL7:
 191:APA102.c      ****       Pin_Clock_RGB_Write(0);
  92              		.loc 1 191 0 discriminator 3
  93 0016 0020     		movs	r0, #0
  94 0018 FFF7FEFF 		bl	Pin_Clock_RGB_Write
ARM GAS  C:\Users\Revanth\AppData\Local\Temp\ccVWZ3AJ.s 			page 6


  95              	.LVL8:
 192:APA102.c      ****       CyDelayUs(1);
  96              		.loc 1 192 0 discriminator 3
  97 001c 0120     		movs	r0, #1
  98 001e FFF7FEFF 		bl	CyDelayUs
  99              	.LVL9:
 193:APA102.c      ****       Pin_Clock_RGB_Write(1);
 100              		.loc 1 193 0 discriminator 3
 101 0022 0120     		movs	r0, #1
 102 0024 FFF7FEFF 		bl	Pin_Clock_RGB_Write
 103              	.LVL10:
 194:APA102.c      ****       CyDelayUs(1);
 104              		.loc 1 194 0 discriminator 3
 105 0028 0120     		movs	r0, #1
 106 002a FFF7FEFF 		bl	CyDelayUs
 107              	.LVL11:
 187:APA102.c      ****     {
 108              		.loc 1 187 0 discriminator 3
 109 002e E3B2     		uxtb	r3, r4
 110              	.LVL12:
 111              	.L6:
 187:APA102.c      ****     {
 112              		.loc 1 187 0 is_stmt 0 discriminator 1
 113 0030 002B     		cmp	r3, #0
 114 0032 E9D1     		bne	.L7
 195:APA102.c      ****       
 196:APA102.c      ****     }
 197:APA102.c      **** 
 198:APA102.c      **** }...
 115              		.loc 1 198 0 is_stmt 1
 116 0034 38BD     		pop	{r3, r4, r5, pc}
 117              		.cfi_endproc
 118              	.LFE67:
 119              		.size	RGB_Byte_TxOp, .-RGB_Byte_TxOp
 120 0036 00BF     		.section	.text.BF,"ax",%progbits
 121              		.align	2
 122              		.global	BF
 123              		.thumb
 124              		.thumb_func
 125              		.type	BF, %function
 126              	BF:
 127              	.LFB63:
  32:APA102.c      **** {
 128              		.loc 1 32 0
 129              		.cfi_startproc
 130              		@ args = 4, pretend = 0, frame = 0
 131              		@ frame_needed = 0, uses_anonymous_args = 0
 132              	.LVL13:
 133 0000 F8B5     		push	{r3, r4, r5, r6, r7, lr}
 134              		.cfi_def_cfa_offset 24
 135              		.cfi_offset 3, -24
 136              		.cfi_offset 4, -20
 137              		.cfi_offset 5, -16
 138              		.cfi_offset 6, -12
 139              		.cfi_offset 7, -8
 140              		.cfi_offset 14, -4
 141 0002 0546     		mov	r5, r0
ARM GAS  C:\Users\Revanth\AppData\Local\Temp\ccVWZ3AJ.s 			page 7


 142 0004 0C46     		mov	r4, r1
 143 0006 1646     		mov	r6, r2
 144 0008 1F46     		mov	r7, r3
  34:APA102.c      ****     StartFrame
 145              		.loc 1 34 0
 146 000a 0020     		movs	r0, #0
 147              	.LVL14:
 148 000c FFF7FEFF 		bl	RGB_Byte_TxOp
 149              	.LVL15:
 150 0010 0020     		movs	r0, #0
 151 0012 FFF7FEFF 		bl	RGB_Byte_TxOp
 152              	.LVL16:
 153 0016 0020     		movs	r0, #0
 154 0018 FFF7FEFF 		bl	RGB_Byte_TxOp
 155              	.LVL17:
 156 001c 0020     		movs	r0, #0
 157 001e FFF7FEFF 		bl	RGB_Byte_TxOp
 158              	.LVL18:
  35:APA102.c      ****     for(i=1;i<=170;i++ )
 159              		.loc 1 35 0
 160 0022 0122     		movs	r2, #1
 161 0024 304B     		ldr	r3, .L15
 162 0026 1A70     		strb	r2, [r3]
 163 0028 0FE0     		b	.L10
 164              	.L11:
  38:APA102.c      ****         RGB_Byte_TxOp(0xE0);
 165              		.loc 1 38 0 discriminator 3
 166 002a E020     		movs	r0, #224
 167 002c FFF7FEFF 		bl	RGB_Byte_TxOp
 168              	.LVL19:
  39:APA102.c      ****         RGB_Byte_TxOp(0x00);
 169              		.loc 1 39 0 discriminator 3
 170 0030 0020     		movs	r0, #0
 171 0032 FFF7FEFF 		bl	RGB_Byte_TxOp
 172              	.LVL20:
  40:APA102.c      ****         RGB_Byte_TxOp(0x00);
 173              		.loc 1 40 0 discriminator 3
 174 0036 0020     		movs	r0, #0
 175 0038 FFF7FEFF 		bl	RGB_Byte_TxOp
 176              	.LVL21:
  41:APA102.c      ****         RGB_Byte_TxOp(0x00);
 177              		.loc 1 41 0 discriminator 3
 178 003c 0020     		movs	r0, #0
 179 003e FFF7FEFF 		bl	RGB_Byte_TxOp
 180              	.LVL22:
  35:APA102.c      ****     for(i=1;i<=170;i++ )
 181              		.loc 1 35 0 discriminator 3
 182 0042 294A     		ldr	r2, .L15
 183 0044 1378     		ldrb	r3, [r2]	@ zero_extendqisi2
 184 0046 0133     		adds	r3, r3, #1
 185 0048 1370     		strb	r3, [r2]
 186              	.L10:
  35:APA102.c      ****     for(i=1;i<=170;i++ )
 187              		.loc 1 35 0 is_stmt 0 discriminator 1
 188 004a 274B     		ldr	r3, .L15
 189 004c 1B78     		ldrb	r3, [r3]	@ zero_extendqisi2
 190 004e AA2B     		cmp	r3, #170
ARM GAS  C:\Users\Revanth\AppData\Local\Temp\ccVWZ3AJ.s 			page 8


 191 0050 EBD9     		bls	.L11
  44:APA102.c      ****     EndFrame
 192              		.loc 1 44 0 is_stmt 1
 193 0052 FF20     		movs	r0, #255
 194 0054 FFF7FEFF 		bl	RGB_Byte_TxOp
 195              	.LVL23:
 196 0058 FF20     		movs	r0, #255
 197 005a FFF7FEFF 		bl	RGB_Byte_TxOp
 198              	.LVL24:
 199 005e FF20     		movs	r0, #255
 200 0060 FFF7FEFF 		bl	RGB_Byte_TxOp
 201              	.LVL25:
 202 0064 FF20     		movs	r0, #255
 203 0066 FFF7FEFF 		bl	RGB_Byte_TxOp
 204              	.LVL26:
  46:APA102.c      ****     LedFrame(MaxB,R,G,B);
 205              		.loc 1 46 0
 206 006a 3B46     		mov	r3, r7
 207 006c 3246     		mov	r2, r6
 208 006e 2146     		mov	r1, r4
 209 0070 9DF81800 		ldrb	r0, [sp, #24]	@ zero_extendqisi2
 210 0074 FFF7FEFF 		bl	LedFrame
 211              	.LVL27:
  47:APA102.c      ****     StartFrame
 212              		.loc 1 47 0
 213 0078 0020     		movs	r0, #0
 214 007a FFF7FEFF 		bl	RGB_Byte_TxOp
 215              	.LVL28:
 216 007e 0020     		movs	r0, #0
 217 0080 FFF7FEFF 		bl	RGB_Byte_TxOp
 218              	.LVL29:
 219 0084 0020     		movs	r0, #0
 220 0086 FFF7FEFF 		bl	RGB_Byte_TxOp
 221              	.LVL30:
 222 008a 0020     		movs	r0, #0
 223 008c FFF7FEFF 		bl	RGB_Byte_TxOp
 224              	.LVL31:
  48:APA102.c      ****     for(i=1;i<=LedCnt;i++ )
 225              		.loc 1 48 0
 226 0090 0122     		movs	r2, #1
 227 0092 154B     		ldr	r3, .L15
 228 0094 1A70     		strb	r2, [r3]
 229 0096 12E0     		b	.L12
 230              	.L13:
  55:APA102.c      ****         RGB_Byte_TxOp((BnB >> 8)&0xff);
 231              		.loc 1 55 0 discriminator 3
 232 0098 144C     		ldr	r4, .L15+4
 233 009a 2088     		ldrh	r0, [r4]
 234 009c 000A     		lsrs	r0, r0, #8
 235 009e FFF7FEFF 		bl	RGB_Byte_TxOp
 236              	.LVL32:
  56:APA102.c      ****         RGB_Byte_TxOp(BnB&0xff);
 237              		.loc 1 56 0 discriminator 3
 238 00a2 2078     		ldrb	r0, [r4]	@ zero_extendqisi2
 239 00a4 FFF7FEFF 		bl	RGB_Byte_TxOp
 240              	.LVL33:
  57:APA102.c      ****         RGB_Byte_TxOp((GnR >> 8)&0xff);
ARM GAS  C:\Users\Revanth\AppData\Local\Temp\ccVWZ3AJ.s 			page 9


 241              		.loc 1 57 0 discriminator 3
 242 00a8 6088     		ldrh	r0, [r4, #2]
 243 00aa 000A     		lsrs	r0, r0, #8
 244 00ac FFF7FEFF 		bl	RGB_Byte_TxOp
 245              	.LVL34:
  58:APA102.c      ****         RGB_Byte_TxOp(GnR&0xff);
 246              		.loc 1 58 0 discriminator 3
 247 00b0 A078     		ldrb	r0, [r4, #2]	@ zero_extendqisi2
 248 00b2 FFF7FEFF 		bl	RGB_Byte_TxOp
 249              	.LVL35:
  48:APA102.c      ****     for(i=1;i<=LedCnt;i++ )
 250              		.loc 1 48 0 discriminator 3
 251 00b6 0C4A     		ldr	r2, .L15
 252 00b8 1378     		ldrb	r3, [r2]	@ zero_extendqisi2
 253 00ba 0133     		adds	r3, r3, #1
 254 00bc 1370     		strb	r3, [r2]
 255              	.L12:
  48:APA102.c      ****     for(i=1;i<=LedCnt;i++ )
 256              		.loc 1 48 0 is_stmt 0 discriminator 1
 257 00be 0A4B     		ldr	r3, .L15
 258 00c0 1B78     		ldrb	r3, [r3]	@ zero_extendqisi2
 259 00c2 AB42     		cmp	r3, r5
 260 00c4 E8D9     		bls	.L13
  64:APA102.c      ****     EndFrame
 261              		.loc 1 64 0 is_stmt 1
 262 00c6 FF20     		movs	r0, #255
 263 00c8 FFF7FEFF 		bl	RGB_Byte_TxOp
 264              	.LVL36:
 265 00cc FF20     		movs	r0, #255
 266 00ce FFF7FEFF 		bl	RGB_Byte_TxOp
 267              	.LVL37:
 268 00d2 FF20     		movs	r0, #255
 269 00d4 FFF7FEFF 		bl	RGB_Byte_TxOp
 270              	.LVL38:
 271 00d8 FF20     		movs	r0, #255
 272 00da FFF7FEFF 		bl	RGB_Byte_TxOp
 273              	.LVL39:
  65:APA102.c      ****     i=0;
 274              		.loc 1 65 0
 275 00de 0022     		movs	r2, #0
 276 00e0 014B     		ldr	r3, .L15
 277 00e2 1A70     		strb	r2, [r3]
 278 00e4 F8BD     		pop	{r3, r4, r5, r6, r7, pc}
 279              	.LVL40:
 280              	.L16:
 281 00e6 00BF     		.align	2
 282              	.L15:
 283 00e8 00000000 		.word	i
 284 00ec 00000000 		.word	.LANCHOR0
 285              		.cfi_endproc
 286              	.LFE63:
 287              		.size	BF, .-BF
 288              		.section	.text.BF2,"ax",%progbits
 289              		.align	2
 290              		.global	BF2
 291              		.thumb
 292              		.thumb_func
ARM GAS  C:\Users\Revanth\AppData\Local\Temp\ccVWZ3AJ.s 			page 10


 293              		.type	BF2, %function
 294              	BF2:
 295              	.LFB66:
 157:APA102.c      **** {
 296              		.loc 1 157 0
 297              		.cfi_startproc
 298              		@ args = 4, pretend = 0, frame = 0
 299              		@ frame_needed = 0, uses_anonymous_args = 0
 300              	.LVL41:
 301 0000 38B5     		push	{r3, r4, r5, lr}
 302              		.cfi_def_cfa_offset 16
 303              		.cfi_offset 3, -16
 304              		.cfi_offset 4, -12
 305              		.cfi_offset 5, -8
 306              		.cfi_offset 14, -4
 307 0002 0546     		mov	r5, r0
 158:APA102.c      ****     LedFrame(MaxB,R,G,B);
 308              		.loc 1 158 0
 309 0004 9DF81000 		ldrb	r0, [sp, #16]	@ zero_extendqisi2
 310              	.LVL42:
 311 0008 FFF7FEFF 		bl	LedFrame
 312              	.LVL43:
 159:APA102.c      ****     for(i=1;i<=LedCnt;i++ )
 313              		.loc 1 159 0
 314 000c 0122     		movs	r2, #1
 315 000e 0F4B     		ldr	r3, .L21
 316 0010 1A70     		strb	r2, [r3]
 317 0012 12E0     		b	.L18
 318              	.L19:
 167:APA102.c      ****         RGB_Byte_TxOp((BnB >> 8)&0xff);
 319              		.loc 1 167 0 discriminator 3
 320 0014 0E4C     		ldr	r4, .L21+4
 321 0016 2088     		ldrh	r0, [r4]
 322 0018 000A     		lsrs	r0, r0, #8
 323 001a FFF7FEFF 		bl	RGB_Byte_TxOp
 324              	.LVL44:
 168:APA102.c      ****         RGB_Byte_TxOp(BnB&0xff);
 325              		.loc 1 168 0 discriminator 3
 326 001e 2078     		ldrb	r0, [r4]	@ zero_extendqisi2
 327 0020 FFF7FEFF 		bl	RGB_Byte_TxOp
 328              	.LVL45:
 169:APA102.c      ****         RGB_Byte_TxOp((GnR >> 8)&0xff);
 329              		.loc 1 169 0 discriminator 3
 330 0024 6088     		ldrh	r0, [r4, #2]
 331 0026 000A     		lsrs	r0, r0, #8
 332 0028 FFF7FEFF 		bl	RGB_Byte_TxOp
 333              	.LVL46:
 170:APA102.c      ****         RGB_Byte_TxOp(GnR&0xff);
 334              		.loc 1 170 0 discriminator 3
 335 002c A078     		ldrb	r0, [r4, #2]	@ zero_extendqisi2
 336 002e FFF7FEFF 		bl	RGB_Byte_TxOp
 337              	.LVL47:
 159:APA102.c      ****     for(i=1;i<=LedCnt;i++ )
 338              		.loc 1 159 0 discriminator 3
 339 0032 064A     		ldr	r2, .L21
 340 0034 1378     		ldrb	r3, [r2]	@ zero_extendqisi2
 341 0036 0133     		adds	r3, r3, #1
ARM GAS  C:\Users\Revanth\AppData\Local\Temp\ccVWZ3AJ.s 			page 11


 342 0038 1370     		strb	r3, [r2]
 343              	.L18:
 159:APA102.c      ****     for(i=1;i<=LedCnt;i++ )
 344              		.loc 1 159 0 is_stmt 0 discriminator 1
 345 003a 044B     		ldr	r3, .L21
 346 003c 1B78     		ldrb	r3, [r3]	@ zero_extendqisi2
 347 003e AB42     		cmp	r3, r5
 348 0040 E8D9     		bls	.L19
 178:APA102.c      ****     i=0;
 349              		.loc 1 178 0 is_stmt 1
 350 0042 0022     		movs	r2, #0
 351 0044 014B     		ldr	r3, .L21
 352 0046 1A70     		strb	r2, [r3]
 353 0048 38BD     		pop	{r3, r4, r5, pc}
 354              	.LVL48:
 355              	.L22:
 356 004a 00BF     		.align	2
 357              	.L21:
 358 004c 00000000 		.word	i
 359 0050 00000000 		.word	.LANCHOR0
 360              		.cfi_endproc
 361              	.LFE66:
 362              		.size	BF2, .-BF2
 363              		.section	.text.Ring,"ax",%progbits
 364              		.align	2
 365              		.global	Ring
 366              		.thumb
 367              		.thumb_func
 368              		.type	Ring, %function
 369              	Ring:
 370              	.LFB65:
  79:APA102.c      **** {   
 371              		.loc 1 79 0
 372              		.cfi_startproc
 373              		@ args = 4, pretend = 0, frame = 0
 374              		@ frame_needed = 0, uses_anonymous_args = 0
 375              	.LVL49:
 376 0000 2DE9F041 		push	{r4, r5, r6, r7, r8, lr}
 377              		.cfi_def_cfa_offset 24
 378              		.cfi_offset 4, -24
 379              		.cfi_offset 5, -20
 380              		.cfi_offset 6, -16
 381              		.cfi_offset 7, -12
 382              		.cfi_offset 8, -8
 383              		.cfi_offset 14, -4
 384 0004 82B0     		sub	sp, sp, #8
 385              		.cfi_def_cfa_offset 32
 386 0006 0446     		mov	r4, r0
 387 0008 0D46     		mov	r5, r1
 388 000a 1646     		mov	r6, r2
 389 000c 1F46     		mov	r7, r3
 390 000e 9DF82080 		ldrb	r8, [sp, #32]	@ zero_extendqisi2
  80:APA102.c      ****     StartFrame
 391              		.loc 1 80 0
 392 0012 0020     		movs	r0, #0
 393              	.LVL50:
 394 0014 FFF7FEFF 		bl	RGB_Byte_TxOp
ARM GAS  C:\Users\Revanth\AppData\Local\Temp\ccVWZ3AJ.s 			page 12


 395              	.LVL51:
 396 0018 0020     		movs	r0, #0
 397 001a FFF7FEFF 		bl	RGB_Byte_TxOp
 398              	.LVL52:
 399 001e 0020     		movs	r0, #0
 400 0020 FFF7FEFF 		bl	RGB_Byte_TxOp
 401              	.LVL53:
 402 0024 0020     		movs	r0, #0
 403 0026 FFF7FEFF 		bl	RGB_Byte_TxOp
 404              	.LVL54:
  81:APA102.c      ****     for(i=1;i<=52;i++ )
 405              		.loc 1 81 0
 406 002a 0122     		movs	r2, #1
 407 002c BC4B     		ldr	r3, .L37
 408 002e 1A70     		strb	r2, [r3]
 409 0030 0FE0     		b	.L24
 410              	.L25:
  84:APA102.c      ****         RGB_Byte_TxOp(0xE0);
 411              		.loc 1 84 0 discriminator 3
 412 0032 E020     		movs	r0, #224
 413 0034 FFF7FEFF 		bl	RGB_Byte_TxOp
 414              	.LVL55:
  85:APA102.c      ****         RGB_Byte_TxOp(0x00);
 415              		.loc 1 85 0 discriminator 3
 416 0038 0020     		movs	r0, #0
 417 003a FFF7FEFF 		bl	RGB_Byte_TxOp
 418              	.LVL56:
  86:APA102.c      ****         RGB_Byte_TxOp(0x00);
 419              		.loc 1 86 0 discriminator 3
 420 003e 0020     		movs	r0, #0
 421 0040 FFF7FEFF 		bl	RGB_Byte_TxOp
 422              	.LVL57:
  87:APA102.c      ****         RGB_Byte_TxOp(0x00);
 423              		.loc 1 87 0 discriminator 3
 424 0044 0020     		movs	r0, #0
 425 0046 FFF7FEFF 		bl	RGB_Byte_TxOp
 426              	.LVL58:
  81:APA102.c      ****     for(i=1;i<=52;i++ )
 427              		.loc 1 81 0 discriminator 3
 428 004a B54A     		ldr	r2, .L37
 429 004c 1378     		ldrb	r3, [r2]	@ zero_extendqisi2
 430 004e 0133     		adds	r3, r3, #1
 431 0050 1370     		strb	r3, [r2]
 432              	.L24:
  81:APA102.c      ****     for(i=1;i<=52;i++ )
 433              		.loc 1 81 0 is_stmt 0 discriminator 1
 434 0052 B34B     		ldr	r3, .L37
 435 0054 1B78     		ldrb	r3, [r3]	@ zero_extendqisi2
 436 0056 342B     		cmp	r3, #52
 437 0058 EBD9     		bls	.L25
  90:APA102.c      ****     EndFrame
 438              		.loc 1 90 0 is_stmt 1
 439 005a FF20     		movs	r0, #255
 440 005c FFF7FEFF 		bl	RGB_Byte_TxOp
 441              	.LVL59:
 442 0060 FF20     		movs	r0, #255
 443 0062 FFF7FEFF 		bl	RGB_Byte_TxOp
ARM GAS  C:\Users\Revanth\AppData\Local\Temp\ccVWZ3AJ.s 			page 13


 444              	.LVL60:
 445 0066 FF20     		movs	r0, #255
 446 0068 FFF7FEFF 		bl	RGB_Byte_TxOp
 447              	.LVL61:
 448 006c FF20     		movs	r0, #255
 449 006e FFF7FEFF 		bl	RGB_Byte_TxOp
 450              	.LVL62:
  92:APA102.c      ****     switch (RngCnt)  
 451              		.loc 1 92 0
 452 0072 072C     		cmp	r4, #7
 453 0074 00F25181 		bhi	.L23
 454 0078 DFE814F0 		tbh	[pc, r4, lsl #1]
 455              	.L28:
 456 007c 0800     		.2byte	(.L27-.L28)/2
 457 007e 3100     		.2byte	(.L29-.L28)/2
 458 0080 5A00     		.2byte	(.L30-.L28)/2
 459 0082 8300     		.2byte	(.L31-.L28)/2
 460 0084 AC00     		.2byte	(.L32-.L28)/2
 461 0086 D500     		.2byte	(.L33-.L28)/2
 462 0088 FE00     		.2byte	(.L34-.L28)/2
 463 008a 2701     		.2byte	(.L35-.L28)/2
 464              		.p2align 1
 465              	.L27:
  95:APA102.c      ****             StartFrame
 466              		.loc 1 95 0
 467 008c 0020     		movs	r0, #0
 468 008e FFF7FEFF 		bl	RGB_Byte_TxOp
 469              	.LVL63:
 470 0092 0020     		movs	r0, #0
 471 0094 FFF7FEFF 		bl	RGB_Byte_TxOp
 472              	.LVL64:
 473 0098 0020     		movs	r0, #0
 474 009a FFF7FEFF 		bl	RGB_Byte_TxOp
 475              	.LVL65:
 476 009e 0020     		movs	r0, #0
 477 00a0 FFF7FEFF 		bl	RGB_Byte_TxOp
 478              	.LVL66:
  96:APA102.c      ****             BF2(45,0,0,0,0);
 479              		.loc 1 96 0
 480 00a4 0024     		movs	r4, #0
 481 00a6 0094     		str	r4, [sp]
 482 00a8 2346     		mov	r3, r4
 483 00aa 2246     		mov	r2, r4
 484 00ac 2146     		mov	r1, r4
 485 00ae 2D20     		movs	r0, #45
 486 00b0 FFF7FEFF 		bl	BF2
 487              	.LVL67:
  97:APA102.c      ****             BF2(0,0,0,0,0xE0);
 488              		.loc 1 97 0
 489 00b4 E023     		movs	r3, #224
 490 00b6 0093     		str	r3, [sp]
 491 00b8 2346     		mov	r3, r4
 492 00ba 2246     		mov	r2, r4
 493 00bc 2146     		mov	r1, r4
 494 00be 2046     		mov	r0, r4
 495 00c0 FFF7FEFF 		bl	BF2
 496              	.LVL68:
ARM GAS  C:\Users\Revanth\AppData\Local\Temp\ccVWZ3AJ.s 			page 14


  98:APA102.c      ****             EndFrame
 497              		.loc 1 98 0
 498 00c4 FF20     		movs	r0, #255
 499 00c6 FFF7FEFF 		bl	RGB_Byte_TxOp
 500              	.LVL69:
 501 00ca FF20     		movs	r0, #255
 502 00cc FFF7FEFF 		bl	RGB_Byte_TxOp
 503              	.LVL70:
 504 00d0 FF20     		movs	r0, #255
 505 00d2 FFF7FEFF 		bl	RGB_Byte_TxOp
 506              	.LVL71:
 507 00d6 FF20     		movs	r0, #255
 508 00d8 FFF7FEFF 		bl	RGB_Byte_TxOp
 509              	.LVL72:
  99:APA102.c      ****             break;
 510              		.loc 1 99 0
 511 00dc 1DE1     		b	.L23
 512              	.L29:
 101:APA102.c      ****             StartFrame
 513              		.loc 1 101 0
 514 00de 0020     		movs	r0, #0
 515 00e0 FFF7FEFF 		bl	RGB_Byte_TxOp
 516              	.LVL73:
 517 00e4 0020     		movs	r0, #0
 518 00e6 FFF7FEFF 		bl	RGB_Byte_TxOp
 519              	.LVL74:
 520 00ea 0020     		movs	r0, #0
 521 00ec FFF7FEFF 		bl	RGB_Byte_TxOp
 522              	.LVL75:
 523 00f0 0020     		movs	r0, #0
 524 00f2 FFF7FEFF 		bl	RGB_Byte_TxOp
 525              	.LVL76:
 102:APA102.c      ****             BF2(45,RngR,RngG,RngB,RngMB);
 526              		.loc 1 102 0
 527 00f6 CDF80080 		str	r8, [sp]
 528 00fa 3B46     		mov	r3, r7
 529 00fc 3246     		mov	r2, r6
 530 00fe 2946     		mov	r1, r5
 531 0100 2D20     		movs	r0, #45
 532 0102 FFF7FEFF 		bl	BF2
 533              	.LVL77:
 103:APA102.c      ****             BF2(0,0,0,0,0xE0);
 534              		.loc 1 103 0
 535 0106 E023     		movs	r3, #224
 536 0108 0093     		str	r3, [sp]
 537 010a 0023     		movs	r3, #0
 538 010c 1A46     		mov	r2, r3
 539 010e 1946     		mov	r1, r3
 540 0110 1846     		mov	r0, r3
 541 0112 FFF7FEFF 		bl	BF2
 542              	.LVL78:
 104:APA102.c      ****             EndFrame
 543              		.loc 1 104 0
 544 0116 FF20     		movs	r0, #255
 545 0118 FFF7FEFF 		bl	RGB_Byte_TxOp
 546              	.LVL79:
 547 011c FF20     		movs	r0, #255
ARM GAS  C:\Users\Revanth\AppData\Local\Temp\ccVWZ3AJ.s 			page 15


 548 011e FFF7FEFF 		bl	RGB_Byte_TxOp
 549              	.LVL80:
 550 0122 FF20     		movs	r0, #255
 551 0124 FFF7FEFF 		bl	RGB_Byte_TxOp
 552              	.LVL81:
 553 0128 FF20     		movs	r0, #255
 554 012a FFF7FEFF 		bl	RGB_Byte_TxOp
 555              	.LVL82:
 105:APA102.c      ****             break;
 556              		.loc 1 105 0
 557 012e F4E0     		b	.L23
 558              	.L30:
 108:APA102.c      ****             StartFrame        
 559              		.loc 1 108 0
 560 0130 0020     		movs	r0, #0
 561 0132 FFF7FEFF 		bl	RGB_Byte_TxOp
 562              	.LVL83:
 563 0136 0020     		movs	r0, #0
 564 0138 FFF7FEFF 		bl	RGB_Byte_TxOp
 565              	.LVL84:
 566 013c 0020     		movs	r0, #0
 567 013e FFF7FEFF 		bl	RGB_Byte_TxOp
 568              	.LVL85:
 569 0142 0020     		movs	r0, #0
 570 0144 FFF7FEFF 		bl	RGB_Byte_TxOp
 571              	.LVL86:
 110:APA102.c      ****             BF2(7,RngR,RngG,RngB,RngMB);
 572              		.loc 1 110 0
 573 0148 CDF80080 		str	r8, [sp]
 574 014c 3B46     		mov	r3, r7
 575 014e 3246     		mov	r2, r6
 576 0150 2946     		mov	r1, r5
 577 0152 0720     		movs	r0, #7
 578 0154 FFF7FEFF 		bl	BF2
 579              	.LVL87:
 111:APA102.c      ****             BF2(0,0,0,0,0xE0);
 580              		.loc 1 111 0
 581 0158 E023     		movs	r3, #224
 582 015a 0093     		str	r3, [sp]
 583 015c 0023     		movs	r3, #0
 584 015e 1A46     		mov	r2, r3
 585 0160 1946     		mov	r1, r3
 586 0162 1846     		mov	r0, r3
 587 0164 FFF7FEFF 		bl	BF2
 588              	.LVL88:
 112:APA102.c      ****             EndFrame
 589              		.loc 1 112 0
 590 0168 FF20     		movs	r0, #255
 591 016a FFF7FEFF 		bl	RGB_Byte_TxOp
 592              	.LVL89:
 593 016e FF20     		movs	r0, #255
 594 0170 FFF7FEFF 		bl	RGB_Byte_TxOp
 595              	.LVL90:
 596 0174 FF20     		movs	r0, #255
 597 0176 FFF7FEFF 		bl	RGB_Byte_TxOp
 598              	.LVL91:
 599 017a FF20     		movs	r0, #255
ARM GAS  C:\Users\Revanth\AppData\Local\Temp\ccVWZ3AJ.s 			page 16


 600 017c FFF7FEFF 		bl	RGB_Byte_TxOp
 601              	.LVL92:
 113:APA102.c      ****             break;
 602              		.loc 1 113 0
 603 0180 CBE0     		b	.L23
 604              	.L31:
 116:APA102.c      ****             StartFrame        
 605              		.loc 1 116 0
 606 0182 0020     		movs	r0, #0
 607 0184 FFF7FEFF 		bl	RGB_Byte_TxOp
 608              	.LVL93:
 609 0188 0020     		movs	r0, #0
 610 018a FFF7FEFF 		bl	RGB_Byte_TxOp
 611              	.LVL94:
 612 018e 0020     		movs	r0, #0
 613 0190 FFF7FEFF 		bl	RGB_Byte_TxOp
 614              	.LVL95:
 615 0194 0020     		movs	r0, #0
 616 0196 FFF7FEFF 		bl	RGB_Byte_TxOp
 617              	.LVL96:
 118:APA102.c      ****             BF2(15,RngR,RngG,RngB,RngMB);
 618              		.loc 1 118 0
 619 019a CDF80080 		str	r8, [sp]
 620 019e 3B46     		mov	r3, r7
 621 01a0 3246     		mov	r2, r6
 622 01a2 2946     		mov	r1, r5
 623 01a4 0F20     		movs	r0, #15
 624 01a6 FFF7FEFF 		bl	BF2
 625              	.LVL97:
 119:APA102.c      ****             BF2(0,0,0,0,0xE0);
 626              		.loc 1 119 0
 627 01aa E023     		movs	r3, #224
 628 01ac 0093     		str	r3, [sp]
 629 01ae 0023     		movs	r3, #0
 630 01b0 1A46     		mov	r2, r3
 631 01b2 1946     		mov	r1, r3
 632 01b4 1846     		mov	r0, r3
 633 01b6 FFF7FEFF 		bl	BF2
 634              	.LVL98:
 120:APA102.c      ****             EndFrame
 635              		.loc 1 120 0
 636 01ba FF20     		movs	r0, #255
 637 01bc FFF7FEFF 		bl	RGB_Byte_TxOp
 638              	.LVL99:
 639 01c0 FF20     		movs	r0, #255
 640 01c2 FFF7FEFF 		bl	RGB_Byte_TxOp
 641              	.LVL100:
 642 01c6 FF20     		movs	r0, #255
 643 01c8 FFF7FEFF 		bl	RGB_Byte_TxOp
 644              	.LVL101:
 645 01cc FF20     		movs	r0, #255
 646 01ce FFF7FEFF 		bl	RGB_Byte_TxOp
 647              	.LVL102:
 121:APA102.c      ****             break;
 648              		.loc 1 121 0
 649 01d2 A2E0     		b	.L23
 650              	.L32:
ARM GAS  C:\Users\Revanth\AppData\Local\Temp\ccVWZ3AJ.s 			page 17


 124:APA102.c      ****              StartFrame        
 651              		.loc 1 124 0
 652 01d4 0020     		movs	r0, #0
 653 01d6 FFF7FEFF 		bl	RGB_Byte_TxOp
 654              	.LVL103:
 655 01da 0020     		movs	r0, #0
 656 01dc FFF7FEFF 		bl	RGB_Byte_TxOp
 657              	.LVL104:
 658 01e0 0020     		movs	r0, #0
 659 01e2 FFF7FEFF 		bl	RGB_Byte_TxOp
 660              	.LVL105:
 661 01e6 0020     		movs	r0, #0
 662 01e8 FFF7FEFF 		bl	RGB_Byte_TxOp
 663              	.LVL106:
 126:APA102.c      ****             BF2(23,RngR,RngG,RngB,RngMB);
 664              		.loc 1 126 0
 665 01ec CDF80080 		str	r8, [sp]
 666 01f0 3B46     		mov	r3, r7
 667 01f2 3246     		mov	r2, r6
 668 01f4 2946     		mov	r1, r5
 669 01f6 1720     		movs	r0, #23
 670 01f8 FFF7FEFF 		bl	BF2
 671              	.LVL107:
 127:APA102.c      ****             BF2(0,0,0,0,0xE0);
 672              		.loc 1 127 0
 673 01fc E023     		movs	r3, #224
 674 01fe 0093     		str	r3, [sp]
 675 0200 0023     		movs	r3, #0
 676 0202 1A46     		mov	r2, r3
 677 0204 1946     		mov	r1, r3
 678 0206 1846     		mov	r0, r3
 679 0208 FFF7FEFF 		bl	BF2
 680              	.LVL108:
 128:APA102.c      ****             EndFrame
 681              		.loc 1 128 0
 682 020c FF20     		movs	r0, #255
 683 020e FFF7FEFF 		bl	RGB_Byte_TxOp
 684              	.LVL109:
 685 0212 FF20     		movs	r0, #255
 686 0214 FFF7FEFF 		bl	RGB_Byte_TxOp
 687              	.LVL110:
 688 0218 FF20     		movs	r0, #255
 689 021a FFF7FEFF 		bl	RGB_Byte_TxOp
 690              	.LVL111:
 691 021e FF20     		movs	r0, #255
 692 0220 FFF7FEFF 		bl	RGB_Byte_TxOp
 693              	.LVL112:
 129:APA102.c      ****             break;
 694              		.loc 1 129 0
 695 0224 79E0     		b	.L23
 696              	.L33:
 132:APA102.c      ****              StartFrame        
 697              		.loc 1 132 0
 698 0226 0020     		movs	r0, #0
 699 0228 FFF7FEFF 		bl	RGB_Byte_TxOp
 700              	.LVL113:
 701 022c 0020     		movs	r0, #0
ARM GAS  C:\Users\Revanth\AppData\Local\Temp\ccVWZ3AJ.s 			page 18


 702 022e FFF7FEFF 		bl	RGB_Byte_TxOp
 703              	.LVL114:
 704 0232 0020     		movs	r0, #0
 705 0234 FFF7FEFF 		bl	RGB_Byte_TxOp
 706              	.LVL115:
 707 0238 0020     		movs	r0, #0
 708 023a FFF7FEFF 		bl	RGB_Byte_TxOp
 709              	.LVL116:
 134:APA102.c      ****             BF2(30,RngR,RngG,RngB,RngMB);
 710              		.loc 1 134 0
 711 023e CDF80080 		str	r8, [sp]
 712 0242 3B46     		mov	r3, r7
 713 0244 3246     		mov	r2, r6
 714 0246 2946     		mov	r1, r5
 715 0248 1E20     		movs	r0, #30
 716 024a FFF7FEFF 		bl	BF2
 717              	.LVL117:
 135:APA102.c      ****             BF2(0,0,0,0,0xE0);
 718              		.loc 1 135 0
 719 024e E023     		movs	r3, #224
 720 0250 0093     		str	r3, [sp]
 721 0252 0023     		movs	r3, #0
 722 0254 1A46     		mov	r2, r3
 723 0256 1946     		mov	r1, r3
 724 0258 1846     		mov	r0, r3
 725 025a FFF7FEFF 		bl	BF2
 726              	.LVL118:
 136:APA102.c      ****             EndFrame
 727              		.loc 1 136 0
 728 025e FF20     		movs	r0, #255
 729 0260 FFF7FEFF 		bl	RGB_Byte_TxOp
 730              	.LVL119:
 731 0264 FF20     		movs	r0, #255
 732 0266 FFF7FEFF 		bl	RGB_Byte_TxOp
 733              	.LVL120:
 734 026a FF20     		movs	r0, #255
 735 026c FFF7FEFF 		bl	RGB_Byte_TxOp
 736              	.LVL121:
 737 0270 FF20     		movs	r0, #255
 738 0272 FFF7FEFF 		bl	RGB_Byte_TxOp
 739              	.LVL122:
 137:APA102.c      ****             break;
 740              		.loc 1 137 0
 741 0276 50E0     		b	.L23
 742              	.L34:
 140:APA102.c      ****              StartFrame        
 743              		.loc 1 140 0
 744 0278 0020     		movs	r0, #0
 745 027a FFF7FEFF 		bl	RGB_Byte_TxOp
 746              	.LVL123:
 747 027e 0020     		movs	r0, #0
 748 0280 FFF7FEFF 		bl	RGB_Byte_TxOp
 749              	.LVL124:
 750 0284 0020     		movs	r0, #0
 751 0286 FFF7FEFF 		bl	RGB_Byte_TxOp
 752              	.LVL125:
 753 028a 0020     		movs	r0, #0
ARM GAS  C:\Users\Revanth\AppData\Local\Temp\ccVWZ3AJ.s 			page 19


 754 028c FFF7FEFF 		bl	RGB_Byte_TxOp
 755              	.LVL126:
 142:APA102.c      ****             BF2(38,RngR,RngG,RngB,RngMB);
 756              		.loc 1 142 0
 757 0290 CDF80080 		str	r8, [sp]
 758 0294 3B46     		mov	r3, r7
 759 0296 3246     		mov	r2, r6
 760 0298 2946     		mov	r1, r5
 761 029a 2620     		movs	r0, #38
 762 029c FFF7FEFF 		bl	BF2
 763              	.LVL127:
 143:APA102.c      ****             BF2(0,0,0,0,0xE0);
 764              		.loc 1 143 0
 765 02a0 E023     		movs	r3, #224
 766 02a2 0093     		str	r3, [sp]
 767 02a4 0023     		movs	r3, #0
 768 02a6 1A46     		mov	r2, r3
 769 02a8 1946     		mov	r1, r3
 770 02aa 1846     		mov	r0, r3
 771 02ac FFF7FEFF 		bl	BF2
 772              	.LVL128:
 144:APA102.c      ****             EndFrame
 773              		.loc 1 144 0
 774 02b0 FF20     		movs	r0, #255
 775 02b2 FFF7FEFF 		bl	RGB_Byte_TxOp
 776              	.LVL129:
 777 02b6 FF20     		movs	r0, #255
 778 02b8 FFF7FEFF 		bl	RGB_Byte_TxOp
 779              	.LVL130:
 780 02bc FF20     		movs	r0, #255
 781 02be FFF7FEFF 		bl	RGB_Byte_TxOp
 782              	.LVL131:
 783 02c2 FF20     		movs	r0, #255
 784 02c4 FFF7FEFF 		bl	RGB_Byte_TxOp
 785              	.LVL132:
 145:APA102.c      ****             break;   
 786              		.loc 1 145 0
 787 02c8 27E0     		b	.L23
 788              	.L35:
 147:APA102.c      ****              StartFrame        
 789              		.loc 1 147 0
 790 02ca 0020     		movs	r0, #0
 791 02cc FFF7FEFF 		bl	RGB_Byte_TxOp
 792              	.LVL133:
 793 02d0 0020     		movs	r0, #0
 794 02d2 FFF7FEFF 		bl	RGB_Byte_TxOp
 795              	.LVL134:
 796 02d6 0020     		movs	r0, #0
 797 02d8 FFF7FEFF 		bl	RGB_Byte_TxOp
 798              	.LVL135:
 799 02dc 0020     		movs	r0, #0
 800 02de FFF7FEFF 		bl	RGB_Byte_TxOp
 801              	.LVL136:
 149:APA102.c      ****             BF2(45,RngR,RngG,RngB,RngMB);
 802              		.loc 1 149 0
 803 02e2 CDF80080 		str	r8, [sp]
 804 02e6 3B46     		mov	r3, r7
ARM GAS  C:\Users\Revanth\AppData\Local\Temp\ccVWZ3AJ.s 			page 20


 805 02e8 3246     		mov	r2, r6
 806 02ea 2946     		mov	r1, r5
 807 02ec 2D20     		movs	r0, #45
 808 02ee FFF7FEFF 		bl	BF2
 809              	.LVL137:
 150:APA102.c      ****             BF2(0,0,0,0,0xE0);
 810              		.loc 1 150 0
 811 02f2 E023     		movs	r3, #224
 812 02f4 0093     		str	r3, [sp]
 813 02f6 0023     		movs	r3, #0
 814 02f8 1A46     		mov	r2, r3
 815 02fa 1946     		mov	r1, r3
 816 02fc 1846     		mov	r0, r3
 817 02fe FFF7FEFF 		bl	BF2
 818              	.LVL138:
 151:APA102.c      ****             EndFrame
 819              		.loc 1 151 0
 820 0302 FF20     		movs	r0, #255
 821 0304 FFF7FEFF 		bl	RGB_Byte_TxOp
 822              	.LVL139:
 823 0308 FF20     		movs	r0, #255
 824 030a FFF7FEFF 		bl	RGB_Byte_TxOp
 825              	.LVL140:
 826 030e FF20     		movs	r0, #255
 827 0310 FFF7FEFF 		bl	RGB_Byte_TxOp
 828              	.LVL141:
 829 0314 FF20     		movs	r0, #255
 830 0316 FFF7FEFF 		bl	RGB_Byte_TxOp
 831              	.LVL142:
 832              	.L23:
 154:APA102.c      **** }
 833              		.loc 1 154 0
 834 031a 02B0     		add	sp, sp, #8
 835              		.cfi_def_cfa_offset 24
 836              		@ sp needed
 837 031c BDE8F081 		pop	{r4, r5, r6, r7, r8, pc}
 838              	.LVL143:
 839              	.L38:
 840              		.align	2
 841              	.L37:
 842 0320 00000000 		.word	i
 843              		.cfi_endproc
 844              	.LFE65:
 845              		.size	Ring, .-Ring
 846              		.comm	SPI_RGB_DATA,4,4
 847              		.global	ENFB
 848              		.global	STFB
 849              		.global	LedCnt
 850              		.global	GnR
 851              		.global	BnB
 852              		.global	MaxB
 853              		.global	B
 854              		.comm	G,1,1
 855              		.comm	R,1,1
 856              		.global	j
 857              		.comm	i,1,1
 858              		.data
ARM GAS  C:\Users\Revanth\AppData\Local\Temp\ccVWZ3AJ.s 			page 21


 859              		.align	2
 860              		.type	ENFB, %object
 861              		.size	ENFB, 4
 862              	ENFB:
 863 0000 FF       		.byte	-1
 864 0001 FF       		.byte	-1
 865 0002 FF       		.byte	-1
 866 0003 FF       		.byte	-1
 867              		.bss
 868              		.align	2
 869              		.set	.LANCHOR0,. + 0
 870              		.type	BnB, %object
 871              		.size	BnB, 2
 872              	BnB:
 873 0000 0000     		.space	2
 874              		.type	GnR, %object
 875              		.size	GnR, 2
 876              	GnR:
 877 0002 0000     		.space	2
 878              		.type	STFB, %object
 879              		.size	STFB, 4
 880              	STFB:
 881 0004 00000000 		.space	4
 882              		.type	LedCnt, %object
 883              		.size	LedCnt, 1
 884              	LedCnt:
 885 0008 00       		.space	1
 886              		.type	MaxB, %object
 887              		.size	MaxB, 1
 888              	MaxB:
 889 0009 00       		.space	1
 890              		.type	B, %object
 891              		.size	B, 1
 892              	B:
 893 000a 00       		.space	1
 894              		.type	j, %object
 895              		.size	j, 1
 896              	j:
 897 000b 00       		.space	1
 898              		.text
 899              	.Letext0:
 900              		.file 2 "c:\\program files (x86)\\cypress\\psoc creator\\4.4\\psoc creator\\import\\gnu\\arm\\5.4.
 901              		.file 3 "c:\\program files (x86)\\cypress\\psoc creator\\4.4\\psoc creator\\import\\gnu\\arm\\5.4.
 902              		.file 4 "Generated_Source\\PSoC5/cytypes.h"
 903              		.file 5 "Generated_Source\\PSoC5/core_cm3.h"
 904              		.file 6 "Generated_Source\\PSoC5/Pin_SDO_RGB.h"
 905              		.file 7 "Generated_Source\\PSoC5/Pin_Clock_RGB.h"
 906              		.file 8 "Generated_Source\\PSoC5/CyLib.h"