ARM GAS  C:\Users\Revanth\AppData\Local\Temp\ccHsQCvB.s 			page 1


   1              		.syntax unified
   2              		.cpu cortex-m3
   3              		.fpu softvfp
   4              		.eabi_attribute 20, 1
   5              		.eabi_attribute 21, 1
   6              		.eabi_attribute 23, 3
   7              		.eabi_attribute 24, 1
   8              		.eabi_attribute 25, 1
   9              		.eabi_attribute 26, 1
  10              		.eabi_attribute 30, 1
  11              		.eabi_attribute 34, 1
  12              		.eabi_attribute 18, 4
  13              		.thumb
  14              		.syntax unified
  15              		.file	"AS76.c"
  16              		.text
  17              	.Ltext0:
  18              		.cfi_sections	.debug_frame
  19              		.section	.text.wait_interrupt_Handler,"ax",%progbits
  20              		.align	2
  21              		.global	wait_interrupt_Handler
  22              		.thumb
  23              		.thumb_func
  24              		.type	wait_interrupt_Handler, %function
  25              	wait_interrupt_Handler:
  26              	.LFB64:
  27              		.file 1 "AS76.c"
   1:AS76.c        **** 
   2:AS76.c        **** /* ========================================
   3:AS76.c        **** 
   4:AS76.c        ****    Copyright Sigtuple, 2022
   5:AS76.c        ****    All Rights Reserved
   6:AS76.c        ****    UNPUBLISHED, LICENSED SOFTWARE.
   7:AS76.c        **** 
   8:AS76.c        ****    CONFIDENTIAL AND PROPRIETARY INFORMATION
   9:AS76.c        ****    WHICH IS THE PROPERTY OF SIGTUPLE.
  10:AS76.c        **** 
  11:AS76.c        ****    ========================================
  12:AS76.c        **** */
  13:AS76.c        **** #include "AS76.h"
  14:AS76.c        **** #include "variables.h"
  15:AS76.c        **** #include "project.h"
  16:AS76.c        **** #include "math.h"
  17:AS76.c        **** #include "configuration.h"
  18:AS76.c        **** #include <stdlib.h>
  19:AS76.c        **** 
  20:AS76.c        **** bool Time_Out_Error = true;
  21:AS76.c        **** unsigned int command;
  22:AS76.c        **** int Error = 0;
  23:AS76.c        **** 
  24:AS76.c        **** int32 Position_Y_Requested = 0; // Variable to hold position of Motor X in uSteps 51200 uSteps = 1 
  25:AS76.c        **** int32 Position_X_Requested = 0; // Variable to hold position of Motor X in uSteps 51200 uSteps = 1 
  26:AS76.c        **** int32 Input_Position_X_Temp =0;
  27:AS76.c        **** int32 Position_Z_Requested = 0; // Variable to hold position of Motor X in uSteps 51200 uSteps = 1 
  28:AS76.c        **** int32 Position_T_Requested = 0; // Variable to hold position of Motor X in uSteps 51200 uSteps = 1 
  29:AS76.c        **** 
  30:AS76.c        **** int32 time_ms   = 0;
ARM GAS  C:\Users\Revanth\AppData\Local\Temp\ccHsQCvB.s 			page 2


  31:AS76.c        **** int32 oil_speed = 0;
  32:AS76.c        **** int32 oil_dir   = 0;
  33:AS76.c        **** 
  34:AS76.c        **** volatile int32 X_QuadPosition = 0; // Variable to hold position of Motor X in encoder steps, this v
  35:AS76.c        **** volatile int32 Y_QuadPosition = 0; // Variable to hold position of Motor Y in encoder steps, this v
  36:AS76.c        **** volatile int32 Z_QuadPosition = 0; // Variable to hold position of Motor Z in encoder steps, this v
  37:AS76.c        **** volatile int32 T_QuadPosition = 0; // Variable to hold position of Motor T in encoder steps, this v
  38:AS76.c        **** int EncoderTZSelect = 0; //Variable to indicate which encoder is being currently selected Z or T
  39:AS76.c        **** int Buffer_Z_QuadPosition = 0; //Buffer variable to store Z Encoder value when T Encoder channel is
  40:AS76.c        **** int Buffer_T_QuadPosition = 0; //Buffer variable to store T Encoder value when Z Encoder channel is
  41:AS76.c        **** 
  42:AS76.c        **** float X_Pitchfactor = 12.8; //Pitchfactor = 51200/(Encoder CPR * 4), where 51200 is the uStep requi
  43:AS76.c        **** float Y_Pitchfactor = 12.8; //Pitchfactor = 51200/(Encoder CPR * 4), where 51200 is the uStep requi
  44:AS76.c        **** float Z_Pitchfactor = 3.2;  //Pitchfactor = 51200/(Encoder CPR * 4), where 51200 is the uStep requi
  45:AS76.c        **** float T_Pitchfactor = 3.2;  //Pitchfactor = 51200/(Encoder CPR * 4), where 51200 is the uStep requi
  46:AS76.c        **** 
  47:AS76.c        **** unsigned int Motor_Speed_X = (51200*6); //Default_X_Motor_Speed - 6 Rotations per second;
  48:AS76.c        **** unsigned int Motor_Speed_Y = (51200*6); //Default_Y_Motor_Speed - 6 Rotations per second;
  49:AS76.c        **** unsigned int Motor_Speed_Z = (51200*6); //Default_Z_Motor_Speed - 3 Rotations per second;
  50:AS76.c        **** 
  51:AS76.c        **** bool HomeX_done = true; //Variable to indicate if Homing procedure done  or not in X Motor, intial 
  52:AS76.c        **** bool HomeY_done = true; //Variable to indicate if Homing procedure done  or not in Y Motor, intial 
  53:AS76.c        **** bool HomeZ_done = true; //Variable to indicate if Homing procedure done  or not in Z Motor, intial 
  54:AS76.c        **** bool HomeT_done = true; //Variable to indicate if Homing procedure done  or not in T Motor, intial 
  55:AS76.c        **** 
  56:AS76.c        **** bool HomeX_done_Buffer = false; //Variable to indicate if Homing procedure done  or not in X Motor,
  57:AS76.c        **** bool HomeY_done_Buffer = false; //Variable to indicate if Homing procedure done  or not in Y Motor,
  58:AS76.c        **** bool HomeZ_done_Buffer = false; //Variable to indicate if Homing procedure done  or not in Z Motor,
  59:AS76.c        **** bool HomeT_done_Buffer = false; //Variable to indicate if Homing procedure done  or not in T Motor,
  60:AS76.c        **** 
  61:AS76.c        **** // PWM Value for Condenser LED and Barcode LED
  62:AS76.c        **** int PWM_Condenser_comare_value = 200;
  63:AS76.c        **** int PWM_barcode_comare_value = 0;
  64:AS76.c        **** 
  65:AS76.c        **** // Variable to store the status byte of the corresponding motor driver
  66:AS76.c        **** extern uint8_t status_x;
  67:AS76.c        **** extern uint8_t status_y;
  68:AS76.c        **** extern uint8_t status_z;
  69:AS76.c        **** extern uint8_t status_t;
  70:AS76.c        **** 
  71:AS76.c        **** 
  72:AS76.c        **** uint16_t ms_count = 0;
  73:AS76.c        **** bool exit_loop =0;
  74:AS76.c        **** CY_ISR(wait_interrupt_Handler) {
  28              		.loc 1 74 0
  29              		.cfi_startproc
  30              		@ args = 0, pretend = 0, frame = 0
  31              		@ frame_needed = 0, uses_anonymous_args = 0
  32              		@ link register save eliminated.
  75:AS76.c        ****     ms_count++;
  33              		.loc 1 75 0
  34 0000 074A     		ldr	r2, .L3
  35 0002 1388     		ldrh	r3, [r2]
  36 0004 0133     		adds	r3, r3, #1
  37 0006 9BB2     		uxth	r3, r3
  38 0008 1380     		strh	r3, [r2]	@ movhi
  76:AS76.c        ****      
ARM GAS  C:\Users\Revanth\AppData\Local\Temp\ccHsQCvB.s 			page 3


  77:AS76.c        ****     if(ms_count == 11000) 
  39              		.loc 1 77 0
  40 000a 42F6F822 		movw	r2, #11000
  41 000e 9342     		cmp	r3, r2
  42 0010 04D1     		bne	.L1
  78:AS76.c        ****     { // ~30 second
  79:AS76.c        ****         
  80:AS76.c        ****         exit_loop = 1;
  43              		.loc 1 80 0
  44 0012 034B     		ldr	r3, .L3
  45 0014 0122     		movs	r2, #1
  46 0016 9A70     		strb	r2, [r3, #2]
  81:AS76.c        ****         ms_count = 0; // reset ms counter
  47              		.loc 1 81 0
  48 0018 0022     		movs	r2, #0
  49 001a 1A80     		strh	r2, [r3]	@ movhi
  50              	.L1:
  51 001c 7047     		bx	lr
  52              	.L4:
  53 001e 00BF     		.align	2
  54              	.L3:
  55 0020 00000000 		.word	.LANCHOR0
  56              		.cfi_endproc
  57              	.LFE64:
  58              		.size	wait_interrupt_Handler, .-wait_interrupt_Handler
  59              		.section	.text.Initialize_PWM,"ax",%progbits
  60              		.align	2
  61              		.global	Initialize_PWM
  62              		.thumb
  63              		.thumb_func
  64              		.type	Initialize_PWM, %function
  65              	Initialize_PWM:
  66              	.LFB80:
  82:AS76.c        ****     }
  83:AS76.c        **** }
  84:AS76.c        **** 
  85:AS76.c        **** //Motor Movment Functions Start-------------------------------------------------------
  86:AS76.c        **** 
  87:AS76.c        **** /* --------------------------------------------------------------------------------------------
  88:AS76.c        **** Function Name        : GotoPos
  89:AS76.c        **** 
  90:AS76.c        **** Prerequist Knowledge : TMC5160 Register Sets, Stepper Motor
  91:AS76.c        **** 
  92:AS76.c        **** Function Description : This Function is used to move the stepper motor to a desired position in the
  93:AS76.c        ****                        provided axis
  94:AS76.c        **** 
  95:AS76.c        **** Return Type & Data   : Void
  96:AS76.c        **** 
  97:AS76.c        **** Variable Updation:   : Nil
  98:AS76.c        **** 
  99:AS76.c        **** Numnber of Arguments : 2
 100:AS76.c        **** 
 101:AS76.c        **** -----Argument 1-----
 102:AS76.c        **** Name                 : Pos
 103:AS76.c        **** Tupe                 : int
 104:AS76.c        **** Description          : This Argument Represents the Target postion in 1/256 microsteps to which the
 105:AS76.c        ****                        stepper should move
ARM GAS  C:\Users\Revanth\AppData\Local\Temp\ccHsQCvB.s 			page 4


 106:AS76.c        **** Condition            : Nil                       
 107:AS76.c        **** --------------------
 108:AS76.c        **** 
 109:AS76.c        **** -----Argument 2-----
 110:AS76.c        **** Name                 : Motor
 111:AS76.c        **** Tupe                 : uint8_t
 112:AS76.c        **** Description          : This Argument Represents the driver channel
 113:AS76.c        **** Condition            : This Value must range from 0x00 to 0x04 since there are only 5 channels
 114:AS76.c        ****                        available in AS76 System Configuration, condition to be checked in 
 115:AS76.c        ****                        SPI_MOTOR_CHIP_SELECT Function                       
 116:AS76.c        **** --------------------
 117:AS76.c        **** 
 118:AS76.c        **** 
 119:AS76.c        **** 
 120:AS76.c        **** ---------------------------------------------------------------------------------------------*/
 121:AS76.c        **** void GotoPos(int Pos, uint8_t Motor)
 122:AS76.c        **** {
 123:AS76.c        ****     Write_32bitSPI_DATA (0x20  , (int) 0x00000000, Motor );
 124:AS76.c        ****     Write_32bitSPI_DATA (0x05  , Pos, Motor );
 125:AS76.c        ****     Write_32bitSPI_DATA (0x2D  , Pos, Motor );   
 126:AS76.c        **** 
 127:AS76.c        **** }
 128:AS76.c        **** 
 129:AS76.c        **** ///////////////////////////////////////////////////////////////////////////////////////
 130:AS76.c        **** 
 131:AS76.c        **** /////////////////////////////////////Homing X//////////////////////////////////////////
 132:AS76.c        **** 
 133:AS76.c        **** /* --------------------------------------------------------------------------------------------
 134:AS76.c        **** Function Name        : homeX
 135:AS76.c        **** 
 136:AS76.c        **** Prerequist Knowledge : Homing of stepper motor system, TM5160 Datasheet, Encoders
 137:AS76.c        **** 
 138:AS76.c        **** Function Description : This Function is used to home the motor X, where motor moves at specific
 139:AS76.c        ****                        Low speed towards left until it hits the limit switch on the left side then 
 140:AS76.c        ****                        motor rotates 1 rotation next the motor moves at specific Low speed towards 
 141:AS76.c        ****                        left until it hits the limit switch then motor gain moves 1 rotaion with ste
 142:AS76.c        ****                        loss correction and that point TMC5160 marks as position 0 and resets the X 
 143:AS76.c        ****                        Channel encoder.
 144:AS76.c        **** 
 145:AS76.c        **** Return Type & Data   :Void
 146:AS76.c        **** 
 147:AS76.c        **** Variable Updation: status_x, Error, X_QuadPosition
 148:AS76.c        **** 
 149:AS76.c        **** Numnber of Arguments : 1
 150:AS76.c        **** 
 151:AS76.c        **** -----Argument 1-----
 152:AS76.c        **** Name                 : Motor
 153:AS76.c        **** Tupe                 : uint8_t
 154:AS76.c        **** Description          : This Argument Represents the driver channel
 155:AS76.c        **** Condition            : This Value must range from 0x00 to 0x04 since there are only 5 channels
 156:AS76.c        ****                        available in AS76 System Configuration, condition to be checked in 
 157:AS76.c        ****                        SPI_MOTOR_CHIP_SELECT Function                       
 158:AS76.c        **** --------------------
 159:AS76.c        **** 
 160:AS76.c        **** 
 161:AS76.c        **** 
 162:AS76.c        **** ---------------------------------------------------------------------------------------------*/
ARM GAS  C:\Users\Revanth\AppData\Local\Temp\ccHsQCvB.s 			page 5


 163:AS76.c        **** 
 164:AS76.c        **** void homeX(uint8_t Motor)
 165:AS76.c        **** {
 166:AS76.c        ****     update_max_velocity((307200), Motor); // Set Motor to low speed
 167:AS76.c        ****     Write_32bitSPI_DATA (0x20  , (int) 0x00000002, Motor ); // Move the motor to Left continuously
 168:AS76.c        ****     CyDelayUs(200);
 169:AS76.c        ****     Read_32bitSPI_DATA(0x04, Motor, &status_x); // Read the status register of TMC5160
 170:AS76.c        ****     CyDelayUs(500);
 171:AS76.c        ****     Read_32bitSPI_DATA(0x04, Motor, &status_x); // Read the status register of TMC5160
 172:AS76.c        ****     while ( (status_x & 0x40) == 0x00) // Condition to check if the Left limit switch is pressed or
 173:AS76.c        ****     {
 174:AS76.c        ****        wait_timer_Start();
 175:AS76.c        ****        wait_interrupt_StartEx(wait_interrupt_Handler);
 176:AS76.c        ****        Read_32bitSPI_DATA(0x04, Motor, &status_x); // Read the status register of TMC5160
 177:AS76.c        ****        CyDelayUs(100);
 178:AS76.c        ****        if(exit_loop == 1)
 179:AS76.c        ****        {
 180:AS76.c        ****         Error = 1;
 181:AS76.c        ****         Send_Feedback_to_USB(Error);
 182:AS76.c        ****         wait_timer_Stop();
 183:AS76.c        ****         Write_32bitSPI_DATA (0x20  , (int) 0x00000000, Motor );
 184:AS76.c        ****         Write_32bitSPI_DATA (0x21  , (int) 0x0000000, Motor); // Mark the current postion as 0
 185:AS76.c        ****         Write_32bitSPI_DATA (0x2D  , 0x00000000, Motor ); // Set thye target position as 0
 186:AS76.c        ****         exit_loop = 0;
 187:AS76.c        ****         Error =0;
 188:AS76.c        ****         return;        
 189:AS76.c        ****     }
 190:AS76.c        ****     }    
 191:AS76.c        ****     wait_timer_Stop();
 192:AS76.c        ****     exit_loop =0;
 193:AS76.c        ****     
 194:AS76.c        ****     
 195:AS76.c        ****     Write_32bitSPI_DATA (0x21  , (int) 0x0000000, Motor); //Write the X_Actual Register of TMC5160 
 196:AS76.c        ****     CyDelayUs(10);
 197:AS76.c        ****     /*
 198:AS76.c        ****     GotoPos(((256*200)*2), Motor); // Move the motor 2 rotations (102400 uSteps)
 199:AS76.c        ****     CyDelayUs(500);
 200:AS76.c        ****     // Read the status byte register to whther the required position is reached by the motor or not
 201:AS76.c        ****     Read_32bitSPI_DATA(0x04, Motor, &status_x); // Read the status register of TMC5160
 202:AS76.c        ****     CyDelayUs(500);
 203:AS76.c        ****     Read_32bitSPI_DATA(0x04, Motor, &status_x); // Read the status register of TMC5160
 204:AS76.c        ****     while ( (status_x & 0x20) == 0x00) // Check if target position is reached or not
 205:AS76.c        ****     {
 206:AS76.c        ****         Read_32bitSPI_DATA(0x04, Motor, &status_x); // Read the status register of TMC5160
 207:AS76.c        ****         CyDelayUs(100);
 208:AS76.c        ****        
 209:AS76.c        ****     }
 210:AS76.c        ****     
 211:AS76.c        ****     // Till the above point of code 1st homing is done repeat the same procedure at lower speed to 
 212:AS76.c        ****     Write_32bitSPI_DATA (0x0B  , (int) 127, Motor );
 213:AS76.c        ****     Write_32bitSPI_DATA (0x11  , (int) 0x00070103, Motor );
 214:AS76.c        ****     update_max_velocity((53687), Motor); // Update motor speed to 1 rotation/second
 215:AS76.c        ****     Write_32bitSPI_DATA (0x20  , (int) 0x00000002, Motor ); // // Move the motor to Left continuous
 216:AS76.c        ****     CyDelayUs(200);
 217:AS76.c        ****     Read_32bitSPI_DATA(0x04, Motor, &status_x);
 218:AS76.c        ****     CyDelayUs(500);
 219:AS76.c        ****     Read_32bitSPI_DATA(0x04, Motor, &status_x);
ARM GAS  C:\Users\Revanth\AppData\Local\Temp\ccHsQCvB.s 			page 6


 220:AS76.c        ****     while ( (status_x & 0x40) == 0x00)
 221:AS76.c        ****     {
 222:AS76.c        ****        Read_32bitSPI_DATA(0x04, Motor, &status_x);
 223:AS76.c        ****        CyDelayUs(100);
 224:AS76.c        ****     }
 225:AS76.c        **** */
 226:AS76.c        ****     Write_32bitSPI_DATA (0x21  , (int) 0x0000000, Motor);
 227:AS76.c        ****     //X_last_position = 0;
 228:AS76.c        ****     QuadDec_X_SetCounter(0);
 229:AS76.c        ****     HomeX_done = true;
 230:AS76.c        ****     HomeY_done = true;
 231:AS76.c        ****     HomeZ_done = true;
 232:AS76.c        ****     HomeT_done = true;
 233:AS76.c        ****     CyDelayUs(100);
 234:AS76.c        ****     goTo_X((256*200)*1); // Move the motor 1 rotation with error corrction mechanism based on encod
 235:AS76.c        ****     HomeX_done = HomeX_done_Buffer;
 236:AS76.c        ****     HomeY_done = HomeY_done_Buffer;
 237:AS76.c        ****     HomeZ_done = HomeZ_done_Buffer;
 238:AS76.c        ****     HomeT_done = HomeT_done_Buffer;
 239:AS76.c        ****     CyDelayUs(100);
 240:AS76.c        ****     Write_32bitSPI_DATA (0x21  , (int) 0x0000000, Motor); // Mark the current postion as 0
 241:AS76.c        ****     Write_32bitSPI_DATA (0x2D  , 0x00000000, Motor ); // Set thye target position as 0
 242:AS76.c        ****     update_max_velocity(381178, Motor); // update the motor speed to to 10 rotations per second 536
 243:AS76.c        ****     Write_32bitSPI_DATA (0x0B  , (int) 150, Motor );
 244:AS76.c        ****     Write_32bitSPI_DATA (0x10  , (int) 0x00070101, Motor );
 245:AS76.c        ****     //Write_32bitSPI_DATA (0x25  , (51200*5)-100, Motor );
 246:AS76.c        **** 
 247:AS76.c        **** 
 248:AS76.c        ****     QuadDec_X_SetCounter(0); //set the encoder counter value as 0
 249:AS76.c        ****     X_QuadPosition =0 ; // set the encoder variable to 0
 250:AS76.c        ****     HomeX_done = true;
 251:AS76.c        ****     HomeX_done_Buffer = true;
 252:AS76.c        ****     Write_Debug_UART_Char("HomeX executed  \r\n");
 253:AS76.c        **** 
 254:AS76.c        **** }
 255:AS76.c        **** 
 256:AS76.c        **** ///////////////////////////////////////////////////////////////////////////////////////
 257:AS76.c        **** 
 258:AS76.c        **** /////////////////////////////////////Homing Y//////////////////////////////////////////
 259:AS76.c        **** 
 260:AS76.c        **** /* --------------------------------------------------------------------------------------------
 261:AS76.c        **** Function Name        : homeY
 262:AS76.c        **** 
 263:AS76.c        **** Prerequist Knowledge : Homing of stepper motor system, TM5160 Datasheet, Encoders
 264:AS76.c        **** 
 265:AS76.c        **** Function Description : This Function is used to home the motor Y, where motor moves at specific
 266:AS76.c        ****                        Low speed towards left until it hits the limit switch on the left side then 
 267:AS76.c        ****                        motor rotates 1 rotation next the motor moves at specific Low speed towards 
 268:AS76.c        ****                        left until it hits the limit switch then motor gain moves 1 rotaion with ste
 269:AS76.c        ****                        loss correction and that point TMC5160 marks as position 0 and resets the Y 
 270:AS76.c        ****                        Channel encoder.
 271:AS76.c        **** 
 272:AS76.c        **** Return Type & Data   :Void
 273:AS76.c        **** 
 274:AS76.c        **** Variable Updation: status_y, Error, Y_QuadPosition
 275:AS76.c        **** 
 276:AS76.c        **** Numnber of Arguments : 1
ARM GAS  C:\Users\Revanth\AppData\Local\Temp\ccHsQCvB.s 			page 7


 277:AS76.c        **** 
 278:AS76.c        **** -----Argument 1-----
 279:AS76.c        **** Name                 : Motor
 280:AS76.c        **** Tupe                 : uint8_t
 281:AS76.c        **** Description          : This Argument Represents the driver channel
 282:AS76.c        **** Condition            : This Value must range from 0x00 to 0x04 since there are only 5 channels
 283:AS76.c        ****                        available in AS76 System Configuration, condition to be checked in 
 284:AS76.c        ****                        SPI_MOTOR_CHIP_SELECT Function                       
 285:AS76.c        **** --------------------
 286:AS76.c        **** 
 287:AS76.c        **** 
 288:AS76.c        **** 
 289:AS76.c        **** ---------------------------------------------------------------------------------------------*/
 290:AS76.c        **** 
 291:AS76.c        **** void homeY(uint8_t Motor)
 292:AS76.c        **** {
 293:AS76.c        ****     update_max_velocity((307200), Motor);
 294:AS76.c        ****     Write_32bitSPI_DATA (0x20  , (int) 0x00000002, Motor );
 295:AS76.c        ****     CyDelayUs(50);
 296:AS76.c        ****     Read_32bitSPI_DATA(0x04, Motor, &status_y);
 297:AS76.c        ****     CyDelayUs(500);
 298:AS76.c        ****     Read_32bitSPI_DATA(0x04, Motor, &status_y);
 299:AS76.c        ****     while ( (status_y & 0x40) == 0x00)
 300:AS76.c        ****     {
 301:AS76.c        ****         wait_timer_Start();
 302:AS76.c        ****         wait_interrupt_StartEx(wait_interrupt_Handler);
 303:AS76.c        ****         Read_32bitSPI_DATA(0x04, Motor, &status_y);
 304:AS76.c        ****        
 305:AS76.c        ****         if(exit_loop == 1)
 306:AS76.c        ****         {
 307:AS76.c        ****         Error = 8;
 308:AS76.c        ****         Send_Feedback_to_USB(Error);
 309:AS76.c        ****         wait_timer_Stop();
 310:AS76.c        ****         Write_32bitSPI_DATA (0x20  , (int) 0x00000000, Motor );
 311:AS76.c        ****         Write_32bitSPI_DATA (0x21  , (int) 0x0000000, Motor); // Mark the current postion as 0
 312:AS76.c        ****         Write_32bitSPI_DATA (0x2D  , 0x00000000, Motor ); // Set thye target position as 0
 313:AS76.c        ****         exit_loop = 0;
 314:AS76.c        ****         Error = 0;
 315:AS76.c        ****         return;
 316:AS76.c        ****         }
 317:AS76.c        ****     CyDelayUs(100);
 318:AS76.c        ****     }
 319:AS76.c        ****     wait_timer_Stop();
 320:AS76.c        ****     exit_loop =0;
 321:AS76.c        ****     
 322:AS76.c        ****     
 323:AS76.c        ****     Write_32bitSPI_DATA (0x21  , (int) 0x0000000, Motor);
 324:AS76.c        ****     CyDelayUs(10);
 325:AS76.c        ****     /*
 326:AS76.c        ****     GotoPos(((256*200)*1), Motor);
 327:AS76.c        ****     CyDelayUs(500);
 328:AS76.c        ****     Read_32bitSPI_DATA(0x04, Motor, &status_y);
 329:AS76.c        ****     CyDelayUs(500);
 330:AS76.c        ****     Read_32bitSPI_DATA(0x04, Motor, &status_y);
 331:AS76.c        ****     while ( (status_y & 0x20) == 0x00)
 332:AS76.c        ****     {
 333:AS76.c        ****        Read_32bitSPI_DATA(0x04, Motor, &status_y);
ARM GAS  C:\Users\Revanth\AppData\Local\Temp\ccHsQCvB.s 			page 8


 334:AS76.c        ****         CyDelayUs(100);
 335:AS76.c        ****        
 336:AS76.c        ****     }
 337:AS76.c        ****     Write_32bitSPI_DATA (0x0B  , (int) 180, Motor );
 338:AS76.c        ****     Write_32bitSPI_DATA (0x10  , (int) 0x00070103, Motor );
 339:AS76.c        ****     update_max_velocity(53687, Motor);
 340:AS76.c        ****     Write_32bitSPI_DATA (0x20  , (int) 0x00000002, Motor );
 341:AS76.c        ****     CyDelayUs(200);
 342:AS76.c        ****     Read_32bitSPI_DATA(0x04, Motor, &status_y);
 343:AS76.c        ****     CyDelayUs(500);
 344:AS76.c        ****     Read_32bitSPI_DATA(0x04, Motor, &status_y);
 345:AS76.c        ****     while ( (status_y & 0x40) == 0x00)
 346:AS76.c        ****     {
 347:AS76.c        ****        Read_32bitSPI_DATA(0x04, Motor, &status_y);
 348:AS76.c        ****        CyDelayUs(100);
 349:AS76.c        ****     }
 350:AS76.c        ****     */
 351:AS76.c        **** 
 352:AS76.c        ****     Write_32bitSPI_DATA (0x21  , (int) 0x0000000, Motor);
 353:AS76.c        ****     //Y_last_position = 0;
 354:AS76.c        ****     QuadDec_Y_SetCounter(0);
 355:AS76.c        ****     HomeX_done = true;
 356:AS76.c        ****     HomeY_done = true;
 357:AS76.c        ****     HomeZ_done = true;
 358:AS76.c        ****     HomeT_done = true;
 359:AS76.c        ****     CyDelayUs(100);
 360:AS76.c        ****     //goTo_Y((256*200)*1);
 361:AS76.c        ****     goTo_Y(19200);
 362:AS76.c        ****     HomeX_done = HomeX_done_Buffer;
 363:AS76.c        ****     HomeY_done = HomeY_done_Buffer;
 364:AS76.c        ****     HomeZ_done = HomeZ_done_Buffer;
 365:AS76.c        ****     HomeT_done = HomeT_done_Buffer;
 366:AS76.c        ****     CyDelayUs(100);
 367:AS76.c        ****     Write_32bitSPI_DATA (0x21  , (int) 0x0000000, Motor); 
 368:AS76.c        ****     Write_32bitSPI_DATA (0x2D  , 0x00000000, Motor );
 369:AS76.c        ****     update_max_velocity(381178, Motor);
 370:AS76.c        ****     Write_32bitSPI_DATA (0x0B  , 0, Motor );
 371:AS76.c        ****     Write_32bitSPI_DATA (0x10  , (int) 0x00070101, Motor );
 372:AS76.c        ****     //Write_32bitSPI_DATA (0x25  , (51200*5)-100, Motor );
 373:AS76.c        **** 
 374:AS76.c        ****     //Y_last_position = 0;
 375:AS76.c        ****     QuadDec_Y_SetCounter(0);
 376:AS76.c        ****     X_QuadPosition =0 ;
 377:AS76.c        ****     HomeY_done = true;
 378:AS76.c        ****     HomeY_done_Buffer = true;
 379:AS76.c        ****     Write_Debug_UART_Char("HomeY executed  \r\n");
 380:AS76.c        **** 
 381:AS76.c        **** }
 382:AS76.c        **** 
 383:AS76.c        **** ////////////////////////////////////////////////////////////////////////////////////////////
 384:AS76.c        **** 
 385:AS76.c        **** //////////////////////////////////////////Homing Z//////////////////////////////////////////
 386:AS76.c        **** 
 387:AS76.c        **** /* --------------------------------------------------------------------------------------------
 388:AS76.c        **** Function Name        : homeZ
 389:AS76.c        **** 
 390:AS76.c        **** Prerequist Knowledge : Homing of stepper motor system, TM5160 Datasheet, Encoders
ARM GAS  C:\Users\Revanth\AppData\Local\Temp\ccHsQCvB.s 			page 9


 391:AS76.c        **** 
 392:AS76.c        **** Function Description : This Function is used to home the motor Z, where motor moves at specific
 393:AS76.c        ****                        Low speed towards left until it hits the limit switch on the left side then 
 394:AS76.c        ****                        motor rotates 1 rotation next the motor moves at specific Low speed towards 
 395:AS76.c        ****                        left until it hits the limit switch then motor gain moves 1 rotaion with ste
 396:AS76.c        ****                        loss correction and that point TMC5160 marks as position 0 and resets the Z 
 397:AS76.c        ****                        Channel encoder.
 398:AS76.c        **** 
 399:AS76.c        **** Return Type & Data   :Void
 400:AS76.c        **** 
 401:AS76.c        **** Variable Updation: status_z, Error, Z_QuadPosition
 402:AS76.c        **** 
 403:AS76.c        **** Numnber of Arguments : 1
 404:AS76.c        **** 
 405:AS76.c        **** -----Argument 1-----
 406:AS76.c        **** Name                 : Motor
 407:AS76.c        **** Tupe                 : uint8_t
 408:AS76.c        **** Description          : This Argument Represents the driver channel
 409:AS76.c        **** Condition            : This Value must range from 0x00 to 0x04 since there are only 5 channels
 410:AS76.c        ****                        available in AS76 System Configuration, condition to be checked in 
 411:AS76.c        ****                        SPI_MOTOR_CHIP_SELECT Function                       
 412:AS76.c        **** --------------------
 413:AS76.c        **** 
 414:AS76.c        **** 
 415:AS76.c        **** 
 416:AS76.c        **** ---------------------------------------------------------------------------------------------*/
 417:AS76.c        **** 
 418:AS76.c        **** void homeZ(uint8_t Motor)
 419:AS76.c        **** {
 420:AS76.c        ****     update_max_velocity((53687*2), Motor);
 421:AS76.c        ****     Enable_Encoder_Z(-Buffer_Z_QuadPosition);
 422:AS76.c        ****     Write_32bitSPI_DATA (0x20  , (int) 0x00000002, Motor );
 423:AS76.c        ****     CyDelayUs(50);
 424:AS76.c        ****     Read_32bitSPI_DATA(0x04, Motor, &status_z);
 425:AS76.c        ****     CyDelayUs(500);
 426:AS76.c        ****     Read_32bitSPI_DATA(0x04, Motor, &status_z);
 427:AS76.c        ****     while ( (status_z & 0x40) == 0x00)
 428:AS76.c        ****     {
 429:AS76.c        ****        wait_timer_Start();
 430:AS76.c        ****        wait_interrupt_StartEx(wait_interrupt_Handler);
 431:AS76.c        ****        Read_32bitSPI_DATA(0x04, Motor, &status_z);
 432:AS76.c        ****        if(exit_loop == 1)
 433:AS76.c        ****             {
 434:AS76.c        ****             Error = 15;
 435:AS76.c        ****             Send_Feedback_to_USB(Error);
 436:AS76.c        ****             wait_timer_Stop();
 437:AS76.c        ****             Write_32bitSPI_DATA (0x20  , (int) 0x00000000, Motor );
 438:AS76.c        ****             Write_32bitSPI_DATA (0x21  , (int) 0x0000000, Motor); // Mark the current postion as 0
 439:AS76.c        ****             Write_32bitSPI_DATA (0x2D  , 0x00000000, Motor ); // Set thye target position as 0
 440:AS76.c        ****             exit_loop = 0;
 441:AS76.c        ****             return;
 442:AS76.c        ****             //break;
 443:AS76.c        ****             }
 444:AS76.c        ****        CyDelayUs(100);
 445:AS76.c        ****     }
 446:AS76.c        ****     wait_timer_Stop();
 447:AS76.c        ****     exit_loop =0;
ARM GAS  C:\Users\Revanth\AppData\Local\Temp\ccHsQCvB.s 			page 10


 448:AS76.c        ****     
 449:AS76.c        ****     Write_32bitSPI_DATA (0x21  , (int) 0x0000000, Motor);
 450:AS76.c        ****     //Z_last_position = 0;
 451:AS76.c        ****     Enable_Encoder_Z(0);
 452:AS76.c        ****     Buffer_Z_QuadPosition=0;
 453:AS76.c        ****     CyDelayUs(10);
 454:AS76.c        ****     /*
 455:AS76.c        ****     GotoPos(((256*200)*1), Motor);
 456:AS76.c        ****     CyDelayUs(500);
 457:AS76.c        ****     Read_32bitSPI_DATA(0x04, Motor, &status_z);
 458:AS76.c        ****     CyDelayUs(500);
 459:AS76.c        ****     Read_32bitSPI_DATA(0x04, Motor, &status_z);
 460:AS76.c        ****     while ( (status_z & 0x20) == 0x00)
 461:AS76.c        ****     {
 462:AS76.c        ****        Read_32bitSPI_DATA(0x04, Motor, &status_z);
 463:AS76.c        ****         CyDelayUs(100);
 464:AS76.c        ****        
 465:AS76.c        ****     }
 466:AS76.c        ****     update_max_velocity(53687, Motor);
 467:AS76.c        ****     Write_32bitSPI_DATA (0x20  , (int) 0x00000002, Motor );
 468:AS76.c        ****     CyDelayUs(200);
 469:AS76.c        ****     Read_32bitSPI_DATA(0x04, Motor, &status_z);
 470:AS76.c        ****     CyDelayUs(500);
 471:AS76.c        ****     Read_32bitSPI_DATA(0x04, Motor, &status_z);
 472:AS76.c        ****     while ( (status_z & 0x40) == 0x00)
 473:AS76.c        ****     {
 474:AS76.c        ****        Read_32bitSPI_DATA(0x04, Motor, &status_z);
 475:AS76.c        ****        CyDelayUs(100);
 476:AS76.c        ****     }
 477:AS76.c        ****     */
 478:AS76.c        **** 
 479:AS76.c        ****     Write_32bitSPI_DATA (0x21  , (int) 0x0000000, Motor);
 480:AS76.c        ****     //Z_last_position = 0;
 481:AS76.c        ****     Enable_Encoder_Z(0);
 482:AS76.c        ****     Buffer_Z_QuadPosition=0;
 483:AS76.c        ****     HomeX_done = true;
 484:AS76.c        ****     HomeY_done = true;
 485:AS76.c        ****     HomeZ_done = true;
 486:AS76.c        ****     HomeT_done = true;
 487:AS76.c        ****     CyDelayUs(100);
 488:AS76.c        ****     goTo_Z(((256*200)*1));
 489:AS76.c        ****     HomeX_done = HomeX_done_Buffer;
 490:AS76.c        ****     HomeY_done = HomeY_done_Buffer;
 491:AS76.c        ****     HomeZ_done = HomeZ_done_Buffer;
 492:AS76.c        ****     HomeT_done = HomeT_done_Buffer;
 493:AS76.c        ****     CyDelayUs(100);
 494:AS76.c        ****     Write_32bitSPI_DATA (0x21  , (int) 0x0000000, Motor); 
 495:AS76.c        ****     Write_32bitSPI_DATA (0x2D  , 0x00000000, Motor );
 496:AS76.c        ****     update_max_velocity(53687*2, Motor);
 497:AS76.c        **** 
 498:AS76.c        ****     //Z_last_position = 0;
 499:AS76.c        ****     Enable_Encoder_Z(0);
 500:AS76.c        ****     Buffer_Z_QuadPosition=0;
 501:AS76.c        ****     HomeZ_done = true;
 502:AS76.c        ****     HomeZ_done_Buffer = true;
 503:AS76.c        ****     Write_Debug_UART_Char("HomeZ executed  \r\n");
 504:AS76.c        **** 
ARM GAS  C:\Users\Revanth\AppData\Local\Temp\ccHsQCvB.s 			page 11


 505:AS76.c        **** }
 506:AS76.c        **** 
 507:AS76.c        **** ///////////////////////////////////////////////////////////////////////////////////////
 508:AS76.c        **** 
 509:AS76.c        **** /////////////////////////////////////Homing T//////////////////////////////////////////
 510:AS76.c        **** 
 511:AS76.c        **** void homeT(uint8_t Motor)
 512:AS76.c        **** {
 513:AS76.c        ****     TMC5160_MotorT_EN_Write(0x00);
 514:AS76.c        ****     CyDelayUs(100);
 515:AS76.c        ****     update_max_velocity(12800, Motor);
 516:AS76.c        ****     Enable_Encoder_T(-Buffer_T_QuadPosition);
 517:AS76.c        ****     Write_32bitSPI_DATA (0x20  , (int) 0x00000002, Motor );
 518:AS76.c        ****     CyDelayUs(50);
 519:AS76.c        ****     Read_32bitSPI_DATA(0x04, Motor, &status_z);
 520:AS76.c        ****     CyDelayUs(500);
 521:AS76.c        ****     Read_32bitSPI_DATA(0x04, Motor, &status_z);
 522:AS76.c        ****     while ( (status_z & 0x40) == 0x00)
 523:AS76.c        ****     {
 524:AS76.c        ****        wait_timer_Start();
 525:AS76.c        ****        wait_interrupt_StartEx(wait_interrupt_Handler);
 526:AS76.c        ****        Read_32bitSPI_DATA(0x04, Motor, &status_z);
 527:AS76.c        ****        if(exit_loop == 1)
 528:AS76.c        ****             {
 529:AS76.c        ****             Error = 22;
 530:AS76.c        ****             Send_Feedback_to_USB(Error);
 531:AS76.c        ****             wait_timer_Stop();
 532:AS76.c        ****             Write_32bitSPI_DATA (0x20  , (int) 0x00000000, Motor );
 533:AS76.c        ****             Write_32bitSPI_DATA (0x21  , (int) 0x0000000, Motor); // Mark the current postion as 0
 534:AS76.c        ****             Write_32bitSPI_DATA (0x2D  , 0x00000000, Motor ); // Set thye target position as 0
 535:AS76.c        ****             exit_loop = 0;
 536:AS76.c        ****             Error =0;
 537:AS76.c        ****             return;
 538:AS76.c        ****             //break;
 539:AS76.c        ****             }
 540:AS76.c        ****        CyDelayUs(100);
 541:AS76.c        ****     }
 542:AS76.c        ****     wait_timer_Stop();
 543:AS76.c        ****     exit_loop =0;
 544:AS76.c        ****     
 545:AS76.c        ****     Write_32bitSPI_DATA (0x21  , (int) 0x0000000, Motor);
 546:AS76.c        ****     CyDelayUs(10);
 547:AS76.c        ****     /*
 548:AS76.c        ****     GotoPos((12800), Motor);
 549:AS76.c        ****     CyDelayUs(500);
 550:AS76.c        ****     Read_32bitSPI_DATA(0x04, Motor, &status_z);
 551:AS76.c        ****     CyDelayUs(500);
 552:AS76.c        ****     Read_32bitSPI_DATA(0x04, Motor, &status_z);
 553:AS76.c        ****     while ( (status_z & 0x20) == 0x00)
 554:AS76.c        ****     {
 555:AS76.c        ****        Read_32bitSPI_DATA(0x04, Motor, &status_z);
 556:AS76.c        ****         CyDelayUs(100);
 557:AS76.c        ****        
 558:AS76.c        ****     }
 559:AS76.c        ****     update_max_velocity(12800, Motor);
 560:AS76.c        ****     Write_32bitSPI_DATA (0x20  , (int) 0x00000002, Motor );
 561:AS76.c        ****     CyDelayUs(200);
ARM GAS  C:\Users\Revanth\AppData\Local\Temp\ccHsQCvB.s 			page 12


 562:AS76.c        ****     Read_32bitSPI_DATA(0x04, Motor, &status_y);
 563:AS76.c        ****     CyDelay0Us(500);
 564:AS76.c        ****     Read_32bitSPI_DATA(0x04, Motor, &status_y);
 565:AS76.c        ****     while ( (status_y & 0x40) == 0x00)
 566:AS76.c        ****     {
 567:AS76.c        ****        Read_32bitSPI_DATA(0x04, Motor, &status_y);
 568:AS76.c        ****        CyDelayUs(100);
 569:AS76.c        ****     }
 570:AS76.c        ****     */
 571:AS76.c        ****     Write_32bitSPI_DATA (0x21  , (int) 0x0000000, Motor);
 572:AS76.c        ****     //T_last_position = 0;
 573:AS76.c        ****     Enable_Encoder_T(0);
 574:AS76.c        ****     Buffer_T_QuadPosition=0;
 575:AS76.c        ****     HomeX_done = true;
 576:AS76.c        ****     HomeY_done = true;
 577:AS76.c        ****     HomeZ_done = true;
 578:AS76.c        ****     HomeT_done = true;
 579:AS76.c        ****     CyDelayUs(100); 
 580:AS76.c        ****     goTo_T(3800);
 581:AS76.c        ****     HomeX_done = HomeX_done_Buffer;
 582:AS76.c        ****     HomeY_done = HomeY_done_Buffer;
 583:AS76.c        ****     HomeZ_done = HomeZ_done_Buffer;
 584:AS76.c        ****     HomeT_done = HomeT_done_Buffer;
 585:AS76.c        ****     CyDelayUs(100);
 586:AS76.c        ****     Write_32bitSPI_DATA (0x21  , (int) 0x0000000, Motor); 
 587:AS76.c        ****     Write_32bitSPI_DATA (0x2D  , 0x00000000, Motor );
 588:AS76.c        ****     update_max_velocity(12800, Motor);
 589:AS76.c        **** 
 590:AS76.c        ****     //T_last_position = 0;
 591:AS76.c        ****     Enable_Encoder_T(0);
 592:AS76.c        ****     Buffer_T_QuadPosition=0;
 593:AS76.c        ****     HomeT_done = true;
 594:AS76.c        ****     HomeT_done_Buffer = true;
 595:AS76.c        ****     Write_Debug_UART_Char("HomeT executed  \r\n");
 596:AS76.c        ****     TMC5160_MotorT_EN_Write(0xFF);
 597:AS76.c        ****     CyDelayUs(100);
 598:AS76.c        **** }
 599:AS76.c        **** 
 600:AS76.c        **** ///////////////////////////////////////////////////////////////////////////////////////////////////
 601:AS76.c        **** /////////////////////////////////////Go to Position in X Axis//////////////////////////////////////
 602:AS76.c        **** 
 603:AS76.c        **** int goTo_X(int32 Position_X_Requested)
 604:AS76.c        **** {
 605:AS76.c        ****       
 606:AS76.c        ****     if(if_all_homing_done())
 607:AS76.c        ****     
 608:AS76.c        ****     {
 609:AS76.c        ****         Write_32bitSPI_DATA (0x10  , (int) 0x00070103, TMC5160_nCS_MotorY );
 610:AS76.c        ****         Write_32bitSPI_DATA (0x10  , (int) 0x00070102, TMC5160_nCS_MotorZ );
 611:AS76.c        ****         Write_32bitSPI_DATA (0x10  , (int) 0x0007030A, TMC5160_nCS_MotorX );
 612:AS76.c        ****         //Position_X_Move = Position_X_Move + Position_X_Requested;
 613:AS76.c        ****         Error = 0;
 614:AS76.c        ****         Read_All_Optical_Encoder();
 615:AS76.c        ****         //X_last_position = X_QuadPosition;
 616:AS76.c        ****         Write_Debug_UART_Char("GotoX Command Recived--->");
 617:AS76.c        ****         GotoPos(Position_X_Requested, TMC5160_nCS_MotorX); // If provided value is position and not
 618:AS76.c        ****         WaitTillPositionReached (TMC5160_nCS_MotorX);
ARM GAS  C:\Users\Revanth\AppData\Local\Temp\ccHsQCvB.s 			page 13


 619:AS76.c        ****         CyDelayUs(50);
 620:AS76.c        ****         //GotoPos(Position_X_Move, TMC5160_nCS_MotorX); // If provided value is steps to move and n
 621:AS76.c        ****         Write_Debug_UART_Int(Position_X_Requested);
 622:AS76.c        ****         Write_Debug_UART_Char("  \r\n");
 623:AS76.c        ****         //Step_correction_x(Position_X_Requested);
 624:AS76.c        ****         Read_All_Optical_Encoder();
 625:AS76.c        ****         X_QuadPosition = Input_Position_X_Temp;
 626:AS76.c        ****         return Error;
 627:AS76.c        ****     }
 628:AS76.c        ****     else
 629:AS76.c        ****     {
 630:AS76.c        ****         Write_Debug_UART_Char("Homing Not Done");
 631:AS76.c        ****         Error = 32;
 632:AS76.c        ****         return Error;
 633:AS76.c        ****     }
 634:AS76.c        ****     
 635:AS76.c        **** }
 636:AS76.c        **** 
 637:AS76.c        **** int Step_correction_x(int32 steps)
 638:AS76.c        **** {  
 639:AS76.c        ****     int32 Encoder_Position_X_Requested =0;
 640:AS76.c        ****     uint8_t temp;
 641:AS76.c        ****     int32 new_step=0;
 642:AS76.c        ****     //int32 diff_encoder_value=0;
 643:AS76.c        ****     int32 encoder_error_value = 0;
 644:AS76.c        ****     Encoder_Position_X_Requested = steps/X_Pitchfactor;
 645:AS76.c        ****     
 646:AS76.c        ****     for(temp=0; temp<=5; temp++)
 647:AS76.c        ****     {
 648:AS76.c        ****     Read_All_Optical_Encoder();
 649:AS76.c        ****     
 650:AS76.c        ****     encoder_error_value = Encoder_Position_X_Requested - X_QuadPosition;
 651:AS76.c        ****     if(encoder_error_value >= 2000)
 652:AS76.c        ****     {
 653:AS76.c        ****         Error=  2;
 654:AS76.c        ****         return Error;
 655:AS76.c        ****     }
 656:AS76.c        ****     new_step= encoder_error_value* X_Pitchfactor ;
 657:AS76.c        ****     
 658:AS76.c        ****        
 659:AS76.c        ****     if((abs(encoder_error_value))>= X_max_error_After_Correction )
 660:AS76.c        ****     {
 661:AS76.c        ****       new_step = new_step+steps;     
 662:AS76.c        ****       GotoPos(new_step, TMC5160_nCS_MotorX);
 663:AS76.c        ****       WaitTillPositionReached (TMC5160_nCS_MotorX);
 664:AS76.c        ****       CyDelayUs(50);
 665:AS76.c        ****       Write_32bitSPI_DATA (0x21  , steps, TMC5160_nCS_MotorX );
 666:AS76.c        ****     }
 667:AS76.c        ****     }
 668:AS76.c        ****     Read_All_Optical_Encoder();
 669:AS76.c        ****     encoder_error_value = Encoder_Position_X_Requested - X_QuadPosition;
 670:AS76.c        ****     if((temp>5))
 671:AS76.c        ****     {
 672:AS76.c        ****      if(((abs(encoder_error_value))>= X_max_error_After_Correction ) && ((abs(encoder_error_value))
 673:AS76.c        ****      {
 674:AS76.c        ****         Write_Debug_UART_Char("Fail to reach X position \r\n");
 675:AS76.c        ****         LED3_Write(0xFF);
ARM GAS  C:\Users\Revanth\AppData\Local\Temp\ccHsQCvB.s 			page 14


 676:AS76.c        ****         Error=  1;
 677:AS76.c        ****      }
 678:AS76.c        ****     
 679:AS76.c        ****      else if ( ((abs(encoder_error_value))>2000))
 680:AS76.c        ****      {
 681:AS76.c        ****        Write_Debug_UART_Char("X Encoder or X Motor Might Not be Working \r\n");
 682:AS76.c        ****        Error=  2;
 683:AS76.c        ****      }
 684:AS76.c        ****     
 685:AS76.c        ****      else
 686:AS76.c        ****      {
 687:AS76.c        ****         Write_Debug_UART_Char("X position Reached");
 688:AS76.c        ****         Error = 0;
 689:AS76.c        ****         Write_32bitSPI_DATA (0x21  , steps, TMC5160_nCS_MotorX );
 690:AS76.c        ****         CyDelayUs(500);
 691:AS76.c        ****         
 692:AS76.c        ****      }
 693:AS76.c        ****     
 694:AS76.c        ****     }
 695:AS76.c        ****     
 696:AS76.c        ****     return Error;
 697:AS76.c        **** }
 698:AS76.c        **** 
 699:AS76.c        **** ///////////////////////////////////////////////////////////////////////////////////////////////////
 700:AS76.c        **** /////////////////////////////////////Go to Position in Y Axis//////////////////////////////////////
 701:AS76.c        **** 
 702:AS76.c        **** int goTo_Y(int32 Position_Y_Requested)
 703:AS76.c        **** {   
 704:AS76.c        ****     if(if_all_homing_done())
 705:AS76.c        ****     {
 706:AS76.c        ****         Write_32bitSPI_DATA (0x10  , (int) 0x00070103, TMC5160_nCS_MotorX );
 707:AS76.c        ****         Write_32bitSPI_DATA (0x10  , (int) 0x00070102, TMC5160_nCS_MotorZ );
 708:AS76.c        ****         Write_32bitSPI_DATA (0x10  , (int) 0x0007010A, TMC5160_nCS_MotorY );
 709:AS76.c        ****         
 710:AS76.c        ****         //Position_Y_Move = Position_Y_Move + Position_Y_Requested;
 711:AS76.c        ****         Error = 0;
 712:AS76.c        ****         Read_All_Optical_Encoder();
 713:AS76.c        ****         //Y_last_position = Y_QuadPosition;
 714:AS76.c        ****         Write_Debug_UART_Char("GotoX Command Recived--->");
 715:AS76.c        ****         GotoPos(Position_Y_Requested, TMC5160_nCS_MotorY); // If provided value is position and not
 716:AS76.c        ****         WaitTillPositionReached (TMC5160_nCS_MotorY);
 717:AS76.c        ****         CyDelayUs(50);
 718:AS76.c        ****         //GotoPos(Position_X_Move, TMC5160_nCS_MotorX); // If provided value is steps to move and n
 719:AS76.c        ****         Write_Debug_UART_Int(Position_Y_Requested);
 720:AS76.c        ****         Write_Debug_UART_Char("  \r\n");
 721:AS76.c        ****         Step_correction_y(Position_Y_Requested);
 722:AS76.c        ****         return Error;
 723:AS76.c        ****     }
 724:AS76.c        ****     else
 725:AS76.c        ****     {
 726:AS76.c        ****         Write_Debug_UART_Char("Homing Not Done");
 727:AS76.c        ****         Error = 32;
 728:AS76.c        ****         return Error;
 729:AS76.c        ****     }
 730:AS76.c        **** }
 731:AS76.c        **** 
 732:AS76.c        **** int Step_correction_y(int32 steps)
ARM GAS  C:\Users\Revanth\AppData\Local\Temp\ccHsQCvB.s 			page 15


 733:AS76.c        **** {  
 734:AS76.c        ****     uint8_t temp=0;
 735:AS76.c        ****     int32 new_step=0;
 736:AS76.c        ****     int32 Encoder_Position_Y_Requested =0;
 737:AS76.c        ****     //int32 diff_encoder_value=0;
 738:AS76.c        ****     int32 encoder_error_value = 0;
 739:AS76.c        ****     Encoder_Position_Y_Requested = steps/12.8;
 740:AS76.c        ****     
 741:AS76.c        ****     for(temp=0; temp<=3; temp++)
 742:AS76.c        ****     {
 743:AS76.c        ****     Read_All_Optical_Encoder();
 744:AS76.c        ****     //diff_encoder_value = (X_QuadPosition - X_last_position);
 745:AS76.c        ****     encoder_error_value = Encoder_Position_Y_Requested - Y_QuadPosition;
 746:AS76.c        ****     new_step= encoder_error_value*12.8;
 747:AS76.c        ****     if(encoder_error_value >= 4000)
 748:AS76.c        ****     {
 749:AS76.c        ****         Error=  9;
 750:AS76.c        ****         break;
 751:AS76.c        ****     }
 752:AS76.c        ****     if((abs(encoder_error_value))>=3)
 753:AS76.c        ****     {
 754:AS76.c        ****       new_step = new_step+steps;     
 755:AS76.c        ****       GotoPos(new_step, TMC5160_nCS_MotorY);
 756:AS76.c        ****       WaitTillPositionReached (TMC5160_nCS_MotorY);
 757:AS76.c        ****       CyDelayUs(50);
 758:AS76.c        ****       Write_32bitSPI_DATA (0x21  , steps, TMC5160_nCS_MotorY );
 759:AS76.c        ****     }
 760:AS76.c        ****     
 761:AS76.c        ****     }
 762:AS76.c        ****     
 763:AS76.c        ****     
 764:AS76.c        ****     Read_All_Optical_Encoder();
 765:AS76.c        ****     encoder_error_value = Encoder_Position_Y_Requested - Y_QuadPosition;
 766:AS76.c        ****     
 767:AS76.c        ****     if(temp>=4)
 768:AS76.c        ****     {
 769:AS76.c        ****      if(((abs(encoder_error_value))>=3) && ((abs(encoder_error_value))<2000) )
 770:AS76.c        ****      {
 771:AS76.c        ****         Write_Debug_UART_Char("Fail to reach Y position \r\n");
 772:AS76.c        ****         LED3_Write(0xFF);
 773:AS76.c        ****         Error=  8;
 774:AS76.c        ****      }
 775:AS76.c        ****     
 776:AS76.c        ****      else if ( ((abs(encoder_error_value))>2000))
 777:AS76.c        ****      {
 778:AS76.c        ****        Write_Debug_UART_Char("Y Encoder or Y Motor Might Not be Working \r\n"); 
 779:AS76.c        ****        Error=  9;
 780:AS76.c        ****      }
 781:AS76.c        ****     
 782:AS76.c        ****      else
 783:AS76.c        ****      {
 784:AS76.c        ****         Write_Debug_UART_Char("Y position Reached");
 785:AS76.c        ****         Error = 0;
 786:AS76.c        ****         
 787:AS76.c        ****      }
 788:AS76.c        ****     
 789:AS76.c        ****     }
ARM GAS  C:\Users\Revanth\AppData\Local\Temp\ccHsQCvB.s 			page 16


 790:AS76.c        ****     
 791:AS76.c        ****     return Error;
 792:AS76.c        **** }
 793:AS76.c        **** 
 794:AS76.c        **** ///////////////////////////////////////////////////////////////////////////////////////////////////
 795:AS76.c        **** /////////////////////////////////////Go to Position in Z Axis//////////////////////////////////////
 796:AS76.c        **** 
 797:AS76.c        **** 
 798:AS76.c        **** int goTo_Z(int32 Position_Z_Requested)
 799:AS76.c        **** {
 800:AS76.c        ****     Write_32bitSPI_DATA (0x10  , (int) 0x00070103, TMC5160_nCS_MotorY );
 801:AS76.c        ****     Write_32bitSPI_DATA (0x10  , (int) 0x00070103, TMC5160_nCS_MotorX );
 802:AS76.c        ****     Write_32bitSPI_DATA (0x10  , (int) 0x00070102, TMC5160_nCS_MotorZ );
 803:AS76.c        ****     Position_Z_Requested =  Position_Z_Requested;
 804:AS76.c        ****     Enable_Encoder_Z(-Buffer_Z_QuadPosition);
 805:AS76.c        ****     if(if_all_homing_done())
 806:AS76.c        ****     {
 807:AS76.c        ****         Error = 0;
 808:AS76.c        ****         Read_All_Optical_Encoder();
 809:AS76.c        ****         //Z_last_position = Z_QuadPosition;
 810:AS76.c        ****         Write_Debug_UART_Char("GotoZ Command Recived--->");
 811:AS76.c        ****         GotoPos(Position_Z_Requested, TMC5160_nCS_MotorZ); // If provided value is position and not
 812:AS76.c        ****         WaitTillPositionReached (TMC5160_nCS_MotorZ);
 813:AS76.c        ****         CyDelayUs(50);
 814:AS76.c        ****         //GotoPos(Position_X_Move, TMC5160_nCS_MotorX); // If provided value is steps to move and n
 815:AS76.c        ****         Write_Debug_UART_Int(Position_Z_Requested);
 816:AS76.c        ****         Write_Debug_UART_Char("  \r\n");
 817:AS76.c        ****         Step_correction_z(Position_Z_Requested);
 818:AS76.c        ****         Read_All_Optical_Encoder();
 819:AS76.c        ****         Buffer_Z_QuadPosition = Z_QuadPosition;
 820:AS76.c        ****         return Error;
 821:AS76.c        ****     }
 822:AS76.c        ****     else
 823:AS76.c        ****     {
 824:AS76.c        ****         Write_Debug_UART_Char("Homing Not Done");
 825:AS76.c        ****         Error = 32;
 826:AS76.c        ****         return Error;
 827:AS76.c        ****     }
 828:AS76.c        **** 
 829:AS76.c        **** }
 830:AS76.c        **** 
 831:AS76.c        **** int Step_correction_z(int32 steps)
 832:AS76.c        **** {  
 833:AS76.c        ****     uint8_t temp=0;
 834:AS76.c        ****     int32 new_step=0;
 835:AS76.c        ****     int32 Encoder_Position_Z_Requested =0;
 836:AS76.c        ****     //int32 diff_encoder_value=0;
 837:AS76.c        ****     int32 encoder_error_value = 0;
 838:AS76.c        ****     Encoder_Position_Z_Requested = steps/3.2;
 839:AS76.c        ****     
 840:AS76.c        ****     for(temp=0; temp<=5; temp++)
 841:AS76.c        ****     {
 842:AS76.c        ****     
 843:AS76.c        ****     Read_All_Optical_Encoder();
 844:AS76.c        ****     //diff_encoder_value = (X_QuadPosition - X_last_position);
 845:AS76.c        ****     encoder_error_value = Encoder_Position_Z_Requested - Z_QuadPosition;
 846:AS76.c        ****     new_step= encoder_error_value*3.2;
ARM GAS  C:\Users\Revanth\AppData\Local\Temp\ccHsQCvB.s 			page 17


 847:AS76.c        ****     if(encoder_error_value >= 4000)
 848:AS76.c        ****     {
 849:AS76.c        ****         Error=  16;
 850:AS76.c        ****         break;
 851:AS76.c        ****     }
 852:AS76.c        ****     if((abs(encoder_error_value))>=3)
 853:AS76.c        ****     {
 854:AS76.c        ****       new_step = new_step+steps;     
 855:AS76.c        ****       GotoPos(new_step, TMC5160_nCS_MotorZ);
 856:AS76.c        ****       WaitTillPositionReached (TMC5160_nCS_MotorZ);
 857:AS76.c        ****       CyDelayUs(50);
 858:AS76.c        ****       Write_32bitSPI_DATA (0x21  , steps, TMC5160_nCS_MotorZ );
 859:AS76.c        ****     }
 860:AS76.c        ****     
 861:AS76.c        ****     }
 862:AS76.c        ****     
 863:AS76.c        ****     
 864:AS76.c        ****     Read_All_Optical_Encoder();
 865:AS76.c        ****     encoder_error_value = Encoder_Position_Z_Requested - Z_QuadPosition;
 866:AS76.c        ****     
 867:AS76.c        ****     if(temp>=4)
 868:AS76.c        ****     {
 869:AS76.c        ****      if(((abs(encoder_error_value))>=5) && ((abs(encoder_error_value))<4000) )
 870:AS76.c        ****      {
 871:AS76.c        ****         Write_Debug_UART_Char("Fail to reach Z position \r\n");
 872:AS76.c        ****         LED2_Write(0xFF);
 873:AS76.c        ****         Error = 15;
 874:AS76.c        ****      }
 875:AS76.c        ****     
 876:AS76.c        ****      else if ( ((abs(encoder_error_value))>4000))
 877:AS76.c        ****      {
 878:AS76.c        ****        Write_Debug_UART_Char("Z Encoder or Z Motor Might Not be Working \r\n"); 
 879:AS76.c        ****        Error = 16;
 880:AS76.c        ****      }
 881:AS76.c        ****     
 882:AS76.c        ****      else
 883:AS76.c        ****      {
 884:AS76.c        ****        Write_Debug_UART_Char("Z position Reached");
 885:AS76.c        ****        Error = 0;
 886:AS76.c        ****         
 887:AS76.c        ****      }
 888:AS76.c        ****     
 889:AS76.c        ****     }
 890:AS76.c        ****     
 891:AS76.c        ****     return Error;
 892:AS76.c        **** }
 893:AS76.c        **** 
 894:AS76.c        **** /////////////////////////////////////Go to Position in T Axis//////////////////////////////////////
 895:AS76.c        **** 
 896:AS76.c        **** int goTo_T(int32 Position_T_Requested)
 897:AS76.c        **** {
 898:AS76.c        ****     TMC5160_MotorT_EN_Write(0x00);
 899:AS76.c        ****     CyDelayUs(100);
 900:AS76.c        ****     Enable_Encoder_T(-Buffer_T_QuadPosition);
 901:AS76.c        ****     if(if_all_homing_done())
 902:AS76.c        ****     {
 903:AS76.c        ****         Error = 0;
ARM GAS  C:\Users\Revanth\AppData\Local\Temp\ccHsQCvB.s 			page 18


 904:AS76.c        ****         Read_All_Optical_Encoder();        
 905:AS76.c        ****         Write_Debug_UART_Char("GotoT Command Recived--->");
 906:AS76.c        ****         GotoPos(Position_T_Requested, TMC5160_nCS_MotorT); // If provided value is position and not
 907:AS76.c        ****         WaitTillPositionReached (TMC5160_nCS_MotorT);
 908:AS76.c        ****         CyDelayUs(50);
 909:AS76.c        ****         //GotoPos(Position_X_Move, TMC5160_nCS_MotorX); // If provided value is steps to move and n
 910:AS76.c        ****         Write_Debug_UART_Int(Position_T_Requested);
 911:AS76.c        ****         Write_Debug_UART_Char("  \r\n");
 912:AS76.c        ****         Step_correction_t(Position_T_Requested);
 913:AS76.c        ****         Read_All_Optical_Encoder();
 914:AS76.c        ****         Buffer_T_QuadPosition = T_QuadPosition;
 915:AS76.c        ****         TMC5160_MotorT_EN_Write(0xFF);
 916:AS76.c        ****         CyDelayUs (100);
 917:AS76.c        ****         return Error;
 918:AS76.c        ****     }
 919:AS76.c        ****     else
 920:AS76.c        ****     {
 921:AS76.c        ****         Write_Debug_UART_Char("Homing Not Done");
 922:AS76.c        ****         Error = 32;
 923:AS76.c        ****          TMC5160_MotorT_EN_Write(0xFF);
 924:AS76.c        ****         CyDelayUs(100);
 925:AS76.c        ****         return Error;
 926:AS76.c        ****     }
 927:AS76.c        ****     //Buffer_T_QuadPosition = T_QuadPosition;
 928:AS76.c        **** }
 929:AS76.c        **** 
 930:AS76.c        **** int Step_correction_t(int32 steps)
 931:AS76.c        **** {  
 932:AS76.c        ****     uint8_t temp=0;
 933:AS76.c        ****     int32 new_step=0;
 934:AS76.c        ****     int32 Encoder_Position_T_Requested =0;
 935:AS76.c        ****     //int32 diff_encoder_value=0;
 936:AS76.c        ****     int32 encoder_error_value = 0;
 937:AS76.c        ****     Encoder_Position_T_Requested = steps/3.2;
 938:AS76.c        ****     
 939:AS76.c        ****     for(temp=0; temp<=3; temp++)
 940:AS76.c        ****     {
 941:AS76.c        ****     Read_All_Optical_Encoder();
 942:AS76.c        ****     //diff_encoder_value = (X_QuadPosition - X_last_position);
 943:AS76.c        ****     encoder_error_value = Encoder_Position_T_Requested - T_QuadPosition;
 944:AS76.c        ****     new_step= encoder_error_value*3.2;
 945:AS76.c        ****     if(encoder_error_value >= 4000)
 946:AS76.c        ****     {
 947:AS76.c        ****         Error=  23;
 948:AS76.c        ****         break;
 949:AS76.c        ****     }
 950:AS76.c        ****     
 951:AS76.c        ****     if((abs(encoder_error_value))>=5)
 952:AS76.c        ****     {
 953:AS76.c        ****       new_step = new_step+steps;     
 954:AS76.c        ****       GotoPos(new_step, TMC5160_nCS_MotorT);
 955:AS76.c        ****       WaitTillPositionReached (TMC5160_nCS_MotorT);
 956:AS76.c        ****       CyDelayUs(50);
 957:AS76.c        ****       Write_32bitSPI_DATA (0x21  , steps, TMC5160_nCS_MotorT );
 958:AS76.c        ****     }
 959:AS76.c        ****     
 960:AS76.c        ****     }
ARM GAS  C:\Users\Revanth\AppData\Local\Temp\ccHsQCvB.s 			page 19


 961:AS76.c        ****     
 962:AS76.c        ****     Read_All_Optical_Encoder();
 963:AS76.c        ****     encoder_error_value = Encoder_Position_T_Requested - T_QuadPosition;
 964:AS76.c        ****     
 965:AS76.c        ****     if(temp>=4)
 966:AS76.c        ****     {
 967:AS76.c        ****      if(((abs(encoder_error_value))>=5) && ((abs(encoder_error_value))<4000) )
 968:AS76.c        ****      {
 969:AS76.c        ****         Write_Debug_UART_Char("Fail to reach T position \r\n");
 970:AS76.c        ****         Error = 22;
 971:AS76.c        ****      }
 972:AS76.c        ****     
 973:AS76.c        ****      else if ( ((abs(encoder_error_value))>4000))
 974:AS76.c        ****      {
 975:AS76.c        ****        Write_Debug_UART_Char("T Encoder or T Motor Might Not be Working \r\n"); 
 976:AS76.c        ****        Error = 23;
 977:AS76.c        ****      }
 978:AS76.c        ****     
 979:AS76.c        ****      else
 980:AS76.c        ****      {
 981:AS76.c        ****         Write_Debug_UART_Char("T position Reached");
 982:AS76.c        ****         Error = 0;
 983:AS76.c        ****         
 984:AS76.c        ****      }
 985:AS76.c        ****     
 986:AS76.c        ****     }
 987:AS76.c        ****     
 988:AS76.c        ****     return Error;
 989:AS76.c        **** }
 990:AS76.c        **** 
 991:AS76.c        **** 
 992:AS76.c        **** ///////////////////////////////////////////////////////////////////////////////////////////////////
 993:AS76.c        **** /////////////////////////////////////Go to Position in XYZ Axis////////////////////////////////////
 994:AS76.c        **** 
 995:AS76.c        **** int goTo_XYZ(int32 Position_X_Requested,int32 Position_Y_Requested,int32 Position_Z_Requested)
 996:AS76.c        **** {
 997:AS76.c        ****     Read_All_Optical_Encoder();
 998:AS76.c        ****     //X_last_position = X_QuadPosition;
 999:AS76.c        ****     Write_Debug_UART_Char("GotoX Command Recived--->");
1000:AS76.c        ****     if(Position_X_Requested >= 0)
1001:AS76.c        ****     { 
1002:AS76.c        ****     GotoPos(Position_X_Requested, TMC5160_nCS_MotorX); // If provided value is position and not the
1003:AS76.c        ****     }
1004:AS76.c        ****     if(Position_Y_Requested >= 0)
1005:AS76.c        ****     { 
1006:AS76.c        ****     GotoPos(Position_Y_Requested, TMC5160_nCS_MotorY);
1007:AS76.c        ****     }
1008:AS76.c        ****     if(Position_Z_Requested >= 0)
1009:AS76.c        ****     { 
1010:AS76.c        ****     Enable_Encoder_Z(-Buffer_Z_QuadPosition);
1011:AS76.c        ****     GotoPos(Position_Z_Requested, TMC5160_nCS_MotorZ);
1012:AS76.c        ****     }
1013:AS76.c        ****     
1014:AS76.c        ****     if(Position_X_Requested >= 0)
1015:AS76.c        ****     {
1016:AS76.c        ****     WaitTillPositionReached (TMC5160_nCS_MotorX);
1017:AS76.c        ****     }
ARM GAS  C:\Users\Revanth\AppData\Local\Temp\ccHsQCvB.s 			page 20


1018:AS76.c        ****     if(Position_Y_Requested >= 0)
1019:AS76.c        ****     {
1020:AS76.c        ****     WaitTillPositionReached (TMC5160_nCS_MotorY);
1021:AS76.c        ****     }
1022:AS76.c        ****     if(Position_Z_Requested >= 0)
1023:AS76.c        ****     {
1024:AS76.c        ****     WaitTillPositionReached (TMC5160_nCS_MotorZ);
1025:AS76.c        ****     }
1026:AS76.c        ****     
1027:AS76.c        ****     if(Position_X_Requested >= 0)
1028:AS76.c        ****     {
1029:AS76.c        ****     //Step_correction_x(Position_X_Requested);
1030:AS76.c        ****     //Read_All_Optical_Encoder();
1031:AS76.c        ****     }
1032:AS76.c        ****     //Send_Feedback_to_USB(Error);
1033:AS76.c        ****     if(Position_Y_Requested >= 0)
1034:AS76.c        ****     {
1035:AS76.c        ****     Step_correction_y(Position_Y_Requested);
1036:AS76.c        ****     //Read_All_Optical_Encoder();
1037:AS76.c        ****     }
1038:AS76.c        ****     //Send_Feedback_to_USB(Error);
1039:AS76.c        ****     if(Position_Z_Requested >= 0)
1040:AS76.c        ****     {
1041:AS76.c        ****     Step_correction_z(Position_Z_Requested);    
1042:AS76.c        ****     Read_All_Optical_Encoder();
1043:AS76.c        ****     Buffer_Z_QuadPosition = Z_QuadPosition;
1044:AS76.c        ****     }
1045:AS76.c        ****     Read_All_Optical_Encoder();
1046:AS76.c        ****     X_QuadPosition = Position_X_Requested;
1047:AS76.c        ****     Send_Feedback_to_USB(Error);
1048:AS76.c        ****     
1049:AS76.c        ****     CyDelayUs(50);
1050:AS76.c        ****     return 0;  
1051:AS76.c        ****         
1052:AS76.c        **** }
1053:AS76.c        **** 
1054:AS76.c        **** 
1055:AS76.c        **** bool if_all_homing_done()
1056:AS76.c        **** {
1057:AS76.c        ****     if((HomeY_done == false)&&(Error == 0))
1058:AS76.c        ****     {
1059:AS76.c        ****         Error = 12;//Y_Homing_Not_Done_Yet
1060:AS76.c        ****         Write_Debug_UART_Char("Y_Homing_Not_Done_Yet***********[x12]  \r\n");
1061:AS76.c        ****         UART_print_all_values();
1062:AS76.c        ****         return false;
1063:AS76.c        ****     }
1064:AS76.c        ****     else if((HomeX_done == false)&&(Error == 0))
1065:AS76.c        ****     {
1066:AS76.c        ****         Error = 6;//X_Homing_Not_Done_Yet
1067:AS76.c        ****         Write_Debug_UART_Char("X_Homing_Not_Done_Yet***********  \r\n");
1068:AS76.c        ****         UART_print_all_values();
1069:AS76.c        ****         return false;
1070:AS76.c        ****     }
1071:AS76.c        ****     else if((HomeZ_done == false)&&(Error == 0))
1072:AS76.c        ****     {
1073:AS76.c        ****         Error = 18;//Z_Homing_Not_Done_Yet
1074:AS76.c        ****         Write_Debug_UART_Char("Z_Homing_Not_Done_Yet***********  \r\n");
ARM GAS  C:\Users\Revanth\AppData\Local\Temp\ccHsQCvB.s 			page 21


1075:AS76.c        ****         UART_print_all_values();
1076:AS76.c        ****         return false;
1077:AS76.c        ****     } 
1078:AS76.c        ****    /* else if((HomeT_done == false)&&(Error == 0))
1079:AS76.c        ****     {
1080:AS76.c        ****         Error = 27;//T_Homing_Not_Done_Yet
1081:AS76.c        ****         Write_Debug_UART_Char("Z_Homing_Not_Done_Yet***********  \r\n");
1082:AS76.c        ****         UART_print_all_values();
1083:AS76.c        ****         return false;
1084:AS76.c        ****     } */
1085:AS76.c        ****     else
1086:AS76.c        ****     {
1087:AS76.c        ****         return true;
1088:AS76.c        ****     }
1089:AS76.c        **** }
1090:AS76.c        **** 
1091:AS76.c        **** ///////////////////////////////////////////////////////////////////////////////////////////////////
1092:AS76.c        **** //PWM Functions Start-------------------------------------------------------
1093:AS76.c        **** void Initialize_PWM()
1094:AS76.c        **** {
  67              		.loc 1 1094 0
  68              		.cfi_startproc
  69              		@ args = 0, pretend = 0, frame = 0
  70              		@ frame_needed = 0, uses_anonymous_args = 0
  71 0000 08B5     		push	{r3, lr}
  72              		.cfi_def_cfa_offset 8
  73              		.cfi_offset 3, -8
  74              		.cfi_offset 14, -4
1095:AS76.c        ****     PWM_CondenserLED_Start();
  75              		.loc 1 1095 0
  76 0002 FFF7FEFF 		bl	PWM_CondenserLED_Start
  77              	.LVL0:
1096:AS76.c        ****     PWM_CondenserLED_WriteCompare(PWM_Condenser_comare_value); 
  78              		.loc 1 1096 0
  79 0006 114B     		ldr	r3, .L7
  80 0008 1888     		ldrh	r0, [r3]
  81 000a FFF7FEFF 		bl	PWM_CondenserLED_WriteCompare
  82              	.LVL1:
1097:AS76.c        ****     
1098:AS76.c        ****     PWM_BarcodeCondenser_LED_Start();
  83              		.loc 1 1098 0
  84 000e FFF7FEFF 		bl	PWM_BarcodeCondenser_LED_Start
  85              	.LVL2:
1099:AS76.c        ****     PWM_BarcodeCondenser_LED_WriteCompare(2);
  86              		.loc 1 1099 0
  87 0012 0220     		movs	r0, #2
  88 0014 FFF7FEFF 		bl	PWM_BarcodeCondenser_LED_WriteCompare
  89              	.LVL3:
1100:AS76.c        ****     
1101:AS76.c        ****     PWM_Buzzer_Start();
  90              		.loc 1 1101 0
  91 0018 FFF7FEFF 		bl	PWM_Buzzer_Start
  92              	.LVL4:
1102:AS76.c        ****     PWM_Buzzer_WriteCompare(2500);
  93              		.loc 1 1102 0
  94 001c 40F6C410 		movw	r0, #2500
  95 0020 FFF7FEFF 		bl	PWM_Buzzer_WriteCompare
ARM GAS  C:\Users\Revanth\AppData\Local\Temp\ccHsQCvB.s 			page 22


  96              	.LVL5:
1103:AS76.c        ****     CyDelay(200);
  97              		.loc 1 1103 0
  98 0024 C820     		movs	r0, #200
  99 0026 FFF7FEFF 		bl	CyDelay
 100              	.LVL6:
1104:AS76.c        ****     PWM_Buzzer_WriteCompare(0);
 101              		.loc 1 1104 0
 102 002a 0020     		movs	r0, #0
 103 002c FFF7FEFF 		bl	PWM_Buzzer_WriteCompare
 104              	.LVL7:
1105:AS76.c        ****     CyDelay(200);
 105              		.loc 1 1105 0
 106 0030 C820     		movs	r0, #200
 107 0032 FFF7FEFF 		bl	CyDelay
 108              	.LVL8:
1106:AS76.c        ****     PWM_Buzzer_WriteCompare(2500);
 109              		.loc 1 1106 0
 110 0036 40F6C410 		movw	r0, #2500
 111 003a FFF7FEFF 		bl	PWM_Buzzer_WriteCompare
 112              	.LVL9:
1107:AS76.c        ****     CyDelay(200);
 113              		.loc 1 1107 0
 114 003e C820     		movs	r0, #200
 115 0040 FFF7FEFF 		bl	CyDelay
 116              	.LVL10:
1108:AS76.c        ****     PWM_Buzzer_WriteCompare(0);
 117              		.loc 1 1108 0
 118 0044 0020     		movs	r0, #0
 119 0046 FFF7FEFF 		bl	PWM_Buzzer_WriteCompare
 120              	.LVL11:
 121 004a 08BD     		pop	{r3, pc}
 122              	.L8:
 123              		.align	2
 124              	.L7:
 125 004c 00000000 		.word	.LANCHOR1
 126              		.cfi_endproc
 127              	.LFE80:
 128              		.size	Initialize_PWM, .-Initialize_PWM
 129              		.section	.text.Set_Backlight_LED,"ax",%progbits
 130              		.align	2
 131              		.global	Set_Backlight_LED
 132              		.thumb
 133              		.thumb_func
 134              		.type	Set_Backlight_LED, %function
 135              	Set_Backlight_LED:
 136              	.LFB86:
1109:AS76.c        **** }
1110:AS76.c        **** int set_BarcodeCondenser_LED()//Set Barcode Condenser LED light intensity
1111:AS76.c        **** {
1112:AS76.c        ****     PWM_barcode_comare_value = ((unsigned int)USB_received[3] << 8) + USB_received[2];  //Read LED 
1113:AS76.c        ****     PWM_BarcodeCondenser_LED_WriteCompare((PWM_barcode_comare_value*0.6)/10);    //Writing LED valu
1114:AS76.c        ****     Write_Debug_UART_Char("LED Barcode Value Recived--->");
1115:AS76.c        ****     Write_Debug_UART_Int(PWM_barcode_comare_value);
1116:AS76.c        ****     Write_Debug_UART_Char("\r\n");
1117:AS76.c        ****     Write_Debug_UART_Char("Set Barcode LED Command Executed  \r\n");
1118:AS76.c        ****     return 0;
ARM GAS  C:\Users\Revanth\AppData\Local\Temp\ccHsQCvB.s 			page 23


1119:AS76.c        **** }
1120:AS76.c        **** 
1121:AS76.c        **** int set_CondenserLED()//Set Condenser LED light intensity
1122:AS76.c        **** {
1123:AS76.c        ****     PWM_Condenser_comare_value = ((unsigned int)USB_received[3] << 8) + USB_received[2];  //Read LE
1124:AS76.c        ****     PWM_CondenserLED_WriteCompare((PWM_Condenser_comare_value*0.6)/10);    //Writing LED value in t
1125:AS76.c        ****     Write_Debug_UART_Char(" LED Value Recived--->");
1126:AS76.c        ****     Write_Debug_UART_Int(PWM_Condenser_comare_value);
1127:AS76.c        ****     Write_Debug_UART_Char("\r\n");
1128:AS76.c        ****     Write_Debug_UART_Char("Set LED Command Executed  \r\n");
1129:AS76.c        ****     return 0;
1130:AS76.c        **** }
1131:AS76.c        **** 
1132:AS76.c        **** int Beep_Once()//Set Condenser LED light intensity
1133:AS76.c        **** {
1134:AS76.c        ****     PWM_Buzzer_WriteCompare(2500);
1135:AS76.c        ****     CyDelay(200);
1136:AS76.c        ****     PWM_Buzzer_WriteCompare(0);
1137:AS76.c        ****     Write_Debug_UART_Char("Beeped Once  \r\n");
1138:AS76.c        ****     return 0;
1139:AS76.c        **** }
1140:AS76.c        **** 
1141:AS76.c        **** int Beep_Twice()//Set Condenser LED light intensity
1142:AS76.c        **** {
1143:AS76.c        ****     PWM_Buzzer_WriteCompare(2500);
1144:AS76.c        ****     CyDelay(200);
1145:AS76.c        ****     PWM_Buzzer_WriteCompare(0);
1146:AS76.c        ****     CyDelay(200);
1147:AS76.c        ****     PWM_Buzzer_WriteCompare(2500);
1148:AS76.c        ****     CyDelay(200);
1149:AS76.c        ****     PWM_Buzzer_WriteCompare(0);
1150:AS76.c        ****     Write_Debug_UART_Char("Beeped Twice  \r\n");
1151:AS76.c        ****     return 0;
1152:AS76.c        **** }
1153:AS76.c        **** 
1154:AS76.c        **** int Long_Beep()//Set Condenser LED light intensity
1155:AS76.c        **** {
1156:AS76.c        ****     PWM_Buzzer_WriteCompare(2500);
1157:AS76.c        ****     CyDelay(2000);
1158:AS76.c        ****     PWM_Buzzer_WriteCompare(0);
1159:AS76.c        ****     CyDelay(200);
1160:AS76.c        ****     
1161:AS76.c        ****     Write_Debug_UART_Char("Beeped Long  \r\n");
1162:AS76.c        ****     return 0;
1163:AS76.c        **** }
1164:AS76.c        **** 
1165:AS76.c        **** //PWM Functions Stop-------------------------------------------------------
1166:AS76.c        **** 
1167:AS76.c        **** void Set_Backlight_LED(uint8_t value)
1168:AS76.c        **** {
 137              		.loc 1 1168 0
 138              		.cfi_startproc
 139              		@ args = 0, pretend = 0, frame = 0
 140              		@ frame_needed = 0, uses_anonymous_args = 0
 141              	.LVL12:
 142 0000 08B5     		push	{r3, lr}
 143              		.cfi_def_cfa_offset 8
ARM GAS  C:\Users\Revanth\AppData\Local\Temp\ccHsQCvB.s 			page 24


 144              		.cfi_offset 3, -8
 145              		.cfi_offset 14, -4
1169:AS76.c        ****     Pin_Backlight_Write(value);
 146              		.loc 1 1169 0
 147 0002 FFF7FEFF 		bl	Pin_Backlight_Write
 148              	.LVL13:
 149 0006 08BD     		pop	{r3, pc}
 150              		.cfi_endproc
 151              	.LFE86:
 152              		.size	Set_Backlight_LED, .-Set_Backlight_LED
 153              		.section	.text.Enable_Encoder_T,"ax",%progbits
 154              		.align	2
 155              		.global	Enable_Encoder_T
 156              		.thumb
 157              		.thumb_func
 158              		.type	Enable_Encoder_T, %function
 159              	Enable_Encoder_T:
 160              	.LFB88:
1170:AS76.c        **** }
1171:AS76.c        **** 
1172:AS76.c        **** //Optical Decoder Functions Start-------------------------------------------------------
1173:AS76.c        **** void Initialize_And_Start_All_Opt_Encoder()//Initialize and start Interrupt for XY encoder count an
1174:AS76.c        **** {   
1175:AS76.c        ****     X_QuadPosition = 0;
1176:AS76.c        ****     Y_QuadPosition = 0;
1177:AS76.c        ****     Z_QuadPosition =0 ;
1178:AS76.c        ****     T_QuadPosition=0;
1179:AS76.c        ****     QuadDec_TZ_Start();
1180:AS76.c        ****     QuadDec_Y_Start();
1181:AS76.c        ****     QuadDec_X_Start();
1182:AS76.c        **** 
1183:AS76.c        ****     Enable_Encoder_Z(0);
1184:AS76.c        ****     Enable_Encoder_T(0);
1185:AS76.c        **** }
1186:AS76.c        **** 
1187:AS76.c        **** 
1188:AS76.c        **** void Enable_Encoder_T(int steps)
1189:AS76.c        **** {
 161              		.loc 1 1189 0
 162              		.cfi_startproc
 163              		@ args = 0, pretend = 0, frame = 0
 164              		@ frame_needed = 0, uses_anonymous_args = 0
 165              	.LVL14:
 166 0000 10B5     		push	{r4, lr}
 167              		.cfi_def_cfa_offset 8
 168              		.cfi_offset 4, -8
 169              		.cfi_offset 14, -4
1190:AS76.c        ****     EncoderTZSelect = 0; // 0 for T and 1 for Z
 170              		.loc 1 1190 0
 171 0002 0024     		movs	r4, #0
 172 0004 034B     		ldr	r3, .L13
 173 0006 5C60     		str	r4, [r3, #4]
1191:AS76.c        ****     QuadDec_TZ_SetCounter(steps);      
 174              		.loc 1 1191 0
 175 0008 FFF7FEFF 		bl	QuadDec_TZ_SetCounter
 176              	.LVL15:
1192:AS76.c        ****     Encoder_T_Z_Select_Write(0);
ARM GAS  C:\Users\Revanth\AppData\Local\Temp\ccHsQCvB.s 			page 25


 177              		.loc 1 1192 0
 178 000c 2046     		mov	r0, r4
 179 000e FFF7FEFF 		bl	Encoder_T_Z_Select_Write
 180              	.LVL16:
 181 0012 10BD     		pop	{r4, pc}
 182              	.L14:
 183              		.align	2
 184              	.L13:
 185 0014 00000000 		.word	.LANCHOR0
 186              		.cfi_endproc
 187              	.LFE88:
 188              		.size	Enable_Encoder_T, .-Enable_Encoder_T
 189              		.section	.text.Enable_Encoder_Z,"ax",%progbits
 190              		.align	2
 191              		.global	Enable_Encoder_Z
 192              		.thumb
 193              		.thumb_func
 194              		.type	Enable_Encoder_Z, %function
 195              	Enable_Encoder_Z:
 196              	.LFB89:
1193:AS76.c        **** }
1194:AS76.c        **** 
1195:AS76.c        **** void Enable_Encoder_Z(int steps)
1196:AS76.c        **** {
 197              		.loc 1 1196 0
 198              		.cfi_startproc
 199              		@ args = 0, pretend = 0, frame = 0
 200              		@ frame_needed = 0, uses_anonymous_args = 0
 201              	.LVL17:
 202 0000 10B5     		push	{r4, lr}
 203              		.cfi_def_cfa_offset 8
 204              		.cfi_offset 4, -8
 205              		.cfi_offset 14, -4
1197:AS76.c        ****     EncoderTZSelect = 1; // 0 for T and 1 for Z
 206              		.loc 1 1197 0
 207 0002 0124     		movs	r4, #1
 208 0004 034B     		ldr	r3, .L17
 209 0006 5C60     		str	r4, [r3, #4]
1198:AS76.c        ****     QuadDec_TZ_SetCounter(steps);
 210              		.loc 1 1198 0
 211 0008 FFF7FEFF 		bl	QuadDec_TZ_SetCounter
 212              	.LVL18:
1199:AS76.c        ****     Encoder_T_Z_Select_Write(1);
 213              		.loc 1 1199 0
 214 000c 2046     		mov	r0, r4
 215 000e FFF7FEFF 		bl	Encoder_T_Z_Select_Write
 216              	.LVL19:
 217 0012 10BD     		pop	{r4, pc}
 218              	.L18:
 219              		.align	2
 220              	.L17:
 221 0014 00000000 		.word	.LANCHOR0
 222              		.cfi_endproc
 223              	.LFE89:
 224              		.size	Enable_Encoder_Z, .-Enable_Encoder_Z
 225              		.section	.text.Initialize_And_Start_All_Opt_Encoder,"ax",%progbits
 226              		.align	2
ARM GAS  C:\Users\Revanth\AppData\Local\Temp\ccHsQCvB.s 			page 26


 227              		.global	Initialize_And_Start_All_Opt_Encoder
 228              		.thumb
 229              		.thumb_func
 230              		.type	Initialize_And_Start_All_Opt_Encoder, %function
 231              	Initialize_And_Start_All_Opt_Encoder:
 232              	.LFB87:
1174:AS76.c        ****     X_QuadPosition = 0;
 233              		.loc 1 1174 0
 234              		.cfi_startproc
 235              		@ args = 0, pretend = 0, frame = 0
 236              		@ frame_needed = 0, uses_anonymous_args = 0
 237 0000 10B5     		push	{r4, lr}
 238              		.cfi_def_cfa_offset 8
 239              		.cfi_offset 4, -8
 240              		.cfi_offset 14, -4
1175:AS76.c        ****     Y_QuadPosition = 0;
 241              		.loc 1 1175 0
 242 0002 094B     		ldr	r3, .L21
 243 0004 0024     		movs	r4, #0
 244 0006 9C60     		str	r4, [r3, #8]
1176:AS76.c        ****     Z_QuadPosition =0 ;
 245              		.loc 1 1176 0
 246 0008 DC60     		str	r4, [r3, #12]
1177:AS76.c        ****     T_QuadPosition=0;
 247              		.loc 1 1177 0
 248 000a 1C61     		str	r4, [r3, #16]
1178:AS76.c        ****     QuadDec_TZ_Start();
 249              		.loc 1 1178 0
 250 000c 5C61     		str	r4, [r3, #20]
1179:AS76.c        ****     QuadDec_Y_Start();
 251              		.loc 1 1179 0
 252 000e FFF7FEFF 		bl	QuadDec_TZ_Start
 253              	.LVL20:
1180:AS76.c        ****     QuadDec_X_Start();
 254              		.loc 1 1180 0
 255 0012 FFF7FEFF 		bl	QuadDec_Y_Start
 256              	.LVL21:
1181:AS76.c        **** 
 257              		.loc 1 1181 0
 258 0016 FFF7FEFF 		bl	QuadDec_X_Start
 259              	.LVL22:
1183:AS76.c        ****     Enable_Encoder_T(0);
 260              		.loc 1 1183 0
 261 001a 2046     		mov	r0, r4
 262 001c FFF7FEFF 		bl	Enable_Encoder_Z
 263              	.LVL23:
1184:AS76.c        **** }
 264              		.loc 1 1184 0
 265 0020 2046     		mov	r0, r4
 266 0022 FFF7FEFF 		bl	Enable_Encoder_T
 267              	.LVL24:
 268 0026 10BD     		pop	{r4, pc}
 269              	.L22:
 270              		.align	2
 271              	.L21:
 272 0028 00000000 		.word	.LANCHOR0
 273              		.cfi_endproc
ARM GAS  C:\Users\Revanth\AppData\Local\Temp\ccHsQCvB.s 			page 27


 274              	.LFE87:
 275              		.size	Initialize_And_Start_All_Opt_Encoder, .-Initialize_And_Start_All_Opt_Encoder
 276              		.section	.text.Read_All_Optical_Encoder,"ax",%progbits
 277              		.align	2
 278              		.global	Read_All_Optical_Encoder
 279              		.thumb
 280              		.thumb_func
 281              		.type	Read_All_Optical_Encoder, %function
 282              	Read_All_Optical_Encoder:
 283              	.LFB90:
1200:AS76.c        **** }
1201:AS76.c        **** 
1202:AS76.c        **** void Read_All_Optical_Encoder()//Read all optical encoder value and update XYZ value
1203:AS76.c        **** {
 284              		.loc 1 1203 0
 285              		.cfi_startproc
 286              		@ args = 0, pretend = 0, frame = 0
 287              		@ frame_needed = 0, uses_anonymous_args = 0
 288 0000 10B5     		push	{r4, lr}
 289              		.cfi_def_cfa_offset 8
 290              		.cfi_offset 4, -8
 291              		.cfi_offset 14, -4
1204:AS76.c        ****     if(EncoderTZSelect == 0)
 292              		.loc 1 1204 0
 293 0002 0E4B     		ldr	r3, .L27
 294 0004 5B68     		ldr	r3, [r3, #4]
 295 0006 33B9     		cbnz	r3, .L24
1205:AS76.c        ****     {
1206:AS76.c        ****         T_QuadPosition = -QuadDec_TZ_GetCounter();
 296              		.loc 1 1206 0
 297 0008 FFF7FEFF 		bl	QuadDec_TZ_GetCounter
 298              	.LVL25:
 299 000c 4042     		negs	r0, r0
 300 000e 0B4B     		ldr	r3, .L27
 301 0010 5861     		str	r0, [r3, #20]
1207:AS76.c        ****         Z_QuadPosition = Buffer_Z_QuadPosition;
 302              		.loc 1 1207 0
 303 0012 9A69     		ldr	r2, [r3, #24]
 304 0014 1A61     		str	r2, [r3, #16]
 305              	.L24:
1208:AS76.c        ****     }
1209:AS76.c        ****     if(EncoderTZSelect == 1)
 306              		.loc 1 1209 0
 307 0016 094B     		ldr	r3, .L27
 308 0018 5B68     		ldr	r3, [r3, #4]
 309 001a 012B     		cmp	r3, #1
 310 001c 06D1     		bne	.L25
1210:AS76.c        ****     {
1211:AS76.c        ****         T_QuadPosition = Buffer_T_QuadPosition;
 311              		.loc 1 1211 0
 312 001e 074C     		ldr	r4, .L27
 313 0020 E369     		ldr	r3, [r4, #28]
 314 0022 6361     		str	r3, [r4, #20]
1212:AS76.c        ****         Z_QuadPosition = -QuadDec_TZ_GetCounter();
 315              		.loc 1 1212 0
 316 0024 FFF7FEFF 		bl	QuadDec_TZ_GetCounter
 317              	.LVL26:
ARM GAS  C:\Users\Revanth\AppData\Local\Temp\ccHsQCvB.s 			page 28


 318 0028 4042     		negs	r0, r0
 319 002a 2061     		str	r0, [r4, #16]
 320              	.L25:
1213:AS76.c        ****     }
1214:AS76.c        ****     X_QuadPosition =  Input_Position_X_Temp ;
 321              		.loc 1 1214 0
 322 002c 034C     		ldr	r4, .L27
 323 002e 236A     		ldr	r3, [r4, #32]
 324 0030 A360     		str	r3, [r4, #8]
1215:AS76.c        ****     Y_QuadPosition = -QuadDec_Y_GetCounter();
 325              		.loc 1 1215 0
 326 0032 FFF7FEFF 		bl	QuadDec_Y_GetCounter
 327              	.LVL27:
 328 0036 4042     		negs	r0, r0
 329 0038 E060     		str	r0, [r4, #12]
 330 003a 10BD     		pop	{r4, pc}
 331              	.L28:
 332              		.align	2
 333              	.L27:
 334 003c 00000000 		.word	.LANCHOR0
 335              		.cfi_endproc
 336              	.LFE90:
 337              		.size	Read_All_Optical_Encoder, .-Read_All_Optical_Encoder
 338              		.section	.text.USB_Detect_Indication_Via_LED,"ax",%progbits
 339              		.align	2
 340              		.global	USB_Detect_Indication_Via_LED
 341              		.thumb
 342              		.thumb_func
 343              		.type	USB_Detect_Indication_Via_LED, %function
 344              	USB_Detect_Indication_Via_LED:
 345              	.LFB93:
1216:AS76.c        **** }    
1217:AS76.c        **** //Optical Decoder Functions Stop-------------------------------------------------------
1218:AS76.c        **** 
1219:AS76.c        **** 
1220:AS76.c        **** //USB Functions Start-------------------------------------------------------
1221:AS76.c        **** void Process_USB_Data()/* Process USB incoming data command. */
1222:AS76.c        **** {
1223:AS76.c        ****     //Pin_USB_RX_TX_Indicator_LED_Write(1); /* turn ON LED as a indicator to start process the comm
1224:AS76.c        ****     Error = 0;
1225:AS76.c        ****     command = ((unsigned int)USB_received[1] << 8) + USB_received[0];   /* Reading USB data. */
1226:AS76.c        ****     /*Compare USB data and execute the command*/
1227:AS76.c        **** 
1228:AS76.c        ****     if (command == HomeX)                                          
1229:AS76.c        ****     {
1230:AS76.c        ****         update_max_velocity(381178, TMC5160_nCS_MotorX);
1231:AS76.c        ****         CyDelay(1);
1232:AS76.c        ****         goTo_X(0);
1233:AS76.c        ****         homeX(TMC5160_nCS_MotorX);   
1234:AS76.c        ****         Send_Feedback_to_USB(Error);
1235:AS76.c        ****     
1236:AS76.c        ****     }
1237:AS76.c        ****     else if (command == HomeY)                           
1238:AS76.c        ****     {
1239:AS76.c        ****         update_max_velocity(381178, TMC5160_nCS_MotorY);
1240:AS76.c        ****         CyDelay(1);
1241:AS76.c        ****         goTo_Y(0);
ARM GAS  C:\Users\Revanth\AppData\Local\Temp\ccHsQCvB.s 			page 29


1242:AS76.c        ****         homeY(TMC5160_nCS_MotorY);
1243:AS76.c        ****         Send_Feedback_to_USB(Error);
1244:AS76.c        ****         
1245:AS76.c        ****     }
1246:AS76.c        ****     else if (command == HomeZ)                           
1247:AS76.c        ****     {
1248:AS76.c        ****         update_max_velocity(53687*2, TMC5160_nCS_MotorZ);
1249:AS76.c        ****         CyDelayUs(100);
1250:AS76.c        ****         goTo_Z(0);
1251:AS76.c        ****         homeZ(TMC5160_nCS_MotorZ);
1252:AS76.c        ****         Send_Feedback_to_USB(Error);
1253:AS76.c        ****     }
1254:AS76.c        ****     else if (command == HomeT)                           
1255:AS76.c        ****     {
1256:AS76.c        ****         Write_32bitSPI_DATA (0x10  , (int) 0x00070503, TMC5160_nCS_MotorT ); 
1257:AS76.c        ****         CyDelay(10);
1258:AS76.c        ****         goTo_T(0);
1259:AS76.c        ****         homeT(TMC5160_nCS_MotorT);
1260:AS76.c        ****         Send_Feedback_to_USB(Error);
1261:AS76.c        ****     }
1262:AS76.c        ****     else if (command == GotoX)                           
1263:AS76.c        ****     {
1264:AS76.c        ****         Position_X_Requested = ((int32)USB_received[5] << 24) + ((int32)USB_received[4] << 16) + ((
1265:AS76.c        ****         
1266:AS76.c        ****         {
1267:AS76.c        ****             Input_Position_X_Temp = Position_X_Requested;
1268:AS76.c        ****             Position_X_Requested = (int)(Position_X_Requested / 4);
1269:AS76.c        ****             Position_X_Requested = (int)Position_X_Requested * 12.8;
1270:AS76.c        ****             Error = goTo_X(Position_X_Requested);
1271:AS76.c        ****         }
1272:AS76.c        ****         
1273:AS76.c        ****         
1274:AS76.c        ****         
1275:AS76.c        ****         
1276:AS76.c        ****         Write_32bitSPI_DATA (0x10  , (int) 0x0007010A, TMC5160_nCS_MotorX );
1277:AS76.c        ****         CyDelay(10);
1278:AS76.c        ****         Write_32bitSPI_DATA (0x10  , (int) 0x00070102, TMC5160_nCS_MotorY );
1279:AS76.c        ****         Write_32bitSPI_DATA (0x10  , (int) 0x00070102, TMC5160_nCS_MotorZ );
1280:AS76.c        ****         Write_32bitSPI_DATA (0x10  , (int) 0x00070102, TMC5160_nCS_MotorX );
1281:AS76.c        ****         Write_32bitSPI_DATA (0x10  , (int) 0x00070102, TMC5160_nCS_MotorT ); 
1282:AS76.c        ****         Send_Feedback_to_USB(Error);
1283:AS76.c        ****         
1284:AS76.c        ****         
1285:AS76.c        ****     }
1286:AS76.c        ****     else if (command == GotoY)          
1287:AS76.c        ****     {
1288:AS76.c        ****         Position_Y_Requested = ((int32)USB_received[5] << 24) + ((int32)USB_received[4] << 16) + ((
1289:AS76.c        ****         Position_Y_Requested = (int)(Position_Y_Requested / 4);
1290:AS76.c        ****         Position_Y_Requested = (int)(Position_Y_Requested * 12.8);
1291:AS76.c        ****         Error = goTo_Y(Position_Y_Requested);
1292:AS76.c        ****                
1293:AS76.c        ****         Write_32bitSPI_DATA (0x10  , (int) 0x0007010A, TMC5160_nCS_MotorY );
1294:AS76.c        ****         CyDelay(10);        
1295:AS76.c        ****         Write_32bitSPI_DATA (0x10  , (int) 0x00070102, TMC5160_nCS_MotorY );
1296:AS76.c        ****         Write_32bitSPI_DATA (0x10  , (int) 0x00070102, TMC5160_nCS_MotorZ );
1297:AS76.c        ****         Write_32bitSPI_DATA (0x10  , (int) 0x00070102, TMC5160_nCS_MotorX );
1298:AS76.c        ****         Write_32bitSPI_DATA (0x10  , (int) 0x00070102, TMC5160_nCS_MotorT ); 
ARM GAS  C:\Users\Revanth\AppData\Local\Temp\ccHsQCvB.s 			page 30


1299:AS76.c        ****         Send_Feedback_to_USB(Error);
1300:AS76.c        ****     }
1301:AS76.c        ****     else if (command == GotoZ)        
1302:AS76.c        ****     {
1303:AS76.c        ****         Position_Z_Requested = ((int32)USB_received[5] << 24) + ((int32)USB_received[4] << 16) + ((
1304:AS76.c        ****         Position_Z_Requested = (Position_Z_Requested / 16);
1305:AS76.c        ****         Position_Z_Requested = Position_Z_Requested * 51.2;
1306:AS76.c        ****         Error = goTo_Z(Position_Z_Requested);
1307:AS76.c        ****         Send_Feedback_to_USB(Error);
1308:AS76.c        ****     }
1309:AS76.c        ****     else if (command == GotoT)        
1310:AS76.c        ****     {
1311:AS76.c        ****         Write_32bitSPI_DATA (0x10  , (int) 0x00070503, TMC5160_nCS_MotorT ); 
1312:AS76.c        ****         Position_T_Requested = ((int32)USB_received[5] << 24) + ((int32)USB_received[4] << 16) + ((
1313:AS76.c        ****         Position_T_Requested = (Position_T_Requested / 1);
1314:AS76.c        ****         Position_T_Requested = Position_T_Requested * 1;
1315:AS76.c        ****         Error = goTo_T(Position_T_Requested);
1316:AS76.c        ****         Send_Feedback_to_USB(Error);
1317:AS76.c        ****         Write_32bitSPI_DATA (0x10  , (int) 0x00070303, TMC5160_nCS_MotorT );
1318:AS76.c        ****    
1319:AS76.c        ****     }
1320:AS76.c        ****     else if ( command == Set_OilDispenser )
1321:AS76.c        ****     {
1322:AS76.c        ****         int time_ms=0;
1323:AS76.c        ****         uint8_t direction=0;
1324:AS76.c        ****         time_ms = ((int32)USB_received[5] << 24) + ((int32)USB_received[4] << 16) + ((int32)USB_rec
1325:AS76.c        ****         if((USB_received[6] == 0x00) || (USB_received[6] == 0x01))
1326:AS76.c        ****         {
1327:AS76.c        ****             CyDelayUs(10);
1328:AS76.c        ****         }
1329:AS76.c        ****         else
1330:AS76.c        ****         {
1331:AS76.c        ****           USB_received[6] = 0x00;
1332:AS76.c        ****         }
1333:AS76.c        ****         
1334:AS76.c        ****         direction = USB_received[6];
1335:AS76.c        ****         run_pump (time_ms, direction);
1336:AS76.c        ****         Send_Feedback_to_USB(Error);
1337:AS76.c        ****     }
1338:AS76.c        ****     
1339:AS76.c        ****     else if (command == GotoXYZ)
1340:AS76.c        ****     {
1341:AS76.c        ****         Position_X_Requested = ((int32)USB_received[5] << 24) + ((int32)USB_received[4] << 16) + ((
1342:AS76.c        ****         Position_Y_Requested = ((int32)USB_received[9] << 24) + ((int32)USB_received[8] << 16) + ((
1343:AS76.c        ****         Position_Z_Requested = ((int32)USB_received[13] << 24) + ((int32)USB_received[12] << 16) + 
1344:AS76.c        ****         
1345:AS76.c        ****         if(Position_X_Requested >= 0)
1346:AS76.c        ****         {        
1347:AS76.c        ****         Position_X_Requested = (Position_X_Requested / 4);
1348:AS76.c        ****         Position_X_Requested = Position_X_Requested * 12.8;
1349:AS76.c        ****         }
1350:AS76.c        ****         if(Position_Y_Requested >= 0)
1351:AS76.c        ****         { 
1352:AS76.c        ****         Position_Y_Requested = (Position_Y_Requested / 4);
1353:AS76.c        ****         Position_Y_Requested = Position_Y_Requested * 12.8;
1354:AS76.c        ****         }
1355:AS76.c        ****         if(Position_Z_Requested >= 0)
ARM GAS  C:\Users\Revanth\AppData\Local\Temp\ccHsQCvB.s 			page 31


1356:AS76.c        ****         { 
1357:AS76.c        ****         Position_Z_Requested = (Position_Z_Requested / 16);
1358:AS76.c        ****         Position_Z_Requested = Position_Z_Requested * 51.2;
1359:AS76.c        ****         }
1360:AS76.c        ****         
1361:AS76.c        ****         Error = goTo_XYZ(Position_X_Requested, Position_Y_Requested, Position_Z_Requested);
1362:AS76.c        ****         CyDelay(10);
1363:AS76.c        ****         Write_32bitSPI_DATA (0x10  , (int) 0x00070103, TMC5160_nCS_MotorY );
1364:AS76.c        ****         Write_32bitSPI_DATA (0x10  , (int) 0x00070103, TMC5160_nCS_MotorZ );
1365:AS76.c        ****         Write_32bitSPI_DATA (0x10  , (int) 0x00070103, TMC5160_nCS_MotorX );
1366:AS76.c        ****         Write_32bitSPI_DATA (0x10  , (int) 0x00070103, TMC5160_nCS_MotorT );
1367:AS76.c        ****         Send_Feedback_to_USB(Error);
1368:AS76.c        ****     }
1369:AS76.c        ****     
1370:AS76.c        ****     else if (command == Set_LED_voltage)
1371:AS76.c        ****     { 
1372:AS76.c        ****         set_CondenserLED();
1373:AS76.c        ****         CyDelay(100);
1374:AS76.c        ****         Send_Feedback_to_USB(Error);  
1375:AS76.c        ****     }
1376:AS76.c        ****     
1377:AS76.c        ****     else if (command == Set_BarClight)
1378:AS76.c        ****     {
1379:AS76.c        ****         set_BarcodeCondenser_LED();
1380:AS76.c        ****         CyDelay(100);
1381:AS76.c        ****         Send_Feedback_to_USB(Error);  
1382:AS76.c        ****     }
1383:AS76.c        ****     
1384:AS76.c        ****     else if (command == Set_Backlight)
1385:AS76.c        ****     {
1386:AS76.c        ****         uint8_t value=0;
1387:AS76.c        ****         value = USB_received[2];
1388:AS76.c        ****         if(value == 0)
1389:AS76.c        ****         {
1390:AS76.c        ****         value = 0x00;
1391:AS76.c        ****         }
1392:AS76.c        ****         else if(value == 1)
1393:AS76.c        ****         {
1394:AS76.c        ****         value =0xFF;
1395:AS76.c        ****         }
1396:AS76.c        ****         else
1397:AS76.c        ****         {
1398:AS76.c        ****         Write_Debug_UART_Char("Backlight LED wronf Value Provided  \r\n");
1399:AS76.c        ****         }
1400:AS76.c        ****        
1401:AS76.c        ****         Pin_Backlight_Write(value);
1402:AS76.c        ****         Send_Feedback_to_USB(Error);
1403:AS76.c        ****     }
1404:AS76.c        ****     
1405:AS76.c        ****     else if (command == PCB_Reset)                     
1406:AS76.c        ****     {
1407:AS76.c        ****         Write_Debug_UART_Char("PCB Reset Command Recived  \r\n");
1408:AS76.c        ****         Write_Debug_UART_Char("\r\n");
1409:AS76.c        ****         CyDelay(500);
1410:AS76.c        ****         Send_Feedback_to_USB(0);
1411:AS76.c        ****         CyDelay(500);
1412:AS76.c        ****         CySoftwareReset();
ARM GAS  C:\Users\Revanth\AppData\Local\Temp\ccHsQCvB.s 			page 32


1413:AS76.c        ****     }
1414:AS76.c        ****     else if(command == SetSpeed)  
1415:AS76.c        ****     {
1416:AS76.c        ****         
1417:AS76.c        ****         Motor_Speed_X = ((int32)USB_received[5] << 24) + ((int32)USB_received[4] << 16) + ((int32)U
1418:AS76.c        ****         Motor_Speed_Y = ((int32)USB_received[9] << 24) + ((int32)USB_received[8] << 16) + ((int32)U
1419:AS76.c        ****         Motor_Speed_Z = ((int32)USB_received[13] << 24) + ((int32)USB_received[12] << 16) + ((int32
1420:AS76.c        ****         
1421:AS76.c        ****         Write_Debug_UART_Char("SetNoOfExecution Command Recived  \r\n");
1422:AS76.c        ****         
1423:AS76.c        ****         update_max_velocity(Motor_Speed_X, TMC5160_nCS_MotorX);        
1424:AS76.c        ****         update_max_velocity(Motor_Speed_Y, TMC5160_nCS_MotorY);        
1425:AS76.c        ****         update_max_velocity(Motor_Speed_Z, TMC5160_nCS_MotorZ);
1426:AS76.c        ****         Write_Debug_UART_Char("Value received for x,y and z is --->");
1427:AS76.c        ****         Write_Debug_UART_Int(Motor_Speed_X);
1428:AS76.c        ****         Write_Debug_UART_Char(",");
1429:AS76.c        ****         Write_Debug_UART_Int(Motor_Speed_Y);
1430:AS76.c        ****         Write_Debug_UART_Char(",");
1431:AS76.c        ****         Write_Debug_UART_Int(Motor_Speed_Z);
1432:AS76.c        ****         Write_Debug_UART_Char(",");
1433:AS76.c        ****         Send_Feedback_to_USB(Error);
1434:AS76.c        ****     }
1435:AS76.c        ****     
1436:AS76.c        ****     else if(command == GotoZ_Vs)
1437:AS76.c        ****     {
1438:AS76.c        ****     Position_Z_Requested = ((int32)USB_received[5] << 24) + ((int32)USB_received[4] << 16) + ((int3
1439:AS76.c        ****     Motor_Speed_Z = ((int32)USB_received[9] << 24) + ((int32)USB_received[8] << 16) + ((int32)USB_r
1440:AS76.c        ****     update_max_velocity(Motor_Speed_Z,TMC5160_nCS_MotorZ);    
1441:AS76.c        ****     Position_Z_Requested = (Position_Z_Requested / 16);
1442:AS76.c        ****     Position_Z_Requested = Position_Z_Requested * 51.2;
1443:AS76.c        ****     goTo_Z(Position_Z_Requested);
1444:AS76.c        ****     Send_Feedback_to_USB(Error);
1445:AS76.c        ****     }
1446:AS76.c        ****     
1447:AS76.c        ****     else if(command == GotoO_Vs)
1448:AS76.c        ****     {        
1449:AS76.c        ****     time_ms   = ((int32)USB_received[5] << 24) + ((int32)USB_received[4] << 16) + ((int32)USB_recei
1450:AS76.c        ****     oil_speed = ((int32)USB_received[9] << 24) + ((int32)USB_received[8] << 16) + ((int32)USB_recei
1451:AS76.c        ****     oil_dir   = USB_received[10];
1452:AS76.c        ****     run_pumpvs (time_ms, oil_speed, oil_dir);
1453:AS76.c        ****     Error = 0;
1454:AS76.c        ****     Send_Feedback_to_USB(Error);
1455:AS76.c        ****     }
1456:AS76.c        ****     
1457:AS76.c        ****     else if (command == GotoXYZ_Vs)
1458:AS76.c        ****     {
1459:AS76.c        ****         Position_X_Requested = ((int32)USB_received[5] << 24) + ((int32)USB_received[4] << 16) + ((
1460:AS76.c        ****         Input_Position_X_Temp = Position_X_Requested;
1461:AS76.c        ****         Position_Y_Requested = ((int32)USB_received[9] << 24) + ((int32)USB_received[8] << 16) + ((
1462:AS76.c        ****         Position_Z_Requested = ((int32)USB_received[13] << 24) + ((int32)USB_received[12] << 16) + 
1463:AS76.c        ****         
1464:AS76.c        ****         Motor_Speed_X = ((int32)USB_received[17] << 24) + ((int32)USB_received[16] << 16) + ((int32
1465:AS76.c        ****         Motor_Speed_Y = ((int32)USB_received[21] << 24) + ((int32)USB_received[20] << 16) + ((int32
1466:AS76.c        ****         Motor_Speed_Z = ((int32)USB_received[25] << 24) + ((int32)USB_received[24] << 16) + ((int32
1467:AS76.c        ****         
1468:AS76.c        ****         CyDelayUs(10);
1469:AS76.c        ****         
ARM GAS  C:\Users\Revanth\AppData\Local\Temp\ccHsQCvB.s 			page 33


1470:AS76.c        ****         update_max_velocity(Motor_Speed_X, TMC5160_nCS_MotorX);        
1471:AS76.c        ****         update_max_velocity(Motor_Speed_Y, TMC5160_nCS_MotorY);        
1472:AS76.c        ****         update_max_velocity(Motor_Speed_Z, TMC5160_nCS_MotorZ);
1473:AS76.c        ****         
1474:AS76.c        ****         Position_X_Requested = (Position_X_Requested / 4);
1475:AS76.c        ****         Position_X_Requested = Position_X_Requested * 12.8;
1476:AS76.c        ****         
1477:AS76.c        ****         Position_Y_Requested = (Position_Y_Requested / 4);
1478:AS76.c        ****         Position_Y_Requested = Position_Y_Requested * 12.8;
1479:AS76.c        ****         
1480:AS76.c        ****         Position_Z_Requested = (Position_Z_Requested / 16);
1481:AS76.c        ****         Position_Z_Requested = Position_Z_Requested * 51.2;
1482:AS76.c        ****         
1483:AS76.c        ****         CyDelayUs(100);
1484:AS76.c        ****         
1485:AS76.c        ****         Error = goTo_XYZ(Position_X_Requested, Position_Y_Requested, Position_Z_Requested);
1486:AS76.c        ****         CyDelay(100);
1487:AS76.c        ****          X_QuadPosition = Position_X_Requested;
1488:AS76.c        ****         Send_Feedback_to_USB(Error);
1489:AS76.c        ****     }
1490:AS76.c        ****     else if (command == SetNoOfExecution)
1491:AS76.c        ****     {
1492:AS76.c        ****         //set_no_of_execution();
1493:AS76.c        ****         
1494:AS76.c        ****         Send_Feedback_to_USB(Error);   
1495:AS76.c        ****     }
1496:AS76.c        ****     else if (command == Get_Status)                          
1497:AS76.c        ****     {
1498:AS76.c        ****         LED3_Write(0xFF);
1499:AS76.c        ****         Write_Debug_UART_Char("Get Status Command Recived  \r\n");
1500:AS76.c        ****         CyDelay(10);
1501:AS76.c        ****         Send_Feedback_to_USB(0);
1502:AS76.c        ****         LED3_Write(0x00);
1503:AS76.c        ****     }
1504:AS76.c        ****     else
1505:AS76.c        ****     {
1506:AS76.c        ****         Error = 19;//Wrong_Command_Received
1507:AS76.c        ****         Write_Debug_UART_Char("Wrong Command Received*********** \r\n");
1508:AS76.c        ****         UART_print_all_values();
1509:AS76.c        ****         Send_Feedback_to_USB(19);
1510:AS76.c        ****     }
1511:AS76.c        ****     //Pin_USB_RX_TX_Indicator_LED_Write(0);/* turn OFF LED as a indicator to stop process the comma
1512:AS76.c        **** }
1513:AS76.c        **** void Send_Feedback_to_USB(int Error)//Send Feedback to USB if USB command executed correctely 
1514:AS76.c        **** {
1515:AS76.c        ****      Read_All_Optical_Encoder();
1516:AS76.c        **** 
1517:AS76.c        ****     
1518:AS76.c        ****     
1519:AS76.c        ****         if(Error == 0)
1520:AS76.c        ****         {            
1521:AS76.c        ****             USB_transmit[0] = command;
1522:AS76.c        ****             USB_transmit[1] = (command >> 8);
1523:AS76.c        ****             USB_transmit[2] = No_Error;
1524:AS76.c        ****             USB_transmit[3] = No_Error >> 8;
1525:AS76.c        ****         }
1526:AS76.c        ****         else
ARM GAS  C:\Users\Revanth\AppData\Local\Temp\ccHsQCvB.s 			page 34


1527:AS76.c        ****         {
1528:AS76.c        ****             switch(Error)
1529:AS76.c        ****             {
1530:AS76.c        ****                 case 1:
1531:AS76.c        ****                 {
1532:AS76.c        ****                     USB_transmit[2] = X_Motor_Not_Working;
1533:AS76.c        ****                     USB_transmit[3] = X_Motor_Not_Working >> 8; 
1534:AS76.c        ****                     break;
1535:AS76.c        ****                 }
1536:AS76.c        ****                 case 2:
1537:AS76.c        ****                 {
1538:AS76.c        ****                     USB_transmit[2] = X_Encoder_Not_Working;
1539:AS76.c        ****                     USB_transmit[3] = X_Encoder_Not_Working >> 8; 
1540:AS76.c        ****                     break;
1541:AS76.c        ****                 }
1542:AS76.c        ****                 case 3:
1543:AS76.c        ****                 {
1544:AS76.c        ****                     USB_transmit[2] = X_Switch_Not_Working;
1545:AS76.c        ****                     USB_transmit[3] = X_Switch_Not_Working >> 8; 
1546:AS76.c        ****                     break;
1547:AS76.c        ****                 }
1548:AS76.c        ****                 case 4:
1549:AS76.c        ****                 {
1550:AS76.c        ****                     USB_transmit[2] = X_Motor_Driver_Fault;
1551:AS76.c        ****                     USB_transmit[3] = X_Motor_Driver_Fault >> 8; 
1552:AS76.c        ****                     break;
1553:AS76.c        ****                 }
1554:AS76.c        ****                 case 5:
1555:AS76.c        ****                 {
1556:AS76.c        ****                     USB_transmit[2] = Requested_X_Step_Exceeding_The_Limit;
1557:AS76.c        ****                     USB_transmit[3] = Requested_X_Step_Exceeding_The_Limit >> 8; 
1558:AS76.c        ****                     break;
1559:AS76.c        ****                 }
1560:AS76.c        ****                 case 6:
1561:AS76.c        ****                 {
1562:AS76.c        ****                     USB_transmit[2] = X_Homing_Not_Done_Yet;
1563:AS76.c        ****                     USB_transmit[3] = X_Homing_Not_Done_Yet >> 8; 
1564:AS76.c        ****                     break;
1565:AS76.c        ****                 }
1566:AS76.c        ****                 case 7:
1567:AS76.c        ****                 {
1568:AS76.c        ****                     USB_transmit[2] = X_Motor_Busy ;
1569:AS76.c        ****                     USB_transmit[3] = X_Motor_Busy >> 8; 
1570:AS76.c        ****                     break;
1571:AS76.c        ****                 }
1572:AS76.c        ****                 case 8:
1573:AS76.c        ****                 {
1574:AS76.c        ****                     USB_transmit[2] = Y_Motor_Not_Working;
1575:AS76.c        ****                     USB_transmit[3] = Y_Motor_Not_Working >> 8; 
1576:AS76.c        ****                     break;
1577:AS76.c        ****                 }
1578:AS76.c        ****                 case 9:
1579:AS76.c        ****                 {
1580:AS76.c        ****                     USB_transmit[2] = Y_Encoder_Not_Working;
1581:AS76.c        ****                     USB_transmit[3] = Y_Encoder_Not_Working >> 8; 
1582:AS76.c        ****                     break;
1583:AS76.c        ****                 }
ARM GAS  C:\Users\Revanth\AppData\Local\Temp\ccHsQCvB.s 			page 35


1584:AS76.c        ****                 case 10:
1585:AS76.c        ****                 {
1586:AS76.c        ****                     USB_transmit[2] = Y_Switch_Not_Working;
1587:AS76.c        ****                     USB_transmit[3] = Y_Switch_Not_Working >> 8; 
1588:AS76.c        ****                     break;
1589:AS76.c        ****                 }
1590:AS76.c        ****                 case 11:
1591:AS76.c        ****                 {
1592:AS76.c        ****                     USB_transmit[2] = Y_Motor_Driver_Fault;
1593:AS76.c        ****                     USB_transmit[3] = Y_Motor_Driver_Fault >> 8; 
1594:AS76.c        ****                     break;
1595:AS76.c        ****                 }
1596:AS76.c        ****                 case 12:
1597:AS76.c        ****                 {
1598:AS76.c        ****                     USB_transmit[2] = Requested_Y_Step_Exceeding_The_Limit;
1599:AS76.c        ****                     USB_transmit[3] = Requested_Y_Step_Exceeding_The_Limit >> 8; 
1600:AS76.c        ****                     break;
1601:AS76.c        ****                 }
1602:AS76.c        ****                 case 13:
1603:AS76.c        ****                 {
1604:AS76.c        ****                     USB_transmit[2] = Y_Homing_Not_Done_Yet;
1605:AS76.c        ****                     USB_transmit[3] = Y_Homing_Not_Done_Yet >> 8; 
1606:AS76.c        ****                     break;
1607:AS76.c        ****                 }
1608:AS76.c        ****                 case 14:
1609:AS76.c        ****                 {
1610:AS76.c        ****                     USB_transmit[2] = Y_Motor_Busy;
1611:AS76.c        ****                     USB_transmit[3] = Y_Motor_Busy >> 8; 
1612:AS76.c        ****                     break;
1613:AS76.c        ****                 }
1614:AS76.c        ****                 case 15:
1615:AS76.c        ****                 {
1616:AS76.c        ****                     USB_transmit[2] = Z_Motor_Not_Working ;
1617:AS76.c        ****                     USB_transmit[3] = Z_Motor_Not_Working >> 8; 
1618:AS76.c        ****                     break;
1619:AS76.c        ****                 }
1620:AS76.c        ****                 case 16:
1621:AS76.c        ****                 {
1622:AS76.c        ****                     USB_transmit[2] = Z_Encoder_Not_Working ;
1623:AS76.c        ****                     USB_transmit[3] = Z_Encoder_Not_Working >> 8; 
1624:AS76.c        ****                     break;
1625:AS76.c        ****                 }
1626:AS76.c        ****                 case 17:
1627:AS76.c        ****                 {
1628:AS76.c        ****                     USB_transmit[2] = Z_Switch_Not_Working;
1629:AS76.c        ****                     USB_transmit[3] = Z_Switch_Not_Working >> 8; 
1630:AS76.c        ****                     break;
1631:AS76.c        ****                 }
1632:AS76.c        ****                 case 18:
1633:AS76.c        ****                 {
1634:AS76.c        ****                     USB_transmit[2] = Z_Motor_Driver_Fault;
1635:AS76.c        ****                     USB_transmit[3] = Z_Motor_Driver_Fault >> 8; 
1636:AS76.c        ****                     break;
1637:AS76.c        ****                 }
1638:AS76.c        ****                 case 19:
1639:AS76.c        ****                 {
1640:AS76.c        ****                     USB_transmit[2] = Requested_Z_Step_Exceeding_The_Limit;
ARM GAS  C:\Users\Revanth\AppData\Local\Temp\ccHsQCvB.s 			page 36


1641:AS76.c        ****                     USB_transmit[3] = Requested_Z_Step_Exceeding_The_Limit >> 8; 
1642:AS76.c        ****                     break;
1643:AS76.c        ****                 }
1644:AS76.c        ****                 case 20:
1645:AS76.c        ****                 {
1646:AS76.c        ****                     USB_transmit[2] = Z_Homing_Not_Done_Yet;
1647:AS76.c        ****                     USB_transmit[3] = Z_Homing_Not_Done_Yet >> 8; 
1648:AS76.c        ****                     break;
1649:AS76.c        ****                 }
1650:AS76.c        ****                 case 21:
1651:AS76.c        ****                 {
1652:AS76.c        ****                     USB_transmit[2] = Z_Motor_Busy;
1653:AS76.c        ****                     USB_transmit[3] = Z_Motor_Busy >> 8; 
1654:AS76.c        ****                     break;
1655:AS76.c        ****                 }
1656:AS76.c        ****                 case 22:
1657:AS76.c        ****                 {
1658:AS76.c        ****                     USB_transmit[2] = T_Motor_Not_Working;
1659:AS76.c        ****                     USB_transmit[3] =  T_Motor_Not_Working>> 8; 
1660:AS76.c        ****                     break;
1661:AS76.c        ****                 }
1662:AS76.c        ****                 case 23:
1663:AS76.c        ****                 {
1664:AS76.c        ****                     USB_transmit[2] = T_Encoder_Not_Working;
1665:AS76.c        ****                     USB_transmit[3] =  T_Encoder_Not_Working>> 8; 
1666:AS76.c        ****                     break;
1667:AS76.c        ****                 }
1668:AS76.c        ****                 case 24:
1669:AS76.c        ****                 {
1670:AS76.c        ****                     USB_transmit[2] = T_Switch_Not_Working;
1671:AS76.c        ****                     USB_transmit[3] =  T_Switch_Not_Working>> 8; 
1672:AS76.c        ****                     break;
1673:AS76.c        ****                 }
1674:AS76.c        ****                 
1675:AS76.c        ****                 case 25:
1676:AS76.c        ****                 {
1677:AS76.c        ****                     USB_transmit[2] = T_Motor_Driver_Fault;
1678:AS76.c        ****                     USB_transmit[3] =  T_Motor_Driver_Fault>> 8; 
1679:AS76.c        ****                     break;
1680:AS76.c        ****                 }
1681:AS76.c        ****                 case 26:
1682:AS76.c        ****                 {
1683:AS76.c        ****                     USB_transmit[2] = Requested_T_Step_Exceeding_The_Limit;
1684:AS76.c        ****                     USB_transmit[3] =  Requested_T_Step_Exceeding_The_Limit>> 8; 
1685:AS76.c        ****                     break;
1686:AS76.c        ****                 }
1687:AS76.c        ****                 case 27:
1688:AS76.c        ****                 {
1689:AS76.c        ****                     USB_transmit[2] = T_Homing_Not_Done_Yet;
1690:AS76.c        ****                     USB_transmit[3] =  T_Homing_Not_Done_Yet>> 8; 
1691:AS76.c        ****                     break;
1692:AS76.c        ****                 }
1693:AS76.c        ****                 case 28:
1694:AS76.c        ****                 {
1695:AS76.c        ****                     USB_transmit[2] = T_Motor_Busy;
1696:AS76.c        ****                     USB_transmit[3] = T_Motor_Busy >> 8; 
1697:AS76.c        ****                     break;
ARM GAS  C:\Users\Revanth\AppData\Local\Temp\ccHsQCvB.s 			page 37


1698:AS76.c        ****                 }
1699:AS76.c        ****                 case 29:
1700:AS76.c        ****                 {
1701:AS76.c        ****                     USB_transmit[2] = Wrong_Command_Received;
1702:AS76.c        ****                     USB_transmit[3] = Wrong_Command_Received >> 8; 
1703:AS76.c        ****                     break;
1704:AS76.c        ****                 }
1705:AS76.c        ****                 case 30:
1706:AS76.c        ****                 {
1707:AS76.c        ****                     USB_transmit[2] = PCB_Paused;
1708:AS76.c        ****                     USB_transmit[3] = PCB_Paused >> 8; 
1709:AS76.c        ****                     break;
1710:AS76.c        ****                 }
1711:AS76.c        ****                 case 31:
1712:AS76.c        ****                 {
1713:AS76.c        ****                     USB_transmit[2] = PCB_Busy;
1714:AS76.c        ****                     USB_transmit[3] = PCB_Busy >> 8; 
1715:AS76.c        ****                     break;
1716:AS76.c        ****                 }
1717:AS76.c        ****                 case 32:
1718:AS76.c        ****                 {
1719:AS76.c        ****                     USB_transmit[2] = All_Motors_Homing_Not_Done;
1720:AS76.c        ****                     USB_transmit[3] = All_Motors_Homing_Not_Done >> 8; 
1721:AS76.c        ****                     break;
1722:AS76.c        ****                 }
1723:AS76.c        ****                 
1724:AS76.c        ****                 case 33:
1725:AS76.c        ****                 {
1726:AS76.c        ****                     USB_transmit[2] = O_Motor_Not_Working;
1727:AS76.c        ****                     USB_transmit[3] = O_Motor_Not_Working >> 8; 
1728:AS76.c        ****                     break;
1729:AS76.c        ****                 }
1730:AS76.c        ****             }
1731:AS76.c        ****         }
1732:AS76.c        ****         
1733:AS76.c        ****         //X_QuadPosition = (X_QuadPosition * 4);
1734:AS76.c        ****         Y_QuadPosition = (Y_QuadPosition * 4);    
1735:AS76.c        ****         T_QuadPosition = (int)(T_QuadPosition * 3.2); 
1736:AS76.c        ****         USB_transmit[4] = (X_QuadPosition);
1737:AS76.c        ****         USB_transmit[5] = (X_QuadPosition) >> 8;
1738:AS76.c        ****         USB_transmit[6] = (X_QuadPosition) >> 16;
1739:AS76.c        ****         USB_transmit[7] = (X_QuadPosition) >> 24;
1740:AS76.c        ****         USB_transmit[8] = (Y_QuadPosition);
1741:AS76.c        ****         USB_transmit[9] = (Y_QuadPosition) >> 8;
1742:AS76.c        ****         USB_transmit[10] =(Y_QuadPosition) >> 16;
1743:AS76.c        ****         USB_transmit[11] =(Y_QuadPosition) >> 24;
1744:AS76.c        ****         USB_transmit[12] = Z_QuadPosition;
1745:AS76.c        ****         USB_transmit[13] = Z_QuadPosition >> 8;
1746:AS76.c        ****         USB_transmit[14] = Z_QuadPosition >> 16;
1747:AS76.c        ****         USB_transmit[15] = Z_QuadPosition >> 24;
1748:AS76.c        ****         USB_transmit[16] = T_QuadPosition;
1749:AS76.c        ****         USB_transmit[17] = T_QuadPosition >> 8;
1750:AS76.c        ****         USB_transmit[18] = T_QuadPosition >> 16;
1751:AS76.c        ****         USB_transmit[19] = T_QuadPosition >> 24;
1752:AS76.c        ****         USB_transmit[20] = PWM_Condenser_comare_value;
1753:AS76.c        ****         USB_transmit[21] = PWM_Condenser_comare_value >> 8;
1754:AS76.c        ****         USB_transmit[22] = 0;
ARM GAS  C:\Users\Revanth\AppData\Local\Temp\ccHsQCvB.s 			page 38


1755:AS76.c        ****         USB_transmit[23] = 0;
1756:AS76.c        ****         USB_transmit[24] = 0;
1757:AS76.c        ****         USB_transmit[25] = 0;
1758:AS76.c        ****         USB_transmit[26] = 0;
1759:AS76.c        ****         USB_transmit[27] = 0;
1760:AS76.c        ****         USB_transmit[28] = Motor_Speed_X;
1761:AS76.c        ****         USB_transmit[29] = Motor_Speed_X >> 8;
1762:AS76.c        ****         USB_transmit[30] = Motor_Speed_Y;
1763:AS76.c        ****         USB_transmit[31] = Motor_Speed_Y >> 8;
1764:AS76.c        ****         USB_transmit[32] = Motor_Speed_Z;
1765:AS76.c        ****         USB_transmit[33] = Motor_Speed_Z >> 8;
1766:AS76.c        ****         USB_transmit[34] = 0x00;
1767:AS76.c        ****         USB_transmit[35] = 0x00 >> 8;
1768:AS76.c        ****         USB_transmit[36] = 0x00;
1769:AS76.c        ****         USB_transmit[37] = 0x00;
1770:AS76.c        ****         USB_transmit[38] = 0x00;
1771:AS76.c        ****         USB_transmit[39] = Firmware_Version;
1772:AS76.c        ****         USB_transmit[40] = 0;
1773:AS76.c        ****         USB_transmit[41] = 0;
1774:AS76.c        ****         USB_transmit[42] = 0;
1775:AS76.c        ****         USB_transmit[43] = 0;
1776:AS76.c        ****         USB_transmit[44] = 0;
1777:AS76.c        ****         USB_transmit[45] = 0;
1778:AS76.c        ****         
1779:AS76.c        ****         
1780:AS76.c        ****         
1781:AS76.c        ****         
1782:AS76.c        ****         
1783:AS76.c        ****         Write_Debug_UART_Char("Feedback Sent to Motherboard  \r\n");
1784:AS76.c        ****         USB_PutData(USB_transmit, 46);  //send data back to usb
1785:AS76.c        ****     
1786:AS76.c        **** }
1787:AS76.c        **** void USB_Detect_Indication_Via_LED()/* LED Indicator for USB detection. */
1788:AS76.c        **** {
 346              		.loc 1 1788 0
 347              		.cfi_startproc
 348              		@ args = 0, pretend = 0, frame = 0
 349              		@ frame_needed = 0, uses_anonymous_args = 0
 350              		@ link register save eliminated.
 351 0000 7047     		bx	lr
 352              		.cfi_endproc
 353              	.LFE93:
 354              		.size	USB_Detect_Indication_Via_LED, .-USB_Detect_Indication_Via_LED
 355 0002 00BF     		.section	.text.Clear_USB_RX_Buffer,"ax",%progbits
 356              		.align	2
 357              		.global	Clear_USB_RX_Buffer
 358              		.thumb
 359              		.thumb_func
 360              		.type	Clear_USB_RX_Buffer, %function
 361              	Clear_USB_RX_Buffer:
 362              	.LFB96:
1789:AS76.c        **** 
1790:AS76.c        **** }
1791:AS76.c        **** void Initialize_USB()/* Start the USB. */
1792:AS76.c        **** {
1793:AS76.c        ****     USB_Start(0, USB_5V_OPERATION);   
1794:AS76.c        ****     while (0 == USB_GetConfiguration()) /* wait untill USB not found. */
ARM GAS  C:\Users\Revanth\AppData\Local\Temp\ccHsQCvB.s 			page 39


1795:AS76.c        ****     {
1796:AS76.c        ****         Write_Debug_UART_Char("USB not Connected***********  \r\n");
1797:AS76.c        ****         CyDelayUs(1);
1798:AS76.c        ****     }
1799:AS76.c        ****     USB_CDC_Init();
1800:AS76.c        ****     Write_Debug_UART_Char("USB Connected  \r\n");
1801:AS76.c        ****     USB_EnableSofInt();  
1802:AS76.c        **** }
1803:AS76.c        **** void Is_USB_Unpluged()/* Check for changes in USB port reset if USB changes. */
1804:AS76.c        **** {
1805:AS76.c        ****    static bool dont_Execute_1st_Time=false;
1806:AS76.c        ****    if(USB_IsConfigurationChanged() != 0)
1807:AS76.c        ****    {
1808:AS76.c        ****     Beep_Twice();
1809:AS76.c        ****        if(USB_GetConfiguration() != 0)
1810:AS76.c        ****        {
1811:AS76.c        ****             if(dont_Execute_1st_Time)/* Ignore for the first time. */
1812:AS76.c        ****             {
1813:AS76.c        ****                 Write_Debug_UART_Char("USB Unpluged PCB resetting ***********  \r\n");
1814:AS76.c        ****                 UART_print_all_values();
1815:AS76.c        ****                 CyDelay(1);
1816:AS76.c        ****                 CySoftwareReset();
1817:AS76.c        ****             }
1818:AS76.c        ****             dont_Execute_1st_Time = true;
1819:AS76.c        ****        }
1820:AS76.c        ****    }  
1821:AS76.c        **** }
1822:AS76.c        **** void Clear_USB_RX_Buffer()/* Initialize all USB_received 64 bits to 0. */
1823:AS76.c        **** {
 363              		.loc 1 1823 0
 364              		.cfi_startproc
 365              		@ args = 0, pretend = 0, frame = 0
 366              		@ frame_needed = 0, uses_anonymous_args = 0
 367              		@ link register save eliminated.
 368              	.LVL28:
1824:AS76.c        ****     int i =0;
1825:AS76.c        ****     for(i=0;i<65;i++)   //Initializing all bites to 0
 369              		.loc 1 1825 0
 370 0000 0023     		movs	r3, #0
 371 0002 03E0     		b	.L31
 372              	.LVL29:
 373              	.L32:
1826:AS76.c        ****         USB_received[i] = 0;   
 374              		.loc 1 1826 0 discriminator 3
 375 0004 0021     		movs	r1, #0
 376 0006 034A     		ldr	r2, .L33
 377 0008 D154     		strb	r1, [r2, r3]
1825:AS76.c        ****         USB_received[i] = 0;   
 378              		.loc 1 1825 0 discriminator 3
 379 000a 0133     		adds	r3, r3, #1
 380              	.LVL30:
 381              	.L31:
1825:AS76.c        ****         USB_received[i] = 0;   
 382              		.loc 1 1825 0 is_stmt 0 discriminator 1
 383 000c 402B     		cmp	r3, #64
 384 000e F9DD     		ble	.L32
1827:AS76.c        **** }
ARM GAS  C:\Users\Revanth\AppData\Local\Temp\ccHsQCvB.s 			page 40


 385              		.loc 1 1827 0 is_stmt 1
 386 0010 7047     		bx	lr
 387              	.L34:
 388 0012 00BF     		.align	2
 389              	.L33:
 390 0014 00000000 		.word	USB_received
 391              		.cfi_endproc
 392              	.LFE96:
 393              		.size	Clear_USB_RX_Buffer, .-Clear_USB_RX_Buffer
 394              		.section	.text.Clear_Pending_USB_Data,"ax",%progbits
 395              		.align	2
 396              		.global	Clear_Pending_USB_Data
 397              		.thumb
 398              		.thumb_func
 399              		.type	Clear_Pending_USB_Data, %function
 400              	Clear_Pending_USB_Data:
 401              	.LFB97:
1828:AS76.c        **** void Clear_Pending_USB_Data()/* Clear all pending data on usb RX buffer. */
1829:AS76.c        **** {
 402              		.loc 1 1829 0
 403              		.cfi_startproc
 404              		@ args = 0, pretend = 0, frame = 64
 405              		@ frame_needed = 0, uses_anonymous_args = 0
 406 0000 10B5     		push	{r4, lr}
 407              		.cfi_def_cfa_offset 8
 408              		.cfi_offset 4, -8
 409              		.cfi_offset 14, -4
 410 0002 90B0     		sub	sp, sp, #64
 411              		.cfi_def_cfa_offset 72
 412              	.LVL31:
1830:AS76.c        ****     int i;
1831:AS76.c        ****     uint8 USB_received_temp[64];
1832:AS76.c        ****     for(i=0;i<5;i++)
 413              		.loc 1 1832 0
 414 0004 0024     		movs	r4, #0
 415 0006 03E0     		b	.L36
 416              	.LVL32:
 417              	.L37:
1833:AS76.c        ****         {       
1834:AS76.c        ****             USB_GetAll(USB_received_temp);/* read and clear all Pending data. */
 418              		.loc 1 1834 0 discriminator 3
 419 0008 6846     		mov	r0, sp
 420 000a FFF7FEFF 		bl	USB_GetAll
 421              	.LVL33:
1832:AS76.c        ****         {       
 422              		.loc 1 1832 0 discriminator 3
 423 000e 0134     		adds	r4, r4, #1
 424              	.LVL34:
 425              	.L36:
1832:AS76.c        ****         {       
 426              		.loc 1 1832 0 is_stmt 0 discriminator 1
 427 0010 042C     		cmp	r4, #4
 428 0012 F9DD     		ble	.L37
1835:AS76.c        ****         }    
1836:AS76.c        **** }
 429              		.loc 1 1836 0 is_stmt 1
 430 0014 10B0     		add	sp, sp, #64
ARM GAS  C:\Users\Revanth\AppData\Local\Temp\ccHsQCvB.s 			page 41


 431              		.cfi_def_cfa_offset 8
 432              		@ sp needed
 433 0016 10BD     		pop	{r4, pc}
 434              		.cfi_endproc
 435              	.LFE97:
 436              		.size	Clear_Pending_USB_Data, .-Clear_Pending_USB_Data
 437              		.section	.text.Write_Debug_UART_Char,"ax",%progbits
 438              		.align	2
 439              		.global	Write_Debug_UART_Char
 440              		.thumb
 441              		.thumb_func
 442              		.type	Write_Debug_UART_Char, %function
 443              	Write_Debug_UART_Char:
 444              	.LFB98:
1837:AS76.c        **** void Write_Debug_UART_Char(char Str[])
1838:AS76.c        **** {
 445              		.loc 1 1838 0
 446              		.cfi_startproc
 447              		@ args = 0, pretend = 0, frame = 0
 448              		@ frame_needed = 0, uses_anonymous_args = 0
 449              	.LVL35:
 450 0000 10B5     		push	{r4, lr}
 451              		.cfi_def_cfa_offset 8
 452              		.cfi_offset 4, -8
 453              		.cfi_offset 14, -4
 454 0002 0446     		mov	r4, r0
 455              	.LBB2:
1839:AS76.c        ****     //if(Pin_UART_Enable_Read()==0)
1840:AS76.c        ****     {
1841:AS76.c        ****         static char Str_Last_One[] = "ShonitV2.2\r\n";
1842:AS76.c        ****         if((strncmp(Str_Last_One, Str, 10)!=0))
 456              		.loc 1 1842 0
 457 0004 0A22     		movs	r2, #10
 458 0006 0146     		mov	r1, r0
 459 0008 0748     		ldr	r0, .L42
 460              	.LVL36:
 461 000a FFF7FEFF 		bl	strncmp
 462              	.LVL37:
 463 000e 50B1     		cbz	r0, .L39
1843:AS76.c        ****     	{
1844:AS76.c        ****             UART_PCB_LOG_PutString(Str);
 464              		.loc 1 1844 0
 465 0010 2046     		mov	r0, r4
 466 0012 FFF7FEFF 		bl	UART_PCB_LOG_PutString
 467              	.LVL38:
1845:AS76.c        ****             CyDelayUs(1);
 468              		.loc 1 1845 0
 469 0016 0120     		movs	r0, #1
 470 0018 FFF7FEFF 		bl	CyDelayUs
 471              	.LVL39:
1846:AS76.c        ****             strncpy(Str_Last_One, Str, 10); 
 472              		.loc 1 1846 0
 473 001c 0A22     		movs	r2, #10
 474 001e 2146     		mov	r1, r4
 475 0020 0148     		ldr	r0, .L42
 476 0022 FFF7FEFF 		bl	strncpy
 477              	.LVL40:
ARM GAS  C:\Users\Revanth\AppData\Local\Temp\ccHsQCvB.s 			page 42


 478              	.L39:
 479 0026 10BD     		pop	{r4, pc}
 480              	.LVL41:
 481              	.L43:
 482              		.align	2
 483              	.L42:
 484 0028 04000000 		.word	.LANCHOR1+4
 485              	.LBE2:
 486              		.cfi_endproc
 487              	.LFE98:
 488              		.size	Write_Debug_UART_Char, .-Write_Debug_UART_Char
 489              		.section	.text.Beep_Once,"ax",%progbits
 490              		.align	2
 491              		.global	Beep_Once
 492              		.thumb
 493              		.thumb_func
 494              		.type	Beep_Once, %function
 495              	Beep_Once:
 496              	.LFB83:
1133:AS76.c        ****     PWM_Buzzer_WriteCompare(2500);
 497              		.loc 1 1133 0
 498              		.cfi_startproc
 499              		@ args = 0, pretend = 0, frame = 0
 500              		@ frame_needed = 0, uses_anonymous_args = 0
 501 0000 08B5     		push	{r3, lr}
 502              		.cfi_def_cfa_offset 8
 503              		.cfi_offset 3, -8
 504              		.cfi_offset 14, -4
1134:AS76.c        ****     CyDelay(200);
 505              		.loc 1 1134 0
 506 0002 40F6C410 		movw	r0, #2500
 507 0006 FFF7FEFF 		bl	PWM_Buzzer_WriteCompare
 508              	.LVL42:
1135:AS76.c        ****     PWM_Buzzer_WriteCompare(0);
 509              		.loc 1 1135 0
 510 000a C820     		movs	r0, #200
 511 000c FFF7FEFF 		bl	CyDelay
 512              	.LVL43:
1136:AS76.c        ****     Write_Debug_UART_Char("Beeped Once  \r\n");
 513              		.loc 1 1136 0
 514 0010 0020     		movs	r0, #0
 515 0012 FFF7FEFF 		bl	PWM_Buzzer_WriteCompare
 516              	.LVL44:
1137:AS76.c        ****     return 0;
 517              		.loc 1 1137 0
 518 0016 0248     		ldr	r0, .L46
 519 0018 FFF7FEFF 		bl	Write_Debug_UART_Char
 520              	.LVL45:
1139:AS76.c        **** 
 521              		.loc 1 1139 0
 522 001c 0020     		movs	r0, #0
 523 001e 08BD     		pop	{r3, pc}
 524              	.L47:
 525              		.align	2
 526              	.L46:
 527 0020 00000000 		.word	.LC0
 528              		.cfi_endproc
ARM GAS  C:\Users\Revanth\AppData\Local\Temp\ccHsQCvB.s 			page 43


 529              	.LFE83:
 530              		.size	Beep_Once, .-Beep_Once
 531              		.section	.text.Beep_Twice,"ax",%progbits
 532              		.align	2
 533              		.global	Beep_Twice
 534              		.thumb
 535              		.thumb_func
 536              		.type	Beep_Twice, %function
 537              	Beep_Twice:
 538              	.LFB84:
1142:AS76.c        ****     PWM_Buzzer_WriteCompare(2500);
 539              		.loc 1 1142 0
 540              		.cfi_startproc
 541              		@ args = 0, pretend = 0, frame = 0
 542              		@ frame_needed = 0, uses_anonymous_args = 0
 543 0000 08B5     		push	{r3, lr}
 544              		.cfi_def_cfa_offset 8
 545              		.cfi_offset 3, -8
 546              		.cfi_offset 14, -4
1143:AS76.c        ****     CyDelay(200);
 547              		.loc 1 1143 0
 548 0002 40F6C410 		movw	r0, #2500
 549 0006 FFF7FEFF 		bl	PWM_Buzzer_WriteCompare
 550              	.LVL46:
1144:AS76.c        ****     PWM_Buzzer_WriteCompare(0);
 551              		.loc 1 1144 0
 552 000a C820     		movs	r0, #200
 553 000c FFF7FEFF 		bl	CyDelay
 554              	.LVL47:
1145:AS76.c        ****     CyDelay(200);
 555              		.loc 1 1145 0
 556 0010 0020     		movs	r0, #0
 557 0012 FFF7FEFF 		bl	PWM_Buzzer_WriteCompare
 558              	.LVL48:
1146:AS76.c        ****     PWM_Buzzer_WriteCompare(2500);
 559              		.loc 1 1146 0
 560 0016 C820     		movs	r0, #200
 561 0018 FFF7FEFF 		bl	CyDelay
 562              	.LVL49:
1147:AS76.c        ****     CyDelay(200);
 563              		.loc 1 1147 0
 564 001c 40F6C410 		movw	r0, #2500
 565 0020 FFF7FEFF 		bl	PWM_Buzzer_WriteCompare
 566              	.LVL50:
1148:AS76.c        ****     PWM_Buzzer_WriteCompare(0);
 567              		.loc 1 1148 0
 568 0024 C820     		movs	r0, #200
 569 0026 FFF7FEFF 		bl	CyDelay
 570              	.LVL51:
1149:AS76.c        ****     Write_Debug_UART_Char("Beeped Twice  \r\n");
 571              		.loc 1 1149 0
 572 002a 0020     		movs	r0, #0
 573 002c FFF7FEFF 		bl	PWM_Buzzer_WriteCompare
 574              	.LVL52:
1150:AS76.c        ****     return 0;
 575              		.loc 1 1150 0
 576 0030 0248     		ldr	r0, .L50
ARM GAS  C:\Users\Revanth\AppData\Local\Temp\ccHsQCvB.s 			page 44


 577 0032 FFF7FEFF 		bl	Write_Debug_UART_Char
 578              	.LVL53:
1152:AS76.c        **** 
 579              		.loc 1 1152 0
 580 0036 0020     		movs	r0, #0
 581 0038 08BD     		pop	{r3, pc}
 582              	.L51:
 583 003a 00BF     		.align	2
 584              	.L50:
 585 003c 10000000 		.word	.LC1
 586              		.cfi_endproc
 587              	.LFE84:
 588              		.size	Beep_Twice, .-Beep_Twice
 589              		.section	.text.Long_Beep,"ax",%progbits
 590              		.align	2
 591              		.global	Long_Beep
 592              		.thumb
 593              		.thumb_func
 594              		.type	Long_Beep, %function
 595              	Long_Beep:
 596              	.LFB85:
1155:AS76.c        ****     PWM_Buzzer_WriteCompare(2500);
 597              		.loc 1 1155 0
 598              		.cfi_startproc
 599              		@ args = 0, pretend = 0, frame = 0
 600              		@ frame_needed = 0, uses_anonymous_args = 0
 601 0000 08B5     		push	{r3, lr}
 602              		.cfi_def_cfa_offset 8
 603              		.cfi_offset 3, -8
 604              		.cfi_offset 14, -4
1156:AS76.c        ****     CyDelay(2000);
 605              		.loc 1 1156 0
 606 0002 40F6C410 		movw	r0, #2500
 607 0006 FFF7FEFF 		bl	PWM_Buzzer_WriteCompare
 608              	.LVL54:
1157:AS76.c        ****     PWM_Buzzer_WriteCompare(0);
 609              		.loc 1 1157 0
 610 000a 4FF4FA60 		mov	r0, #2000
 611 000e FFF7FEFF 		bl	CyDelay
 612              	.LVL55:
1158:AS76.c        ****     CyDelay(200);
 613              		.loc 1 1158 0
 614 0012 0020     		movs	r0, #0
 615 0014 FFF7FEFF 		bl	PWM_Buzzer_WriteCompare
 616              	.LVL56:
1159:AS76.c        ****     
 617              		.loc 1 1159 0
 618 0018 C820     		movs	r0, #200
 619 001a FFF7FEFF 		bl	CyDelay
 620              	.LVL57:
1161:AS76.c        ****     return 0;
 621              		.loc 1 1161 0
 622 001e 0248     		ldr	r0, .L54
 623 0020 FFF7FEFF 		bl	Write_Debug_UART_Char
 624              	.LVL58:
1163:AS76.c        **** 
 625              		.loc 1 1163 0
ARM GAS  C:\Users\Revanth\AppData\Local\Temp\ccHsQCvB.s 			page 45


 626 0024 0020     		movs	r0, #0
 627 0026 08BD     		pop	{r3, pc}
 628              	.L55:
 629              		.align	2
 630              	.L54:
 631 0028 24000000 		.word	.LC2
 632              		.cfi_endproc
 633              	.LFE85:
 634              		.size	Long_Beep, .-Long_Beep
 635              		.global	__aeabi_i2d
 636              		.global	__aeabi_dmul
 637              		.global	__aeabi_d2iz
 638              		.section	.text.Send_Feedback_to_USB,"ax",%progbits
 639              		.align	2
 640              		.global	Send_Feedback_to_USB
 641              		.thumb
 642              		.thumb_func
 643              		.type	Send_Feedback_to_USB, %function
 644              	Send_Feedback_to_USB:
 645              	.LFB92:
1514:AS76.c        ****      Read_All_Optical_Encoder();
 646              		.loc 1 1514 0
 647              		.cfi_startproc
 648              		@ args = 0, pretend = 0, frame = 0
 649              		@ frame_needed = 0, uses_anonymous_args = 0
 650              	.LVL59:
 651 0000 38B5     		push	{r3, r4, r5, lr}
 652              		.cfi_def_cfa_offset 16
 653              		.cfi_offset 3, -16
 654              		.cfi_offset 4, -12
 655              		.cfi_offset 5, -8
 656              		.cfi_offset 14, -4
 657 0002 0446     		mov	r4, r0
1515:AS76.c        **** 
 658              		.loc 1 1515 0
 659 0004 FFF7FEFF 		bl	Read_All_Optical_Encoder
 660              	.LVL60:
1519:AS76.c        ****         {            
 661              		.loc 1 1519 0
 662 0008 54B9     		cbnz	r4, .L57
1521:AS76.c        ****             USB_transmit[1] = (command >> 8);
 663              		.loc 1 1521 0
 664 000a B14B     		ldr	r3, .L94+8
 665 000c 1A68     		ldr	r2, [r3]
 666 000e B14B     		ldr	r3, .L94+12
 667 0010 1A70     		strb	r2, [r3]
1522:AS76.c        ****             USB_transmit[2] = No_Error;
 668              		.loc 1 1522 0
 669 0012 120A     		lsrs	r2, r2, #8
 670 0014 5A70     		strb	r2, [r3, #1]
1523:AS76.c        ****             USB_transmit[3] = No_Error >> 8;
 671              		.loc 1 1523 0
 672 0016 0022     		movs	r2, #0
 673 0018 9A70     		strb	r2, [r3, #2]
1524:AS76.c        ****         }
 674              		.loc 1 1524 0
 675 001a FA22     		movs	r2, #250
ARM GAS  C:\Users\Revanth\AppData\Local\Temp\ccHsQCvB.s 			page 46


 676 001c DA70     		strb	r2, [r3, #3]
 677 001e DBE0     		b	.L58
 678              	.L57:
1528:AS76.c        ****             {
 679              		.loc 1 1528 0
 680 0020 013C     		subs	r4, r4, #1
 681              	.LVL61:
 682 0022 202C     		cmp	r4, #32
 683 0024 00F2D880 		bhi	.L58
 684 0028 DFE804F0 		tbb	[pc, r4]
 685              	.L60:
 686 002c 11       		.byte	(.L59-.L60)/2
 687 002d 17       		.byte	(.L61-.L60)/2
 688 002e 1D       		.byte	(.L62-.L60)/2
 689 002f 23       		.byte	(.L63-.L60)/2
 690 0030 29       		.byte	(.L64-.L60)/2
 691 0031 2F       		.byte	(.L65-.L60)/2
 692 0032 35       		.byte	(.L66-.L60)/2
 693 0033 3B       		.byte	(.L67-.L60)/2
 694 0034 41       		.byte	(.L68-.L60)/2
 695 0035 47       		.byte	(.L69-.L60)/2
 696 0036 4D       		.byte	(.L70-.L60)/2
 697 0037 53       		.byte	(.L71-.L60)/2
 698 0038 59       		.byte	(.L72-.L60)/2
 699 0039 5F       		.byte	(.L73-.L60)/2
 700 003a 65       		.byte	(.L74-.L60)/2
 701 003b 6B       		.byte	(.L75-.L60)/2
 702 003c 71       		.byte	(.L76-.L60)/2
 703 003d 77       		.byte	(.L77-.L60)/2
 704 003e 7D       		.byte	(.L78-.L60)/2
 705 003f 83       		.byte	(.L79-.L60)/2
 706 0040 89       		.byte	(.L80-.L60)/2
 707 0041 8F       		.byte	(.L81-.L60)/2
 708 0042 95       		.byte	(.L82-.L60)/2
 709 0043 9B       		.byte	(.L83-.L60)/2
 710 0044 A1       		.byte	(.L84-.L60)/2
 711 0045 A7       		.byte	(.L85-.L60)/2
 712 0046 AD       		.byte	(.L86-.L60)/2
 713 0047 B3       		.byte	(.L87-.L60)/2
 714 0048 B9       		.byte	(.L88-.L60)/2
 715 0049 BF       		.byte	(.L89-.L60)/2
 716 004a C5       		.byte	(.L90-.L60)/2
 717 004b CB       		.byte	(.L91-.L60)/2
 718 004c D1       		.byte	(.L92-.L60)/2
 719 004d 00       		.p2align 1
 720              	.L59:
1532:AS76.c        ****                     USB_transmit[3] = X_Motor_Not_Working >> 8; 
 721              		.loc 1 1532 0
 722 004e A14B     		ldr	r3, .L94+12
 723 0050 0122     		movs	r2, #1
 724 0052 9A70     		strb	r2, [r3, #2]
1533:AS76.c        ****                     break;
 725              		.loc 1 1533 0
 726 0054 FA22     		movs	r2, #250
 727 0056 DA70     		strb	r2, [r3, #3]
1534:AS76.c        ****                 }
 728              		.loc 1 1534 0
ARM GAS  C:\Users\Revanth\AppData\Local\Temp\ccHsQCvB.s 			page 47


 729 0058 BEE0     		b	.L58
 730              	.L61:
1538:AS76.c        ****                     USB_transmit[3] = X_Encoder_Not_Working >> 8; 
 731              		.loc 1 1538 0
 732 005a 9E4B     		ldr	r3, .L94+12
 733 005c 0222     		movs	r2, #2
 734 005e 9A70     		strb	r2, [r3, #2]
1539:AS76.c        ****                     break;
 735              		.loc 1 1539 0
 736 0060 FA22     		movs	r2, #250
 737 0062 DA70     		strb	r2, [r3, #3]
1540:AS76.c        ****                 }
 738              		.loc 1 1540 0
 739 0064 B8E0     		b	.L58
 740              	.L62:
1544:AS76.c        ****                     USB_transmit[3] = X_Switch_Not_Working >> 8; 
 741              		.loc 1 1544 0
 742 0066 9B4B     		ldr	r3, .L94+12
 743 0068 1722     		movs	r2, #23
 744 006a 9A70     		strb	r2, [r3, #2]
1545:AS76.c        ****                     break;
 745              		.loc 1 1545 0
 746 006c FA22     		movs	r2, #250
 747 006e DA70     		strb	r2, [r3, #3]
1546:AS76.c        ****                 }
 748              		.loc 1 1546 0
 749 0070 B2E0     		b	.L58
 750              	.L63:
1550:AS76.c        ****                     USB_transmit[3] = X_Motor_Driver_Fault >> 8; 
 751              		.loc 1 1550 0
 752 0072 984B     		ldr	r3, .L94+12
 753 0074 0722     		movs	r2, #7
 754 0076 9A70     		strb	r2, [r3, #2]
1551:AS76.c        ****                     break;
 755              		.loc 1 1551 0
 756 0078 FA22     		movs	r2, #250
 757 007a DA70     		strb	r2, [r3, #3]
1552:AS76.c        ****                 }
 758              		.loc 1 1552 0
 759 007c ACE0     		b	.L58
 760              	.L64:
1556:AS76.c        ****                     USB_transmit[3] = Requested_X_Step_Exceeding_The_Limit >> 8; 
 761              		.loc 1 1556 0
 762 007e 954B     		ldr	r3, .L94+12
 763 0080 1122     		movs	r2, #17
 764 0082 9A70     		strb	r2, [r3, #2]
1557:AS76.c        ****                     break;
 765              		.loc 1 1557 0
 766 0084 FA22     		movs	r2, #250
 767 0086 DA70     		strb	r2, [r3, #3]
1558:AS76.c        ****                 }
 768              		.loc 1 1558 0
 769 0088 A6E0     		b	.L58
 770              	.L65:
1562:AS76.c        ****                     USB_transmit[3] = X_Homing_Not_Done_Yet >> 8; 
 771              		.loc 1 1562 0
 772 008a 924B     		ldr	r3, .L94+12
ARM GAS  C:\Users\Revanth\AppData\Local\Temp\ccHsQCvB.s 			page 48


 773 008c 1D22     		movs	r2, #29
 774 008e 9A70     		strb	r2, [r3, #2]
1563:AS76.c        ****                     break;
 775              		.loc 1 1563 0
 776 0090 FA22     		movs	r2, #250
 777 0092 DA70     		strb	r2, [r3, #3]
1564:AS76.c        ****                 }
 778              		.loc 1 1564 0
 779 0094 A0E0     		b	.L58
 780              	.L66:
1568:AS76.c        ****                     USB_transmit[3] = X_Motor_Busy >> 8; 
 781              		.loc 1 1568 0
 782 0096 8F4B     		ldr	r3, .L94+12
 783 0098 2522     		movs	r2, #37
 784 009a 9A70     		strb	r2, [r3, #2]
1569:AS76.c        ****                     break;
 785              		.loc 1 1569 0
 786 009c FA22     		movs	r2, #250
 787 009e DA70     		strb	r2, [r3, #3]
1570:AS76.c        ****                 }
 788              		.loc 1 1570 0
 789 00a0 9AE0     		b	.L58
 790              	.L67:
1574:AS76.c        ****                     USB_transmit[3] = Y_Motor_Not_Working >> 8; 
 791              		.loc 1 1574 0
 792 00a2 8C4B     		ldr	r3, .L94+12
 793 00a4 0322     		movs	r2, #3
 794 00a6 9A70     		strb	r2, [r3, #2]
1575:AS76.c        ****                     break;
 795              		.loc 1 1575 0
 796 00a8 FA22     		movs	r2, #250
 797 00aa DA70     		strb	r2, [r3, #3]
1576:AS76.c        ****                 }
 798              		.loc 1 1576 0
 799 00ac 94E0     		b	.L58
 800              	.L68:
1580:AS76.c        ****                     USB_transmit[3] = Y_Encoder_Not_Working >> 8; 
 801              		.loc 1 1580 0
 802 00ae 894B     		ldr	r3, .L94+12
 803 00b0 0422     		movs	r2, #4
 804 00b2 9A70     		strb	r2, [r3, #2]
1581:AS76.c        ****                     break;
 805              		.loc 1 1581 0
 806 00b4 FA22     		movs	r2, #250
 807 00b6 DA70     		strb	r2, [r3, #3]
1582:AS76.c        ****                 }
 808              		.loc 1 1582 0
 809 00b8 8EE0     		b	.L58
 810              	.L69:
1586:AS76.c        ****                     USB_transmit[3] = Y_Switch_Not_Working >> 8; 
 811              		.loc 1 1586 0
 812 00ba 864B     		ldr	r3, .L94+12
 813 00bc 1822     		movs	r2, #24
 814 00be 9A70     		strb	r2, [r3, #2]
1587:AS76.c        ****                     break;
 815              		.loc 1 1587 0
 816 00c0 FA22     		movs	r2, #250
ARM GAS  C:\Users\Revanth\AppData\Local\Temp\ccHsQCvB.s 			page 49


 817 00c2 DA70     		strb	r2, [r3, #3]
1588:AS76.c        ****                 }
 818              		.loc 1 1588 0
 819 00c4 88E0     		b	.L58
 820              	.L70:
1592:AS76.c        ****                     USB_transmit[3] = Y_Motor_Driver_Fault >> 8; 
 821              		.loc 1 1592 0
 822 00c6 834B     		ldr	r3, .L94+12
 823 00c8 0822     		movs	r2, #8
 824 00ca 9A70     		strb	r2, [r3, #2]
1593:AS76.c        ****                     break;
 825              		.loc 1 1593 0
 826 00cc FA22     		movs	r2, #250
 827 00ce DA70     		strb	r2, [r3, #3]
1594:AS76.c        ****                 }
 828              		.loc 1 1594 0
 829 00d0 82E0     		b	.L58
 830              	.L71:
1598:AS76.c        ****                     USB_transmit[3] = Requested_Y_Step_Exceeding_The_Limit >> 8; 
 831              		.loc 1 1598 0
 832 00d2 804B     		ldr	r3, .L94+12
 833 00d4 1222     		movs	r2, #18
 834 00d6 9A70     		strb	r2, [r3, #2]
1599:AS76.c        ****                     break;
 835              		.loc 1 1599 0
 836 00d8 FA22     		movs	r2, #250
 837 00da DA70     		strb	r2, [r3, #3]
1600:AS76.c        ****                 }
 838              		.loc 1 1600 0
 839 00dc 7CE0     		b	.L58
 840              	.L72:
1604:AS76.c        ****                     USB_transmit[3] = Y_Homing_Not_Done_Yet >> 8; 
 841              		.loc 1 1604 0
 842 00de 7D4B     		ldr	r3, .L94+12
 843 00e0 1E22     		movs	r2, #30
 844 00e2 9A70     		strb	r2, [r3, #2]
1605:AS76.c        ****                     break;
 845              		.loc 1 1605 0
 846 00e4 FA22     		movs	r2, #250
 847 00e6 DA70     		strb	r2, [r3, #3]
1606:AS76.c        ****                 }
 848              		.loc 1 1606 0
 849 00e8 76E0     		b	.L58
 850              	.L73:
1610:AS76.c        ****                     USB_transmit[3] = Y_Motor_Busy >> 8; 
 851              		.loc 1 1610 0
 852 00ea 7A4B     		ldr	r3, .L94+12
 853 00ec 2622     		movs	r2, #38
 854 00ee 9A70     		strb	r2, [r3, #2]
1611:AS76.c        ****                     break;
 855              		.loc 1 1611 0
 856 00f0 FA22     		movs	r2, #250
 857 00f2 DA70     		strb	r2, [r3, #3]
1612:AS76.c        ****                 }
 858              		.loc 1 1612 0
 859 00f4 70E0     		b	.L58
 860              	.L74:
ARM GAS  C:\Users\Revanth\AppData\Local\Temp\ccHsQCvB.s 			page 50


1616:AS76.c        ****                     USB_transmit[3] = Z_Motor_Not_Working >> 8; 
 861              		.loc 1 1616 0
 862 00f6 774B     		ldr	r3, .L94+12
 863 00f8 0522     		movs	r2, #5
 864 00fa 9A70     		strb	r2, [r3, #2]
1617:AS76.c        ****                     break;
 865              		.loc 1 1617 0
 866 00fc FA22     		movs	r2, #250
 867 00fe DA70     		strb	r2, [r3, #3]
1618:AS76.c        ****                 }
 868              		.loc 1 1618 0
 869 0100 6AE0     		b	.L58
 870              	.L75:
1622:AS76.c        ****                     USB_transmit[3] = Z_Encoder_Not_Working >> 8; 
 871              		.loc 1 1622 0
 872 0102 744B     		ldr	r3, .L94+12
 873 0104 0622     		movs	r2, #6
 874 0106 9A70     		strb	r2, [r3, #2]
1623:AS76.c        ****                     break;
 875              		.loc 1 1623 0
 876 0108 FA22     		movs	r2, #250
 877 010a DA70     		strb	r2, [r3, #3]
1624:AS76.c        ****                 }
 878              		.loc 1 1624 0
 879 010c 64E0     		b	.L58
 880              	.L76:
1628:AS76.c        ****                     USB_transmit[3] = Z_Switch_Not_Working >> 8; 
 881              		.loc 1 1628 0
 882 010e 714B     		ldr	r3, .L94+12
 883 0110 1922     		movs	r2, #25
 884 0112 9A70     		strb	r2, [r3, #2]
1629:AS76.c        ****                     break;
 885              		.loc 1 1629 0
 886 0114 FA22     		movs	r2, #250
 887 0116 DA70     		strb	r2, [r3, #3]
1630:AS76.c        ****                 }
 888              		.loc 1 1630 0
 889 0118 5EE0     		b	.L58
 890              	.L77:
1634:AS76.c        ****                     USB_transmit[3] = Z_Motor_Driver_Fault >> 8; 
 891              		.loc 1 1634 0
 892 011a 6E4B     		ldr	r3, .L94+12
 893 011c 0922     		movs	r2, #9
 894 011e 9A70     		strb	r2, [r3, #2]
1635:AS76.c        ****                     break;
 895              		.loc 1 1635 0
 896 0120 FA22     		movs	r2, #250
 897 0122 DA70     		strb	r2, [r3, #3]
1636:AS76.c        ****                 }
 898              		.loc 1 1636 0
 899 0124 58E0     		b	.L58
 900              	.L78:
1640:AS76.c        ****                     USB_transmit[3] = Requested_Z_Step_Exceeding_The_Limit >> 8; 
 901              		.loc 1 1640 0
 902 0126 6B4B     		ldr	r3, .L94+12
 903 0128 1322     		movs	r2, #19
 904 012a 9A70     		strb	r2, [r3, #2]
ARM GAS  C:\Users\Revanth\AppData\Local\Temp\ccHsQCvB.s 			page 51


1641:AS76.c        ****                     break;
 905              		.loc 1 1641 0
 906 012c FA22     		movs	r2, #250
 907 012e DA70     		strb	r2, [r3, #3]
1642:AS76.c        ****                 }
 908              		.loc 1 1642 0
 909 0130 52E0     		b	.L58
 910              	.L79:
1646:AS76.c        ****                     USB_transmit[3] = Z_Homing_Not_Done_Yet >> 8; 
 911              		.loc 1 1646 0
 912 0132 684B     		ldr	r3, .L94+12
 913 0134 1F22     		movs	r2, #31
 914 0136 9A70     		strb	r2, [r3, #2]
1647:AS76.c        ****                     break;
 915              		.loc 1 1647 0
 916 0138 FA22     		movs	r2, #250
 917 013a DA70     		strb	r2, [r3, #3]
1648:AS76.c        ****                 }
 918              		.loc 1 1648 0
 919 013c 4CE0     		b	.L58
 920              	.L80:
1652:AS76.c        ****                     USB_transmit[3] = Z_Motor_Busy >> 8; 
 921              		.loc 1 1652 0
 922 013e 654B     		ldr	r3, .L94+12
 923 0140 2722     		movs	r2, #39
 924 0142 9A70     		strb	r2, [r3, #2]
1653:AS76.c        ****                     break;
 925              		.loc 1 1653 0
 926 0144 FA22     		movs	r2, #250
 927 0146 DA70     		strb	r2, [r3, #3]
1654:AS76.c        ****                 }
 928              		.loc 1 1654 0
 929 0148 46E0     		b	.L58
 930              	.L81:
1658:AS76.c        ****                     USB_transmit[3] =  T_Motor_Not_Working>> 8; 
 931              		.loc 1 1658 0
 932 014a 624B     		ldr	r3, .L94+12
 933 014c 2B22     		movs	r2, #43
 934 014e 9A70     		strb	r2, [r3, #2]
1659:AS76.c        ****                     break;
 935              		.loc 1 1659 0
 936 0150 FA22     		movs	r2, #250
 937 0152 DA70     		strb	r2, [r3, #3]
1660:AS76.c        ****                 }
 938              		.loc 1 1660 0
 939 0154 40E0     		b	.L58
 940              	.L82:
1664:AS76.c        ****                     USB_transmit[3] =  T_Encoder_Not_Working>> 8; 
 941              		.loc 1 1664 0
 942 0156 5F4B     		ldr	r3, .L94+12
 943 0158 2C22     		movs	r2, #44
 944 015a 9A70     		strb	r2, [r3, #2]
1665:AS76.c        ****                     break;
 945              		.loc 1 1665 0
 946 015c FA22     		movs	r2, #250
 947 015e DA70     		strb	r2, [r3, #3]
1666:AS76.c        ****                 }
ARM GAS  C:\Users\Revanth\AppData\Local\Temp\ccHsQCvB.s 			page 52


 948              		.loc 1 1666 0
 949 0160 3AE0     		b	.L58
 950              	.L83:
1670:AS76.c        ****                     USB_transmit[3] =  T_Switch_Not_Working>> 8; 
 951              		.loc 1 1670 0
 952 0162 5C4B     		ldr	r3, .L94+12
 953 0164 2D22     		movs	r2, #45
 954 0166 9A70     		strb	r2, [r3, #2]
1671:AS76.c        ****                     break;
 955              		.loc 1 1671 0
 956 0168 FA22     		movs	r2, #250
 957 016a DA70     		strb	r2, [r3, #3]
1672:AS76.c        ****                 }
 958              		.loc 1 1672 0
 959 016c 34E0     		b	.L58
 960              	.L84:
1677:AS76.c        ****                     USB_transmit[3] =  T_Motor_Driver_Fault>> 8; 
 961              		.loc 1 1677 0
 962 016e 594B     		ldr	r3, .L94+12
 963 0170 2E22     		movs	r2, #46
 964 0172 9A70     		strb	r2, [r3, #2]
1678:AS76.c        ****                     break;
 965              		.loc 1 1678 0
 966 0174 FA22     		movs	r2, #250
 967 0176 DA70     		strb	r2, [r3, #3]
1679:AS76.c        ****                 }
 968              		.loc 1 1679 0
 969 0178 2EE0     		b	.L58
 970              	.L85:
1683:AS76.c        ****                     USB_transmit[3] =  Requested_T_Step_Exceeding_The_Limit>> 8; 
 971              		.loc 1 1683 0
 972 017a 564B     		ldr	r3, .L94+12
 973 017c 2A22     		movs	r2, #42
 974 017e 9A70     		strb	r2, [r3, #2]
1684:AS76.c        ****                     break;
 975              		.loc 1 1684 0
 976 0180 FA22     		movs	r2, #250
 977 0182 DA70     		strb	r2, [r3, #3]
1685:AS76.c        ****                 }
 978              		.loc 1 1685 0
 979 0184 28E0     		b	.L58
 980              	.L86:
1689:AS76.c        ****                     USB_transmit[3] =  T_Homing_Not_Done_Yet>> 8; 
 981              		.loc 1 1689 0
 982 0186 534B     		ldr	r3, .L94+12
 983 0188 2F22     		movs	r2, #47
 984 018a 9A70     		strb	r2, [r3, #2]
1690:AS76.c        ****                     break;
 985              		.loc 1 1690 0
 986 018c FA22     		movs	r2, #250
 987 018e DA70     		strb	r2, [r3, #3]
1691:AS76.c        ****                 }
 988              		.loc 1 1691 0
 989 0190 22E0     		b	.L58
 990              	.L87:
1695:AS76.c        ****                     USB_transmit[3] = T_Motor_Busy >> 8; 
 991              		.loc 1 1695 0
ARM GAS  C:\Users\Revanth\AppData\Local\Temp\ccHsQCvB.s 			page 53


 992 0192 504B     		ldr	r3, .L94+12
 993 0194 2822     		movs	r2, #40
 994 0196 9A70     		strb	r2, [r3, #2]
1696:AS76.c        ****                     break;
 995              		.loc 1 1696 0
 996 0198 FA22     		movs	r2, #250
 997 019a DA70     		strb	r2, [r3, #3]
1697:AS76.c        ****                 }
 998              		.loc 1 1697 0
 999 019c 1CE0     		b	.L58
 1000              	.L88:
1701:AS76.c        ****                     USB_transmit[3] = Wrong_Command_Received >> 8; 
 1001              		.loc 1 1701 0
 1002 019e 4D4B     		ldr	r3, .L94+12
 1003 01a0 2222     		movs	r2, #34
 1004 01a2 9A70     		strb	r2, [r3, #2]
1702:AS76.c        ****                     break;
 1005              		.loc 1 1702 0
 1006 01a4 FA22     		movs	r2, #250
 1007 01a6 DA70     		strb	r2, [r3, #3]
1703:AS76.c        ****                 }
 1008              		.loc 1 1703 0
 1009 01a8 16E0     		b	.L58
 1010              	.L89:
1707:AS76.c        ****                     USB_transmit[3] = PCB_Paused >> 8; 
 1011              		.loc 1 1707 0
 1012 01aa 4A4B     		ldr	r3, .L94+12
 1013 01ac 2322     		movs	r2, #35
 1014 01ae 9A70     		strb	r2, [r3, #2]
1708:AS76.c        ****                     break;
 1015              		.loc 1 1708 0
 1016 01b0 FA22     		movs	r2, #250
 1017 01b2 DA70     		strb	r2, [r3, #3]
1709:AS76.c        ****                 }
 1018              		.loc 1 1709 0
 1019 01b4 10E0     		b	.L58
 1020              	.L90:
1713:AS76.c        ****                     USB_transmit[3] = PCB_Busy >> 8; 
 1021              		.loc 1 1713 0
 1022 01b6 474B     		ldr	r3, .L94+12
 1023 01b8 2422     		movs	r2, #36
 1024 01ba 9A70     		strb	r2, [r3, #2]
1714:AS76.c        ****                     break;
 1025              		.loc 1 1714 0
 1026 01bc FA22     		movs	r2, #250
 1027 01be DA70     		strb	r2, [r3, #3]
1715:AS76.c        ****                 }
 1028              		.loc 1 1715 0
 1029 01c0 0AE0     		b	.L58
 1030              	.L91:
1719:AS76.c        ****                     USB_transmit[3] = All_Motors_Homing_Not_Done >> 8; 
 1031              		.loc 1 1719 0
 1032 01c2 444B     		ldr	r3, .L94+12
 1033 01c4 2922     		movs	r2, #41
 1034 01c6 9A70     		strb	r2, [r3, #2]
1720:AS76.c        ****                     break;
 1035              		.loc 1 1720 0
ARM GAS  C:\Users\Revanth\AppData\Local\Temp\ccHsQCvB.s 			page 54


 1036 01c8 FA22     		movs	r2, #250
 1037 01ca DA70     		strb	r2, [r3, #3]
1721:AS76.c        ****                 }
 1038              		.loc 1 1721 0
 1039 01cc 04E0     		b	.L58
 1040              	.L92:
1726:AS76.c        ****                     USB_transmit[3] = O_Motor_Not_Working >> 8; 
 1041              		.loc 1 1726 0
 1042 01ce 414B     		ldr	r3, .L94+12
 1043 01d0 3022     		movs	r2, #48
 1044 01d2 9A70     		strb	r2, [r3, #2]
1727:AS76.c        ****                     break;
 1045              		.loc 1 1727 0
 1046 01d4 FA22     		movs	r2, #250
 1047 01d6 DA70     		strb	r2, [r3, #3]
 1048              	.LVL62:
 1049              	.L58:
1734:AS76.c        ****         T_QuadPosition = (int)(T_QuadPosition * 3.2); 
 1050              		.loc 1 1734 0
 1051 01d8 3F4D     		ldr	r5, .L94+16
 1052 01da EB68     		ldr	r3, [r5, #12]
 1053 01dc 9B00     		lsls	r3, r3, #2
 1054 01de EB60     		str	r3, [r5, #12]
1735:AS76.c        ****         USB_transmit[4] = (X_QuadPosition);
 1055              		.loc 1 1735 0
 1056 01e0 6869     		ldr	r0, [r5, #20]
 1057 01e2 FFF7FEFF 		bl	__aeabi_i2d
 1058              	.LVL63:
 1059 01e6 38A3     		adr	r3, .L94
 1060 01e8 D3E90023 		ldrd	r2, [r3]
 1061 01ec FFF7FEFF 		bl	__aeabi_dmul
 1062              	.LVL64:
 1063 01f0 FFF7FEFF 		bl	__aeabi_d2iz
 1064              	.LVL65:
 1065 01f4 6861     		str	r0, [r5, #20]
1736:AS76.c        ****         USB_transmit[5] = (X_QuadPosition) >> 8;
 1066              		.loc 1 1736 0
 1067 01f6 AB68     		ldr	r3, [r5, #8]
 1068 01f8 364C     		ldr	r4, .L94+12
 1069 01fa 2371     		strb	r3, [r4, #4]
1737:AS76.c        ****         USB_transmit[6] = (X_QuadPosition) >> 16;
 1070              		.loc 1 1737 0
 1071 01fc AB68     		ldr	r3, [r5, #8]
 1072 01fe 1B12     		asrs	r3, r3, #8
 1073 0200 6371     		strb	r3, [r4, #5]
1738:AS76.c        ****         USB_transmit[7] = (X_QuadPosition) >> 24;
 1074              		.loc 1 1738 0
 1075 0202 AB68     		ldr	r3, [r5, #8]
 1076 0204 1B14     		asrs	r3, r3, #16
 1077 0206 A371     		strb	r3, [r4, #6]
1739:AS76.c        ****         USB_transmit[8] = (Y_QuadPosition);
 1078              		.loc 1 1739 0
 1079 0208 AB68     		ldr	r3, [r5, #8]
 1080 020a 1B16     		asrs	r3, r3, #24
 1081 020c E371     		strb	r3, [r4, #7]
1740:AS76.c        ****         USB_transmit[9] = (Y_QuadPosition) >> 8;
 1082              		.loc 1 1740 0
ARM GAS  C:\Users\Revanth\AppData\Local\Temp\ccHsQCvB.s 			page 55


 1083 020e EB68     		ldr	r3, [r5, #12]
 1084 0210 2372     		strb	r3, [r4, #8]
1741:AS76.c        ****         USB_transmit[10] =(Y_QuadPosition) >> 16;
 1085              		.loc 1 1741 0
 1086 0212 EB68     		ldr	r3, [r5, #12]
 1087 0214 1B12     		asrs	r3, r3, #8
 1088 0216 6372     		strb	r3, [r4, #9]
1742:AS76.c        ****         USB_transmit[11] =(Y_QuadPosition) >> 24;
 1089              		.loc 1 1742 0
 1090 0218 EB68     		ldr	r3, [r5, #12]
 1091 021a 1B14     		asrs	r3, r3, #16
 1092 021c A372     		strb	r3, [r4, #10]
1743:AS76.c        ****         USB_transmit[12] = Z_QuadPosition;
 1093              		.loc 1 1743 0
 1094 021e EB68     		ldr	r3, [r5, #12]
 1095 0220 1B16     		asrs	r3, r3, #24
 1096 0222 E372     		strb	r3, [r4, #11]
1744:AS76.c        ****         USB_transmit[13] = Z_QuadPosition >> 8;
 1097              		.loc 1 1744 0
 1098 0224 2B69     		ldr	r3, [r5, #16]
 1099 0226 2373     		strb	r3, [r4, #12]
1745:AS76.c        ****         USB_transmit[14] = Z_QuadPosition >> 16;
 1100              		.loc 1 1745 0
 1101 0228 2B69     		ldr	r3, [r5, #16]
 1102 022a 1B12     		asrs	r3, r3, #8
 1103 022c 6373     		strb	r3, [r4, #13]
1746:AS76.c        ****         USB_transmit[15] = Z_QuadPosition >> 24;
 1104              		.loc 1 1746 0
 1105 022e 2B69     		ldr	r3, [r5, #16]
 1106 0230 1B14     		asrs	r3, r3, #16
 1107 0232 A373     		strb	r3, [r4, #14]
1747:AS76.c        ****         USB_transmit[16] = T_QuadPosition;
 1108              		.loc 1 1747 0
 1109 0234 2B69     		ldr	r3, [r5, #16]
 1110 0236 1B16     		asrs	r3, r3, #24
 1111 0238 E373     		strb	r3, [r4, #15]
1748:AS76.c        ****         USB_transmit[17] = T_QuadPosition >> 8;
 1112              		.loc 1 1748 0
 1113 023a 6B69     		ldr	r3, [r5, #20]
 1114 023c 2374     		strb	r3, [r4, #16]
1749:AS76.c        ****         USB_transmit[18] = T_QuadPosition >> 16;
 1115              		.loc 1 1749 0
 1116 023e 6B69     		ldr	r3, [r5, #20]
 1117 0240 1B12     		asrs	r3, r3, #8
 1118 0242 6374     		strb	r3, [r4, #17]
1750:AS76.c        ****         USB_transmit[19] = T_QuadPosition >> 24;
 1119              		.loc 1 1750 0
 1120 0244 6B69     		ldr	r3, [r5, #20]
 1121 0246 1B14     		asrs	r3, r3, #16
 1122 0248 A374     		strb	r3, [r4, #18]
1751:AS76.c        ****         USB_transmit[20] = PWM_Condenser_comare_value;
 1123              		.loc 1 1751 0
 1124 024a 6B69     		ldr	r3, [r5, #20]
 1125 024c 1B16     		asrs	r3, r3, #24
 1126 024e E374     		strb	r3, [r4, #19]
1752:AS76.c        ****         USB_transmit[21] = PWM_Condenser_comare_value >> 8;
 1127              		.loc 1 1752 0
ARM GAS  C:\Users\Revanth\AppData\Local\Temp\ccHsQCvB.s 			page 56


 1128 0250 224A     		ldr	r2, .L94+20
 1129 0252 1368     		ldr	r3, [r2]
 1130 0254 2375     		strb	r3, [r4, #20]
1753:AS76.c        ****         USB_transmit[22] = 0;
 1131              		.loc 1 1753 0
 1132 0256 1B12     		asrs	r3, r3, #8
 1133 0258 6375     		strb	r3, [r4, #21]
1754:AS76.c        ****         USB_transmit[23] = 0;
 1134              		.loc 1 1754 0
 1135 025a 0023     		movs	r3, #0
 1136 025c A375     		strb	r3, [r4, #22]
1755:AS76.c        ****         USB_transmit[24] = 0;
 1137              		.loc 1 1755 0
 1138 025e E375     		strb	r3, [r4, #23]
1756:AS76.c        ****         USB_transmit[25] = 0;
 1139              		.loc 1 1756 0
 1140 0260 2376     		strb	r3, [r4, #24]
1757:AS76.c        ****         USB_transmit[26] = 0;
 1141              		.loc 1 1757 0
 1142 0262 6376     		strb	r3, [r4, #25]
1758:AS76.c        ****         USB_transmit[27] = 0;
 1143              		.loc 1 1758 0
 1144 0264 A376     		strb	r3, [r4, #26]
1759:AS76.c        ****         USB_transmit[28] = Motor_Speed_X;
 1145              		.loc 1 1759 0
 1146 0266 E376     		strb	r3, [r4, #27]
1760:AS76.c        ****         USB_transmit[29] = Motor_Speed_X >> 8;
 1147              		.loc 1 1760 0
 1148 0268 5169     		ldr	r1, [r2, #20]
 1149 026a 2177     		strb	r1, [r4, #28]
1761:AS76.c        ****         USB_transmit[30] = Motor_Speed_Y;
 1150              		.loc 1 1761 0
 1151 026c 090A     		lsrs	r1, r1, #8
 1152 026e 6177     		strb	r1, [r4, #29]
1762:AS76.c        ****         USB_transmit[31] = Motor_Speed_Y >> 8;
 1153              		.loc 1 1762 0
 1154 0270 9169     		ldr	r1, [r2, #24]
 1155 0272 A177     		strb	r1, [r4, #30]
1763:AS76.c        ****         USB_transmit[32] = Motor_Speed_Z;
 1156              		.loc 1 1763 0
 1157 0274 090A     		lsrs	r1, r1, #8
 1158 0276 E177     		strb	r1, [r4, #31]
1764:AS76.c        ****         USB_transmit[33] = Motor_Speed_Z >> 8;
 1159              		.loc 1 1764 0
 1160 0278 D269     		ldr	r2, [r2, #28]
 1161 027a 84F82020 		strb	r2, [r4, #32]
1765:AS76.c        ****         USB_transmit[34] = 0x00;
 1162              		.loc 1 1765 0
 1163 027e 120A     		lsrs	r2, r2, #8
 1164 0280 84F82120 		strb	r2, [r4, #33]
1766:AS76.c        ****         USB_transmit[35] = 0x00 >> 8;
 1165              		.loc 1 1766 0
 1166 0284 84F82230 		strb	r3, [r4, #34]
1767:AS76.c        ****         USB_transmit[36] = 0x00;
 1167              		.loc 1 1767 0
 1168 0288 84F82330 		strb	r3, [r4, #35]
1768:AS76.c        ****         USB_transmit[37] = 0x00;
ARM GAS  C:\Users\Revanth\AppData\Local\Temp\ccHsQCvB.s 			page 57


 1169              		.loc 1 1768 0
 1170 028c 84F82430 		strb	r3, [r4, #36]
1769:AS76.c        ****         USB_transmit[38] = 0x00;
 1171              		.loc 1 1769 0
 1172 0290 84F82530 		strb	r3, [r4, #37]
1770:AS76.c        ****         USB_transmit[39] = Firmware_Version;
 1173              		.loc 1 1770 0
 1174 0294 84F82630 		strb	r3, [r4, #38]
1771:AS76.c        ****         USB_transmit[40] = 0;
 1175              		.loc 1 1771 0
 1176 0298 4C22     		movs	r2, #76
 1177 029a 84F82720 		strb	r2, [r4, #39]
1772:AS76.c        ****         USB_transmit[41] = 0;
 1178              		.loc 1 1772 0
 1179 029e 84F82830 		strb	r3, [r4, #40]
1773:AS76.c        ****         USB_transmit[42] = 0;
 1180              		.loc 1 1773 0
 1181 02a2 84F82930 		strb	r3, [r4, #41]
1774:AS76.c        ****         USB_transmit[43] = 0;
 1182              		.loc 1 1774 0
 1183 02a6 84F82A30 		strb	r3, [r4, #42]
1775:AS76.c        ****         USB_transmit[44] = 0;
 1184              		.loc 1 1775 0
 1185 02aa 84F82B30 		strb	r3, [r4, #43]
1776:AS76.c        ****         USB_transmit[45] = 0;
 1186              		.loc 1 1776 0
 1187 02ae 84F82C30 		strb	r3, [r4, #44]
1777:AS76.c        ****         
 1188              		.loc 1 1777 0
 1189 02b2 84F82D30 		strb	r3, [r4, #45]
1783:AS76.c        ****         USB_PutData(USB_transmit, 46);  //send data back to usb
 1190              		.loc 1 1783 0
 1191 02b6 0A48     		ldr	r0, .L94+24
 1192 02b8 FFF7FEFF 		bl	Write_Debug_UART_Char
 1193              	.LVL66:
1784:AS76.c        ****     
 1194              		.loc 1 1784 0
 1195 02bc 2E21     		movs	r1, #46
 1196 02be 2046     		mov	r0, r4
 1197 02c0 FFF7FEFF 		bl	USB_PutData
 1198              	.LVL67:
 1199 02c4 38BD     		pop	{r3, r4, r5, pc}
 1200              	.L95:
 1201 02c6 00BF     		.align	3
 1202              	.L94:
 1203 02c8 9A999999 		.word	-1717986918
 1204 02cc 99990940 		.word	1074370969
 1205 02d0 00000000 		.word	command
 1206 02d4 00000000 		.word	USB_transmit
 1207 02d8 00000000 		.word	.LANCHOR0
 1208 02dc 00000000 		.word	.LANCHOR1
 1209 02e0 34000000 		.word	.LC3
 1210              		.cfi_endproc
 1211              	.LFE92:
 1212              		.size	Send_Feedback_to_USB, .-Send_Feedback_to_USB
 1213              		.section	.text.Initialize_USB,"ax",%progbits
 1214              		.align	2
ARM GAS  C:\Users\Revanth\AppData\Local\Temp\ccHsQCvB.s 			page 58


 1215              		.global	Initialize_USB
 1216              		.thumb
 1217              		.thumb_func
 1218              		.type	Initialize_USB, %function
 1219              	Initialize_USB:
 1220              	.LFB94:
1792:AS76.c        ****     USB_Start(0, USB_5V_OPERATION);   
 1221              		.loc 1 1792 0
 1222              		.cfi_startproc
 1223              		@ args = 0, pretend = 0, frame = 0
 1224              		@ frame_needed = 0, uses_anonymous_args = 0
 1225 0000 08B5     		push	{r3, lr}
 1226              		.cfi_def_cfa_offset 8
 1227              		.cfi_offset 3, -8
 1228              		.cfi_offset 14, -4
1793:AS76.c        ****     while (0 == USB_GetConfiguration()) /* wait untill USB not found. */
 1229              		.loc 1 1793 0
 1230 0002 0121     		movs	r1, #1
 1231 0004 0020     		movs	r0, #0
 1232 0006 FFF7FEFF 		bl	USB_Start
 1233              	.LVL68:
1794:AS76.c        ****     {
 1234              		.loc 1 1794 0
 1235 000a 05E0     		b	.L97
 1236              	.L98:
1796:AS76.c        ****         CyDelayUs(1);
 1237              		.loc 1 1796 0
 1238 000c 0848     		ldr	r0, .L100
 1239 000e FFF7FEFF 		bl	Write_Debug_UART_Char
 1240              	.LVL69:
1797:AS76.c        ****     }
 1241              		.loc 1 1797 0
 1242 0012 0120     		movs	r0, #1
 1243 0014 FFF7FEFF 		bl	CyDelayUs
 1244              	.LVL70:
 1245              	.L97:
1794:AS76.c        ****     {
 1246              		.loc 1 1794 0
 1247 0018 FFF7FEFF 		bl	USB_GetConfiguration
 1248              	.LVL71:
 1249 001c 0028     		cmp	r0, #0
 1250 001e F5D0     		beq	.L98
1799:AS76.c        ****     Write_Debug_UART_Char("USB Connected  \r\n");
 1251              		.loc 1 1799 0
 1252 0020 FFF7FEFF 		bl	USB_CDC_Init
 1253              	.LVL72:
1800:AS76.c        ****     USB_EnableSofInt();  
 1254              		.loc 1 1800 0
 1255 0024 0348     		ldr	r0, .L100+4
 1256 0026 FFF7FEFF 		bl	Write_Debug_UART_Char
 1257              	.LVL73:
1801:AS76.c        **** }
 1258              		.loc 1 1801 0
 1259 002a FFF7FEFF 		bl	USB_EnableSofInt
 1260              	.LVL74:
 1261 002e 08BD     		pop	{r3, pc}
 1262              	.L101:
ARM GAS  C:\Users\Revanth\AppData\Local\Temp\ccHsQCvB.s 			page 59


 1263              		.align	2
 1264              	.L100:
 1265 0030 58000000 		.word	.LC4
 1266 0034 7C000000 		.word	.LC5
 1267              		.cfi_endproc
 1268              	.LFE94:
 1269              		.size	Initialize_USB, .-Initialize_USB
 1270              		.section	.text.Write_Debug_UART_Int,"ax",%progbits
 1271              		.align	2
 1272              		.global	Write_Debug_UART_Int
 1273              		.thumb
 1274              		.thumb_func
 1275              		.type	Write_Debug_UART_Int, %function
 1276              	Write_Debug_UART_Int:
 1277              	.LFB99:
1847:AS76.c        ****     	}
1848:AS76.c        ****     }
1849:AS76.c        **** }
1850:AS76.c        **** void Write_Debug_UART_Int(int32 num)
1851:AS76.c        **** {
 1278              		.loc 1 1851 0
 1279              		.cfi_startproc
 1280              		@ args = 0, pretend = 0, frame = 24
 1281              		@ frame_needed = 0, uses_anonymous_args = 0
 1282              	.LVL75:
 1283 0000 00B5     		push	{lr}
 1284              		.cfi_def_cfa_offset 4
 1285              		.cfi_offset 14, -4
 1286 0002 87B0     		sub	sp, sp, #28
 1287              		.cfi_def_cfa_offset 32
 1288              	.LBB3:
1852:AS76.c        ****    // if(Pin_UART_Enable_Read()==0)
1853:AS76.c        ****     {
1854:AS76.c        ****         char uart_Buffer[20];
1855:AS76.c        ****         sprintf(uart_Buffer,"%d, ",(int)num);
 1289              		.loc 1 1855 0
 1290 0004 0246     		mov	r2, r0
 1291 0006 0649     		ldr	r1, .L104
 1292 0008 01A8     		add	r0, sp, #4
 1293              	.LVL76:
 1294 000a FFF7FEFF 		bl	sprintf
 1295              	.LVL77:
1856:AS76.c        ****         UART_PCB_LOG_PutString(uart_Buffer);
 1296              		.loc 1 1856 0
 1297 000e 01A8     		add	r0, sp, #4
 1298 0010 FFF7FEFF 		bl	UART_PCB_LOG_PutString
 1299              	.LVL78:
1857:AS76.c        ****         CyDelayUs(1);
 1300              		.loc 1 1857 0
 1301 0014 0120     		movs	r0, #1
 1302 0016 FFF7FEFF 		bl	CyDelayUs
 1303              	.LVL79:
 1304              	.LBE3:
1858:AS76.c        ****     }
1859:AS76.c        **** }
 1305              		.loc 1 1859 0
 1306 001a 07B0     		add	sp, sp, #28
ARM GAS  C:\Users\Revanth\AppData\Local\Temp\ccHsQCvB.s 			page 60


 1307              		.cfi_def_cfa_offset 4
 1308              		@ sp needed
 1309 001c 5DF804FB 		ldr	pc, [sp], #4
 1310              	.L105:
 1311              		.align	2
 1312              	.L104:
 1313 0020 90000000 		.word	.LC6
 1314              		.cfi_endproc
 1315              	.LFE99:
 1316              		.size	Write_Debug_UART_Int, .-Write_Debug_UART_Int
 1317              		.global	__aeabi_ddiv
 1318              		.global	__aeabi_d2uiz
 1319              		.section	.text.set_BarcodeCondenser_LED,"ax",%progbits
 1320              		.align	2
 1321              		.global	set_BarcodeCondenser_LED
 1322              		.thumb
 1323              		.thumb_func
 1324              		.type	set_BarcodeCondenser_LED, %function
 1325              	set_BarcodeCondenser_LED:
 1326              	.LFB81:
1111:AS76.c        ****     PWM_barcode_comare_value = ((unsigned int)USB_received[3] << 8) + USB_received[2];  //Read LED 
 1327              		.loc 1 1111 0
 1328              		.cfi_startproc
 1329              		@ args = 0, pretend = 0, frame = 0
 1330              		@ frame_needed = 0, uses_anonymous_args = 0
 1331 0000 10B5     		push	{r4, lr}
 1332              		.cfi_def_cfa_offset 8
 1333              		.cfi_offset 4, -8
 1334              		.cfi_offset 14, -4
1112:AS76.c        ****     PWM_BarcodeCondenser_LED_WriteCompare((PWM_barcode_comare_value*0.6)/10);    //Writing LED valu
 1335              		.loc 1 1112 0
 1336 0002 154B     		ldr	r3, .L108+8
 1337 0004 D878     		ldrb	r0, [r3, #3]	@ zero_extendqisi2
 1338 0006 9B78     		ldrb	r3, [r3, #2]	@ zero_extendqisi2
 1339 0008 03EB0020 		add	r0, r3, r0, lsl #8
 1340 000c 134C     		ldr	r4, .L108+12
 1341 000e 6062     		str	r0, [r4, #36]
1113:AS76.c        ****     Write_Debug_UART_Char("LED Barcode Value Recived--->");
 1342              		.loc 1 1113 0
 1343 0010 FFF7FEFF 		bl	__aeabi_i2d
 1344              	.LVL80:
 1345 0014 0EA3     		adr	r3, .L108
 1346 0016 D3E90023 		ldrd	r2, [r3]
 1347 001a FFF7FEFF 		bl	__aeabi_dmul
 1348              	.LVL81:
 1349 001e 0022     		movs	r2, #0
 1350 0020 0F4B     		ldr	r3, .L108+16
 1351 0022 FFF7FEFF 		bl	__aeabi_ddiv
 1352              	.LVL82:
 1353 0026 FFF7FEFF 		bl	__aeabi_d2uiz
 1354              	.LVL83:
 1355 002a 80B2     		uxth	r0, r0
 1356 002c FFF7FEFF 		bl	PWM_BarcodeCondenser_LED_WriteCompare
 1357              	.LVL84:
1114:AS76.c        ****     Write_Debug_UART_Int(PWM_barcode_comare_value);
 1358              		.loc 1 1114 0
 1359 0030 0C48     		ldr	r0, .L108+20
ARM GAS  C:\Users\Revanth\AppData\Local\Temp\ccHsQCvB.s 			page 61


 1360 0032 FFF7FEFF 		bl	Write_Debug_UART_Char
 1361              	.LVL85:
1115:AS76.c        ****     Write_Debug_UART_Char("\r\n");
 1362              		.loc 1 1115 0
 1363 0036 606A     		ldr	r0, [r4, #36]
 1364 0038 FFF7FEFF 		bl	Write_Debug_UART_Int
 1365              	.LVL86:
1116:AS76.c        ****     Write_Debug_UART_Char("Set Barcode LED Command Executed  \r\n");
 1366              		.loc 1 1116 0
 1367 003c 0A48     		ldr	r0, .L108+24
 1368 003e FFF7FEFF 		bl	Write_Debug_UART_Char
 1369              	.LVL87:
1117:AS76.c        ****     return 0;
 1370              		.loc 1 1117 0
 1371 0042 0A48     		ldr	r0, .L108+28
 1372 0044 FFF7FEFF 		bl	Write_Debug_UART_Char
 1373              	.LVL88:
1119:AS76.c        **** 
 1374              		.loc 1 1119 0
 1375 0048 0020     		movs	r0, #0
 1376 004a 10BD     		pop	{r4, pc}
 1377              	.L109:
 1378 004c AFF30080 		.align	3
 1379              	.L108:
 1380 0050 33333333 		.word	858993459
 1381 0054 3333E33F 		.word	1071854387
 1382 0058 00000000 		.word	USB_received
 1383 005c 00000000 		.word	.LANCHOR0
 1384 0060 00002440 		.word	1076101120
 1385 0064 98000000 		.word	.LC7
 1386 0068 B8000000 		.word	.LC8
 1387 006c BC000000 		.word	.LC9
 1388              		.cfi_endproc
 1389              	.LFE81:
 1390              		.size	set_BarcodeCondenser_LED, .-set_BarcodeCondenser_LED
 1391              		.section	.text.set_CondenserLED,"ax",%progbits
 1392              		.align	2
 1393              		.global	set_CondenserLED
 1394              		.thumb
 1395              		.thumb_func
 1396              		.type	set_CondenserLED, %function
 1397              	set_CondenserLED:
 1398              	.LFB82:
1122:AS76.c        ****     PWM_Condenser_comare_value = ((unsigned int)USB_received[3] << 8) + USB_received[2];  //Read LE
 1399              		.loc 1 1122 0
 1400              		.cfi_startproc
 1401              		@ args = 0, pretend = 0, frame = 0
 1402              		@ frame_needed = 0, uses_anonymous_args = 0
 1403 0000 10B5     		push	{r4, lr}
 1404              		.cfi_def_cfa_offset 8
 1405              		.cfi_offset 4, -8
 1406              		.cfi_offset 14, -4
1123:AS76.c        ****     PWM_CondenserLED_WriteCompare((PWM_Condenser_comare_value*0.6)/10);    //Writing LED value in t
 1407              		.loc 1 1123 0
 1408 0002 154B     		ldr	r3, .L112+8
 1409 0004 D878     		ldrb	r0, [r3, #3]	@ zero_extendqisi2
 1410 0006 9B78     		ldrb	r3, [r3, #2]	@ zero_extendqisi2
ARM GAS  C:\Users\Revanth\AppData\Local\Temp\ccHsQCvB.s 			page 62


 1411 0008 03EB0020 		add	r0, r3, r0, lsl #8
 1412 000c 134C     		ldr	r4, .L112+12
 1413 000e 2060     		str	r0, [r4]
1124:AS76.c        ****     Write_Debug_UART_Char(" LED Value Recived--->");
 1414              		.loc 1 1124 0
 1415 0010 FFF7FEFF 		bl	__aeabi_i2d
 1416              	.LVL89:
 1417 0014 0EA3     		adr	r3, .L112
 1418 0016 D3E90023 		ldrd	r2, [r3]
 1419 001a FFF7FEFF 		bl	__aeabi_dmul
 1420              	.LVL90:
 1421 001e 0022     		movs	r2, #0
 1422 0020 0F4B     		ldr	r3, .L112+16
 1423 0022 FFF7FEFF 		bl	__aeabi_ddiv
 1424              	.LVL91:
 1425 0026 FFF7FEFF 		bl	__aeabi_d2uiz
 1426              	.LVL92:
 1427 002a 80B2     		uxth	r0, r0
 1428 002c FFF7FEFF 		bl	PWM_CondenserLED_WriteCompare
 1429              	.LVL93:
1125:AS76.c        ****     Write_Debug_UART_Int(PWM_Condenser_comare_value);
 1430              		.loc 1 1125 0
 1431 0030 0C48     		ldr	r0, .L112+20
 1432 0032 FFF7FEFF 		bl	Write_Debug_UART_Char
 1433              	.LVL94:
1126:AS76.c        ****     Write_Debug_UART_Char("\r\n");
 1434              		.loc 1 1126 0
 1435 0036 2068     		ldr	r0, [r4]
 1436 0038 FFF7FEFF 		bl	Write_Debug_UART_Int
 1437              	.LVL95:
1127:AS76.c        ****     Write_Debug_UART_Char("Set LED Command Executed  \r\n");
 1438              		.loc 1 1127 0
 1439 003c 0A48     		ldr	r0, .L112+24
 1440 003e FFF7FEFF 		bl	Write_Debug_UART_Char
 1441              	.LVL96:
1128:AS76.c        ****     return 0;
 1442              		.loc 1 1128 0
 1443 0042 0A48     		ldr	r0, .L112+28
 1444 0044 FFF7FEFF 		bl	Write_Debug_UART_Char
 1445              	.LVL97:
1130:AS76.c        **** 
 1446              		.loc 1 1130 0
 1447 0048 0020     		movs	r0, #0
 1448 004a 10BD     		pop	{r4, pc}
 1449              	.L113:
 1450 004c AFF30080 		.align	3
 1451              	.L112:
 1452 0050 33333333 		.word	858993459
 1453 0054 3333E33F 		.word	1071854387
 1454 0058 00000000 		.word	USB_received
 1455 005c 00000000 		.word	.LANCHOR1
 1456 0060 00002440 		.word	1076101120
 1457 0064 E4000000 		.word	.LC10
 1458 0068 B8000000 		.word	.LC8
 1459 006c FC000000 		.word	.LC11
 1460              		.cfi_endproc
 1461              	.LFE82:
ARM GAS  C:\Users\Revanth\AppData\Local\Temp\ccHsQCvB.s 			page 63


 1462              		.size	set_CondenserLED, .-set_CondenserLED
 1463              		.section	.text.UART_print_all_values,"ax",%progbits
 1464              		.align	2
 1465              		.global	UART_print_all_values
 1466              		.thumb
 1467              		.thumb_func
 1468              		.type	UART_print_all_values, %function
 1469              	UART_print_all_values:
 1470              	.LFB100:
1860:AS76.c        **** void UART_print_all_values()
1861:AS76.c        **** {
 1471              		.loc 1 1861 0
 1472              		.cfi_startproc
 1473              		@ args = 0, pretend = 0, frame = 0
 1474              		@ frame_needed = 0, uses_anonymous_args = 0
 1475 0000 08B5     		push	{r3, lr}
 1476              		.cfi_def_cfa_offset 8
 1477              		.cfi_offset 3, -8
 1478              		.cfi_offset 14, -4
1862:AS76.c        ****     Write_Debug_UART_Char("\r\n");
 1479              		.loc 1 1862 0
 1480 0002 0548     		ldr	r0, .L116
 1481 0004 FFF7FEFF 		bl	Write_Debug_UART_Char
 1482              	.LVL98:
1863:AS76.c        ****     Write_Debug_UART_Char("--------------------------------------------------");
 1483              		.loc 1 1863 0
 1484 0008 0448     		ldr	r0, .L116+4
 1485 000a FFF7FEFF 		bl	Write_Debug_UART_Char
 1486              	.LVL99:
1864:AS76.c        ****     Write_Debug_UART_Char("\n");
 1487              		.loc 1 1864 0
 1488 000e 0448     		ldr	r0, .L116+8
 1489 0010 FFF7FEFF 		bl	Write_Debug_UART_Char
 1490              	.LVL100:
 1491 0014 08BD     		pop	{r3, pc}
 1492              	.L117:
 1493 0016 00BF     		.align	2
 1494              	.L116:
 1495 0018 B8000000 		.word	.LC8
 1496 001c 1C010000 		.word	.LC12
 1497 0020 50010000 		.word	.LC13
 1498              		.cfi_endproc
 1499              	.LFE100:
 1500              		.size	UART_print_all_values, .-UART_print_all_values
 1501              		.section	.text.if_all_homing_done,"ax",%progbits
 1502              		.align	2
 1503              		.global	if_all_homing_done
 1504              		.thumb
 1505              		.thumb_func
 1506              		.type	if_all_homing_done, %function
 1507              	if_all_homing_done:
 1508              	.LFB79:
1056:AS76.c        ****     if((HomeY_done == false)&&(Error == 0))
 1509              		.loc 1 1056 0
 1510              		.cfi_startproc
 1511              		@ args = 0, pretend = 0, frame = 0
 1512              		@ frame_needed = 0, uses_anonymous_args = 0
ARM GAS  C:\Users\Revanth\AppData\Local\Temp\ccHsQCvB.s 			page 64


 1513 0000 10B5     		push	{r4, lr}
 1514              		.cfi_def_cfa_offset 8
 1515              		.cfi_offset 4, -8
 1516              		.cfi_offset 14, -4
1057:AS76.c        ****     {
 1517              		.loc 1 1057 0
 1518 0002 194B     		ldr	r3, .L124
 1519 0004 93F82040 		ldrb	r4, [r3, #32]	@ zero_extendqisi2
 1520 0008 5CB9     		cbnz	r4, .L119
1057:AS76.c        ****     {
 1521              		.loc 1 1057 0 is_stmt 0 discriminator 1
 1522 000a 184B     		ldr	r3, .L124+4
 1523 000c 9B6A     		ldr	r3, [r3, #40]
 1524 000e 43B9     		cbnz	r3, .L119
1059:AS76.c        ****         Write_Debug_UART_Char("Y_Homing_Not_Done_Yet***********[x12]  \r\n");
 1525              		.loc 1 1059 0 is_stmt 1
 1526 0010 0C22     		movs	r2, #12
 1527 0012 164B     		ldr	r3, .L124+4
 1528 0014 9A62     		str	r2, [r3, #40]
1060:AS76.c        ****         UART_print_all_values();
 1529              		.loc 1 1060 0
 1530 0016 1648     		ldr	r0, .L124+8
 1531 0018 FFF7FEFF 		bl	Write_Debug_UART_Char
 1532              	.LVL101:
1061:AS76.c        ****         return false;
 1533              		.loc 1 1061 0
 1534 001c FFF7FEFF 		bl	UART_print_all_values
 1535              	.LVL102:
1062:AS76.c        ****     }
 1536              		.loc 1 1062 0
 1537 0020 20E0     		b	.L120
 1538              	.L119:
1064:AS76.c        ****     {
 1539              		.loc 1 1064 0
 1540 0022 114B     		ldr	r3, .L124
 1541 0024 93F82140 		ldrb	r4, [r3, #33]	@ zero_extendqisi2
 1542 0028 5CB9     		cbnz	r4, .L121
1064:AS76.c        ****     {
 1543              		.loc 1 1064 0 is_stmt 0 discriminator 1
 1544 002a 104B     		ldr	r3, .L124+4
 1545 002c 9B6A     		ldr	r3, [r3, #40]
 1546 002e 43B9     		cbnz	r3, .L121
1066:AS76.c        ****         Write_Debug_UART_Char("X_Homing_Not_Done_Yet***********  \r\n");
 1547              		.loc 1 1066 0 is_stmt 1
 1548 0030 0622     		movs	r2, #6
 1549 0032 0E4B     		ldr	r3, .L124+4
 1550 0034 9A62     		str	r2, [r3, #40]
1067:AS76.c        ****         UART_print_all_values();
 1551              		.loc 1 1067 0
 1552 0036 0F48     		ldr	r0, .L124+12
 1553 0038 FFF7FEFF 		bl	Write_Debug_UART_Char
 1554              	.LVL103:
1068:AS76.c        ****         return false;
 1555              		.loc 1 1068 0
 1556 003c FFF7FEFF 		bl	UART_print_all_values
 1557              	.LVL104:
1069:AS76.c        ****     }
ARM GAS  C:\Users\Revanth\AppData\Local\Temp\ccHsQCvB.s 			page 65


 1558              		.loc 1 1069 0
 1559 0040 10E0     		b	.L120
 1560              	.L121:
1071:AS76.c        ****     {
 1561              		.loc 1 1071 0
 1562 0042 094B     		ldr	r3, .L124
 1563 0044 93F82240 		ldrb	r4, [r3, #34]	@ zero_extendqisi2
 1564 0048 64B9     		cbnz	r4, .L120
1071:AS76.c        ****     {
 1565              		.loc 1 1071 0 is_stmt 0 discriminator 1
 1566 004a 084B     		ldr	r3, .L124+4
 1567 004c 9B6A     		ldr	r3, [r3, #40]
 1568 004e 43B9     		cbnz	r3, .L122
1073:AS76.c        ****         Write_Debug_UART_Char("Z_Homing_Not_Done_Yet***********  \r\n");
 1569              		.loc 1 1073 0 is_stmt 1
 1570 0050 1222     		movs	r2, #18
 1571 0052 064B     		ldr	r3, .L124+4
 1572 0054 9A62     		str	r2, [r3, #40]
1074:AS76.c        ****         UART_print_all_values();
 1573              		.loc 1 1074 0
 1574 0056 0848     		ldr	r0, .L124+16
 1575 0058 FFF7FEFF 		bl	Write_Debug_UART_Char
 1576              	.LVL105:
1075:AS76.c        ****         return false;
 1577              		.loc 1 1075 0
 1578 005c FFF7FEFF 		bl	UART_print_all_values
 1579              	.LVL106:
1076:AS76.c        ****     } 
 1580              		.loc 1 1076 0
 1581 0060 00E0     		b	.L120
 1582              	.L122:
1087:AS76.c        ****     }
 1583              		.loc 1 1087 0
 1584 0062 0124     		movs	r4, #1
 1585              	.L120:
1089:AS76.c        **** 
 1586              		.loc 1 1089 0
 1587 0064 2046     		mov	r0, r4
 1588 0066 10BD     		pop	{r4, pc}
 1589              	.L125:
 1590              		.align	2
 1591              	.L124:
 1592 0068 00000000 		.word	.LANCHOR1
 1593 006c 00000000 		.word	.LANCHOR0
 1594 0070 54010000 		.word	.LC14
 1595 0074 80010000 		.word	.LC15
 1596 0078 A8010000 		.word	.LC16
 1597              		.cfi_endproc
 1598              	.LFE79:
 1599              		.size	if_all_homing_done, .-if_all_homing_done
 1600              		.section	.text.Is_USB_Unpluged,"ax",%progbits
 1601              		.align	2
 1602              		.global	Is_USB_Unpluged
 1603              		.thumb
 1604              		.thumb_func
 1605              		.type	Is_USB_Unpluged, %function
 1606              	Is_USB_Unpluged:
ARM GAS  C:\Users\Revanth\AppData\Local\Temp\ccHsQCvB.s 			page 66


 1607              	.LFB95:
1804:AS76.c        ****    static bool dont_Execute_1st_Time=false;
 1608              		.loc 1 1804 0
 1609              		.cfi_startproc
 1610              		@ args = 0, pretend = 0, frame = 0
 1611              		@ frame_needed = 0, uses_anonymous_args = 0
 1612 0000 08B5     		push	{r3, lr}
 1613              		.cfi_def_cfa_offset 8
 1614              		.cfi_offset 3, -8
 1615              		.cfi_offset 14, -4
1806:AS76.c        ****    {
 1616              		.loc 1 1806 0
 1617 0002 FFF7FEFF 		bl	USB_IsConfigurationChanged
 1618              	.LVL107:
 1619 0006 B0B1     		cbz	r0, .L126
1808:AS76.c        ****        if(USB_GetConfiguration() != 0)
 1620              		.loc 1 1808 0
 1621 0008 FFF7FEFF 		bl	Beep_Twice
 1622              	.LVL108:
1809:AS76.c        ****        {
 1623              		.loc 1 1809 0
 1624 000c FFF7FEFF 		bl	USB_GetConfiguration
 1625              	.LVL109:
 1626 0010 88B1     		cbz	r0, .L126
1811:AS76.c        ****             {
 1627              		.loc 1 1811 0
 1628 0012 094B     		ldr	r3, .L130
 1629 0014 93F82C30 		ldrb	r3, [r3, #44]	@ zero_extendqisi2
 1630 0018 4BB1     		cbz	r3, .L128
1813:AS76.c        ****                 UART_print_all_values();
 1631              		.loc 1 1813 0
 1632 001a 0848     		ldr	r0, .L130+4
 1633 001c FFF7FEFF 		bl	Write_Debug_UART_Char
 1634              	.LVL110:
1814:AS76.c        ****                 CyDelay(1);
 1635              		.loc 1 1814 0
 1636 0020 FFF7FEFF 		bl	UART_print_all_values
 1637              	.LVL111:
1815:AS76.c        ****                 CySoftwareReset();
 1638              		.loc 1 1815 0
 1639 0024 0120     		movs	r0, #1
 1640 0026 FFF7FEFF 		bl	CyDelay
 1641              	.LVL112:
1816:AS76.c        ****             }
 1642              		.loc 1 1816 0
 1643 002a FFF7FEFF 		bl	CySoftwareReset
 1644              	.LVL113:
 1645              	.L128:
1818:AS76.c        ****        }
 1646              		.loc 1 1818 0
 1647 002e 0122     		movs	r2, #1
 1648 0030 014B     		ldr	r3, .L130
 1649 0032 83F82C20 		strb	r2, [r3, #44]
 1650              	.L126:
 1651 0036 08BD     		pop	{r3, pc}
 1652              	.L131:
 1653              		.align	2
ARM GAS  C:\Users\Revanth\AppData\Local\Temp\ccHsQCvB.s 			page 67


 1654              	.L130:
 1655 0038 00000000 		.word	.LANCHOR0
 1656 003c D0010000 		.word	.LC17
 1657              		.cfi_endproc
 1658              	.LFE95:
 1659              		.size	Is_USB_Unpluged, .-Is_USB_Unpluged
 1660              		.section	.text.Data_To_Transfer,"ax",%progbits
 1661              		.align	2
 1662              		.global	Data_To_Transfer
 1663              		.thumb
 1664              		.thumb_func
 1665              		.type	Data_To_Transfer, %function
 1666              	Data_To_Transfer:
 1667              	.LFB101:
1865:AS76.c        **** 
1866:AS76.c        **** }
1867:AS76.c        **** //USB Functions Stop-------------------------------------------------------
1868:AS76.c        **** 
1869:AS76.c        **** 
1870:AS76.c        **** //L6470 Motor Driver Functions Stop-------------------------------------------------------
1871:AS76.c        **** 
1872:AS76.c        **** 
1873:AS76.c        **** uint8_t Data_To_Transfer(uint8_t data)
1874:AS76.c        **** {   
 1668              		.loc 1 1874 0
 1669              		.cfi_startproc
 1670              		@ args = 0, pretend = 0, frame = 0
 1671              		@ frame_needed = 0, uses_anonymous_args = 0
 1672              	.LVL114:
 1673 0000 08B5     		push	{r3, lr}
 1674              		.cfi_def_cfa_offset 8
 1675              		.cfi_offset 3, -8
 1676              		.cfi_offset 14, -4
1875:AS76.c        ****     SPIM_WriteTxData(data);
 1677              		.loc 1 1875 0
 1678 0002 FFF7FEFF 		bl	SPIM_WriteTxData
 1679              	.LVL115:
1876:AS76.c        ****     CyDelayUs(10);
 1680              		.loc 1 1876 0
 1681 0006 0A20     		movs	r0, #10
 1682 0008 FFF7FEFF 		bl	CyDelayUs
 1683              	.LVL116:
1877:AS76.c        ****     return 1;
1878:AS76.c        **** }
 1684              		.loc 1 1878 0
 1685 000c 0120     		movs	r0, #1
 1686 000e 08BD     		pop	{r3, pc}
 1687              		.cfi_endproc
 1688              	.LFE101:
 1689              		.size	Data_To_Transfer, .-Data_To_Transfer
 1690              		.section	.text.SPI_MOTOR_CHIP_SELECT,"ax",%progbits
 1691              		.align	2
 1692              		.global	SPI_MOTOR_CHIP_SELECT
 1693              		.thumb
 1694              		.thumb_func
 1695              		.type	SPI_MOTOR_CHIP_SELECT, %function
 1696              	SPI_MOTOR_CHIP_SELECT:
ARM GAS  C:\Users\Revanth\AppData\Local\Temp\ccHsQCvB.s 			page 68


 1697              	.LFB102:
1879:AS76.c        **** 
1880:AS76.c        **** 
1881:AS76.c        **** 
1882:AS76.c        **** /* --------------------------------------------------------------------------------------------
1883:AS76.c        **** Function Name        : SPI_MOTOR_CHIP_SELECT
1884:AS76.c        **** 
1885:AS76.c        **** Prerequist Knowledge : SPI Communication Protocol, SCI Chip Select Pin, GPIO, SWITCH Statement
1886:AS76.c        **** 
1887:AS76.c        **** Function Description : This Function is used to assert or de-assert the chipselect pin of
1888:AS76.c        ****                        selected driver IC.
1889:AS76.c        **** 
1890:AS76.c        **** Return Type & Data   : Void
1891:AS76.c        **** 
1892:AS76.c        **** Numnber of Arguments : 2
1893:AS76.c        **** 
1894:AS76.c        **** -----Argument 1-----
1895:AS76.c        **** Name                 : Motor
1896:AS76.c        **** Tupe                 : uint8_t
1897:AS76.c        **** Description          : This Argument Represents the driver channel
1898:AS76.c        **** Condition            : This Value must range from 0x00 to 0x04 since there are only 5 channels
1899:AS76.c        ****                        available in AS76 System Configuration
1900:AS76.c        **** --------------------
1901:AS76.c        **** 
1902:AS76.c        **** -----Argument 2-----
1903:AS76.c        **** Name                 : Value
1904:AS76.c        **** Tupe                 : uint8_t
1905:AS76.c        **** Description          : This Argument Represents the GPIO Level
1906:AS76.c        **** Condition            : This Value must either 0x00 or 0xFF (Low/High)
1907:AS76.c        **** --------------------
1908:AS76.c        **** 
1909:AS76.c        **** ---------------------------------------------------------------------------------------------*/
1910:AS76.c        **** 
1911:AS76.c        **** void SPI_MOTOR_CHIP_SELECT (uint8_t Motor, uint8_t Value)
1912:AS76.c        **** {
 1698              		.loc 1 1912 0
 1699              		.cfi_startproc
 1700              		@ args = 0, pretend = 0, frame = 0
 1701              		@ frame_needed = 0, uses_anonymous_args = 0
 1702              	.LVL117:
 1703 0000 10B5     		push	{r4, lr}
 1704              		.cfi_def_cfa_offset 8
 1705              		.cfi_offset 4, -8
 1706              		.cfi_offset 14, -4
1913:AS76.c        ****     
1914:AS76.c        **** if ((Value == 0x00) || (Value == 0xFF))  // Condition to check for valid GPIO Value
 1707              		.loc 1 1914 0
 1708 0002 4B1E     		subs	r3, r1, #1
 1709 0004 DBB2     		uxtb	r3, r3
 1710 0006 FD2B     		cmp	r3, #253
 1711 0008 3DD9     		bls	.L135
 1712 000a 0C46     		mov	r4, r1
1915:AS76.c        **** {
1916:AS76.c        ****  switch (Motor) // Condition to select correct motor driver channel
 1713              		.loc 1 1916 0
 1714 000c 0428     		cmp	r0, #4
 1715 000e 36D8     		bhi	.L136
ARM GAS  C:\Users\Revanth\AppData\Local\Temp\ccHsQCvB.s 			page 69


 1716 0010 DFE800F0 		tbb	[pc, r0]
 1717              	.L138:
 1718 0014 03       		.byte	(.L137-.L138)/2
 1719 0015 0D       		.byte	(.L139-.L138)/2
 1720 0016 17       		.byte	(.L140-.L138)/2
 1721 0017 21       		.byte	(.L141-.L138)/2
 1722 0018 2B       		.byte	(.L142-.L138)/2
 1723 0019 00       		.p2align 1
 1724              	.L137:
1917:AS76.c        ****     {
1918:AS76.c        ****     case 0x00:
1919:AS76.c        ****         {
1920:AS76.c        ****           CyDelayUs(10);
 1725              		.loc 1 1920 0
 1726 001a 0A20     		movs	r0, #10
 1727              	.LVL118:
 1728 001c FFF7FEFF 		bl	CyDelayUs
 1729              	.LVL119:
1921:AS76.c        ****           Pin_CSMotorX_Write(Value);
 1730              		.loc 1 1921 0
 1731 0020 2046     		mov	r0, r4
 1732 0022 FFF7FEFF 		bl	Pin_CSMotorX_Write
 1733              	.LVL120:
1922:AS76.c        ****           CyDelayUs(10);
 1734              		.loc 1 1922 0
 1735 0026 0A20     		movs	r0, #10
 1736 0028 FFF7FEFF 		bl	CyDelayUs
 1737              	.LVL121:
1923:AS76.c        ****          // Write_Debug_UART_Char("Motor Channel 1 asserted/de-asserted for SPI Read/Write  \r\n");
1924:AS76.c        ****           break;
 1738              		.loc 1 1924 0
 1739 002c 10BD     		pop	{r4, pc}
 1740              	.LVL122:
 1741              	.L139:
1925:AS76.c        ****         }
1926:AS76.c        ****     case 0x01:
1927:AS76.c        ****         {
1928:AS76.c        ****           CyDelayUs(10);
 1742              		.loc 1 1928 0
 1743 002e 0A20     		movs	r0, #10
 1744              	.LVL123:
 1745 0030 FFF7FEFF 		bl	CyDelayUs
 1746              	.LVL124:
1929:AS76.c        ****           Pin_CSMotorY_Write(Value);
 1747              		.loc 1 1929 0
 1748 0034 2046     		mov	r0, r4
 1749 0036 FFF7FEFF 		bl	Pin_CSMotorY_Write
 1750              	.LVL125:
1930:AS76.c        ****           CyDelayUs(10);
 1751              		.loc 1 1930 0
 1752 003a 0A20     		movs	r0, #10
 1753 003c FFF7FEFF 		bl	CyDelayUs
 1754              	.LVL126:
1931:AS76.c        ****          // Write_Debug_UART_Char("Motor Channel 2 asserted/de-asserted for SPI Read/Write  \r\n");
1932:AS76.c        ****           break;
 1755              		.loc 1 1932 0
 1756 0040 10BD     		pop	{r4, pc}
ARM GAS  C:\Users\Revanth\AppData\Local\Temp\ccHsQCvB.s 			page 70


 1757              	.LVL127:
 1758              	.L140:
1933:AS76.c        ****         }
1934:AS76.c        ****         case 0x02:
1935:AS76.c        ****         {
1936:AS76.c        ****           CyDelayUs(10);
 1759              		.loc 1 1936 0
 1760 0042 0A20     		movs	r0, #10
 1761              	.LVL128:
 1762 0044 FFF7FEFF 		bl	CyDelayUs
 1763              	.LVL129:
1937:AS76.c        ****           Pin_CSMotorZ_Write(Value);
 1764              		.loc 1 1937 0
 1765 0048 2046     		mov	r0, r4
 1766 004a FFF7FEFF 		bl	Pin_CSMotorZ_Write
 1767              	.LVL130:
1938:AS76.c        ****          // Write_Debug_UART_Char("Motor Channel 3 asserted/de-asserted for SPI Read/Write  \r\n");
1939:AS76.c        ****           CyDelayUs(10);
 1768              		.loc 1 1939 0
 1769 004e 0A20     		movs	r0, #10
 1770 0050 FFF7FEFF 		bl	CyDelayUs
 1771              	.LVL131:
1940:AS76.c        ****           break;
 1772              		.loc 1 1940 0
 1773 0054 10BD     		pop	{r4, pc}
 1774              	.LVL132:
 1775              	.L141:
1941:AS76.c        ****         }
1942:AS76.c        ****         case 0x03:
1943:AS76.c        ****         {
1944:AS76.c        ****           CyDelayUs(10);
 1776              		.loc 1 1944 0
 1777 0056 0A20     		movs	r0, #10
 1778              	.LVL133:
 1779 0058 FFF7FEFF 		bl	CyDelayUs
 1780              	.LVL134:
1945:AS76.c        ****           Pin_CSMotorT_Write(Value);
 1781              		.loc 1 1945 0
 1782 005c 2046     		mov	r0, r4
 1783 005e FFF7FEFF 		bl	Pin_CSMotorT_Write
 1784              	.LVL135:
1946:AS76.c        ****         //  Write_Debug_UART_Char("Motor Channel 4 asserted/de-asserted for SPI Read/Write  \r\n");
1947:AS76.c        ****           CyDelayUs(10);
 1785              		.loc 1 1947 0
 1786 0062 0A20     		movs	r0, #10
 1787 0064 FFF7FEFF 		bl	CyDelayUs
 1788              	.LVL136:
1948:AS76.c        ****           break;
 1789              		.loc 1 1948 0
 1790 0068 10BD     		pop	{r4, pc}
 1791              	.LVL137:
 1792              	.L142:
1949:AS76.c        ****         }
1950:AS76.c        ****         case 0x04:
1951:AS76.c        ****         {
1952:AS76.c        ****           CyDelayUs(10);
 1793              		.loc 1 1952 0
ARM GAS  C:\Users\Revanth\AppData\Local\Temp\ccHsQCvB.s 			page 71


 1794 006a 0A20     		movs	r0, #10
 1795              	.LVL138:
 1796 006c FFF7FEFF 		bl	CyDelayUs
 1797              	.LVL139:
1953:AS76.c        ****           Pin_CSMotorO_Write(Value);
 1798              		.loc 1 1953 0
 1799 0070 2046     		mov	r0, r4
 1800 0072 FFF7FEFF 		bl	Pin_CSMotorO_Write
 1801              	.LVL140:
1954:AS76.c        ****         //  Write_Debug_UART_Char("Motor Channel 5 asserted/de-asserted for SPI Read/Write  \r\n");
1955:AS76.c        ****           CyDelayUs(10);
 1802              		.loc 1 1955 0
 1803 0076 0A20     		movs	r0, #10
 1804 0078 FFF7FEFF 		bl	CyDelayUs
 1805              	.LVL141:
1956:AS76.c        ****           break;
 1806              		.loc 1 1956 0
 1807 007c 10BD     		pop	{r4, pc}
 1808              	.LVL142:
 1809              	.L136:
1957:AS76.c        ****         }
1958:AS76.c        ****         
1959:AS76.c        ****         default : // If Invalid motor channel selected print error message
1960:AS76.c        ****         {
1961:AS76.c        ****             Write_Debug_UART_Char("No Valid Driver nCS asserted/de-asserted for SPI Read/Write  \r\
 1810              		.loc 1 1961 0
 1811 007e 0448     		ldr	r0, .L145
 1812              	.LVL143:
 1813 0080 FFF7FEFF 		bl	Write_Debug_UART_Char
 1814              	.LVL144:
 1815 0084 10BD     		pop	{r4, pc}
 1816              	.LVL145:
 1817              	.L135:
1962:AS76.c        ****         }
1963:AS76.c        ****     } 
1964:AS76.c        **** }
1965:AS76.c        **** else // If Invalid GPIO Value given, print error message
1966:AS76.c        **** {
1967:AS76.c        ****    Write_Debug_UART_Char("Invalid GPIO Level Value, Unable to assert/de-assert nCSN Pin for SPI Rea
 1818              		.loc 1 1967 0
 1819 0086 0348     		ldr	r0, .L145+4
 1820              	.LVL146:
 1821 0088 FFF7FEFF 		bl	Write_Debug_UART_Char
 1822              	.LVL147:
 1823 008c 10BD     		pop	{r4, pc}
 1824              	.L146:
 1825 008e 00BF     		.align	2
 1826              	.L145:
 1827 0090 FC010000 		.word	.LC18
 1828 0094 3C020000 		.word	.LC19
 1829              		.cfi_endproc
 1830              	.LFE102:
 1831              		.size	SPI_MOTOR_CHIP_SELECT, .-SPI_MOTOR_CHIP_SELECT
 1832              		.section	.text.Read_32bitSPI_DATA,"ax",%progbits
 1833              		.align	2
 1834              		.global	Read_32bitSPI_DATA
 1835              		.thumb
ARM GAS  C:\Users\Revanth\AppData\Local\Temp\ccHsQCvB.s 			page 72


 1836              		.thumb_func
 1837              		.type	Read_32bitSPI_DATA, %function
 1838              	Read_32bitSPI_DATA:
 1839              	.LFB103:
1968:AS76.c        **** }
1969:AS76.c        **** }
1970:AS76.c        **** 
1971:AS76.c        **** //-------------------------- [] END OF SPI_MOTOR_CHIP_SELECT Function ---------------------------
1972:AS76.c        **** 
1973:AS76.c        **** 
1974:AS76.c        **** /* --------------------------------------------------------------------------------------------
1975:AS76.c        **** Function Name        : Read_32bitSPI_DATA
1976:AS76.c        **** 
1977:AS76.c        **** Prerequist Knowledge : SPI Communication Protocol, TMC5160 SPI Communication Protocol
1978:AS76.c        **** 
1979:AS76.c        **** Function Description : This Function is used to read 32bit data from the driver register
1980:AS76.c        ****                        using 32bit SPI communication protocol specific to TMC5160.
1981:AS76.c        **** 
1982:AS76.c        **** Return Type & Data   :32 bit signed or unsigned integer which was fetched from the register
1983:AS76.c        **** 
1984:AS76.c        **** Numnber of Arguments : 2
1985:AS76.c        **** 
1986:AS76.c        **** -----Argument 1-----
1987:AS76.c        **** Name                 : ADDR
1988:AS76.c        **** Tupe                 : uint8_t
1989:AS76.c        **** Description          : The Address of the TMC5160 Register from which data needs to be read
1990:AS76.c        **** Condition            : Nil
1991:AS76.c        **** --------------------
1992:AS76.c        **** 
1993:AS76.c        **** -----Argument 2-----
1994:AS76.c        **** Name                 : Motor
1995:AS76.c        **** Tupe                 : uint8_t
1996:AS76.c        **** Description          : This Argument Represents the driver channel
1997:AS76.c        **** Condition            : This Value must range from 0x00 to 0x04 since there are only 5 channels
1998:AS76.c        ****                        available in AS76 System Configuration, condition to be checked in 
1999:AS76.c        ****                        SPI_MOTOR_CHIP_SELECT Function                       
2000:AS76.c        **** --------------------
2001:AS76.c        **** 
2002:AS76.c        **** 
2003:AS76.c        **** ---------------------------------------------------------------------------------------------*/
2004:AS76.c        **** 
2005:AS76.c        **** 
2006:AS76.c        **** int Read_32bitSPI_DATA(uint8_t ADDR, uint8_t Motor, uint8_t* motor_status )
2007:AS76.c        **** {
 1840              		.loc 1 2007 0
 1841              		.cfi_startproc
 1842              		@ args = 0, pretend = 0, frame = 0
 1843              		@ frame_needed = 0, uses_anonymous_args = 0
 1844              	.LVL148:
 1845 0000 F8B5     		push	{r3, r4, r5, r6, r7, lr}
 1846              		.cfi_def_cfa_offset 24
 1847              		.cfi_offset 3, -24
 1848              		.cfi_offset 4, -20
 1849              		.cfi_offset 5, -16
 1850              		.cfi_offset 6, -12
 1851              		.cfi_offset 7, -8
 1852              		.cfi_offset 14, -4
ARM GAS  C:\Users\Revanth\AppData\Local\Temp\ccHsQCvB.s 			page 73


 1853 0002 0646     		mov	r6, r0
 1854 0004 0D46     		mov	r5, r1
 1855 0006 1746     		mov	r7, r2
 1856              	.LVL149:
2008:AS76.c        ****                 uint32_t SPI_DATA_VALUE = 0;
2009:AS76.c        ****                
2010:AS76.c        ****                
2011:AS76.c        ****                 SPI_MOTOR_CHIP_SELECT (Motor, 0x00);  
 1857              		.loc 1 2011 0
 1858 0008 0021     		movs	r1, #0
 1859              	.LVL150:
 1860 000a 2846     		mov	r0, r5
 1861              	.LVL151:
 1862 000c FFF7FEFF 		bl	SPI_MOTOR_CHIP_SELECT
 1863              	.LVL152:
2012:AS76.c        ****                 
2013:AS76.c        ****                 Data_To_Transfer(ADDR & 0x7F);                
 1864              		.loc 1 2013 0
 1865 0010 06F07F06 		and	r6, r6, #127
 1866 0014 3046     		mov	r0, r6
 1867 0016 FFF7FEFF 		bl	Data_To_Transfer
 1868              	.LVL153:
2014:AS76.c        ****                 Data_To_Transfer(0x00);                
 1869              		.loc 1 2014 0
 1870 001a 0020     		movs	r0, #0
 1871 001c FFF7FEFF 		bl	Data_To_Transfer
 1872              	.LVL154:
2015:AS76.c        ****                 Data_To_Transfer(0x00);                
 1873              		.loc 1 2015 0
 1874 0020 0020     		movs	r0, #0
 1875 0022 FFF7FEFF 		bl	Data_To_Transfer
 1876              	.LVL155:
2016:AS76.c        ****                 Data_To_Transfer(0x00);                
 1877              		.loc 1 2016 0
 1878 0026 0020     		movs	r0, #0
 1879 0028 FFF7FEFF 		bl	Data_To_Transfer
 1880              	.LVL156:
2017:AS76.c        ****                 Data_To_Transfer(0x00); 
 1881              		.loc 1 2017 0
 1882 002c 0020     		movs	r0, #0
 1883 002e FFF7FEFF 		bl	Data_To_Transfer
 1884              	.LVL157:
2018:AS76.c        ****                 
2019:AS76.c        ****                 SPI_MOTOR_CHIP_SELECT (Motor, 0xFF); 
 1885              		.loc 1 2019 0
 1886 0032 FF21     		movs	r1, #255
 1887 0034 2846     		mov	r0, r5
 1888 0036 FFF7FEFF 		bl	SPI_MOTOR_CHIP_SELECT
 1889              	.LVL158:
2020:AS76.c        ****                 
2021:AS76.c        ****                 CyDelay(1);
 1890              		.loc 1 2021 0
 1891 003a 0120     		movs	r0, #1
 1892 003c FFF7FEFF 		bl	CyDelay
 1893              	.LVL159:
2022:AS76.c        ****                 
2023:AS76.c        ****                 SPI_MOTOR_CHIP_SELECT (Motor, 0x00);
ARM GAS  C:\Users\Revanth\AppData\Local\Temp\ccHsQCvB.s 			page 74


 1894              		.loc 1 2023 0
 1895 0040 0021     		movs	r1, #0
 1896 0042 2846     		mov	r0, r5
 1897 0044 FFF7FEFF 		bl	SPI_MOTOR_CHIP_SELECT
 1898              	.LVL160:
2024:AS76.c        ****                 
2025:AS76.c        ****                 Data_To_Transfer(ADDR & 0x7F);
 1899              		.loc 1 2025 0
 1900 0048 3046     		mov	r0, r6
 1901 004a FFF7FEFF 		bl	Data_To_Transfer
 1902              	.LVL161:
2026:AS76.c        ****                 *motor_status = SPIM_ReadRxData();
 1903              		.loc 1 2026 0
 1904 004e FFF7FEFF 		bl	SPIM_ReadRxData
 1905              	.LVL162:
 1906 0052 3870     		strb	r0, [r7]
2027:AS76.c        ****                 Data_To_Transfer(0x00);
 1907              		.loc 1 2027 0
 1908 0054 0020     		movs	r0, #0
 1909 0056 FFF7FEFF 		bl	Data_To_Transfer
 1910              	.LVL163:
2028:AS76.c        ****                 SPI_DATA_VALUE |= (uint32_t) SPIM_ReadRxData() << 24;
 1911              		.loc 1 2028 0
 1912 005a FFF7FEFF 		bl	SPIM_ReadRxData
 1913              	.LVL164:
 1914 005e 0406     		lsls	r4, r0, #24
 1915              	.LVL165:
2029:AS76.c        ****                 Data_To_Transfer(0x00);
 1916              		.loc 1 2029 0
 1917 0060 0020     		movs	r0, #0
 1918 0062 FFF7FEFF 		bl	Data_To_Transfer
 1919              	.LVL166:
2030:AS76.c        ****                 SPI_DATA_VALUE |= (uint32_t) SPIM_ReadRxData() << 16;
 1920              		.loc 1 2030 0
 1921 0066 FFF7FEFF 		bl	SPIM_ReadRxData
 1922              	.LVL167:
 1923 006a 44EA0044 		orr	r4, r4, r0, lsl #16
 1924              	.LVL168:
2031:AS76.c        ****                 Data_To_Transfer(0x00);
 1925              		.loc 1 2031 0
 1926 006e 0020     		movs	r0, #0
 1927 0070 FFF7FEFF 		bl	Data_To_Transfer
 1928              	.LVL169:
2032:AS76.c        ****                 SPI_DATA_VALUE |= (uint32_t) SPIM_ReadRxData() << 8; 
 1929              		.loc 1 2032 0
 1930 0074 FFF7FEFF 		bl	SPIM_ReadRxData
 1931              	.LVL170:
 1932 0078 44EA0024 		orr	r4, r4, r0, lsl #8
 1933              	.LVL171:
2033:AS76.c        ****                 Data_To_Transfer(0x00); 
 1934              		.loc 1 2033 0
 1935 007c 0020     		movs	r0, #0
 1936 007e FFF7FEFF 		bl	Data_To_Transfer
 1937              	.LVL172:
2034:AS76.c        ****                 SPI_DATA_VALUE |= (uint32_t) SPIM_ReadRxData();
 1938              		.loc 1 2034 0
 1939 0082 FFF7FEFF 		bl	SPIM_ReadRxData
ARM GAS  C:\Users\Revanth\AppData\Local\Temp\ccHsQCvB.s 			page 75


 1940              	.LVL173:
 1941 0086 0443     		orrs	r4, r4, r0
 1942              	.LVL174:
2035:AS76.c        ****                 
2036:AS76.c        ****                 SPI_MOTOR_CHIP_SELECT (Motor, 0xFF);
 1943              		.loc 1 2036 0
 1944 0088 FF21     		movs	r1, #255
 1945 008a 2846     		mov	r0, r5
 1946 008c FFF7FEFF 		bl	SPI_MOTOR_CHIP_SELECT
 1947              	.LVL175:
2037:AS76.c        **** 
2038:AS76.c        ****                 CyDelay(1);
 1948              		.loc 1 2038 0
 1949 0090 0120     		movs	r0, #1
 1950 0092 FFF7FEFF 		bl	CyDelay
 1951              	.LVL176:
2039:AS76.c        ****                 
2040:AS76.c        ****                 SPI_MOTOR_CHIP_SELECT (Motor, 0x00);
 1952              		.loc 1 2040 0
 1953 0096 0021     		movs	r1, #0
 1954 0098 2846     		mov	r0, r5
 1955 009a FFF7FEFF 		bl	SPI_MOTOR_CHIP_SELECT
 1956              	.LVL177:
2041:AS76.c        ****                 
2042:AS76.c        ****                 Data_To_Transfer(ADDR & 0x7F);
 1957              		.loc 1 2042 0
 1958 009e 3046     		mov	r0, r6
 1959 00a0 FFF7FEFF 		bl	Data_To_Transfer
 1960              	.LVL178:
2043:AS76.c        ****                 *motor_status = SPIM_ReadRxData();
 1961              		.loc 1 2043 0
 1962 00a4 FFF7FEFF 		bl	SPIM_ReadRxData
 1963              	.LVL179:
 1964 00a8 3870     		strb	r0, [r7]
2044:AS76.c        ****                 Data_To_Transfer(0x00);
 1965              		.loc 1 2044 0
 1966 00aa 0020     		movs	r0, #0
 1967 00ac FFF7FEFF 		bl	Data_To_Transfer
 1968              	.LVL180:
2045:AS76.c        ****                 SPI_DATA_VALUE |= (uint32_t) SPIM_ReadRxData() << 24;
 1969              		.loc 1 2045 0
 1970 00b0 FFF7FEFF 		bl	SPIM_ReadRxData
 1971              	.LVL181:
 1972 00b4 44EA0064 		orr	r4, r4, r0, lsl #24
 1973              	.LVL182:
2046:AS76.c        ****                 Data_To_Transfer(0x00);
 1974              		.loc 1 2046 0
 1975 00b8 0020     		movs	r0, #0
 1976 00ba FFF7FEFF 		bl	Data_To_Transfer
 1977              	.LVL183:
2047:AS76.c        ****                 SPI_DATA_VALUE |= (uint32_t) SPIM_ReadRxData() << 16;
 1978              		.loc 1 2047 0
 1979 00be FFF7FEFF 		bl	SPIM_ReadRxData
 1980              	.LVL184:
 1981 00c2 44EA0044 		orr	r4, r4, r0, lsl #16
 1982              	.LVL185:
2048:AS76.c        ****                 Data_To_Transfer(0x00);
ARM GAS  C:\Users\Revanth\AppData\Local\Temp\ccHsQCvB.s 			page 76


 1983              		.loc 1 2048 0
 1984 00c6 0020     		movs	r0, #0
 1985 00c8 FFF7FEFF 		bl	Data_To_Transfer
 1986              	.LVL186:
2049:AS76.c        ****                 SPI_DATA_VALUE |= (uint32_t) SPIM_ReadRxData() << 8; 
 1987              		.loc 1 2049 0
 1988 00cc FFF7FEFF 		bl	SPIM_ReadRxData
 1989              	.LVL187:
 1990 00d0 44EA0024 		orr	r4, r4, r0, lsl #8
 1991              	.LVL188:
2050:AS76.c        ****                 Data_To_Transfer(0x00); 
 1992              		.loc 1 2050 0
 1993 00d4 0020     		movs	r0, #0
 1994 00d6 FFF7FEFF 		bl	Data_To_Transfer
 1995              	.LVL189:
2051:AS76.c        ****                 SPI_DATA_VALUE |= (uint32_t) SPIM_ReadRxData();
 1996              		.loc 1 2051 0
 1997 00da FFF7FEFF 		bl	SPIM_ReadRxData
 1998              	.LVL190:
 1999 00de 0443     		orrs	r4, r4, r0
 2000              	.LVL191:
2052:AS76.c        ****                 
2053:AS76.c        ****                 SPI_MOTOR_CHIP_SELECT (Motor, 0xFF);
 2001              		.loc 1 2053 0
 2002 00e0 FF21     		movs	r1, #255
 2003 00e2 2846     		mov	r0, r5
 2004 00e4 FFF7FEFF 		bl	SPI_MOTOR_CHIP_SELECT
 2005              	.LVL192:
2054:AS76.c        ****                 
2055:AS76.c        ****                 
2056:AS76.c        ****                 return SPI_DATA_VALUE;
2057:AS76.c        **** }
 2006              		.loc 1 2057 0
 2007 00e8 2046     		mov	r0, r4
 2008 00ea F8BD     		pop	{r3, r4, r5, r6, r7, pc}
 2009              		.cfi_endproc
 2010              	.LFE103:
 2011              		.size	Read_32bitSPI_DATA, .-Read_32bitSPI_DATA
 2012              		.section	.text.Write_32bitSPI_DATA,"ax",%progbits
 2013              		.align	2
 2014              		.global	Write_32bitSPI_DATA
 2015              		.thumb
 2016              		.thumb_func
 2017              		.type	Write_32bitSPI_DATA, %function
 2018              	Write_32bitSPI_DATA:
 2019              	.LFB104:
2058:AS76.c        **** 
2059:AS76.c        **** //-------------------------- [] END OF Read_32bitSPI_DATA Function ---------------------------
2060:AS76.c        **** 
2061:AS76.c        **** 
2062:AS76.c        **** /* --------------------------------------------------------------------------------------------
2063:AS76.c        **** Function Name        : Write_32bitSPI_DATA
2064:AS76.c        **** 
2065:AS76.c        **** Prerequist Knowledge : SPI Communication Protocol, TMC5160 SPI Communication Protocol
2066:AS76.c        **** 
2067:AS76.c        **** Function Description : This Function is used to write 32bit data to the driver register
2068:AS76.c        ****                        using 32bit SPI communication protocol specific to TMC5160.
ARM GAS  C:\Users\Revanth\AppData\Local\Temp\ccHsQCvB.s 			page 77


2069:AS76.c        **** 
2070:AS76.c        **** Return Type & Data   :Void
2071:AS76.c        **** 
2072:AS76.c        **** Numnber of Arguments : 3
2073:AS76.c        **** 
2074:AS76.c        **** -----Argument 1-----
2075:AS76.c        **** Name                 : ADDR
2076:AS76.c        **** Tupe                 : uint8_t
2077:AS76.c        **** Description          : The Address of the TMC5160 Register to which data needs to be written
2078:AS76.c        **** Condition            : Nil
2079:AS76.c        **** --------------------
2080:AS76.c        **** 
2081:AS76.c        **** -----Argument 2-----
2082:AS76.c        **** Name                 : data
2083:AS76.c        **** Tupe                 : uint8_t
2084:AS76.c        **** Description          : The 32bit data that needs to be written to TMC5160 register
2085:AS76.c        **** Condition            : Nil
2086:AS76.c        **** --------------------
2087:AS76.c        **** 
2088:AS76.c        **** -----Argument 3-----
2089:AS76.c        **** Name                 : Motor
2090:AS76.c        **** Tupe                 : uint8_t
2091:AS76.c        **** Description          : This Argument Represents the driver channel
2092:AS76.c        **** Condition            : This Value must range from 0x00 to 0x04 since there are only 5 channels
2093:AS76.c        ****                        available in AS76 System Configuration, condition to be checked in 
2094:AS76.c        ****                        SPI_MOTOR_CHIP_SELECT Function                       
2095:AS76.c        **** --------------------
2096:AS76.c        **** 
2097:AS76.c        **** ---------------------------------------------------------------------------------------------*/
2098:AS76.c        **** 
2099:AS76.c        **** void Write_32bitSPI_DATA (uint8_t ADDR, int data, uint8_t Motor)
2100:AS76.c        **** {
 2020              		.loc 1 2100 0
 2021              		.cfi_startproc
 2022              		@ args = 0, pretend = 0, frame = 0
 2023              		@ frame_needed = 0, uses_anonymous_args = 0
 2024              	.LVL193:
 2025 0000 70B5     		push	{r4, r5, r6, lr}
 2026              		.cfi_def_cfa_offset 16
 2027              		.cfi_offset 4, -16
 2028              		.cfi_offset 5, -12
 2029              		.cfi_offset 6, -8
 2030              		.cfi_offset 14, -4
 2031 0002 0646     		mov	r6, r0
 2032 0004 0C46     		mov	r4, r1
 2033 0006 1546     		mov	r5, r2
2101:AS76.c        ****  
2102:AS76.c        ****                 SPI_MOTOR_CHIP_SELECT (Motor, 0x00);
 2034              		.loc 1 2102 0
 2035 0008 0021     		movs	r1, #0
 2036              	.LVL194:
 2037 000a 1046     		mov	r0, r2
 2038              	.LVL195:
 2039 000c FFF7FEFF 		bl	SPI_MOTOR_CHIP_SELECT
 2040              	.LVL196:
2103:AS76.c        ****                 Data_To_Transfer(ADDR | 0x80);                
 2041              		.loc 1 2103 0
ARM GAS  C:\Users\Revanth\AppData\Local\Temp\ccHsQCvB.s 			page 78


 2042 0010 46F08000 		orr	r0, r6, #128
 2043 0014 FFF7FEFF 		bl	Data_To_Transfer
 2044              	.LVL197:
2104:AS76.c        ****                 Data_To_Transfer((data & 0xFF000000) >> 24);
 2045              		.loc 1 2104 0
 2046 0018 200E     		lsrs	r0, r4, #24
 2047 001a FFF7FEFF 		bl	Data_To_Transfer
 2048              	.LVL198:
2105:AS76.c        ****                 Data_To_Transfer((data & 0xFF0000) >> 16);
 2049              		.loc 1 2105 0
 2050 001e C4F30740 		ubfx	r0, r4, #16, #8
 2051 0022 FFF7FEFF 		bl	Data_To_Transfer
 2052              	.LVL199:
2106:AS76.c        ****                 Data_To_Transfer((data & 0xFF00) >> 8);
 2053              		.loc 1 2106 0
 2054 0026 C4F30720 		ubfx	r0, r4, #8, #8
 2055 002a FFF7FEFF 		bl	Data_To_Transfer
 2056              	.LVL200:
2107:AS76.c        ****                 Data_To_Transfer(data & 0xFF);     
 2057              		.loc 1 2107 0
 2058 002e E0B2     		uxtb	r0, r4
 2059 0030 FFF7FEFF 		bl	Data_To_Transfer
 2060              	.LVL201:
2108:AS76.c        ****                 SPI_MOTOR_CHIP_SELECT (Motor, 0xFF); 
 2061              		.loc 1 2108 0
 2062 0034 FF21     		movs	r1, #255
 2063 0036 2846     		mov	r0, r5
 2064 0038 FFF7FEFF 		bl	SPI_MOTOR_CHIP_SELECT
 2065              	.LVL202:
 2066 003c 70BD     		pop	{r4, r5, r6, pc}
 2067              		.cfi_endproc
 2068              	.LFE104:
 2069              		.size	Write_32bitSPI_DATA, .-Write_32bitSPI_DATA
 2070 003e 00BF     		.section	.text.GotoPos,"ax",%progbits
 2071              		.align	2
 2072              		.global	GotoPos
 2073              		.thumb
 2074              		.thumb_func
 2075              		.type	GotoPos, %function
 2076              	GotoPos:
 2077              	.LFB65:
 122:AS76.c        ****     Write_32bitSPI_DATA (0x20  , (int) 0x00000000, Motor );
 2078              		.loc 1 122 0
 2079              		.cfi_startproc
 2080              		@ args = 0, pretend = 0, frame = 0
 2081              		@ frame_needed = 0, uses_anonymous_args = 0
 2082              	.LVL203:
 2083 0000 38B5     		push	{r3, r4, r5, lr}
 2084              		.cfi_def_cfa_offset 16
 2085              		.cfi_offset 3, -16
 2086              		.cfi_offset 4, -12
 2087              		.cfi_offset 5, -8
 2088              		.cfi_offset 14, -4
 2089 0002 0546     		mov	r5, r0
 2090 0004 0C46     		mov	r4, r1
 123:AS76.c        ****     Write_32bitSPI_DATA (0x05  , Pos, Motor );
 2091              		.loc 1 123 0
ARM GAS  C:\Users\Revanth\AppData\Local\Temp\ccHsQCvB.s 			page 79


 2092 0006 0A46     		mov	r2, r1
 2093 0008 0021     		movs	r1, #0
 2094              	.LVL204:
 2095 000a 2020     		movs	r0, #32
 2096              	.LVL205:
 2097 000c FFF7FEFF 		bl	Write_32bitSPI_DATA
 2098              	.LVL206:
 124:AS76.c        ****     Write_32bitSPI_DATA (0x2D  , Pos, Motor );   
 2099              		.loc 1 124 0
 2100 0010 2246     		mov	r2, r4
 2101 0012 2946     		mov	r1, r5
 2102 0014 0520     		movs	r0, #5
 2103 0016 FFF7FEFF 		bl	Write_32bitSPI_DATA
 2104              	.LVL207:
 125:AS76.c        **** 
 2105              		.loc 1 125 0
 2106 001a 2246     		mov	r2, r4
 2107 001c 2946     		mov	r1, r5
 2108 001e 2D20     		movs	r0, #45
 2109 0020 FFF7FEFF 		bl	Write_32bitSPI_DATA
 2110              	.LVL208:
 2111 0024 38BD     		pop	{r3, r4, r5, pc}
 2112              		.cfi_endproc
 2113              	.LFE65:
 2114              		.size	GotoPos, .-GotoPos
 2115 0026 00BF     		.section	.text.Initialize_Motor,"ax",%progbits
 2116              		.align	2
 2117              		.global	Initialize_Motor
 2118              		.thumb
 2119              		.thumb_func
 2120              		.type	Initialize_Motor, %function
 2121              	Initialize_Motor:
 2122              	.LFB105:
2109:AS76.c        ****    
2110:AS76.c        ****     
2111:AS76.c        **** }
2112:AS76.c        **** 
2113:AS76.c        **** //-------------------------- [] END OF Write_32bitSPI_DATA Function ---------------------------
2114:AS76.c        **** 
2115:AS76.c        **** void Initialize_Motor(uint8_t Motor)
2116:AS76.c        **** {
 2123              		.loc 1 2116 0
 2124              		.cfi_startproc
 2125              		@ args = 0, pretend = 0, frame = 0
 2126              		@ frame_needed = 0, uses_anonymous_args = 0
 2127              	.LVL209:
 2128 0000 10B5     		push	{r4, lr}
 2129              		.cfi_def_cfa_offset 8
 2130              		.cfi_offset 4, -8
 2131              		.cfi_offset 14, -4
 2132 0002 0446     		mov	r4, r0
2117:AS76.c        ****             Write_32bitSPI_DATA (0x01  , (int) 0x00000005, Motor ); // Global Status Flag Register
 2133              		.loc 1 2117 0
 2134 0004 0246     		mov	r2, r0
 2135 0006 0521     		movs	r1, #5
 2136 0008 0120     		movs	r0, #1
 2137              	.LVL210:
ARM GAS  C:\Users\Revanth\AppData\Local\Temp\ccHsQCvB.s 			page 80


 2138 000a FFF7FEFF 		bl	Write_32bitSPI_DATA
 2139              	.LVL211:
2118:AS76.c        ****             Write_32bitSPI_DATA (0x00  , (int) 0x00000008, Motor ); // Global Configuration Flag Re
 2140              		.loc 1 2118 0
 2141 000e 2246     		mov	r2, r4
 2142 0010 0821     		movs	r1, #8
 2143 0012 0020     		movs	r0, #0
 2144 0014 FFF7FEFF 		bl	Write_32bitSPI_DATA
 2145              	.LVL212:
2119:AS76.c        ****             Write_32bitSPI_DATA (0x03  , (int) 0x00000000, Motor ); // Uart Register
 2146              		.loc 1 2119 0
 2147 0018 2246     		mov	r2, r4
 2148 001a 0021     		movs	r1, #0
 2149 001c 0320     		movs	r0, #3
 2150 001e FFF7FEFF 		bl	Write_32bitSPI_DATA
 2151              	.LVL213:
2120:AS76.c        ****             Write_32bitSPI_DATA (0x05  , (int) 0x00000000, Motor ); // X_COMPARE Register (Position
 2152              		.loc 1 2120 0
 2153 0022 2246     		mov	r2, r4
 2154 0024 0021     		movs	r1, #0
 2155 0026 0520     		movs	r0, #5
 2156 0028 FFF7FEFF 		bl	Write_32bitSPI_DATA
 2157              	.LVL214:
2121:AS76.c        ****             Write_32bitSPI_DATA (0x06  , (int) 0x00000000, Motor ); // OTP_Program Register
 2158              		.loc 1 2121 0
 2159 002c 2246     		mov	r2, r4
 2160 002e 0021     		movs	r1, #0
 2161 0030 0620     		movs	r0, #6
 2162 0032 FFF7FEFF 		bl	Write_32bitSPI_DATA
 2163              	.LVL215:
2122:AS76.c        ****             Write_32bitSPI_DATA (0x08  , (int) 0x0000000F, Motor ); // Factory_Config
 2164              		.loc 1 2122 0
 2165 0036 2246     		mov	r2, r4
 2166 0038 0F21     		movs	r1, #15
 2167 003a 0820     		movs	r0, #8
 2168 003c FFF7FEFF 		bl	Write_32bitSPI_DATA
 2169              	.LVL216:
2123:AS76.c        ****             Write_32bitSPI_DATA (0x09  , (int) 0x00010606, Motor ); // Short Config Register
 2170              		.loc 1 2123 0
 2171 0040 2246     		mov	r2, r4
 2172 0042 8249     		ldr	r1, .L160
 2173 0044 0920     		movs	r0, #9
 2174 0046 FFF7FEFF 		bl	Write_32bitSPI_DATA
 2175              	.LVL217:
2124:AS76.c        ****             Write_32bitSPI_DATA (0x0A  , (int) 0x00080400, Motor ); // Drive Config
 2176              		.loc 1 2124 0
 2177 004a 2246     		mov	r2, r4
 2178 004c 8049     		ldr	r1, .L160+4
 2179 004e 0A20     		movs	r0, #10
 2180 0050 FFF7FEFF 		bl	Write_32bitSPI_DATA
 2181              	.LVL218:
2125:AS76.c        ****             //Write_32bitSPI_DATA (0x0B  , (int) 0x00000000, Motor ); // Global Scaller (Global sca
2126:AS76.c        ****             // Current setting register Irun abd Ihold
2127:AS76.c        ****             if ( Motor == TMC5160_nCS_MotorZ)
 2182              		.loc 1 2127 0
 2183 0054 022C     		cmp	r4, #2
 2184 0056 0AD1     		bne	.L154
ARM GAS  C:\Users\Revanth\AppData\Local\Temp\ccHsQCvB.s 			page 81


2128:AS76.c        ****             {
2129:AS76.c        ****             Write_32bitSPI_DATA (0x0B  , (int) 0x00000000, Motor );
 2185              		.loc 1 2129 0
 2186 0058 2246     		mov	r2, r4
 2187 005a 0021     		movs	r1, #0
 2188 005c 0B20     		movs	r0, #11
 2189 005e FFF7FEFF 		bl	Write_32bitSPI_DATA
 2190              	.LVL219:
2130:AS76.c        ****             Write_32bitSPI_DATA (0x10  , (int) 0x00070301, Motor );
 2191              		.loc 1 2130 0
 2192 0062 2246     		mov	r2, r4
 2193 0064 7B49     		ldr	r1, .L160+8
 2194 0066 1020     		movs	r0, #16
 2195 0068 FFF7FEFF 		bl	Write_32bitSPI_DATA
 2196              	.LVL220:
 2197 006c 2FE0     		b	.L155
 2198              	.L154:
2131:AS76.c        ****             }
2132:AS76.c        ****             else if ( Motor == TMC5160_nCS_MotorX)
 2199              		.loc 1 2132 0
 2200 006e 54B9     		cbnz	r4, .L156
2133:AS76.c        ****             {
2134:AS76.c        ****             Write_32bitSPI_DATA (0x0B  , 90, Motor );
 2201              		.loc 1 2134 0
 2202 0070 2246     		mov	r2, r4
 2203 0072 5A21     		movs	r1, #90
 2204 0074 0B20     		movs	r0, #11
 2205 0076 FFF7FEFF 		bl	Write_32bitSPI_DATA
 2206              	.LVL221:
2135:AS76.c        ****             Write_32bitSPI_DATA (0x10  , (int) 0x00070101, Motor );
 2207              		.loc 1 2135 0
 2208 007a 2246     		mov	r2, r4
 2209 007c 7649     		ldr	r1, .L160+12
 2210 007e 1020     		movs	r0, #16
 2211 0080 FFF7FEFF 		bl	Write_32bitSPI_DATA
 2212              	.LVL222:
 2213 0084 23E0     		b	.L155
 2214              	.L156:
2136:AS76.c        ****             }
2137:AS76.c        ****             else if ( Motor == TMC5160_nCS_MotorY)
 2215              		.loc 1 2137 0
 2216 0086 012C     		cmp	r4, #1
 2217 0088 0AD1     		bne	.L157
2138:AS76.c        ****             {
2139:AS76.c        ****              Write_32bitSPI_DATA (0x0B  , (int) 127, Motor );
 2218              		.loc 1 2139 0
 2219 008a 2246     		mov	r2, r4
 2220 008c 7F21     		movs	r1, #127
 2221 008e 0B20     		movs	r0, #11
 2222 0090 FFF7FEFF 		bl	Write_32bitSPI_DATA
 2223              	.LVL223:
2140:AS76.c        ****              Write_32bitSPI_DATA (0x10  , (int) 0x00070101, Motor );
 2224              		.loc 1 2140 0
 2225 0094 2246     		mov	r2, r4
 2226 0096 7049     		ldr	r1, .L160+12
 2227 0098 1020     		movs	r0, #16
 2228 009a FFF7FEFF 		bl	Write_32bitSPI_DATA
ARM GAS  C:\Users\Revanth\AppData\Local\Temp\ccHsQCvB.s 			page 82


 2229              	.LVL224:
 2230 009e 16E0     		b	.L155
 2231              	.L157:
2141:AS76.c        ****             }
2142:AS76.c        ****             else if ( Motor == TMC5160_nCS_MotorO)
 2232              		.loc 1 2142 0
 2233 00a0 042C     		cmp	r4, #4
 2234 00a2 0AD1     		bne	.L158
2143:AS76.c        ****             {
2144:AS76.c        ****              Write_32bitSPI_DATA (0x0B  , (int) 210, Motor );
 2235              		.loc 1 2144 0
 2236 00a4 2246     		mov	r2, r4
 2237 00a6 D221     		movs	r1, #210
 2238 00a8 0B20     		movs	r0, #11
 2239 00aa FFF7FEFF 		bl	Write_32bitSPI_DATA
 2240              	.LVL225:
2145:AS76.c        ****              Write_32bitSPI_DATA (0x10  , (int) 0x00070100, Motor );
 2241              		.loc 1 2145 0
 2242 00ae 2246     		mov	r2, r4
 2243 00b0 6A49     		ldr	r1, .L160+16
 2244 00b2 1020     		movs	r0, #16
 2245 00b4 FFF7FEFF 		bl	Write_32bitSPI_DATA
 2246              	.LVL226:
 2247 00b8 09E0     		b	.L155
 2248              	.L158:
2146:AS76.c        ****             }
2147:AS76.c        ****             else
2148:AS76.c        ****             {
2149:AS76.c        ****              Write_32bitSPI_DATA (0x0B  , (int) 0x00000000, Motor );
 2249              		.loc 1 2149 0
 2250 00ba 2246     		mov	r2, r4
 2251 00bc 0021     		movs	r1, #0
 2252 00be 0B20     		movs	r0, #11
 2253 00c0 FFF7FEFF 		bl	Write_32bitSPI_DATA
 2254              	.LVL227:
2150:AS76.c        ****              Write_32bitSPI_DATA (0x10  , (int) 0x00070501, Motor );  
 2255              		.loc 1 2150 0
 2256 00c4 2246     		mov	r2, r4
 2257 00c6 6649     		ldr	r1, .L160+20
 2258 00c8 1020     		movs	r0, #16
 2259 00ca FFF7FEFF 		bl	Write_32bitSPI_DATA
 2260              	.LVL228:
 2261              	.L155:
2151:AS76.c        ****             }
2152:AS76.c        ****             Write_32bitSPI_DATA (0x11  , (int) 0x0000000A, Motor ); // TPOWERDOWN Register sets the
 2262              		.loc 1 2152 0
 2263 00ce 2246     		mov	r2, r4
 2264 00d0 0A21     		movs	r1, #10
 2265 00d2 1120     		movs	r0, #17
 2266 00d4 FFF7FEFF 		bl	Write_32bitSPI_DATA
 2267              	.LVL229:
2153:AS76.c        ****             Write_32bitSPI_DATA (0x13  , (int) 0x00000000, Motor );
 2268              		.loc 1 2153 0
 2269 00d8 2246     		mov	r2, r4
 2270 00da 0021     		movs	r1, #0
 2271 00dc 1320     		movs	r0, #19
 2272 00de FFF7FEFF 		bl	Write_32bitSPI_DATA
ARM GAS  C:\Users\Revanth\AppData\Local\Temp\ccHsQCvB.s 			page 83


 2273              	.LVL230:
2154:AS76.c        ****             Write_32bitSPI_DATA (0x14  , (int) 0x00000000, Motor );
 2274              		.loc 1 2154 0
 2275 00e2 2246     		mov	r2, r4
 2276 00e4 0021     		movs	r1, #0
 2277 00e6 1420     		movs	r0, #20
 2278 00e8 FFF7FEFF 		bl	Write_32bitSPI_DATA
 2279              	.LVL231:
2155:AS76.c        ****             Write_32bitSPI_DATA (0x15  , (int) 0x00000000, Motor );
 2280              		.loc 1 2155 0
 2281 00ec 2246     		mov	r2, r4
 2282 00ee 0021     		movs	r1, #0
 2283 00f0 1520     		movs	r0, #21
 2284 00f2 FFF7FEFF 		bl	Write_32bitSPI_DATA
 2285              	.LVL232:
2156:AS76.c        ****             
2157:AS76.c        ****             Write_32bitSPI_DATA (0x21  , (int) 0x00000000, Motor );
 2286              		.loc 1 2157 0
 2287 00f6 2246     		mov	r2, r4
 2288 00f8 0021     		movs	r1, #0
 2289 00fa 2120     		movs	r0, #33
 2290 00fc FFF7FEFF 		bl	Write_32bitSPI_DATA
 2291              	.LVL233:
2158:AS76.c        ****             Write_32bitSPI_DATA (0x23  , (int) 0x00000000, Motor );
 2292              		.loc 1 2158 0
 2293 0100 2246     		mov	r2, r4
 2294 0102 0021     		movs	r1, #0
 2295 0104 2320     		movs	r0, #35
 2296 0106 FFF7FEFF 		bl	Write_32bitSPI_DATA
 2297              	.LVL234:
2159:AS76.c        ****             
2160:AS76.c        ****             Write_32bitSPI_DATA (0x2C  , (int) 0x00000000, Motor );
 2298              		.loc 1 2160 0
 2299 010a 2246     		mov	r2, r4
 2300 010c 0021     		movs	r1, #0
 2301 010e 2C20     		movs	r0, #44
 2302 0110 FFF7FEFF 		bl	Write_32bitSPI_DATA
 2303              	.LVL235:
2161:AS76.c        ****             
2162:AS76.c        ****             Write_32bitSPI_DATA (0x33  , (int) 0x00000000, Motor );
 2304              		.loc 1 2162 0
 2305 0114 2246     		mov	r2, r4
 2306 0116 0021     		movs	r1, #0
 2307 0118 3320     		movs	r0, #51
 2308 011a FFF7FEFF 		bl	Write_32bitSPI_DATA
 2309              	.LVL236:
2163:AS76.c        ****             Write_32bitSPI_DATA (0x34  , (int) 0x000002AF, Motor );
 2310              		.loc 1 2163 0
 2311 011e 2246     		mov	r2, r4
 2312 0120 40F2AF21 		movw	r1, #687
 2313 0124 3420     		movs	r0, #52
 2314 0126 FFF7FEFF 		bl	Write_32bitSPI_DATA
 2315              	.LVL237:
2164:AS76.c        ****             Write_32bitSPI_DATA (0x38  , (int) 0x00000000, Motor );
 2316              		.loc 1 2164 0
 2317 012a 2246     		mov	r2, r4
 2318 012c 0021     		movs	r1, #0
ARM GAS  C:\Users\Revanth\AppData\Local\Temp\ccHsQCvB.s 			page 84


 2319 012e 3820     		movs	r0, #56
 2320 0130 FFF7FEFF 		bl	Write_32bitSPI_DATA
 2321              	.LVL238:
2165:AS76.c        ****             Write_32bitSPI_DATA (0x39  , (int) 0x00000000, Motor );
 2322              		.loc 1 2165 0
 2323 0134 2246     		mov	r2, r4
 2324 0136 0021     		movs	r1, #0
 2325 0138 3920     		movs	r0, #57
 2326 013a FFF7FEFF 		bl	Write_32bitSPI_DATA
 2327              	.LVL239:
2166:AS76.c        ****             Write_32bitSPI_DATA (0x3A  , (int) 0x00010000, Motor );
 2328              		.loc 1 2166 0
 2329 013e 2246     		mov	r2, r4
 2330 0140 4FF48031 		mov	r1, #65536
 2331 0144 3A20     		movs	r0, #58
 2332 0146 FFF7FEFF 		bl	Write_32bitSPI_DATA
 2333              	.LVL240:
2167:AS76.c        ****             Write_32bitSPI_DATA (0x3D  , (int) 0x00000000, Motor );
 2334              		.loc 1 2167 0
 2335 014a 2246     		mov	r2, r4
 2336 014c 0021     		movs	r1, #0
 2337 014e 3D20     		movs	r0, #61
 2338 0150 FFF7FEFF 		bl	Write_32bitSPI_DATA
 2339              	.LVL241:
2168:AS76.c        ****             Write_32bitSPI_DATA (0x60  , (int) 0xAAAAB554, Motor );
 2340              		.loc 1 2168 0
 2341 0154 2246     		mov	r2, r4
 2342 0156 4349     		ldr	r1, .L160+24
 2343 0158 6020     		movs	r0, #96
 2344 015a FFF7FEFF 		bl	Write_32bitSPI_DATA
 2345              	.LVL242:
2169:AS76.c        ****             Write_32bitSPI_DATA (0x61  , (int) 0x4A9554AA, Motor );
 2346              		.loc 1 2169 0
 2347 015e 2246     		mov	r2, r4
 2348 0160 4149     		ldr	r1, .L160+28
 2349 0162 6120     		movs	r0, #97
 2350 0164 FFF7FEFF 		bl	Write_32bitSPI_DATA
 2351              	.LVL243:
2170:AS76.c        ****             Write_32bitSPI_DATA (0x62  , (int) 0x24492929, Motor );
 2352              		.loc 1 2170 0
 2353 0168 2246     		mov	r2, r4
 2354 016a 4049     		ldr	r1, .L160+32
 2355 016c 6220     		movs	r0, #98
 2356 016e FFF7FEFF 		bl	Write_32bitSPI_DATA
 2357              	.LVL244:
2171:AS76.c        ****             Write_32bitSPI_DATA (0x63  , (int) 0x00000008, Motor );
 2358              		.loc 1 2171 0
 2359 0172 2246     		mov	r2, r4
 2360 0174 0821     		movs	r1, #8
 2361 0176 6320     		movs	r0, #99
 2362 0178 FFF7FEFF 		bl	Write_32bitSPI_DATA
 2363              	.LVL245:
2172:AS76.c        ****             Write_32bitSPI_DATA (0x64  , (int) 0xFBFFFFFF, Motor );
 2364              		.loc 1 2172 0
 2365 017c 2246     		mov	r2, r4
 2366 017e 6FF08061 		mvn	r1, #67108864
 2367 0182 6420     		movs	r0, #100
ARM GAS  C:\Users\Revanth\AppData\Local\Temp\ccHsQCvB.s 			page 85


 2368 0184 FFF7FEFF 		bl	Write_32bitSPI_DATA
 2369              	.LVL246:
2173:AS76.c        ****             Write_32bitSPI_DATA (0x65  , (int) 0xB5BB777D, Motor );
 2370              		.loc 1 2173 0
 2371 0188 2246     		mov	r2, r4
 2372 018a 3949     		ldr	r1, .L160+36
 2373 018c 6520     		movs	r0, #101
 2374 018e FFF7FEFF 		bl	Write_32bitSPI_DATA
 2375              	.LVL247:
2174:AS76.c        ****             Write_32bitSPI_DATA (0x66  , (int) 0x49295556, Motor );
 2376              		.loc 1 2174 0
 2377 0192 2246     		mov	r2, r4
 2378 0194 3749     		ldr	r1, .L160+40
 2379 0196 6620     		movs	r0, #102
 2380 0198 FFF7FEFF 		bl	Write_32bitSPI_DATA
 2381              	.LVL248:
2175:AS76.c        ****             Write_32bitSPI_DATA (0x67  , (int) 0x00404222, Motor );
 2382              		.loc 1 2175 0
 2383 019c 2246     		mov	r2, r4
 2384 019e 3649     		ldr	r1, .L160+44
 2385 01a0 6720     		movs	r0, #103
 2386 01a2 FFF7FEFF 		bl	Write_32bitSPI_DATA
 2387              	.LVL249:
2176:AS76.c        ****             Write_32bitSPI_DATA (0x68  , (int) 0xFFFF8056, Motor );
 2388              		.loc 1 2176 0
 2389 01a6 2246     		mov	r2, r4
 2390 01a8 3449     		ldr	r1, .L160+48
 2391 01aa 6820     		movs	r0, #104
 2392 01ac FFF7FEFF 		bl	Write_32bitSPI_DATA
 2393              	.LVL250:
2177:AS76.c        ****             Write_32bitSPI_DATA (0x69  , (int) 0x00F70000, Motor );
 2394              		.loc 1 2177 0
 2395 01b0 2246     		mov	r2, r4
 2396 01b2 4FF47701 		mov	r1, #16187392
 2397 01b6 6920     		movs	r0, #105
 2398 01b8 FFF7FEFF 		bl	Write_32bitSPI_DATA
 2399              	.LVL251:
2178:AS76.c        ****            
2179:AS76.c        ****             Write_32bitSPI_DATA (0x6C  , (int) 0x00410153, Motor ); 
 2400              		.loc 1 2179 0
 2401 01bc 2246     		mov	r2, r4
 2402 01be 3049     		ldr	r1, .L160+52
 2403 01c0 6C20     		movs	r0, #108
 2404 01c2 FFF7FEFF 		bl	Write_32bitSPI_DATA
 2405              	.LVL252:
2180:AS76.c        ****             Write_32bitSPI_DATA (0x6D  , (int) 0x00000000, Motor );
 2406              		.loc 1 2180 0
 2407 01c6 2246     		mov	r2, r4
 2408 01c8 0021     		movs	r1, #0
 2409 01ca 6D20     		movs	r0, #109
 2410 01cc FFF7FEFF 		bl	Write_32bitSPI_DATA
 2411              	.LVL253:
2181:AS76.c        **** 
2182:AS76.c        ****             Write_32bitSPI_DATA (0x6E  , (int) 0x00000000, Motor );
 2412              		.loc 1 2182 0
 2413 01d0 2246     		mov	r2, r4
 2414 01d2 0021     		movs	r1, #0
ARM GAS  C:\Users\Revanth\AppData\Local\Temp\ccHsQCvB.s 			page 86


 2415 01d4 6E20     		movs	r0, #110
 2416 01d6 FFF7FEFF 		bl	Write_32bitSPI_DATA
 2417              	.LVL254:
2183:AS76.c        ****             Write_32bitSPI_DATA (0x70  , (int) 0xC40C001E, Motor ); 
 2418              		.loc 1 2183 0
 2419 01da 2246     		mov	r2, r4
 2420 01dc 2949     		ldr	r1, .L160+56
 2421 01de 7020     		movs	r0, #112
 2422 01e0 FFF7FEFF 		bl	Write_32bitSPI_DATA
 2423              	.LVL255:
2184:AS76.c        ****             
2185:AS76.c        ****             Write_32bitSPI_DATA (0x21  , (int) 0x00000000, Motor );            
 2424              		.loc 1 2185 0
 2425 01e4 2246     		mov	r2, r4
 2426 01e6 0021     		movs	r1, #0
 2427 01e8 2120     		movs	r0, #33
 2428 01ea FFF7FEFF 		bl	Write_32bitSPI_DATA
 2429              	.LVL256:
2186:AS76.c        ****             Write_32bitSPI_DATA (0x24  , (int) 0x0000FFFF, Motor );
 2430              		.loc 1 2186 0
 2431 01ee 2246     		mov	r2, r4
 2432 01f0 4FF6FF71 		movw	r1, #65535
 2433 01f4 2420     		movs	r0, #36
 2434 01f6 FFF7FEFF 		bl	Write_32bitSPI_DATA
 2435              	.LVL257:
2187:AS76.c        ****             Write_32bitSPI_DATA (0x25  , (int) 0x0000FFFF, Motor );
 2436              		.loc 1 2187 0
 2437 01fa 2246     		mov	r2, r4
 2438 01fc 4FF6FF71 		movw	r1, #65535
 2439 0200 2520     		movs	r0, #37
 2440 0202 FFF7FEFF 		bl	Write_32bitSPI_DATA
 2441              	.LVL258:
2188:AS76.c        ****             Write_32bitSPI_DATA (0x26  , (int) 0x0000FFFF, Motor );
 2442              		.loc 1 2188 0
 2443 0206 2246     		mov	r2, r4
 2444 0208 4FF6FF71 		movw	r1, #65535
 2445 020c 2620     		movs	r0, #38
 2446 020e FFF7FEFF 		bl	Write_32bitSPI_DATA
 2447              	.LVL259:
2189:AS76.c        ****             Write_32bitSPI_DATA (0x27  , (int) 0x00000000, Motor );
 2448              		.loc 1 2189 0
 2449 0212 2246     		mov	r2, r4
 2450 0214 0021     		movs	r1, #0
 2451 0216 2720     		movs	r0, #39
 2452 0218 FFF7FEFF 		bl	Write_32bitSPI_DATA
 2453              	.LVL260:
2190:AS76.c        ****             Write_32bitSPI_DATA (0x28  , (int) 0x0000FFFF, Motor );
 2454              		.loc 1 2190 0
 2455 021c 2246     		mov	r2, r4
 2456 021e 4FF6FF71 		movw	r1, #65535
 2457 0222 2820     		movs	r0, #40
 2458 0224 FFF7FEFF 		bl	Write_32bitSPI_DATA
 2459              	.LVL261:
2191:AS76.c        ****             Write_32bitSPI_DATA (0x2A  , (int) 0x0000FFFF, Motor );
 2460              		.loc 1 2191 0
 2461 0228 2246     		mov	r2, r4
 2462 022a 4FF6FF71 		movw	r1, #65535
ARM GAS  C:\Users\Revanth\AppData\Local\Temp\ccHsQCvB.s 			page 87


 2463 022e 2A20     		movs	r0, #42
 2464 0230 FFF7FEFF 		bl	Write_32bitSPI_DATA
 2465              	.LVL262:
2192:AS76.c        ****             Write_32bitSPI_DATA (0x2B  , (int) 0x00000065, Motor );
 2466              		.loc 1 2192 0
 2467 0234 2246     		mov	r2, r4
 2468 0236 6521     		movs	r1, #101
 2469 0238 2B20     		movs	r0, #43
 2470 023a FFF7FEFF 		bl	Write_32bitSPI_DATA
 2471              	.LVL263:
2193:AS76.c        ****             Write_32bitSPI_DATA (0x20  , (int) 0x00000000, Motor );
 2472              		.loc 1 2193 0
 2473 023e 2246     		mov	r2, r4
 2474 0240 0021     		movs	r1, #0
 2475 0242 2020     		movs	r0, #32
 2476 0244 FFF7FEFF 		bl	Write_32bitSPI_DATA
 2477              	.LVL264:
 2478 0248 10BD     		pop	{r4, pc}
 2479              	.L161:
 2480 024a 00BF     		.align	2
 2481              	.L160:
 2482 024c 06060100 		.word	67078
 2483 0250 00040800 		.word	525312
 2484 0254 01030700 		.word	459521
 2485 0258 01010700 		.word	459009
 2486 025c 00010700 		.word	459008
 2487 0260 01050700 		.word	460033
 2488 0264 54B5AAAA 		.word	-1431653036
 2489 0268 AA54954A 		.word	1251300522
 2490 026c 29294924 		.word	608774441
 2491 0270 7D77BBB5 		.word	-1246005379
 2492 0274 56552949 		.word	1227445590
 2493 0278 22424000 		.word	4211234
 2494 027c 5680FFFF 		.word	-32682
 2495 0280 53014100 		.word	4260179
 2496 0284 1E000CC4 		.word	-1005846498
 2497              		.cfi_endproc
 2498              	.LFE105:
 2499              		.size	Initialize_Motor, .-Initialize_Motor
 2500              		.section	.text.IsPositionReached,"ax",%progbits
 2501              		.align	2
 2502              		.global	IsPositionReached
 2503              		.thumb
 2504              		.thumb_func
 2505              		.type	IsPositionReached, %function
 2506              	IsPositionReached:
 2507              	.LFB106:
2194:AS76.c        **** }
2195:AS76.c        **** 
2196:AS76.c        **** 
2197:AS76.c        **** 
2198:AS76.c        **** bool IsPositionReached (uint8_t Motor)
2199:AS76.c        **** {
 2508              		.loc 1 2199 0
 2509              		.cfi_startproc
 2510              		@ args = 0, pretend = 0, frame = 0
 2511              		@ frame_needed = 0, uses_anonymous_args = 0
ARM GAS  C:\Users\Revanth\AppData\Local\Temp\ccHsQCvB.s 			page 88


 2512              	.LVL265:
 2513 0000 38B5     		push	{r3, r4, r5, lr}
 2514              		.cfi_def_cfa_offset 16
 2515              		.cfi_offset 3, -16
 2516              		.cfi_offset 4, -12
 2517              		.cfi_offset 5, -8
 2518              		.cfi_offset 14, -4
 2519 0002 0546     		mov	r5, r0
2200:AS76.c        ****          bool status;
2201:AS76.c        ****          CyDelayUs(500);
 2520              		.loc 1 2201 0
 2521 0004 4FF4FA70 		mov	r0, #500
 2522              	.LVL266:
 2523 0008 FFF7FEFF 		bl	CyDelayUs
 2524              	.LVL267:
2202:AS76.c        ****          Read_32bitSPI_DATA(0x04, Motor, &status_x);
 2525              		.loc 1 2202 0
 2526 000c 0A4C     		ldr	r4, .L166
 2527 000e 2246     		mov	r2, r4
 2528 0010 2946     		mov	r1, r5
 2529 0012 0420     		movs	r0, #4
 2530 0014 FFF7FEFF 		bl	Read_32bitSPI_DATA
 2531              	.LVL268:
2203:AS76.c        ****          CyDelayUs(100);
 2532              		.loc 1 2203 0
 2533 0018 6420     		movs	r0, #100
 2534 001a FFF7FEFF 		bl	CyDelayUs
 2535              	.LVL269:
2204:AS76.c        ****          Read_32bitSPI_DATA(0x04, Motor, &status_x);
 2536              		.loc 1 2204 0
 2537 001e 2246     		mov	r2, r4
 2538 0020 2946     		mov	r1, r5
 2539 0022 0420     		movs	r0, #4
 2540 0024 FFF7FEFF 		bl	Read_32bitSPI_DATA
 2541              	.LVL270:
2205:AS76.c        ****          if ( (status_x & 0x20) == 0x00)
 2542              		.loc 1 2205 0
 2543 0028 2378     		ldrb	r3, [r4]	@ zero_extendqisi2
 2544 002a 13F0200F 		tst	r3, #32
 2545 002e 01D1     		bne	.L164
2206:AS76.c        ****             {
2207:AS76.c        ****                  status = false;
 2546              		.loc 1 2207 0
 2547 0030 0020     		movs	r0, #0
 2548 0032 38BD     		pop	{r3, r4, r5, pc}
 2549              	.L164:
2208:AS76.c        ****    
2209:AS76.c        ****             }
2210:AS76.c        ****          else
2211:AS76.c        ****             {
2212:AS76.c        ****                  status = true;
 2550              		.loc 1 2212 0
 2551 0034 0120     		movs	r0, #1
 2552              	.LVL271:
2213:AS76.c        ****             }
2214:AS76.c        ****             
2215:AS76.c        ****          return status;
ARM GAS  C:\Users\Revanth\AppData\Local\Temp\ccHsQCvB.s 			page 89


2216:AS76.c        **** }
 2553              		.loc 1 2216 0
 2554 0036 38BD     		pop	{r3, r4, r5, pc}
 2555              	.L167:
 2556              		.align	2
 2557              	.L166:
 2558 0038 00000000 		.word	status_x
 2559              		.cfi_endproc
 2560              	.LFE106:
 2561              		.size	IsPositionReached, .-IsPositionReached
 2562              		.section	.text.WaitTillPositionReached,"ax",%progbits
 2563              		.align	2
 2564              		.global	WaitTillPositionReached
 2565              		.thumb
 2566              		.thumb_func
 2567              		.type	WaitTillPositionReached, %function
 2568              	WaitTillPositionReached:
 2569              	.LFB107:
2217:AS76.c        **** 
2218:AS76.c        **** int WaitTillPositionReached (uint8_t Motor)
2219:AS76.c        **** {
 2570              		.loc 1 2219 0
 2571              		.cfi_startproc
 2572              		@ args = 0, pretend = 0, frame = 8
 2573              		@ frame_needed = 0, uses_anonymous_args = 0
 2574              	.LVL272:
 2575 0000 30B5     		push	{r4, r5, lr}
 2576              		.cfi_def_cfa_offset 12
 2577              		.cfi_offset 4, -12
 2578              		.cfi_offset 5, -8
 2579              		.cfi_offset 14, -4
 2580 0002 83B0     		sub	sp, sp, #12
 2581              		.cfi_def_cfa_offset 24
 2582 0004 0446     		mov	r4, r0
2220:AS76.c        ****          uint8_t wait_status = 0;
 2583              		.loc 1 2220 0
 2584 0006 02AD     		add	r5, sp, #8
 2585 0008 0023     		movs	r3, #0
 2586 000a 05F8013D 		strb	r3, [r5, #-1]!
 2587              	.LVL273:
2221:AS76.c        ****          int status = 0;
2222:AS76.c        ****          CyDelayUs(500);
 2588              		.loc 1 2222 0
 2589 000e 4FF4FA70 		mov	r0, #500
 2590              	.LVL274:
 2591 0012 FFF7FEFF 		bl	CyDelayUs
 2592              	.LVL275:
2223:AS76.c        ****          Read_32bitSPI_DATA(0x04, Motor, &wait_status);
 2593              		.loc 1 2223 0
 2594 0016 2A46     		mov	r2, r5
 2595 0018 2146     		mov	r1, r4
 2596 001a 0420     		movs	r0, #4
 2597 001c FFF7FEFF 		bl	Read_32bitSPI_DATA
 2598              	.LVL276:
2224:AS76.c        ****          CyDelayUs(100);
 2599              		.loc 1 2224 0
 2600 0020 6420     		movs	r0, #100
ARM GAS  C:\Users\Revanth\AppData\Local\Temp\ccHsQCvB.s 			page 90


 2601 0022 FFF7FEFF 		bl	CyDelayUs
 2602              	.LVL277:
2225:AS76.c        ****          Read_32bitSPI_DATA(0x04, Motor, &wait_status);
 2603              		.loc 1 2225 0
 2604 0026 2A46     		mov	r2, r5
 2605 0028 2146     		mov	r1, r4
 2606 002a 0420     		movs	r0, #4
 2607 002c FFF7FEFF 		bl	Read_32bitSPI_DATA
 2608              	.LVL278:
2226:AS76.c        ****          while ( (wait_status & 0x20) == 0x00)
 2609              		.loc 1 2226 0
 2610 0030 08E0     		b	.L169
 2611              	.L170:
2227:AS76.c        ****             {
2228:AS76.c        ****                  Read_32bitSPI_DATA(0x21, Motor,  &wait_status);                
 2612              		.loc 1 2228 0
 2613 0032 0DF10702 		add	r2, sp, #7
 2614 0036 2146     		mov	r1, r4
 2615 0038 2120     		movs	r0, #33
 2616 003a FFF7FEFF 		bl	Read_32bitSPI_DATA
 2617              	.LVL279:
2229:AS76.c        ****                  CyDelayUs(100);
 2618              		.loc 1 2229 0
 2619 003e 6420     		movs	r0, #100
 2620 0040 FFF7FEFF 		bl	CyDelayUs
 2621              	.LVL280:
 2622              	.L169:
2226:AS76.c        ****          while ( (wait_status & 0x20) == 0x00)
 2623              		.loc 1 2226 0
 2624 0044 9DF80730 		ldrb	r3, [sp, #7]	@ zero_extendqisi2
 2625 0048 13F0200F 		tst	r3, #32
 2626 004c F1D0     		beq	.L170
2230:AS76.c        ****                                 
2231:AS76.c        ****             }
2232:AS76.c        ****             
2233:AS76.c        ****          return status;
2234:AS76.c        **** }
 2627              		.loc 1 2234 0
 2628 004e 0020     		movs	r0, #0
 2629 0050 03B0     		add	sp, sp, #12
 2630              		.cfi_def_cfa_offset 12
 2631              		@ sp needed
 2632 0052 30BD     		pop	{r4, r5, pc}
 2633              		.cfi_endproc
 2634              	.LFE107:
 2635              		.size	WaitTillPositionReached, .-WaitTillPositionReached
 2636              		.section	.text.goTo_X,"ax",%progbits
 2637              		.align	2
 2638              		.global	goTo_X
 2639              		.thumb
 2640              		.thumb_func
 2641              		.type	goTo_X, %function
 2642              	goTo_X:
 2643              	.LFB70:
 604:AS76.c        ****       
 2644              		.loc 1 604 0
 2645              		.cfi_startproc
ARM GAS  C:\Users\Revanth\AppData\Local\Temp\ccHsQCvB.s 			page 91


 2646              		@ args = 0, pretend = 0, frame = 0
 2647              		@ frame_needed = 0, uses_anonymous_args = 0
 2648              	.LVL281:
 2649 0000 70B5     		push	{r4, r5, r6, lr}
 2650              		.cfi_def_cfa_offset 16
 2651              		.cfi_offset 4, -16
 2652              		.cfi_offset 5, -12
 2653              		.cfi_offset 6, -8
 2654              		.cfi_offset 14, -4
 2655 0002 0446     		mov	r4, r0
 606:AS76.c        ****     
 2656              		.loc 1 606 0
 2657 0004 FFF7FEFF 		bl	if_all_homing_done
 2658              	.LVL282:
 2659 0008 60B3     		cbz	r0, .L173
 609:AS76.c        ****         Write_32bitSPI_DATA (0x10  , (int) 0x00070102, TMC5160_nCS_MotorZ );
 2660              		.loc 1 609 0
 2661 000a 0122     		movs	r2, #1
 2662 000c 1949     		ldr	r1, .L176
 2663 000e 1020     		movs	r0, #16
 2664 0010 FFF7FEFF 		bl	Write_32bitSPI_DATA
 2665              	.LVL283:
 610:AS76.c        ****         Write_32bitSPI_DATA (0x10  , (int) 0x0007030A, TMC5160_nCS_MotorX );
 2666              		.loc 1 610 0
 2667 0014 0222     		movs	r2, #2
 2668 0016 1849     		ldr	r1, .L176+4
 2669 0018 1020     		movs	r0, #16
 2670 001a FFF7FEFF 		bl	Write_32bitSPI_DATA
 2671              	.LVL284:
 611:AS76.c        ****         //Position_X_Move = Position_X_Move + Position_X_Requested;
 2672              		.loc 1 611 0
 2673 001e 0022     		movs	r2, #0
 2674 0020 1649     		ldr	r1, .L176+8
 2675 0022 1020     		movs	r0, #16
 2676 0024 FFF7FEFF 		bl	Write_32bitSPI_DATA
 2677              	.LVL285:
 613:AS76.c        ****         Read_All_Optical_Encoder();
 2678              		.loc 1 613 0
 2679 0028 154D     		ldr	r5, .L176+12
 2680 002a 0026     		movs	r6, #0
 2681 002c AE62     		str	r6, [r5, #40]
 614:AS76.c        ****         //X_last_position = X_QuadPosition;
 2682              		.loc 1 614 0
 2683 002e FFF7FEFF 		bl	Read_All_Optical_Encoder
 2684              	.LVL286:
 616:AS76.c        ****         GotoPos(Position_X_Requested, TMC5160_nCS_MotorX); // If provided value is position and not
 2685              		.loc 1 616 0
 2686 0032 1448     		ldr	r0, .L176+16
 2687 0034 FFF7FEFF 		bl	Write_Debug_UART_Char
 2688              	.LVL287:
 617:AS76.c        ****         WaitTillPositionReached (TMC5160_nCS_MotorX);
 2689              		.loc 1 617 0
 2690 0038 3146     		mov	r1, r6
 2691 003a 2046     		mov	r0, r4
 2692 003c FFF7FEFF 		bl	GotoPos
 2693              	.LVL288:
 618:AS76.c        ****         CyDelayUs(50);
ARM GAS  C:\Users\Revanth\AppData\Local\Temp\ccHsQCvB.s 			page 92


 2694              		.loc 1 618 0
 2695 0040 3046     		mov	r0, r6
 2696 0042 FFF7FEFF 		bl	WaitTillPositionReached
 2697              	.LVL289:
 619:AS76.c        ****         //GotoPos(Position_X_Move, TMC5160_nCS_MotorX); // If provided value is steps to move and n
 2698              		.loc 1 619 0
 2699 0046 3220     		movs	r0, #50
 2700 0048 FFF7FEFF 		bl	CyDelayUs
 2701              	.LVL290:
 621:AS76.c        ****         Write_Debug_UART_Char("  \r\n");
 2702              		.loc 1 621 0
 2703 004c 2046     		mov	r0, r4
 2704 004e FFF7FEFF 		bl	Write_Debug_UART_Int
 2705              	.LVL291:
 622:AS76.c        ****         //Step_correction_x(Position_X_Requested);
 2706              		.loc 1 622 0
 2707 0052 0D48     		ldr	r0, .L176+20
 2708 0054 FFF7FEFF 		bl	Write_Debug_UART_Char
 2709              	.LVL292:
 624:AS76.c        ****         X_QuadPosition = Input_Position_X_Temp;
 2710              		.loc 1 624 0
 2711 0058 FFF7FEFF 		bl	Read_All_Optical_Encoder
 2712              	.LVL293:
 625:AS76.c        ****         return Error;
 2713              		.loc 1 625 0
 2714 005c 2B6A     		ldr	r3, [r5, #32]
 2715 005e AB60     		str	r3, [r5, #8]
 626:AS76.c        ****     }
 2716              		.loc 1 626 0
 2717 0060 A86A     		ldr	r0, [r5, #40]
 2718 0062 70BD     		pop	{r4, r5, r6, pc}
 2719              	.LVL294:
 2720              	.L173:
 630:AS76.c        ****         Error = 32;
 2721              		.loc 1 630 0
 2722 0064 0948     		ldr	r0, .L176+24
 2723 0066 FFF7FEFF 		bl	Write_Debug_UART_Char
 2724              	.LVL295:
 631:AS76.c        ****         return Error;
 2725              		.loc 1 631 0
 2726 006a 2020     		movs	r0, #32
 2727 006c 044B     		ldr	r3, .L176+12
 2728 006e 9862     		str	r0, [r3, #40]
 635:AS76.c        **** 
 2729              		.loc 1 635 0
 2730 0070 70BD     		pop	{r4, r5, r6, pc}
 2731              	.LVL296:
 2732              	.L177:
 2733 0072 00BF     		.align	2
 2734              	.L176:
 2735 0074 03010700 		.word	459011
 2736 0078 02010700 		.word	459010
 2737 007c 0A030700 		.word	459530
 2738 0080 00000000 		.word	.LANCHOR0
 2739 0084 94020000 		.word	.LC20
 2740 0088 B0020000 		.word	.LC21
 2741 008c B8020000 		.word	.LC22
ARM GAS  C:\Users\Revanth\AppData\Local\Temp\ccHsQCvB.s 			page 93


 2742              		.cfi_endproc
 2743              	.LFE70:
 2744              		.size	goTo_X, .-goTo_X
 2745              		.global	__aeabi_i2f
 2746              		.global	__aeabi_fdiv
 2747              		.global	__aeabi_f2iz
 2748              		.global	__aeabi_fmul
 2749              		.section	.text.Step_correction_x,"ax",%progbits
 2750              		.align	2
 2751              		.global	Step_correction_x
 2752              		.thumb
 2753              		.thumb_func
 2754              		.type	Step_correction_x, %function
 2755              	Step_correction_x:
 2756              	.LFB71:
 638:AS76.c        ****     int32 Encoder_Position_X_Requested =0;
 2757              		.loc 1 638 0
 2758              		.cfi_startproc
 2759              		@ args = 0, pretend = 0, frame = 0
 2760              		@ frame_needed = 0, uses_anonymous_args = 0
 2761              	.LVL297:
 2762 0000 F8B5     		push	{r3, r4, r5, r6, r7, lr}
 2763              		.cfi_def_cfa_offset 24
 2764              		.cfi_offset 3, -24
 2765              		.cfi_offset 4, -20
 2766              		.cfi_offset 5, -16
 2767              		.cfi_offset 6, -12
 2768              		.cfi_offset 7, -8
 2769              		.cfi_offset 14, -4
 2770 0002 0746     		mov	r7, r0
 2771              	.LVL298:
 644:AS76.c        ****     
 2772              		.loc 1 644 0
 2773 0004 FFF7FEFF 		bl	__aeabi_i2f
 2774              	.LVL299:
 2775 0008 364B     		ldr	r3, .L188
 2776 000a 596A     		ldr	r1, [r3, #36]	@ float
 2777 000c FFF7FEFF 		bl	__aeabi_fdiv
 2778              	.LVL300:
 2779 0010 FFF7FEFF 		bl	__aeabi_f2iz
 2780              	.LVL301:
 2781 0014 0646     		mov	r6, r0
 2782              	.LVL302:
 646:AS76.c        ****     {
 2783              		.loc 1 646 0
 2784 0016 0025     		movs	r5, #0
 2785 0018 29E0     		b	.L179
 2786              	.LVL303:
 2787              	.L183:
 648:AS76.c        ****     
 2788              		.loc 1 648 0
 2789 001a FFF7FEFF 		bl	Read_All_Optical_Encoder
 2790              	.LVL304:
 650:AS76.c        ****     if(encoder_error_value >= 2000)
 2791              		.loc 1 650 0
 2792 001e 324B     		ldr	r3, .L188+4
 2793 0020 9C68     		ldr	r4, [r3, #8]
ARM GAS  C:\Users\Revanth\AppData\Local\Temp\ccHsQCvB.s 			page 94


 2794 0022 341B     		subs	r4, r6, r4
 2795              	.LVL305:
 651:AS76.c        ****     {
 2796              		.loc 1 651 0
 2797 0024 B4F5FA6F 		cmp	r4, #2000
 2798 0028 02DB     		blt	.L180
 653:AS76.c        ****         return Error;
 2799              		.loc 1 653 0
 2800 002a 0220     		movs	r0, #2
 2801 002c 9862     		str	r0, [r3, #40]
 654:AS76.c        ****     }
 2802              		.loc 1 654 0
 2803 002e F8BD     		pop	{r3, r4, r5, r6, r7, pc}
 2804              	.LVL306:
 2805              	.L180:
 656:AS76.c        ****     
 2806              		.loc 1 656 0
 2807 0030 2046     		mov	r0, r4
 2808 0032 FFF7FEFF 		bl	__aeabi_i2f
 2809              	.LVL307:
 2810 0036 2B4B     		ldr	r3, .L188
 2811 0038 596A     		ldr	r1, [r3, #36]	@ float
 2812 003a FFF7FEFF 		bl	__aeabi_fmul
 2813              	.LVL308:
 2814 003e FFF7FEFF 		bl	__aeabi_f2iz
 2815              	.LVL309:
 659:AS76.c        ****     {
 2816              		.loc 1 659 0
 2817 0042 002C     		cmp	r4, #0
 2818 0044 B8BF     		it	lt
 2819 0046 6442     		rsblt	r4, r4, #0
 2820              	.LVL310:
 2821 0048 012C     		cmp	r4, #1
 2822 004a 0EDD     		ble	.L182
 2823              	.LVL311:
 662:AS76.c        ****       WaitTillPositionReached (TMC5160_nCS_MotorX);
 2824              		.loc 1 662 0
 2825 004c 0021     		movs	r1, #0
 2826 004e 3844     		add	r0, r0, r7
 2827              	.LVL312:
 2828 0050 FFF7FEFF 		bl	GotoPos
 2829              	.LVL313:
 663:AS76.c        ****       CyDelayUs(50);
 2830              		.loc 1 663 0
 2831 0054 0020     		movs	r0, #0
 2832 0056 FFF7FEFF 		bl	WaitTillPositionReached
 2833              	.LVL314:
 664:AS76.c        ****       Write_32bitSPI_DATA (0x21  , steps, TMC5160_nCS_MotorX );
 2834              		.loc 1 664 0
 2835 005a 3220     		movs	r0, #50
 2836 005c FFF7FEFF 		bl	CyDelayUs
 2837              	.LVL315:
 665:AS76.c        ****     }
 2838              		.loc 1 665 0
 2839 0060 0022     		movs	r2, #0
 2840 0062 3946     		mov	r1, r7
 2841 0064 2120     		movs	r0, #33
ARM GAS  C:\Users\Revanth\AppData\Local\Temp\ccHsQCvB.s 			page 95


 2842 0066 FFF7FEFF 		bl	Write_32bitSPI_DATA
 2843              	.LVL316:
 2844              	.L182:
 646:AS76.c        ****     {
 2845              		.loc 1 646 0 discriminator 2
 2846 006a 0135     		adds	r5, r5, #1
 2847              	.LVL317:
 2848 006c EDB2     		uxtb	r5, r5
 2849              	.LVL318:
 2850              	.L179:
 646:AS76.c        ****     {
 2851              		.loc 1 646 0 is_stmt 0 discriminator 1
 2852 006e 052D     		cmp	r5, #5
 2853 0070 D3D9     		bls	.L183
 668:AS76.c        ****     encoder_error_value = Encoder_Position_X_Requested - X_QuadPosition;
 2854              		.loc 1 668 0 is_stmt 1
 2855 0072 FFF7FEFF 		bl	Read_All_Optical_Encoder
 2856              	.LVL319:
 669:AS76.c        ****     if((temp>5))
 2857              		.loc 1 669 0
 2858 0076 1C4B     		ldr	r3, .L188+4
 2859 0078 9B68     		ldr	r3, [r3, #8]
 2860 007a F61A     		subs	r6, r6, r3
 2861              	.LVL320:
 670:AS76.c        ****     {
 2862              		.loc 1 670 0
 2863 007c 052D     		cmp	r5, #5
 2864 007e 2DD9     		bls	.L184
 672:AS76.c        ****      {
 2865              		.loc 1 672 0
 2866 0080 86EAE673 		eor	r3, r6, r6, asr #31
 2867 0084 A3EBE673 		sub	r3, r3, r6, asr #31
 2868 0088 012B     		cmp	r3, #1
 2869 008a 0FDD     		ble	.L185
 672:AS76.c        ****      {
 2870              		.loc 1 672 0 is_stmt 0 discriminator 1
 2871 008c 06F2CF76 		addw	r6, r6, #1999
 2872              	.LVL321:
 2873 0090 40F69E72 		movw	r2, #3998
 2874 0094 9642     		cmp	r6, r2
 2875 0096 09D8     		bhi	.L185
 674:AS76.c        ****         LED3_Write(0xFF);
 2876              		.loc 1 674 0 is_stmt 1
 2877 0098 1448     		ldr	r0, .L188+8
 2878 009a FFF7FEFF 		bl	Write_Debug_UART_Char
 2879              	.LVL322:
 675:AS76.c        ****         Error=  1;
 2880              		.loc 1 675 0
 2881 009e FF20     		movs	r0, #255
 2882 00a0 FFF7FEFF 		bl	LED3_Write
 2883              	.LVL323:
 676:AS76.c        ****      }
 2884              		.loc 1 676 0
 2885 00a4 0122     		movs	r2, #1
 2886 00a6 104B     		ldr	r3, .L188+4
 2887 00a8 9A62     		str	r2, [r3, #40]
 2888 00aa 17E0     		b	.L184
ARM GAS  C:\Users\Revanth\AppData\Local\Temp\ccHsQCvB.s 			page 96


 2889              	.LVL324:
 2890              	.L185:
 679:AS76.c        ****      {
 2891              		.loc 1 679 0
 2892 00ac B3F5FA6F 		cmp	r3, #2000
 2893 00b0 06DD     		ble	.L186
 681:AS76.c        ****        Error=  2;
 2894              		.loc 1 681 0
 2895 00b2 0F48     		ldr	r0, .L188+12
 2896 00b4 FFF7FEFF 		bl	Write_Debug_UART_Char
 2897              	.LVL325:
 682:AS76.c        ****      }
 2898              		.loc 1 682 0
 2899 00b8 0222     		movs	r2, #2
 2900 00ba 0B4B     		ldr	r3, .L188+4
 2901 00bc 9A62     		str	r2, [r3, #40]
 2902 00be 0DE0     		b	.L184
 2903              	.L186:
 687:AS76.c        ****         Error = 0;
 2904              		.loc 1 687 0
 2905 00c0 0C48     		ldr	r0, .L188+16
 2906 00c2 FFF7FEFF 		bl	Write_Debug_UART_Char
 2907              	.LVL326:
 688:AS76.c        ****         Write_32bitSPI_DATA (0x21  , steps, TMC5160_nCS_MotorX );
 2908              		.loc 1 688 0
 2909 00c6 0022     		movs	r2, #0
 2910 00c8 074B     		ldr	r3, .L188+4
 2911 00ca 9A62     		str	r2, [r3, #40]
 689:AS76.c        ****         CyDelayUs(500);
 2912              		.loc 1 689 0
 2913 00cc 3946     		mov	r1, r7
 2914 00ce 2120     		movs	r0, #33
 2915 00d0 FFF7FEFF 		bl	Write_32bitSPI_DATA
 2916              	.LVL327:
 690:AS76.c        ****         
 2917              		.loc 1 690 0
 2918 00d4 4FF4FA70 		mov	r0, #500
 2919 00d8 FFF7FEFF 		bl	CyDelayUs
 2920              	.LVL328:
 2921              	.L184:
 696:AS76.c        **** }
 2922              		.loc 1 696 0
 2923 00dc 024B     		ldr	r3, .L188+4
 2924 00de 986A     		ldr	r0, [r3, #40]
 697:AS76.c        **** 
 2925              		.loc 1 697 0
 2926 00e0 F8BD     		pop	{r3, r4, r5, r6, r7, pc}
 2927              	.LVL329:
 2928              	.L189:
 2929 00e2 00BF     		.align	2
 2930              	.L188:
 2931 00e4 00000000 		.word	.LANCHOR1
 2932 00e8 00000000 		.word	.LANCHOR0
 2933 00ec C8020000 		.word	.LC23
 2934 00f0 E4020000 		.word	.LC24
 2935 00f4 14030000 		.word	.LC25
 2936              		.cfi_endproc
ARM GAS  C:\Users\Revanth\AppData\Local\Temp\ccHsQCvB.s 			page 97


 2937              	.LFE71:
 2938              		.size	Step_correction_x, .-Step_correction_x
 2939              		.section	.text.Step_correction_y,"ax",%progbits
 2940              		.align	2
 2941              		.global	Step_correction_y
 2942              		.thumb
 2943              		.thumb_func
 2944              		.type	Step_correction_y, %function
 2945              	Step_correction_y:
 2946              	.LFB73:
 733:AS76.c        ****     uint8_t temp=0;
 2947              		.loc 1 733 0
 2948              		.cfi_startproc
 2949              		@ args = 0, pretend = 0, frame = 0
 2950              		@ frame_needed = 0, uses_anonymous_args = 0
 2951              	.LVL330:
 2952 0000 F8B5     		push	{r3, r4, r5, r6, r7, lr}
 2953              		.cfi_def_cfa_offset 24
 2954              		.cfi_offset 3, -24
 2955              		.cfi_offset 4, -20
 2956              		.cfi_offset 5, -16
 2957              		.cfi_offset 6, -12
 2958              		.cfi_offset 7, -8
 2959              		.cfi_offset 14, -4
 2960 0002 0746     		mov	r7, r0
 2961              	.LVL331:
 739:AS76.c        ****     
 2962              		.loc 1 739 0
 2963 0004 FFF7FEFF 		bl	__aeabi_i2d
 2964              	.LVL332:
 2965 0008 33A3     		adr	r3, .L200
 2966 000a D3E90023 		ldrd	r2, [r3]
 2967 000e FFF7FEFF 		bl	__aeabi_ddiv
 2968              	.LVL333:
 2969 0012 FFF7FEFF 		bl	__aeabi_d2iz
 2970              	.LVL334:
 2971 0016 0646     		mov	r6, r0
 2972              	.LVL335:
 741:AS76.c        ****     {
 2973              		.loc 1 741 0
 2974 0018 0025     		movs	r5, #0
 2975 001a 2BE0     		b	.L191
 2976              	.LVL336:
 2977              	.L195:
 743:AS76.c        ****     //diff_encoder_value = (X_QuadPosition - X_last_position);
 2978              		.loc 1 743 0
 2979 001c FFF7FEFF 		bl	Read_All_Optical_Encoder
 2980              	.LVL337:
 745:AS76.c        ****     new_step= encoder_error_value*12.8;
 2981              		.loc 1 745 0
 2982 0020 2F4B     		ldr	r3, .L200+8
 2983 0022 DC68     		ldr	r4, [r3, #12]
 2984 0024 341B     		subs	r4, r6, r4
 2985              	.LVL338:
 746:AS76.c        ****     if(encoder_error_value >= 4000)
 2986              		.loc 1 746 0
 2987 0026 2046     		mov	r0, r4
ARM GAS  C:\Users\Revanth\AppData\Local\Temp\ccHsQCvB.s 			page 98


 2988 0028 FFF7FEFF 		bl	__aeabi_i2d
 2989              	.LVL339:
 2990 002c 2AA3     		adr	r3, .L200
 2991 002e D3E90023 		ldrd	r2, [r3]
 2992 0032 FFF7FEFF 		bl	__aeabi_dmul
 2993              	.LVL340:
 2994 0036 FFF7FEFF 		bl	__aeabi_d2iz
 2995              	.LVL341:
 747:AS76.c        ****     {
 2996              		.loc 1 747 0
 2997 003a B4F57A6F 		cmp	r4, #4000
 2998 003e 03DB     		blt	.L192
 749:AS76.c        ****         break;
 2999              		.loc 1 749 0
 3000 0040 0922     		movs	r2, #9
 3001 0042 274B     		ldr	r3, .L200+8
 3002 0044 9A62     		str	r2, [r3, #40]
 750:AS76.c        ****     }
 3003              		.loc 1 750 0
 3004 0046 17E0     		b	.L193
 3005              	.L192:
 752:AS76.c        ****     {
 3006              		.loc 1 752 0
 3007 0048 002C     		cmp	r4, #0
 3008 004a B8BF     		it	lt
 3009 004c 6442     		rsblt	r4, r4, #0
 3010              	.LVL342:
 3011 004e 022C     		cmp	r4, #2
 3012 0050 0EDD     		ble	.L194
 3013              	.LVL343:
 755:AS76.c        ****       WaitTillPositionReached (TMC5160_nCS_MotorY);
 3014              		.loc 1 755 0
 3015 0052 0121     		movs	r1, #1
 3016 0054 3844     		add	r0, r0, r7
 3017              	.LVL344:
 3018 0056 FFF7FEFF 		bl	GotoPos
 3019              	.LVL345:
 756:AS76.c        ****       CyDelayUs(50);
 3020              		.loc 1 756 0
 3021 005a 0120     		movs	r0, #1
 3022 005c FFF7FEFF 		bl	WaitTillPositionReached
 3023              	.LVL346:
 757:AS76.c        ****       Write_32bitSPI_DATA (0x21  , steps, TMC5160_nCS_MotorY );
 3024              		.loc 1 757 0
 3025 0060 3220     		movs	r0, #50
 3026 0062 FFF7FEFF 		bl	CyDelayUs
 3027              	.LVL347:
 758:AS76.c        ****     }
 3028              		.loc 1 758 0
 3029 0066 0122     		movs	r2, #1
 3030 0068 3946     		mov	r1, r7
 3031 006a 2120     		movs	r0, #33
 3032 006c FFF7FEFF 		bl	Write_32bitSPI_DATA
 3033              	.LVL348:
 3034              	.L194:
 741:AS76.c        ****     {
 3035              		.loc 1 741 0 discriminator 2
ARM GAS  C:\Users\Revanth\AppData\Local\Temp\ccHsQCvB.s 			page 99


 3036 0070 0135     		adds	r5, r5, #1
 3037              	.LVL349:
 3038 0072 EDB2     		uxtb	r5, r5
 3039              	.LVL350:
 3040              	.L191:
 741:AS76.c        ****     {
 3041              		.loc 1 741 0 is_stmt 0 discriminator 1
 3042 0074 032D     		cmp	r5, #3
 3043 0076 D1D9     		bls	.L195
 3044              	.L193:
 764:AS76.c        ****     encoder_error_value = Encoder_Position_Y_Requested - Y_QuadPosition;
 3045              		.loc 1 764 0 is_stmt 1
 3046 0078 FFF7FEFF 		bl	Read_All_Optical_Encoder
 3047              	.LVL351:
 765:AS76.c        ****     
 3048              		.loc 1 765 0
 3049 007c 184B     		ldr	r3, .L200+8
 3050 007e D868     		ldr	r0, [r3, #12]
 3051 0080 301A     		subs	r0, r6, r0
 3052              	.LVL352:
 767:AS76.c        ****     {
 3053              		.loc 1 767 0
 3054 0082 032D     		cmp	r5, #3
 3055 0084 25D9     		bls	.L196
 769:AS76.c        ****      {
 3056              		.loc 1 769 0
 3057 0086 80EAE073 		eor	r3, r0, r0, asr #31
 3058 008a A3EBE073 		sub	r3, r3, r0, asr #31
 3059 008e 022B     		cmp	r3, #2
 3060 0090 0FDD     		ble	.L197
 769:AS76.c        ****      {
 3061              		.loc 1 769 0 is_stmt 0 discriminator 1
 3062 0092 00F2CF70 		addw	r0, r0, #1999
 3063              	.LVL353:
 3064 0096 40F69E72 		movw	r2, #3998
 3065 009a 9042     		cmp	r0, r2
 3066 009c 09D8     		bhi	.L197
 771:AS76.c        ****         LED3_Write(0xFF);
 3067              		.loc 1 771 0 is_stmt 1
 3068 009e 1148     		ldr	r0, .L200+12
 3069              	.LVL354:
 3070 00a0 FFF7FEFF 		bl	Write_Debug_UART_Char
 3071              	.LVL355:
 772:AS76.c        ****         Error=  8;
 3072              		.loc 1 772 0
 3073 00a4 FF20     		movs	r0, #255
 3074 00a6 FFF7FEFF 		bl	LED3_Write
 3075              	.LVL356:
 773:AS76.c        ****      }
 3076              		.loc 1 773 0
 3077 00aa 0822     		movs	r2, #8
 3078 00ac 0C4B     		ldr	r3, .L200+8
 3079 00ae 9A62     		str	r2, [r3, #40]
 3080 00b0 0FE0     		b	.L196
 3081              	.L197:
 776:AS76.c        ****      {
 3082              		.loc 1 776 0
ARM GAS  C:\Users\Revanth\AppData\Local\Temp\ccHsQCvB.s 			page 100


 3083 00b2 B3F5FA6F 		cmp	r3, #2000
 3084 00b6 06DD     		ble	.L198
 778:AS76.c        ****        Error=  9;
 3085              		.loc 1 778 0
 3086 00b8 0B48     		ldr	r0, .L200+16
 3087 00ba FFF7FEFF 		bl	Write_Debug_UART_Char
 3088              	.LVL357:
 779:AS76.c        ****      }
 3089              		.loc 1 779 0
 3090 00be 0922     		movs	r2, #9
 3091 00c0 074B     		ldr	r3, .L200+8
 3092 00c2 9A62     		str	r2, [r3, #40]
 3093 00c4 05E0     		b	.L196
 3094              	.L198:
 784:AS76.c        ****         Error = 0;
 3095              		.loc 1 784 0
 3096 00c6 0948     		ldr	r0, .L200+20
 3097 00c8 FFF7FEFF 		bl	Write_Debug_UART_Char
 3098              	.LVL358:
 785:AS76.c        ****         
 3099              		.loc 1 785 0
 3100 00cc 0022     		movs	r2, #0
 3101 00ce 044B     		ldr	r3, .L200+8
 3102 00d0 9A62     		str	r2, [r3, #40]
 3103              	.L196:
 792:AS76.c        **** 
 3104              		.loc 1 792 0
 3105 00d2 034B     		ldr	r3, .L200+8
 3106 00d4 986A     		ldr	r0, [r3, #40]
 3107 00d6 F8BD     		pop	{r3, r4, r5, r6, r7, pc}
 3108              	.LVL359:
 3109              	.L201:
 3110              		.align	3
 3111              	.L200:
 3112 00d8 9A999999 		.word	-1717986918
 3113 00dc 99992940 		.word	1076468121
 3114 00e0 00000000 		.word	.LANCHOR0
 3115 00e4 28030000 		.word	.LC26
 3116 00e8 44030000 		.word	.LC27
 3117 00ec 74030000 		.word	.LC28
 3118              		.cfi_endproc
 3119              	.LFE73:
 3120              		.size	Step_correction_y, .-Step_correction_y
 3121              		.section	.text.goTo_Y,"ax",%progbits
 3122              		.align	2
 3123              		.global	goTo_Y
 3124              		.thumb
 3125              		.thumb_func
 3126              		.type	goTo_Y, %function
 3127              	goTo_Y:
 3128              	.LFB72:
 703:AS76.c        ****     if(if_all_homing_done())
 3129              		.loc 1 703 0
 3130              		.cfi_startproc
 3131              		@ args = 0, pretend = 0, frame = 0
 3132              		@ frame_needed = 0, uses_anonymous_args = 0
 3133              	.LVL360:
ARM GAS  C:\Users\Revanth\AppData\Local\Temp\ccHsQCvB.s 			page 101


 3134 0000 38B5     		push	{r3, r4, r5, lr}
 3135              		.cfi_def_cfa_offset 16
 3136              		.cfi_offset 3, -16
 3137              		.cfi_offset 4, -12
 3138              		.cfi_offset 5, -8
 3139              		.cfi_offset 14, -4
 3140 0002 0446     		mov	r4, r0
 704:AS76.c        ****     {
 3141              		.loc 1 704 0
 3142 0004 FFF7FEFF 		bl	if_all_homing_done
 3143              	.LVL361:
 3144 0008 58B3     		cbz	r0, .L203
 706:AS76.c        ****         Write_32bitSPI_DATA (0x10  , (int) 0x00070102, TMC5160_nCS_MotorZ );
 3145              		.loc 1 706 0
 3146 000a 0022     		movs	r2, #0
 3147 000c 1849     		ldr	r1, .L206
 3148 000e 1020     		movs	r0, #16
 3149 0010 FFF7FEFF 		bl	Write_32bitSPI_DATA
 3150              	.LVL362:
 707:AS76.c        ****         Write_32bitSPI_DATA (0x10  , (int) 0x0007010A, TMC5160_nCS_MotorY );
 3151              		.loc 1 707 0
 3152 0014 0222     		movs	r2, #2
 3153 0016 1749     		ldr	r1, .L206+4
 3154 0018 1020     		movs	r0, #16
 3155 001a FFF7FEFF 		bl	Write_32bitSPI_DATA
 3156              	.LVL363:
 708:AS76.c        ****         
 3157              		.loc 1 708 0
 3158 001e 0122     		movs	r2, #1
 3159 0020 1549     		ldr	r1, .L206+8
 3160 0022 1020     		movs	r0, #16
 3161 0024 FFF7FEFF 		bl	Write_32bitSPI_DATA
 3162              	.LVL364:
 711:AS76.c        ****         Read_All_Optical_Encoder();
 3163              		.loc 1 711 0
 3164 0028 144D     		ldr	r5, .L206+12
 3165 002a 0023     		movs	r3, #0
 3166 002c AB62     		str	r3, [r5, #40]
 712:AS76.c        ****         //Y_last_position = Y_QuadPosition;
 3167              		.loc 1 712 0
 3168 002e FFF7FEFF 		bl	Read_All_Optical_Encoder
 3169              	.LVL365:
 714:AS76.c        ****         GotoPos(Position_Y_Requested, TMC5160_nCS_MotorY); // If provided value is position and not
 3170              		.loc 1 714 0
 3171 0032 1348     		ldr	r0, .L206+16
 3172 0034 FFF7FEFF 		bl	Write_Debug_UART_Char
 3173              	.LVL366:
 715:AS76.c        ****         WaitTillPositionReached (TMC5160_nCS_MotorY);
 3174              		.loc 1 715 0
 3175 0038 0121     		movs	r1, #1
 3176 003a 2046     		mov	r0, r4
 3177 003c FFF7FEFF 		bl	GotoPos
 3178              	.LVL367:
 716:AS76.c        ****         CyDelayUs(50);
 3179              		.loc 1 716 0
 3180 0040 0120     		movs	r0, #1
 3181 0042 FFF7FEFF 		bl	WaitTillPositionReached
ARM GAS  C:\Users\Revanth\AppData\Local\Temp\ccHsQCvB.s 			page 102


 3182              	.LVL368:
 717:AS76.c        ****         //GotoPos(Position_X_Move, TMC5160_nCS_MotorX); // If provided value is steps to move and n
 3183              		.loc 1 717 0
 3184 0046 3220     		movs	r0, #50
 3185 0048 FFF7FEFF 		bl	CyDelayUs
 3186              	.LVL369:
 719:AS76.c        ****         Write_Debug_UART_Char("  \r\n");
 3187              		.loc 1 719 0
 3188 004c 2046     		mov	r0, r4
 3189 004e FFF7FEFF 		bl	Write_Debug_UART_Int
 3190              	.LVL370:
 720:AS76.c        ****         Step_correction_y(Position_Y_Requested);
 3191              		.loc 1 720 0
 3192 0052 0C48     		ldr	r0, .L206+20
 3193 0054 FFF7FEFF 		bl	Write_Debug_UART_Char
 3194              	.LVL371:
 721:AS76.c        ****         return Error;
 3195              		.loc 1 721 0
 3196 0058 2046     		mov	r0, r4
 3197 005a FFF7FEFF 		bl	Step_correction_y
 3198              	.LVL372:
 722:AS76.c        ****     }
 3199              		.loc 1 722 0
 3200 005e A86A     		ldr	r0, [r5, #40]
 3201 0060 38BD     		pop	{r3, r4, r5, pc}
 3202              	.LVL373:
 3203              	.L203:
 726:AS76.c        ****         Error = 32;
 3204              		.loc 1 726 0
 3205 0062 0948     		ldr	r0, .L206+24
 3206 0064 FFF7FEFF 		bl	Write_Debug_UART_Char
 3207              	.LVL374:
 727:AS76.c        ****         return Error;
 3208              		.loc 1 727 0
 3209 0068 2020     		movs	r0, #32
 3210 006a 044B     		ldr	r3, .L206+12
 3211 006c 9862     		str	r0, [r3, #40]
 730:AS76.c        **** 
 3212              		.loc 1 730 0
 3213 006e 38BD     		pop	{r3, r4, r5, pc}
 3214              	.LVL375:
 3215              	.L207:
 3216              		.align	2
 3217              	.L206:
 3218 0070 03010700 		.word	459011
 3219 0074 02010700 		.word	459010
 3220 0078 0A010700 		.word	459018
 3221 007c 00000000 		.word	.LANCHOR0
 3222 0080 94020000 		.word	.LC20
 3223 0084 B0020000 		.word	.LC21
 3224 0088 B8020000 		.word	.LC22
 3225              		.cfi_endproc
 3226              	.LFE72:
 3227              		.size	goTo_Y, .-goTo_Y
 3228              		.section	.text.Step_correction_z,"ax",%progbits
 3229              		.align	2
 3230              		.global	Step_correction_z
ARM GAS  C:\Users\Revanth\AppData\Local\Temp\ccHsQCvB.s 			page 103


 3231              		.thumb
 3232              		.thumb_func
 3233              		.type	Step_correction_z, %function
 3234              	Step_correction_z:
 3235              	.LFB75:
 832:AS76.c        ****     uint8_t temp=0;
 3236              		.loc 1 832 0
 3237              		.cfi_startproc
 3238              		@ args = 0, pretend = 0, frame = 0
 3239              		@ frame_needed = 0, uses_anonymous_args = 0
 3240              	.LVL376:
 3241 0000 F8B5     		push	{r3, r4, r5, r6, r7, lr}
 3242              		.cfi_def_cfa_offset 24
 3243              		.cfi_offset 3, -24
 3244              		.cfi_offset 4, -20
 3245              		.cfi_offset 5, -16
 3246              		.cfi_offset 6, -12
 3247              		.cfi_offset 7, -8
 3248              		.cfi_offset 14, -4
 3249 0002 0746     		mov	r7, r0
 3250              	.LVL377:
 838:AS76.c        ****     
 3251              		.loc 1 838 0
 3252 0004 FFF7FEFF 		bl	__aeabi_i2d
 3253              	.LVL378:
 3254 0008 33A3     		adr	r3, .L218
 3255 000a D3E90023 		ldrd	r2, [r3]
 3256 000e FFF7FEFF 		bl	__aeabi_ddiv
 3257              	.LVL379:
 3258 0012 FFF7FEFF 		bl	__aeabi_d2iz
 3259              	.LVL380:
 3260 0016 0646     		mov	r6, r0
 3261              	.LVL381:
 840:AS76.c        ****     {
 3262              		.loc 1 840 0
 3263 0018 0025     		movs	r5, #0
 3264 001a 2BE0     		b	.L209
 3265              	.LVL382:
 3266              	.L213:
 843:AS76.c        ****     //diff_encoder_value = (X_QuadPosition - X_last_position);
 3267              		.loc 1 843 0
 3268 001c FFF7FEFF 		bl	Read_All_Optical_Encoder
 3269              	.LVL383:
 845:AS76.c        ****     new_step= encoder_error_value*3.2;
 3270              		.loc 1 845 0
 3271 0020 2F4B     		ldr	r3, .L218+8
 3272 0022 1C69     		ldr	r4, [r3, #16]
 3273 0024 341B     		subs	r4, r6, r4
 3274              	.LVL384:
 846:AS76.c        ****     if(encoder_error_value >= 4000)
 3275              		.loc 1 846 0
 3276 0026 2046     		mov	r0, r4
 3277 0028 FFF7FEFF 		bl	__aeabi_i2d
 3278              	.LVL385:
 3279 002c 2AA3     		adr	r3, .L218
 3280 002e D3E90023 		ldrd	r2, [r3]
 3281 0032 FFF7FEFF 		bl	__aeabi_dmul
ARM GAS  C:\Users\Revanth\AppData\Local\Temp\ccHsQCvB.s 			page 104


 3282              	.LVL386:
 3283 0036 FFF7FEFF 		bl	__aeabi_d2iz
 3284              	.LVL387:
 847:AS76.c        ****     {
 3285              		.loc 1 847 0
 3286 003a B4F57A6F 		cmp	r4, #4000
 3287 003e 03DB     		blt	.L210
 849:AS76.c        ****         break;
 3288              		.loc 1 849 0
 3289 0040 1022     		movs	r2, #16
 3290 0042 274B     		ldr	r3, .L218+8
 3291 0044 9A62     		str	r2, [r3, #40]
 850:AS76.c        ****     }
 3292              		.loc 1 850 0
 3293 0046 17E0     		b	.L211
 3294              	.L210:
 852:AS76.c        ****     {
 3295              		.loc 1 852 0
 3296 0048 002C     		cmp	r4, #0
 3297 004a B8BF     		it	lt
 3298 004c 6442     		rsblt	r4, r4, #0
 3299              	.LVL388:
 3300 004e 022C     		cmp	r4, #2
 3301 0050 0EDD     		ble	.L212
 3302              	.LVL389:
 855:AS76.c        ****       WaitTillPositionReached (TMC5160_nCS_MotorZ);
 3303              		.loc 1 855 0
 3304 0052 0221     		movs	r1, #2
 3305 0054 3844     		add	r0, r0, r7
 3306              	.LVL390:
 3307 0056 FFF7FEFF 		bl	GotoPos
 3308              	.LVL391:
 856:AS76.c        ****       CyDelayUs(50);
 3309              		.loc 1 856 0
 3310 005a 0220     		movs	r0, #2
 3311 005c FFF7FEFF 		bl	WaitTillPositionReached
 3312              	.LVL392:
 857:AS76.c        ****       Write_32bitSPI_DATA (0x21  , steps, TMC5160_nCS_MotorZ );
 3313              		.loc 1 857 0
 3314 0060 3220     		movs	r0, #50
 3315 0062 FFF7FEFF 		bl	CyDelayUs
 3316              	.LVL393:
 858:AS76.c        ****     }
 3317              		.loc 1 858 0
 3318 0066 0222     		movs	r2, #2
 3319 0068 3946     		mov	r1, r7
 3320 006a 2120     		movs	r0, #33
 3321 006c FFF7FEFF 		bl	Write_32bitSPI_DATA
 3322              	.LVL394:
 3323              	.L212:
 840:AS76.c        ****     {
 3324              		.loc 1 840 0 discriminator 2
 3325 0070 0135     		adds	r5, r5, #1
 3326              	.LVL395:
 3327 0072 EDB2     		uxtb	r5, r5
 3328              	.LVL396:
 3329              	.L209:
ARM GAS  C:\Users\Revanth\AppData\Local\Temp\ccHsQCvB.s 			page 105


 840:AS76.c        ****     {
 3330              		.loc 1 840 0 is_stmt 0 discriminator 1
 3331 0074 052D     		cmp	r5, #5
 3332 0076 D1D9     		bls	.L213
 3333              	.L211:
 864:AS76.c        ****     encoder_error_value = Encoder_Position_Z_Requested - Z_QuadPosition;
 3334              		.loc 1 864 0 is_stmt 1
 3335 0078 FFF7FEFF 		bl	Read_All_Optical_Encoder
 3336              	.LVL397:
 865:AS76.c        ****     
 3337              		.loc 1 865 0
 3338 007c 184B     		ldr	r3, .L218+8
 3339 007e 1869     		ldr	r0, [r3, #16]
 3340 0080 301A     		subs	r0, r6, r0
 3341              	.LVL398:
 867:AS76.c        ****     {
 3342              		.loc 1 867 0
 3343 0082 032D     		cmp	r5, #3
 3344 0084 25D9     		bls	.L214
 869:AS76.c        ****      {
 3345              		.loc 1 869 0
 3346 0086 80EAE073 		eor	r3, r0, r0, asr #31
 3347 008a A3EBE073 		sub	r3, r3, r0, asr #31
 3348 008e 042B     		cmp	r3, #4
 3349 0090 0FDD     		ble	.L215
 869:AS76.c        ****      {
 3350              		.loc 1 869 0 is_stmt 0 discriminator 1
 3351 0092 00F69F70 		addw	r0, r0, #3999
 3352              	.LVL399:
 3353 0096 41F63E72 		movw	r2, #7998
 3354 009a 9042     		cmp	r0, r2
 3355 009c 09D8     		bhi	.L215
 871:AS76.c        ****         LED2_Write(0xFF);
 3356              		.loc 1 871 0 is_stmt 1
 3357 009e 1148     		ldr	r0, .L218+12
 3358              	.LVL400:
 3359 00a0 FFF7FEFF 		bl	Write_Debug_UART_Char
 3360              	.LVL401:
 872:AS76.c        ****         Error = 15;
 3361              		.loc 1 872 0
 3362 00a4 FF20     		movs	r0, #255
 3363 00a6 FFF7FEFF 		bl	LED2_Write
 3364              	.LVL402:
 873:AS76.c        ****      }
 3365              		.loc 1 873 0
 3366 00aa 0F22     		movs	r2, #15
 3367 00ac 0C4B     		ldr	r3, .L218+8
 3368 00ae 9A62     		str	r2, [r3, #40]
 3369 00b0 0FE0     		b	.L214
 3370              	.L215:
 876:AS76.c        ****      {
 3371              		.loc 1 876 0
 3372 00b2 B3F57A6F 		cmp	r3, #4000
 3373 00b6 06DD     		ble	.L216
 878:AS76.c        ****        Error = 16;
 3374              		.loc 1 878 0
 3375 00b8 0B48     		ldr	r0, .L218+16
ARM GAS  C:\Users\Revanth\AppData\Local\Temp\ccHsQCvB.s 			page 106


 3376 00ba FFF7FEFF 		bl	Write_Debug_UART_Char
 3377              	.LVL403:
 879:AS76.c        ****      }
 3378              		.loc 1 879 0
 3379 00be 1022     		movs	r2, #16
 3380 00c0 074B     		ldr	r3, .L218+8
 3381 00c2 9A62     		str	r2, [r3, #40]
 3382 00c4 05E0     		b	.L214
 3383              	.L216:
 884:AS76.c        ****        Error = 0;
 3384              		.loc 1 884 0
 3385 00c6 0948     		ldr	r0, .L218+20
 3386 00c8 FFF7FEFF 		bl	Write_Debug_UART_Char
 3387              	.LVL404:
 885:AS76.c        ****         
 3388              		.loc 1 885 0
 3389 00cc 0022     		movs	r2, #0
 3390 00ce 044B     		ldr	r3, .L218+8
 3391 00d0 9A62     		str	r2, [r3, #40]
 3392              	.L214:
 892:AS76.c        **** 
 3393              		.loc 1 892 0
 3394 00d2 034B     		ldr	r3, .L218+8
 3395 00d4 986A     		ldr	r0, [r3, #40]
 3396 00d6 F8BD     		pop	{r3, r4, r5, r6, r7, pc}
 3397              	.LVL405:
 3398              	.L219:
 3399              		.align	3
 3400              	.L218:
 3401 00d8 9A999999 		.word	-1717986918
 3402 00dc 99990940 		.word	1074370969
 3403 00e0 00000000 		.word	.LANCHOR0
 3404 00e4 88030000 		.word	.LC29
 3405 00e8 A4030000 		.word	.LC30
 3406 00ec D4030000 		.word	.LC31
 3407              		.cfi_endproc
 3408              	.LFE75:
 3409              		.size	Step_correction_z, .-Step_correction_z
 3410              		.section	.text.goTo_Z,"ax",%progbits
 3411              		.align	2
 3412              		.global	goTo_Z
 3413              		.thumb
 3414              		.thumb_func
 3415              		.type	goTo_Z, %function
 3416              	goTo_Z:
 3417              	.LFB74:
 799:AS76.c        ****     Write_32bitSPI_DATA (0x10  , (int) 0x00070103, TMC5160_nCS_MotorY );
 3418              		.loc 1 799 0
 3419              		.cfi_startproc
 3420              		@ args = 0, pretend = 0, frame = 0
 3421              		@ frame_needed = 0, uses_anonymous_args = 0
 3422              	.LVL406:
 3423 0000 38B5     		push	{r3, r4, r5, lr}
 3424              		.cfi_def_cfa_offset 16
 3425              		.cfi_offset 3, -16
 3426              		.cfi_offset 4, -12
 3427              		.cfi_offset 5, -8
ARM GAS  C:\Users\Revanth\AppData\Local\Temp\ccHsQCvB.s 			page 107


 3428              		.cfi_offset 14, -4
 3429 0002 0546     		mov	r5, r0
 800:AS76.c        ****     Write_32bitSPI_DATA (0x10  , (int) 0x00070103, TMC5160_nCS_MotorX );
 3430              		.loc 1 800 0
 3431 0004 1F4C     		ldr	r4, .L224
 3432 0006 0122     		movs	r2, #1
 3433 0008 2146     		mov	r1, r4
 3434 000a 1020     		movs	r0, #16
 3435              	.LVL407:
 3436 000c FFF7FEFF 		bl	Write_32bitSPI_DATA
 3437              	.LVL408:
 801:AS76.c        ****     Write_32bitSPI_DATA (0x10  , (int) 0x00070102, TMC5160_nCS_MotorZ );
 3438              		.loc 1 801 0
 3439 0010 0022     		movs	r2, #0
 3440 0012 2146     		mov	r1, r4
 3441 0014 1020     		movs	r0, #16
 3442 0016 FFF7FEFF 		bl	Write_32bitSPI_DATA
 3443              	.LVL409:
 802:AS76.c        ****     Position_Z_Requested =  Position_Z_Requested;
 3444              		.loc 1 802 0
 3445 001a 0222     		movs	r2, #2
 3446 001c 1A49     		ldr	r1, .L224+4
 3447 001e 1020     		movs	r0, #16
 3448 0020 FFF7FEFF 		bl	Write_32bitSPI_DATA
 3449              	.LVL410:
 804:AS76.c        ****     if(if_all_homing_done())
 3450              		.loc 1 804 0
 3451 0024 194B     		ldr	r3, .L224+8
 3452 0026 9869     		ldr	r0, [r3, #24]
 3453 0028 4042     		negs	r0, r0
 3454 002a FFF7FEFF 		bl	Enable_Encoder_Z
 3455              	.LVL411:
 805:AS76.c        ****     {
 3456              		.loc 1 805 0
 3457 002e FFF7FEFF 		bl	if_all_homing_done
 3458              	.LVL412:
 3459 0032 00B3     		cbz	r0, .L221
 807:AS76.c        ****         Read_All_Optical_Encoder();
 3460              		.loc 1 807 0
 3461 0034 154C     		ldr	r4, .L224+8
 3462 0036 0023     		movs	r3, #0
 3463 0038 A362     		str	r3, [r4, #40]
 808:AS76.c        ****         //Z_last_position = Z_QuadPosition;
 3464              		.loc 1 808 0
 3465 003a FFF7FEFF 		bl	Read_All_Optical_Encoder
 3466              	.LVL413:
 810:AS76.c        ****         GotoPos(Position_Z_Requested, TMC5160_nCS_MotorZ); // If provided value is position and not
 3467              		.loc 1 810 0
 3468 003e 1448     		ldr	r0, .L224+12
 3469 0040 FFF7FEFF 		bl	Write_Debug_UART_Char
 3470              	.LVL414:
 811:AS76.c        ****         WaitTillPositionReached (TMC5160_nCS_MotorZ);
 3471              		.loc 1 811 0
 3472 0044 0221     		movs	r1, #2
 3473 0046 2846     		mov	r0, r5
 3474 0048 FFF7FEFF 		bl	GotoPos
 3475              	.LVL415:
ARM GAS  C:\Users\Revanth\AppData\Local\Temp\ccHsQCvB.s 			page 108


 812:AS76.c        ****         CyDelayUs(50);
 3476              		.loc 1 812 0
 3477 004c 0220     		movs	r0, #2
 3478 004e FFF7FEFF 		bl	WaitTillPositionReached
 3479              	.LVL416:
 813:AS76.c        ****         //GotoPos(Position_X_Move, TMC5160_nCS_MotorX); // If provided value is steps to move and n
 3480              		.loc 1 813 0
 3481 0052 3220     		movs	r0, #50
 3482 0054 FFF7FEFF 		bl	CyDelayUs
 3483              	.LVL417:
 815:AS76.c        ****         Write_Debug_UART_Char("  \r\n");
 3484              		.loc 1 815 0
 3485 0058 2846     		mov	r0, r5
 3486 005a FFF7FEFF 		bl	Write_Debug_UART_Int
 3487              	.LVL418:
 816:AS76.c        ****         Step_correction_z(Position_Z_Requested);
 3488              		.loc 1 816 0
 3489 005e 0D48     		ldr	r0, .L224+16
 3490 0060 FFF7FEFF 		bl	Write_Debug_UART_Char
 3491              	.LVL419:
 817:AS76.c        ****         Read_All_Optical_Encoder();
 3492              		.loc 1 817 0
 3493 0064 2846     		mov	r0, r5
 3494 0066 FFF7FEFF 		bl	Step_correction_z
 3495              	.LVL420:
 818:AS76.c        ****         Buffer_Z_QuadPosition = Z_QuadPosition;
 3496              		.loc 1 818 0
 3497 006a FFF7FEFF 		bl	Read_All_Optical_Encoder
 3498              	.LVL421:
 819:AS76.c        ****         return Error;
 3499              		.loc 1 819 0
 3500 006e 2369     		ldr	r3, [r4, #16]
 3501 0070 A361     		str	r3, [r4, #24]
 820:AS76.c        ****     }
 3502              		.loc 1 820 0
 3503 0072 A06A     		ldr	r0, [r4, #40]
 3504 0074 38BD     		pop	{r3, r4, r5, pc}
 3505              	.LVL422:
 3506              	.L221:
 824:AS76.c        ****         Error = 32;
 3507              		.loc 1 824 0
 3508 0076 0848     		ldr	r0, .L224+20
 3509 0078 FFF7FEFF 		bl	Write_Debug_UART_Char
 3510              	.LVL423:
 825:AS76.c        ****         return Error;
 3511              		.loc 1 825 0
 3512 007c 2020     		movs	r0, #32
 3513 007e 034B     		ldr	r3, .L224+8
 3514 0080 9862     		str	r0, [r3, #40]
 829:AS76.c        **** 
 3515              		.loc 1 829 0
 3516 0082 38BD     		pop	{r3, r4, r5, pc}
 3517              	.LVL424:
 3518              	.L225:
 3519              		.align	2
 3520              	.L224:
 3521 0084 03010700 		.word	459011
ARM GAS  C:\Users\Revanth\AppData\Local\Temp\ccHsQCvB.s 			page 109


 3522 0088 02010700 		.word	459010
 3523 008c 00000000 		.word	.LANCHOR0
 3524 0090 E8030000 		.word	.LC32
 3525 0094 B0020000 		.word	.LC21
 3526 0098 B8020000 		.word	.LC22
 3527              		.cfi_endproc
 3528              	.LFE74:
 3529              		.size	goTo_Z, .-goTo_Z
 3530              		.section	.text.Step_correction_t,"ax",%progbits
 3531              		.align	2
 3532              		.global	Step_correction_t
 3533              		.thumb
 3534              		.thumb_func
 3535              		.type	Step_correction_t, %function
 3536              	Step_correction_t:
 3537              	.LFB77:
 931:AS76.c        ****     uint8_t temp=0;
 3538              		.loc 1 931 0
 3539              		.cfi_startproc
 3540              		@ args = 0, pretend = 0, frame = 0
 3541              		@ frame_needed = 0, uses_anonymous_args = 0
 3542              	.LVL425:
 3543 0000 F8B5     		push	{r3, r4, r5, r6, r7, lr}
 3544              		.cfi_def_cfa_offset 24
 3545              		.cfi_offset 3, -24
 3546              		.cfi_offset 4, -20
 3547              		.cfi_offset 5, -16
 3548              		.cfi_offset 6, -12
 3549              		.cfi_offset 7, -8
 3550              		.cfi_offset 14, -4
 3551 0002 0746     		mov	r7, r0
 3552              	.LVL426:
 937:AS76.c        ****     
 3553              		.loc 1 937 0
 3554 0004 FFF7FEFF 		bl	__aeabi_i2d
 3555              	.LVL427:
 3556 0008 33A3     		adr	r3, .L236
 3557 000a D3E90023 		ldrd	r2, [r3]
 3558 000e FFF7FEFF 		bl	__aeabi_ddiv
 3559              	.LVL428:
 3560 0012 FFF7FEFF 		bl	__aeabi_d2iz
 3561              	.LVL429:
 3562 0016 0646     		mov	r6, r0
 3563              	.LVL430:
 939:AS76.c        ****     {
 3564              		.loc 1 939 0
 3565 0018 0025     		movs	r5, #0
 3566 001a 2BE0     		b	.L227
 3567              	.LVL431:
 3568              	.L231:
 941:AS76.c        ****     //diff_encoder_value = (X_QuadPosition - X_last_position);
 3569              		.loc 1 941 0
 3570 001c FFF7FEFF 		bl	Read_All_Optical_Encoder
 3571              	.LVL432:
 943:AS76.c        ****     new_step= encoder_error_value*3.2;
 3572              		.loc 1 943 0
 3573 0020 2F4B     		ldr	r3, .L236+8
ARM GAS  C:\Users\Revanth\AppData\Local\Temp\ccHsQCvB.s 			page 110


 3574 0022 5C69     		ldr	r4, [r3, #20]
 3575 0024 341B     		subs	r4, r6, r4
 3576              	.LVL433:
 944:AS76.c        ****     if(encoder_error_value >= 4000)
 3577              		.loc 1 944 0
 3578 0026 2046     		mov	r0, r4
 3579 0028 FFF7FEFF 		bl	__aeabi_i2d
 3580              	.LVL434:
 3581 002c 2AA3     		adr	r3, .L236
 3582 002e D3E90023 		ldrd	r2, [r3]
 3583 0032 FFF7FEFF 		bl	__aeabi_dmul
 3584              	.LVL435:
 3585 0036 FFF7FEFF 		bl	__aeabi_d2iz
 3586              	.LVL436:
 945:AS76.c        ****     {
 3587              		.loc 1 945 0
 3588 003a B4F57A6F 		cmp	r4, #4000
 3589 003e 03DB     		blt	.L228
 947:AS76.c        ****         break;
 3590              		.loc 1 947 0
 3591 0040 1722     		movs	r2, #23
 3592 0042 274B     		ldr	r3, .L236+8
 3593 0044 9A62     		str	r2, [r3, #40]
 948:AS76.c        ****     }
 3594              		.loc 1 948 0
 3595 0046 17E0     		b	.L229
 3596              	.L228:
 951:AS76.c        ****     {
 3597              		.loc 1 951 0
 3598 0048 002C     		cmp	r4, #0
 3599 004a B8BF     		it	lt
 3600 004c 6442     		rsblt	r4, r4, #0
 3601              	.LVL437:
 3602 004e 042C     		cmp	r4, #4
 3603 0050 0EDD     		ble	.L230
 3604              	.LVL438:
 954:AS76.c        ****       WaitTillPositionReached (TMC5160_nCS_MotorT);
 3605              		.loc 1 954 0
 3606 0052 0321     		movs	r1, #3
 3607 0054 3844     		add	r0, r0, r7
 3608              	.LVL439:
 3609 0056 FFF7FEFF 		bl	GotoPos
 3610              	.LVL440:
 955:AS76.c        ****       CyDelayUs(50);
 3611              		.loc 1 955 0
 3612 005a 0320     		movs	r0, #3
 3613 005c FFF7FEFF 		bl	WaitTillPositionReached
 3614              	.LVL441:
 956:AS76.c        ****       Write_32bitSPI_DATA (0x21  , steps, TMC5160_nCS_MotorT );
 3615              		.loc 1 956 0
 3616 0060 3220     		movs	r0, #50
 3617 0062 FFF7FEFF 		bl	CyDelayUs
 3618              	.LVL442:
 957:AS76.c        ****     }
 3619              		.loc 1 957 0
 3620 0066 0322     		movs	r2, #3
 3621 0068 3946     		mov	r1, r7
ARM GAS  C:\Users\Revanth\AppData\Local\Temp\ccHsQCvB.s 			page 111


 3622 006a 2120     		movs	r0, #33
 3623 006c FFF7FEFF 		bl	Write_32bitSPI_DATA
 3624              	.LVL443:
 3625              	.L230:
 939:AS76.c        ****     {
 3626              		.loc 1 939 0 discriminator 2
 3627 0070 0135     		adds	r5, r5, #1
 3628              	.LVL444:
 3629 0072 EDB2     		uxtb	r5, r5
 3630              	.LVL445:
 3631              	.L227:
 939:AS76.c        ****     {
 3632              		.loc 1 939 0 is_stmt 0 discriminator 1
 3633 0074 032D     		cmp	r5, #3
 3634 0076 D1D9     		bls	.L231
 3635              	.L229:
 962:AS76.c        ****     encoder_error_value = Encoder_Position_T_Requested - T_QuadPosition;
 3636              		.loc 1 962 0 is_stmt 1
 3637 0078 FFF7FEFF 		bl	Read_All_Optical_Encoder
 3638              	.LVL446:
 963:AS76.c        ****     
 3639              		.loc 1 963 0
 3640 007c 184B     		ldr	r3, .L236+8
 3641 007e 5869     		ldr	r0, [r3, #20]
 3642 0080 301A     		subs	r0, r6, r0
 3643              	.LVL447:
 965:AS76.c        ****     {
 3644              		.loc 1 965 0
 3645 0082 032D     		cmp	r5, #3
 3646 0084 22D9     		bls	.L232
 967:AS76.c        ****      {
 3647              		.loc 1 967 0
 3648 0086 80EAE073 		eor	r3, r0, r0, asr #31
 3649 008a A3EBE073 		sub	r3, r3, r0, asr #31
 3650 008e 042B     		cmp	r3, #4
 3651 0090 0CDD     		ble	.L233
 967:AS76.c        ****      {
 3652              		.loc 1 967 0 is_stmt 0 discriminator 1
 3653 0092 00F69F70 		addw	r0, r0, #3999
 3654              	.LVL448:
 3655 0096 41F63E72 		movw	r2, #7998
 3656 009a 9042     		cmp	r0, r2
 3657 009c 06D8     		bhi	.L233
 969:AS76.c        ****         Error = 22;
 3658              		.loc 1 969 0 is_stmt 1
 3659 009e 1148     		ldr	r0, .L236+12
 3660              	.LVL449:
 3661 00a0 FFF7FEFF 		bl	Write_Debug_UART_Char
 3662              	.LVL450:
 970:AS76.c        ****      }
 3663              		.loc 1 970 0
 3664 00a4 1622     		movs	r2, #22
 3665 00a6 0E4B     		ldr	r3, .L236+8
 3666 00a8 9A62     		str	r2, [r3, #40]
 3667 00aa 0FE0     		b	.L232
 3668              	.L233:
 973:AS76.c        ****      {
ARM GAS  C:\Users\Revanth\AppData\Local\Temp\ccHsQCvB.s 			page 112


 3669              		.loc 1 973 0
 3670 00ac B3F57A6F 		cmp	r3, #4000
 3671 00b0 06DD     		ble	.L234
 975:AS76.c        ****        Error = 23;
 3672              		.loc 1 975 0
 3673 00b2 0D48     		ldr	r0, .L236+16
 3674 00b4 FFF7FEFF 		bl	Write_Debug_UART_Char
 3675              	.LVL451:
 976:AS76.c        ****      }
 3676              		.loc 1 976 0
 3677 00b8 1722     		movs	r2, #23
 3678 00ba 094B     		ldr	r3, .L236+8
 3679 00bc 9A62     		str	r2, [r3, #40]
 3680 00be 05E0     		b	.L232
 3681              	.L234:
 981:AS76.c        ****         Error = 0;
 3682              		.loc 1 981 0
 3683 00c0 0A48     		ldr	r0, .L236+20
 3684 00c2 FFF7FEFF 		bl	Write_Debug_UART_Char
 3685              	.LVL452:
 982:AS76.c        ****         
 3686              		.loc 1 982 0
 3687 00c6 0022     		movs	r2, #0
 3688 00c8 054B     		ldr	r3, .L236+8
 3689 00ca 9A62     		str	r2, [r3, #40]
 3690              	.L232:
 989:AS76.c        **** 
 3691              		.loc 1 989 0
 3692 00cc 044B     		ldr	r3, .L236+8
 3693 00ce 986A     		ldr	r0, [r3, #40]
 3694 00d0 F8BD     		pop	{r3, r4, r5, r6, r7, pc}
 3695              	.LVL453:
 3696              	.L237:
 3697 00d2 00BFAFF3 		.align	3
 3697      0080
 3698              	.L236:
 3699 00d8 9A999999 		.word	-1717986918
 3700 00dc 99990940 		.word	1074370969
 3701 00e0 00000000 		.word	.LANCHOR0
 3702 00e4 04040000 		.word	.LC33
 3703 00e8 20040000 		.word	.LC34
 3704 00ec 50040000 		.word	.LC35
 3705              		.cfi_endproc
 3706              	.LFE77:
 3707              		.size	Step_correction_t, .-Step_correction_t
 3708              		.section	.text.goTo_T,"ax",%progbits
 3709              		.align	2
 3710              		.global	goTo_T
 3711              		.thumb
 3712              		.thumb_func
 3713              		.type	goTo_T, %function
 3714              	goTo_T:
 3715              	.LFB76:
 897:AS76.c        ****     TMC5160_MotorT_EN_Write(0x00);
 3716              		.loc 1 897 0
 3717              		.cfi_startproc
 3718              		@ args = 0, pretend = 0, frame = 0
ARM GAS  C:\Users\Revanth\AppData\Local\Temp\ccHsQCvB.s 			page 113


 3719              		@ frame_needed = 0, uses_anonymous_args = 0
 3720              	.LVL454:
 3721 0000 38B5     		push	{r3, r4, r5, lr}
 3722              		.cfi_def_cfa_offset 16
 3723              		.cfi_offset 3, -16
 3724              		.cfi_offset 4, -12
 3725              		.cfi_offset 5, -8
 3726              		.cfi_offset 14, -4
 3727 0002 0446     		mov	r4, r0
 898:AS76.c        ****     CyDelayUs(100);
 3728              		.loc 1 898 0
 3729 0004 0020     		movs	r0, #0
 3730              	.LVL455:
 3731 0006 FFF7FEFF 		bl	TMC5160_MotorT_EN_Write
 3732              	.LVL456:
 899:AS76.c        ****     Enable_Encoder_T(-Buffer_T_QuadPosition);
 3733              		.loc 1 899 0
 3734 000a 6420     		movs	r0, #100
 3735 000c FFF7FEFF 		bl	CyDelayUs
 3736              	.LVL457:
 900:AS76.c        ****     if(if_all_homing_done())
 3737              		.loc 1 900 0
 3738 0010 1E4B     		ldr	r3, .L242
 3739 0012 D869     		ldr	r0, [r3, #28]
 3740 0014 4042     		negs	r0, r0
 3741 0016 FFF7FEFF 		bl	Enable_Encoder_T
 3742              	.LVL458:
 901:AS76.c        ****     {
 3743              		.loc 1 901 0
 3744 001a FFF7FEFF 		bl	if_all_homing_done
 3745              	.LVL459:
 3746 001e 30B3     		cbz	r0, .L239
 903:AS76.c        ****         Read_All_Optical_Encoder();        
 3747              		.loc 1 903 0
 3748 0020 1A4D     		ldr	r5, .L242
 3749 0022 0023     		movs	r3, #0
 3750 0024 AB62     		str	r3, [r5, #40]
 904:AS76.c        ****         Write_Debug_UART_Char("GotoT Command Recived--->");
 3751              		.loc 1 904 0
 3752 0026 FFF7FEFF 		bl	Read_All_Optical_Encoder
 3753              	.LVL460:
 905:AS76.c        ****         GotoPos(Position_T_Requested, TMC5160_nCS_MotorT); // If provided value is position and not
 3754              		.loc 1 905 0
 3755 002a 1948     		ldr	r0, .L242+4
 3756 002c FFF7FEFF 		bl	Write_Debug_UART_Char
 3757              	.LVL461:
 906:AS76.c        ****         WaitTillPositionReached (TMC5160_nCS_MotorT);
 3758              		.loc 1 906 0
 3759 0030 0321     		movs	r1, #3
 3760 0032 2046     		mov	r0, r4
 3761 0034 FFF7FEFF 		bl	GotoPos
 3762              	.LVL462:
 907:AS76.c        ****         CyDelayUs(50);
 3763              		.loc 1 907 0
 3764 0038 0320     		movs	r0, #3
 3765 003a FFF7FEFF 		bl	WaitTillPositionReached
 3766              	.LVL463:
ARM GAS  C:\Users\Revanth\AppData\Local\Temp\ccHsQCvB.s 			page 114


 908:AS76.c        ****         //GotoPos(Position_X_Move, TMC5160_nCS_MotorX); // If provided value is steps to move and n
 3767              		.loc 1 908 0
 3768 003e 3220     		movs	r0, #50
 3769 0040 FFF7FEFF 		bl	CyDelayUs
 3770              	.LVL464:
 910:AS76.c        ****         Write_Debug_UART_Char("  \r\n");
 3771              		.loc 1 910 0
 3772 0044 2046     		mov	r0, r4
 3773 0046 FFF7FEFF 		bl	Write_Debug_UART_Int
 3774              	.LVL465:
 911:AS76.c        ****         Step_correction_t(Position_T_Requested);
 3775              		.loc 1 911 0
 3776 004a 1248     		ldr	r0, .L242+8
 3777 004c FFF7FEFF 		bl	Write_Debug_UART_Char
 3778              	.LVL466:
 912:AS76.c        ****         Read_All_Optical_Encoder();
 3779              		.loc 1 912 0
 3780 0050 2046     		mov	r0, r4
 3781 0052 FFF7FEFF 		bl	Step_correction_t
 3782              	.LVL467:
 913:AS76.c        ****         Buffer_T_QuadPosition = T_QuadPosition;
 3783              		.loc 1 913 0
 3784 0056 FFF7FEFF 		bl	Read_All_Optical_Encoder
 3785              	.LVL468:
 914:AS76.c        ****         TMC5160_MotorT_EN_Write(0xFF);
 3786              		.loc 1 914 0
 3787 005a 6B69     		ldr	r3, [r5, #20]
 3788 005c EB61     		str	r3, [r5, #28]
 915:AS76.c        ****         CyDelayUs (100);
 3789              		.loc 1 915 0
 3790 005e FF20     		movs	r0, #255
 3791 0060 FFF7FEFF 		bl	TMC5160_MotorT_EN_Write
 3792              	.LVL469:
 916:AS76.c        ****         return Error;
 3793              		.loc 1 916 0
 3794 0064 6420     		movs	r0, #100
 3795 0066 FFF7FEFF 		bl	CyDelayUs
 3796              	.LVL470:
 917:AS76.c        ****     }
 3797              		.loc 1 917 0
 3798 006a A86A     		ldr	r0, [r5, #40]
 3799 006c 38BD     		pop	{r3, r4, r5, pc}
 3800              	.LVL471:
 3801              	.L239:
 921:AS76.c        ****         Error = 32;
 3802              		.loc 1 921 0
 3803 006e 0A48     		ldr	r0, .L242+12
 3804 0070 FFF7FEFF 		bl	Write_Debug_UART_Char
 3805              	.LVL472:
 922:AS76.c        ****          TMC5160_MotorT_EN_Write(0xFF);
 3806              		.loc 1 922 0
 3807 0074 054C     		ldr	r4, .L242
 3808              	.LVL473:
 3809 0076 2023     		movs	r3, #32
 3810 0078 A362     		str	r3, [r4, #40]
 923:AS76.c        ****         CyDelayUs(100);
 3811              		.loc 1 923 0
ARM GAS  C:\Users\Revanth\AppData\Local\Temp\ccHsQCvB.s 			page 115


 3812 007a FF20     		movs	r0, #255
 3813 007c FFF7FEFF 		bl	TMC5160_MotorT_EN_Write
 3814              	.LVL474:
 924:AS76.c        ****         return Error;
 3815              		.loc 1 924 0
 3816 0080 6420     		movs	r0, #100
 3817 0082 FFF7FEFF 		bl	CyDelayUs
 3818              	.LVL475:
 925:AS76.c        ****     }
 3819              		.loc 1 925 0
 3820 0086 A06A     		ldr	r0, [r4, #40]
 928:AS76.c        **** 
 3821              		.loc 1 928 0
 3822 0088 38BD     		pop	{r3, r4, r5, pc}
 3823              	.L243:
 3824 008a 00BF     		.align	2
 3825              	.L242:
 3826 008c 00000000 		.word	.LANCHOR0
 3827 0090 64040000 		.word	.LC36
 3828 0094 B0020000 		.word	.LC21
 3829 0098 B8020000 		.word	.LC22
 3830              		.cfi_endproc
 3831              	.LFE76:
 3832              		.size	goTo_T, .-goTo_T
 3833              		.section	.text.goTo_XYZ,"ax",%progbits
 3834              		.align	2
 3835              		.global	goTo_XYZ
 3836              		.thumb
 3837              		.thumb_func
 3838              		.type	goTo_XYZ, %function
 3839              	goTo_XYZ:
 3840              	.LFB78:
 996:AS76.c        ****     Read_All_Optical_Encoder();
 3841              		.loc 1 996 0
 3842              		.cfi_startproc
 3843              		@ args = 0, pretend = 0, frame = 0
 3844              		@ frame_needed = 0, uses_anonymous_args = 0
 3845              	.LVL476:
 3846 0000 70B5     		push	{r4, r5, r6, lr}
 3847              		.cfi_def_cfa_offset 16
 3848              		.cfi_offset 4, -16
 3849              		.cfi_offset 5, -12
 3850              		.cfi_offset 6, -8
 3851              		.cfi_offset 14, -4
 3852 0002 0646     		mov	r6, r0
 3853 0004 0D46     		mov	r5, r1
 3854 0006 1446     		mov	r4, r2
 997:AS76.c        ****     //X_last_position = X_QuadPosition;
 3855              		.loc 1 997 0
 3856 0008 FFF7FEFF 		bl	Read_All_Optical_Encoder
 3857              	.LVL477:
 999:AS76.c        ****     if(Position_X_Requested >= 0)
 3858              		.loc 1 999 0
 3859 000c 2148     		ldr	r0, .L254
 3860 000e FFF7FEFF 		bl	Write_Debug_UART_Char
 3861              	.LVL478:
1000:AS76.c        ****     { 
ARM GAS  C:\Users\Revanth\AppData\Local\Temp\ccHsQCvB.s 			page 116


 3862              		.loc 1 1000 0
 3863 0012 002E     		cmp	r6, #0
 3864 0014 03DB     		blt	.L245
1002:AS76.c        ****     }
 3865              		.loc 1 1002 0
 3866 0016 0021     		movs	r1, #0
 3867 0018 3046     		mov	r0, r6
 3868 001a FFF7FEFF 		bl	GotoPos
 3869              	.LVL479:
 3870              	.L245:
1004:AS76.c        ****     { 
 3871              		.loc 1 1004 0
 3872 001e 002D     		cmp	r5, #0
 3873 0020 03DB     		blt	.L246
1006:AS76.c        ****     }
 3874              		.loc 1 1006 0
 3875 0022 0121     		movs	r1, #1
 3876 0024 2846     		mov	r0, r5
 3877 0026 FFF7FEFF 		bl	GotoPos
 3878              	.LVL480:
 3879              	.L246:
1008:AS76.c        ****     { 
 3880              		.loc 1 1008 0
 3881 002a 002C     		cmp	r4, #0
 3882 002c 08DB     		blt	.L247
1010:AS76.c        ****     GotoPos(Position_Z_Requested, TMC5160_nCS_MotorZ);
 3883              		.loc 1 1010 0
 3884 002e 1A4B     		ldr	r3, .L254+4
 3885 0030 9869     		ldr	r0, [r3, #24]
 3886 0032 4042     		negs	r0, r0
 3887 0034 FFF7FEFF 		bl	Enable_Encoder_Z
 3888              	.LVL481:
1011:AS76.c        ****     }
 3889              		.loc 1 1011 0
 3890 0038 0221     		movs	r1, #2
 3891 003a 2046     		mov	r0, r4
 3892 003c FFF7FEFF 		bl	GotoPos
 3893              	.LVL482:
 3894              	.L247:
1014:AS76.c        ****     {
 3895              		.loc 1 1014 0
 3896 0040 002E     		cmp	r6, #0
 3897 0042 02DB     		blt	.L248
1016:AS76.c        ****     }
 3898              		.loc 1 1016 0
 3899 0044 0020     		movs	r0, #0
 3900 0046 FFF7FEFF 		bl	WaitTillPositionReached
 3901              	.LVL483:
 3902              	.L248:
1018:AS76.c        ****     {
 3903              		.loc 1 1018 0
 3904 004a 002D     		cmp	r5, #0
 3905 004c 02DB     		blt	.L249
1020:AS76.c        ****     }
 3906              		.loc 1 1020 0
 3907 004e 0120     		movs	r0, #1
 3908 0050 FFF7FEFF 		bl	WaitTillPositionReached
ARM GAS  C:\Users\Revanth\AppData\Local\Temp\ccHsQCvB.s 			page 117


 3909              	.LVL484:
 3910              	.L249:
1022:AS76.c        ****     {
 3911              		.loc 1 1022 0
 3912 0054 002C     		cmp	r4, #0
 3913 0056 02DB     		blt	.L250
1024:AS76.c        ****     }
 3914              		.loc 1 1024 0
 3915 0058 0220     		movs	r0, #2
 3916 005a FFF7FEFF 		bl	WaitTillPositionReached
 3917              	.LVL485:
 3918              	.L250:
1033:AS76.c        ****     {
 3919              		.loc 1 1033 0
 3920 005e 002D     		cmp	r5, #0
 3921 0060 02DB     		blt	.L251
1035:AS76.c        ****     //Read_All_Optical_Encoder();
 3922              		.loc 1 1035 0
 3923 0062 2846     		mov	r0, r5
 3924 0064 FFF7FEFF 		bl	Step_correction_y
 3925              	.LVL486:
 3926              	.L251:
1039:AS76.c        ****     {
 3927              		.loc 1 1039 0
 3928 0068 002C     		cmp	r4, #0
 3929 006a 07DB     		blt	.L252
1041:AS76.c        ****     Read_All_Optical_Encoder();
 3930              		.loc 1 1041 0
 3931 006c 2046     		mov	r0, r4
 3932 006e FFF7FEFF 		bl	Step_correction_z
 3933              	.LVL487:
1042:AS76.c        ****     Buffer_Z_QuadPosition = Z_QuadPosition;
 3934              		.loc 1 1042 0
 3935 0072 FFF7FEFF 		bl	Read_All_Optical_Encoder
 3936              	.LVL488:
1043:AS76.c        ****     }
 3937              		.loc 1 1043 0
 3938 0076 084B     		ldr	r3, .L254+4
 3939 0078 1A69     		ldr	r2, [r3, #16]
 3940 007a 9A61     		str	r2, [r3, #24]
 3941              	.L252:
1045:AS76.c        ****     X_QuadPosition = Position_X_Requested;
 3942              		.loc 1 1045 0
 3943 007c FFF7FEFF 		bl	Read_All_Optical_Encoder
 3944              	.LVL489:
1046:AS76.c        ****     Send_Feedback_to_USB(Error);
 3945              		.loc 1 1046 0
 3946 0080 054B     		ldr	r3, .L254+4
 3947 0082 9E60     		str	r6, [r3, #8]
1047:AS76.c        ****     
 3948              		.loc 1 1047 0
 3949 0084 986A     		ldr	r0, [r3, #40]
 3950 0086 FFF7FEFF 		bl	Send_Feedback_to_USB
 3951              	.LVL490:
1049:AS76.c        ****     return 0;  
 3952              		.loc 1 1049 0
 3953 008a 3220     		movs	r0, #50
ARM GAS  C:\Users\Revanth\AppData\Local\Temp\ccHsQCvB.s 			page 118


 3954 008c FFF7FEFF 		bl	CyDelayUs
 3955              	.LVL491:
1052:AS76.c        **** 
 3956              		.loc 1 1052 0
 3957 0090 0020     		movs	r0, #0
 3958 0092 70BD     		pop	{r4, r5, r6, pc}
 3959              	.LVL492:
 3960              	.L255:
 3961              		.align	2
 3962              	.L254:
 3963 0094 94020000 		.word	.LC20
 3964 0098 00000000 		.word	.LANCHOR0
 3965              		.cfi_endproc
 3966              	.LFE78:
 3967              		.size	goTo_XYZ, .-goTo_XYZ
 3968              		.section	.text.update_max_velocity,"ax",%progbits
 3969              		.align	2
 3970              		.global	update_max_velocity
 3971              		.thumb
 3972              		.thumb_func
 3973              		.type	update_max_velocity, %function
 3974              	update_max_velocity:
 3975              	.LFB108:
2235:AS76.c        **** 
2236:AS76.c        **** int update_max_velocity(int velocity, uint8_t Motor)
2237:AS76.c        **** {
 3976              		.loc 1 2237 0
 3977              		.cfi_startproc
 3978              		@ args = 0, pretend = 0, frame = 0
 3979              		@ frame_needed = 0, uses_anonymous_args = 0
 3980              	.LVL493:
 3981 0000 08B5     		push	{r3, lr}
 3982              		.cfi_def_cfa_offset 8
 3983              		.cfi_offset 3, -8
 3984              		.cfi_offset 14, -4
2238:AS76.c        ****     Write_32bitSPI_DATA (0x27  , (int) velocity, Motor); 
 3985              		.loc 1 2238 0
 3986 0002 0A46     		mov	r2, r1
 3987 0004 0146     		mov	r1, r0
 3988              	.LVL494:
 3989 0006 2720     		movs	r0, #39
 3990              	.LVL495:
 3991 0008 FFF7FEFF 		bl	Write_32bitSPI_DATA
 3992              	.LVL496:
2239:AS76.c        ****     return 0;
2240:AS76.c        **** }
 3993              		.loc 1 2240 0
 3994 000c 0020     		movs	r0, #0
 3995 000e 08BD     		pop	{r3, pc}
 3996              		.cfi_endproc
 3997              	.LFE108:
 3998              		.size	update_max_velocity, .-update_max_velocity
 3999              		.section	.text.homeX,"ax",%progbits
 4000              		.align	2
 4001              		.global	homeX
 4002              		.thumb
 4003              		.thumb_func
ARM GAS  C:\Users\Revanth\AppData\Local\Temp\ccHsQCvB.s 			page 119


 4004              		.type	homeX, %function
 4005              	homeX:
 4006              	.LFB66:
 165:AS76.c        ****     update_max_velocity((307200), Motor); // Set Motor to low speed
 4007              		.loc 1 165 0
 4008              		.cfi_startproc
 4009              		@ args = 0, pretend = 0, frame = 0
 4010              		@ frame_needed = 0, uses_anonymous_args = 0
 4011              	.LVL497:
 4012 0000 2DE9F041 		push	{r4, r5, r6, r7, r8, lr}
 4013              		.cfi_def_cfa_offset 24
 4014              		.cfi_offset 4, -24
 4015              		.cfi_offset 5, -20
 4016              		.cfi_offset 6, -16
 4017              		.cfi_offset 7, -12
 4018              		.cfi_offset 8, -8
 4019              		.cfi_offset 14, -4
 4020 0004 0446     		mov	r4, r0
 166:AS76.c        ****     Write_32bitSPI_DATA (0x20  , (int) 0x00000002, Motor ); // Move the motor to Left continuously
 4021              		.loc 1 166 0
 4022 0006 0146     		mov	r1, r0
 4023 0008 4FF49620 		mov	r0, #307200
 4024              	.LVL498:
 4025 000c FFF7FEFF 		bl	update_max_velocity
 4026              	.LVL499:
 167:AS76.c        ****     CyDelayUs(200);
 4027              		.loc 1 167 0
 4028 0010 2246     		mov	r2, r4
 4029 0012 0221     		movs	r1, #2
 4030 0014 2020     		movs	r0, #32
 4031 0016 FFF7FEFF 		bl	Write_32bitSPI_DATA
 4032              	.LVL500:
 168:AS76.c        ****     Read_32bitSPI_DATA(0x04, Motor, &status_x); // Read the status register of TMC5160
 4033              		.loc 1 168 0
 4034 001a C820     		movs	r0, #200
 4035 001c FFF7FEFF 		bl	CyDelayUs
 4036              	.LVL501:
 169:AS76.c        ****     CyDelayUs(500);
 4037              		.loc 1 169 0
 4038 0020 4F4D     		ldr	r5, .L263
 4039 0022 2A46     		mov	r2, r5
 4040 0024 2146     		mov	r1, r4
 4041 0026 0420     		movs	r0, #4
 4042 0028 FFF7FEFF 		bl	Read_32bitSPI_DATA
 4043              	.LVL502:
 170:AS76.c        ****     Read_32bitSPI_DATA(0x04, Motor, &status_x); // Read the status register of TMC5160
 4044              		.loc 1 170 0
 4045 002c 4FF4FA70 		mov	r0, #500
 4046 0030 FFF7FEFF 		bl	CyDelayUs
 4047              	.LVL503:
 171:AS76.c        ****     while ( (status_x & 0x40) == 0x00) // Condition to check if the Left limit switch is pressed or
 4048              		.loc 1 171 0
 4049 0034 2A46     		mov	r2, r5
 4050 0036 2146     		mov	r1, r4
 4051 0038 0420     		movs	r0, #4
 4052 003a FFF7FEFF 		bl	Read_32bitSPI_DATA
 4053              	.LVL504:
ARM GAS  C:\Users\Revanth\AppData\Local\Temp\ccHsQCvB.s 			page 120


 172:AS76.c        ****     {
 4054              		.loc 1 172 0
 4055 003e 2AE0     		b	.L259
 4056              	.L261:
 174:AS76.c        ****        wait_interrupt_StartEx(wait_interrupt_Handler);
 4057              		.loc 1 174 0
 4058 0040 FFF7FEFF 		bl	wait_timer_Start
 4059              	.LVL505:
 175:AS76.c        ****        Read_32bitSPI_DATA(0x04, Motor, &status_x); // Read the status register of TMC5160
 4060              		.loc 1 175 0
 4061 0044 4748     		ldr	r0, .L263+4
 4062 0046 FFF7FEFF 		bl	wait_interrupt_StartEx
 4063              	.LVL506:
 176:AS76.c        ****        CyDelayUs(100);
 4064              		.loc 1 176 0
 4065 004a 454A     		ldr	r2, .L263
 4066 004c 2146     		mov	r1, r4
 4067 004e 0420     		movs	r0, #4
 4068 0050 FFF7FEFF 		bl	Read_32bitSPI_DATA
 4069              	.LVL507:
 177:AS76.c        ****        if(exit_loop == 1)
 4070              		.loc 1 177 0
 4071 0054 6420     		movs	r0, #100
 4072 0056 FFF7FEFF 		bl	CyDelayUs
 4073              	.LVL508:
 178:AS76.c        ****        {
 4074              		.loc 1 178 0
 4075 005a 434B     		ldr	r3, .L263+8
 4076 005c 9B78     		ldrb	r3, [r3, #2]	@ zero_extendqisi2
 4077 005e D3B1     		cbz	r3, .L259
 180:AS76.c        ****         Send_Feedback_to_USB(Error);
 4078              		.loc 1 180 0
 4079 0060 414D     		ldr	r5, .L263+8
 4080 0062 0120     		movs	r0, #1
 4081 0064 A862     		str	r0, [r5, #40]
 181:AS76.c        ****         wait_timer_Stop();
 4082              		.loc 1 181 0
 4083 0066 FFF7FEFF 		bl	Send_Feedback_to_USB
 4084              	.LVL509:
 182:AS76.c        ****         Write_32bitSPI_DATA (0x20  , (int) 0x00000000, Motor );
 4085              		.loc 1 182 0
 4086 006a FFF7FEFF 		bl	wait_timer_Stop
 4087              	.LVL510:
 183:AS76.c        ****         Write_32bitSPI_DATA (0x21  , (int) 0x0000000, Motor); // Mark the current postion as 0
 4088              		.loc 1 183 0
 4089 006e 2246     		mov	r2, r4
 4090 0070 0021     		movs	r1, #0
 4091 0072 2020     		movs	r0, #32
 4092 0074 FFF7FEFF 		bl	Write_32bitSPI_DATA
 4093              	.LVL511:
 184:AS76.c        ****         Write_32bitSPI_DATA (0x2D  , 0x00000000, Motor ); // Set thye target position as 0
 4094              		.loc 1 184 0
 4095 0078 2246     		mov	r2, r4
 4096 007a 0021     		movs	r1, #0
 4097 007c 2120     		movs	r0, #33
 4098 007e FFF7FEFF 		bl	Write_32bitSPI_DATA
 4099              	.LVL512:
ARM GAS  C:\Users\Revanth\AppData\Local\Temp\ccHsQCvB.s 			page 121


 185:AS76.c        ****         exit_loop = 0;
 4100              		.loc 1 185 0
 4101 0082 2246     		mov	r2, r4
 4102 0084 0021     		movs	r1, #0
 4103 0086 2D20     		movs	r0, #45
 4104 0088 FFF7FEFF 		bl	Write_32bitSPI_DATA
 4105              	.LVL513:
 186:AS76.c        ****         Error =0;
 4106              		.loc 1 186 0
 4107 008c 0023     		movs	r3, #0
 4108 008e AB70     		strb	r3, [r5, #2]
 187:AS76.c        ****         return;        
 4109              		.loc 1 187 0
 4110 0090 AB62     		str	r3, [r5, #40]
 188:AS76.c        ****     }
 4111              		.loc 1 188 0
 4112 0092 BDE8F081 		pop	{r4, r5, r6, r7, r8, pc}
 4113              	.L259:
 172:AS76.c        ****     {
 4114              		.loc 1 172 0
 4115 0096 324B     		ldr	r3, .L263
 4116 0098 1B78     		ldrb	r3, [r3]	@ zero_extendqisi2
 4117 009a 13F0400F 		tst	r3, #64
 4118 009e CFD0     		beq	.L261
 191:AS76.c        ****     exit_loop =0;
 4119              		.loc 1 191 0
 4120 00a0 FFF7FEFF 		bl	wait_timer_Stop
 4121              	.LVL514:
 192:AS76.c        ****     
 4122              		.loc 1 192 0
 4123 00a4 304F     		ldr	r7, .L263+8
 4124 00a6 0026     		movs	r6, #0
 4125 00a8 BE70     		strb	r6, [r7, #2]
 195:AS76.c        ****     CyDelayUs(10);
 4126              		.loc 1 195 0
 4127 00aa 2246     		mov	r2, r4
 4128 00ac 3146     		mov	r1, r6
 4129 00ae 2120     		movs	r0, #33
 4130 00b0 FFF7FEFF 		bl	Write_32bitSPI_DATA
 4131              	.LVL515:
 196:AS76.c        ****     /*
 4132              		.loc 1 196 0
 4133 00b4 0A20     		movs	r0, #10
 4134 00b6 FFF7FEFF 		bl	CyDelayUs
 4135              	.LVL516:
 226:AS76.c        ****     //X_last_position = 0;
 4136              		.loc 1 226 0
 4137 00ba 2246     		mov	r2, r4
 4138 00bc 3146     		mov	r1, r6
 4139 00be 2120     		movs	r0, #33
 4140 00c0 FFF7FEFF 		bl	Write_32bitSPI_DATA
 4141              	.LVL517:
 228:AS76.c        ****     HomeX_done = true;
 4142              		.loc 1 228 0
 4143 00c4 3046     		mov	r0, r6
 4144 00c6 FFF7FEFF 		bl	QuadDec_X_SetCounter
 4145              	.LVL518:
ARM GAS  C:\Users\Revanth\AppData\Local\Temp\ccHsQCvB.s 			page 122


 229:AS76.c        ****     HomeY_done = true;
 4146              		.loc 1 229 0
 4147 00ca 284D     		ldr	r5, .L263+12
 4148 00cc 4FF00108 		mov	r8, #1
 4149 00d0 85F82180 		strb	r8, [r5, #33]
 230:AS76.c        ****     HomeZ_done = true;
 4150              		.loc 1 230 0
 4151 00d4 85F82080 		strb	r8, [r5, #32]
 231:AS76.c        ****     HomeT_done = true;
 4152              		.loc 1 231 0
 4153 00d8 85F82280 		strb	r8, [r5, #34]
 232:AS76.c        ****     CyDelayUs(100);
 4154              		.loc 1 232 0
 4155 00dc 85F82880 		strb	r8, [r5, #40]
 233:AS76.c        ****     goTo_X((256*200)*1); // Move the motor 1 rotation with error corrction mechanism based on encod
 4156              		.loc 1 233 0
 4157 00e0 6420     		movs	r0, #100
 4158 00e2 FFF7FEFF 		bl	CyDelayUs
 4159              	.LVL519:
 234:AS76.c        ****     HomeX_done = HomeX_done_Buffer;
 4160              		.loc 1 234 0
 4161 00e6 4FF44840 		mov	r0, #51200
 4162 00ea FFF7FEFF 		bl	goTo_X
 4163              	.LVL520:
 235:AS76.c        ****     HomeY_done = HomeY_done_Buffer;
 4164              		.loc 1 235 0
 4165 00ee 97F82D30 		ldrb	r3, [r7, #45]	@ zero_extendqisi2
 4166 00f2 85F82130 		strb	r3, [r5, #33]
 236:AS76.c        ****     HomeZ_done = HomeZ_done_Buffer;
 4167              		.loc 1 236 0
 4168 00f6 97F82E30 		ldrb	r3, [r7, #46]	@ zero_extendqisi2
 4169 00fa 85F82030 		strb	r3, [r5, #32]
 237:AS76.c        ****     HomeT_done = HomeT_done_Buffer;
 4170              		.loc 1 237 0
 4171 00fe 97F82F30 		ldrb	r3, [r7, #47]	@ zero_extendqisi2
 4172 0102 85F82230 		strb	r3, [r5, #34]
 238:AS76.c        ****     CyDelayUs(100);
 4173              		.loc 1 238 0
 4174 0106 97F83030 		ldrb	r3, [r7, #48]	@ zero_extendqisi2
 4175 010a 85F82830 		strb	r3, [r5, #40]
 239:AS76.c        ****     Write_32bitSPI_DATA (0x21  , (int) 0x0000000, Motor); // Mark the current postion as 0
 4176              		.loc 1 239 0
 4177 010e 6420     		movs	r0, #100
 4178 0110 FFF7FEFF 		bl	CyDelayUs
 4179              	.LVL521:
 240:AS76.c        ****     Write_32bitSPI_DATA (0x2D  , 0x00000000, Motor ); // Set thye target position as 0
 4180              		.loc 1 240 0
 4181 0114 2246     		mov	r2, r4
 4182 0116 3146     		mov	r1, r6
 4183 0118 2120     		movs	r0, #33
 4184 011a FFF7FEFF 		bl	Write_32bitSPI_DATA
 4185              	.LVL522:
 241:AS76.c        ****     update_max_velocity(381178, Motor); // update the motor speed to to 10 rotations per second 536
 4186              		.loc 1 241 0
 4187 011e 2246     		mov	r2, r4
 4188 0120 3146     		mov	r1, r6
 4189 0122 2D20     		movs	r0, #45
ARM GAS  C:\Users\Revanth\AppData\Local\Temp\ccHsQCvB.s 			page 123


 4190 0124 FFF7FEFF 		bl	Write_32bitSPI_DATA
 4191              	.LVL523:
 242:AS76.c        ****     Write_32bitSPI_DATA (0x0B  , (int) 150, Motor );
 4192              		.loc 1 242 0
 4193 0128 2146     		mov	r1, r4
 4194 012a 1148     		ldr	r0, .L263+16
 4195 012c FFF7FEFF 		bl	update_max_velocity
 4196              	.LVL524:
 243:AS76.c        ****     Write_32bitSPI_DATA (0x10  , (int) 0x00070101, Motor );
 4197              		.loc 1 243 0
 4198 0130 2246     		mov	r2, r4
 4199 0132 9621     		movs	r1, #150
 4200 0134 0B20     		movs	r0, #11
 4201 0136 FFF7FEFF 		bl	Write_32bitSPI_DATA
 4202              	.LVL525:
 244:AS76.c        ****     //Write_32bitSPI_DATA (0x25  , (51200*5)-100, Motor );
 4203              		.loc 1 244 0
 4204 013a 2246     		mov	r2, r4
 4205 013c 0D49     		ldr	r1, .L263+20
 4206 013e 1020     		movs	r0, #16
 4207 0140 FFF7FEFF 		bl	Write_32bitSPI_DATA
 4208              	.LVL526:
 248:AS76.c        ****     X_QuadPosition =0 ; // set the encoder variable to 0
 4209              		.loc 1 248 0
 4210 0144 3046     		mov	r0, r6
 4211 0146 FFF7FEFF 		bl	QuadDec_X_SetCounter
 4212              	.LVL527:
 249:AS76.c        ****     HomeX_done = true;
 4213              		.loc 1 249 0
 4214 014a BE60     		str	r6, [r7, #8]
 250:AS76.c        ****     HomeX_done_Buffer = true;
 4215              		.loc 1 250 0
 4216 014c 85F82180 		strb	r8, [r5, #33]
 251:AS76.c        ****     Write_Debug_UART_Char("HomeX executed  \r\n");
 4217              		.loc 1 251 0
 4218 0150 87F82D80 		strb	r8, [r7, #45]
 252:AS76.c        **** 
 4219              		.loc 1 252 0
 4220 0154 0848     		ldr	r0, .L263+24
 4221 0156 FFF7FEFF 		bl	Write_Debug_UART_Char
 4222              	.LVL528:
 4223 015a BDE8F081 		pop	{r4, r5, r6, r7, r8, pc}
 4224              	.L264:
 4225 015e 00BF     		.align	2
 4226              	.L263:
 4227 0160 00000000 		.word	status_x
 4228 0164 00000000 		.word	wait_interrupt_Handler
 4229 0168 00000000 		.word	.LANCHOR0
 4230 016c 00000000 		.word	.LANCHOR1
 4231 0170 FAD00500 		.word	381178
 4232 0174 01010700 		.word	459009
 4233 0178 80040000 		.word	.LC37
 4234              		.cfi_endproc
 4235              	.LFE66:
 4236              		.size	homeX, .-homeX
 4237              		.section	.text.homeY,"ax",%progbits
 4238              		.align	2
ARM GAS  C:\Users\Revanth\AppData\Local\Temp\ccHsQCvB.s 			page 124


 4239              		.global	homeY
 4240              		.thumb
 4241              		.thumb_func
 4242              		.type	homeY, %function
 4243              	homeY:
 4244              	.LFB67:
 292:AS76.c        ****     update_max_velocity((307200), Motor);
 4245              		.loc 1 292 0
 4246              		.cfi_startproc
 4247              		@ args = 0, pretend = 0, frame = 0
 4248              		@ frame_needed = 0, uses_anonymous_args = 0
 4249              	.LVL529:
 4250 0000 2DE9F041 		push	{r4, r5, r6, r7, r8, lr}
 4251              		.cfi_def_cfa_offset 24
 4252              		.cfi_offset 4, -24
 4253              		.cfi_offset 5, -20
 4254              		.cfi_offset 6, -16
 4255              		.cfi_offset 7, -12
 4256              		.cfi_offset 8, -8
 4257              		.cfi_offset 14, -4
 4258 0004 0446     		mov	r4, r0
 293:AS76.c        ****     Write_32bitSPI_DATA (0x20  , (int) 0x00000002, Motor );
 4259              		.loc 1 293 0
 4260 0006 0146     		mov	r1, r0
 4261 0008 4FF49620 		mov	r0, #307200
 4262              	.LVL530:
 4263 000c FFF7FEFF 		bl	update_max_velocity
 4264              	.LVL531:
 294:AS76.c        ****     CyDelayUs(50);
 4265              		.loc 1 294 0
 4266 0010 2246     		mov	r2, r4
 4267 0012 0221     		movs	r1, #2
 4268 0014 2020     		movs	r0, #32
 4269 0016 FFF7FEFF 		bl	Write_32bitSPI_DATA
 4270              	.LVL532:
 295:AS76.c        ****     Read_32bitSPI_DATA(0x04, Motor, &status_y);
 4271              		.loc 1 295 0
 4272 001a 3220     		movs	r0, #50
 4273 001c FFF7FEFF 		bl	CyDelayUs
 4274              	.LVL533:
 296:AS76.c        ****     CyDelayUs(500);
 4275              		.loc 1 296 0
 4276 0020 4F4D     		ldr	r5, .L271
 4277 0022 2A46     		mov	r2, r5
 4278 0024 2146     		mov	r1, r4
 4279 0026 0420     		movs	r0, #4
 4280 0028 FFF7FEFF 		bl	Read_32bitSPI_DATA
 4281              	.LVL534:
 297:AS76.c        ****     Read_32bitSPI_DATA(0x04, Motor, &status_y);
 4282              		.loc 1 297 0
 4283 002c 4FF4FA70 		mov	r0, #500
 4284 0030 FFF7FEFF 		bl	CyDelayUs
 4285              	.LVL535:
 298:AS76.c        ****     while ( (status_y & 0x40) == 0x00)
 4286              		.loc 1 298 0
 4287 0034 2A46     		mov	r2, r5
 4288 0036 2146     		mov	r1, r4
ARM GAS  C:\Users\Revanth\AppData\Local\Temp\ccHsQCvB.s 			page 125


 4289 0038 0420     		movs	r0, #4
 4290 003a FFF7FEFF 		bl	Read_32bitSPI_DATA
 4291              	.LVL536:
 299:AS76.c        ****     {
 4292              		.loc 1 299 0
 4293 003e 2AE0     		b	.L266
 4294              	.L269:
 301:AS76.c        ****         wait_interrupt_StartEx(wait_interrupt_Handler);
 4295              		.loc 1 301 0
 4296 0040 FFF7FEFF 		bl	wait_timer_Start
 4297              	.LVL537:
 302:AS76.c        ****         Read_32bitSPI_DATA(0x04, Motor, &status_y);
 4298              		.loc 1 302 0
 4299 0044 4748     		ldr	r0, .L271+4
 4300 0046 FFF7FEFF 		bl	wait_interrupt_StartEx
 4301              	.LVL538:
 303:AS76.c        ****        
 4302              		.loc 1 303 0
 4303 004a 454A     		ldr	r2, .L271
 4304 004c 2146     		mov	r1, r4
 4305 004e 0420     		movs	r0, #4
 4306 0050 FFF7FEFF 		bl	Read_32bitSPI_DATA
 4307              	.LVL539:
 305:AS76.c        ****         {
 4308              		.loc 1 305 0
 4309 0054 444B     		ldr	r3, .L271+8
 4310 0056 9B78     		ldrb	r3, [r3, #2]	@ zero_extendqisi2
 4311 0058 D3B1     		cbz	r3, .L267
 307:AS76.c        ****         Send_Feedback_to_USB(Error);
 4312              		.loc 1 307 0
 4313 005a 434D     		ldr	r5, .L271+8
 4314 005c 0820     		movs	r0, #8
 4315 005e A862     		str	r0, [r5, #40]
 308:AS76.c        ****         wait_timer_Stop();
 4316              		.loc 1 308 0
 4317 0060 FFF7FEFF 		bl	Send_Feedback_to_USB
 4318              	.LVL540:
 309:AS76.c        ****         Write_32bitSPI_DATA (0x20  , (int) 0x00000000, Motor );
 4319              		.loc 1 309 0
 4320 0064 FFF7FEFF 		bl	wait_timer_Stop
 4321              	.LVL541:
 310:AS76.c        ****         Write_32bitSPI_DATA (0x21  , (int) 0x0000000, Motor); // Mark the current postion as 0
 4322              		.loc 1 310 0
 4323 0068 2246     		mov	r2, r4
 4324 006a 0021     		movs	r1, #0
 4325 006c 2020     		movs	r0, #32
 4326 006e FFF7FEFF 		bl	Write_32bitSPI_DATA
 4327              	.LVL542:
 311:AS76.c        ****         Write_32bitSPI_DATA (0x2D  , 0x00000000, Motor ); // Set thye target position as 0
 4328              		.loc 1 311 0
 4329 0072 2246     		mov	r2, r4
 4330 0074 0021     		movs	r1, #0
 4331 0076 2120     		movs	r0, #33
 4332 0078 FFF7FEFF 		bl	Write_32bitSPI_DATA
 4333              	.LVL543:
 312:AS76.c        ****         exit_loop = 0;
 4334              		.loc 1 312 0
ARM GAS  C:\Users\Revanth\AppData\Local\Temp\ccHsQCvB.s 			page 126


 4335 007c 2246     		mov	r2, r4
 4336 007e 0021     		movs	r1, #0
 4337 0080 2D20     		movs	r0, #45
 4338 0082 FFF7FEFF 		bl	Write_32bitSPI_DATA
 4339              	.LVL544:
 313:AS76.c        ****         Error = 0;
 4340              		.loc 1 313 0
 4341 0086 0023     		movs	r3, #0
 4342 0088 AB70     		strb	r3, [r5, #2]
 314:AS76.c        ****         return;
 4343              		.loc 1 314 0
 4344 008a AB62     		str	r3, [r5, #40]
 315:AS76.c        ****         }
 4345              		.loc 1 315 0
 4346 008c BDE8F081 		pop	{r4, r5, r6, r7, r8, pc}
 4347              	.L267:
 317:AS76.c        ****     }
 4348              		.loc 1 317 0
 4349 0090 6420     		movs	r0, #100
 4350 0092 FFF7FEFF 		bl	CyDelayUs
 4351              	.LVL545:
 4352              	.L266:
 299:AS76.c        ****     {
 4353              		.loc 1 299 0
 4354 0096 324B     		ldr	r3, .L271
 4355 0098 1B78     		ldrb	r3, [r3]	@ zero_extendqisi2
 4356 009a 13F0400F 		tst	r3, #64
 4357 009e CFD0     		beq	.L269
 319:AS76.c        ****     exit_loop =0;
 4358              		.loc 1 319 0
 4359 00a0 FFF7FEFF 		bl	wait_timer_Stop
 4360              	.LVL546:
 320:AS76.c        ****     
 4361              		.loc 1 320 0
 4362 00a4 304F     		ldr	r7, .L271+8
 4363 00a6 0026     		movs	r6, #0
 4364 00a8 BE70     		strb	r6, [r7, #2]
 323:AS76.c        ****     CyDelayUs(10);
 4365              		.loc 1 323 0
 4366 00aa 2246     		mov	r2, r4
 4367 00ac 3146     		mov	r1, r6
 4368 00ae 2120     		movs	r0, #33
 4369 00b0 FFF7FEFF 		bl	Write_32bitSPI_DATA
 4370              	.LVL547:
 324:AS76.c        ****     /*
 4371              		.loc 1 324 0
 4372 00b4 0A20     		movs	r0, #10
 4373 00b6 FFF7FEFF 		bl	CyDelayUs
 4374              	.LVL548:
 352:AS76.c        ****     //Y_last_position = 0;
 4375              		.loc 1 352 0
 4376 00ba 2246     		mov	r2, r4
 4377 00bc 3146     		mov	r1, r6
 4378 00be 2120     		movs	r0, #33
 4379 00c0 FFF7FEFF 		bl	Write_32bitSPI_DATA
 4380              	.LVL549:
 354:AS76.c        ****     HomeX_done = true;
ARM GAS  C:\Users\Revanth\AppData\Local\Temp\ccHsQCvB.s 			page 127


 4381              		.loc 1 354 0
 4382 00c4 3046     		mov	r0, r6
 4383 00c6 FFF7FEFF 		bl	QuadDec_Y_SetCounter
 4384              	.LVL550:
 355:AS76.c        ****     HomeY_done = true;
 4385              		.loc 1 355 0
 4386 00ca 284D     		ldr	r5, .L271+12
 4387 00cc 4FF00108 		mov	r8, #1
 4388 00d0 85F82180 		strb	r8, [r5, #33]
 356:AS76.c        ****     HomeZ_done = true;
 4389              		.loc 1 356 0
 4390 00d4 85F82080 		strb	r8, [r5, #32]
 357:AS76.c        ****     HomeT_done = true;
 4391              		.loc 1 357 0
 4392 00d8 85F82280 		strb	r8, [r5, #34]
 358:AS76.c        ****     CyDelayUs(100);
 4393              		.loc 1 358 0
 4394 00dc 85F82880 		strb	r8, [r5, #40]
 359:AS76.c        ****     //goTo_Y((256*200)*1);
 4395              		.loc 1 359 0
 4396 00e0 6420     		movs	r0, #100
 4397 00e2 FFF7FEFF 		bl	CyDelayUs
 4398              	.LVL551:
 361:AS76.c        ****     HomeX_done = HomeX_done_Buffer;
 4399              		.loc 1 361 0
 4400 00e6 4FF49640 		mov	r0, #19200
 4401 00ea FFF7FEFF 		bl	goTo_Y
 4402              	.LVL552:
 362:AS76.c        ****     HomeY_done = HomeY_done_Buffer;
 4403              		.loc 1 362 0
 4404 00ee 97F82D30 		ldrb	r3, [r7, #45]	@ zero_extendqisi2
 4405 00f2 85F82130 		strb	r3, [r5, #33]
 363:AS76.c        ****     HomeZ_done = HomeZ_done_Buffer;
 4406              		.loc 1 363 0
 4407 00f6 97F82E30 		ldrb	r3, [r7, #46]	@ zero_extendqisi2
 4408 00fa 85F82030 		strb	r3, [r5, #32]
 364:AS76.c        ****     HomeT_done = HomeT_done_Buffer;
 4409              		.loc 1 364 0
 4410 00fe 97F82F30 		ldrb	r3, [r7, #47]	@ zero_extendqisi2
 4411 0102 85F82230 		strb	r3, [r5, #34]
 365:AS76.c        ****     CyDelayUs(100);
 4412              		.loc 1 365 0
 4413 0106 97F83030 		ldrb	r3, [r7, #48]	@ zero_extendqisi2
 4414 010a 85F82830 		strb	r3, [r5, #40]
 366:AS76.c        ****     Write_32bitSPI_DATA (0x21  , (int) 0x0000000, Motor); 
 4415              		.loc 1 366 0
 4416 010e 6420     		movs	r0, #100
 4417 0110 FFF7FEFF 		bl	CyDelayUs
 4418              	.LVL553:
 367:AS76.c        ****     Write_32bitSPI_DATA (0x2D  , 0x00000000, Motor );
 4419              		.loc 1 367 0
 4420 0114 2246     		mov	r2, r4
 4421 0116 3146     		mov	r1, r6
 4422 0118 2120     		movs	r0, #33
 4423 011a FFF7FEFF 		bl	Write_32bitSPI_DATA
 4424              	.LVL554:
 368:AS76.c        ****     update_max_velocity(381178, Motor);
ARM GAS  C:\Users\Revanth\AppData\Local\Temp\ccHsQCvB.s 			page 128


 4425              		.loc 1 368 0
 4426 011e 2246     		mov	r2, r4
 4427 0120 3146     		mov	r1, r6
 4428 0122 2D20     		movs	r0, #45
 4429 0124 FFF7FEFF 		bl	Write_32bitSPI_DATA
 4430              	.LVL555:
 369:AS76.c        ****     Write_32bitSPI_DATA (0x0B  , 0, Motor );
 4431              		.loc 1 369 0
 4432 0128 2146     		mov	r1, r4
 4433 012a 1148     		ldr	r0, .L271+16
 4434 012c FFF7FEFF 		bl	update_max_velocity
 4435              	.LVL556:
 370:AS76.c        ****     Write_32bitSPI_DATA (0x10  , (int) 0x00070101, Motor );
 4436              		.loc 1 370 0
 4437 0130 2246     		mov	r2, r4
 4438 0132 3146     		mov	r1, r6
 4439 0134 0B20     		movs	r0, #11
 4440 0136 FFF7FEFF 		bl	Write_32bitSPI_DATA
 4441              	.LVL557:
 371:AS76.c        ****     //Write_32bitSPI_DATA (0x25  , (51200*5)-100, Motor );
 4442              		.loc 1 371 0
 4443 013a 2246     		mov	r2, r4
 4444 013c 0D49     		ldr	r1, .L271+20
 4445 013e 1020     		movs	r0, #16
 4446 0140 FFF7FEFF 		bl	Write_32bitSPI_DATA
 4447              	.LVL558:
 375:AS76.c        ****     X_QuadPosition =0 ;
 4448              		.loc 1 375 0
 4449 0144 3046     		mov	r0, r6
 4450 0146 FFF7FEFF 		bl	QuadDec_Y_SetCounter
 4451              	.LVL559:
 376:AS76.c        ****     HomeY_done = true;
 4452              		.loc 1 376 0
 4453 014a BE60     		str	r6, [r7, #8]
 377:AS76.c        ****     HomeY_done_Buffer = true;
 4454              		.loc 1 377 0
 4455 014c 85F82080 		strb	r8, [r5, #32]
 378:AS76.c        ****     Write_Debug_UART_Char("HomeY executed  \r\n");
 4456              		.loc 1 378 0
 4457 0150 87F82E80 		strb	r8, [r7, #46]
 379:AS76.c        **** 
 4458              		.loc 1 379 0
 4459 0154 0848     		ldr	r0, .L271+24
 4460 0156 FFF7FEFF 		bl	Write_Debug_UART_Char
 4461              	.LVL560:
 4462 015a BDE8F081 		pop	{r4, r5, r6, r7, r8, pc}
 4463              	.L272:
 4464 015e 00BF     		.align	2
 4465              	.L271:
 4466 0160 00000000 		.word	status_y
 4467 0164 00000000 		.word	wait_interrupt_Handler
 4468 0168 00000000 		.word	.LANCHOR0
 4469 016c 00000000 		.word	.LANCHOR1
 4470 0170 FAD00500 		.word	381178
 4471 0174 01010700 		.word	459009
 4472 0178 94040000 		.word	.LC38
 4473              		.cfi_endproc
ARM GAS  C:\Users\Revanth\AppData\Local\Temp\ccHsQCvB.s 			page 129


 4474              	.LFE67:
 4475              		.size	homeY, .-homeY
 4476              		.section	.text.homeZ,"ax",%progbits
 4477              		.align	2
 4478              		.global	homeZ
 4479              		.thumb
 4480              		.thumb_func
 4481              		.type	homeZ, %function
 4482              	homeZ:
 4483              	.LFB68:
 419:AS76.c        ****     update_max_velocity((53687*2), Motor);
 4484              		.loc 1 419 0
 4485              		.cfi_startproc
 4486              		@ args = 0, pretend = 0, frame = 0
 4487              		@ frame_needed = 0, uses_anonymous_args = 0
 4488              	.LVL561:
 4489 0000 2DE9F041 		push	{r4, r5, r6, r7, r8, lr}
 4490              		.cfi_def_cfa_offset 24
 4491              		.cfi_offset 4, -24
 4492              		.cfi_offset 5, -20
 4493              		.cfi_offset 6, -16
 4494              		.cfi_offset 7, -12
 4495              		.cfi_offset 8, -8
 4496              		.cfi_offset 14, -4
 4497 0004 0446     		mov	r4, r0
 420:AS76.c        ****     Enable_Encoder_Z(-Buffer_Z_QuadPosition);
 4498              		.loc 1 420 0
 4499 0006 0146     		mov	r1, r0
 4500 0008 5448     		ldr	r0, .L279
 4501              	.LVL562:
 4502 000a FFF7FEFF 		bl	update_max_velocity
 4503              	.LVL563:
 421:AS76.c        ****     Write_32bitSPI_DATA (0x20  , (int) 0x00000002, Motor );
 4504              		.loc 1 421 0
 4505 000e 544B     		ldr	r3, .L279+4
 4506 0010 9869     		ldr	r0, [r3, #24]
 4507 0012 4042     		negs	r0, r0
 4508 0014 FFF7FEFF 		bl	Enable_Encoder_Z
 4509              	.LVL564:
 422:AS76.c        ****     CyDelayUs(50);
 4510              		.loc 1 422 0
 4511 0018 2246     		mov	r2, r4
 4512 001a 0221     		movs	r1, #2
 4513 001c 2020     		movs	r0, #32
 4514 001e FFF7FEFF 		bl	Write_32bitSPI_DATA
 4515              	.LVL565:
 423:AS76.c        ****     Read_32bitSPI_DATA(0x04, Motor, &status_z);
 4516              		.loc 1 423 0
 4517 0022 3220     		movs	r0, #50
 4518 0024 FFF7FEFF 		bl	CyDelayUs
 4519              	.LVL566:
 424:AS76.c        ****     CyDelayUs(500);
 4520              		.loc 1 424 0
 4521 0028 4E4D     		ldr	r5, .L279+8
 4522 002a 2A46     		mov	r2, r5
 4523 002c 2146     		mov	r1, r4
 4524 002e 0420     		movs	r0, #4
ARM GAS  C:\Users\Revanth\AppData\Local\Temp\ccHsQCvB.s 			page 130


 4525 0030 FFF7FEFF 		bl	Read_32bitSPI_DATA
 4526              	.LVL567:
 425:AS76.c        ****     Read_32bitSPI_DATA(0x04, Motor, &status_z);
 4527              		.loc 1 425 0
 4528 0034 4FF4FA70 		mov	r0, #500
 4529 0038 FFF7FEFF 		bl	CyDelayUs
 4530              	.LVL568:
 426:AS76.c        ****     while ( (status_z & 0x40) == 0x00)
 4531              		.loc 1 426 0
 4532 003c 2A46     		mov	r2, r5
 4533 003e 2146     		mov	r1, r4
 4534 0040 0420     		movs	r0, #4
 4535 0042 FFF7FEFF 		bl	Read_32bitSPI_DATA
 4536              	.LVL569:
 427:AS76.c        ****     {
 4537              		.loc 1 427 0
 4538 0046 29E0     		b	.L274
 4539              	.L277:
 429:AS76.c        ****        wait_interrupt_StartEx(wait_interrupt_Handler);
 4540              		.loc 1 429 0
 4541 0048 FFF7FEFF 		bl	wait_timer_Start
 4542              	.LVL570:
 430:AS76.c        ****        Read_32bitSPI_DATA(0x04, Motor, &status_z);
 4543              		.loc 1 430 0
 4544 004c 4648     		ldr	r0, .L279+12
 4545 004e FFF7FEFF 		bl	wait_interrupt_StartEx
 4546              	.LVL571:
 431:AS76.c        ****        if(exit_loop == 1)
 4547              		.loc 1 431 0
 4548 0052 444A     		ldr	r2, .L279+8
 4549 0054 2146     		mov	r1, r4
 4550 0056 0420     		movs	r0, #4
 4551 0058 FFF7FEFF 		bl	Read_32bitSPI_DATA
 4552              	.LVL572:
 432:AS76.c        ****             {
 4553              		.loc 1 432 0
 4554 005c 404B     		ldr	r3, .L279+4
 4555 005e 9B78     		ldrb	r3, [r3, #2]	@ zero_extendqisi2
 4556 0060 CBB1     		cbz	r3, .L275
 434:AS76.c        ****             Send_Feedback_to_USB(Error);
 4557              		.loc 1 434 0
 4558 0062 3F4D     		ldr	r5, .L279+4
 4559 0064 0F20     		movs	r0, #15
 4560 0066 A862     		str	r0, [r5, #40]
 435:AS76.c        ****             wait_timer_Stop();
 4561              		.loc 1 435 0
 4562 0068 FFF7FEFF 		bl	Send_Feedback_to_USB
 4563              	.LVL573:
 436:AS76.c        ****             Write_32bitSPI_DATA (0x20  , (int) 0x00000000, Motor );
 4564              		.loc 1 436 0
 4565 006c FFF7FEFF 		bl	wait_timer_Stop
 4566              	.LVL574:
 437:AS76.c        ****             Write_32bitSPI_DATA (0x21  , (int) 0x0000000, Motor); // Mark the current postion as 0
 4567              		.loc 1 437 0
 4568 0070 2246     		mov	r2, r4
 4569 0072 0021     		movs	r1, #0
 4570 0074 2020     		movs	r0, #32
ARM GAS  C:\Users\Revanth\AppData\Local\Temp\ccHsQCvB.s 			page 131


 4571 0076 FFF7FEFF 		bl	Write_32bitSPI_DATA
 4572              	.LVL575:
 438:AS76.c        ****             Write_32bitSPI_DATA (0x2D  , 0x00000000, Motor ); // Set thye target position as 0
 4573              		.loc 1 438 0
 4574 007a 2246     		mov	r2, r4
 4575 007c 0021     		movs	r1, #0
 4576 007e 2120     		movs	r0, #33
 4577 0080 FFF7FEFF 		bl	Write_32bitSPI_DATA
 4578              	.LVL576:
 439:AS76.c        ****             exit_loop = 0;
 4579              		.loc 1 439 0
 4580 0084 2246     		mov	r2, r4
 4581 0086 0021     		movs	r1, #0
 4582 0088 2D20     		movs	r0, #45
 4583 008a FFF7FEFF 		bl	Write_32bitSPI_DATA
 4584              	.LVL577:
 440:AS76.c        ****             return;
 4585              		.loc 1 440 0
 4586 008e 0023     		movs	r3, #0
 4587 0090 AB70     		strb	r3, [r5, #2]
 441:AS76.c        ****             //break;
 4588              		.loc 1 441 0
 4589 0092 BDE8F081 		pop	{r4, r5, r6, r7, r8, pc}
 4590              	.L275:
 444:AS76.c        ****     }
 4591              		.loc 1 444 0
 4592 0096 6420     		movs	r0, #100
 4593 0098 FFF7FEFF 		bl	CyDelayUs
 4594              	.LVL578:
 4595              	.L274:
 427:AS76.c        ****     {
 4596              		.loc 1 427 0
 4597 009c 314B     		ldr	r3, .L279+8
 4598 009e 1B78     		ldrb	r3, [r3]	@ zero_extendqisi2
 4599 00a0 13F0400F 		tst	r3, #64
 4600 00a4 D0D0     		beq	.L277
 446:AS76.c        ****     exit_loop =0;
 4601              		.loc 1 446 0
 4602 00a6 FFF7FEFF 		bl	wait_timer_Stop
 4603              	.LVL579:
 447:AS76.c        ****     
 4604              		.loc 1 447 0
 4605 00aa 2D4E     		ldr	r6, .L279+4
 4606 00ac 0025     		movs	r5, #0
 4607 00ae B570     		strb	r5, [r6, #2]
 449:AS76.c        ****     //Z_last_position = 0;
 4608              		.loc 1 449 0
 4609 00b0 2246     		mov	r2, r4
 4610 00b2 2946     		mov	r1, r5
 4611 00b4 2120     		movs	r0, #33
 4612 00b6 FFF7FEFF 		bl	Write_32bitSPI_DATA
 4613              	.LVL580:
 451:AS76.c        ****     Buffer_Z_QuadPosition=0;
 4614              		.loc 1 451 0
 4615 00ba 2846     		mov	r0, r5
 4616 00bc FFF7FEFF 		bl	Enable_Encoder_Z
 4617              	.LVL581:
ARM GAS  C:\Users\Revanth\AppData\Local\Temp\ccHsQCvB.s 			page 132


 452:AS76.c        ****     CyDelayUs(10);
 4618              		.loc 1 452 0
 4619 00c0 B561     		str	r5, [r6, #24]
 453:AS76.c        ****     /*
 4620              		.loc 1 453 0
 4621 00c2 0A20     		movs	r0, #10
 4622 00c4 FFF7FEFF 		bl	CyDelayUs
 4623              	.LVL582:
 479:AS76.c        ****     //Z_last_position = 0;
 4624              		.loc 1 479 0
 4625 00c8 2246     		mov	r2, r4
 4626 00ca 2946     		mov	r1, r5
 4627 00cc 2120     		movs	r0, #33
 4628 00ce FFF7FEFF 		bl	Write_32bitSPI_DATA
 4629              	.LVL583:
 481:AS76.c        ****     Buffer_Z_QuadPosition=0;
 4630              		.loc 1 481 0
 4631 00d2 2846     		mov	r0, r5
 4632 00d4 FFF7FEFF 		bl	Enable_Encoder_Z
 4633              	.LVL584:
 482:AS76.c        ****     HomeX_done = true;
 4634              		.loc 1 482 0
 4635 00d8 B561     		str	r5, [r6, #24]
 483:AS76.c        ****     HomeY_done = true;
 4636              		.loc 1 483 0
 4637 00da 244F     		ldr	r7, .L279+16
 4638 00dc 4FF00108 		mov	r8, #1
 4639 00e0 87F82180 		strb	r8, [r7, #33]
 484:AS76.c        ****     HomeZ_done = true;
 4640              		.loc 1 484 0
 4641 00e4 87F82080 		strb	r8, [r7, #32]
 485:AS76.c        ****     HomeT_done = true;
 4642              		.loc 1 485 0
 4643 00e8 87F82280 		strb	r8, [r7, #34]
 486:AS76.c        ****     CyDelayUs(100);
 4644              		.loc 1 486 0
 4645 00ec 87F82880 		strb	r8, [r7, #40]
 487:AS76.c        ****     goTo_Z(((256*200)*1));
 4646              		.loc 1 487 0
 4647 00f0 6420     		movs	r0, #100
 4648 00f2 FFF7FEFF 		bl	CyDelayUs
 4649              	.LVL585:
 488:AS76.c        ****     HomeX_done = HomeX_done_Buffer;
 4650              		.loc 1 488 0
 4651 00f6 4FF44840 		mov	r0, #51200
 4652 00fa FFF7FEFF 		bl	goTo_Z
 4653              	.LVL586:
 489:AS76.c        ****     HomeY_done = HomeY_done_Buffer;
 4654              		.loc 1 489 0
 4655 00fe 96F82D30 		ldrb	r3, [r6, #45]	@ zero_extendqisi2
 4656 0102 87F82130 		strb	r3, [r7, #33]
 490:AS76.c        ****     HomeZ_done = HomeZ_done_Buffer;
 4657              		.loc 1 490 0
 4658 0106 96F82E30 		ldrb	r3, [r6, #46]	@ zero_extendqisi2
 4659 010a 87F82030 		strb	r3, [r7, #32]
 491:AS76.c        ****     HomeT_done = HomeT_done_Buffer;
 4660              		.loc 1 491 0
ARM GAS  C:\Users\Revanth\AppData\Local\Temp\ccHsQCvB.s 			page 133


 4661 010e 96F82F30 		ldrb	r3, [r6, #47]	@ zero_extendqisi2
 4662 0112 87F82230 		strb	r3, [r7, #34]
 492:AS76.c        ****     CyDelayUs(100);
 4663              		.loc 1 492 0
 4664 0116 96F83030 		ldrb	r3, [r6, #48]	@ zero_extendqisi2
 4665 011a 87F82830 		strb	r3, [r7, #40]
 493:AS76.c        ****     Write_32bitSPI_DATA (0x21  , (int) 0x0000000, Motor); 
 4666              		.loc 1 493 0
 4667 011e 6420     		movs	r0, #100
 4668 0120 FFF7FEFF 		bl	CyDelayUs
 4669              	.LVL587:
 494:AS76.c        ****     Write_32bitSPI_DATA (0x2D  , 0x00000000, Motor );
 4670              		.loc 1 494 0
 4671 0124 2246     		mov	r2, r4
 4672 0126 2946     		mov	r1, r5
 4673 0128 2120     		movs	r0, #33
 4674 012a FFF7FEFF 		bl	Write_32bitSPI_DATA
 4675              	.LVL588:
 495:AS76.c        ****     update_max_velocity(53687*2, Motor);
 4676              		.loc 1 495 0
 4677 012e 2246     		mov	r2, r4
 4678 0130 2946     		mov	r1, r5
 4679 0132 2D20     		movs	r0, #45
 4680 0134 FFF7FEFF 		bl	Write_32bitSPI_DATA
 4681              	.LVL589:
 496:AS76.c        **** 
 4682              		.loc 1 496 0
 4683 0138 2146     		mov	r1, r4
 4684 013a 0848     		ldr	r0, .L279
 4685 013c FFF7FEFF 		bl	update_max_velocity
 4686              	.LVL590:
 499:AS76.c        ****     Buffer_Z_QuadPosition=0;
 4687              		.loc 1 499 0
 4688 0140 2846     		mov	r0, r5
 4689 0142 FFF7FEFF 		bl	Enable_Encoder_Z
 4690              	.LVL591:
 500:AS76.c        ****     HomeZ_done = true;
 4691              		.loc 1 500 0
 4692 0146 B561     		str	r5, [r6, #24]
 501:AS76.c        ****     HomeZ_done_Buffer = true;
 4693              		.loc 1 501 0
 4694 0148 87F82280 		strb	r8, [r7, #34]
 502:AS76.c        ****     Write_Debug_UART_Char("HomeZ executed  \r\n");
 4695              		.loc 1 502 0
 4696 014c 86F82F80 		strb	r8, [r6, #47]
 503:AS76.c        **** 
 4697              		.loc 1 503 0
 4698 0150 0748     		ldr	r0, .L279+20
 4699 0152 FFF7FEFF 		bl	Write_Debug_UART_Char
 4700              	.LVL592:
 4701 0156 BDE8F081 		pop	{r4, r5, r6, r7, r8, pc}
 4702              	.L280:
 4703 015a 00BF     		.align	2
 4704              	.L279:
 4705 015c 6EA30100 		.word	107374
 4706 0160 00000000 		.word	.LANCHOR0
 4707 0164 00000000 		.word	status_z
ARM GAS  C:\Users\Revanth\AppData\Local\Temp\ccHsQCvB.s 			page 134


 4708 0168 00000000 		.word	wait_interrupt_Handler
 4709 016c 00000000 		.word	.LANCHOR1
 4710 0170 A8040000 		.word	.LC39
 4711              		.cfi_endproc
 4712              	.LFE68:
 4713              		.size	homeZ, .-homeZ
 4714              		.section	.text.homeT,"ax",%progbits
 4715              		.align	2
 4716              		.global	homeT
 4717              		.thumb
 4718              		.thumb_func
 4719              		.type	homeT, %function
 4720              	homeT:
 4721              	.LFB69:
 512:AS76.c        ****     TMC5160_MotorT_EN_Write(0x00);
 4722              		.loc 1 512 0
 4723              		.cfi_startproc
 4724              		@ args = 0, pretend = 0, frame = 0
 4725              		@ frame_needed = 0, uses_anonymous_args = 0
 4726              	.LVL593:
 4727 0000 2DE9F041 		push	{r4, r5, r6, r7, r8, lr}
 4728              		.cfi_def_cfa_offset 24
 4729              		.cfi_offset 4, -24
 4730              		.cfi_offset 5, -20
 4731              		.cfi_offset 6, -16
 4732              		.cfi_offset 7, -12
 4733              		.cfi_offset 8, -8
 4734              		.cfi_offset 14, -4
 4735 0004 0446     		mov	r4, r0
 513:AS76.c        ****     CyDelayUs(100);
 4736              		.loc 1 513 0
 4737 0006 0020     		movs	r0, #0
 4738              	.LVL594:
 4739 0008 FFF7FEFF 		bl	TMC5160_MotorT_EN_Write
 4740              	.LVL595:
 514:AS76.c        ****     update_max_velocity(12800, Motor);
 4741              		.loc 1 514 0
 4742 000c 6420     		movs	r0, #100
 4743 000e FFF7FEFF 		bl	CyDelayUs
 4744              	.LVL596:
 515:AS76.c        ****     Enable_Encoder_T(-Buffer_T_QuadPosition);
 4745              		.loc 1 515 0
 4746 0012 2146     		mov	r1, r4
 4747 0014 4FF44850 		mov	r0, #12800
 4748 0018 FFF7FEFF 		bl	update_max_velocity
 4749              	.LVL597:
 516:AS76.c        ****     Write_32bitSPI_DATA (0x20  , (int) 0x00000002, Motor );
 4750              		.loc 1 516 0
 4751 001c 544B     		ldr	r3, .L287
 4752 001e D869     		ldr	r0, [r3, #28]
 4753 0020 4042     		negs	r0, r0
 4754 0022 FFF7FEFF 		bl	Enable_Encoder_T
 4755              	.LVL598:
 517:AS76.c        ****     CyDelayUs(50);
 4756              		.loc 1 517 0
 4757 0026 2246     		mov	r2, r4
 4758 0028 0221     		movs	r1, #2
ARM GAS  C:\Users\Revanth\AppData\Local\Temp\ccHsQCvB.s 			page 135


 4759 002a 2020     		movs	r0, #32
 4760 002c FFF7FEFF 		bl	Write_32bitSPI_DATA
 4761              	.LVL599:
 518:AS76.c        ****     Read_32bitSPI_DATA(0x04, Motor, &status_z);
 4762              		.loc 1 518 0
 4763 0030 3220     		movs	r0, #50
 4764 0032 FFF7FEFF 		bl	CyDelayUs
 4765              	.LVL600:
 519:AS76.c        ****     CyDelayUs(500);
 4766              		.loc 1 519 0
 4767 0036 4F4D     		ldr	r5, .L287+4
 4768 0038 2A46     		mov	r2, r5
 4769 003a 2146     		mov	r1, r4
 4770 003c 0420     		movs	r0, #4
 4771 003e FFF7FEFF 		bl	Read_32bitSPI_DATA
 4772              	.LVL601:
 520:AS76.c        ****     Read_32bitSPI_DATA(0x04, Motor, &status_z);
 4773              		.loc 1 520 0
 4774 0042 4FF4FA70 		mov	r0, #500
 4775 0046 FFF7FEFF 		bl	CyDelayUs
 4776              	.LVL602:
 521:AS76.c        ****     while ( (status_z & 0x40) == 0x00)
 4777              		.loc 1 521 0
 4778 004a 2A46     		mov	r2, r5
 4779 004c 2146     		mov	r1, r4
 4780 004e 0420     		movs	r0, #4
 4781 0050 FFF7FEFF 		bl	Read_32bitSPI_DATA
 4782              	.LVL603:
 522:AS76.c        ****     {
 4783              		.loc 1 522 0
 4784 0054 2AE0     		b	.L282
 4785              	.L285:
 524:AS76.c        ****        wait_interrupt_StartEx(wait_interrupt_Handler);
 4786              		.loc 1 524 0
 4787 0056 FFF7FEFF 		bl	wait_timer_Start
 4788              	.LVL604:
 525:AS76.c        ****        Read_32bitSPI_DATA(0x04, Motor, &status_z);
 4789              		.loc 1 525 0
 4790 005a 4748     		ldr	r0, .L287+8
 4791 005c FFF7FEFF 		bl	wait_interrupt_StartEx
 4792              	.LVL605:
 526:AS76.c        ****        if(exit_loop == 1)
 4793              		.loc 1 526 0
 4794 0060 444A     		ldr	r2, .L287+4
 4795 0062 2146     		mov	r1, r4
 4796 0064 0420     		movs	r0, #4
 4797 0066 FFF7FEFF 		bl	Read_32bitSPI_DATA
 4798              	.LVL606:
 527:AS76.c        ****             {
 4799              		.loc 1 527 0
 4800 006a 414B     		ldr	r3, .L287
 4801 006c 9B78     		ldrb	r3, [r3, #2]	@ zero_extendqisi2
 4802 006e D3B1     		cbz	r3, .L283
 529:AS76.c        ****             Send_Feedback_to_USB(Error);
 4803              		.loc 1 529 0
 4804 0070 3F4D     		ldr	r5, .L287
 4805 0072 1620     		movs	r0, #22
ARM GAS  C:\Users\Revanth\AppData\Local\Temp\ccHsQCvB.s 			page 136


 4806 0074 A862     		str	r0, [r5, #40]
 530:AS76.c        ****             wait_timer_Stop();
 4807              		.loc 1 530 0
 4808 0076 FFF7FEFF 		bl	Send_Feedback_to_USB
 4809              	.LVL607:
 531:AS76.c        ****             Write_32bitSPI_DATA (0x20  , (int) 0x00000000, Motor );
 4810              		.loc 1 531 0
 4811 007a FFF7FEFF 		bl	wait_timer_Stop
 4812              	.LVL608:
 532:AS76.c        ****             Write_32bitSPI_DATA (0x21  , (int) 0x0000000, Motor); // Mark the current postion as 0
 4813              		.loc 1 532 0
 4814 007e 2246     		mov	r2, r4
 4815 0080 0021     		movs	r1, #0
 4816 0082 2020     		movs	r0, #32
 4817 0084 FFF7FEFF 		bl	Write_32bitSPI_DATA
 4818              	.LVL609:
 533:AS76.c        ****             Write_32bitSPI_DATA (0x2D  , 0x00000000, Motor ); // Set thye target position as 0
 4819              		.loc 1 533 0
 4820 0088 2246     		mov	r2, r4
 4821 008a 0021     		movs	r1, #0
 4822 008c 2120     		movs	r0, #33
 4823 008e FFF7FEFF 		bl	Write_32bitSPI_DATA
 4824              	.LVL610:
 534:AS76.c        ****             exit_loop = 0;
 4825              		.loc 1 534 0
 4826 0092 2246     		mov	r2, r4
 4827 0094 0021     		movs	r1, #0
 4828 0096 2D20     		movs	r0, #45
 4829 0098 FFF7FEFF 		bl	Write_32bitSPI_DATA
 4830              	.LVL611:
 535:AS76.c        ****             Error =0;
 4831              		.loc 1 535 0
 4832 009c 0023     		movs	r3, #0
 4833 009e AB70     		strb	r3, [r5, #2]
 536:AS76.c        ****             return;
 4834              		.loc 1 536 0
 4835 00a0 AB62     		str	r3, [r5, #40]
 537:AS76.c        ****             //break;
 4836              		.loc 1 537 0
 4837 00a2 BDE8F081 		pop	{r4, r5, r6, r7, r8, pc}
 4838              	.L283:
 540:AS76.c        ****     }
 4839              		.loc 1 540 0
 4840 00a6 6420     		movs	r0, #100
 4841 00a8 FFF7FEFF 		bl	CyDelayUs
 4842              	.LVL612:
 4843              	.L282:
 522:AS76.c        ****     {
 4844              		.loc 1 522 0
 4845 00ac 314B     		ldr	r3, .L287+4
 4846 00ae 1B78     		ldrb	r3, [r3]	@ zero_extendqisi2
 4847 00b0 13F0400F 		tst	r3, #64
 4848 00b4 CFD0     		beq	.L285
 542:AS76.c        ****     exit_loop =0;
 4849              		.loc 1 542 0
 4850 00b6 FFF7FEFF 		bl	wait_timer_Stop
 4851              	.LVL613:
ARM GAS  C:\Users\Revanth\AppData\Local\Temp\ccHsQCvB.s 			page 137


 543:AS76.c        ****     
 4852              		.loc 1 543 0
 4853 00ba 2D4F     		ldr	r7, .L287
 4854 00bc 0026     		movs	r6, #0
 4855 00be BE70     		strb	r6, [r7, #2]
 545:AS76.c        ****     CyDelayUs(10);
 4856              		.loc 1 545 0
 4857 00c0 2246     		mov	r2, r4
 4858 00c2 3146     		mov	r1, r6
 4859 00c4 2120     		movs	r0, #33
 4860 00c6 FFF7FEFF 		bl	Write_32bitSPI_DATA
 4861              	.LVL614:
 546:AS76.c        ****     /*
 4862              		.loc 1 546 0
 4863 00ca 0A20     		movs	r0, #10
 4864 00cc FFF7FEFF 		bl	CyDelayUs
 4865              	.LVL615:
 571:AS76.c        ****     //T_last_position = 0;
 4866              		.loc 1 571 0
 4867 00d0 2246     		mov	r2, r4
 4868 00d2 3146     		mov	r1, r6
 4869 00d4 2120     		movs	r0, #33
 4870 00d6 FFF7FEFF 		bl	Write_32bitSPI_DATA
 4871              	.LVL616:
 573:AS76.c        ****     Buffer_T_QuadPosition=0;
 4872              		.loc 1 573 0
 4873 00da 3046     		mov	r0, r6
 4874 00dc FFF7FEFF 		bl	Enable_Encoder_T
 4875              	.LVL617:
 574:AS76.c        ****     HomeX_done = true;
 4876              		.loc 1 574 0
 4877 00e0 FE61     		str	r6, [r7, #28]
 575:AS76.c        ****     HomeY_done = true;
 4878              		.loc 1 575 0
 4879 00e2 264D     		ldr	r5, .L287+12
 4880 00e4 4FF00108 		mov	r8, #1
 4881 00e8 85F82180 		strb	r8, [r5, #33]
 576:AS76.c        ****     HomeZ_done = true;
 4882              		.loc 1 576 0
 4883 00ec 85F82080 		strb	r8, [r5, #32]
 577:AS76.c        ****     HomeT_done = true;
 4884              		.loc 1 577 0
 4885 00f0 85F82280 		strb	r8, [r5, #34]
 578:AS76.c        ****     CyDelayUs(100); 
 4886              		.loc 1 578 0
 4887 00f4 85F82880 		strb	r8, [r5, #40]
 579:AS76.c        ****     goTo_T(3800);
 4888              		.loc 1 579 0
 4889 00f8 6420     		movs	r0, #100
 4890 00fa FFF7FEFF 		bl	CyDelayUs
 4891              	.LVL618:
 580:AS76.c        ****     HomeX_done = HomeX_done_Buffer;
 4892              		.loc 1 580 0
 4893 00fe 40F6D860 		movw	r0, #3800
 4894 0102 FFF7FEFF 		bl	goTo_T
 4895              	.LVL619:
 581:AS76.c        ****     HomeY_done = HomeY_done_Buffer;
ARM GAS  C:\Users\Revanth\AppData\Local\Temp\ccHsQCvB.s 			page 138


 4896              		.loc 1 581 0
 4897 0106 97F82D30 		ldrb	r3, [r7, #45]	@ zero_extendqisi2
 4898 010a 85F82130 		strb	r3, [r5, #33]
 582:AS76.c        ****     HomeZ_done = HomeZ_done_Buffer;
 4899              		.loc 1 582 0
 4900 010e 97F82E30 		ldrb	r3, [r7, #46]	@ zero_extendqisi2
 4901 0112 85F82030 		strb	r3, [r5, #32]
 583:AS76.c        ****     HomeT_done = HomeT_done_Buffer;
 4902              		.loc 1 583 0
 4903 0116 97F82F30 		ldrb	r3, [r7, #47]	@ zero_extendqisi2
 4904 011a 85F82230 		strb	r3, [r5, #34]
 584:AS76.c        ****     CyDelayUs(100);
 4905              		.loc 1 584 0
 4906 011e 97F83030 		ldrb	r3, [r7, #48]	@ zero_extendqisi2
 4907 0122 85F82830 		strb	r3, [r5, #40]
 585:AS76.c        ****     Write_32bitSPI_DATA (0x21  , (int) 0x0000000, Motor); 
 4908              		.loc 1 585 0
 4909 0126 6420     		movs	r0, #100
 4910 0128 FFF7FEFF 		bl	CyDelayUs
 4911              	.LVL620:
 586:AS76.c        ****     Write_32bitSPI_DATA (0x2D  , 0x00000000, Motor );
 4912              		.loc 1 586 0
 4913 012c 2246     		mov	r2, r4
 4914 012e 3146     		mov	r1, r6
 4915 0130 2120     		movs	r0, #33
 4916 0132 FFF7FEFF 		bl	Write_32bitSPI_DATA
 4917              	.LVL621:
 587:AS76.c        ****     update_max_velocity(12800, Motor);
 4918              		.loc 1 587 0
 4919 0136 2246     		mov	r2, r4
 4920 0138 3146     		mov	r1, r6
 4921 013a 2D20     		movs	r0, #45
 4922 013c FFF7FEFF 		bl	Write_32bitSPI_DATA
 4923              	.LVL622:
 588:AS76.c        **** 
 4924              		.loc 1 588 0
 4925 0140 2146     		mov	r1, r4
 4926 0142 4FF44850 		mov	r0, #12800
 4927 0146 FFF7FEFF 		bl	update_max_velocity
 4928              	.LVL623:
 591:AS76.c        ****     Buffer_T_QuadPosition=0;
 4929              		.loc 1 591 0
 4930 014a 3046     		mov	r0, r6
 4931 014c FFF7FEFF 		bl	Enable_Encoder_T
 4932              	.LVL624:
 592:AS76.c        ****     HomeT_done = true;
 4933              		.loc 1 592 0
 4934 0150 FE61     		str	r6, [r7, #28]
 593:AS76.c        ****     HomeT_done_Buffer = true;
 4935              		.loc 1 593 0
 4936 0152 85F82880 		strb	r8, [r5, #40]
 594:AS76.c        ****     Write_Debug_UART_Char("HomeT executed  \r\n");
 4937              		.loc 1 594 0
 4938 0156 87F83080 		strb	r8, [r7, #48]
 595:AS76.c        ****     TMC5160_MotorT_EN_Write(0xFF);
 4939              		.loc 1 595 0
 4940 015a 0948     		ldr	r0, .L287+16
ARM GAS  C:\Users\Revanth\AppData\Local\Temp\ccHsQCvB.s 			page 139


 4941 015c FFF7FEFF 		bl	Write_Debug_UART_Char
 4942              	.LVL625:
 596:AS76.c        ****     CyDelayUs(100);
 4943              		.loc 1 596 0
 4944 0160 FF20     		movs	r0, #255
 4945 0162 FFF7FEFF 		bl	TMC5160_MotorT_EN_Write
 4946              	.LVL626:
 597:AS76.c        **** }
 4947              		.loc 1 597 0
 4948 0166 6420     		movs	r0, #100
 4949 0168 FFF7FEFF 		bl	CyDelayUs
 4950              	.LVL627:
 4951 016c BDE8F081 		pop	{r4, r5, r6, r7, r8, pc}
 4952              	.L288:
 4953              		.align	2
 4954              	.L287:
 4955 0170 00000000 		.word	.LANCHOR0
 4956 0174 00000000 		.word	status_z
 4957 0178 00000000 		.word	wait_interrupt_Handler
 4958 017c 00000000 		.word	.LANCHOR1
 4959 0180 BC040000 		.word	.LC40
 4960              		.cfi_endproc
 4961              	.LFE69:
 4962              		.size	homeT, .-homeT
 4963              		.section	.text.update_max_accelaration,"ax",%progbits
 4964              		.align	2
 4965              		.global	update_max_accelaration
 4966              		.thumb
 4967              		.thumb_func
 4968              		.type	update_max_accelaration, %function
 4969              	update_max_accelaration:
 4970              	.LFB109:
2241:AS76.c        **** 
2242:AS76.c        **** int update_max_accelaration(int accelaration, uint8_t Motor)
2243:AS76.c        **** {
 4971              		.loc 1 2243 0
 4972              		.cfi_startproc
 4973              		@ args = 0, pretend = 0, frame = 0
 4974              		@ frame_needed = 0, uses_anonymous_args = 0
 4975              	.LVL628:
 4976 0000 08B5     		push	{r3, lr}
 4977              		.cfi_def_cfa_offset 8
 4978              		.cfi_offset 3, -8
 4979              		.cfi_offset 14, -4
2244:AS76.c        ****     Write_32bitSPI_DATA (0x26  , (int) accelaration, Motor); 
 4980              		.loc 1 2244 0
 4981 0002 0A46     		mov	r2, r1
 4982 0004 0146     		mov	r1, r0
 4983              	.LVL629:
 4984 0006 2620     		movs	r0, #38
 4985              	.LVL630:
 4986 0008 FFF7FEFF 		bl	Write_32bitSPI_DATA
 4987              	.LVL631:
2245:AS76.c        ****     return 0;
2246:AS76.c        **** }
 4988              		.loc 1 2246 0
 4989 000c 0020     		movs	r0, #0
ARM GAS  C:\Users\Revanth\AppData\Local\Temp\ccHsQCvB.s 			page 140


 4990 000e 08BD     		pop	{r3, pc}
 4991              		.cfi_endproc
 4992              	.LFE109:
 4993              		.size	update_max_accelaration, .-update_max_accelaration
 4994              		.section	.text.run_pump,"ax",%progbits
 4995              		.align	2
 4996              		.global	run_pump
 4997              		.thumb
 4998              		.thumb_func
 4999              		.type	run_pump, %function
 5000              	run_pump:
 5001              	.LFB110:
2247:AS76.c        **** 
2248:AS76.c        **** int run_pump (int time_ms, uint8_t direction)
2249:AS76.c        **** {
 5002              		.loc 1 2249 0
 5003              		.cfi_startproc
 5004              		@ args = 0, pretend = 0, frame = 0
 5005              		@ frame_needed = 0, uses_anonymous_args = 0
 5006              	.LVL632:
 5007 0000 38B5     		push	{r3, r4, r5, lr}
 5008              		.cfi_def_cfa_offset 16
 5009              		.cfi_offset 3, -16
 5010              		.cfi_offset 4, -12
 5011              		.cfi_offset 5, -8
 5012              		.cfi_offset 14, -4
 5013 0002 0546     		mov	r5, r0
 5014 0004 0C46     		mov	r4, r1
2250:AS76.c        ****     Write_32bitSPI_DATA (0x21  , (int) 0x00000000, TMC5160_nCS_MotorO );
 5015              		.loc 1 2250 0
 5016 0006 0422     		movs	r2, #4
 5017 0008 0021     		movs	r1, #0
 5018              	.LVL633:
 5019 000a 2120     		movs	r0, #33
 5020              	.LVL634:
 5021 000c FFF7FEFF 		bl	Write_32bitSPI_DATA
 5022              	.LVL635:
2251:AS76.c        ****     Write_32bitSPI_DATA (0x20  , (int) 0x00000000, TMC5160_nCS_MotorO );
 5023              		.loc 1 2251 0
 5024 0010 0422     		movs	r2, #4
 5025 0012 0021     		movs	r1, #0
 5026 0014 2020     		movs	r0, #32
 5027 0016 FFF7FEFF 		bl	Write_32bitSPI_DATA
 5028              	.LVL636:
2252:AS76.c        ****     
2253:AS76.c        ****     update_max_velocity(53687*2, TMC5160_nCS_MotorO);
 5029              		.loc 1 2253 0
 5030 001a 0421     		movs	r1, #4
 5031 001c 1B48     		ldr	r0, .L297
 5032 001e FFF7FEFF 		bl	update_max_velocity
 5033              	.LVL637:
2254:AS76.c        ****     TMC5160_MotorO_EN_Write(0x00);
 5034              		.loc 1 2254 0
 5035 0022 0020     		movs	r0, #0
 5036 0024 FFF7FEFF 		bl	TMC5160_MotorO_EN_Write
 5037              	.LVL638:
2255:AS76.c        ****     CyDelay(15);
ARM GAS  C:\Users\Revanth\AppData\Local\Temp\ccHsQCvB.s 			page 141


 5038              		.loc 1 2255 0
 5039 0028 0F20     		movs	r0, #15
 5040 002a FFF7FEFF 		bl	CyDelay
 5041              	.LVL639:
2256:AS76.c        ****     if( (direction == 0x00) || (direction == 0x01))
 5042              		.loc 1 2256 0
 5043 002e 012C     		cmp	r4, #1
 5044 0030 03D8     		bhi	.L295
2257:AS76.c        ****     {
2258:AS76.c        ****         CyDelay(1);
 5045              		.loc 1 2258 0
 5046 0032 0120     		movs	r0, #1
 5047 0034 FFF7FEFF 		bl	CyDelay
 5048              	.LVL640:
 5049 0038 00E0     		b	.L292
 5050              	.L295:
2259:AS76.c        ****     }
2260:AS76.c        ****     else
2261:AS76.c        ****     {
2262:AS76.c        ****       direction =0;  
 5051              		.loc 1 2262 0
 5052 003a 0024     		movs	r4, #0
 5053              	.L292:
 5054              	.LVL641:
2263:AS76.c        ****     }
2264:AS76.c        ****     
2265:AS76.c        ****     if( (direction == 0x00) || (direction == 0x01))
 5055              		.loc 1 2265 0
 5056 003c 012C     		cmp	r4, #1
 5057 003e 0FD8     		bhi	.L293
2266:AS76.c        ****     {
2267:AS76.c        ****     if(direction == 0x00)
 5058              		.loc 1 2267 0
 5059 0040 3CB9     		cbnz	r4, .L294
2268:AS76.c        ****     {
2269:AS76.c        ****         GotoPos(time_ms, TMC5160_nCS_MotorO);
 5060              		.loc 1 2269 0
 5061 0042 0421     		movs	r1, #4
 5062 0044 2846     		mov	r0, r5
 5063 0046 FFF7FEFF 		bl	GotoPos
 5064              	.LVL642:
2270:AS76.c        ****         WaitTillPositionReached(TMC5160_nCS_MotorO);
 5065              		.loc 1 2270 0
 5066 004a 0420     		movs	r0, #4
 5067 004c FFF7FEFF 		bl	WaitTillPositionReached
 5068              	.LVL643:
 5069 0050 06E0     		b	.L293
 5070              	.L294:
 5071              	.LVL644:
2271:AS76.c        ****         //Write_32bitSPI_DATA (0x20  , (int) 0x00000001, TMC5160_nCS_MotorO );
2272:AS76.c        ****     }
2273:AS76.c        ****     else
2274:AS76.c        ****     {
2275:AS76.c        ****         time_ms = 0-time_ms;
2276:AS76.c        ****         GotoPos(time_ms, TMC5160_nCS_MotorO);
 5072              		.loc 1 2276 0
 5073 0052 0421     		movs	r1, #4
ARM GAS  C:\Users\Revanth\AppData\Local\Temp\ccHsQCvB.s 			page 142


 5074 0054 6842     		negs	r0, r5
 5075              	.LVL645:
 5076 0056 FFF7FEFF 		bl	GotoPos
 5077              	.LVL646:
2277:AS76.c        ****         WaitTillPositionReached(TMC5160_nCS_MotorO);
 5078              		.loc 1 2277 0
 5079 005a 0420     		movs	r0, #4
 5080 005c FFF7FEFF 		bl	WaitTillPositionReached
 5081              	.LVL647:
 5082              	.L293:
2278:AS76.c        ****         //Write_32bitSPI_DATA (0x20  , (int) 0x00000002, TMC5160_nCS_MotorO );
2279:AS76.c        ****     }
2280:AS76.c        ****     }
2281:AS76.c        ****     //CyDelay(time_ms);
2282:AS76.c        ****     time_ms = 0;
2283:AS76.c        ****     update_max_velocity(0x00, TMC5160_nCS_MotorO);
 5083              		.loc 1 2283 0
 5084 0060 0421     		movs	r1, #4
 5085 0062 0020     		movs	r0, #0
 5086 0064 FFF7FEFF 		bl	update_max_velocity
 5087              	.LVL648:
2284:AS76.c        ****     Write_32bitSPI_DATA (0x21  , (int) 0x00000000, TMC5160_nCS_MotorO );
 5088              		.loc 1 2284 0
 5089 0068 0422     		movs	r2, #4
 5090 006a 0021     		movs	r1, #0
 5091 006c 2120     		movs	r0, #33
 5092 006e FFF7FEFF 		bl	Write_32bitSPI_DATA
 5093              	.LVL649:
2285:AS76.c        ****     Write_32bitSPI_DATA (0x20  , (int) 0x00000000, TMC5160_nCS_MotorO );
 5094              		.loc 1 2285 0
 5095 0072 0422     		movs	r2, #4
 5096 0074 0021     		movs	r1, #0
 5097 0076 2020     		movs	r0, #32
 5098 0078 FFF7FEFF 		bl	Write_32bitSPI_DATA
 5099              	.LVL650:
2286:AS76.c        ****     CyDelay(5);
 5100              		.loc 1 2286 0
 5101 007c 0520     		movs	r0, #5
 5102 007e FFF7FEFF 		bl	CyDelay
 5103              	.LVL651:
2287:AS76.c        ****     TMC5160_MotorO_EN_Write(0xFF);
 5104              		.loc 1 2287 0
 5105 0082 FF20     		movs	r0, #255
 5106 0084 FFF7FEFF 		bl	TMC5160_MotorO_EN_Write
 5107              	.LVL652:
2288:AS76.c        ****     return 0;
2289:AS76.c        **** }
 5108              		.loc 1 2289 0
 5109 0088 0020     		movs	r0, #0
 5110 008a 38BD     		pop	{r3, r4, r5, pc}
 5111              	.LVL653:
 5112              	.L298:
 5113              		.align	2
 5114              	.L297:
 5115 008c 6EA30100 		.word	107374
 5116              		.cfi_endproc
 5117              	.LFE110:
ARM GAS  C:\Users\Revanth\AppData\Local\Temp\ccHsQCvB.s 			page 143


 5118              		.size	run_pump, .-run_pump
 5119              		.section	.text.run_pumpvs,"ax",%progbits
 5120              		.align	2
 5121              		.global	run_pumpvs
 5122              		.thumb
 5123              		.thumb_func
 5124              		.type	run_pumpvs, %function
 5125              	run_pumpvs:
 5126              	.LFB111:
2290:AS76.c        **** int run_pumpvs (int time_ms, int speed, uint8_t direction)
2291:AS76.c        **** {
 5127              		.loc 1 2291 0
 5128              		.cfi_startproc
 5129              		@ args = 0, pretend = 0, frame = 0
 5130              		@ frame_needed = 0, uses_anonymous_args = 0
 5131              	.LVL654:
 5132 0000 70B5     		push	{r4, r5, r6, lr}
 5133              		.cfi_def_cfa_offset 16
 5134              		.cfi_offset 4, -16
 5135              		.cfi_offset 5, -12
 5136              		.cfi_offset 6, -8
 5137              		.cfi_offset 14, -4
 5138 0002 0646     		mov	r6, r0
 5139 0004 0D46     		mov	r5, r1
 5140 0006 1446     		mov	r4, r2
2292:AS76.c        ****     Write_32bitSPI_DATA (0x20  , (int) 0x00000000, TMC5160_nCS_MotorO );
 5141              		.loc 1 2292 0
 5142 0008 0422     		movs	r2, #4
 5143              	.LVL655:
 5144 000a 0021     		movs	r1, #0
 5145              	.LVL656:
 5146 000c 2020     		movs	r0, #32
 5147              	.LVL657:
 5148 000e FFF7FEFF 		bl	Write_32bitSPI_DATA
 5149              	.LVL658:
2293:AS76.c        ****     Write_32bitSPI_DATA (0x21  , (int) 0x00000000, TMC5160_nCS_MotorO );
 5150              		.loc 1 2293 0
 5151 0012 0422     		movs	r2, #4
 5152 0014 0021     		movs	r1, #0
 5153 0016 2120     		movs	r0, #33
 5154 0018 FFF7FEFF 		bl	Write_32bitSPI_DATA
 5155              	.LVL659:
2294:AS76.c        ****     update_max_velocity(speed, TMC5160_nCS_MotorO);
 5156              		.loc 1 2294 0
 5157 001c 0421     		movs	r1, #4
 5158 001e 2846     		mov	r0, r5
 5159 0020 FFF7FEFF 		bl	update_max_velocity
 5160              	.LVL660:
2295:AS76.c        ****     TMC5160_MotorO_EN_Write(0x00);
 5161              		.loc 1 2295 0
 5162 0024 0020     		movs	r0, #0
 5163 0026 FFF7FEFF 		bl	TMC5160_MotorO_EN_Write
 5164              	.LVL661:
2296:AS76.c        ****     CyDelay(10);
 5165              		.loc 1 2296 0
 5166 002a 0A20     		movs	r0, #10
 5167 002c FFF7FEFF 		bl	CyDelay
ARM GAS  C:\Users\Revanth\AppData\Local\Temp\ccHsQCvB.s 			page 144


 5168              	.LVL662:
2297:AS76.c        ****     if( (direction == 0x00) || (direction == 0x01))
 5169              		.loc 1 2297 0
 5170 0030 012C     		cmp	r4, #1
 5171 0032 0FD8     		bhi	.L300
2298:AS76.c        ****     {
2299:AS76.c        ****     if(direction == 0x00)
 5172              		.loc 1 2299 0
 5173 0034 3CB9     		cbnz	r4, .L301
2300:AS76.c        ****     {
2301:AS76.c        ****         GotoPos(time_ms, TMC5160_nCS_MotorO);
 5174              		.loc 1 2301 0
 5175 0036 0421     		movs	r1, #4
 5176 0038 3046     		mov	r0, r6
 5177 003a FFF7FEFF 		bl	GotoPos
 5178              	.LVL663:
2302:AS76.c        ****         WaitTillPositionReached(TMC5160_nCS_MotorO);
 5179              		.loc 1 2302 0
 5180 003e 0420     		movs	r0, #4
 5181 0040 FFF7FEFF 		bl	WaitTillPositionReached
 5182              	.LVL664:
 5183 0044 06E0     		b	.L300
 5184              	.L301:
 5185              	.LVL665:
2303:AS76.c        ****         //Write_32bitSPI_DATA (0x20  , (int) 0x00000001, TMC5160_nCS_MotorO );
2304:AS76.c        ****     }
2305:AS76.c        ****     else
2306:AS76.c        ****     {
2307:AS76.c        ****         time_ms = 0-time_ms;
2308:AS76.c        ****         GotoPos(time_ms, TMC5160_nCS_MotorO);
 5186              		.loc 1 2308 0
 5187 0046 0421     		movs	r1, #4
 5188 0048 7042     		negs	r0, r6
 5189              	.LVL666:
 5190 004a FFF7FEFF 		bl	GotoPos
 5191              	.LVL667:
2309:AS76.c        ****         WaitTillPositionReached(TMC5160_nCS_MotorO);
 5192              		.loc 1 2309 0
 5193 004e 0420     		movs	r0, #4
 5194 0050 FFF7FEFF 		bl	WaitTillPositionReached
 5195              	.LVL668:
 5196              	.L300:
2310:AS76.c        ****         //Write_32bitSPI_DATA (0x20  , (int) 0x00000002, TMC5160_nCS_MotorO );
2311:AS76.c        ****     }
2312:AS76.c        ****     }
2313:AS76.c        ****     //CyDelay(time_ms);
2314:AS76.c        ****     update_max_velocity(0x00, TMC5160_nCS_MotorO);
 5197              		.loc 1 2314 0
 5198 0054 0421     		movs	r1, #4
 5199 0056 0020     		movs	r0, #0
 5200 0058 FFF7FEFF 		bl	update_max_velocity
 5201              	.LVL669:
2315:AS76.c        ****     Write_32bitSPI_DATA (0x21  , (int) 0x00000000, TMC5160_nCS_MotorO );
 5202              		.loc 1 2315 0
 5203 005c 0422     		movs	r2, #4
 5204 005e 0021     		movs	r1, #0
 5205 0060 2120     		movs	r0, #33
ARM GAS  C:\Users\Revanth\AppData\Local\Temp\ccHsQCvB.s 			page 145


 5206 0062 FFF7FEFF 		bl	Write_32bitSPI_DATA
 5207              	.LVL670:
2316:AS76.c        ****     Write_32bitSPI_DATA (0x20  , (int) 0x00000001, TMC5160_nCS_MotorO );
 5208              		.loc 1 2316 0
 5209 0066 0422     		movs	r2, #4
 5210 0068 0121     		movs	r1, #1
 5211 006a 2020     		movs	r0, #32
 5212 006c FFF7FEFF 		bl	Write_32bitSPI_DATA
 5213              	.LVL671:
2317:AS76.c        ****     CyDelay(5);
 5214              		.loc 1 2317 0
 5215 0070 0520     		movs	r0, #5
 5216 0072 FFF7FEFF 		bl	CyDelay
 5217              	.LVL672:
2318:AS76.c        ****     TMC5160_MotorO_EN_Write(0xFF);
 5218              		.loc 1 2318 0
 5219 0076 FF20     		movs	r0, #255
 5220 0078 FFF7FEFF 		bl	TMC5160_MotorO_EN_Write
 5221              	.LVL673:
2319:AS76.c        ****     return 0;
2320:AS76.c        **** }
 5222              		.loc 1 2320 0
 5223 007c 0020     		movs	r0, #0
 5224 007e 70BD     		pop	{r4, r5, r6, pc}
 5225              		.cfi_endproc
 5226              	.LFE111:
 5227              		.size	run_pumpvs, .-run_pumpvs
 5228              		.section	.text.Process_USB_Data,"ax",%progbits
 5229              		.align	2
 5230              		.global	Process_USB_Data
 5231              		.thumb
 5232              		.thumb_func
 5233              		.type	Process_USB_Data, %function
 5234              	Process_USB_Data:
 5235              	.LFB91:
1222:AS76.c        ****     //Pin_USB_RX_TX_Indicator_LED_Write(1); /* turn ON LED as a indicator to start process the comm
 5236              		.loc 1 1222 0
 5237              		.cfi_startproc
 5238              		@ args = 0, pretend = 0, frame = 0
 5239              		@ frame_needed = 0, uses_anonymous_args = 0
 5240 0000 38B5     		push	{r3, r4, r5, lr}
 5241              		.cfi_def_cfa_offset 16
 5242              		.cfi_offset 3, -16
 5243              		.cfi_offset 4, -12
 5244              		.cfi_offset 5, -8
 5245              		.cfi_offset 14, -4
1224:AS76.c        ****     command = ((unsigned int)USB_received[1] << 8) + USB_received[0];   /* Reading USB data. */
 5246              		.loc 1 1224 0
 5247 0002 0022     		movs	r2, #0
 5248 0004 A64B     		ldr	r3, .L343+16
 5249 0006 9A62     		str	r2, [r3, #40]
1225:AS76.c        ****     /*Compare USB data and execute the command*/
 5250              		.loc 1 1225 0
 5251 0008 A64A     		ldr	r2, .L343+20
 5252 000a 5178     		ldrb	r1, [r2, #1]	@ zero_extendqisi2
 5253 000c 1378     		ldrb	r3, [r2]	@ zero_extendqisi2
 5254 000e 03EB0123 		add	r3, r3, r1, lsl #8
ARM GAS  C:\Users\Revanth\AppData\Local\Temp\ccHsQCvB.s 			page 146


 5255 0012 A54A     		ldr	r2, .L343+24
 5256 0014 1360     		str	r3, [r2]
1228:AS76.c        ****     {
 5257              		.loc 1 1228 0
 5258 0016 7A2B     		cmp	r3, #122
 5259 0018 11D1     		bne	.L304
1230:AS76.c        ****         CyDelay(1);
 5260              		.loc 1 1230 0
 5261 001a 0021     		movs	r1, #0
 5262 001c A348     		ldr	r0, .L343+28
 5263 001e FFF7FEFF 		bl	update_max_velocity
 5264              	.LVL674:
1231:AS76.c        ****         goTo_X(0);
 5265              		.loc 1 1231 0
 5266 0022 0120     		movs	r0, #1
 5267 0024 FFF7FEFF 		bl	CyDelay
 5268              	.LVL675:
1232:AS76.c        ****         homeX(TMC5160_nCS_MotorX);   
 5269              		.loc 1 1232 0
 5270 0028 0020     		movs	r0, #0
 5271 002a FFF7FEFF 		bl	goTo_X
 5272              	.LVL676:
1233:AS76.c        ****         Send_Feedback_to_USB(Error);
 5273              		.loc 1 1233 0
 5274 002e 0020     		movs	r0, #0
 5275 0030 FFF7FEFF 		bl	homeX
 5276              	.LVL677:
1234:AS76.c        ****     
 5277              		.loc 1 1234 0
 5278 0034 9A4B     		ldr	r3, .L343+16
 5279 0036 986A     		ldr	r0, [r3, #40]
 5280 0038 FFF7FEFF 		bl	Send_Feedback_to_USB
 5281              	.LVL678:
 5282 003c 38BD     		pop	{r3, r4, r5, pc}
 5283              	.L304:
1237:AS76.c        ****     {
 5284              		.loc 1 1237 0
 5285 003e 7B2B     		cmp	r3, #123
 5286 0040 11D1     		bne	.L306
1239:AS76.c        ****         CyDelay(1);
 5287              		.loc 1 1239 0
 5288 0042 0121     		movs	r1, #1
 5289 0044 9948     		ldr	r0, .L343+28
 5290 0046 FFF7FEFF 		bl	update_max_velocity
 5291              	.LVL679:
1240:AS76.c        ****         goTo_Y(0);
 5292              		.loc 1 1240 0
 5293 004a 0120     		movs	r0, #1
 5294 004c FFF7FEFF 		bl	CyDelay
 5295              	.LVL680:
1241:AS76.c        ****         homeY(TMC5160_nCS_MotorY);
 5296              		.loc 1 1241 0
 5297 0050 0020     		movs	r0, #0
 5298 0052 FFF7FEFF 		bl	goTo_Y
 5299              	.LVL681:
1242:AS76.c        ****         Send_Feedback_to_USB(Error);
 5300              		.loc 1 1242 0
ARM GAS  C:\Users\Revanth\AppData\Local\Temp\ccHsQCvB.s 			page 147


 5301 0056 0120     		movs	r0, #1
 5302 0058 FFF7FEFF 		bl	homeY
 5303              	.LVL682:
1243:AS76.c        ****         
 5304              		.loc 1 1243 0
 5305 005c 904B     		ldr	r3, .L343+16
 5306 005e 986A     		ldr	r0, [r3, #40]
 5307 0060 FFF7FEFF 		bl	Send_Feedback_to_USB
 5308              	.LVL683:
 5309 0064 38BD     		pop	{r3, r4, r5, pc}
 5310              	.L306:
1246:AS76.c        ****     {
 5311              		.loc 1 1246 0
 5312 0066 7C2B     		cmp	r3, #124
 5313 0068 11D1     		bne	.L307
1248:AS76.c        ****         CyDelayUs(100);
 5314              		.loc 1 1248 0
 5315 006a 0221     		movs	r1, #2
 5316 006c 9048     		ldr	r0, .L343+32
 5317 006e FFF7FEFF 		bl	update_max_velocity
 5318              	.LVL684:
1249:AS76.c        ****         goTo_Z(0);
 5319              		.loc 1 1249 0
 5320 0072 6420     		movs	r0, #100
 5321 0074 FFF7FEFF 		bl	CyDelayUs
 5322              	.LVL685:
1250:AS76.c        ****         homeZ(TMC5160_nCS_MotorZ);
 5323              		.loc 1 1250 0
 5324 0078 0020     		movs	r0, #0
 5325 007a FFF7FEFF 		bl	goTo_Z
 5326              	.LVL686:
1251:AS76.c        ****         Send_Feedback_to_USB(Error);
 5327              		.loc 1 1251 0
 5328 007e 0220     		movs	r0, #2
 5329 0080 FFF7FEFF 		bl	homeZ
 5330              	.LVL687:
1252:AS76.c        ****     }
 5331              		.loc 1 1252 0
 5332 0084 864B     		ldr	r3, .L343+16
 5333 0086 986A     		ldr	r0, [r3, #40]
 5334 0088 FFF7FEFF 		bl	Send_Feedback_to_USB
 5335              	.LVL688:
 5336 008c 38BD     		pop	{r3, r4, r5, pc}
 5337              	.L307:
1254:AS76.c        ****     {
 5338              		.loc 1 1254 0
 5339 008e 7D2B     		cmp	r3, #125
 5340 0090 12D1     		bne	.L308
1256:AS76.c        ****         CyDelay(10);
 5341              		.loc 1 1256 0
 5342 0092 0322     		movs	r2, #3
 5343 0094 8749     		ldr	r1, .L343+36
 5344 0096 1020     		movs	r0, #16
 5345 0098 FFF7FEFF 		bl	Write_32bitSPI_DATA
 5346              	.LVL689:
1257:AS76.c        ****         goTo_T(0);
 5347              		.loc 1 1257 0
ARM GAS  C:\Users\Revanth\AppData\Local\Temp\ccHsQCvB.s 			page 148


 5348 009c 0A20     		movs	r0, #10
 5349 009e FFF7FEFF 		bl	CyDelay
 5350              	.LVL690:
1258:AS76.c        ****         homeT(TMC5160_nCS_MotorT);
 5351              		.loc 1 1258 0
 5352 00a2 0020     		movs	r0, #0
 5353 00a4 FFF7FEFF 		bl	goTo_T
 5354              	.LVL691:
1259:AS76.c        ****         Send_Feedback_to_USB(Error);
 5355              		.loc 1 1259 0
 5356 00a8 0320     		movs	r0, #3
 5357 00aa FFF7FEFF 		bl	homeT
 5358              	.LVL692:
1260:AS76.c        ****     }
 5359              		.loc 1 1260 0
 5360 00ae 7C4B     		ldr	r3, .L343+16
 5361 00b0 986A     		ldr	r0, [r3, #40]
 5362 00b2 FFF7FEFF 		bl	Send_Feedback_to_USB
 5363              	.LVL693:
 5364 00b6 38BD     		pop	{r3, r4, r5, pc}
 5365              	.L308:
1262:AS76.c        ****     {
 5366              		.loc 1 1262 0
 5367 00b8 B3F5F46F 		cmp	r3, #1952
 5368 00bc 40D1     		bne	.L309
1264:AS76.c        ****         
 5369              		.loc 1 1264 0
 5370 00be 794A     		ldr	r2, .L343+20
 5371 00c0 5179     		ldrb	r1, [r2, #5]	@ zero_extendqisi2
 5372 00c2 1379     		ldrb	r3, [r2, #4]	@ zero_extendqisi2
 5373 00c4 1B04     		lsls	r3, r3, #16
 5374 00c6 03EB0163 		add	r3, r3, r1, lsl #24
 5375 00ca D178     		ldrb	r1, [r2, #3]	@ zero_extendqisi2
 5376 00cc 03EB0123 		add	r3, r3, r1, lsl #8
 5377 00d0 9278     		ldrb	r2, [r2, #2]	@ zero_extendqisi2
 5378 00d2 1344     		add	r3, r3, r2
 5379 00d4 724A     		ldr	r2, .L343+16
1267:AS76.c        ****             Position_X_Requested = (int)(Position_X_Requested / 4);
 5380              		.loc 1 1267 0
 5381 00d6 1362     		str	r3, [r2, #32]
1268:AS76.c        ****             Position_X_Requested = (int)Position_X_Requested * 12.8;
 5382              		.loc 1 1268 0
 5383 00d8 1846     		mov	r0, r3
 5384 00da 002B     		cmp	r3, #0
 5385 00dc 00DA     		bge	.L310
 5386 00de D81C     		adds	r0, r3, #3
 5387              	.L310:
 5388 00e0 6F4D     		ldr	r5, .L343+16
1269:AS76.c        ****             Error = goTo_X(Position_X_Requested);
 5389              		.loc 1 1269 0
 5390 00e2 8010     		asrs	r0, r0, #2
 5391 00e4 FFF7FEFF 		bl	__aeabi_i2d
 5392              	.LVL694:
 5393 00e8 69A3     		adr	r3, .L343
 5394 00ea D3E90023 		ldrd	r2, [r3]
 5395 00ee FFF7FEFF 		bl	__aeabi_dmul
 5396              	.LVL695:
ARM GAS  C:\Users\Revanth\AppData\Local\Temp\ccHsQCvB.s 			page 149


 5397 00f2 FFF7FEFF 		bl	__aeabi_d2iz
 5398              	.LVL696:
 5399 00f6 6863     		str	r0, [r5, #52]
1270:AS76.c        ****         }
 5400              		.loc 1 1270 0
 5401 00f8 FFF7FEFF 		bl	goTo_X
 5402              	.LVL697:
 5403 00fc A862     		str	r0, [r5, #40]
1276:AS76.c        ****         CyDelay(10);
 5404              		.loc 1 1276 0
 5405 00fe 0022     		movs	r2, #0
 5406 0100 6D49     		ldr	r1, .L343+40
 5407 0102 1020     		movs	r0, #16
 5408 0104 FFF7FEFF 		bl	Write_32bitSPI_DATA
 5409              	.LVL698:
1277:AS76.c        ****         Write_32bitSPI_DATA (0x10  , (int) 0x00070102, TMC5160_nCS_MotorY );
 5410              		.loc 1 1277 0
 5411 0108 0A20     		movs	r0, #10
 5412 010a FFF7FEFF 		bl	CyDelay
 5413              	.LVL699:
1278:AS76.c        ****         Write_32bitSPI_DATA (0x10  , (int) 0x00070102, TMC5160_nCS_MotorZ );
 5414              		.loc 1 1278 0
 5415 010e 6B4C     		ldr	r4, .L343+44
 5416 0110 0122     		movs	r2, #1
 5417 0112 2146     		mov	r1, r4
 5418 0114 1020     		movs	r0, #16
 5419 0116 FFF7FEFF 		bl	Write_32bitSPI_DATA
 5420              	.LVL700:
1279:AS76.c        ****         Write_32bitSPI_DATA (0x10  , (int) 0x00070102, TMC5160_nCS_MotorX );
 5421              		.loc 1 1279 0
 5422 011a 0222     		movs	r2, #2
 5423 011c 2146     		mov	r1, r4
 5424 011e 1020     		movs	r0, #16
 5425 0120 FFF7FEFF 		bl	Write_32bitSPI_DATA
 5426              	.LVL701:
1280:AS76.c        ****         Write_32bitSPI_DATA (0x10  , (int) 0x00070102, TMC5160_nCS_MotorT ); 
 5427              		.loc 1 1280 0
 5428 0124 0022     		movs	r2, #0
 5429 0126 2146     		mov	r1, r4
 5430 0128 1020     		movs	r0, #16
 5431 012a FFF7FEFF 		bl	Write_32bitSPI_DATA
 5432              	.LVL702:
1281:AS76.c        ****         Send_Feedback_to_USB(Error);
 5433              		.loc 1 1281 0
 5434 012e 0322     		movs	r2, #3
 5435 0130 2146     		mov	r1, r4
 5436 0132 1020     		movs	r0, #16
 5437 0134 FFF7FEFF 		bl	Write_32bitSPI_DATA
 5438              	.LVL703:
1282:AS76.c        ****         
 5439              		.loc 1 1282 0
 5440 0138 A86A     		ldr	r0, [r5, #40]
 5441 013a FFF7FEFF 		bl	Send_Feedback_to_USB
 5442              	.LVL704:
 5443 013e 38BD     		pop	{r3, r4, r5, pc}
 5444              	.L309:
1286:AS76.c        ****     {
ARM GAS  C:\Users\Revanth\AppData\Local\Temp\ccHsQCvB.s 			page 150


 5445              		.loc 1 1286 0
 5446 0140 B3F5F66F 		cmp	r3, #1968
 5447 0144 3ED1     		bne	.L311
1288:AS76.c        ****         Position_Y_Requested = (int)(Position_Y_Requested / 4);
 5448              		.loc 1 1288 0
 5449 0146 574A     		ldr	r2, .L343+20
 5450 0148 5179     		ldrb	r1, [r2, #5]	@ zero_extendqisi2
 5451 014a 1379     		ldrb	r3, [r2, #4]	@ zero_extendqisi2
 5452 014c 1B04     		lsls	r3, r3, #16
 5453 014e 03EB0163 		add	r3, r3, r1, lsl #24
 5454 0152 D178     		ldrb	r1, [r2, #3]	@ zero_extendqisi2
 5455 0154 03EB0123 		add	r3, r3, r1, lsl #8
 5456 0158 9278     		ldrb	r2, [r2, #2]	@ zero_extendqisi2
 5457 015a 1344     		add	r3, r3, r2
1289:AS76.c        ****         Position_Y_Requested = (int)(Position_Y_Requested * 12.8);
 5458              		.loc 1 1289 0
 5459 015c 1846     		mov	r0, r3
 5460 015e 002B     		cmp	r3, #0
 5461 0160 00DA     		bge	.L312
 5462 0162 D81C     		adds	r0, r3, #3
 5463              	.L312:
 5464 0164 4E4D     		ldr	r5, .L343+16
1290:AS76.c        ****         Error = goTo_Y(Position_Y_Requested);
 5465              		.loc 1 1290 0
 5466 0166 8010     		asrs	r0, r0, #2
 5467 0168 FFF7FEFF 		bl	__aeabi_i2d
 5468              	.LVL705:
 5469 016c 48A3     		adr	r3, .L343
 5470 016e D3E90023 		ldrd	r2, [r3]
 5471 0172 FFF7FEFF 		bl	__aeabi_dmul
 5472              	.LVL706:
 5473 0176 FFF7FEFF 		bl	__aeabi_d2iz
 5474              	.LVL707:
 5475 017a A863     		str	r0, [r5, #56]
1291:AS76.c        ****                
 5476              		.loc 1 1291 0
 5477 017c FFF7FEFF 		bl	goTo_Y
 5478              	.LVL708:
 5479 0180 A862     		str	r0, [r5, #40]
1293:AS76.c        ****         CyDelay(10);        
 5480              		.loc 1 1293 0
 5481 0182 0122     		movs	r2, #1
 5482 0184 4C49     		ldr	r1, .L343+40
 5483 0186 1020     		movs	r0, #16
 5484 0188 FFF7FEFF 		bl	Write_32bitSPI_DATA
 5485              	.LVL709:
1294:AS76.c        ****         Write_32bitSPI_DATA (0x10  , (int) 0x00070102, TMC5160_nCS_MotorY );
 5486              		.loc 1 1294 0
 5487 018c 0A20     		movs	r0, #10
 5488 018e FFF7FEFF 		bl	CyDelay
 5489              	.LVL710:
1295:AS76.c        ****         Write_32bitSPI_DATA (0x10  , (int) 0x00070102, TMC5160_nCS_MotorZ );
 5490              		.loc 1 1295 0
 5491 0192 4A4C     		ldr	r4, .L343+44
 5492 0194 0122     		movs	r2, #1
 5493 0196 2146     		mov	r1, r4
 5494 0198 1020     		movs	r0, #16
ARM GAS  C:\Users\Revanth\AppData\Local\Temp\ccHsQCvB.s 			page 151


 5495 019a FFF7FEFF 		bl	Write_32bitSPI_DATA
 5496              	.LVL711:
1296:AS76.c        ****         Write_32bitSPI_DATA (0x10  , (int) 0x00070102, TMC5160_nCS_MotorX );
 5497              		.loc 1 1296 0
 5498 019e 0222     		movs	r2, #2
 5499 01a0 2146     		mov	r1, r4
 5500 01a2 1020     		movs	r0, #16
 5501 01a4 FFF7FEFF 		bl	Write_32bitSPI_DATA
 5502              	.LVL712:
1297:AS76.c        ****         Write_32bitSPI_DATA (0x10  , (int) 0x00070102, TMC5160_nCS_MotorT ); 
 5503              		.loc 1 1297 0
 5504 01a8 0022     		movs	r2, #0
 5505 01aa 2146     		mov	r1, r4
 5506 01ac 1020     		movs	r0, #16
 5507 01ae FFF7FEFF 		bl	Write_32bitSPI_DATA
 5508              	.LVL713:
1298:AS76.c        ****         Send_Feedback_to_USB(Error);
 5509              		.loc 1 1298 0
 5510 01b2 0322     		movs	r2, #3
 5511 01b4 2146     		mov	r1, r4
 5512 01b6 1020     		movs	r0, #16
 5513 01b8 FFF7FEFF 		bl	Write_32bitSPI_DATA
 5514              	.LVL714:
1299:AS76.c        ****     }
 5515              		.loc 1 1299 0
 5516 01bc A86A     		ldr	r0, [r5, #40]
 5517 01be FFF7FEFF 		bl	Send_Feedback_to_USB
 5518              	.LVL715:
 5519 01c2 38BD     		pop	{r3, r4, r5, pc}
 5520              	.L311:
1301:AS76.c        ****     {
 5521              		.loc 1 1301 0
 5522 01c4 B3F5FA6F 		cmp	r3, #2000
 5523 01c8 21D1     		bne	.L313
1303:AS76.c        ****         Position_Z_Requested = (Position_Z_Requested / 16);
 5524              		.loc 1 1303 0
 5525 01ca 364A     		ldr	r2, .L343+20
 5526 01cc 5179     		ldrb	r1, [r2, #5]	@ zero_extendqisi2
 5527 01ce 1379     		ldrb	r3, [r2, #4]	@ zero_extendqisi2
 5528 01d0 1B04     		lsls	r3, r3, #16
 5529 01d2 03EB0163 		add	r3, r3, r1, lsl #24
 5530 01d6 D178     		ldrb	r1, [r2, #3]	@ zero_extendqisi2
 5531 01d8 03EB0123 		add	r3, r3, r1, lsl #8
 5532 01dc 9278     		ldrb	r2, [r2, #2]	@ zero_extendqisi2
 5533 01de 1344     		add	r3, r3, r2
1304:AS76.c        ****         Position_Z_Requested = Position_Z_Requested * 51.2;
 5534              		.loc 1 1304 0
 5535 01e0 1846     		mov	r0, r3
 5536 01e2 002B     		cmp	r3, #0
 5537 01e4 01DA     		bge	.L314
 5538 01e6 03F10F00 		add	r0, r3, #15
 5539              	.L314:
 5540 01ea 2D4C     		ldr	r4, .L343+16
1305:AS76.c        ****         Error = goTo_Z(Position_Z_Requested);
 5541              		.loc 1 1305 0
 5542 01ec 0011     		asrs	r0, r0, #4
 5543 01ee FFF7FEFF 		bl	__aeabi_i2d
ARM GAS  C:\Users\Revanth\AppData\Local\Temp\ccHsQCvB.s 			page 152


 5544              	.LVL716:
 5545 01f2 29A3     		adr	r3, .L343+8
 5546 01f4 D3E90023 		ldrd	r2, [r3]
 5547 01f8 FFF7FEFF 		bl	__aeabi_dmul
 5548              	.LVL717:
 5549 01fc FFF7FEFF 		bl	__aeabi_d2iz
 5550              	.LVL718:
 5551 0200 E063     		str	r0, [r4, #60]
1306:AS76.c        ****         Send_Feedback_to_USB(Error);
 5552              		.loc 1 1306 0
 5553 0202 FFF7FEFF 		bl	goTo_Z
 5554              	.LVL719:
 5555 0206 A062     		str	r0, [r4, #40]
1307:AS76.c        ****     }
 5556              		.loc 1 1307 0
 5557 0208 FFF7FEFF 		bl	Send_Feedback_to_USB
 5558              	.LVL720:
 5559 020c 38BD     		pop	{r3, r4, r5, pc}
 5560              	.L313:
1309:AS76.c        ****     {
 5561              		.loc 1 1309 0
 5562 020e B3F5FC6F 		cmp	r3, #2016
 5563 0212 1CD1     		bne	.L315
1311:AS76.c        ****         Position_T_Requested = ((int32)USB_received[5] << 24) + ((int32)USB_received[4] << 16) + ((
 5564              		.loc 1 1311 0
 5565 0214 0322     		movs	r2, #3
 5566 0216 2749     		ldr	r1, .L343+36
 5567 0218 1020     		movs	r0, #16
 5568 021a FFF7FEFF 		bl	Write_32bitSPI_DATA
 5569              	.LVL721:
1312:AS76.c        ****         Position_T_Requested = (Position_T_Requested / 1);
 5570              		.loc 1 1312 0
 5571 021e 214A     		ldr	r2, .L343+20
 5572 0220 5179     		ldrb	r1, [r2, #5]	@ zero_extendqisi2
 5573 0222 1379     		ldrb	r3, [r2, #4]	@ zero_extendqisi2
 5574 0224 1B04     		lsls	r3, r3, #16
 5575 0226 03EB0163 		add	r3, r3, r1, lsl #24
 5576 022a D078     		ldrb	r0, [r2, #3]	@ zero_extendqisi2
 5577 022c 03EB0023 		add	r3, r3, r0, lsl #8
 5578 0230 9078     		ldrb	r0, [r2, #2]	@ zero_extendqisi2
 5579 0232 1844     		add	r0, r0, r3
 5580 0234 1A4C     		ldr	r4, .L343+16
 5581 0236 2064     		str	r0, [r4, #64]
1315:AS76.c        ****         Send_Feedback_to_USB(Error);
 5582              		.loc 1 1315 0
 5583 0238 FFF7FEFF 		bl	goTo_T
 5584              	.LVL722:
 5585 023c A062     		str	r0, [r4, #40]
1316:AS76.c        ****         Write_32bitSPI_DATA (0x10  , (int) 0x00070303, TMC5160_nCS_MotorT );
 5586              		.loc 1 1316 0
 5587 023e FFF7FEFF 		bl	Send_Feedback_to_USB
 5588              	.LVL723:
1317:AS76.c        ****    
 5589              		.loc 1 1317 0
 5590 0242 0322     		movs	r2, #3
 5591 0244 1E49     		ldr	r1, .L343+48
 5592 0246 1020     		movs	r0, #16
ARM GAS  C:\Users\Revanth\AppData\Local\Temp\ccHsQCvB.s 			page 153


 5593 0248 FFF7FEFF 		bl	Write_32bitSPI_DATA
 5594              	.LVL724:
 5595 024c 38BD     		pop	{r3, r4, r5, pc}
 5596              	.L315:
1320:AS76.c        ****     {
 5597              		.loc 1 1320 0
 5598 024e 7E2B     		cmp	r3, #126
 5599 0250 38D1     		bne	.L316
 5600              	.LVL725:
 5601              	.LBB4:
1324:AS76.c        ****         if((USB_received[6] == 0x00) || (USB_received[6] == 0x01))
 5602              		.loc 1 1324 0
 5603 0252 144A     		ldr	r2, .L343+20
 5604 0254 5179     		ldrb	r1, [r2, #5]	@ zero_extendqisi2
 5605 0256 1379     		ldrb	r3, [r2, #4]	@ zero_extendqisi2
 5606 0258 1B04     		lsls	r3, r3, #16
 5607 025a 03EB0163 		add	r3, r3, r1, lsl #24
 5608 025e D178     		ldrb	r1, [r2, #3]	@ zero_extendqisi2
 5609 0260 03EB0123 		add	r3, r3, r1, lsl #8
 5610 0264 9478     		ldrb	r4, [r2, #2]	@ zero_extendqisi2
 5611 0266 1C44     		add	r4, r4, r3
 5612              	.LVL726:
1325:AS76.c        ****         {
 5613              		.loc 1 1325 0
 5614 0268 9379     		ldrb	r3, [r2, #6]	@ zero_extendqisi2
 5615 026a 012B     		cmp	r3, #1
 5616 026c 03D8     		bhi	.L317
1327:AS76.c        ****         }
 5617              		.loc 1 1327 0
 5618 026e 0A20     		movs	r0, #10
 5619 0270 FFF7FEFF 		bl	CyDelayUs
 5620              	.LVL727:
 5621 0274 02E0     		b	.L318
 5622              	.L317:
1331:AS76.c        ****         }
 5623              		.loc 1 1331 0
 5624 0276 0022     		movs	r2, #0
 5625 0278 0A4B     		ldr	r3, .L343+20
 5626 027a 9A71     		strb	r2, [r3, #6]
 5627              	.L318:
 5628              	.LVL728:
1335:AS76.c        ****         Send_Feedback_to_USB(Error);
 5629              		.loc 1 1335 0
 5630 027c 094B     		ldr	r3, .L343+20
 5631 027e 9979     		ldrb	r1, [r3, #6]	@ zero_extendqisi2
 5632 0280 2046     		mov	r0, r4
 5633 0282 FFF7FEFF 		bl	run_pump
 5634              	.LVL729:
1336:AS76.c        ****     }
 5635              		.loc 1 1336 0
 5636 0286 064B     		ldr	r3, .L343+16
 5637 0288 986A     		ldr	r0, [r3, #40]
 5638 028a FFF7FEFF 		bl	Send_Feedback_to_USB
 5639              	.LVL730:
 5640              	.LBE4:
 5641 028e 38BD     		pop	{r3, r4, r5, pc}
 5642              	.LVL731:
ARM GAS  C:\Users\Revanth\AppData\Local\Temp\ccHsQCvB.s 			page 154


 5643              	.L344:
 5644              		.align	3
 5645              	.L343:
 5646 0290 9A999999 		.word	-1717986918
 5647 0294 99992940 		.word	1076468121
 5648 0298 9A999999 		.word	-1717986918
 5649 029c 99994940 		.word	1078565273
 5650 02a0 00000000 		.word	.LANCHOR0
 5651 02a4 00000000 		.word	USB_received
 5652 02a8 00000000 		.word	command
 5653 02ac FAD00500 		.word	381178
 5654 02b0 6EA30100 		.word	107374
 5655 02b4 03050700 		.word	460035
 5656 02b8 0A010700 		.word	459018
 5657 02bc 02010700 		.word	459010
 5658 02c0 03030700 		.word	459523
 5659              	.L316:
1339:AS76.c        ****     {
 5660              		.loc 1 1339 0
 5661 02c4 B3F5F86F 		cmp	r3, #1984
 5662 02c8 79D1     		bne	.L319
1341:AS76.c        ****         Position_Y_Requested = ((int32)USB_received[9] << 24) + ((int32)USB_received[8] << 16) + ((
 5663              		.loc 1 1341 0
 5664 02ca B94B     		ldr	r3, .L345+16
 5665 02cc 5979     		ldrb	r1, [r3, #5]	@ zero_extendqisi2
 5666 02ce 1A79     		ldrb	r2, [r3, #4]	@ zero_extendqisi2
 5667 02d0 1204     		lsls	r2, r2, #16
 5668 02d2 02EB0162 		add	r2, r2, r1, lsl #24
 5669 02d6 D978     		ldrb	r1, [r3, #3]	@ zero_extendqisi2
 5670 02d8 02EB0122 		add	r2, r2, r1, lsl #8
 5671 02dc 9978     		ldrb	r1, [r3, #2]	@ zero_extendqisi2
 5672 02de 1144     		add	r1, r1, r2
 5673 02e0 B448     		ldr	r0, .L345+20
 5674 02e2 4163     		str	r1, [r0, #52]
1342:AS76.c        ****         Position_Z_Requested = ((int32)USB_received[13] << 24) + ((int32)USB_received[12] << 16) + 
 5675              		.loc 1 1342 0
 5676 02e4 5C7A     		ldrb	r4, [r3, #9]	@ zero_extendqisi2
 5677 02e6 1A7A     		ldrb	r2, [r3, #8]	@ zero_extendqisi2
 5678 02e8 1204     		lsls	r2, r2, #16
 5679 02ea 02EB0462 		add	r2, r2, r4, lsl #24
 5680 02ee DC79     		ldrb	r4, [r3, #7]	@ zero_extendqisi2
 5681 02f0 02EB0422 		add	r2, r2, r4, lsl #8
 5682 02f4 9D79     		ldrb	r5, [r3, #6]	@ zero_extendqisi2
 5683 02f6 1544     		add	r5, r5, r2
 5684 02f8 8563     		str	r5, [r0, #56]
1343:AS76.c        ****         
 5685              		.loc 1 1343 0
 5686 02fa 5C7B     		ldrb	r4, [r3, #13]	@ zero_extendqisi2
 5687 02fc 1A7B     		ldrb	r2, [r3, #12]	@ zero_extendqisi2
 5688 02fe 1204     		lsls	r2, r2, #16
 5689 0300 02EB0462 		add	r2, r2, r4, lsl #24
 5690 0304 DC7A     		ldrb	r4, [r3, #11]	@ zero_extendqisi2
 5691 0306 02EB0422 		add	r2, r2, r4, lsl #8
 5692 030a 9C7A     		ldrb	r4, [r3, #10]	@ zero_extendqisi2
 5693 030c 1444     		add	r4, r4, r2
 5694 030e C463     		str	r4, [r0, #60]
1345:AS76.c        ****         {        
ARM GAS  C:\Users\Revanth\AppData\Local\Temp\ccHsQCvB.s 			page 155


 5695              		.loc 1 1345 0
 5696 0310 0029     		cmp	r1, #0
 5697 0312 0EDB     		blt	.L320
1347:AS76.c        ****         Position_X_Requested = Position_X_Requested * 12.8;
 5698              		.loc 1 1347 0
 5699 0314 0846     		mov	r0, r1
 5700 0316 00DA     		bge	.L321
 5701 0318 C81C     		adds	r0, r1, #3
 5702              	.L321:
1348:AS76.c        ****         }
 5703              		.loc 1 1348 0
 5704 031a 8010     		asrs	r0, r0, #2
 5705 031c FFF7FEFF 		bl	__aeabi_i2d
 5706              	.LVL732:
 5707 0320 9FA3     		adr	r3, .L345
 5708 0322 D3E90023 		ldrd	r2, [r3]
 5709 0326 FFF7FEFF 		bl	__aeabi_dmul
 5710              	.LVL733:
 5711 032a FFF7FEFF 		bl	__aeabi_d2iz
 5712              	.LVL734:
 5713 032e A14B     		ldr	r3, .L345+20
 5714 0330 5863     		str	r0, [r3, #52]
 5715              	.L320:
1350:AS76.c        ****         { 
 5716              		.loc 1 1350 0
 5717 0332 002D     		cmp	r5, #0
 5718 0334 0EDB     		blt	.L322
1352:AS76.c        ****         Position_Y_Requested = Position_Y_Requested * 12.8;
 5719              		.loc 1 1352 0
 5720 0336 2846     		mov	r0, r5
 5721 0338 00DA     		bge	.L323
 5722 033a E81C     		adds	r0, r5, #3
 5723              	.L323:
1353:AS76.c        ****         }
 5724              		.loc 1 1353 0
 5725 033c 8010     		asrs	r0, r0, #2
 5726 033e FFF7FEFF 		bl	__aeabi_i2d
 5727              	.LVL735:
 5728 0342 97A3     		adr	r3, .L345
 5729 0344 D3E90023 		ldrd	r2, [r3]
 5730 0348 FFF7FEFF 		bl	__aeabi_dmul
 5731              	.LVL736:
 5732 034c FFF7FEFF 		bl	__aeabi_d2iz
 5733              	.LVL737:
 5734 0350 984B     		ldr	r3, .L345+20
 5735 0352 9863     		str	r0, [r3, #56]
 5736              	.L322:
1355:AS76.c        ****         { 
 5737              		.loc 1 1355 0
 5738 0354 002C     		cmp	r4, #0
 5739 0356 0FDB     		blt	.L324
1357:AS76.c        ****         Position_Z_Requested = Position_Z_Requested * 51.2;
 5740              		.loc 1 1357 0
 5741 0358 2046     		mov	r0, r4
 5742 035a 01DA     		bge	.L325
 5743 035c 04F10F00 		add	r0, r4, #15
 5744              	.L325:
ARM GAS  C:\Users\Revanth\AppData\Local\Temp\ccHsQCvB.s 			page 156


1358:AS76.c        ****         }
 5745              		.loc 1 1358 0
 5746 0360 0011     		asrs	r0, r0, #4
 5747 0362 FFF7FEFF 		bl	__aeabi_i2d
 5748              	.LVL738:
 5749 0366 90A3     		adr	r3, .L345+8
 5750 0368 D3E90023 		ldrd	r2, [r3]
 5751 036c FFF7FEFF 		bl	__aeabi_dmul
 5752              	.LVL739:
 5753 0370 FFF7FEFF 		bl	__aeabi_d2iz
 5754              	.LVL740:
 5755 0374 8F4B     		ldr	r3, .L345+20
 5756 0376 D863     		str	r0, [r3, #60]
 5757              	.L324:
1361:AS76.c        ****         CyDelay(10);
 5758              		.loc 1 1361 0
 5759 0378 8E4C     		ldr	r4, .L345+20
 5760 037a E26B     		ldr	r2, [r4, #60]
 5761 037c A16B     		ldr	r1, [r4, #56]
 5762 037e 606B     		ldr	r0, [r4, #52]
 5763 0380 FFF7FEFF 		bl	goTo_XYZ
 5764              	.LVL741:
 5765 0384 A062     		str	r0, [r4, #40]
1362:AS76.c        ****         Write_32bitSPI_DATA (0x10  , (int) 0x00070103, TMC5160_nCS_MotorY );
 5766              		.loc 1 1362 0
 5767 0386 0A20     		movs	r0, #10
 5768 0388 FFF7FEFF 		bl	CyDelay
 5769              	.LVL742:
1363:AS76.c        ****         Write_32bitSPI_DATA (0x10  , (int) 0x00070103, TMC5160_nCS_MotorZ );
 5770              		.loc 1 1363 0
 5771 038c 8A4D     		ldr	r5, .L345+24
 5772 038e 0122     		movs	r2, #1
 5773 0390 2946     		mov	r1, r5
 5774 0392 1020     		movs	r0, #16
 5775 0394 FFF7FEFF 		bl	Write_32bitSPI_DATA
 5776              	.LVL743:
1364:AS76.c        ****         Write_32bitSPI_DATA (0x10  , (int) 0x00070103, TMC5160_nCS_MotorX );
 5777              		.loc 1 1364 0
 5778 0398 0222     		movs	r2, #2
 5779 039a 2946     		mov	r1, r5
 5780 039c 1020     		movs	r0, #16
 5781 039e FFF7FEFF 		bl	Write_32bitSPI_DATA
 5782              	.LVL744:
1365:AS76.c        ****         Write_32bitSPI_DATA (0x10  , (int) 0x00070103, TMC5160_nCS_MotorT );
 5783              		.loc 1 1365 0
 5784 03a2 0022     		movs	r2, #0
 5785 03a4 2946     		mov	r1, r5
 5786 03a6 1020     		movs	r0, #16
 5787 03a8 FFF7FEFF 		bl	Write_32bitSPI_DATA
 5788              	.LVL745:
1366:AS76.c        ****         Send_Feedback_to_USB(Error);
 5789              		.loc 1 1366 0
 5790 03ac 0322     		movs	r2, #3
 5791 03ae 2946     		mov	r1, r5
 5792 03b0 1020     		movs	r0, #16
 5793 03b2 FFF7FEFF 		bl	Write_32bitSPI_DATA
 5794              	.LVL746:
ARM GAS  C:\Users\Revanth\AppData\Local\Temp\ccHsQCvB.s 			page 157


1367:AS76.c        ****     }
 5795              		.loc 1 1367 0
 5796 03b6 A06A     		ldr	r0, [r4, #40]
 5797 03b8 FFF7FEFF 		bl	Send_Feedback_to_USB
 5798              	.LVL747:
 5799 03bc 38BD     		pop	{r3, r4, r5, pc}
 5800              	.L319:
1370:AS76.c        ****     { 
 5801              		.loc 1 1370 0
 5802 03be B3F5F44F 		cmp	r3, #31232
 5803 03c2 09D1     		bne	.L326
1372:AS76.c        ****         CyDelay(100);
 5804              		.loc 1 1372 0
 5805 03c4 FFF7FEFF 		bl	set_CondenserLED
 5806              	.LVL748:
1373:AS76.c        ****         Send_Feedback_to_USB(Error);  
 5807              		.loc 1 1373 0
 5808 03c8 6420     		movs	r0, #100
 5809 03ca FFF7FEFF 		bl	CyDelay
 5810              	.LVL749:
1374:AS76.c        ****     }
 5811              		.loc 1 1374 0
 5812 03ce 794B     		ldr	r3, .L345+20
 5813 03d0 986A     		ldr	r0, [r3, #40]
 5814 03d2 FFF7FEFF 		bl	Send_Feedback_to_USB
 5815              	.LVL750:
 5816 03d6 38BD     		pop	{r3, r4, r5, pc}
 5817              	.L326:
1377:AS76.c        ****     {
 5818              		.loc 1 1377 0
 5819 03d8 B3F5FE4F 		cmp	r3, #32512
 5820 03dc 09D1     		bne	.L327
1379:AS76.c        ****         CyDelay(100);
 5821              		.loc 1 1379 0
 5822 03de FFF7FEFF 		bl	set_BarcodeCondenser_LED
 5823              	.LVL751:
1380:AS76.c        ****         Send_Feedback_to_USB(Error);  
 5824              		.loc 1 1380 0
 5825 03e2 6420     		movs	r0, #100
 5826 03e4 FFF7FEFF 		bl	CyDelay
 5827              	.LVL752:
1381:AS76.c        ****     }
 5828              		.loc 1 1381 0
 5829 03e8 724B     		ldr	r3, .L345+20
 5830 03ea 986A     		ldr	r0, [r3, #40]
 5831 03ec FFF7FEFF 		bl	Send_Feedback_to_USB
 5832              	.LVL753:
 5833 03f0 38BD     		pop	{r3, r4, r5, pc}
 5834              	.L327:
1384:AS76.c        ****     {
 5835              		.loc 1 1384 0
 5836 03f2 B3F5FC4F 		cmp	r3, #32256
 5837 03f6 11D1     		bne	.L328
 5838              	.LVL754:
 5839              	.LBB5:
1387:AS76.c        ****         if(value == 0)
 5840              		.loc 1 1387 0
ARM GAS  C:\Users\Revanth\AppData\Local\Temp\ccHsQCvB.s 			page 158


 5841 03f8 6D4B     		ldr	r3, .L345+16
 5842 03fa 9C78     		ldrb	r4, [r3, #2]	@ zero_extendqisi2
 5843              	.LVL755:
1388:AS76.c        ****         {
 5844              		.loc 1 1388 0
 5845 03fc 34B1     		cbz	r4, .L329
1392:AS76.c        ****         {
 5846              		.loc 1 1392 0
 5847 03fe 012C     		cmp	r4, #1
 5848 0400 03D0     		beq	.L341
1398:AS76.c        ****         }
 5849              		.loc 1 1398 0
 5850 0402 6E48     		ldr	r0, .L345+28
 5851 0404 FFF7FEFF 		bl	Write_Debug_UART_Char
 5852              	.LVL756:
 5853 0408 00E0     		b	.L329
 5854              	.L341:
1394:AS76.c        ****         }
 5855              		.loc 1 1394 0
 5856 040a FF24     		movs	r4, #255
 5857              	.LVL757:
 5858              	.L329:
1401:AS76.c        ****         Send_Feedback_to_USB(Error);
 5859              		.loc 1 1401 0
 5860 040c 2046     		mov	r0, r4
 5861 040e FFF7FEFF 		bl	Pin_Backlight_Write
 5862              	.LVL758:
1402:AS76.c        ****     }
 5863              		.loc 1 1402 0
 5864 0412 684B     		ldr	r3, .L345+20
 5865 0414 986A     		ldr	r0, [r3, #40]
 5866 0416 FFF7FEFF 		bl	Send_Feedback_to_USB
 5867              	.LVL759:
 5868              	.LBE5:
 5869 041a 38BD     		pop	{r3, r4, r5, pc}
 5870              	.LVL760:
 5871              	.L328:
1405:AS76.c        ****     {
 5872              		.loc 1 1405 0
 5873 041c FF2B     		cmp	r3, #255
 5874 041e 13D1     		bne	.L330
1407:AS76.c        ****         Write_Debug_UART_Char("\r\n");
 5875              		.loc 1 1407 0
 5876 0420 6748     		ldr	r0, .L345+32
 5877 0422 FFF7FEFF 		bl	Write_Debug_UART_Char
 5878              	.LVL761:
1408:AS76.c        ****         CyDelay(500);
 5879              		.loc 1 1408 0
 5880 0426 6748     		ldr	r0, .L345+36
 5881 0428 FFF7FEFF 		bl	Write_Debug_UART_Char
 5882              	.LVL762:
1409:AS76.c        ****         Send_Feedback_to_USB(0);
 5883              		.loc 1 1409 0
 5884 042c 4FF4FA70 		mov	r0, #500
 5885 0430 FFF7FEFF 		bl	CyDelay
 5886              	.LVL763:
1410:AS76.c        ****         CyDelay(500);
ARM GAS  C:\Users\Revanth\AppData\Local\Temp\ccHsQCvB.s 			page 159


 5887              		.loc 1 1410 0
 5888 0434 0020     		movs	r0, #0
 5889 0436 FFF7FEFF 		bl	Send_Feedback_to_USB
 5890              	.LVL764:
1411:AS76.c        ****         CySoftwareReset();
 5891              		.loc 1 1411 0
 5892 043a 4FF4FA70 		mov	r0, #500
 5893 043e FFF7FEFF 		bl	CyDelay
 5894              	.LVL765:
1412:AS76.c        ****     }
 5895              		.loc 1 1412 0
 5896 0442 FFF7FEFF 		bl	CySoftwareReset
 5897              	.LVL766:
 5898 0446 38BD     		pop	{r3, r4, r5, pc}
 5899              	.L330:
1414:AS76.c        ****     {
 5900              		.loc 1 1414 0
 5901 0448 B3F5F64F 		cmp	r3, #31488
 5902 044c 4CD1     		bne	.L331
1417:AS76.c        ****         Motor_Speed_Y = ((int32)USB_received[9] << 24) + ((int32)USB_received[8] << 16) + ((int32)U
 5903              		.loc 1 1417 0
 5904 044e 584B     		ldr	r3, .L345+16
 5905 0450 5979     		ldrb	r1, [r3, #5]	@ zero_extendqisi2
 5906 0452 1A79     		ldrb	r2, [r3, #4]	@ zero_extendqisi2
 5907 0454 1204     		lsls	r2, r2, #16
 5908 0456 02EB0162 		add	r2, r2, r1, lsl #24
 5909 045a D978     		ldrb	r1, [r3, #3]	@ zero_extendqisi2
 5910 045c 02EB0122 		add	r2, r2, r1, lsl #8
 5911 0460 9978     		ldrb	r1, [r3, #2]	@ zero_extendqisi2
 5912 0462 0A44     		add	r2, r2, r1
 5913 0464 584C     		ldr	r4, .L345+40
 5914 0466 6261     		str	r2, [r4, #20]
1418:AS76.c        ****         Motor_Speed_Z = ((int32)USB_received[13] << 24) + ((int32)USB_received[12] << 16) + ((int32
 5915              		.loc 1 1418 0
 5916 0468 597A     		ldrb	r1, [r3, #9]	@ zero_extendqisi2
 5917 046a 1A7A     		ldrb	r2, [r3, #8]	@ zero_extendqisi2
 5918 046c 1204     		lsls	r2, r2, #16
 5919 046e 02EB0162 		add	r2, r2, r1, lsl #24
 5920 0472 D979     		ldrb	r1, [r3, #7]	@ zero_extendqisi2
 5921 0474 02EB0122 		add	r2, r2, r1, lsl #8
 5922 0478 9979     		ldrb	r1, [r3, #6]	@ zero_extendqisi2
 5923 047a 0A44     		add	r2, r2, r1
 5924 047c A261     		str	r2, [r4, #24]
1419:AS76.c        ****         
 5925              		.loc 1 1419 0
 5926 047e 597B     		ldrb	r1, [r3, #13]	@ zero_extendqisi2
 5927 0480 1A7B     		ldrb	r2, [r3, #12]	@ zero_extendqisi2
 5928 0482 1204     		lsls	r2, r2, #16
 5929 0484 02EB0162 		add	r2, r2, r1, lsl #24
 5930 0488 D97A     		ldrb	r1, [r3, #11]	@ zero_extendqisi2
 5931 048a 02EB0122 		add	r2, r2, r1, lsl #8
 5932 048e 9B7A     		ldrb	r3, [r3, #10]	@ zero_extendqisi2
 5933 0490 1A44     		add	r2, r2, r3
 5934 0492 E261     		str	r2, [r4, #28]
1421:AS76.c        ****         
 5935              		.loc 1 1421 0
 5936 0494 4D48     		ldr	r0, .L345+44
ARM GAS  C:\Users\Revanth\AppData\Local\Temp\ccHsQCvB.s 			page 160


 5937 0496 FFF7FEFF 		bl	Write_Debug_UART_Char
 5938              	.LVL767:
1423:AS76.c        ****         update_max_velocity(Motor_Speed_Y, TMC5160_nCS_MotorY);        
 5939              		.loc 1 1423 0
 5940 049a 0021     		movs	r1, #0
 5941 049c 6069     		ldr	r0, [r4, #20]
 5942 049e FFF7FEFF 		bl	update_max_velocity
 5943              	.LVL768:
1424:AS76.c        ****         update_max_velocity(Motor_Speed_Z, TMC5160_nCS_MotorZ);
 5944              		.loc 1 1424 0
 5945 04a2 0121     		movs	r1, #1
 5946 04a4 A069     		ldr	r0, [r4, #24]
 5947 04a6 FFF7FEFF 		bl	update_max_velocity
 5948              	.LVL769:
1425:AS76.c        ****         Write_Debug_UART_Char("Value received for x,y and z is --->");
 5949              		.loc 1 1425 0
 5950 04aa 0221     		movs	r1, #2
 5951 04ac E069     		ldr	r0, [r4, #28]
 5952 04ae FFF7FEFF 		bl	update_max_velocity
 5953              	.LVL770:
1426:AS76.c        ****         Write_Debug_UART_Int(Motor_Speed_X);
 5954              		.loc 1 1426 0
 5955 04b2 4748     		ldr	r0, .L345+48
 5956 04b4 FFF7FEFF 		bl	Write_Debug_UART_Char
 5957              	.LVL771:
1427:AS76.c        ****         Write_Debug_UART_Char(",");
 5958              		.loc 1 1427 0
 5959 04b8 6069     		ldr	r0, [r4, #20]
 5960 04ba FFF7FEFF 		bl	Write_Debug_UART_Int
 5961              	.LVL772:
1428:AS76.c        ****         Write_Debug_UART_Int(Motor_Speed_Y);
 5962              		.loc 1 1428 0
 5963 04be 454D     		ldr	r5, .L345+52
 5964 04c0 2846     		mov	r0, r5
 5965 04c2 FFF7FEFF 		bl	Write_Debug_UART_Char
 5966              	.LVL773:
1429:AS76.c        ****         Write_Debug_UART_Char(",");
 5967              		.loc 1 1429 0
 5968 04c6 A069     		ldr	r0, [r4, #24]
 5969 04c8 FFF7FEFF 		bl	Write_Debug_UART_Int
 5970              	.LVL774:
1430:AS76.c        ****         Write_Debug_UART_Int(Motor_Speed_Z);
 5971              		.loc 1 1430 0
 5972 04cc 2846     		mov	r0, r5
 5973 04ce FFF7FEFF 		bl	Write_Debug_UART_Char
 5974              	.LVL775:
1431:AS76.c        ****         Write_Debug_UART_Char(",");
 5975              		.loc 1 1431 0
 5976 04d2 E069     		ldr	r0, [r4, #28]
 5977 04d4 FFF7FEFF 		bl	Write_Debug_UART_Int
 5978              	.LVL776:
1432:AS76.c        ****         Send_Feedback_to_USB(Error);
 5979              		.loc 1 1432 0
 5980 04d8 2846     		mov	r0, r5
 5981 04da FFF7FEFF 		bl	Write_Debug_UART_Char
 5982              	.LVL777:
1433:AS76.c        ****     }
ARM GAS  C:\Users\Revanth\AppData\Local\Temp\ccHsQCvB.s 			page 161


 5983              		.loc 1 1433 0
 5984 04de 354B     		ldr	r3, .L345+20
 5985 04e0 986A     		ldr	r0, [r3, #40]
 5986 04e2 FFF7FEFF 		bl	Send_Feedback_to_USB
 5987              	.LVL778:
 5988 04e6 38BD     		pop	{r3, r4, r5, pc}
 5989              	.L331:
1436:AS76.c        ****     {
 5990              		.loc 1 1436 0
 5991 04e8 40F2D172 		movw	r2, #2001
 5992 04ec 9342     		cmp	r3, r2
 5993 04ee 31D1     		bne	.L332
1438:AS76.c        ****     Motor_Speed_Z = ((int32)USB_received[9] << 24) + ((int32)USB_received[8] << 16) + ((int32)USB_r
 5994              		.loc 1 1438 0
 5995 04f0 2F4B     		ldr	r3, .L345+16
 5996 04f2 5979     		ldrb	r1, [r3, #5]	@ zero_extendqisi2
 5997 04f4 1A79     		ldrb	r2, [r3, #4]	@ zero_extendqisi2
 5998 04f6 1204     		lsls	r2, r2, #16
 5999 04f8 02EB0162 		add	r2, r2, r1, lsl #24
 6000 04fc D978     		ldrb	r1, [r3, #3]	@ zero_extendqisi2
 6001 04fe 02EB0122 		add	r2, r2, r1, lsl #8
 6002 0502 9978     		ldrb	r1, [r3, #2]	@ zero_extendqisi2
 6003 0504 0A44     		add	r2, r2, r1
 6004 0506 2B4C     		ldr	r4, .L345+20
 6005 0508 E263     		str	r2, [r4, #60]
1439:AS76.c        ****     update_max_velocity(Motor_Speed_Z,TMC5160_nCS_MotorZ);    
 6006              		.loc 1 1439 0
 6007 050a 597A     		ldrb	r1, [r3, #9]	@ zero_extendqisi2
 6008 050c 1A7A     		ldrb	r2, [r3, #8]	@ zero_extendqisi2
 6009 050e 1204     		lsls	r2, r2, #16
 6010 0510 02EB0162 		add	r2, r2, r1, lsl #24
 6011 0514 D979     		ldrb	r1, [r3, #7]	@ zero_extendqisi2
 6012 0516 02EB0122 		add	r2, r2, r1, lsl #8
 6013 051a 9879     		ldrb	r0, [r3, #6]	@ zero_extendqisi2
 6014 051c 1044     		add	r0, r0, r2
 6015 051e 2A4B     		ldr	r3, .L345+40
 6016 0520 D861     		str	r0, [r3, #28]
1440:AS76.c        ****     Position_Z_Requested = (Position_Z_Requested / 16);
 6017              		.loc 1 1440 0
 6018 0522 0221     		movs	r1, #2
 6019 0524 FFF7FEFF 		bl	update_max_velocity
 6020              	.LVL779:
1441:AS76.c        ****     Position_Z_Requested = Position_Z_Requested * 51.2;
 6021              		.loc 1 1441 0
 6022 0528 E06B     		ldr	r0, [r4, #60]
 6023 052a 0028     		cmp	r0, #0
 6024 052c 00DA     		bge	.L333
 6025 052e 0F30     		adds	r0, r0, #15
 6026              	.L333:
 6027 0530 204C     		ldr	r4, .L345+20
1442:AS76.c        ****     goTo_Z(Position_Z_Requested);
 6028              		.loc 1 1442 0
 6029 0532 0011     		asrs	r0, r0, #4
 6030 0534 FFF7FEFF 		bl	__aeabi_i2d
 6031              	.LVL780:
 6032 0538 1BA3     		adr	r3, .L345+8
 6033 053a D3E90023 		ldrd	r2, [r3]
ARM GAS  C:\Users\Revanth\AppData\Local\Temp\ccHsQCvB.s 			page 162


 6034 053e FFF7FEFF 		bl	__aeabi_dmul
 6035              	.LVL781:
 6036 0542 FFF7FEFF 		bl	__aeabi_d2iz
 6037              	.LVL782:
 6038 0546 E063     		str	r0, [r4, #60]
1443:AS76.c        ****     Send_Feedback_to_USB(Error);
 6039              		.loc 1 1443 0
 6040 0548 FFF7FEFF 		bl	goTo_Z
 6041              	.LVL783:
1444:AS76.c        ****     }
 6042              		.loc 1 1444 0
 6043 054c A06A     		ldr	r0, [r4, #40]
 6044 054e FFF7FEFF 		bl	Send_Feedback_to_USB
 6045              	.LVL784:
 6046 0552 38BD     		pop	{r3, r4, r5, pc}
 6047              	.L332:
1447:AS76.c        ****     {        
 6048              		.loc 1 1447 0
 6049 0554 40F2D272 		movw	r2, #2002
 6050 0558 9342     		cmp	r3, r2
 6051 055a 3DD1     		bne	.L334
1449:AS76.c        ****     oil_speed = ((int32)USB_received[9] << 24) + ((int32)USB_received[8] << 16) + ((int32)USB_recei
 6052              		.loc 1 1449 0
 6053 055c 144B     		ldr	r3, .L345+16
 6054 055e 5979     		ldrb	r1, [r3, #5]	@ zero_extendqisi2
 6055 0560 1A79     		ldrb	r2, [r3, #4]	@ zero_extendqisi2
 6056 0562 1204     		lsls	r2, r2, #16
 6057 0564 02EB0162 		add	r2, r2, r1, lsl #24
 6058 0568 D978     		ldrb	r1, [r3, #3]	@ zero_extendqisi2
 6059 056a 02EB0122 		add	r2, r2, r1, lsl #8
 6060 056e 9878     		ldrb	r0, [r3, #2]	@ zero_extendqisi2
 6061 0570 1044     		add	r0, r0, r2
 6062 0572 104C     		ldr	r4, .L345+20
 6063 0574 6064     		str	r0, [r4, #68]
1450:AS76.c        ****     oil_dir   = USB_received[10];
 6064              		.loc 1 1450 0
 6065 0576 597A     		ldrb	r1, [r3, #9]	@ zero_extendqisi2
 6066 0578 1A7A     		ldrb	r2, [r3, #8]	@ zero_extendqisi2
 6067 057a 1204     		lsls	r2, r2, #16
 6068 057c 02EB0162 		add	r2, r2, r1, lsl #24
 6069 0580 D979     		ldrb	r1, [r3, #7]	@ zero_extendqisi2
 6070 0582 02EB0122 		add	r2, r2, r1, lsl #8
 6071 0586 9979     		ldrb	r1, [r3, #6]	@ zero_extendqisi2
 6072 0588 1144     		add	r1, r1, r2
 6073 058a A164     		str	r1, [r4, #72]
1451:AS76.c        ****     run_pumpvs (time_ms, oil_speed, oil_dir);
 6074              		.loc 1 1451 0
 6075 058c 9A7A     		ldrb	r2, [r3, #10]	@ zero_extendqisi2
 6076 058e E264     		str	r2, [r4, #76]
1452:AS76.c        ****     Error = 0;
 6077              		.loc 1 1452 0
 6078 0590 FFF7FEFF 		bl	run_pumpvs
 6079              	.LVL785:
1453:AS76.c        ****     Send_Feedback_to_USB(Error);
 6080              		.loc 1 1453 0
 6081 0594 0020     		movs	r0, #0
 6082 0596 A062     		str	r0, [r4, #40]
ARM GAS  C:\Users\Revanth\AppData\Local\Temp\ccHsQCvB.s 			page 163


1454:AS76.c        ****     }
 6083              		.loc 1 1454 0
 6084 0598 FFF7FEFF 		bl	Send_Feedback_to_USB
 6085              	.LVL786:
 6086 059c 38BD     		pop	{r3, r4, r5, pc}
 6087              	.L346:
 6088 059e 00BF     		.align	3
 6089              	.L345:
 6090 05a0 9A999999 		.word	-1717986918
 6091 05a4 99992940 		.word	1076468121
 6092 05a8 9A999999 		.word	-1717986918
 6093 05ac 99994940 		.word	1078565273
 6094 05b0 00000000 		.word	USB_received
 6095 05b4 00000000 		.word	.LANCHOR0
 6096 05b8 03010700 		.word	459011
 6097 05bc D0040000 		.word	.LC41
 6098 05c0 F8040000 		.word	.LC42
 6099 05c4 B8000000 		.word	.LC8
 6100 05c8 00000000 		.word	.LANCHOR1
 6101 05cc 18050000 		.word	.LC43
 6102 05d0 40050000 		.word	.LC44
 6103 05d4 68050000 		.word	.LC45
 6104              	.L334:
1457:AS76.c        ****     {
 6105              		.loc 1 1457 0
 6106 05d8 40F2C172 		movw	r2, #1985
 6107 05dc 9342     		cmp	r3, r2
 6108 05de 40F09780 		bne	.L335
1459:AS76.c        ****         Input_Position_X_Temp = Position_X_Requested;
 6109              		.loc 1 1459 0
 6110 05e2 634B     		ldr	r3, .L347+16
 6111 05e4 5979     		ldrb	r1, [r3, #5]	@ zero_extendqisi2
 6112 05e6 1A79     		ldrb	r2, [r3, #4]	@ zero_extendqisi2
 6113 05e8 1204     		lsls	r2, r2, #16
 6114 05ea 02EB0162 		add	r2, r2, r1, lsl #24
 6115 05ee D978     		ldrb	r1, [r3, #3]	@ zero_extendqisi2
 6116 05f0 02EB0122 		add	r2, r2, r1, lsl #8
 6117 05f4 9978     		ldrb	r1, [r3, #2]	@ zero_extendqisi2
 6118 05f6 0A44     		add	r2, r2, r1
 6119 05f8 5E4D     		ldr	r5, .L347+20
 6120 05fa 6A63     		str	r2, [r5, #52]
1460:AS76.c        ****         Position_Y_Requested = ((int32)USB_received[9] << 24) + ((int32)USB_received[8] << 16) + ((
 6121              		.loc 1 1460 0
 6122 05fc 2A62     		str	r2, [r5, #32]
1461:AS76.c        ****         Position_Z_Requested = ((int32)USB_received[13] << 24) + ((int32)USB_received[12] << 16) + 
 6123              		.loc 1 1461 0
 6124 05fe 597A     		ldrb	r1, [r3, #9]	@ zero_extendqisi2
 6125 0600 1A7A     		ldrb	r2, [r3, #8]	@ zero_extendqisi2
 6126 0602 1204     		lsls	r2, r2, #16
 6127 0604 02EB0162 		add	r2, r2, r1, lsl #24
 6128 0608 D979     		ldrb	r1, [r3, #7]	@ zero_extendqisi2
 6129 060a 02EB0122 		add	r2, r2, r1, lsl #8
 6130 060e 9979     		ldrb	r1, [r3, #6]	@ zero_extendqisi2
 6131 0610 0A44     		add	r2, r2, r1
 6132 0612 AA63     		str	r2, [r5, #56]
1462:AS76.c        ****         
 6133              		.loc 1 1462 0
ARM GAS  C:\Users\Revanth\AppData\Local\Temp\ccHsQCvB.s 			page 164


 6134 0614 597B     		ldrb	r1, [r3, #13]	@ zero_extendqisi2
 6135 0616 1A7B     		ldrb	r2, [r3, #12]	@ zero_extendqisi2
 6136 0618 1204     		lsls	r2, r2, #16
 6137 061a 02EB0162 		add	r2, r2, r1, lsl #24
 6138 061e D97A     		ldrb	r1, [r3, #11]	@ zero_extendqisi2
 6139 0620 02EB0122 		add	r2, r2, r1, lsl #8
 6140 0624 997A     		ldrb	r1, [r3, #10]	@ zero_extendqisi2
 6141 0626 0A44     		add	r2, r2, r1
 6142 0628 EA63     		str	r2, [r5, #60]
1464:AS76.c        ****         Motor_Speed_Y = ((int32)USB_received[21] << 24) + ((int32)USB_received[20] << 16) + ((int32
 6143              		.loc 1 1464 0
 6144 062a 597C     		ldrb	r1, [r3, #17]	@ zero_extendqisi2
 6145 062c 1A7C     		ldrb	r2, [r3, #16]	@ zero_extendqisi2
 6146 062e 1204     		lsls	r2, r2, #16
 6147 0630 02EB0162 		add	r2, r2, r1, lsl #24
 6148 0634 D97B     		ldrb	r1, [r3, #15]	@ zero_extendqisi2
 6149 0636 02EB0122 		add	r2, r2, r1, lsl #8
 6150 063a 997B     		ldrb	r1, [r3, #14]	@ zero_extendqisi2
 6151 063c 0A44     		add	r2, r2, r1
 6152 063e 4E4C     		ldr	r4, .L347+24
 6153 0640 6261     		str	r2, [r4, #20]
1465:AS76.c        ****         Motor_Speed_Z = ((int32)USB_received[25] << 24) + ((int32)USB_received[24] << 16) + ((int32
 6154              		.loc 1 1465 0
 6155 0642 597D     		ldrb	r1, [r3, #21]	@ zero_extendqisi2
 6156 0644 1A7D     		ldrb	r2, [r3, #20]	@ zero_extendqisi2
 6157 0646 1204     		lsls	r2, r2, #16
 6158 0648 02EB0162 		add	r2, r2, r1, lsl #24
 6159 064c D97C     		ldrb	r1, [r3, #19]	@ zero_extendqisi2
 6160 064e 02EB0122 		add	r2, r2, r1, lsl #8
 6161 0652 997C     		ldrb	r1, [r3, #18]	@ zero_extendqisi2
 6162 0654 0A44     		add	r2, r2, r1
 6163 0656 A261     		str	r2, [r4, #24]
1466:AS76.c        ****         
 6164              		.loc 1 1466 0
 6165 0658 597E     		ldrb	r1, [r3, #25]	@ zero_extendqisi2
 6166 065a 1A7E     		ldrb	r2, [r3, #24]	@ zero_extendqisi2
 6167 065c 1204     		lsls	r2, r2, #16
 6168 065e 02EB0162 		add	r2, r2, r1, lsl #24
 6169 0662 D97D     		ldrb	r1, [r3, #23]	@ zero_extendqisi2
 6170 0664 02EB0122 		add	r2, r2, r1, lsl #8
 6171 0668 9B7D     		ldrb	r3, [r3, #22]	@ zero_extendqisi2
 6172 066a 1A44     		add	r2, r2, r3
 6173 066c E261     		str	r2, [r4, #28]
1468:AS76.c        ****         
 6174              		.loc 1 1468 0
 6175 066e 0A20     		movs	r0, #10
 6176 0670 FFF7FEFF 		bl	CyDelayUs
 6177              	.LVL787:
1470:AS76.c        ****         update_max_velocity(Motor_Speed_Y, TMC5160_nCS_MotorY);        
 6178              		.loc 1 1470 0
 6179 0674 0021     		movs	r1, #0
 6180 0676 6069     		ldr	r0, [r4, #20]
 6181 0678 FFF7FEFF 		bl	update_max_velocity
 6182              	.LVL788:
1471:AS76.c        ****         update_max_velocity(Motor_Speed_Z, TMC5160_nCS_MotorZ);
 6183              		.loc 1 1471 0
 6184 067c 0121     		movs	r1, #1
ARM GAS  C:\Users\Revanth\AppData\Local\Temp\ccHsQCvB.s 			page 165


 6185 067e A069     		ldr	r0, [r4, #24]
 6186 0680 FFF7FEFF 		bl	update_max_velocity
 6187              	.LVL789:
1472:AS76.c        ****         
 6188              		.loc 1 1472 0
 6189 0684 0221     		movs	r1, #2
 6190 0686 E069     		ldr	r0, [r4, #28]
 6191 0688 FFF7FEFF 		bl	update_max_velocity
 6192              	.LVL790:
1474:AS76.c        ****         Position_X_Requested = Position_X_Requested * 12.8;
 6193              		.loc 1 1474 0
 6194 068c 686B     		ldr	r0, [r5, #52]
 6195 068e 0028     		cmp	r0, #0
 6196 0690 00DA     		bge	.L336
 6197 0692 0330     		adds	r0, r0, #3
 6198              	.L336:
 6199 0694 374C     		ldr	r4, .L347+20
1475:AS76.c        ****         
 6200              		.loc 1 1475 0
 6201 0696 8010     		asrs	r0, r0, #2
 6202 0698 FFF7FEFF 		bl	__aeabi_i2d
 6203              	.LVL791:
 6204 069c 30A3     		adr	r3, .L347
 6205 069e D3E90023 		ldrd	r2, [r3]
 6206 06a2 FFF7FEFF 		bl	__aeabi_dmul
 6207              	.LVL792:
 6208 06a6 FFF7FEFF 		bl	__aeabi_d2iz
 6209              	.LVL793:
 6210 06aa 6063     		str	r0, [r4, #52]
1477:AS76.c        ****         Position_Y_Requested = Position_Y_Requested * 12.8;
 6211              		.loc 1 1477 0
 6212 06ac A06B     		ldr	r0, [r4, #56]
 6213 06ae 0028     		cmp	r0, #0
 6214 06b0 00DA     		bge	.L337
 6215 06b2 0330     		adds	r0, r0, #3
 6216              	.L337:
 6217 06b4 2F4C     		ldr	r4, .L347+20
1478:AS76.c        ****         
 6218              		.loc 1 1478 0
 6219 06b6 8010     		asrs	r0, r0, #2
 6220 06b8 FFF7FEFF 		bl	__aeabi_i2d
 6221              	.LVL794:
 6222 06bc 28A3     		adr	r3, .L347
 6223 06be D3E90023 		ldrd	r2, [r3]
 6224 06c2 FFF7FEFF 		bl	__aeabi_dmul
 6225              	.LVL795:
 6226 06c6 FFF7FEFF 		bl	__aeabi_d2iz
 6227              	.LVL796:
 6228 06ca A063     		str	r0, [r4, #56]
1480:AS76.c        ****         Position_Z_Requested = Position_Z_Requested * 51.2;
 6229              		.loc 1 1480 0
 6230 06cc E06B     		ldr	r0, [r4, #60]
 6231 06ce 0028     		cmp	r0, #0
 6232 06d0 00DA     		bge	.L338
 6233 06d2 0F30     		adds	r0, r0, #15
 6234              	.L338:
 6235 06d4 274C     		ldr	r4, .L347+20
ARM GAS  C:\Users\Revanth\AppData\Local\Temp\ccHsQCvB.s 			page 166


1481:AS76.c        ****         
 6236              		.loc 1 1481 0
 6237 06d6 0011     		asrs	r0, r0, #4
 6238 06d8 FFF7FEFF 		bl	__aeabi_i2d
 6239              	.LVL797:
 6240 06dc 22A3     		adr	r3, .L347+8
 6241 06de D3E90023 		ldrd	r2, [r3]
 6242 06e2 FFF7FEFF 		bl	__aeabi_dmul
 6243              	.LVL798:
 6244 06e6 FFF7FEFF 		bl	__aeabi_d2iz
 6245              	.LVL799:
 6246 06ea E063     		str	r0, [r4, #60]
1483:AS76.c        ****         
 6247              		.loc 1 1483 0
 6248 06ec 6420     		movs	r0, #100
 6249 06ee FFF7FEFF 		bl	CyDelayUs
 6250              	.LVL800:
1485:AS76.c        ****         CyDelay(100);
 6251              		.loc 1 1485 0
 6252 06f2 E26B     		ldr	r2, [r4, #60]
 6253 06f4 A16B     		ldr	r1, [r4, #56]
 6254 06f6 606B     		ldr	r0, [r4, #52]
 6255 06f8 FFF7FEFF 		bl	goTo_XYZ
 6256              	.LVL801:
 6257 06fc A062     		str	r0, [r4, #40]
1486:AS76.c        ****          X_QuadPosition = Position_X_Requested;
 6258              		.loc 1 1486 0
 6259 06fe 6420     		movs	r0, #100
 6260 0700 FFF7FEFF 		bl	CyDelay
 6261              	.LVL802:
1487:AS76.c        ****         Send_Feedback_to_USB(Error);
 6262              		.loc 1 1487 0
 6263 0704 636B     		ldr	r3, [r4, #52]
 6264 0706 A360     		str	r3, [r4, #8]
1488:AS76.c        ****     }
 6265              		.loc 1 1488 0
 6266 0708 A06A     		ldr	r0, [r4, #40]
 6267 070a FFF7FEFF 		bl	Send_Feedback_to_USB
 6268              	.LVL803:
 6269 070e 38BD     		pop	{r3, r4, r5, pc}
 6270              	.L335:
1490:AS76.c        ****     {
 6271              		.loc 1 1490 0
 6272 0710 B3F5F84F 		cmp	r3, #31744
 6273 0714 03D1     		bne	.L339
1494:AS76.c        ****     }
 6274              		.loc 1 1494 0
 6275 0716 0020     		movs	r0, #0
 6276 0718 FFF7FEFF 		bl	Send_Feedback_to_USB
 6277              	.LVL804:
 6278 071c 38BD     		pop	{r3, r4, r5, pc}
 6279              	.L339:
1496:AS76.c        ****     {
 6280              		.loc 1 1496 0
 6281 071e FE2B     		cmp	r3, #254
 6282 0720 0FD1     		bne	.L340
1498:AS76.c        ****         Write_Debug_UART_Char("Get Status Command Recived  \r\n");
ARM GAS  C:\Users\Revanth\AppData\Local\Temp\ccHsQCvB.s 			page 167


 6283              		.loc 1 1498 0
 6284 0722 FF20     		movs	r0, #255
 6285 0724 FFF7FEFF 		bl	LED3_Write
 6286              	.LVL805:
1499:AS76.c        ****         CyDelay(10);
 6287              		.loc 1 1499 0
 6288 0728 1448     		ldr	r0, .L347+28
 6289 072a FFF7FEFF 		bl	Write_Debug_UART_Char
 6290              	.LVL806:
1500:AS76.c        ****         Send_Feedback_to_USB(0);
 6291              		.loc 1 1500 0
 6292 072e 0A20     		movs	r0, #10
 6293 0730 FFF7FEFF 		bl	CyDelay
 6294              	.LVL807:
1501:AS76.c        ****         LED3_Write(0x00);
 6295              		.loc 1 1501 0
 6296 0734 0020     		movs	r0, #0
 6297 0736 FFF7FEFF 		bl	Send_Feedback_to_USB
 6298              	.LVL808:
1502:AS76.c        ****     }
 6299              		.loc 1 1502 0
 6300 073a 0020     		movs	r0, #0
 6301 073c FFF7FEFF 		bl	LED3_Write
 6302              	.LVL809:
 6303 0740 38BD     		pop	{r3, r4, r5, pc}
 6304              	.L340:
1506:AS76.c        ****         Write_Debug_UART_Char("Wrong Command Received*********** \r\n");
 6305              		.loc 1 1506 0
 6306 0742 1324     		movs	r4, #19
 6307 0744 0B4B     		ldr	r3, .L347+20
 6308 0746 9C62     		str	r4, [r3, #40]
1507:AS76.c        ****         UART_print_all_values();
 6309              		.loc 1 1507 0
 6310 0748 0D48     		ldr	r0, .L347+32
 6311 074a FFF7FEFF 		bl	Write_Debug_UART_Char
 6312              	.LVL810:
1508:AS76.c        ****         Send_Feedback_to_USB(19);
 6313              		.loc 1 1508 0
 6314 074e FFF7FEFF 		bl	UART_print_all_values
 6315              	.LVL811:
1509:AS76.c        ****     }
 6316              		.loc 1 1509 0
 6317 0752 2046     		mov	r0, r4
 6318 0754 FFF7FEFF 		bl	Send_Feedback_to_USB
 6319              	.LVL812:
 6320 0758 38BD     		pop	{r3, r4, r5, pc}
 6321              	.L348:
 6322 075a 00BFAFF3 		.align	3
 6322      0080
 6323              	.L347:
 6324 0760 9A999999 		.word	-1717986918
 6325 0764 99992940 		.word	1076468121
 6326 0768 9A999999 		.word	-1717986918
 6327 076c 99994940 		.word	1078565273
 6328 0770 00000000 		.word	USB_received
 6329 0774 00000000 		.word	.LANCHOR0
 6330 0778 00000000 		.word	.LANCHOR1
ARM GAS  C:\Users\Revanth\AppData\Local\Temp\ccHsQCvB.s 			page 168


 6331 077c 6C050000 		.word	.LC46
 6332 0780 8C050000 		.word	.LC47
 6333              		.cfi_endproc
 6334              	.LFE91:
 6335              		.size	Process_USB_Data, .-Process_USB_Data
 6336              		.global	exit_loop
 6337              		.global	ms_count
 6338              		.global	PWM_barcode_comare_value
 6339              		.global	PWM_Condenser_comare_value
 6340              		.global	HomeT_done_Buffer
 6341              		.global	HomeZ_done_Buffer
 6342              		.global	HomeY_done_Buffer
 6343              		.global	HomeX_done_Buffer
 6344              		.global	HomeT_done
 6345              		.global	HomeZ_done
 6346              		.global	HomeY_done
 6347              		.global	HomeX_done
 6348              		.global	Motor_Speed_Z
 6349              		.global	Motor_Speed_Y
 6350              		.global	Motor_Speed_X
 6351              		.global	T_Pitchfactor
 6352              		.global	Z_Pitchfactor
 6353              		.global	Y_Pitchfactor
 6354              		.global	X_Pitchfactor
 6355              		.global	Buffer_T_QuadPosition
 6356              		.global	Buffer_Z_QuadPosition
 6357              		.global	EncoderTZSelect
 6358              		.global	T_QuadPosition
 6359              		.global	Z_QuadPosition
 6360              		.global	Y_QuadPosition
 6361              		.global	X_QuadPosition
 6362              		.global	oil_dir
 6363              		.global	oil_speed
 6364              		.global	time_ms
 6365              		.global	Position_T_Requested
 6366              		.global	Position_Z_Requested
 6367              		.global	Input_Position_X_Temp
 6368              		.global	Position_X_Requested
 6369              		.global	Position_Y_Requested
 6370              		.global	Error
 6371              		.comm	command,4,4
 6372              		.global	Time_Out_Error
 6373              		.comm	USB_transmit,58,4
 6374              		.comm	USB_received,64,4
 6375              		.comm	count,2,2
 6376              		.comm	Is_Slide_On_Gripper,1,1
 6377              		.data
 6378              		.align	2
 6379              		.set	.LANCHOR1,. + 0
 6380              		.type	PWM_Condenser_comare_value, %object
 6381              		.size	PWM_Condenser_comare_value, 4
 6382              	PWM_Condenser_comare_value:
 6383 0000 C8000000 		.word	200
 6384              		.type	Str_Last_One.9208, %object
 6385              		.size	Str_Last_One.9208, 13
 6386              	Str_Last_One.9208:
 6387 0004 53686F6E 		.ascii	"ShonitV2.2\015\012\000"
ARM GAS  C:\Users\Revanth\AppData\Local\Temp\ccHsQCvB.s 			page 169


 6387      69745632 
 6387      2E320D0A 
 6387      00
 6388 0011 000000   		.space	3
 6389              		.type	Motor_Speed_X, %object
 6390              		.size	Motor_Speed_X, 4
 6391              	Motor_Speed_X:
 6392 0014 00B00400 		.word	307200
 6393              		.type	Motor_Speed_Y, %object
 6394              		.size	Motor_Speed_Y, 4
 6395              	Motor_Speed_Y:
 6396 0018 00B00400 		.word	307200
 6397              		.type	Motor_Speed_Z, %object
 6398              		.size	Motor_Speed_Z, 4
 6399              	Motor_Speed_Z:
 6400 001c 00B00400 		.word	307200
 6401              		.type	HomeY_done, %object
 6402              		.size	HomeY_done, 1
 6403              	HomeY_done:
 6404 0020 01       		.byte	1
 6405              		.type	HomeX_done, %object
 6406              		.size	HomeX_done, 1
 6407              	HomeX_done:
 6408 0021 01       		.byte	1
 6409              		.type	HomeZ_done, %object
 6410              		.size	HomeZ_done, 1
 6411              	HomeZ_done:
 6412 0022 01       		.byte	1
 6413 0023 00       		.space	1
 6414              		.type	X_Pitchfactor, %object
 6415              		.size	X_Pitchfactor, 4
 6416              	X_Pitchfactor:
 6417 0024 CDCC4C41 		.word	1095552205
 6418              		.type	HomeT_done, %object
 6419              		.size	HomeT_done, 1
 6420              	HomeT_done:
 6421 0028 01       		.byte	1
 6422 0029 000000   		.space	3
 6423              		.type	T_Pitchfactor, %object
 6424              		.size	T_Pitchfactor, 4
 6425              	T_Pitchfactor:
 6426 002c CDCC4C40 		.word	1078774989
 6427              		.type	Z_Pitchfactor, %object
 6428              		.size	Z_Pitchfactor, 4
 6429              	Z_Pitchfactor:
 6430 0030 CDCC4C40 		.word	1078774989
 6431              		.type	Y_Pitchfactor, %object
 6432              		.size	Y_Pitchfactor, 4
 6433              	Y_Pitchfactor:
 6434 0034 CDCC4C41 		.word	1095552205
 6435              		.type	Time_Out_Error, %object
 6436              		.size	Time_Out_Error, 1
 6437              	Time_Out_Error:
 6438 0038 01       		.byte	1
 6439              		.section	.rodata.str1.4,"aMS",%progbits,1
 6440              		.align	2
 6441              	.LC0:
ARM GAS  C:\Users\Revanth\AppData\Local\Temp\ccHsQCvB.s 			page 170


 6442 0000 42656570 		.ascii	"Beeped Once  \015\012\000"
 6442      6564204F 
 6442      6E636520 
 6442      200D0A00 
 6443              	.LC1:
 6444 0010 42656570 		.ascii	"Beeped Twice  \015\012\000"
 6444      65642054 
 6444      77696365 
 6444      20200D0A 
 6444      00
 6445 0021 000000   		.space	3
 6446              	.LC2:
 6447 0024 42656570 		.ascii	"Beeped Long  \015\012\000"
 6447      6564204C 
 6447      6F6E6720 
 6447      200D0A00 
 6448              	.LC3:
 6449 0034 46656564 		.ascii	"Feedback Sent to Motherboard  \015\012\000"
 6449      6261636B 
 6449      2053656E 
 6449      7420746F 
 6449      204D6F74 
 6450 0055 000000   		.space	3
 6451              	.LC4:
 6452 0058 55534220 		.ascii	"USB not Connected***********  \015\012\000"
 6452      6E6F7420 
 6452      436F6E6E 
 6452      65637465 
 6452      642A2A2A 
 6453 0079 000000   		.space	3
 6454              	.LC5:
 6455 007c 55534220 		.ascii	"USB Connected  \015\012\000"
 6455      436F6E6E 
 6455      65637465 
 6455      6420200D 
 6455      0A00
 6456 008e 0000     		.space	2
 6457              	.LC6:
 6458 0090 25642C20 		.ascii	"%d, \000"
 6458      00
 6459 0095 000000   		.space	3
 6460              	.LC7:
 6461 0098 4C454420 		.ascii	"LED Barcode Value Recived--->\000"
 6461      42617263 
 6461      6F646520 
 6461      56616C75 
 6461      65205265 
 6462 00b6 0000     		.space	2
 6463              	.LC8:
 6464 00b8 0D0A00   		.ascii	"\015\012\000"
 6465 00bb 00       		.space	1
 6466              	.LC9:
 6467 00bc 53657420 		.ascii	"Set Barcode LED Command Executed  \015\012\000"
 6467      42617263 
 6467      6F646520 
 6467      4C454420 
 6467      436F6D6D 
ARM GAS  C:\Users\Revanth\AppData\Local\Temp\ccHsQCvB.s 			page 171


 6468 00e1 000000   		.space	3
 6469              	.LC10:
 6470 00e4 204C4544 		.ascii	" LED Value Recived--->\000"
 6470      2056616C 
 6470      75652052 
 6470      65636976 
 6470      65642D2D 
 6471 00fb 00       		.space	1
 6472              	.LC11:
 6473 00fc 53657420 		.ascii	"Set LED Command Executed  \015\012\000"
 6473      4C454420 
 6473      436F6D6D 
 6473      616E6420 
 6473      45786563 
 6474 0119 000000   		.space	3
 6475              	.LC12:
 6476 011c 2D2D2D2D 		.ascii	"--------------------------------------------------\000"
 6476      2D2D2D2D 
 6476      2D2D2D2D 
 6476      2D2D2D2D 
 6476      2D2D2D2D 
 6477 014f 00       		.space	1
 6478              	.LC13:
 6479 0150 0A00     		.ascii	"\012\000"
 6480 0152 0000     		.space	2
 6481              	.LC14:
 6482 0154 595F486F 		.ascii	"Y_Homing_Not_Done_Yet***********[x12]  \015\012\000"
 6482      6D696E67 
 6482      5F4E6F74 
 6482      5F446F6E 
 6482      655F5965 
 6483 017e 0000     		.space	2
 6484              	.LC15:
 6485 0180 585F486F 		.ascii	"X_Homing_Not_Done_Yet***********  \015\012\000"
 6485      6D696E67 
 6485      5F4E6F74 
 6485      5F446F6E 
 6485      655F5965 
 6486 01a5 000000   		.space	3
 6487              	.LC16:
 6488 01a8 5A5F486F 		.ascii	"Z_Homing_Not_Done_Yet***********  \015\012\000"
 6488      6D696E67 
 6488      5F4E6F74 
 6488      5F446F6E 
 6488      655F5965 
 6489 01cd 000000   		.space	3
 6490              	.LC17:
 6491 01d0 55534220 		.ascii	"USB Unpluged PCB resetting ***********  \015\012\000"
 6491      556E706C 
 6491      75676564 
 6491      20504342 
 6491      20726573 
 6492 01fb 00       		.space	1
 6493              	.LC18:
 6494 01fc 4E6F2056 		.ascii	"No Valid Driver nCS asserted/de-asserted for SPI Re"
 6494      616C6964 
 6494      20447269 
ARM GAS  C:\Users\Revanth\AppData\Local\Temp\ccHsQCvB.s 			page 172


 6494      76657220 
 6494      6E435320 
 6495 022f 61642F57 		.ascii	"ad/Write  \015\012\000"
 6495      72697465 
 6495      20200D0A 
 6495      00
 6496              	.LC19:
 6497 023c 496E7661 		.ascii	"Invalid GPIO Level Value, Unable to assert/de-asser"
 6497      6C696420 
 6497      4750494F 
 6497      204C6576 
 6497      656C2056 
 6498 026f 74206E43 		.ascii	"t nCSN Pin for SPI Read/Write  \015\012\000"
 6498      534E2050 
 6498      696E2066 
 6498      6F722053 
 6498      50492052 
 6499 0291 000000   		.space	3
 6500              	.LC20:
 6501 0294 476F746F 		.ascii	"GotoX Command Recived--->\000"
 6501      5820436F 
 6501      6D6D616E 
 6501      64205265 
 6501      63697665 
 6502 02ae 0000     		.space	2
 6503              	.LC21:
 6504 02b0 20200D0A 		.ascii	"  \015\012\000"
 6504      00
 6505 02b5 000000   		.space	3
 6506              	.LC22:
 6507 02b8 486F6D69 		.ascii	"Homing Not Done\000"
 6507      6E67204E 
 6507      6F742044 
 6507      6F6E6500 
 6508              	.LC23:
 6509 02c8 4661696C 		.ascii	"Fail to reach X position \015\012\000"
 6509      20746F20 
 6509      72656163 
 6509      68205820 
 6509      706F7369 
 6510              	.LC24:
 6511 02e4 5820456E 		.ascii	"X Encoder or X Motor Might Not be Working \015\012\000"
 6511      636F6465 
 6511      72206F72 
 6511      2058204D 
 6511      6F746F72 
 6512 0311 000000   		.space	3
 6513              	.LC25:
 6514 0314 5820706F 		.ascii	"X position Reached\000"
 6514      73697469 
 6514      6F6E2052 
 6514      65616368 
 6514      656400
 6515 0327 00       		.space	1
 6516              	.LC26:
 6517 0328 4661696C 		.ascii	"Fail to reach Y position \015\012\000"
 6517      20746F20 
ARM GAS  C:\Users\Revanth\AppData\Local\Temp\ccHsQCvB.s 			page 173


 6517      72656163 
 6517      68205920 
 6517      706F7369 
 6518              	.LC27:
 6519 0344 5920456E 		.ascii	"Y Encoder or Y Motor Might Not be Working \015\012\000"
 6519      636F6465 
 6519      72206F72 
 6519      2059204D 
 6519      6F746F72 
 6520 0371 000000   		.space	3
 6521              	.LC28:
 6522 0374 5920706F 		.ascii	"Y position Reached\000"
 6522      73697469 
 6522      6F6E2052 
 6522      65616368 
 6522      656400
 6523 0387 00       		.space	1
 6524              	.LC29:
 6525 0388 4661696C 		.ascii	"Fail to reach Z position \015\012\000"
 6525      20746F20 
 6525      72656163 
 6525      68205A20 
 6525      706F7369 
 6526              	.LC30:
 6527 03a4 5A20456E 		.ascii	"Z Encoder or Z Motor Might Not be Working \015\012\000"
 6527      636F6465 
 6527      72206F72 
 6527      205A204D 
 6527      6F746F72 
 6528 03d1 000000   		.space	3
 6529              	.LC31:
 6530 03d4 5A20706F 		.ascii	"Z position Reached\000"
 6530      73697469 
 6530      6F6E2052 
 6530      65616368 
 6530      656400
 6531 03e7 00       		.space	1
 6532              	.LC32:
 6533 03e8 476F746F 		.ascii	"GotoZ Command Recived--->\000"
 6533      5A20436F 
 6533      6D6D616E 
 6533      64205265 
 6533      63697665 
 6534 0402 0000     		.space	2
 6535              	.LC33:
 6536 0404 4661696C 		.ascii	"Fail to reach T position \015\012\000"
 6536      20746F20 
 6536      72656163 
 6536      68205420 
 6536      706F7369 
 6537              	.LC34:
 6538 0420 5420456E 		.ascii	"T Encoder or T Motor Might Not be Working \015\012\000"
 6538      636F6465 
 6538      72206F72 
 6538      2054204D 
 6538      6F746F72 
 6539 044d 000000   		.space	3
ARM GAS  C:\Users\Revanth\AppData\Local\Temp\ccHsQCvB.s 			page 174


 6540              	.LC35:
 6541 0450 5420706F 		.ascii	"T position Reached\000"
 6541      73697469 
 6541      6F6E2052 
 6541      65616368 
 6541      656400
 6542 0463 00       		.space	1
 6543              	.LC36:
 6544 0464 476F746F 		.ascii	"GotoT Command Recived--->\000"
 6544      5420436F 
 6544      6D6D616E 
 6544      64205265 
 6544      63697665 
 6545 047e 0000     		.space	2
 6546              	.LC37:
 6547 0480 486F6D65 		.ascii	"HomeX executed  \015\012\000"
 6547      58206578 
 6547      65637574 
 6547      65642020 
 6547      0D0A00
 6548 0493 00       		.space	1
 6549              	.LC38:
 6550 0494 486F6D65 		.ascii	"HomeY executed  \015\012\000"
 6550      59206578 
 6550      65637574 
 6550      65642020 
 6550      0D0A00
 6551 04a7 00       		.space	1
 6552              	.LC39:
 6553 04a8 486F6D65 		.ascii	"HomeZ executed  \015\012\000"
 6553      5A206578 
 6553      65637574 
 6553      65642020 
 6553      0D0A00
 6554 04bb 00       		.space	1
 6555              	.LC40:
 6556 04bc 486F6D65 		.ascii	"HomeT executed  \015\012\000"
 6556      54206578 
 6556      65637574 
 6556      65642020 
 6556      0D0A00
 6557 04cf 00       		.space	1
 6558              	.LC41:
 6559 04d0 4261636B 		.ascii	"Backlight LED wronf Value Provided  \015\012\000"
 6559      6C696768 
 6559      74204C45 
 6559      44207772 
 6559      6F6E6620 
 6560 04f7 00       		.space	1
 6561              	.LC42:
 6562 04f8 50434220 		.ascii	"PCB Reset Command Recived  \015\012\000"
 6562      52657365 
 6562      7420436F 
 6562      6D6D616E 
 6562      64205265 
 6563 0516 0000     		.space	2
 6564              	.LC43:
ARM GAS  C:\Users\Revanth\AppData\Local\Temp\ccHsQCvB.s 			page 175


 6565 0518 5365744E 		.ascii	"SetNoOfExecution Command Recived  \015\012\000"
 6565      6F4F6645 
 6565      78656375 
 6565      74696F6E 
 6565      20436F6D 
 6566 053d 000000   		.space	3
 6567              	.LC44:
 6568 0540 56616C75 		.ascii	"Value received for x,y and z is --->\000"
 6568      65207265 
 6568      63656976 
 6568      65642066 
 6568      6F722078 
 6569 0565 000000   		.space	3
 6570              	.LC45:
 6571 0568 2C00     		.ascii	",\000"
 6572 056a 0000     		.space	2
 6573              	.LC46:
 6574 056c 47657420 		.ascii	"Get Status Command Recived  \015\012\000"
 6574      53746174 
 6574      75732043 
 6574      6F6D6D61 
 6574      6E642052 
 6575 058b 00       		.space	1
 6576              	.LC47:
 6577 058c 57726F6E 		.ascii	"Wrong Command Received*********** \015\012\000"
 6577      6720436F 
 6577      6D6D616E 
 6577      64205265 
 6577      63656976 
 6578              		.bss
 6579              		.align	2
 6580              		.set	.LANCHOR0,. + 0
 6581              		.type	ms_count, %object
 6582              		.size	ms_count, 2
 6583              	ms_count:
 6584 0000 0000     		.space	2
 6585              		.type	exit_loop, %object
 6586              		.size	exit_loop, 1
 6587              	exit_loop:
 6588 0002 00       		.space	1
 6589 0003 00       		.space	1
 6590              		.type	EncoderTZSelect, %object
 6591              		.size	EncoderTZSelect, 4
 6592              	EncoderTZSelect:
 6593 0004 00000000 		.space	4
 6594              		.type	X_QuadPosition, %object
 6595              		.size	X_QuadPosition, 4
 6596              	X_QuadPosition:
 6597 0008 00000000 		.space	4
 6598              		.type	Y_QuadPosition, %object
 6599              		.size	Y_QuadPosition, 4
 6600              	Y_QuadPosition:
 6601 000c 00000000 		.space	4
 6602              		.type	Z_QuadPosition, %object
 6603              		.size	Z_QuadPosition, 4
 6604              	Z_QuadPosition:
 6605 0010 00000000 		.space	4
ARM GAS  C:\Users\Revanth\AppData\Local\Temp\ccHsQCvB.s 			page 176


 6606              		.type	T_QuadPosition, %object
 6607              		.size	T_QuadPosition, 4
 6608              	T_QuadPosition:
 6609 0014 00000000 		.space	4
 6610              		.type	Buffer_Z_QuadPosition, %object
 6611              		.size	Buffer_Z_QuadPosition, 4
 6612              	Buffer_Z_QuadPosition:
 6613 0018 00000000 		.space	4
 6614              		.type	Buffer_T_QuadPosition, %object
 6615              		.size	Buffer_T_QuadPosition, 4
 6616              	Buffer_T_QuadPosition:
 6617 001c 00000000 		.space	4
 6618              		.type	Input_Position_X_Temp, %object
 6619              		.size	Input_Position_X_Temp, 4
 6620              	Input_Position_X_Temp:
 6621 0020 00000000 		.space	4
 6622              		.type	PWM_barcode_comare_value, %object
 6623              		.size	PWM_barcode_comare_value, 4
 6624              	PWM_barcode_comare_value:
 6625 0024 00000000 		.space	4
 6626              		.type	Error, %object
 6627              		.size	Error, 4
 6628              	Error:
 6629 0028 00000000 		.space	4
 6630              		.type	dont_Execute_1st_Time.9191, %object
 6631              		.size	dont_Execute_1st_Time.9191, 1
 6632              	dont_Execute_1st_Time.9191:
 6633 002c 00       		.space	1
 6634              		.type	HomeX_done_Buffer, %object
 6635              		.size	HomeX_done_Buffer, 1
 6636              	HomeX_done_Buffer:
 6637 002d 00       		.space	1
 6638              		.type	HomeY_done_Buffer, %object
 6639              		.size	HomeY_done_Buffer, 1
 6640              	HomeY_done_Buffer:
 6641 002e 00       		.space	1
 6642              		.type	HomeZ_done_Buffer, %object
 6643              		.size	HomeZ_done_Buffer, 1
 6644              	HomeZ_done_Buffer:
 6645 002f 00       		.space	1
 6646              		.type	HomeT_done_Buffer, %object
 6647              		.size	HomeT_done_Buffer, 1
 6648              	HomeT_done_Buffer:
 6649 0030 00       		.space	1
 6650 0031 000000   		.space	3
 6651              		.type	Position_X_Requested, %object
 6652              		.size	Position_X_Requested, 4
 6653              	Position_X_Requested:
 6654 0034 00000000 		.space	4
 6655              		.type	Position_Y_Requested, %object
 6656              		.size	Position_Y_Requested, 4
 6657              	Position_Y_Requested:
 6658 0038 00000000 		.space	4
 6659              		.type	Position_Z_Requested, %object
 6660              		.size	Position_Z_Requested, 4
 6661              	Position_Z_Requested:
 6662 003c 00000000 		.space	4
ARM GAS  C:\Users\Revanth\AppData\Local\Temp\ccHsQCvB.s 			page 177


 6663              		.type	Position_T_Requested, %object
 6664              		.size	Position_T_Requested, 4
 6665              	Position_T_Requested:
 6666 0040 00000000 		.space	4
 6667              		.type	time_ms, %object
 6668              		.size	time_ms, 4
 6669              	time_ms:
 6670 0044 00000000 		.space	4
 6671              		.type	oil_speed, %object
 6672              		.size	oil_speed, 4
 6673              	oil_speed:
 6674 0048 00000000 		.space	4
 6675              		.type	oil_dir, %object
 6676              		.size	oil_dir, 4
 6677              	oil_dir:
 6678 004c 00000000 		.space	4
 6679              		.text
 6680              	.Letext0:
 6681              		.file 2 "c:\\program files (x86)\\cypress\\psoc creator\\4.4\\psoc creator\\import\\gnu\\arm\\5.4.
 6682              		.file 3 "c:\\program files (x86)\\cypress\\psoc creator\\4.4\\psoc creator\\import\\gnu\\arm\\5.4.
 6683              		.file 4 "Generated_Source\\PSoC5/cytypes.h"
 6684              		.file 5 "Generated_Source\\PSoC5/core_cm3.h"
 6685              		.file 6 "variables.h"
 6686              		.file 7 "Generated_Source\\PSoC5/PWM_CondenserLED.h"
 6687              		.file 8 "Generated_Source\\PSoC5/PWM_BarcodeCondenser_LED.h"
 6688              		.file 9 "Generated_Source\\PSoC5/PWM_Buzzer.h"
 6689              		.file 10 "Generated_Source\\PSoC5/CyLib.h"
 6690              		.file 11 "Generated_Source\\PSoC5/Pin_Backlight.h"
 6691              		.file 12 "Generated_Source\\PSoC5/QuadDec_TZ.h"
 6692              		.file 13 "Generated_Source\\PSoC5/Encoder_T_Z_Select.h"
 6693              		.file 14 "Generated_Source\\PSoC5/QuadDec_Y.h"
 6694              		.file 15 "Generated_Source\\PSoC5/QuadDec_X.h"
 6695              		.file 16 "Generated_Source\\PSoC5/USB_cdc.h"
 6696              		.file 17 "c:\\program files (x86)\\cypress\\psoc creator\\4.4\\psoc creator\\import\\gnu\\arm\\5.4
 6697              		.file 18 "Generated_Source\\PSoC5/UART_PCB_LOG.h"
 6698              		.file 19 "Generated_Source\\PSoC5/USB.h"
 6699              		.file 20 "c:\\program files (x86)\\cypress\\psoc creator\\4.4\\psoc creator\\import\\gnu\\arm\\5.4
 6700              		.file 21 "Generated_Source\\PSoC5/SPIM.h"
 6701              		.file 22 "Generated_Source\\PSoC5/Pin_CSMotorX.h"
 6702              		.file 23 "Generated_Source\\PSoC5/Pin_CSMotorY.h"
 6703              		.file 24 "Generated_Source\\PSoC5/Pin_CSMotorZ.h"
 6704              		.file 25 "Generated_Source\\PSoC5/Pin_CSMotorT.h"
 6705              		.file 26 "Generated_Source\\PSoC5/Pin_CSMotorO.h"
 6706              		.file 27 "Generated_Source\\PSoC5/LED3.h"
 6707              		.file 28 "Generated_Source\\PSoC5/LED2.h"
 6708              		.file 29 "Generated_Source\\PSoC5/TMC5160_MotorT_EN.h"
 6709              		.file 30 "Generated_Source\\PSoC5/wait_timer.h"
 6710              		.file 31 "Generated_Source\\PSoC5/wait_interrupt.h"
 6711              		.file 32 "Generated_Source\\PSoC5/TMC5160_MotorO_EN.h"
 6712              		.section	.debug_info,"",%progbits
 6713              	.Ldebug_info0:
 6714 0000 14400000 		.4byte	0x4014
 6715 0004 0400     		.2byte	0x4
 6716 0006 00000000 		.4byte	.Ldebug_abbrev0
 6717 000a 04       		.byte	0x4
 6718 000b 01       		.uleb128 0x1
 6719 000c 98080000 		.4byte	.LASF187
ARM GAS  C:\Users\Revanth\AppData\Local\Temp\ccHsQCvB.s 			page 178


 6720 0010 0C       		.byte	0xc
 6721 0011 FA070000 		.4byte	.LASF188
 6722 0015 1D000000 		.4byte	.LASF189
 6723 0019 00000000 		.4byte	.Ldebug_ranges0+0
 6724 001d 00000000 		.4byte	0
 6725 0021 00000000 		.4byte	.Ldebug_line0
 6726 0025 02       		.uleb128 0x2
 6727 0026 01       		.byte	0x1
 6728 0027 06       		.byte	0x6
 6729 0028 CB010000 		.4byte	.LASF0
 6730 002c 03       		.uleb128 0x3
 6731 002d 99000000 		.4byte	.LASF3
 6732 0031 02       		.byte	0x2
 6733 0032 1D       		.byte	0x1d
 6734 0033 37000000 		.4byte	0x37
 6735 0037 02       		.uleb128 0x2
 6736 0038 01       		.byte	0x1
 6737 0039 08       		.byte	0x8
 6738 003a EC070000 		.4byte	.LASF1
 6739 003e 02       		.uleb128 0x2
 6740 003f 02       		.byte	0x2
 6741 0040 05       		.byte	0x5
 6742 0041 35080000 		.4byte	.LASF2
 6743 0045 03       		.uleb128 0x3
 6744 0046 95030000 		.4byte	.LASF4
 6745 004a 02       		.byte	0x2
 6746 004b 2B       		.byte	0x2b
 6747 004c 50000000 		.4byte	0x50
 6748 0050 02       		.uleb128 0x2
 6749 0051 02       		.byte	0x2
 6750 0052 07       		.byte	0x7
 6751 0053 180A0000 		.4byte	.LASF5
 6752 0057 03       		.uleb128 0x3
 6753 0058 E8090000 		.4byte	.LASF6
 6754 005c 02       		.byte	0x2
 6755 005d 3F       		.byte	0x3f
 6756 005e 62000000 		.4byte	0x62
 6757 0062 02       		.uleb128 0x2
 6758 0063 04       		.byte	0x4
 6759 0064 05       		.byte	0x5
 6760 0065 8C020000 		.4byte	.LASF7
 6761 0069 03       		.uleb128 0x3
 6762 006a A0030000 		.4byte	.LASF8
 6763 006e 02       		.byte	0x2
 6764 006f 41       		.byte	0x41
 6765 0070 74000000 		.4byte	0x74
 6766 0074 02       		.uleb128 0x2
 6767 0075 04       		.byte	0x4
 6768 0076 07       		.byte	0x7
 6769 0077 7C040000 		.4byte	.LASF9
 6770 007b 02       		.uleb128 0x2
 6771 007c 08       		.byte	0x8
 6772 007d 05       		.byte	0x5
 6773 007e 06030000 		.4byte	.LASF10
 6774 0082 02       		.uleb128 0x2
 6775 0083 08       		.byte	0x8
 6776 0084 07       		.byte	0x7
ARM GAS  C:\Users\Revanth\AppData\Local\Temp\ccHsQCvB.s 			page 179


 6777 0085 26010000 		.4byte	.LASF11
 6778 0089 04       		.uleb128 0x4
 6779 008a 04       		.byte	0x4
 6780 008b 05       		.byte	0x5
 6781 008c 696E7400 		.ascii	"int\000"
 6782 0090 02       		.uleb128 0x2
 6783 0091 04       		.byte	0x4
 6784 0092 07       		.byte	0x7
 6785 0093 FD030000 		.4byte	.LASF12
 6786 0097 03       		.uleb128 0x3
 6787 0098 0D0B0000 		.4byte	.LASF13
 6788 009c 03       		.byte	0x3
 6789 009d 18       		.byte	0x18
 6790 009e 2C000000 		.4byte	0x2c
 6791 00a2 03       		.uleb128 0x3
 6792 00a3 21030000 		.4byte	.LASF14
 6793 00a7 03       		.byte	0x3
 6794 00a8 24       		.byte	0x24
 6795 00a9 45000000 		.4byte	0x45
 6796 00ad 03       		.uleb128 0x3
 6797 00ae E4070000 		.4byte	.LASF15
 6798 00b2 03       		.byte	0x3
 6799 00b3 2C       		.byte	0x2c
 6800 00b4 57000000 		.4byte	0x57
 6801 00b8 03       		.uleb128 0x3
 6802 00b9 5E090000 		.4byte	.LASF16
 6803 00bd 03       		.byte	0x3
 6804 00be 30       		.byte	0x30
 6805 00bf 69000000 		.4byte	0x69
 6806 00c3 02       		.uleb128 0x2
 6807 00c4 08       		.byte	0x8
 6808 00c5 04       		.byte	0x4
 6809 00c6 71060000 		.4byte	.LASF17
 6810 00ca 02       		.uleb128 0x2
 6811 00cb 04       		.byte	0x4
 6812 00cc 07       		.byte	0x7
 6813 00cd 5E060000 		.4byte	.LASF18
 6814 00d1 05       		.uleb128 0x5
 6815 00d2 04       		.byte	0x4
 6816 00d3 D7000000 		.4byte	0xd7
 6817 00d7 02       		.uleb128 0x2
 6818 00d8 01       		.byte	0x1
 6819 00d9 08       		.byte	0x8
 6820 00da 75090000 		.4byte	.LASF19
 6821 00de 02       		.uleb128 0x2
 6822 00df 08       		.byte	0x8
 6823 00e0 04       		.byte	0x4
 6824 00e1 F50B0000 		.4byte	.LASF20
 6825 00e5 02       		.uleb128 0x2
 6826 00e6 04       		.byte	0x4
 6827 00e7 04       		.byte	0x4
 6828 00e8 6F090000 		.4byte	.LASF21
 6829 00ec 06       		.uleb128 0x6
 6830 00ed F8020000 		.4byte	.LASF22
 6831 00f1 04       		.byte	0x4
 6832 00f2 E401     		.2byte	0x1e4
 6833 00f4 37000000 		.4byte	0x37
ARM GAS  C:\Users\Revanth\AppData\Local\Temp\ccHsQCvB.s 			page 180


 6834 00f8 06       		.uleb128 0x6
 6835 00f9 61000000 		.4byte	.LASF23
 6836 00fd 04       		.byte	0x4
 6837 00fe E501     		.2byte	0x1e5
 6838 0100 50000000 		.4byte	0x50
 6839 0104 06       		.uleb128 0x6
 6840 0105 09050000 		.4byte	.LASF24
 6841 0109 04       		.byte	0x4
 6842 010a E701     		.2byte	0x1e7
 6843 010c 25000000 		.4byte	0x25
 6844 0110 06       		.uleb128 0x6
 6845 0111 2F020000 		.4byte	.LASF25
 6846 0115 04       		.byte	0x4
 6847 0116 E901     		.2byte	0x1e9
 6848 0118 62000000 		.4byte	0x62
 6849 011c 07       		.uleb128 0x7
 6850 011d 7E030000 		.4byte	.LASF190
 6851 0121 01       		.byte	0x1
 6852 0122 4A       		.byte	0x4a
 6853 0123 00000000 		.4byte	.LFB64
 6854 0127 24000000 		.4byte	.LFE64-.LFB64
 6855 012b 01       		.uleb128 0x1
 6856 012c 9C       		.byte	0x9c
 6857 012d 08       		.uleb128 0x8
 6858 012e 5A010000 		.4byte	.LASF31
 6859 0132 01       		.byte	0x1
 6860 0133 4504     		.2byte	0x445
 6861 0135 00000000 		.4byte	.LFB80
 6862 0139 50000000 		.4byte	.LFE80-.LFB80
 6863 013d 01       		.uleb128 0x1
 6864 013e 9C       		.byte	0x9c
 6865 013f 03020000 		.4byte	0x203
 6866 0143 09       		.uleb128 0x9
 6867 0144 06000000 		.4byte	.LVL0
 6868 0148 2F3E0000 		.4byte	0x3e2f
 6869 014c 09       		.uleb128 0x9
 6870 014d 0E000000 		.4byte	.LVL1
 6871 0151 3A3E0000 		.4byte	0x3e3a
 6872 0155 09       		.uleb128 0x9
 6873 0156 12000000 		.4byte	.LVL2
 6874 015a 453E0000 		.4byte	0x3e45
 6875 015e 0A       		.uleb128 0xa
 6876 015f 18000000 		.4byte	.LVL3
 6877 0163 503E0000 		.4byte	0x3e50
 6878 0167 71010000 		.4byte	0x171
 6879 016b 0B       		.uleb128 0xb
 6880 016c 01       		.uleb128 0x1
 6881 016d 50       		.byte	0x50
 6882 016e 01       		.uleb128 0x1
 6883 016f 32       		.byte	0x32
 6884 0170 00       		.byte	0
 6885 0171 09       		.uleb128 0x9
 6886 0172 1C000000 		.4byte	.LVL4
 6887 0176 5B3E0000 		.4byte	0x3e5b
 6888 017a 0A       		.uleb128 0xa
 6889 017b 24000000 		.4byte	.LVL5
 6890 017f 663E0000 		.4byte	0x3e66
ARM GAS  C:\Users\Revanth\AppData\Local\Temp\ccHsQCvB.s 			page 181


 6891 0183 8F010000 		.4byte	0x18f
 6892 0187 0B       		.uleb128 0xb
 6893 0188 01       		.uleb128 0x1
 6894 0189 50       		.byte	0x50
 6895 018a 03       		.uleb128 0x3
 6896 018b 0A       		.byte	0xa
 6897 018c C409     		.2byte	0x9c4
 6898 018e 00       		.byte	0
 6899 018f 0A       		.uleb128 0xa
 6900 0190 2A000000 		.4byte	.LVL6
 6901 0194 713E0000 		.4byte	0x3e71
 6902 0198 A3010000 		.4byte	0x1a3
 6903 019c 0B       		.uleb128 0xb
 6904 019d 01       		.uleb128 0x1
 6905 019e 50       		.byte	0x50
 6906 019f 02       		.uleb128 0x2
 6907 01a0 08       		.byte	0x8
 6908 01a1 C8       		.byte	0xc8
 6909 01a2 00       		.byte	0
 6910 01a3 0A       		.uleb128 0xa
 6911 01a4 30000000 		.4byte	.LVL7
 6912 01a8 663E0000 		.4byte	0x3e66
 6913 01ac B6010000 		.4byte	0x1b6
 6914 01b0 0B       		.uleb128 0xb
 6915 01b1 01       		.uleb128 0x1
 6916 01b2 50       		.byte	0x50
 6917 01b3 01       		.uleb128 0x1
 6918 01b4 30       		.byte	0x30
 6919 01b5 00       		.byte	0
 6920 01b6 0A       		.uleb128 0xa
 6921 01b7 36000000 		.4byte	.LVL8
 6922 01bb 713E0000 		.4byte	0x3e71
 6923 01bf CA010000 		.4byte	0x1ca
 6924 01c3 0B       		.uleb128 0xb
 6925 01c4 01       		.uleb128 0x1
 6926 01c5 50       		.byte	0x50
 6927 01c6 02       		.uleb128 0x2
 6928 01c7 08       		.byte	0x8
 6929 01c8 C8       		.byte	0xc8
 6930 01c9 00       		.byte	0
 6931 01ca 0A       		.uleb128 0xa
 6932 01cb 3E000000 		.4byte	.LVL9
 6933 01cf 663E0000 		.4byte	0x3e66
 6934 01d3 DF010000 		.4byte	0x1df
 6935 01d7 0B       		.uleb128 0xb
 6936 01d8 01       		.uleb128 0x1
 6937 01d9 50       		.byte	0x50
 6938 01da 03       		.uleb128 0x3
 6939 01db 0A       		.byte	0xa
 6940 01dc C409     		.2byte	0x9c4
 6941 01de 00       		.byte	0
 6942 01df 0A       		.uleb128 0xa
 6943 01e0 44000000 		.4byte	.LVL10
 6944 01e4 713E0000 		.4byte	0x3e71
 6945 01e8 F3010000 		.4byte	0x1f3
 6946 01ec 0B       		.uleb128 0xb
 6947 01ed 01       		.uleb128 0x1
ARM GAS  C:\Users\Revanth\AppData\Local\Temp\ccHsQCvB.s 			page 182


 6948 01ee 50       		.byte	0x50
 6949 01ef 02       		.uleb128 0x2
 6950 01f0 08       		.byte	0x8
 6951 01f1 C8       		.byte	0xc8
 6952 01f2 00       		.byte	0
 6953 01f3 0C       		.uleb128 0xc
 6954 01f4 4A000000 		.4byte	.LVL11
 6955 01f8 663E0000 		.4byte	0x3e66
 6956 01fc 0B       		.uleb128 0xb
 6957 01fd 01       		.uleb128 0x1
 6958 01fe 50       		.byte	0x50
 6959 01ff 01       		.uleb128 0x1
 6960 0200 30       		.byte	0x30
 6961 0201 00       		.byte	0
 6962 0202 00       		.byte	0
 6963 0203 0D       		.uleb128 0xd
 6964 0204 13020000 		.4byte	.LASF26
 6965 0208 01       		.byte	0x1
 6966 0209 8F04     		.2byte	0x48f
 6967 020b 00000000 		.4byte	.LFB86
 6968 020f 08000000 		.4byte	.LFE86-.LFB86
 6969 0213 01       		.uleb128 0x1
 6970 0214 9C       		.byte	0x9c
 6971 0215 33020000 		.4byte	0x233
 6972 0219 0E       		.uleb128 0xe
 6973 021a DB030000 		.4byte	.LASF28
 6974 021e 01       		.byte	0x1
 6975 021f 8F04     		.2byte	0x48f
 6976 0221 97000000 		.4byte	0x97
 6977 0225 00000000 		.4byte	.LLST0
 6978 0229 09       		.uleb128 0x9
 6979 022a 06000000 		.4byte	.LVL13
 6980 022e 7C3E0000 		.4byte	0x3e7c
 6981 0232 00       		.byte	0
 6982 0233 0D       		.uleb128 0xd
 6983 0234 27060000 		.4byte	.LASF27
 6984 0238 01       		.byte	0x1
 6985 0239 A404     		.2byte	0x4a4
 6986 023b 00000000 		.4byte	.LFB88
 6987 023f 18000000 		.4byte	.LFE88-.LFB88
 6988 0243 01       		.uleb128 0x1
 6989 0244 9C       		.byte	0x9c
 6990 0245 7F020000 		.4byte	0x27f
 6991 0249 0E       		.uleb128 0xe
 6992 024a D20B0000 		.4byte	.LASF29
 6993 024e 01       		.byte	0x1
 6994 024f A404     		.2byte	0x4a4
 6995 0251 89000000 		.4byte	0x89
 6996 0255 21000000 		.4byte	.LLST1
 6997 0259 0A       		.uleb128 0xa
 6998 025a 0C000000 		.4byte	.LVL15
 6999 025e 873E0000 		.4byte	0x3e87
 7000 0262 6E020000 		.4byte	0x26e
 7001 0266 0B       		.uleb128 0xb
 7002 0267 01       		.uleb128 0x1
 7003 0268 50       		.byte	0x50
 7004 0269 03       		.uleb128 0x3
ARM GAS  C:\Users\Revanth\AppData\Local\Temp\ccHsQCvB.s 			page 183


 7005 026a F3       		.byte	0xf3
 7006 026b 01       		.uleb128 0x1
 7007 026c 50       		.byte	0x50
 7008 026d 00       		.byte	0
 7009 026e 0C       		.uleb128 0xc
 7010 026f 12000000 		.4byte	.LVL16
 7011 0273 923E0000 		.4byte	0x3e92
 7012 0277 0B       		.uleb128 0xb
 7013 0278 01       		.uleb128 0x1
 7014 0279 50       		.byte	0x50
 7015 027a 02       		.uleb128 0x2
 7016 027b 74       		.byte	0x74
 7017 027c 00       		.sleb128 0
 7018 027d 00       		.byte	0
 7019 027e 00       		.byte	0
 7020 027f 0D       		.uleb128 0xd
 7021 0280 4D060000 		.4byte	.LASF30
 7022 0284 01       		.byte	0x1
 7023 0285 AB04     		.2byte	0x4ab
 7024 0287 00000000 		.4byte	.LFB89
 7025 028b 18000000 		.4byte	.LFE89-.LFB89
 7026 028f 01       		.uleb128 0x1
 7027 0290 9C       		.byte	0x9c
 7028 0291 CB020000 		.4byte	0x2cb
 7029 0295 0E       		.uleb128 0xe
 7030 0296 D20B0000 		.4byte	.LASF29
 7031 029a 01       		.byte	0x1
 7032 029b AB04     		.2byte	0x4ab
 7033 029d 89000000 		.4byte	0x89
 7034 02a1 42000000 		.4byte	.LLST2
 7035 02a5 0A       		.uleb128 0xa
 7036 02a6 0C000000 		.4byte	.LVL18
 7037 02aa 873E0000 		.4byte	0x3e87
 7038 02ae BA020000 		.4byte	0x2ba
 7039 02b2 0B       		.uleb128 0xb
 7040 02b3 01       		.uleb128 0x1
 7041 02b4 50       		.byte	0x50
 7042 02b5 03       		.uleb128 0x3
 7043 02b6 F3       		.byte	0xf3
 7044 02b7 01       		.uleb128 0x1
 7045 02b8 50       		.byte	0x50
 7046 02b9 00       		.byte	0
 7047 02ba 0C       		.uleb128 0xc
 7048 02bb 12000000 		.4byte	.LVL19
 7049 02bf 923E0000 		.4byte	0x3e92
 7050 02c3 0B       		.uleb128 0xb
 7051 02c4 01       		.uleb128 0x1
 7052 02c5 50       		.byte	0x50
 7053 02c6 02       		.uleb128 0x2
 7054 02c7 74       		.byte	0x74
 7055 02c8 00       		.sleb128 0
 7056 02c9 00       		.byte	0
 7057 02ca 00       		.byte	0
 7058 02cb 08       		.uleb128 0x8
 7059 02cc 52050000 		.4byte	.LASF32
 7060 02d0 01       		.byte	0x1
 7061 02d1 9504     		.2byte	0x495
ARM GAS  C:\Users\Revanth\AppData\Local\Temp\ccHsQCvB.s 			page 184


 7062 02d3 00000000 		.4byte	.LFB87
 7063 02d7 2C000000 		.4byte	.LFE87-.LFB87
 7064 02db 01       		.uleb128 0x1
 7065 02dc 9C       		.byte	0x9c
 7066 02dd 21030000 		.4byte	0x321
 7067 02e1 09       		.uleb128 0x9
 7068 02e2 12000000 		.4byte	.LVL20
 7069 02e6 9D3E0000 		.4byte	0x3e9d
 7070 02ea 09       		.uleb128 0x9
 7071 02eb 16000000 		.4byte	.LVL21
 7072 02ef A83E0000 		.4byte	0x3ea8
 7073 02f3 09       		.uleb128 0x9
 7074 02f4 1A000000 		.4byte	.LVL22
 7075 02f8 B33E0000 		.4byte	0x3eb3
 7076 02fc 0A       		.uleb128 0xa
 7077 02fd 20000000 		.4byte	.LVL23
 7078 0301 7F020000 		.4byte	0x27f
 7079 0305 10030000 		.4byte	0x310
 7080 0309 0B       		.uleb128 0xb
 7081 030a 01       		.uleb128 0x1
 7082 030b 50       		.byte	0x50
 7083 030c 02       		.uleb128 0x2
 7084 030d 74       		.byte	0x74
 7085 030e 00       		.sleb128 0
 7086 030f 00       		.byte	0
 7087 0310 0C       		.uleb128 0xc
 7088 0311 26000000 		.4byte	.LVL24
 7089 0315 33020000 		.4byte	0x233
 7090 0319 0B       		.uleb128 0xb
 7091 031a 01       		.uleb128 0x1
 7092 031b 50       		.byte	0x50
 7093 031c 02       		.uleb128 0x2
 7094 031d 74       		.byte	0x74
 7095 031e 00       		.sleb128 0
 7096 031f 00       		.byte	0
 7097 0320 00       		.byte	0
 7098 0321 08       		.uleb128 0x8
 7099 0322 D7010000 		.4byte	.LASF33
 7100 0326 01       		.byte	0x1
 7101 0327 B204     		.2byte	0x4b2
 7102 0329 00000000 		.4byte	.LFB90
 7103 032d 40000000 		.4byte	.LFE90-.LFB90
 7104 0331 01       		.uleb128 0x1
 7105 0332 9C       		.byte	0x9c
 7106 0333 53030000 		.4byte	0x353
 7107 0337 09       		.uleb128 0x9
 7108 0338 0C000000 		.4byte	.LVL25
 7109 033c BE3E0000 		.4byte	0x3ebe
 7110 0340 09       		.uleb128 0x9
 7111 0341 28000000 		.4byte	.LVL26
 7112 0345 BE3E0000 		.4byte	0x3ebe
 7113 0349 09       		.uleb128 0x9
 7114 034a 36000000 		.4byte	.LVL27
 7115 034e C93E0000 		.4byte	0x3ec9
 7116 0352 00       		.byte	0
 7117 0353 0F       		.uleb128 0xf
 7118 0354 1F050000 		.4byte	.LASF191
ARM GAS  C:\Users\Revanth\AppData\Local\Temp\ccHsQCvB.s 			page 185


 7119 0358 01       		.byte	0x1
 7120 0359 FB06     		.2byte	0x6fb
 7121 035b 00000000 		.4byte	.LFB93
 7122 035f 02000000 		.4byte	.LFE93-.LFB93
 7123 0363 01       		.uleb128 0x1
 7124 0364 9C       		.byte	0x9c
 7125 0365 08       		.uleb128 0x8
 7126 0366 EF050000 		.4byte	.LASF34
 7127 036a 01       		.byte	0x1
 7128 036b 1E07     		.2byte	0x71e
 7129 036d 00000000 		.4byte	.LFB96
 7130 0371 18000000 		.4byte	.LFE96-.LFB96
 7131 0375 01       		.uleb128 0x1
 7132 0376 9C       		.byte	0x9c
 7133 0377 8A030000 		.4byte	0x38a
 7134 037b 10       		.uleb128 0x10
 7135 037c 6900     		.ascii	"i\000"
 7136 037e 01       		.byte	0x1
 7137 037f 2007     		.2byte	0x720
 7138 0381 89000000 		.4byte	0x89
 7139 0385 63000000 		.4byte	.LLST3
 7140 0389 00       		.byte	0
 7141 038a 08       		.uleb128 0x8
 7142 038b F60A0000 		.4byte	.LASF35
 7143 038f 01       		.byte	0x1
 7144 0390 2407     		.2byte	0x724
 7145 0392 00000000 		.4byte	.LFB97
 7146 0396 18000000 		.4byte	.LFE97-.LFB97
 7147 039a 01       		.uleb128 0x1
 7148 039b 9C       		.byte	0x9c
 7149 039c CF030000 		.4byte	0x3cf
 7150 03a0 10       		.uleb128 0x10
 7151 03a1 6900     		.ascii	"i\000"
 7152 03a3 01       		.byte	0x1
 7153 03a4 2607     		.2byte	0x726
 7154 03a6 89000000 		.4byte	0x89
 7155 03aa 82000000 		.4byte	.LLST4
 7156 03ae 11       		.uleb128 0x11
 7157 03af CB0A0000 		.4byte	.LASF36
 7158 03b3 01       		.byte	0x1
 7159 03b4 2707     		.2byte	0x727
 7160 03b6 CF030000 		.4byte	0x3cf
 7161 03ba 03       		.uleb128 0x3
 7162 03bb 91       		.byte	0x91
 7163 03bc B87F     		.sleb128 -72
 7164 03be 0C       		.uleb128 0xc
 7165 03bf 0E000000 		.4byte	.LVL33
 7166 03c3 D43E0000 		.4byte	0x3ed4
 7167 03c7 0B       		.uleb128 0xb
 7168 03c8 01       		.uleb128 0x1
 7169 03c9 50       		.byte	0x50
 7170 03ca 02       		.uleb128 0x2
 7171 03cb 7D       		.byte	0x7d
 7172 03cc 00       		.sleb128 0
 7173 03cd 00       		.byte	0
 7174 03ce 00       		.byte	0
 7175 03cf 12       		.uleb128 0x12
ARM GAS  C:\Users\Revanth\AppData\Local\Temp\ccHsQCvB.s 			page 186


 7176 03d0 EC000000 		.4byte	0xec
 7177 03d4 DF030000 		.4byte	0x3df
 7178 03d8 13       		.uleb128 0x13
 7179 03d9 CA000000 		.4byte	0xca
 7180 03dd 3F       		.byte	0x3f
 7181 03de 00       		.byte	0
 7182 03df 0D       		.uleb128 0xd
 7183 03e0 2B0A0000 		.4byte	.LASF37
 7184 03e4 01       		.byte	0x1
 7185 03e5 2D07     		.2byte	0x72d
 7186 03e7 00000000 		.4byte	.LFB98
 7187 03eb 2C000000 		.4byte	.LFE98-.LFB98
 7188 03ef 01       		.uleb128 0x1
 7189 03f0 9C       		.byte	0x9c
 7190 03f1 89040000 		.4byte	0x489
 7191 03f5 14       		.uleb128 0x14
 7192 03f6 53747200 		.ascii	"Str\000"
 7193 03fa 01       		.byte	0x1
 7194 03fb 2D07     		.2byte	0x72d
 7195 03fd D1000000 		.4byte	0xd1
 7196 0401 A1000000 		.4byte	.LLST5
 7197 0405 15       		.uleb128 0x15
 7198 0406 04000000 		.4byte	.LBB2
 7199 040a 28000000 		.4byte	.LBE2-.LBB2
 7200 040e 11       		.uleb128 0x11
 7201 040f 3D010000 		.4byte	.LASF38
 7202 0413 01       		.byte	0x1
 7203 0414 3107     		.2byte	0x731
 7204 0416 89040000 		.4byte	0x489
 7205 041a 05       		.uleb128 0x5
 7206 041b 03       		.byte	0x3
 7207 041c 04000000 		.4byte	Str_Last_One.9208
 7208 0420 0A       		.uleb128 0xa
 7209 0421 0E000000 		.4byte	.LVL37
 7210 0425 DF3E0000 		.4byte	0x3edf
 7211 0429 42040000 		.4byte	0x442
 7212 042d 0B       		.uleb128 0xb
 7213 042e 01       		.uleb128 0x1
 7214 042f 50       		.byte	0x50
 7215 0430 05       		.uleb128 0x5
 7216 0431 03       		.byte	0x3
 7217 0432 04000000 		.4byte	.LANCHOR1+4
 7218 0436 0B       		.uleb128 0xb
 7219 0437 01       		.uleb128 0x1
 7220 0438 51       		.byte	0x51
 7221 0439 02       		.uleb128 0x2
 7222 043a 74       		.byte	0x74
 7223 043b 00       		.sleb128 0
 7224 043c 0B       		.uleb128 0xb
 7225 043d 01       		.uleb128 0x1
 7226 043e 52       		.byte	0x52
 7227 043f 01       		.uleb128 0x1
 7228 0440 3A       		.byte	0x3a
 7229 0441 00       		.byte	0
 7230 0442 0A       		.uleb128 0xa
 7231 0443 16000000 		.4byte	.LVL38
 7232 0447 EA3E0000 		.4byte	0x3eea
ARM GAS  C:\Users\Revanth\AppData\Local\Temp\ccHsQCvB.s 			page 187


 7233 044b 56040000 		.4byte	0x456
 7234 044f 0B       		.uleb128 0xb
 7235 0450 01       		.uleb128 0x1
 7236 0451 50       		.byte	0x50
 7237 0452 02       		.uleb128 0x2
 7238 0453 74       		.byte	0x74
 7239 0454 00       		.sleb128 0
 7240 0455 00       		.byte	0
 7241 0456 0A       		.uleb128 0xa
 7242 0457 1C000000 		.4byte	.LVL39
 7243 045b F53E0000 		.4byte	0x3ef5
 7244 045f 69040000 		.4byte	0x469
 7245 0463 0B       		.uleb128 0xb
 7246 0464 01       		.uleb128 0x1
 7247 0465 50       		.byte	0x50
 7248 0466 01       		.uleb128 0x1
 7249 0467 31       		.byte	0x31
 7250 0468 00       		.byte	0
 7251 0469 0C       		.uleb128 0xc
 7252 046a 26000000 		.4byte	.LVL40
 7253 046e 003F0000 		.4byte	0x3f00
 7254 0472 0B       		.uleb128 0xb
 7255 0473 01       		.uleb128 0x1
 7256 0474 50       		.byte	0x50
 7257 0475 05       		.uleb128 0x5
 7258 0476 03       		.byte	0x3
 7259 0477 04000000 		.4byte	.LANCHOR1+4
 7260 047b 0B       		.uleb128 0xb
 7261 047c 01       		.uleb128 0x1
 7262 047d 51       		.byte	0x51
 7263 047e 02       		.uleb128 0x2
 7264 047f 74       		.byte	0x74
 7265 0480 00       		.sleb128 0
 7266 0481 0B       		.uleb128 0xb
 7267 0482 01       		.uleb128 0x1
 7268 0483 52       		.byte	0x52
 7269 0484 01       		.uleb128 0x1
 7270 0485 3A       		.byte	0x3a
 7271 0486 00       		.byte	0
 7272 0487 00       		.byte	0
 7273 0488 00       		.byte	0
 7274 0489 12       		.uleb128 0x12
 7275 048a D7000000 		.4byte	0xd7
 7276 048e 99040000 		.4byte	0x499
 7277 0492 13       		.uleb128 0x13
 7278 0493 CA000000 		.4byte	0xca
 7279 0497 0C       		.byte	0xc
 7280 0498 00       		.byte	0
 7281 0499 16       		.uleb128 0x16
 7282 049a 67060000 		.4byte	.LASF39
 7283 049e 01       		.byte	0x1
 7284 049f 6C04     		.2byte	0x46c
 7285 04a1 89000000 		.4byte	0x89
 7286 04a5 00000000 		.4byte	.LFB83
 7287 04a9 24000000 		.4byte	.LFE83-.LFB83
 7288 04ad 01       		.uleb128 0x1
 7289 04ae 9C       		.byte	0x9c
ARM GAS  C:\Users\Revanth\AppData\Local\Temp\ccHsQCvB.s 			page 188


 7290 04af 03050000 		.4byte	0x503
 7291 04b3 0A       		.uleb128 0xa
 7292 04b4 0A000000 		.4byte	.LVL42
 7293 04b8 663E0000 		.4byte	0x3e66
 7294 04bc C8040000 		.4byte	0x4c8
 7295 04c0 0B       		.uleb128 0xb
 7296 04c1 01       		.uleb128 0x1
 7297 04c2 50       		.byte	0x50
 7298 04c3 03       		.uleb128 0x3
 7299 04c4 0A       		.byte	0xa
 7300 04c5 C409     		.2byte	0x9c4
 7301 04c7 00       		.byte	0
 7302 04c8 0A       		.uleb128 0xa
 7303 04c9 10000000 		.4byte	.LVL43
 7304 04cd 713E0000 		.4byte	0x3e71
 7305 04d1 DC040000 		.4byte	0x4dc
 7306 04d5 0B       		.uleb128 0xb
 7307 04d6 01       		.uleb128 0x1
 7308 04d7 50       		.byte	0x50
 7309 04d8 02       		.uleb128 0x2
 7310 04d9 08       		.byte	0x8
 7311 04da C8       		.byte	0xc8
 7312 04db 00       		.byte	0
 7313 04dc 0A       		.uleb128 0xa
 7314 04dd 16000000 		.4byte	.LVL44
 7315 04e1 663E0000 		.4byte	0x3e66
 7316 04e5 EF040000 		.4byte	0x4ef
 7317 04e9 0B       		.uleb128 0xb
 7318 04ea 01       		.uleb128 0x1
 7319 04eb 50       		.byte	0x50
 7320 04ec 01       		.uleb128 0x1
 7321 04ed 30       		.byte	0x30
 7322 04ee 00       		.byte	0
 7323 04ef 0C       		.uleb128 0xc
 7324 04f0 1C000000 		.4byte	.LVL45
 7325 04f4 DF030000 		.4byte	0x3df
 7326 04f8 0B       		.uleb128 0xb
 7327 04f9 01       		.uleb128 0x1
 7328 04fa 50       		.byte	0x50
 7329 04fb 05       		.uleb128 0x5
 7330 04fc 03       		.byte	0x3
 7331 04fd 00000000 		.4byte	.LC0
 7332 0501 00       		.byte	0
 7333 0502 00       		.byte	0
 7334 0503 16       		.uleb128 0x16
 7335 0504 77050000 		.4byte	.LASF40
 7336 0508 01       		.byte	0x1
 7337 0509 7504     		.2byte	0x475
 7338 050b 89000000 		.4byte	0x89
 7339 050f 00000000 		.4byte	.LFB84
 7340 0513 40000000 		.4byte	.LFE84-.LFB84
 7341 0517 01       		.uleb128 0x1
 7342 0518 9C       		.byte	0x9c
 7343 0519 BD050000 		.4byte	0x5bd
 7344 051d 0A       		.uleb128 0xa
 7345 051e 0A000000 		.4byte	.LVL46
 7346 0522 663E0000 		.4byte	0x3e66
ARM GAS  C:\Users\Revanth\AppData\Local\Temp\ccHsQCvB.s 			page 189


 7347 0526 32050000 		.4byte	0x532
 7348 052a 0B       		.uleb128 0xb
 7349 052b 01       		.uleb128 0x1
 7350 052c 50       		.byte	0x50
 7351 052d 03       		.uleb128 0x3
 7352 052e 0A       		.byte	0xa
 7353 052f C409     		.2byte	0x9c4
 7354 0531 00       		.byte	0
 7355 0532 0A       		.uleb128 0xa
 7356 0533 10000000 		.4byte	.LVL47
 7357 0537 713E0000 		.4byte	0x3e71
 7358 053b 46050000 		.4byte	0x546
 7359 053f 0B       		.uleb128 0xb
 7360 0540 01       		.uleb128 0x1
 7361 0541 50       		.byte	0x50
 7362 0542 02       		.uleb128 0x2
 7363 0543 08       		.byte	0x8
 7364 0544 C8       		.byte	0xc8
 7365 0545 00       		.byte	0
 7366 0546 0A       		.uleb128 0xa
 7367 0547 16000000 		.4byte	.LVL48
 7368 054b 663E0000 		.4byte	0x3e66
 7369 054f 59050000 		.4byte	0x559
 7370 0553 0B       		.uleb128 0xb
 7371 0554 01       		.uleb128 0x1
 7372 0555 50       		.byte	0x50
 7373 0556 01       		.uleb128 0x1
 7374 0557 30       		.byte	0x30
 7375 0558 00       		.byte	0
 7376 0559 0A       		.uleb128 0xa
 7377 055a 1C000000 		.4byte	.LVL49
 7378 055e 713E0000 		.4byte	0x3e71
 7379 0562 6D050000 		.4byte	0x56d
 7380 0566 0B       		.uleb128 0xb
 7381 0567 01       		.uleb128 0x1
 7382 0568 50       		.byte	0x50
 7383 0569 02       		.uleb128 0x2
 7384 056a 08       		.byte	0x8
 7385 056b C8       		.byte	0xc8
 7386 056c 00       		.byte	0
 7387 056d 0A       		.uleb128 0xa
 7388 056e 24000000 		.4byte	.LVL50
 7389 0572 663E0000 		.4byte	0x3e66
 7390 0576 82050000 		.4byte	0x582
 7391 057a 0B       		.uleb128 0xb
 7392 057b 01       		.uleb128 0x1
 7393 057c 50       		.byte	0x50
 7394 057d 03       		.uleb128 0x3
 7395 057e 0A       		.byte	0xa
 7396 057f C409     		.2byte	0x9c4
 7397 0581 00       		.byte	0
 7398 0582 0A       		.uleb128 0xa
 7399 0583 2A000000 		.4byte	.LVL51
 7400 0587 713E0000 		.4byte	0x3e71
 7401 058b 96050000 		.4byte	0x596
 7402 058f 0B       		.uleb128 0xb
 7403 0590 01       		.uleb128 0x1
ARM GAS  C:\Users\Revanth\AppData\Local\Temp\ccHsQCvB.s 			page 190


 7404 0591 50       		.byte	0x50
 7405 0592 02       		.uleb128 0x2
 7406 0593 08       		.byte	0x8
 7407 0594 C8       		.byte	0xc8
 7408 0595 00       		.byte	0
 7409 0596 0A       		.uleb128 0xa
 7410 0597 30000000 		.4byte	.LVL52
 7411 059b 663E0000 		.4byte	0x3e66
 7412 059f A9050000 		.4byte	0x5a9
 7413 05a3 0B       		.uleb128 0xb
 7414 05a4 01       		.uleb128 0x1
 7415 05a5 50       		.byte	0x50
 7416 05a6 01       		.uleb128 0x1
 7417 05a7 30       		.byte	0x30
 7418 05a8 00       		.byte	0
 7419 05a9 0C       		.uleb128 0xc
 7420 05aa 36000000 		.4byte	.LVL53
 7421 05ae DF030000 		.4byte	0x3df
 7422 05b2 0B       		.uleb128 0xb
 7423 05b3 01       		.uleb128 0x1
 7424 05b4 50       		.byte	0x50
 7425 05b5 05       		.uleb128 0x5
 7426 05b6 03       		.byte	0x3
 7427 05b7 10000000 		.4byte	.LC1
 7428 05bb 00       		.byte	0
 7429 05bc 00       		.byte	0
 7430 05bd 16       		.uleb128 0x16
 7431 05be BF060000 		.4byte	.LASF41
 7432 05c2 01       		.byte	0x1
 7433 05c3 8204     		.2byte	0x482
 7434 05c5 89000000 		.4byte	0x89
 7435 05c9 00000000 		.4byte	.LFB85
 7436 05cd 2C000000 		.4byte	.LFE85-.LFB85
 7437 05d1 01       		.uleb128 0x1
 7438 05d2 9C       		.byte	0x9c
 7439 05d3 3C060000 		.4byte	0x63c
 7440 05d7 0A       		.uleb128 0xa
 7441 05d8 0A000000 		.4byte	.LVL54
 7442 05dc 663E0000 		.4byte	0x3e66
 7443 05e0 EC050000 		.4byte	0x5ec
 7444 05e4 0B       		.uleb128 0xb
 7445 05e5 01       		.uleb128 0x1
 7446 05e6 50       		.byte	0x50
 7447 05e7 03       		.uleb128 0x3
 7448 05e8 0A       		.byte	0xa
 7449 05e9 C409     		.2byte	0x9c4
 7450 05eb 00       		.byte	0
 7451 05ec 0A       		.uleb128 0xa
 7452 05ed 12000000 		.4byte	.LVL55
 7453 05f1 713E0000 		.4byte	0x3e71
 7454 05f5 01060000 		.4byte	0x601
 7455 05f9 0B       		.uleb128 0xb
 7456 05fa 01       		.uleb128 0x1
 7457 05fb 50       		.byte	0x50
 7458 05fc 03       		.uleb128 0x3
 7459 05fd 0A       		.byte	0xa
 7460 05fe D007     		.2byte	0x7d0
ARM GAS  C:\Users\Revanth\AppData\Local\Temp\ccHsQCvB.s 			page 191


 7461 0600 00       		.byte	0
 7462 0601 0A       		.uleb128 0xa
 7463 0602 18000000 		.4byte	.LVL56
 7464 0606 663E0000 		.4byte	0x3e66
 7465 060a 14060000 		.4byte	0x614
 7466 060e 0B       		.uleb128 0xb
 7467 060f 01       		.uleb128 0x1
 7468 0610 50       		.byte	0x50
 7469 0611 01       		.uleb128 0x1
 7470 0612 30       		.byte	0x30
 7471 0613 00       		.byte	0
 7472 0614 0A       		.uleb128 0xa
 7473 0615 1E000000 		.4byte	.LVL57
 7474 0619 713E0000 		.4byte	0x3e71
 7475 061d 28060000 		.4byte	0x628
 7476 0621 0B       		.uleb128 0xb
 7477 0622 01       		.uleb128 0x1
 7478 0623 50       		.byte	0x50
 7479 0624 02       		.uleb128 0x2
 7480 0625 08       		.byte	0x8
 7481 0626 C8       		.byte	0xc8
 7482 0627 00       		.byte	0
 7483 0628 0C       		.uleb128 0xc
 7484 0629 24000000 		.4byte	.LVL58
 7485 062d DF030000 		.4byte	0x3df
 7486 0631 0B       		.uleb128 0xb
 7487 0632 01       		.uleb128 0x1
 7488 0633 50       		.byte	0x50
 7489 0634 05       		.uleb128 0x5
 7490 0635 03       		.byte	0x3
 7491 0636 24000000 		.4byte	.LC2
 7492 063a 00       		.byte	0
 7493 063b 00       		.byte	0
 7494 063c 17       		.uleb128 0x17
 7495 063d 61080000 		.4byte	.LASF42
 7496 0641 01       		.byte	0x1
 7497 0642 E905     		.2byte	0x5e9
 7498 0644 00000000 		.4byte	.LFB92
 7499 0648 E4020000 		.4byte	.LFE92-.LFB92
 7500 064c 01       		.uleb128 0x1
 7501 064d 9C       		.byte	0x9c
 7502 064e 99060000 		.4byte	0x699
 7503 0652 0E       		.uleb128 0xe
 7504 0653 21060000 		.4byte	.LASF43
 7505 0657 01       		.byte	0x1
 7506 0658 E905     		.2byte	0x5e9
 7507 065a 89000000 		.4byte	0x89
 7508 065e D8000000 		.4byte	.LLST6
 7509 0662 09       		.uleb128 0x9
 7510 0663 08000000 		.4byte	.LVL60
 7511 0667 21030000 		.4byte	0x321
 7512 066b 0A       		.uleb128 0xa
 7513 066c BC020000 		.4byte	.LVL66
 7514 0670 DF030000 		.4byte	0x3df
 7515 0674 82060000 		.4byte	0x682
 7516 0678 0B       		.uleb128 0xb
 7517 0679 01       		.uleb128 0x1
ARM GAS  C:\Users\Revanth\AppData\Local\Temp\ccHsQCvB.s 			page 192


 7518 067a 50       		.byte	0x50
 7519 067b 05       		.uleb128 0x5
 7520 067c 03       		.byte	0x3
 7521 067d 34000000 		.4byte	.LC3
 7522 0681 00       		.byte	0
 7523 0682 0C       		.uleb128 0xc
 7524 0683 C4020000 		.4byte	.LVL67
 7525 0687 0B3F0000 		.4byte	0x3f0b
 7526 068b 0B       		.uleb128 0xb
 7527 068c 01       		.uleb128 0x1
 7528 068d 50       		.byte	0x50
 7529 068e 02       		.uleb128 0x2
 7530 068f 74       		.byte	0x74
 7531 0690 00       		.sleb128 0
 7532 0691 0B       		.uleb128 0xb
 7533 0692 01       		.uleb128 0x1
 7534 0693 51       		.byte	0x51
 7535 0694 02       		.uleb128 0x2
 7536 0695 08       		.byte	0x8
 7537 0696 2E       		.byte	0x2e
 7538 0697 00       		.byte	0
 7539 0698 00       		.byte	0
 7540 0699 08       		.uleb128 0x8
 7541 069a 26080000 		.4byte	.LASF44
 7542 069e 01       		.byte	0x1
 7543 069f FF06     		.2byte	0x6ff
 7544 06a1 00000000 		.4byte	.LFB94
 7545 06a5 38000000 		.4byte	.LFE94-.LFB94
 7546 06a9 01       		.uleb128 0x1
 7547 06aa 9C       		.byte	0x9c
 7548 06ab 24070000 		.4byte	0x724
 7549 06af 0A       		.uleb128 0xa
 7550 06b0 0A000000 		.4byte	.LVL68
 7551 06b4 163F0000 		.4byte	0x3f16
 7552 06b8 C7060000 		.4byte	0x6c7
 7553 06bc 0B       		.uleb128 0xb
 7554 06bd 01       		.uleb128 0x1
 7555 06be 50       		.byte	0x50
 7556 06bf 01       		.uleb128 0x1
 7557 06c0 30       		.byte	0x30
 7558 06c1 0B       		.uleb128 0xb
 7559 06c2 01       		.uleb128 0x1
 7560 06c3 51       		.byte	0x51
 7561 06c4 01       		.uleb128 0x1
 7562 06c5 31       		.byte	0x31
 7563 06c6 00       		.byte	0
 7564 06c7 0A       		.uleb128 0xa
 7565 06c8 12000000 		.4byte	.LVL69
 7566 06cc DF030000 		.4byte	0x3df
 7567 06d0 DE060000 		.4byte	0x6de
 7568 06d4 0B       		.uleb128 0xb
 7569 06d5 01       		.uleb128 0x1
 7570 06d6 50       		.byte	0x50
 7571 06d7 05       		.uleb128 0x5
 7572 06d8 03       		.byte	0x3
 7573 06d9 58000000 		.4byte	.LC4
 7574 06dd 00       		.byte	0
ARM GAS  C:\Users\Revanth\AppData\Local\Temp\ccHsQCvB.s 			page 193


 7575 06de 0A       		.uleb128 0xa
 7576 06df 18000000 		.4byte	.LVL70
 7577 06e3 F53E0000 		.4byte	0x3ef5
 7578 06e7 F1060000 		.4byte	0x6f1
 7579 06eb 0B       		.uleb128 0xb
 7580 06ec 01       		.uleb128 0x1
 7581 06ed 50       		.byte	0x50
 7582 06ee 01       		.uleb128 0x1
 7583 06ef 31       		.byte	0x31
 7584 06f0 00       		.byte	0
 7585 06f1 09       		.uleb128 0x9
 7586 06f2 1C000000 		.4byte	.LVL71
 7587 06f6 223F0000 		.4byte	0x3f22
 7588 06fa 09       		.uleb128 0x9
 7589 06fb 24000000 		.4byte	.LVL72
 7590 06ff 2E3F0000 		.4byte	0x3f2e
 7591 0703 0A       		.uleb128 0xa
 7592 0704 2A000000 		.4byte	.LVL73
 7593 0708 DF030000 		.4byte	0x3df
 7594 070c 1A070000 		.4byte	0x71a
 7595 0710 0B       		.uleb128 0xb
 7596 0711 01       		.uleb128 0x1
 7597 0712 50       		.byte	0x50
 7598 0713 05       		.uleb128 0x5
 7599 0714 03       		.byte	0x3
 7600 0715 7C000000 		.4byte	.LC5
 7601 0719 00       		.byte	0
 7602 071a 09       		.uleb128 0x9
 7603 071b 2E000000 		.4byte	.LVL74
 7604 071f 393F0000 		.4byte	0x3f39
 7605 0723 00       		.byte	0
 7606 0724 0D       		.uleb128 0xd
 7607 0725 A40B0000 		.4byte	.LASF45
 7608 0729 01       		.byte	0x1
 7609 072a 3A07     		.2byte	0x73a
 7610 072c 00000000 		.4byte	.LFB99
 7611 0730 24000000 		.4byte	.LFE99-.LFB99
 7612 0734 01       		.uleb128 0x1
 7613 0735 9C       		.byte	0x9c
 7614 0736 AB070000 		.4byte	0x7ab
 7615 073a 14       		.uleb128 0x14
 7616 073b 6E756D00 		.ascii	"num\000"
 7617 073f 01       		.byte	0x1
 7618 0740 3A07     		.2byte	0x73a
 7619 0742 10010000 		.4byte	0x110
 7620 0746 11010000 		.4byte	.LLST7
 7621 074a 15       		.uleb128 0x15
 7622 074b 04000000 		.4byte	.LBB3
 7623 074f 16000000 		.4byte	.LBE3-.LBB3
 7624 0753 11       		.uleb128 0x11
 7625 0754 52020000 		.4byte	.LASF46
 7626 0758 01       		.byte	0x1
 7627 0759 3E07     		.2byte	0x73e
 7628 075b AB070000 		.4byte	0x7ab
 7629 075f 02       		.uleb128 0x2
 7630 0760 91       		.byte	0x91
 7631 0761 64       		.sleb128 -28
ARM GAS  C:\Users\Revanth\AppData\Local\Temp\ccHsQCvB.s 			page 194


 7632 0762 0A       		.uleb128 0xa
 7633 0763 0E000000 		.4byte	.LVL77
 7634 0767 453F0000 		.4byte	0x3f45
 7635 076b 86070000 		.4byte	0x786
 7636 076f 0B       		.uleb128 0xb
 7637 0770 01       		.uleb128 0x1
 7638 0771 50       		.byte	0x50
 7639 0772 02       		.uleb128 0x2
 7640 0773 91       		.byte	0x91
 7641 0774 64       		.sleb128 -28
 7642 0775 0B       		.uleb128 0xb
 7643 0776 01       		.uleb128 0x1
 7644 0777 51       		.byte	0x51
 7645 0778 05       		.uleb128 0x5
 7646 0779 03       		.byte	0x3
 7647 077a 90000000 		.4byte	.LC6
 7648 077e 0B       		.uleb128 0xb
 7649 077f 01       		.uleb128 0x1
 7650 0780 52       		.byte	0x52
 7651 0781 03       		.uleb128 0x3
 7652 0782 F3       		.byte	0xf3
 7653 0783 01       		.uleb128 0x1
 7654 0784 50       		.byte	0x50
 7655 0785 00       		.byte	0
 7656 0786 0A       		.uleb128 0xa
 7657 0787 14000000 		.4byte	.LVL78
 7658 078b EA3E0000 		.4byte	0x3eea
 7659 078f 9A070000 		.4byte	0x79a
 7660 0793 0B       		.uleb128 0xb
 7661 0794 01       		.uleb128 0x1
 7662 0795 50       		.byte	0x50
 7663 0796 02       		.uleb128 0x2
 7664 0797 91       		.byte	0x91
 7665 0798 64       		.sleb128 -28
 7666 0799 00       		.byte	0
 7667 079a 0C       		.uleb128 0xc
 7668 079b 1A000000 		.4byte	.LVL79
 7669 079f F53E0000 		.4byte	0x3ef5
 7670 07a3 0B       		.uleb128 0xb
 7671 07a4 01       		.uleb128 0x1
 7672 07a5 50       		.byte	0x50
 7673 07a6 01       		.uleb128 0x1
 7674 07a7 31       		.byte	0x31
 7675 07a8 00       		.byte	0
 7676 07a9 00       		.byte	0
 7677 07aa 00       		.byte	0
 7678 07ab 12       		.uleb128 0x12
 7679 07ac D7000000 		.4byte	0xd7
 7680 07b0 BB070000 		.4byte	0x7bb
 7681 07b4 13       		.uleb128 0x13
 7682 07b5 CA000000 		.4byte	0xca
 7683 07b9 13       		.byte	0x13
 7684 07ba 00       		.byte	0
 7685 07bb 18       		.uleb128 0x18
 7686 07bc 5D040000 		.4byte	.LASF47
 7687 07c0 01       		.byte	0x1
 7688 07c1 5604     		.2byte	0x456
ARM GAS  C:\Users\Revanth\AppData\Local\Temp\ccHsQCvB.s 			page 195


 7689 07c3 89000000 		.4byte	0x89
 7690 07c7 00000000 		.4byte	.LFB81
 7691 07cb 70000000 		.4byte	.LFE81-.LFB81
 7692 07cf 01       		.uleb128 0x1
 7693 07d0 9C       		.byte	0x9c
 7694 07d1 29080000 		.4byte	0x829
 7695 07d5 09       		.uleb128 0x9
 7696 07d6 30000000 		.4byte	.LVL84
 7697 07da 503E0000 		.4byte	0x3e50
 7698 07de 0A       		.uleb128 0xa
 7699 07df 36000000 		.4byte	.LVL85
 7700 07e3 DF030000 		.4byte	0x3df
 7701 07e7 F5070000 		.4byte	0x7f5
 7702 07eb 0B       		.uleb128 0xb
 7703 07ec 01       		.uleb128 0x1
 7704 07ed 50       		.byte	0x50
 7705 07ee 05       		.uleb128 0x5
 7706 07ef 03       		.byte	0x3
 7707 07f0 98000000 		.4byte	.LC7
 7708 07f4 00       		.byte	0
 7709 07f5 09       		.uleb128 0x9
 7710 07f6 3C000000 		.4byte	.LVL86
 7711 07fa 24070000 		.4byte	0x724
 7712 07fe 0A       		.uleb128 0xa
 7713 07ff 42000000 		.4byte	.LVL87
 7714 0803 DF030000 		.4byte	0x3df
 7715 0807 15080000 		.4byte	0x815
 7716 080b 0B       		.uleb128 0xb
 7717 080c 01       		.uleb128 0x1
 7718 080d 50       		.byte	0x50
 7719 080e 05       		.uleb128 0x5
 7720 080f 03       		.byte	0x3
 7721 0810 B8000000 		.4byte	.LC8
 7722 0814 00       		.byte	0
 7723 0815 0C       		.uleb128 0xc
 7724 0816 48000000 		.4byte	.LVL88
 7725 081a DF030000 		.4byte	0x3df
 7726 081e 0B       		.uleb128 0xb
 7727 081f 01       		.uleb128 0x1
 7728 0820 50       		.byte	0x50
 7729 0821 05       		.uleb128 0x5
 7730 0822 03       		.byte	0x3
 7731 0823 BC000000 		.4byte	.LC9
 7732 0827 00       		.byte	0
 7733 0828 00       		.byte	0
 7734 0829 18       		.uleb128 0x18
 7735 082a 50080000 		.4byte	.LASF48
 7736 082e 01       		.byte	0x1
 7737 082f 6104     		.2byte	0x461
 7738 0831 89000000 		.4byte	0x89
 7739 0835 00000000 		.4byte	.LFB82
 7740 0839 70000000 		.4byte	.LFE82-.LFB82
 7741 083d 01       		.uleb128 0x1
 7742 083e 9C       		.byte	0x9c
 7743 083f 97080000 		.4byte	0x897
 7744 0843 09       		.uleb128 0x9
 7745 0844 30000000 		.4byte	.LVL93
ARM GAS  C:\Users\Revanth\AppData\Local\Temp\ccHsQCvB.s 			page 196


 7746 0848 3A3E0000 		.4byte	0x3e3a
 7747 084c 0A       		.uleb128 0xa
 7748 084d 36000000 		.4byte	.LVL94
 7749 0851 DF030000 		.4byte	0x3df
 7750 0855 63080000 		.4byte	0x863
 7751 0859 0B       		.uleb128 0xb
 7752 085a 01       		.uleb128 0x1
 7753 085b 50       		.byte	0x50
 7754 085c 05       		.uleb128 0x5
 7755 085d 03       		.byte	0x3
 7756 085e E4000000 		.4byte	.LC10
 7757 0862 00       		.byte	0
 7758 0863 09       		.uleb128 0x9
 7759 0864 3C000000 		.4byte	.LVL95
 7760 0868 24070000 		.4byte	0x724
 7761 086c 0A       		.uleb128 0xa
 7762 086d 42000000 		.4byte	.LVL96
 7763 0871 DF030000 		.4byte	0x3df
 7764 0875 83080000 		.4byte	0x883
 7765 0879 0B       		.uleb128 0xb
 7766 087a 01       		.uleb128 0x1
 7767 087b 50       		.byte	0x50
 7768 087c 05       		.uleb128 0x5
 7769 087d 03       		.byte	0x3
 7770 087e B8000000 		.4byte	.LC8
 7771 0882 00       		.byte	0
 7772 0883 0C       		.uleb128 0xc
 7773 0884 48000000 		.4byte	.LVL97
 7774 0888 DF030000 		.4byte	0x3df
 7775 088c 0B       		.uleb128 0xb
 7776 088d 01       		.uleb128 0x1
 7777 088e 50       		.byte	0x50
 7778 088f 05       		.uleb128 0x5
 7779 0890 03       		.byte	0x3
 7780 0891 FC000000 		.4byte	.LC11
 7781 0895 00       		.byte	0
 7782 0896 00       		.byte	0
 7783 0897 08       		.uleb128 0x8
 7784 0898 F3040000 		.4byte	.LASF49
 7785 089c 01       		.byte	0x1
 7786 089d 4407     		.2byte	0x744
 7787 089f 00000000 		.4byte	.LFB100
 7788 08a3 24000000 		.4byte	.LFE100-.LFB100
 7789 08a7 01       		.uleb128 0x1
 7790 08a8 9C       		.byte	0x9c
 7791 08a9 EF080000 		.4byte	0x8ef
 7792 08ad 0A       		.uleb128 0xa
 7793 08ae 08000000 		.4byte	.LVL98
 7794 08b2 DF030000 		.4byte	0x3df
 7795 08b6 C4080000 		.4byte	0x8c4
 7796 08ba 0B       		.uleb128 0xb
 7797 08bb 01       		.uleb128 0x1
 7798 08bc 50       		.byte	0x50
 7799 08bd 05       		.uleb128 0x5
 7800 08be 03       		.byte	0x3
 7801 08bf B8000000 		.4byte	.LC8
 7802 08c3 00       		.byte	0
ARM GAS  C:\Users\Revanth\AppData\Local\Temp\ccHsQCvB.s 			page 197


 7803 08c4 0A       		.uleb128 0xa
 7804 08c5 0E000000 		.4byte	.LVL99
 7805 08c9 DF030000 		.4byte	0x3df
 7806 08cd DB080000 		.4byte	0x8db
 7807 08d1 0B       		.uleb128 0xb
 7808 08d2 01       		.uleb128 0x1
 7809 08d3 50       		.byte	0x50
 7810 08d4 05       		.uleb128 0x5
 7811 08d5 03       		.byte	0x3
 7812 08d6 1C010000 		.4byte	.LC12
 7813 08da 00       		.byte	0
 7814 08db 0C       		.uleb128 0xc
 7815 08dc 14000000 		.4byte	.LVL100
 7816 08e0 DF030000 		.4byte	0x3df
 7817 08e4 0B       		.uleb128 0xb
 7818 08e5 01       		.uleb128 0x1
 7819 08e6 50       		.byte	0x50
 7820 08e7 05       		.uleb128 0x5
 7821 08e8 03       		.byte	0x3
 7822 08e9 50010000 		.4byte	.LC13
 7823 08ed 00       		.byte	0
 7824 08ee 00       		.byte	0
 7825 08ef 16       		.uleb128 0x16
 7826 08f0 E30A0000 		.4byte	.LASF50
 7827 08f4 01       		.byte	0x1
 7828 08f5 1F04     		.2byte	0x41f
 7829 08f7 6A090000 		.4byte	0x96a
 7830 08fb 00000000 		.4byte	.LFB79
 7831 08ff 7C000000 		.4byte	.LFE79-.LFB79
 7832 0903 01       		.uleb128 0x1
 7833 0904 9C       		.byte	0x9c
 7834 0905 6A090000 		.4byte	0x96a
 7835 0909 0A       		.uleb128 0xa
 7836 090a 1C000000 		.4byte	.LVL101
 7837 090e DF030000 		.4byte	0x3df
 7838 0912 20090000 		.4byte	0x920
 7839 0916 0B       		.uleb128 0xb
 7840 0917 01       		.uleb128 0x1
 7841 0918 50       		.byte	0x50
 7842 0919 05       		.uleb128 0x5
 7843 091a 03       		.byte	0x3
 7844 091b 54010000 		.4byte	.LC14
 7845 091f 00       		.byte	0
 7846 0920 09       		.uleb128 0x9
 7847 0921 20000000 		.4byte	.LVL102
 7848 0925 97080000 		.4byte	0x897
 7849 0929 0A       		.uleb128 0xa
 7850 092a 3C000000 		.4byte	.LVL103
 7851 092e DF030000 		.4byte	0x3df
 7852 0932 40090000 		.4byte	0x940
 7853 0936 0B       		.uleb128 0xb
 7854 0937 01       		.uleb128 0x1
 7855 0938 50       		.byte	0x50
 7856 0939 05       		.uleb128 0x5
 7857 093a 03       		.byte	0x3
 7858 093b 80010000 		.4byte	.LC15
 7859 093f 00       		.byte	0
ARM GAS  C:\Users\Revanth\AppData\Local\Temp\ccHsQCvB.s 			page 198


 7860 0940 09       		.uleb128 0x9
 7861 0941 40000000 		.4byte	.LVL104
 7862 0945 97080000 		.4byte	0x897
 7863 0949 0A       		.uleb128 0xa
 7864 094a 5C000000 		.4byte	.LVL105
 7865 094e DF030000 		.4byte	0x3df
 7866 0952 60090000 		.4byte	0x960
 7867 0956 0B       		.uleb128 0xb
 7868 0957 01       		.uleb128 0x1
 7869 0958 50       		.byte	0x50
 7870 0959 05       		.uleb128 0x5
 7871 095a 03       		.byte	0x3
 7872 095b A8010000 		.4byte	.LC16
 7873 095f 00       		.byte	0
 7874 0960 09       		.uleb128 0x9
 7875 0961 60000000 		.4byte	.LVL106
 7876 0965 97080000 		.4byte	0x897
 7877 0969 00       		.byte	0
 7878 096a 02       		.uleb128 0x2
 7879 096b 01       		.byte	0x1
 7880 096c 02       		.byte	0x2
 7881 096d DE070000 		.4byte	.LASF51
 7882 0971 08       		.uleb128 0x8
 7883 0972 D3000000 		.4byte	.LASF52
 7884 0976 01       		.byte	0x1
 7885 0977 0B07     		.2byte	0x70b
 7886 0979 00000000 		.4byte	.LFB95
 7887 097d 40000000 		.4byte	.LFE95-.LFB95
 7888 0981 01       		.uleb128 0x1
 7889 0982 9C       		.byte	0x9c
 7890 0983 F1090000 		.4byte	0x9f1
 7891 0987 11       		.uleb128 0x11
 7892 0988 31040000 		.4byte	.LASF53
 7893 098c 01       		.byte	0x1
 7894 098d 0D07     		.2byte	0x70d
 7895 098f 6A090000 		.4byte	0x96a
 7896 0993 05       		.uleb128 0x5
 7897 0994 03       		.byte	0x3
 7898 0995 2C000000 		.4byte	dont_Execute_1st_Time.9191
 7899 0999 09       		.uleb128 0x9
 7900 099a 06000000 		.4byte	.LVL107
 7901 099e 503F0000 		.4byte	0x3f50
 7902 09a2 09       		.uleb128 0x9
 7903 09a3 0C000000 		.4byte	.LVL108
 7904 09a7 03050000 		.4byte	0x503
 7905 09ab 09       		.uleb128 0x9
 7906 09ac 10000000 		.4byte	.LVL109
 7907 09b0 223F0000 		.4byte	0x3f22
 7908 09b4 0A       		.uleb128 0xa
 7909 09b5 20000000 		.4byte	.LVL110
 7910 09b9 DF030000 		.4byte	0x3df
 7911 09bd CB090000 		.4byte	0x9cb
 7912 09c1 0B       		.uleb128 0xb
 7913 09c2 01       		.uleb128 0x1
 7914 09c3 50       		.byte	0x50
 7915 09c4 05       		.uleb128 0x5
 7916 09c5 03       		.byte	0x3
ARM GAS  C:\Users\Revanth\AppData\Local\Temp\ccHsQCvB.s 			page 199


 7917 09c6 D0010000 		.4byte	.LC17
 7918 09ca 00       		.byte	0
 7919 09cb 09       		.uleb128 0x9
 7920 09cc 24000000 		.4byte	.LVL111
 7921 09d0 97080000 		.4byte	0x897
 7922 09d4 0A       		.uleb128 0xa
 7923 09d5 2A000000 		.4byte	.LVL112
 7924 09d9 713E0000 		.4byte	0x3e71
 7925 09dd E7090000 		.4byte	0x9e7
 7926 09e1 0B       		.uleb128 0xb
 7927 09e2 01       		.uleb128 0x1
 7928 09e3 50       		.byte	0x50
 7929 09e4 01       		.uleb128 0x1
 7930 09e5 31       		.byte	0x31
 7931 09e6 00       		.byte	0
 7932 09e7 09       		.uleb128 0x9
 7933 09e8 2E000000 		.4byte	.LVL113
 7934 09ec 5C3F0000 		.4byte	0x3f5c
 7935 09f0 00       		.byte	0
 7936 09f1 19       		.uleb128 0x19
 7937 09f2 6D030000 		.4byte	.LASF58
 7938 09f6 01       		.byte	0x1
 7939 09f7 5107     		.2byte	0x751
 7940 09f9 97000000 		.4byte	0x97
 7941 09fd 00000000 		.4byte	.LFB101
 7942 0a01 10000000 		.4byte	.LFE101-.LFB101
 7943 0a05 01       		.uleb128 0x1
 7944 0a06 9C       		.byte	0x9c
 7945 0a07 340A0000 		.4byte	0xa34
 7946 0a0b 0E       		.uleb128 0xe
 7947 0a0c D8040000 		.4byte	.LASF54
 7948 0a10 01       		.byte	0x1
 7949 0a11 5107     		.2byte	0x751
 7950 0a13 97000000 		.4byte	0x97
 7951 0a17 3D010000 		.4byte	.LLST8
 7952 0a1b 09       		.uleb128 0x9
 7953 0a1c 06000000 		.4byte	.LVL115
 7954 0a20 673F0000 		.4byte	0x3f67
 7955 0a24 0C       		.uleb128 0xc
 7956 0a25 0C000000 		.4byte	.LVL116
 7957 0a29 F53E0000 		.4byte	0x3ef5
 7958 0a2d 0B       		.uleb128 0xb
 7959 0a2e 01       		.uleb128 0x1
 7960 0a2f 50       		.byte	0x50
 7961 0a30 01       		.uleb128 0x1
 7962 0a31 3A       		.byte	0x3a
 7963 0a32 00       		.byte	0
 7964 0a33 00       		.byte	0
 7965 0a34 0D       		.uleb128 0xd
 7966 0a35 1B040000 		.4byte	.LASF55
 7967 0a39 01       		.byte	0x1
 7968 0a3a 7707     		.2byte	0x777
 7969 0a3c 00000000 		.4byte	.LFB102
 7970 0a40 98000000 		.4byte	.LFE102-.LFB102
 7971 0a44 01       		.uleb128 0x1
 7972 0a45 9C       		.byte	0x9c
 7973 0a46 B70B0000 		.4byte	0xbb7
ARM GAS  C:\Users\Revanth\AppData\Local\Temp\ccHsQCvB.s 			page 200


 7974 0a4a 0E       		.uleb128 0xe
 7975 0a4b 1B060000 		.4byte	.LASF56
 7976 0a4f 01       		.byte	0x1
 7977 0a50 7707     		.2byte	0x777
 7978 0a52 97000000 		.4byte	0x97
 7979 0a56 5E010000 		.4byte	.LLST9
 7980 0a5a 0E       		.uleb128 0xe
 7981 0a5b DD0A0000 		.4byte	.LASF57
 7982 0a5f 01       		.byte	0x1
 7983 0a60 7707     		.2byte	0x777
 7984 0a62 97000000 		.4byte	0x97
 7985 0a66 15020000 		.4byte	.LLST10
 7986 0a6a 0A       		.uleb128 0xa
 7987 0a6b 20000000 		.4byte	.LVL119
 7988 0a6f F53E0000 		.4byte	0x3ef5
 7989 0a73 7D0A0000 		.4byte	0xa7d
 7990 0a77 0B       		.uleb128 0xb
 7991 0a78 01       		.uleb128 0x1
 7992 0a79 50       		.byte	0x50
 7993 0a7a 01       		.uleb128 0x1
 7994 0a7b 3A       		.byte	0x3a
 7995 0a7c 00       		.byte	0
 7996 0a7d 0A       		.uleb128 0xa
 7997 0a7e 26000000 		.4byte	.LVL120
 7998 0a82 723F0000 		.4byte	0x3f72
 7999 0a86 910A0000 		.4byte	0xa91
 8000 0a8a 0B       		.uleb128 0xb
 8001 0a8b 01       		.uleb128 0x1
 8002 0a8c 50       		.byte	0x50
 8003 0a8d 02       		.uleb128 0x2
 8004 0a8e 74       		.byte	0x74
 8005 0a8f 00       		.sleb128 0
 8006 0a90 00       		.byte	0
 8007 0a91 0A       		.uleb128 0xa
 8008 0a92 2C000000 		.4byte	.LVL121
 8009 0a96 F53E0000 		.4byte	0x3ef5
 8010 0a9a A40A0000 		.4byte	0xaa4
 8011 0a9e 0B       		.uleb128 0xb
 8012 0a9f 01       		.uleb128 0x1
 8013 0aa0 50       		.byte	0x50
 8014 0aa1 01       		.uleb128 0x1
 8015 0aa2 3A       		.byte	0x3a
 8016 0aa3 00       		.byte	0
 8017 0aa4 0A       		.uleb128 0xa
 8018 0aa5 34000000 		.4byte	.LVL124
 8019 0aa9 F53E0000 		.4byte	0x3ef5
 8020 0aad B70A0000 		.4byte	0xab7
 8021 0ab1 0B       		.uleb128 0xb
 8022 0ab2 01       		.uleb128 0x1
 8023 0ab3 50       		.byte	0x50
 8024 0ab4 01       		.uleb128 0x1
 8025 0ab5 3A       		.byte	0x3a
 8026 0ab6 00       		.byte	0
 8027 0ab7 0A       		.uleb128 0xa
 8028 0ab8 3A000000 		.4byte	.LVL125
 8029 0abc 7D3F0000 		.4byte	0x3f7d
 8030 0ac0 CB0A0000 		.4byte	0xacb
ARM GAS  C:\Users\Revanth\AppData\Local\Temp\ccHsQCvB.s 			page 201


 8031 0ac4 0B       		.uleb128 0xb
 8032 0ac5 01       		.uleb128 0x1
 8033 0ac6 50       		.byte	0x50
 8034 0ac7 02       		.uleb128 0x2
 8035 0ac8 74       		.byte	0x74
 8036 0ac9 00       		.sleb128 0
 8037 0aca 00       		.byte	0
 8038 0acb 0A       		.uleb128 0xa
 8039 0acc 40000000 		.4byte	.LVL126
 8040 0ad0 F53E0000 		.4byte	0x3ef5
 8041 0ad4 DE0A0000 		.4byte	0xade
 8042 0ad8 0B       		.uleb128 0xb
 8043 0ad9 01       		.uleb128 0x1
 8044 0ada 50       		.byte	0x50
 8045 0adb 01       		.uleb128 0x1
 8046 0adc 3A       		.byte	0x3a
 8047 0add 00       		.byte	0
 8048 0ade 0A       		.uleb128 0xa
 8049 0adf 48000000 		.4byte	.LVL129
 8050 0ae3 F53E0000 		.4byte	0x3ef5
 8051 0ae7 F10A0000 		.4byte	0xaf1
 8052 0aeb 0B       		.uleb128 0xb
 8053 0aec 01       		.uleb128 0x1
 8054 0aed 50       		.byte	0x50
 8055 0aee 01       		.uleb128 0x1
 8056 0aef 3A       		.byte	0x3a
 8057 0af0 00       		.byte	0
 8058 0af1 0A       		.uleb128 0xa
 8059 0af2 4E000000 		.4byte	.LVL130
 8060 0af6 883F0000 		.4byte	0x3f88
 8061 0afa 050B0000 		.4byte	0xb05
 8062 0afe 0B       		.uleb128 0xb
 8063 0aff 01       		.uleb128 0x1
 8064 0b00 50       		.byte	0x50
 8065 0b01 02       		.uleb128 0x2
 8066 0b02 74       		.byte	0x74
 8067 0b03 00       		.sleb128 0
 8068 0b04 00       		.byte	0
 8069 0b05 0A       		.uleb128 0xa
 8070 0b06 54000000 		.4byte	.LVL131
 8071 0b0a F53E0000 		.4byte	0x3ef5
 8072 0b0e 180B0000 		.4byte	0xb18
 8073 0b12 0B       		.uleb128 0xb
 8074 0b13 01       		.uleb128 0x1
 8075 0b14 50       		.byte	0x50
 8076 0b15 01       		.uleb128 0x1
 8077 0b16 3A       		.byte	0x3a
 8078 0b17 00       		.byte	0
 8079 0b18 0A       		.uleb128 0xa
 8080 0b19 5C000000 		.4byte	.LVL134
 8081 0b1d F53E0000 		.4byte	0x3ef5
 8082 0b21 2B0B0000 		.4byte	0xb2b
 8083 0b25 0B       		.uleb128 0xb
 8084 0b26 01       		.uleb128 0x1
 8085 0b27 50       		.byte	0x50
 8086 0b28 01       		.uleb128 0x1
 8087 0b29 3A       		.byte	0x3a
ARM GAS  C:\Users\Revanth\AppData\Local\Temp\ccHsQCvB.s 			page 202


 8088 0b2a 00       		.byte	0
 8089 0b2b 0A       		.uleb128 0xa
 8090 0b2c 62000000 		.4byte	.LVL135
 8091 0b30 933F0000 		.4byte	0x3f93
 8092 0b34 3F0B0000 		.4byte	0xb3f
 8093 0b38 0B       		.uleb128 0xb
 8094 0b39 01       		.uleb128 0x1
 8095 0b3a 50       		.byte	0x50
 8096 0b3b 02       		.uleb128 0x2
 8097 0b3c 74       		.byte	0x74
 8098 0b3d 00       		.sleb128 0
 8099 0b3e 00       		.byte	0
 8100 0b3f 0A       		.uleb128 0xa
 8101 0b40 68000000 		.4byte	.LVL136
 8102 0b44 F53E0000 		.4byte	0x3ef5
 8103 0b48 520B0000 		.4byte	0xb52
 8104 0b4c 0B       		.uleb128 0xb
 8105 0b4d 01       		.uleb128 0x1
 8106 0b4e 50       		.byte	0x50
 8107 0b4f 01       		.uleb128 0x1
 8108 0b50 3A       		.byte	0x3a
 8109 0b51 00       		.byte	0
 8110 0b52 0A       		.uleb128 0xa
 8111 0b53 70000000 		.4byte	.LVL139
 8112 0b57 F53E0000 		.4byte	0x3ef5
 8113 0b5b 650B0000 		.4byte	0xb65
 8114 0b5f 0B       		.uleb128 0xb
 8115 0b60 01       		.uleb128 0x1
 8116 0b61 50       		.byte	0x50
 8117 0b62 01       		.uleb128 0x1
 8118 0b63 3A       		.byte	0x3a
 8119 0b64 00       		.byte	0
 8120 0b65 0A       		.uleb128 0xa
 8121 0b66 76000000 		.4byte	.LVL140
 8122 0b6a 9E3F0000 		.4byte	0x3f9e
 8123 0b6e 790B0000 		.4byte	0xb79
 8124 0b72 0B       		.uleb128 0xb
 8125 0b73 01       		.uleb128 0x1
 8126 0b74 50       		.byte	0x50
 8127 0b75 02       		.uleb128 0x2
 8128 0b76 74       		.byte	0x74
 8129 0b77 00       		.sleb128 0
 8130 0b78 00       		.byte	0
 8131 0b79 0A       		.uleb128 0xa
 8132 0b7a 7C000000 		.4byte	.LVL141
 8133 0b7e F53E0000 		.4byte	0x3ef5
 8134 0b82 8C0B0000 		.4byte	0xb8c
 8135 0b86 0B       		.uleb128 0xb
 8136 0b87 01       		.uleb128 0x1
 8137 0b88 50       		.byte	0x50
 8138 0b89 01       		.uleb128 0x1
 8139 0b8a 3A       		.byte	0x3a
 8140 0b8b 00       		.byte	0
 8141 0b8c 0A       		.uleb128 0xa
 8142 0b8d 84000000 		.4byte	.LVL144
 8143 0b91 DF030000 		.4byte	0x3df
 8144 0b95 A30B0000 		.4byte	0xba3
ARM GAS  C:\Users\Revanth\AppData\Local\Temp\ccHsQCvB.s 			page 203


 8145 0b99 0B       		.uleb128 0xb
 8146 0b9a 01       		.uleb128 0x1
 8147 0b9b 50       		.byte	0x50
 8148 0b9c 05       		.uleb128 0x5
 8149 0b9d 03       		.byte	0x3
 8150 0b9e FC010000 		.4byte	.LC18
 8151 0ba2 00       		.byte	0
 8152 0ba3 0C       		.uleb128 0xc
 8153 0ba4 8C000000 		.4byte	.LVL147
 8154 0ba8 DF030000 		.4byte	0x3df
 8155 0bac 0B       		.uleb128 0xb
 8156 0bad 01       		.uleb128 0x1
 8157 0bae 50       		.byte	0x50
 8158 0baf 05       		.uleb128 0x5
 8159 0bb0 03       		.byte	0x3
 8160 0bb1 3C020000 		.4byte	.LC19
 8161 0bb5 00       		.byte	0
 8162 0bb6 00       		.byte	0
 8163 0bb7 19       		.uleb128 0x19
 8164 0bb8 EA030000 		.4byte	.LASF59
 8165 0bbc 01       		.byte	0x1
 8166 0bbd D607     		.2byte	0x7d6
 8167 0bbf 89000000 		.4byte	0x89
 8168 0bc3 00000000 		.4byte	.LFB103
 8169 0bc7 EC000000 		.4byte	.LFE103-.LFB103
 8170 0bcb 01       		.uleb128 0x1
 8171 0bcc 9C       		.byte	0x9c
 8172 0bcd 470E0000 		.4byte	0xe47
 8173 0bd1 0E       		.uleb128 0xe
 8174 0bd2 A1010000 		.4byte	.LASF60
 8175 0bd6 01       		.byte	0x1
 8176 0bd7 D607     		.2byte	0x7d6
 8177 0bd9 97000000 		.4byte	0x97
 8178 0bdd CC020000 		.4byte	.LLST11
 8179 0be1 0E       		.uleb128 0xe
 8180 0be2 1B060000 		.4byte	.LASF56
 8181 0be6 01       		.byte	0x1
 8182 0be7 D607     		.2byte	0x7d6
 8183 0be9 97000000 		.4byte	0x97
 8184 0bed ED020000 		.4byte	.LLST12
 8185 0bf1 0E       		.uleb128 0xe
 8186 0bf2 B8040000 		.4byte	.LASF61
 8187 0bf6 01       		.byte	0x1
 8188 0bf7 D607     		.2byte	0x7d6
 8189 0bf9 470E0000 		.4byte	0xe47
 8190 0bfd 0E030000 		.4byte	.LLST13
 8191 0c01 1A       		.uleb128 0x1a
 8192 0c02 A70A0000 		.4byte	.LASF62
 8193 0c06 01       		.byte	0x1
 8194 0c07 D807     		.2byte	0x7d8
 8195 0c09 B8000000 		.4byte	0xb8
 8196 0c0d 2C030000 		.4byte	.LLST14
 8197 0c11 0A       		.uleb128 0xa
 8198 0c12 10000000 		.4byte	.LVL152
 8199 0c16 340A0000 		.4byte	0xa34
 8200 0c1a 2A0C0000 		.4byte	0xc2a
 8201 0c1e 0B       		.uleb128 0xb
ARM GAS  C:\Users\Revanth\AppData\Local\Temp\ccHsQCvB.s 			page 204


 8202 0c1f 01       		.uleb128 0x1
 8203 0c20 50       		.byte	0x50
 8204 0c21 02       		.uleb128 0x2
 8205 0c22 75       		.byte	0x75
 8206 0c23 00       		.sleb128 0
 8207 0c24 0B       		.uleb128 0xb
 8208 0c25 01       		.uleb128 0x1
 8209 0c26 51       		.byte	0x51
 8210 0c27 01       		.uleb128 0x1
 8211 0c28 30       		.byte	0x30
 8212 0c29 00       		.byte	0
 8213 0c2a 0A       		.uleb128 0xa
 8214 0c2b 1A000000 		.4byte	.LVL153
 8215 0c2f F1090000 		.4byte	0x9f1
 8216 0c33 3E0C0000 		.4byte	0xc3e
 8217 0c37 0B       		.uleb128 0xb
 8218 0c38 01       		.uleb128 0x1
 8219 0c39 50       		.byte	0x50
 8220 0c3a 02       		.uleb128 0x2
 8221 0c3b 76       		.byte	0x76
 8222 0c3c 00       		.sleb128 0
 8223 0c3d 00       		.byte	0
 8224 0c3e 0A       		.uleb128 0xa
 8225 0c3f 20000000 		.4byte	.LVL154
 8226 0c43 F1090000 		.4byte	0x9f1
 8227 0c47 510C0000 		.4byte	0xc51
 8228 0c4b 0B       		.uleb128 0xb
 8229 0c4c 01       		.uleb128 0x1
 8230 0c4d 50       		.byte	0x50
 8231 0c4e 01       		.uleb128 0x1
 8232 0c4f 30       		.byte	0x30
 8233 0c50 00       		.byte	0
 8234 0c51 0A       		.uleb128 0xa
 8235 0c52 26000000 		.4byte	.LVL155
 8236 0c56 F1090000 		.4byte	0x9f1
 8237 0c5a 640C0000 		.4byte	0xc64
 8238 0c5e 0B       		.uleb128 0xb
 8239 0c5f 01       		.uleb128 0x1
 8240 0c60 50       		.byte	0x50
 8241 0c61 01       		.uleb128 0x1
 8242 0c62 30       		.byte	0x30
 8243 0c63 00       		.byte	0
 8244 0c64 0A       		.uleb128 0xa
 8245 0c65 2C000000 		.4byte	.LVL156
 8246 0c69 F1090000 		.4byte	0x9f1
 8247 0c6d 770C0000 		.4byte	0xc77
 8248 0c71 0B       		.uleb128 0xb
 8249 0c72 01       		.uleb128 0x1
 8250 0c73 50       		.byte	0x50
 8251 0c74 01       		.uleb128 0x1
 8252 0c75 30       		.byte	0x30
 8253 0c76 00       		.byte	0
 8254 0c77 0A       		.uleb128 0xa
 8255 0c78 32000000 		.4byte	.LVL157
 8256 0c7c F1090000 		.4byte	0x9f1
 8257 0c80 8A0C0000 		.4byte	0xc8a
 8258 0c84 0B       		.uleb128 0xb
ARM GAS  C:\Users\Revanth\AppData\Local\Temp\ccHsQCvB.s 			page 205


 8259 0c85 01       		.uleb128 0x1
 8260 0c86 50       		.byte	0x50
 8261 0c87 01       		.uleb128 0x1
 8262 0c88 30       		.byte	0x30
 8263 0c89 00       		.byte	0
 8264 0c8a 0A       		.uleb128 0xa
 8265 0c8b 3A000000 		.4byte	.LVL158
 8266 0c8f 340A0000 		.4byte	0xa34
 8267 0c93 A40C0000 		.4byte	0xca4
 8268 0c97 0B       		.uleb128 0xb
 8269 0c98 01       		.uleb128 0x1
 8270 0c99 50       		.byte	0x50
 8271 0c9a 02       		.uleb128 0x2
 8272 0c9b 75       		.byte	0x75
 8273 0c9c 00       		.sleb128 0
 8274 0c9d 0B       		.uleb128 0xb
 8275 0c9e 01       		.uleb128 0x1
 8276 0c9f 51       		.byte	0x51
 8277 0ca0 02       		.uleb128 0x2
 8278 0ca1 09       		.byte	0x9
 8279 0ca2 FF       		.byte	0xff
 8280 0ca3 00       		.byte	0
 8281 0ca4 0A       		.uleb128 0xa
 8282 0ca5 40000000 		.4byte	.LVL159
 8283 0ca9 713E0000 		.4byte	0x3e71
 8284 0cad B70C0000 		.4byte	0xcb7
 8285 0cb1 0B       		.uleb128 0xb
 8286 0cb2 01       		.uleb128 0x1
 8287 0cb3 50       		.byte	0x50
 8288 0cb4 01       		.uleb128 0x1
 8289 0cb5 31       		.byte	0x31
 8290 0cb6 00       		.byte	0
 8291 0cb7 0A       		.uleb128 0xa
 8292 0cb8 48000000 		.4byte	.LVL160
 8293 0cbc 340A0000 		.4byte	0xa34
 8294 0cc0 D00C0000 		.4byte	0xcd0
 8295 0cc4 0B       		.uleb128 0xb
 8296 0cc5 01       		.uleb128 0x1
 8297 0cc6 50       		.byte	0x50
 8298 0cc7 02       		.uleb128 0x2
 8299 0cc8 75       		.byte	0x75
 8300 0cc9 00       		.sleb128 0
 8301 0cca 0B       		.uleb128 0xb
 8302 0ccb 01       		.uleb128 0x1
 8303 0ccc 51       		.byte	0x51
 8304 0ccd 01       		.uleb128 0x1
 8305 0cce 30       		.byte	0x30
 8306 0ccf 00       		.byte	0
 8307 0cd0 0A       		.uleb128 0xa
 8308 0cd1 4E000000 		.4byte	.LVL161
 8309 0cd5 F1090000 		.4byte	0x9f1
 8310 0cd9 E40C0000 		.4byte	0xce4
 8311 0cdd 0B       		.uleb128 0xb
 8312 0cde 01       		.uleb128 0x1
 8313 0cdf 50       		.byte	0x50
 8314 0ce0 02       		.uleb128 0x2
 8315 0ce1 76       		.byte	0x76
ARM GAS  C:\Users\Revanth\AppData\Local\Temp\ccHsQCvB.s 			page 206


 8316 0ce2 00       		.sleb128 0
 8317 0ce3 00       		.byte	0
 8318 0ce4 09       		.uleb128 0x9
 8319 0ce5 52000000 		.4byte	.LVL162
 8320 0ce9 A93F0000 		.4byte	0x3fa9
 8321 0ced 0A       		.uleb128 0xa
 8322 0cee 5A000000 		.4byte	.LVL163
 8323 0cf2 F1090000 		.4byte	0x9f1
 8324 0cf6 000D0000 		.4byte	0xd00
 8325 0cfa 0B       		.uleb128 0xb
 8326 0cfb 01       		.uleb128 0x1
 8327 0cfc 50       		.byte	0x50
 8328 0cfd 01       		.uleb128 0x1
 8329 0cfe 30       		.byte	0x30
 8330 0cff 00       		.byte	0
 8331 0d00 09       		.uleb128 0x9
 8332 0d01 5E000000 		.4byte	.LVL164
 8333 0d05 A93F0000 		.4byte	0x3fa9
 8334 0d09 0A       		.uleb128 0xa
 8335 0d0a 66000000 		.4byte	.LVL166
 8336 0d0e F1090000 		.4byte	0x9f1
 8337 0d12 1C0D0000 		.4byte	0xd1c
 8338 0d16 0B       		.uleb128 0xb
 8339 0d17 01       		.uleb128 0x1
 8340 0d18 50       		.byte	0x50
 8341 0d19 01       		.uleb128 0x1
 8342 0d1a 30       		.byte	0x30
 8343 0d1b 00       		.byte	0
 8344 0d1c 09       		.uleb128 0x9
 8345 0d1d 6A000000 		.4byte	.LVL167
 8346 0d21 A93F0000 		.4byte	0x3fa9
 8347 0d25 0A       		.uleb128 0xa
 8348 0d26 74000000 		.4byte	.LVL169
 8349 0d2a F1090000 		.4byte	0x9f1
 8350 0d2e 380D0000 		.4byte	0xd38
 8351 0d32 0B       		.uleb128 0xb
 8352 0d33 01       		.uleb128 0x1
 8353 0d34 50       		.byte	0x50
 8354 0d35 01       		.uleb128 0x1
 8355 0d36 30       		.byte	0x30
 8356 0d37 00       		.byte	0
 8357 0d38 09       		.uleb128 0x9
 8358 0d39 78000000 		.4byte	.LVL170
 8359 0d3d A93F0000 		.4byte	0x3fa9
 8360 0d41 0A       		.uleb128 0xa
 8361 0d42 82000000 		.4byte	.LVL172
 8362 0d46 F1090000 		.4byte	0x9f1
 8363 0d4a 540D0000 		.4byte	0xd54
 8364 0d4e 0B       		.uleb128 0xb
 8365 0d4f 01       		.uleb128 0x1
 8366 0d50 50       		.byte	0x50
 8367 0d51 01       		.uleb128 0x1
 8368 0d52 30       		.byte	0x30
 8369 0d53 00       		.byte	0
 8370 0d54 09       		.uleb128 0x9
 8371 0d55 86000000 		.4byte	.LVL173
 8372 0d59 A93F0000 		.4byte	0x3fa9
ARM GAS  C:\Users\Revanth\AppData\Local\Temp\ccHsQCvB.s 			page 207


 8373 0d5d 0A       		.uleb128 0xa
 8374 0d5e 90000000 		.4byte	.LVL175
 8375 0d62 340A0000 		.4byte	0xa34
 8376 0d66 770D0000 		.4byte	0xd77
 8377 0d6a 0B       		.uleb128 0xb
 8378 0d6b 01       		.uleb128 0x1
 8379 0d6c 50       		.byte	0x50
 8380 0d6d 02       		.uleb128 0x2
 8381 0d6e 75       		.byte	0x75
 8382 0d6f 00       		.sleb128 0
 8383 0d70 0B       		.uleb128 0xb
 8384 0d71 01       		.uleb128 0x1
 8385 0d72 51       		.byte	0x51
 8386 0d73 02       		.uleb128 0x2
 8387 0d74 09       		.byte	0x9
 8388 0d75 FF       		.byte	0xff
 8389 0d76 00       		.byte	0
 8390 0d77 0A       		.uleb128 0xa
 8391 0d78 96000000 		.4byte	.LVL176
 8392 0d7c 713E0000 		.4byte	0x3e71
 8393 0d80 8A0D0000 		.4byte	0xd8a
 8394 0d84 0B       		.uleb128 0xb
 8395 0d85 01       		.uleb128 0x1
 8396 0d86 50       		.byte	0x50
 8397 0d87 01       		.uleb128 0x1
 8398 0d88 31       		.byte	0x31
 8399 0d89 00       		.byte	0
 8400 0d8a 0A       		.uleb128 0xa
 8401 0d8b 9E000000 		.4byte	.LVL177
 8402 0d8f 340A0000 		.4byte	0xa34
 8403 0d93 A30D0000 		.4byte	0xda3
 8404 0d97 0B       		.uleb128 0xb
 8405 0d98 01       		.uleb128 0x1
 8406 0d99 50       		.byte	0x50
 8407 0d9a 02       		.uleb128 0x2
 8408 0d9b 75       		.byte	0x75
 8409 0d9c 00       		.sleb128 0
 8410 0d9d 0B       		.uleb128 0xb
 8411 0d9e 01       		.uleb128 0x1
 8412 0d9f 51       		.byte	0x51
 8413 0da0 01       		.uleb128 0x1
 8414 0da1 30       		.byte	0x30
 8415 0da2 00       		.byte	0
 8416 0da3 0A       		.uleb128 0xa
 8417 0da4 A4000000 		.4byte	.LVL178
 8418 0da8 F1090000 		.4byte	0x9f1
 8419 0dac B70D0000 		.4byte	0xdb7
 8420 0db0 0B       		.uleb128 0xb
 8421 0db1 01       		.uleb128 0x1
 8422 0db2 50       		.byte	0x50
 8423 0db3 02       		.uleb128 0x2
 8424 0db4 76       		.byte	0x76
 8425 0db5 00       		.sleb128 0
 8426 0db6 00       		.byte	0
 8427 0db7 09       		.uleb128 0x9
 8428 0db8 A8000000 		.4byte	.LVL179
 8429 0dbc A93F0000 		.4byte	0x3fa9
ARM GAS  C:\Users\Revanth\AppData\Local\Temp\ccHsQCvB.s 			page 208


 8430 0dc0 0A       		.uleb128 0xa
 8431 0dc1 B0000000 		.4byte	.LVL180
 8432 0dc5 F1090000 		.4byte	0x9f1
 8433 0dc9 D30D0000 		.4byte	0xdd3
 8434 0dcd 0B       		.uleb128 0xb
 8435 0dce 01       		.uleb128 0x1
 8436 0dcf 50       		.byte	0x50
 8437 0dd0 01       		.uleb128 0x1
 8438 0dd1 30       		.byte	0x30
 8439 0dd2 00       		.byte	0
 8440 0dd3 09       		.uleb128 0x9
 8441 0dd4 B4000000 		.4byte	.LVL181
 8442 0dd8 A93F0000 		.4byte	0x3fa9
 8443 0ddc 0A       		.uleb128 0xa
 8444 0ddd BE000000 		.4byte	.LVL183
 8445 0de1 F1090000 		.4byte	0x9f1
 8446 0de5 EF0D0000 		.4byte	0xdef
 8447 0de9 0B       		.uleb128 0xb
 8448 0dea 01       		.uleb128 0x1
 8449 0deb 50       		.byte	0x50
 8450 0dec 01       		.uleb128 0x1
 8451 0ded 30       		.byte	0x30
 8452 0dee 00       		.byte	0
 8453 0def 09       		.uleb128 0x9
 8454 0df0 C2000000 		.4byte	.LVL184
 8455 0df4 A93F0000 		.4byte	0x3fa9
 8456 0df8 0A       		.uleb128 0xa
 8457 0df9 CC000000 		.4byte	.LVL186
 8458 0dfd F1090000 		.4byte	0x9f1
 8459 0e01 0B0E0000 		.4byte	0xe0b
 8460 0e05 0B       		.uleb128 0xb
 8461 0e06 01       		.uleb128 0x1
 8462 0e07 50       		.byte	0x50
 8463 0e08 01       		.uleb128 0x1
 8464 0e09 30       		.byte	0x30
 8465 0e0a 00       		.byte	0
 8466 0e0b 09       		.uleb128 0x9
 8467 0e0c D0000000 		.4byte	.LVL187
 8468 0e10 A93F0000 		.4byte	0x3fa9
 8469 0e14 0A       		.uleb128 0xa
 8470 0e15 DA000000 		.4byte	.LVL189
 8471 0e19 F1090000 		.4byte	0x9f1
 8472 0e1d 270E0000 		.4byte	0xe27
 8473 0e21 0B       		.uleb128 0xb
 8474 0e22 01       		.uleb128 0x1
 8475 0e23 50       		.byte	0x50
 8476 0e24 01       		.uleb128 0x1
 8477 0e25 30       		.byte	0x30
 8478 0e26 00       		.byte	0
 8479 0e27 09       		.uleb128 0x9
 8480 0e28 DE000000 		.4byte	.LVL190
 8481 0e2c A93F0000 		.4byte	0x3fa9
 8482 0e30 0C       		.uleb128 0xc
 8483 0e31 E8000000 		.4byte	.LVL192
 8484 0e35 340A0000 		.4byte	0xa34
 8485 0e39 0B       		.uleb128 0xb
 8486 0e3a 01       		.uleb128 0x1
ARM GAS  C:\Users\Revanth\AppData\Local\Temp\ccHsQCvB.s 			page 209


 8487 0e3b 50       		.byte	0x50
 8488 0e3c 02       		.uleb128 0x2
 8489 0e3d 75       		.byte	0x75
 8490 0e3e 00       		.sleb128 0
 8491 0e3f 0B       		.uleb128 0xb
 8492 0e40 01       		.uleb128 0x1
 8493 0e41 51       		.byte	0x51
 8494 0e42 02       		.uleb128 0x2
 8495 0e43 09       		.byte	0x9
 8496 0e44 FF       		.byte	0xff
 8497 0e45 00       		.byte	0
 8498 0e46 00       		.byte	0
 8499 0e47 05       		.uleb128 0x5
 8500 0e48 04       		.byte	0x4
 8501 0e49 97000000 		.4byte	0x97
 8502 0e4d 0D       		.uleb128 0xd
 8503 0e4e B7010000 		.4byte	.LASF63
 8504 0e52 01       		.byte	0x1
 8505 0e53 3308     		.2byte	0x833
 8506 0e55 00000000 		.4byte	.LFB104
 8507 0e59 3E000000 		.4byte	.LFE104-.LFB104
 8508 0e5d 01       		.uleb128 0x1
 8509 0e5e 9C       		.byte	0x9c
 8510 0e5f 380F0000 		.4byte	0xf38
 8511 0e63 0E       		.uleb128 0xe
 8512 0e64 A1010000 		.4byte	.LASF60
 8513 0e68 01       		.byte	0x1
 8514 0e69 3308     		.2byte	0x833
 8515 0e6b 97000000 		.4byte	0x97
 8516 0e6f 4B030000 		.4byte	.LLST15
 8517 0e73 0E       		.uleb128 0xe
 8518 0e74 D8040000 		.4byte	.LASF54
 8519 0e78 01       		.byte	0x1
 8520 0e79 3308     		.2byte	0x833
 8521 0e7b 89000000 		.4byte	0x89
 8522 0e7f 6C030000 		.4byte	.LLST16
 8523 0e83 0E       		.uleb128 0xe
 8524 0e84 1B060000 		.4byte	.LASF56
 8525 0e88 01       		.byte	0x1
 8526 0e89 3308     		.2byte	0x833
 8527 0e8b 97000000 		.4byte	0x97
 8528 0e8f 8A030000 		.4byte	.LLST17
 8529 0e93 0A       		.uleb128 0xa
 8530 0e94 10000000 		.4byte	.LVL196
 8531 0e98 340A0000 		.4byte	0xa34
 8532 0e9c AC0E0000 		.4byte	0xeac
 8533 0ea0 0B       		.uleb128 0xb
 8534 0ea1 01       		.uleb128 0x1
 8535 0ea2 50       		.byte	0x50
 8536 0ea3 02       		.uleb128 0x2
 8537 0ea4 75       		.byte	0x75
 8538 0ea5 00       		.sleb128 0
 8539 0ea6 0B       		.uleb128 0xb
 8540 0ea7 01       		.uleb128 0x1
 8541 0ea8 51       		.byte	0x51
 8542 0ea9 01       		.uleb128 0x1
 8543 0eaa 30       		.byte	0x30
ARM GAS  C:\Users\Revanth\AppData\Local\Temp\ccHsQCvB.s 			page 210


 8544 0eab 00       		.byte	0
 8545 0eac 0A       		.uleb128 0xa
 8546 0ead 18000000 		.4byte	.LVL197
 8547 0eb1 F1090000 		.4byte	0x9f1
 8548 0eb5 C30E0000 		.4byte	0xec3
 8549 0eb9 0B       		.uleb128 0xb
 8550 0eba 01       		.uleb128 0x1
 8551 0ebb 50       		.byte	0x50
 8552 0ebc 05       		.uleb128 0x5
 8553 0ebd 76       		.byte	0x76
 8554 0ebe 00       		.sleb128 0
 8555 0ebf 08       		.byte	0x8
 8556 0ec0 80       		.byte	0x80
 8557 0ec1 21       		.byte	0x21
 8558 0ec2 00       		.byte	0
 8559 0ec3 0A       		.uleb128 0xa
 8560 0ec4 1E000000 		.4byte	.LVL198
 8561 0ec8 F1090000 		.4byte	0x9f1
 8562 0ecc D90E0000 		.4byte	0xed9
 8563 0ed0 0B       		.uleb128 0xb
 8564 0ed1 01       		.uleb128 0x1
 8565 0ed2 50       		.byte	0x50
 8566 0ed3 04       		.uleb128 0x4
 8567 0ed4 74       		.byte	0x74
 8568 0ed5 00       		.sleb128 0
 8569 0ed6 48       		.byte	0x48
 8570 0ed7 25       		.byte	0x25
 8571 0ed8 00       		.byte	0
 8572 0ed9 0A       		.uleb128 0xa
 8573 0eda 26000000 		.4byte	.LVL199
 8574 0ede F1090000 		.4byte	0x9f1
 8575 0ee2 F30E0000 		.4byte	0xef3
 8576 0ee6 0B       		.uleb128 0xb
 8577 0ee7 01       		.uleb128 0x1
 8578 0ee8 50       		.byte	0x50
 8579 0ee9 08       		.uleb128 0x8
 8580 0eea 74       		.byte	0x74
 8581 0eeb 00       		.sleb128 0
 8582 0eec 09       		.byte	0x9
 8583 0eed EC       		.byte	0xec
 8584 0eee 24       		.byte	0x24
 8585 0eef 09       		.byte	0x9
 8586 0ef0 FC       		.byte	0xfc
 8587 0ef1 25       		.byte	0x25
 8588 0ef2 00       		.byte	0
 8589 0ef3 0A       		.uleb128 0xa
 8590 0ef4 2E000000 		.4byte	.LVL200
 8591 0ef8 F1090000 		.4byte	0x9f1
 8592 0efc 0D0F0000 		.4byte	0xf0d
 8593 0f00 0B       		.uleb128 0xb
 8594 0f01 01       		.uleb128 0x1
 8595 0f02 50       		.byte	0x50
 8596 0f03 08       		.uleb128 0x8
 8597 0f04 74       		.byte	0x74
 8598 0f05 00       		.sleb128 0
 8599 0f06 09       		.byte	0x9
 8600 0f07 F4       		.byte	0xf4
ARM GAS  C:\Users\Revanth\AppData\Local\Temp\ccHsQCvB.s 			page 211


 8601 0f08 24       		.byte	0x24
 8602 0f09 09       		.byte	0x9
 8603 0f0a FC       		.byte	0xfc
 8604 0f0b 25       		.byte	0x25
 8605 0f0c 00       		.byte	0
 8606 0f0d 0A       		.uleb128 0xa
 8607 0f0e 34000000 		.4byte	.LVL201
 8608 0f12 F1090000 		.4byte	0x9f1
 8609 0f16 210F0000 		.4byte	0xf21
 8610 0f1a 0B       		.uleb128 0xb
 8611 0f1b 01       		.uleb128 0x1
 8612 0f1c 50       		.byte	0x50
 8613 0f1d 02       		.uleb128 0x2
 8614 0f1e 74       		.byte	0x74
 8615 0f1f 00       		.sleb128 0
 8616 0f20 00       		.byte	0
 8617 0f21 0C       		.uleb128 0xc
 8618 0f22 3C000000 		.4byte	.LVL202
 8619 0f26 340A0000 		.4byte	0xa34
 8620 0f2a 0B       		.uleb128 0xb
 8621 0f2b 01       		.uleb128 0x1
 8622 0f2c 50       		.byte	0x50
 8623 0f2d 02       		.uleb128 0x2
 8624 0f2e 75       		.byte	0x75
 8625 0f2f 00       		.sleb128 0
 8626 0f30 0B       		.uleb128 0xb
 8627 0f31 01       		.uleb128 0x1
 8628 0f32 51       		.byte	0x51
 8629 0f33 02       		.uleb128 0x2
 8630 0f34 09       		.byte	0x9
 8631 0f35 FF       		.byte	0xff
 8632 0f36 00       		.byte	0
 8633 0f37 00       		.byte	0
 8634 0f38 1B       		.uleb128 0x1b
 8635 0f39 67090000 		.4byte	.LASF64
 8636 0f3d 01       		.byte	0x1
 8637 0f3e 79       		.byte	0x79
 8638 0f3f 00000000 		.4byte	.LFB65
 8639 0f43 26000000 		.4byte	.LFE65-.LFB65
 8640 0f47 01       		.uleb128 0x1
 8641 0f48 9C       		.byte	0x9c
 8642 0f49 C60F0000 		.4byte	0xfc6
 8643 0f4d 1C       		.uleb128 0x1c
 8644 0f4e 506F7300 		.ascii	"Pos\000"
 8645 0f52 01       		.byte	0x1
 8646 0f53 79       		.byte	0x79
 8647 0f54 89000000 		.4byte	0x89
 8648 0f58 AB030000 		.4byte	.LLST18
 8649 0f5c 1D       		.uleb128 0x1d
 8650 0f5d 1B060000 		.4byte	.LASF56
 8651 0f61 01       		.byte	0x1
 8652 0f62 79       		.byte	0x79
 8653 0f63 97000000 		.4byte	0x97
 8654 0f67 C9030000 		.4byte	.LLST19
 8655 0f6b 0A       		.uleb128 0xa
 8656 0f6c 10000000 		.4byte	.LVL206
 8657 0f70 4D0E0000 		.4byte	0xe4d
ARM GAS  C:\Users\Revanth\AppData\Local\Temp\ccHsQCvB.s 			page 212


 8658 0f74 8A0F0000 		.4byte	0xf8a
 8659 0f78 0B       		.uleb128 0xb
 8660 0f79 01       		.uleb128 0x1
 8661 0f7a 50       		.byte	0x50
 8662 0f7b 02       		.uleb128 0x2
 8663 0f7c 08       		.byte	0x8
 8664 0f7d 20       		.byte	0x20
 8665 0f7e 0B       		.uleb128 0xb
 8666 0f7f 01       		.uleb128 0x1
 8667 0f80 51       		.byte	0x51
 8668 0f81 01       		.uleb128 0x1
 8669 0f82 30       		.byte	0x30
 8670 0f83 0B       		.uleb128 0xb
 8671 0f84 01       		.uleb128 0x1
 8672 0f85 52       		.byte	0x52
 8673 0f86 02       		.uleb128 0x2
 8674 0f87 74       		.byte	0x74
 8675 0f88 00       		.sleb128 0
 8676 0f89 00       		.byte	0
 8677 0f8a 0A       		.uleb128 0xa
 8678 0f8b 1A000000 		.4byte	.LVL207
 8679 0f8f 4D0E0000 		.4byte	0xe4d
 8680 0f93 A90F0000 		.4byte	0xfa9
 8681 0f97 0B       		.uleb128 0xb
 8682 0f98 01       		.uleb128 0x1
 8683 0f99 50       		.byte	0x50
 8684 0f9a 01       		.uleb128 0x1
 8685 0f9b 35       		.byte	0x35
 8686 0f9c 0B       		.uleb128 0xb
 8687 0f9d 01       		.uleb128 0x1
 8688 0f9e 51       		.byte	0x51
 8689 0f9f 02       		.uleb128 0x2
 8690 0fa0 75       		.byte	0x75
 8691 0fa1 00       		.sleb128 0
 8692 0fa2 0B       		.uleb128 0xb
 8693 0fa3 01       		.uleb128 0x1
 8694 0fa4 52       		.byte	0x52
 8695 0fa5 02       		.uleb128 0x2
 8696 0fa6 74       		.byte	0x74
 8697 0fa7 00       		.sleb128 0
 8698 0fa8 00       		.byte	0
 8699 0fa9 0C       		.uleb128 0xc
 8700 0faa 24000000 		.4byte	.LVL208
 8701 0fae 4D0E0000 		.4byte	0xe4d
 8702 0fb2 0B       		.uleb128 0xb
 8703 0fb3 01       		.uleb128 0x1
 8704 0fb4 50       		.byte	0x50
 8705 0fb5 02       		.uleb128 0x2
 8706 0fb6 08       		.byte	0x8
 8707 0fb7 2D       		.byte	0x2d
 8708 0fb8 0B       		.uleb128 0xb
 8709 0fb9 01       		.uleb128 0x1
 8710 0fba 51       		.byte	0x51
 8711 0fbb 02       		.uleb128 0x2
 8712 0fbc 75       		.byte	0x75
 8713 0fbd 00       		.sleb128 0
 8714 0fbe 0B       		.uleb128 0xb
ARM GAS  C:\Users\Revanth\AppData\Local\Temp\ccHsQCvB.s 			page 213


 8715 0fbf 01       		.uleb128 0x1
 8716 0fc0 52       		.byte	0x52
 8717 0fc1 02       		.uleb128 0x2
 8718 0fc2 74       		.byte	0x74
 8719 0fc3 00       		.sleb128 0
 8720 0fc4 00       		.byte	0
 8721 0fc5 00       		.byte	0
 8722 0fc6 0D       		.uleb128 0xd
 8723 0fc7 A6010000 		.4byte	.LASF65
 8724 0fcb 01       		.byte	0x1
 8725 0fcc 4308     		.2byte	0x843
 8726 0fce 00000000 		.4byte	.LFB105
 8727 0fd2 88020000 		.4byte	.LFE105-.LFB105
 8728 0fd6 01       		.uleb128 0x1
 8729 0fd7 9C       		.byte	0x9c
 8730 0fd8 B7160000 		.4byte	0x16b7
 8731 0fdc 0E       		.uleb128 0xe
 8732 0fdd 1B060000 		.4byte	.LASF56
 8733 0fe1 01       		.byte	0x1
 8734 0fe2 4308     		.2byte	0x843
 8735 0fe4 97000000 		.4byte	0x97
 8736 0fe8 EA030000 		.4byte	.LLST20
 8737 0fec 0A       		.uleb128 0xa
 8738 0fed 0E000000 		.4byte	.LVL211
 8739 0ff1 4D0E0000 		.4byte	0xe4d
 8740 0ff5 0A100000 		.4byte	0x100a
 8741 0ff9 0B       		.uleb128 0xb
 8742 0ffa 01       		.uleb128 0x1
 8743 0ffb 50       		.byte	0x50
 8744 0ffc 01       		.uleb128 0x1
 8745 0ffd 31       		.byte	0x31
 8746 0ffe 0B       		.uleb128 0xb
 8747 0fff 01       		.uleb128 0x1
 8748 1000 51       		.byte	0x51
 8749 1001 01       		.uleb128 0x1
 8750 1002 35       		.byte	0x35
 8751 1003 0B       		.uleb128 0xb
 8752 1004 01       		.uleb128 0x1
 8753 1005 52       		.byte	0x52
 8754 1006 02       		.uleb128 0x2
 8755 1007 74       		.byte	0x74
 8756 1008 00       		.sleb128 0
 8757 1009 00       		.byte	0
 8758 100a 0A       		.uleb128 0xa
 8759 100b 18000000 		.4byte	.LVL212
 8760 100f 4D0E0000 		.4byte	0xe4d
 8761 1013 28100000 		.4byte	0x1028
 8762 1017 0B       		.uleb128 0xb
 8763 1018 01       		.uleb128 0x1
 8764 1019 50       		.byte	0x50
 8765 101a 01       		.uleb128 0x1
 8766 101b 30       		.byte	0x30
 8767 101c 0B       		.uleb128 0xb
 8768 101d 01       		.uleb128 0x1
 8769 101e 51       		.byte	0x51
 8770 101f 01       		.uleb128 0x1
 8771 1020 38       		.byte	0x38
ARM GAS  C:\Users\Revanth\AppData\Local\Temp\ccHsQCvB.s 			page 214


 8772 1021 0B       		.uleb128 0xb
 8773 1022 01       		.uleb128 0x1
 8774 1023 52       		.byte	0x52
 8775 1024 02       		.uleb128 0x2
 8776 1025 74       		.byte	0x74
 8777 1026 00       		.sleb128 0
 8778 1027 00       		.byte	0
 8779 1028 0A       		.uleb128 0xa
 8780 1029 22000000 		.4byte	.LVL213
 8781 102d 4D0E0000 		.4byte	0xe4d
 8782 1031 46100000 		.4byte	0x1046
 8783 1035 0B       		.uleb128 0xb
 8784 1036 01       		.uleb128 0x1
 8785 1037 50       		.byte	0x50
 8786 1038 01       		.uleb128 0x1
 8787 1039 33       		.byte	0x33
 8788 103a 0B       		.uleb128 0xb
 8789 103b 01       		.uleb128 0x1
 8790 103c 51       		.byte	0x51
 8791 103d 01       		.uleb128 0x1
 8792 103e 30       		.byte	0x30
 8793 103f 0B       		.uleb128 0xb
 8794 1040 01       		.uleb128 0x1
 8795 1041 52       		.byte	0x52
 8796 1042 02       		.uleb128 0x2
 8797 1043 74       		.byte	0x74
 8798 1044 00       		.sleb128 0
 8799 1045 00       		.byte	0
 8800 1046 0A       		.uleb128 0xa
 8801 1047 2C000000 		.4byte	.LVL214
 8802 104b 4D0E0000 		.4byte	0xe4d
 8803 104f 64100000 		.4byte	0x1064
 8804 1053 0B       		.uleb128 0xb
 8805 1054 01       		.uleb128 0x1
 8806 1055 50       		.byte	0x50
 8807 1056 01       		.uleb128 0x1
 8808 1057 35       		.byte	0x35
 8809 1058 0B       		.uleb128 0xb
 8810 1059 01       		.uleb128 0x1
 8811 105a 51       		.byte	0x51
 8812 105b 01       		.uleb128 0x1
 8813 105c 30       		.byte	0x30
 8814 105d 0B       		.uleb128 0xb
 8815 105e 01       		.uleb128 0x1
 8816 105f 52       		.byte	0x52
 8817 1060 02       		.uleb128 0x2
 8818 1061 74       		.byte	0x74
 8819 1062 00       		.sleb128 0
 8820 1063 00       		.byte	0
 8821 1064 0A       		.uleb128 0xa
 8822 1065 36000000 		.4byte	.LVL215
 8823 1069 4D0E0000 		.4byte	0xe4d
 8824 106d 82100000 		.4byte	0x1082
 8825 1071 0B       		.uleb128 0xb
 8826 1072 01       		.uleb128 0x1
 8827 1073 50       		.byte	0x50
 8828 1074 01       		.uleb128 0x1
ARM GAS  C:\Users\Revanth\AppData\Local\Temp\ccHsQCvB.s 			page 215


 8829 1075 36       		.byte	0x36
 8830 1076 0B       		.uleb128 0xb
 8831 1077 01       		.uleb128 0x1
 8832 1078 51       		.byte	0x51
 8833 1079 01       		.uleb128 0x1
 8834 107a 30       		.byte	0x30
 8835 107b 0B       		.uleb128 0xb
 8836 107c 01       		.uleb128 0x1
 8837 107d 52       		.byte	0x52
 8838 107e 02       		.uleb128 0x2
 8839 107f 74       		.byte	0x74
 8840 1080 00       		.sleb128 0
 8841 1081 00       		.byte	0
 8842 1082 0A       		.uleb128 0xa
 8843 1083 40000000 		.4byte	.LVL216
 8844 1087 4D0E0000 		.4byte	0xe4d
 8845 108b A0100000 		.4byte	0x10a0
 8846 108f 0B       		.uleb128 0xb
 8847 1090 01       		.uleb128 0x1
 8848 1091 50       		.byte	0x50
 8849 1092 01       		.uleb128 0x1
 8850 1093 38       		.byte	0x38
 8851 1094 0B       		.uleb128 0xb
 8852 1095 01       		.uleb128 0x1
 8853 1096 51       		.byte	0x51
 8854 1097 01       		.uleb128 0x1
 8855 1098 3F       		.byte	0x3f
 8856 1099 0B       		.uleb128 0xb
 8857 109a 01       		.uleb128 0x1
 8858 109b 52       		.byte	0x52
 8859 109c 02       		.uleb128 0x2
 8860 109d 74       		.byte	0x74
 8861 109e 00       		.sleb128 0
 8862 109f 00       		.byte	0
 8863 10a0 0A       		.uleb128 0xa
 8864 10a1 4A000000 		.4byte	.LVL217
 8865 10a5 4D0E0000 		.4byte	0xe4d
 8866 10a9 C2100000 		.4byte	0x10c2
 8867 10ad 0B       		.uleb128 0xb
 8868 10ae 01       		.uleb128 0x1
 8869 10af 50       		.byte	0x50
 8870 10b0 01       		.uleb128 0x1
 8871 10b1 39       		.byte	0x39
 8872 10b2 0B       		.uleb128 0xb
 8873 10b3 01       		.uleb128 0x1
 8874 10b4 51       		.byte	0x51
 8875 10b5 05       		.uleb128 0x5
 8876 10b6 0C       		.byte	0xc
 8877 10b7 06060100 		.4byte	0x10606
 8878 10bb 0B       		.uleb128 0xb
 8879 10bc 01       		.uleb128 0x1
 8880 10bd 52       		.byte	0x52
 8881 10be 02       		.uleb128 0x2
 8882 10bf 74       		.byte	0x74
 8883 10c0 00       		.sleb128 0
 8884 10c1 00       		.byte	0
 8885 10c2 0A       		.uleb128 0xa
ARM GAS  C:\Users\Revanth\AppData\Local\Temp\ccHsQCvB.s 			page 216


 8886 10c3 54000000 		.4byte	.LVL218
 8887 10c7 4D0E0000 		.4byte	0xe4d
 8888 10cb E4100000 		.4byte	0x10e4
 8889 10cf 0B       		.uleb128 0xb
 8890 10d0 01       		.uleb128 0x1
 8891 10d1 50       		.byte	0x50
 8892 10d2 01       		.uleb128 0x1
 8893 10d3 3A       		.byte	0x3a
 8894 10d4 0B       		.uleb128 0xb
 8895 10d5 01       		.uleb128 0x1
 8896 10d6 51       		.byte	0x51
 8897 10d7 05       		.uleb128 0x5
 8898 10d8 0C       		.byte	0xc
 8899 10d9 00040800 		.4byte	0x80400
 8900 10dd 0B       		.uleb128 0xb
 8901 10de 01       		.uleb128 0x1
 8902 10df 52       		.byte	0x52
 8903 10e0 02       		.uleb128 0x2
 8904 10e1 74       		.byte	0x74
 8905 10e2 00       		.sleb128 0
 8906 10e3 00       		.byte	0
 8907 10e4 0A       		.uleb128 0xa
 8908 10e5 62000000 		.4byte	.LVL219
 8909 10e9 4D0E0000 		.4byte	0xe4d
 8910 10ed 02110000 		.4byte	0x1102
 8911 10f1 0B       		.uleb128 0xb
 8912 10f2 01       		.uleb128 0x1
 8913 10f3 50       		.byte	0x50
 8914 10f4 01       		.uleb128 0x1
 8915 10f5 3B       		.byte	0x3b
 8916 10f6 0B       		.uleb128 0xb
 8917 10f7 01       		.uleb128 0x1
 8918 10f8 51       		.byte	0x51
 8919 10f9 01       		.uleb128 0x1
 8920 10fa 30       		.byte	0x30
 8921 10fb 0B       		.uleb128 0xb
 8922 10fc 01       		.uleb128 0x1
 8923 10fd 52       		.byte	0x52
 8924 10fe 02       		.uleb128 0x2
 8925 10ff 74       		.byte	0x74
 8926 1100 00       		.sleb128 0
 8927 1101 00       		.byte	0
 8928 1102 0A       		.uleb128 0xa
 8929 1103 6C000000 		.4byte	.LVL220
 8930 1107 4D0E0000 		.4byte	0xe4d
 8931 110b 24110000 		.4byte	0x1124
 8932 110f 0B       		.uleb128 0xb
 8933 1110 01       		.uleb128 0x1
 8934 1111 50       		.byte	0x50
 8935 1112 01       		.uleb128 0x1
 8936 1113 40       		.byte	0x40
 8937 1114 0B       		.uleb128 0xb
 8938 1115 01       		.uleb128 0x1
 8939 1116 51       		.byte	0x51
 8940 1117 05       		.uleb128 0x5
 8941 1118 0C       		.byte	0xc
 8942 1119 01030700 		.4byte	0x70301
ARM GAS  C:\Users\Revanth\AppData\Local\Temp\ccHsQCvB.s 			page 217


 8943 111d 0B       		.uleb128 0xb
 8944 111e 01       		.uleb128 0x1
 8945 111f 52       		.byte	0x52
 8946 1120 02       		.uleb128 0x2
 8947 1121 74       		.byte	0x74
 8948 1122 00       		.sleb128 0
 8949 1123 00       		.byte	0
 8950 1124 0A       		.uleb128 0xa
 8951 1125 7A000000 		.4byte	.LVL221
 8952 1129 4D0E0000 		.4byte	0xe4d
 8953 112d 43110000 		.4byte	0x1143
 8954 1131 0B       		.uleb128 0xb
 8955 1132 01       		.uleb128 0x1
 8956 1133 50       		.byte	0x50
 8957 1134 01       		.uleb128 0x1
 8958 1135 3B       		.byte	0x3b
 8959 1136 0B       		.uleb128 0xb
 8960 1137 01       		.uleb128 0x1
 8961 1138 51       		.byte	0x51
 8962 1139 02       		.uleb128 0x2
 8963 113a 08       		.byte	0x8
 8964 113b 5A       		.byte	0x5a
 8965 113c 0B       		.uleb128 0xb
 8966 113d 01       		.uleb128 0x1
 8967 113e 52       		.byte	0x52
 8968 113f 02       		.uleb128 0x2
 8969 1140 74       		.byte	0x74
 8970 1141 00       		.sleb128 0
 8971 1142 00       		.byte	0
 8972 1143 0A       		.uleb128 0xa
 8973 1144 84000000 		.4byte	.LVL222
 8974 1148 4D0E0000 		.4byte	0xe4d
 8975 114c 65110000 		.4byte	0x1165
 8976 1150 0B       		.uleb128 0xb
 8977 1151 01       		.uleb128 0x1
 8978 1152 50       		.byte	0x50
 8979 1153 01       		.uleb128 0x1
 8980 1154 40       		.byte	0x40
 8981 1155 0B       		.uleb128 0xb
 8982 1156 01       		.uleb128 0x1
 8983 1157 51       		.byte	0x51
 8984 1158 05       		.uleb128 0x5
 8985 1159 0C       		.byte	0xc
 8986 115a 01010700 		.4byte	0x70101
 8987 115e 0B       		.uleb128 0xb
 8988 115f 01       		.uleb128 0x1
 8989 1160 52       		.byte	0x52
 8990 1161 02       		.uleb128 0x2
 8991 1162 74       		.byte	0x74
 8992 1163 00       		.sleb128 0
 8993 1164 00       		.byte	0
 8994 1165 0A       		.uleb128 0xa
 8995 1166 94000000 		.4byte	.LVL223
 8996 116a 4D0E0000 		.4byte	0xe4d
 8997 116e 84110000 		.4byte	0x1184
 8998 1172 0B       		.uleb128 0xb
 8999 1173 01       		.uleb128 0x1
ARM GAS  C:\Users\Revanth\AppData\Local\Temp\ccHsQCvB.s 			page 218


 9000 1174 50       		.byte	0x50
 9001 1175 01       		.uleb128 0x1
 9002 1176 3B       		.byte	0x3b
 9003 1177 0B       		.uleb128 0xb
 9004 1178 01       		.uleb128 0x1
 9005 1179 51       		.byte	0x51
 9006 117a 02       		.uleb128 0x2
 9007 117b 08       		.byte	0x8
 9008 117c 7F       		.byte	0x7f
 9009 117d 0B       		.uleb128 0xb
 9010 117e 01       		.uleb128 0x1
 9011 117f 52       		.byte	0x52
 9012 1180 02       		.uleb128 0x2
 9013 1181 74       		.byte	0x74
 9014 1182 00       		.sleb128 0
 9015 1183 00       		.byte	0
 9016 1184 0A       		.uleb128 0xa
 9017 1185 9E000000 		.4byte	.LVL224
 9018 1189 4D0E0000 		.4byte	0xe4d
 9019 118d A6110000 		.4byte	0x11a6
 9020 1191 0B       		.uleb128 0xb
 9021 1192 01       		.uleb128 0x1
 9022 1193 50       		.byte	0x50
 9023 1194 01       		.uleb128 0x1
 9024 1195 40       		.byte	0x40
 9025 1196 0B       		.uleb128 0xb
 9026 1197 01       		.uleb128 0x1
 9027 1198 51       		.byte	0x51
 9028 1199 05       		.uleb128 0x5
 9029 119a 0C       		.byte	0xc
 9030 119b 01010700 		.4byte	0x70101
 9031 119f 0B       		.uleb128 0xb
 9032 11a0 01       		.uleb128 0x1
 9033 11a1 52       		.byte	0x52
 9034 11a2 02       		.uleb128 0x2
 9035 11a3 74       		.byte	0x74
 9036 11a4 00       		.sleb128 0
 9037 11a5 00       		.byte	0
 9038 11a6 0A       		.uleb128 0xa
 9039 11a7 AE000000 		.4byte	.LVL225
 9040 11ab 4D0E0000 		.4byte	0xe4d
 9041 11af C5110000 		.4byte	0x11c5
 9042 11b3 0B       		.uleb128 0xb
 9043 11b4 01       		.uleb128 0x1
 9044 11b5 50       		.byte	0x50
 9045 11b6 01       		.uleb128 0x1
 9046 11b7 3B       		.byte	0x3b
 9047 11b8 0B       		.uleb128 0xb
 9048 11b9 01       		.uleb128 0x1
 9049 11ba 51       		.byte	0x51
 9050 11bb 02       		.uleb128 0x2
 9051 11bc 08       		.byte	0x8
 9052 11bd D2       		.byte	0xd2
 9053 11be 0B       		.uleb128 0xb
 9054 11bf 01       		.uleb128 0x1
 9055 11c0 52       		.byte	0x52
 9056 11c1 02       		.uleb128 0x2
ARM GAS  C:\Users\Revanth\AppData\Local\Temp\ccHsQCvB.s 			page 219


 9057 11c2 74       		.byte	0x74
 9058 11c3 00       		.sleb128 0
 9059 11c4 00       		.byte	0
 9060 11c5 0A       		.uleb128 0xa
 9061 11c6 B8000000 		.4byte	.LVL226
 9062 11ca 4D0E0000 		.4byte	0xe4d
 9063 11ce E7110000 		.4byte	0x11e7
 9064 11d2 0B       		.uleb128 0xb
 9065 11d3 01       		.uleb128 0x1
 9066 11d4 50       		.byte	0x50
 9067 11d5 01       		.uleb128 0x1
 9068 11d6 40       		.byte	0x40
 9069 11d7 0B       		.uleb128 0xb
 9070 11d8 01       		.uleb128 0x1
 9071 11d9 51       		.byte	0x51
 9072 11da 05       		.uleb128 0x5
 9073 11db 0C       		.byte	0xc
 9074 11dc 00010700 		.4byte	0x70100
 9075 11e0 0B       		.uleb128 0xb
 9076 11e1 01       		.uleb128 0x1
 9077 11e2 52       		.byte	0x52
 9078 11e3 02       		.uleb128 0x2
 9079 11e4 74       		.byte	0x74
 9080 11e5 00       		.sleb128 0
 9081 11e6 00       		.byte	0
 9082 11e7 0A       		.uleb128 0xa
 9083 11e8 C4000000 		.4byte	.LVL227
 9084 11ec 4D0E0000 		.4byte	0xe4d
 9085 11f0 05120000 		.4byte	0x1205
 9086 11f4 0B       		.uleb128 0xb
 9087 11f5 01       		.uleb128 0x1
 9088 11f6 50       		.byte	0x50
 9089 11f7 01       		.uleb128 0x1
 9090 11f8 3B       		.byte	0x3b
 9091 11f9 0B       		.uleb128 0xb
 9092 11fa 01       		.uleb128 0x1
 9093 11fb 51       		.byte	0x51
 9094 11fc 01       		.uleb128 0x1
 9095 11fd 30       		.byte	0x30
 9096 11fe 0B       		.uleb128 0xb
 9097 11ff 01       		.uleb128 0x1
 9098 1200 52       		.byte	0x52
 9099 1201 02       		.uleb128 0x2
 9100 1202 74       		.byte	0x74
 9101 1203 00       		.sleb128 0
 9102 1204 00       		.byte	0
 9103 1205 0A       		.uleb128 0xa
 9104 1206 CE000000 		.4byte	.LVL228
 9105 120a 4D0E0000 		.4byte	0xe4d
 9106 120e 27120000 		.4byte	0x1227
 9107 1212 0B       		.uleb128 0xb
 9108 1213 01       		.uleb128 0x1
 9109 1214 50       		.byte	0x50
 9110 1215 01       		.uleb128 0x1
 9111 1216 40       		.byte	0x40
 9112 1217 0B       		.uleb128 0xb
 9113 1218 01       		.uleb128 0x1
ARM GAS  C:\Users\Revanth\AppData\Local\Temp\ccHsQCvB.s 			page 220


 9114 1219 51       		.byte	0x51
 9115 121a 05       		.uleb128 0x5
 9116 121b 0C       		.byte	0xc
 9117 121c 01050700 		.4byte	0x70501
 9118 1220 0B       		.uleb128 0xb
 9119 1221 01       		.uleb128 0x1
 9120 1222 52       		.byte	0x52
 9121 1223 02       		.uleb128 0x2
 9122 1224 74       		.byte	0x74
 9123 1225 00       		.sleb128 0
 9124 1226 00       		.byte	0
 9125 1227 0A       		.uleb128 0xa
 9126 1228 D8000000 		.4byte	.LVL229
 9127 122c 4D0E0000 		.4byte	0xe4d
 9128 1230 45120000 		.4byte	0x1245
 9129 1234 0B       		.uleb128 0xb
 9130 1235 01       		.uleb128 0x1
 9131 1236 50       		.byte	0x50
 9132 1237 01       		.uleb128 0x1
 9133 1238 41       		.byte	0x41
 9134 1239 0B       		.uleb128 0xb
 9135 123a 01       		.uleb128 0x1
 9136 123b 51       		.byte	0x51
 9137 123c 01       		.uleb128 0x1
 9138 123d 3A       		.byte	0x3a
 9139 123e 0B       		.uleb128 0xb
 9140 123f 01       		.uleb128 0x1
 9141 1240 52       		.byte	0x52
 9142 1241 02       		.uleb128 0x2
 9143 1242 74       		.byte	0x74
 9144 1243 00       		.sleb128 0
 9145 1244 00       		.byte	0
 9146 1245 0A       		.uleb128 0xa
 9147 1246 E2000000 		.4byte	.LVL230
 9148 124a 4D0E0000 		.4byte	0xe4d
 9149 124e 63120000 		.4byte	0x1263
 9150 1252 0B       		.uleb128 0xb
 9151 1253 01       		.uleb128 0x1
 9152 1254 50       		.byte	0x50
 9153 1255 01       		.uleb128 0x1
 9154 1256 43       		.byte	0x43
 9155 1257 0B       		.uleb128 0xb
 9156 1258 01       		.uleb128 0x1
 9157 1259 51       		.byte	0x51
 9158 125a 01       		.uleb128 0x1
 9159 125b 30       		.byte	0x30
 9160 125c 0B       		.uleb128 0xb
 9161 125d 01       		.uleb128 0x1
 9162 125e 52       		.byte	0x52
 9163 125f 02       		.uleb128 0x2
 9164 1260 74       		.byte	0x74
 9165 1261 00       		.sleb128 0
 9166 1262 00       		.byte	0
 9167 1263 0A       		.uleb128 0xa
 9168 1264 EC000000 		.4byte	.LVL231
 9169 1268 4D0E0000 		.4byte	0xe4d
 9170 126c 81120000 		.4byte	0x1281
ARM GAS  C:\Users\Revanth\AppData\Local\Temp\ccHsQCvB.s 			page 221


 9171 1270 0B       		.uleb128 0xb
 9172 1271 01       		.uleb128 0x1
 9173 1272 50       		.byte	0x50
 9174 1273 01       		.uleb128 0x1
 9175 1274 44       		.byte	0x44
 9176 1275 0B       		.uleb128 0xb
 9177 1276 01       		.uleb128 0x1
 9178 1277 51       		.byte	0x51
 9179 1278 01       		.uleb128 0x1
 9180 1279 30       		.byte	0x30
 9181 127a 0B       		.uleb128 0xb
 9182 127b 01       		.uleb128 0x1
 9183 127c 52       		.byte	0x52
 9184 127d 02       		.uleb128 0x2
 9185 127e 74       		.byte	0x74
 9186 127f 00       		.sleb128 0
 9187 1280 00       		.byte	0
 9188 1281 0A       		.uleb128 0xa
 9189 1282 F6000000 		.4byte	.LVL232
 9190 1286 4D0E0000 		.4byte	0xe4d
 9191 128a 9F120000 		.4byte	0x129f
 9192 128e 0B       		.uleb128 0xb
 9193 128f 01       		.uleb128 0x1
 9194 1290 50       		.byte	0x50
 9195 1291 01       		.uleb128 0x1
 9196 1292 45       		.byte	0x45
 9197 1293 0B       		.uleb128 0xb
 9198 1294 01       		.uleb128 0x1
 9199 1295 51       		.byte	0x51
 9200 1296 01       		.uleb128 0x1
 9201 1297 30       		.byte	0x30
 9202 1298 0B       		.uleb128 0xb
 9203 1299 01       		.uleb128 0x1
 9204 129a 52       		.byte	0x52
 9205 129b 02       		.uleb128 0x2
 9206 129c 74       		.byte	0x74
 9207 129d 00       		.sleb128 0
 9208 129e 00       		.byte	0
 9209 129f 0A       		.uleb128 0xa
 9210 12a0 00010000 		.4byte	.LVL233
 9211 12a4 4D0E0000 		.4byte	0xe4d
 9212 12a8 BE120000 		.4byte	0x12be
 9213 12ac 0B       		.uleb128 0xb
 9214 12ad 01       		.uleb128 0x1
 9215 12ae 50       		.byte	0x50
 9216 12af 02       		.uleb128 0x2
 9217 12b0 08       		.byte	0x8
 9218 12b1 21       		.byte	0x21
 9219 12b2 0B       		.uleb128 0xb
 9220 12b3 01       		.uleb128 0x1
 9221 12b4 51       		.byte	0x51
 9222 12b5 01       		.uleb128 0x1
 9223 12b6 30       		.byte	0x30
 9224 12b7 0B       		.uleb128 0xb
 9225 12b8 01       		.uleb128 0x1
 9226 12b9 52       		.byte	0x52
 9227 12ba 02       		.uleb128 0x2
ARM GAS  C:\Users\Revanth\AppData\Local\Temp\ccHsQCvB.s 			page 222


 9228 12bb 74       		.byte	0x74
 9229 12bc 00       		.sleb128 0
 9230 12bd 00       		.byte	0
 9231 12be 0A       		.uleb128 0xa
 9232 12bf 0A010000 		.4byte	.LVL234
 9233 12c3 4D0E0000 		.4byte	0xe4d
 9234 12c7 DD120000 		.4byte	0x12dd
 9235 12cb 0B       		.uleb128 0xb
 9236 12cc 01       		.uleb128 0x1
 9237 12cd 50       		.byte	0x50
 9238 12ce 02       		.uleb128 0x2
 9239 12cf 08       		.byte	0x8
 9240 12d0 23       		.byte	0x23
 9241 12d1 0B       		.uleb128 0xb
 9242 12d2 01       		.uleb128 0x1
 9243 12d3 51       		.byte	0x51
 9244 12d4 01       		.uleb128 0x1
 9245 12d5 30       		.byte	0x30
 9246 12d6 0B       		.uleb128 0xb
 9247 12d7 01       		.uleb128 0x1
 9248 12d8 52       		.byte	0x52
 9249 12d9 02       		.uleb128 0x2
 9250 12da 74       		.byte	0x74
 9251 12db 00       		.sleb128 0
 9252 12dc 00       		.byte	0
 9253 12dd 0A       		.uleb128 0xa
 9254 12de 14010000 		.4byte	.LVL235
 9255 12e2 4D0E0000 		.4byte	0xe4d
 9256 12e6 FC120000 		.4byte	0x12fc
 9257 12ea 0B       		.uleb128 0xb
 9258 12eb 01       		.uleb128 0x1
 9259 12ec 50       		.byte	0x50
 9260 12ed 02       		.uleb128 0x2
 9261 12ee 08       		.byte	0x8
 9262 12ef 2C       		.byte	0x2c
 9263 12f0 0B       		.uleb128 0xb
 9264 12f1 01       		.uleb128 0x1
 9265 12f2 51       		.byte	0x51
 9266 12f3 01       		.uleb128 0x1
 9267 12f4 30       		.byte	0x30
 9268 12f5 0B       		.uleb128 0xb
 9269 12f6 01       		.uleb128 0x1
 9270 12f7 52       		.byte	0x52
 9271 12f8 02       		.uleb128 0x2
 9272 12f9 74       		.byte	0x74
 9273 12fa 00       		.sleb128 0
 9274 12fb 00       		.byte	0
 9275 12fc 0A       		.uleb128 0xa
 9276 12fd 1E010000 		.4byte	.LVL236
 9277 1301 4D0E0000 		.4byte	0xe4d
 9278 1305 1B130000 		.4byte	0x131b
 9279 1309 0B       		.uleb128 0xb
 9280 130a 01       		.uleb128 0x1
 9281 130b 50       		.byte	0x50
 9282 130c 02       		.uleb128 0x2
 9283 130d 08       		.byte	0x8
 9284 130e 33       		.byte	0x33
ARM GAS  C:\Users\Revanth\AppData\Local\Temp\ccHsQCvB.s 			page 223


 9285 130f 0B       		.uleb128 0xb
 9286 1310 01       		.uleb128 0x1
 9287 1311 51       		.byte	0x51
 9288 1312 01       		.uleb128 0x1
 9289 1313 30       		.byte	0x30
 9290 1314 0B       		.uleb128 0xb
 9291 1315 01       		.uleb128 0x1
 9292 1316 52       		.byte	0x52
 9293 1317 02       		.uleb128 0x2
 9294 1318 74       		.byte	0x74
 9295 1319 00       		.sleb128 0
 9296 131a 00       		.byte	0
 9297 131b 0A       		.uleb128 0xa
 9298 131c 2A010000 		.4byte	.LVL237
 9299 1320 4D0E0000 		.4byte	0xe4d
 9300 1324 3C130000 		.4byte	0x133c
 9301 1328 0B       		.uleb128 0xb
 9302 1329 01       		.uleb128 0x1
 9303 132a 50       		.byte	0x50
 9304 132b 02       		.uleb128 0x2
 9305 132c 08       		.byte	0x8
 9306 132d 34       		.byte	0x34
 9307 132e 0B       		.uleb128 0xb
 9308 132f 01       		.uleb128 0x1
 9309 1330 51       		.byte	0x51
 9310 1331 03       		.uleb128 0x3
 9311 1332 0A       		.byte	0xa
 9312 1333 AF02     		.2byte	0x2af
 9313 1335 0B       		.uleb128 0xb
 9314 1336 01       		.uleb128 0x1
 9315 1337 52       		.byte	0x52
 9316 1338 02       		.uleb128 0x2
 9317 1339 74       		.byte	0x74
 9318 133a 00       		.sleb128 0
 9319 133b 00       		.byte	0
 9320 133c 0A       		.uleb128 0xa
 9321 133d 34010000 		.4byte	.LVL238
 9322 1341 4D0E0000 		.4byte	0xe4d
 9323 1345 5B130000 		.4byte	0x135b
 9324 1349 0B       		.uleb128 0xb
 9325 134a 01       		.uleb128 0x1
 9326 134b 50       		.byte	0x50
 9327 134c 02       		.uleb128 0x2
 9328 134d 08       		.byte	0x8
 9329 134e 38       		.byte	0x38
 9330 134f 0B       		.uleb128 0xb
 9331 1350 01       		.uleb128 0x1
 9332 1351 51       		.byte	0x51
 9333 1352 01       		.uleb128 0x1
 9334 1353 30       		.byte	0x30
 9335 1354 0B       		.uleb128 0xb
 9336 1355 01       		.uleb128 0x1
 9337 1356 52       		.byte	0x52
 9338 1357 02       		.uleb128 0x2
 9339 1358 74       		.byte	0x74
 9340 1359 00       		.sleb128 0
 9341 135a 00       		.byte	0
ARM GAS  C:\Users\Revanth\AppData\Local\Temp\ccHsQCvB.s 			page 224


 9342 135b 0A       		.uleb128 0xa
 9343 135c 3E010000 		.4byte	.LVL239
 9344 1360 4D0E0000 		.4byte	0xe4d
 9345 1364 7A130000 		.4byte	0x137a
 9346 1368 0B       		.uleb128 0xb
 9347 1369 01       		.uleb128 0x1
 9348 136a 50       		.byte	0x50
 9349 136b 02       		.uleb128 0x2
 9350 136c 08       		.byte	0x8
 9351 136d 39       		.byte	0x39
 9352 136e 0B       		.uleb128 0xb
 9353 136f 01       		.uleb128 0x1
 9354 1370 51       		.byte	0x51
 9355 1371 01       		.uleb128 0x1
 9356 1372 30       		.byte	0x30
 9357 1373 0B       		.uleb128 0xb
 9358 1374 01       		.uleb128 0x1
 9359 1375 52       		.byte	0x52
 9360 1376 02       		.uleb128 0x2
 9361 1377 74       		.byte	0x74
 9362 1378 00       		.sleb128 0
 9363 1379 00       		.byte	0
 9364 137a 0A       		.uleb128 0xa
 9365 137b 4A010000 		.4byte	.LVL240
 9366 137f 4D0E0000 		.4byte	0xe4d
 9367 1383 9B130000 		.4byte	0x139b
 9368 1387 0B       		.uleb128 0xb
 9369 1388 01       		.uleb128 0x1
 9370 1389 50       		.byte	0x50
 9371 138a 02       		.uleb128 0x2
 9372 138b 08       		.byte	0x8
 9373 138c 3A       		.byte	0x3a
 9374 138d 0B       		.uleb128 0xb
 9375 138e 01       		.uleb128 0x1
 9376 138f 51       		.byte	0x51
 9377 1390 03       		.uleb128 0x3
 9378 1391 40       		.byte	0x40
 9379 1392 3C       		.byte	0x3c
 9380 1393 24       		.byte	0x24
 9381 1394 0B       		.uleb128 0xb
 9382 1395 01       		.uleb128 0x1
 9383 1396 52       		.byte	0x52
 9384 1397 02       		.uleb128 0x2
 9385 1398 74       		.byte	0x74
 9386 1399 00       		.sleb128 0
 9387 139a 00       		.byte	0
 9388 139b 0A       		.uleb128 0xa
 9389 139c 54010000 		.4byte	.LVL241
 9390 13a0 4D0E0000 		.4byte	0xe4d
 9391 13a4 BA130000 		.4byte	0x13ba
 9392 13a8 0B       		.uleb128 0xb
 9393 13a9 01       		.uleb128 0x1
 9394 13aa 50       		.byte	0x50
 9395 13ab 02       		.uleb128 0x2
 9396 13ac 08       		.byte	0x8
 9397 13ad 3D       		.byte	0x3d
 9398 13ae 0B       		.uleb128 0xb
ARM GAS  C:\Users\Revanth\AppData\Local\Temp\ccHsQCvB.s 			page 225


 9399 13af 01       		.uleb128 0x1
 9400 13b0 51       		.byte	0x51
 9401 13b1 01       		.uleb128 0x1
 9402 13b2 30       		.byte	0x30
 9403 13b3 0B       		.uleb128 0xb
 9404 13b4 01       		.uleb128 0x1
 9405 13b5 52       		.byte	0x52
 9406 13b6 02       		.uleb128 0x2
 9407 13b7 74       		.byte	0x74
 9408 13b8 00       		.sleb128 0
 9409 13b9 00       		.byte	0
 9410 13ba 0A       		.uleb128 0xa
 9411 13bb 5E010000 		.4byte	.LVL242
 9412 13bf 4D0E0000 		.4byte	0xe4d
 9413 13c3 DE130000 		.4byte	0x13de
 9414 13c7 0B       		.uleb128 0xb
 9415 13c8 01       		.uleb128 0x1
 9416 13c9 50       		.byte	0x50
 9417 13ca 02       		.uleb128 0x2
 9418 13cb 08       		.byte	0x8
 9419 13cc 60       		.byte	0x60
 9420 13cd 0B       		.uleb128 0xb
 9421 13ce 01       		.uleb128 0x1
 9422 13cf 51       		.byte	0x51
 9423 13d0 06       		.uleb128 0x6
 9424 13d1 11       		.byte	0x11
 9425 13d2 D4EAAAD5 		.sleb128 -1431653036
 9425      7A
 9426 13d7 0B       		.uleb128 0xb
 9427 13d8 01       		.uleb128 0x1
 9428 13d9 52       		.byte	0x52
 9429 13da 02       		.uleb128 0x2
 9430 13db 74       		.byte	0x74
 9431 13dc 00       		.sleb128 0
 9432 13dd 00       		.byte	0
 9433 13de 0A       		.uleb128 0xa
 9434 13df 68010000 		.4byte	.LVL243
 9435 13e3 4D0E0000 		.4byte	0xe4d
 9436 13e7 01140000 		.4byte	0x1401
 9437 13eb 0B       		.uleb128 0xb
 9438 13ec 01       		.uleb128 0x1
 9439 13ed 50       		.byte	0x50
 9440 13ee 02       		.uleb128 0x2
 9441 13ef 08       		.byte	0x8
 9442 13f0 61       		.byte	0x61
 9443 13f1 0B       		.uleb128 0xb
 9444 13f2 01       		.uleb128 0x1
 9445 13f3 51       		.byte	0x51
 9446 13f4 05       		.uleb128 0x5
 9447 13f5 0C       		.byte	0xc
 9448 13f6 AA54954A 		.4byte	0x4a9554aa
 9449 13fa 0B       		.uleb128 0xb
 9450 13fb 01       		.uleb128 0x1
 9451 13fc 52       		.byte	0x52
 9452 13fd 02       		.uleb128 0x2
 9453 13fe 74       		.byte	0x74
 9454 13ff 00       		.sleb128 0
ARM GAS  C:\Users\Revanth\AppData\Local\Temp\ccHsQCvB.s 			page 226


 9455 1400 00       		.byte	0
 9456 1401 0A       		.uleb128 0xa
 9457 1402 72010000 		.4byte	.LVL244
 9458 1406 4D0E0000 		.4byte	0xe4d
 9459 140a 24140000 		.4byte	0x1424
 9460 140e 0B       		.uleb128 0xb
 9461 140f 01       		.uleb128 0x1
 9462 1410 50       		.byte	0x50
 9463 1411 02       		.uleb128 0x2
 9464 1412 08       		.byte	0x8
 9465 1413 62       		.byte	0x62
 9466 1414 0B       		.uleb128 0xb
 9467 1415 01       		.uleb128 0x1
 9468 1416 51       		.byte	0x51
 9469 1417 05       		.uleb128 0x5
 9470 1418 0C       		.byte	0xc
 9471 1419 29294924 		.4byte	0x24492929
 9472 141d 0B       		.uleb128 0xb
 9473 141e 01       		.uleb128 0x1
 9474 141f 52       		.byte	0x52
 9475 1420 02       		.uleb128 0x2
 9476 1421 74       		.byte	0x74
 9477 1422 00       		.sleb128 0
 9478 1423 00       		.byte	0
 9479 1424 0A       		.uleb128 0xa
 9480 1425 7C010000 		.4byte	.LVL245
 9481 1429 4D0E0000 		.4byte	0xe4d
 9482 142d 43140000 		.4byte	0x1443
 9483 1431 0B       		.uleb128 0xb
 9484 1432 01       		.uleb128 0x1
 9485 1433 50       		.byte	0x50
 9486 1434 02       		.uleb128 0x2
 9487 1435 08       		.byte	0x8
 9488 1436 63       		.byte	0x63
 9489 1437 0B       		.uleb128 0xb
 9490 1438 01       		.uleb128 0x1
 9491 1439 51       		.byte	0x51
 9492 143a 01       		.uleb128 0x1
 9493 143b 38       		.byte	0x38
 9494 143c 0B       		.uleb128 0xb
 9495 143d 01       		.uleb128 0x1
 9496 143e 52       		.byte	0x52
 9497 143f 02       		.uleb128 0x2
 9498 1440 74       		.byte	0x74
 9499 1441 00       		.sleb128 0
 9500 1442 00       		.byte	0
 9501 1443 0A       		.uleb128 0xa
 9502 1444 88010000 		.4byte	.LVL246
 9503 1448 4D0E0000 		.4byte	0xe4d
 9504 144c 66140000 		.4byte	0x1466
 9505 1450 0B       		.uleb128 0xb
 9506 1451 01       		.uleb128 0x1
 9507 1452 50       		.byte	0x50
 9508 1453 02       		.uleb128 0x2
 9509 1454 08       		.byte	0x8
 9510 1455 64       		.byte	0x64
 9511 1456 0B       		.uleb128 0xb
ARM GAS  C:\Users\Revanth\AppData\Local\Temp\ccHsQCvB.s 			page 227


 9512 1457 01       		.uleb128 0x1
 9513 1458 51       		.byte	0x51
 9514 1459 05       		.uleb128 0x5
 9515 145a 11       		.byte	0x11
 9516 145b FFFFFF5F 		.sleb128 -67108865
 9517 145f 0B       		.uleb128 0xb
 9518 1460 01       		.uleb128 0x1
 9519 1461 52       		.byte	0x52
 9520 1462 02       		.uleb128 0x2
 9521 1463 74       		.byte	0x74
 9522 1464 00       		.sleb128 0
 9523 1465 00       		.byte	0
 9524 1466 0A       		.uleb128 0xa
 9525 1467 92010000 		.4byte	.LVL247
 9526 146b 4D0E0000 		.4byte	0xe4d
 9527 146f 8A140000 		.4byte	0x148a
 9528 1473 0B       		.uleb128 0xb
 9529 1474 01       		.uleb128 0x1
 9530 1475 50       		.byte	0x50
 9531 1476 02       		.uleb128 0x2
 9532 1477 08       		.byte	0x8
 9533 1478 65       		.byte	0x65
 9534 1479 0B       		.uleb128 0xb
 9535 147a 01       		.uleb128 0x1
 9536 147b 51       		.byte	0x51
 9537 147c 06       		.uleb128 0x6
 9538 147d 11       		.byte	0x11
 9539 147e FDEEEDAD 		.sleb128 -1246005379
 9539      7B
 9540 1483 0B       		.uleb128 0xb
 9541 1484 01       		.uleb128 0x1
 9542 1485 52       		.byte	0x52
 9543 1486 02       		.uleb128 0x2
 9544 1487 74       		.byte	0x74
 9545 1488 00       		.sleb128 0
 9546 1489 00       		.byte	0
 9547 148a 0A       		.uleb128 0xa
 9548 148b 9C010000 		.4byte	.LVL248
 9549 148f 4D0E0000 		.4byte	0xe4d
 9550 1493 AD140000 		.4byte	0x14ad
 9551 1497 0B       		.uleb128 0xb
 9552 1498 01       		.uleb128 0x1
 9553 1499 50       		.byte	0x50
 9554 149a 02       		.uleb128 0x2
 9555 149b 08       		.byte	0x8
 9556 149c 66       		.byte	0x66
 9557 149d 0B       		.uleb128 0xb
 9558 149e 01       		.uleb128 0x1
 9559 149f 51       		.byte	0x51
 9560 14a0 05       		.uleb128 0x5
 9561 14a1 0C       		.byte	0xc
 9562 14a2 56552949 		.4byte	0x49295556
 9563 14a6 0B       		.uleb128 0xb
 9564 14a7 01       		.uleb128 0x1
 9565 14a8 52       		.byte	0x52
 9566 14a9 02       		.uleb128 0x2
 9567 14aa 74       		.byte	0x74
ARM GAS  C:\Users\Revanth\AppData\Local\Temp\ccHsQCvB.s 			page 228


 9568 14ab 00       		.sleb128 0
 9569 14ac 00       		.byte	0
 9570 14ad 0A       		.uleb128 0xa
 9571 14ae A6010000 		.4byte	.LVL249
 9572 14b2 4D0E0000 		.4byte	0xe4d
 9573 14b6 D0140000 		.4byte	0x14d0
 9574 14ba 0B       		.uleb128 0xb
 9575 14bb 01       		.uleb128 0x1
 9576 14bc 50       		.byte	0x50
 9577 14bd 02       		.uleb128 0x2
 9578 14be 08       		.byte	0x8
 9579 14bf 67       		.byte	0x67
 9580 14c0 0B       		.uleb128 0xb
 9581 14c1 01       		.uleb128 0x1
 9582 14c2 51       		.byte	0x51
 9583 14c3 05       		.uleb128 0x5
 9584 14c4 0C       		.byte	0xc
 9585 14c5 22424000 		.4byte	0x404222
 9586 14c9 0B       		.uleb128 0xb
 9587 14ca 01       		.uleb128 0x1
 9588 14cb 52       		.byte	0x52
 9589 14cc 02       		.uleb128 0x2
 9590 14cd 74       		.byte	0x74
 9591 14ce 00       		.sleb128 0
 9592 14cf 00       		.byte	0
 9593 14d0 0A       		.uleb128 0xa
 9594 14d1 B0010000 		.4byte	.LVL250
 9595 14d5 4D0E0000 		.4byte	0xe4d
 9596 14d9 F1140000 		.4byte	0x14f1
 9597 14dd 0B       		.uleb128 0xb
 9598 14de 01       		.uleb128 0x1
 9599 14df 50       		.byte	0x50
 9600 14e0 02       		.uleb128 0x2
 9601 14e1 08       		.byte	0x8
 9602 14e2 68       		.byte	0x68
 9603 14e3 0B       		.uleb128 0xb
 9604 14e4 01       		.uleb128 0x1
 9605 14e5 51       		.byte	0x51
 9606 14e6 03       		.uleb128 0x3
 9607 14e7 0B       		.byte	0xb
 9608 14e8 5680     		.2byte	0x8056
 9609 14ea 0B       		.uleb128 0xb
 9610 14eb 01       		.uleb128 0x1
 9611 14ec 52       		.byte	0x52
 9612 14ed 02       		.uleb128 0x2
 9613 14ee 74       		.byte	0x74
 9614 14ef 00       		.sleb128 0
 9615 14f0 00       		.byte	0
 9616 14f1 0A       		.uleb128 0xa
 9617 14f2 BC010000 		.4byte	.LVL251
 9618 14f6 4D0E0000 		.4byte	0xe4d
 9619 14fa 13150000 		.4byte	0x1513
 9620 14fe 0B       		.uleb128 0xb
 9621 14ff 01       		.uleb128 0x1
 9622 1500 50       		.byte	0x50
 9623 1501 02       		.uleb128 0x2
 9624 1502 08       		.byte	0x8
ARM GAS  C:\Users\Revanth\AppData\Local\Temp\ccHsQCvB.s 			page 229


 9625 1503 69       		.byte	0x69
 9626 1504 0B       		.uleb128 0xb
 9627 1505 01       		.uleb128 0x1
 9628 1506 51       		.byte	0x51
 9629 1507 04       		.uleb128 0x4
 9630 1508 08       		.byte	0x8
 9631 1509 F7       		.byte	0xf7
 9632 150a 40       		.byte	0x40
 9633 150b 24       		.byte	0x24
 9634 150c 0B       		.uleb128 0xb
 9635 150d 01       		.uleb128 0x1
 9636 150e 52       		.byte	0x52
 9637 150f 02       		.uleb128 0x2
 9638 1510 74       		.byte	0x74
 9639 1511 00       		.sleb128 0
 9640 1512 00       		.byte	0
 9641 1513 0A       		.uleb128 0xa
 9642 1514 C6010000 		.4byte	.LVL252
 9643 1518 4D0E0000 		.4byte	0xe4d
 9644 151c 36150000 		.4byte	0x1536
 9645 1520 0B       		.uleb128 0xb
 9646 1521 01       		.uleb128 0x1
 9647 1522 50       		.byte	0x50
 9648 1523 02       		.uleb128 0x2
 9649 1524 08       		.byte	0x8
 9650 1525 6C       		.byte	0x6c
 9651 1526 0B       		.uleb128 0xb
 9652 1527 01       		.uleb128 0x1
 9653 1528 51       		.byte	0x51
 9654 1529 05       		.uleb128 0x5
 9655 152a 0C       		.byte	0xc
 9656 152b 53014100 		.4byte	0x410153
 9657 152f 0B       		.uleb128 0xb
 9658 1530 01       		.uleb128 0x1
 9659 1531 52       		.byte	0x52
 9660 1532 02       		.uleb128 0x2
 9661 1533 74       		.byte	0x74
 9662 1534 00       		.sleb128 0
 9663 1535 00       		.byte	0
 9664 1536 0A       		.uleb128 0xa
 9665 1537 D0010000 		.4byte	.LVL253
 9666 153b 4D0E0000 		.4byte	0xe4d
 9667 153f 55150000 		.4byte	0x1555
 9668 1543 0B       		.uleb128 0xb
 9669 1544 01       		.uleb128 0x1
 9670 1545 50       		.byte	0x50
 9671 1546 02       		.uleb128 0x2
 9672 1547 08       		.byte	0x8
 9673 1548 6D       		.byte	0x6d
 9674 1549 0B       		.uleb128 0xb
 9675 154a 01       		.uleb128 0x1
 9676 154b 51       		.byte	0x51
 9677 154c 01       		.uleb128 0x1
 9678 154d 30       		.byte	0x30
 9679 154e 0B       		.uleb128 0xb
 9680 154f 01       		.uleb128 0x1
 9681 1550 52       		.byte	0x52
ARM GAS  C:\Users\Revanth\AppData\Local\Temp\ccHsQCvB.s 			page 230


 9682 1551 02       		.uleb128 0x2
 9683 1552 74       		.byte	0x74
 9684 1553 00       		.sleb128 0
 9685 1554 00       		.byte	0
 9686 1555 0A       		.uleb128 0xa
 9687 1556 DA010000 		.4byte	.LVL254
 9688 155a 4D0E0000 		.4byte	0xe4d
 9689 155e 74150000 		.4byte	0x1574
 9690 1562 0B       		.uleb128 0xb
 9691 1563 01       		.uleb128 0x1
 9692 1564 50       		.byte	0x50
 9693 1565 02       		.uleb128 0x2
 9694 1566 08       		.byte	0x8
 9695 1567 6E       		.byte	0x6e
 9696 1568 0B       		.uleb128 0xb
 9697 1569 01       		.uleb128 0x1
 9698 156a 51       		.byte	0x51
 9699 156b 01       		.uleb128 0x1
 9700 156c 30       		.byte	0x30
 9701 156d 0B       		.uleb128 0xb
 9702 156e 01       		.uleb128 0x1
 9703 156f 52       		.byte	0x52
 9704 1570 02       		.uleb128 0x2
 9705 1571 74       		.byte	0x74
 9706 1572 00       		.sleb128 0
 9707 1573 00       		.byte	0
 9708 1574 0A       		.uleb128 0xa
 9709 1575 E4010000 		.4byte	.LVL255
 9710 1579 4D0E0000 		.4byte	0xe4d
 9711 157d 98150000 		.4byte	0x1598
 9712 1581 0B       		.uleb128 0xb
 9713 1582 01       		.uleb128 0x1
 9714 1583 50       		.byte	0x50
 9715 1584 02       		.uleb128 0x2
 9716 1585 08       		.byte	0x8
 9717 1586 70       		.byte	0x70
 9718 1587 0B       		.uleb128 0xb
 9719 1588 01       		.uleb128 0x1
 9720 1589 51       		.byte	0x51
 9721 158a 06       		.uleb128 0x6
 9722 158b 11       		.byte	0x11
 9723 158c 9E80B0A0 		.sleb128 -1005846498
 9723      7C
 9724 1591 0B       		.uleb128 0xb
 9725 1592 01       		.uleb128 0x1
 9726 1593 52       		.byte	0x52
 9727 1594 02       		.uleb128 0x2
 9728 1595 74       		.byte	0x74
 9729 1596 00       		.sleb128 0
 9730 1597 00       		.byte	0
 9731 1598 0A       		.uleb128 0xa
 9732 1599 EE010000 		.4byte	.LVL256
 9733 159d 4D0E0000 		.4byte	0xe4d
 9734 15a1 B7150000 		.4byte	0x15b7
 9735 15a5 0B       		.uleb128 0xb
 9736 15a6 01       		.uleb128 0x1
 9737 15a7 50       		.byte	0x50
ARM GAS  C:\Users\Revanth\AppData\Local\Temp\ccHsQCvB.s 			page 231


 9738 15a8 02       		.uleb128 0x2
 9739 15a9 08       		.byte	0x8
 9740 15aa 21       		.byte	0x21
 9741 15ab 0B       		.uleb128 0xb
 9742 15ac 01       		.uleb128 0x1
 9743 15ad 51       		.byte	0x51
 9744 15ae 01       		.uleb128 0x1
 9745 15af 30       		.byte	0x30
 9746 15b0 0B       		.uleb128 0xb
 9747 15b1 01       		.uleb128 0x1
 9748 15b2 52       		.byte	0x52
 9749 15b3 02       		.uleb128 0x2
 9750 15b4 74       		.byte	0x74
 9751 15b5 00       		.sleb128 0
 9752 15b6 00       		.byte	0
 9753 15b7 0A       		.uleb128 0xa
 9754 15b8 FA010000 		.4byte	.LVL257
 9755 15bc 4D0E0000 		.4byte	0xe4d
 9756 15c0 D8150000 		.4byte	0x15d8
 9757 15c4 0B       		.uleb128 0xb
 9758 15c5 01       		.uleb128 0x1
 9759 15c6 50       		.byte	0x50
 9760 15c7 02       		.uleb128 0x2
 9761 15c8 08       		.byte	0x8
 9762 15c9 24       		.byte	0x24
 9763 15ca 0B       		.uleb128 0xb
 9764 15cb 01       		.uleb128 0x1
 9765 15cc 51       		.byte	0x51
 9766 15cd 03       		.uleb128 0x3
 9767 15ce 0A       		.byte	0xa
 9768 15cf FFFF     		.2byte	0xffff
 9769 15d1 0B       		.uleb128 0xb
 9770 15d2 01       		.uleb128 0x1
 9771 15d3 52       		.byte	0x52
 9772 15d4 02       		.uleb128 0x2
 9773 15d5 74       		.byte	0x74
 9774 15d6 00       		.sleb128 0
 9775 15d7 00       		.byte	0
 9776 15d8 0A       		.uleb128 0xa
 9777 15d9 06020000 		.4byte	.LVL258
 9778 15dd 4D0E0000 		.4byte	0xe4d
 9779 15e1 F9150000 		.4byte	0x15f9
 9780 15e5 0B       		.uleb128 0xb
 9781 15e6 01       		.uleb128 0x1
 9782 15e7 50       		.byte	0x50
 9783 15e8 02       		.uleb128 0x2
 9784 15e9 08       		.byte	0x8
 9785 15ea 25       		.byte	0x25
 9786 15eb 0B       		.uleb128 0xb
 9787 15ec 01       		.uleb128 0x1
 9788 15ed 51       		.byte	0x51
 9789 15ee 03       		.uleb128 0x3
 9790 15ef 0A       		.byte	0xa
 9791 15f0 FFFF     		.2byte	0xffff
 9792 15f2 0B       		.uleb128 0xb
 9793 15f3 01       		.uleb128 0x1
 9794 15f4 52       		.byte	0x52
ARM GAS  C:\Users\Revanth\AppData\Local\Temp\ccHsQCvB.s 			page 232


 9795 15f5 02       		.uleb128 0x2
 9796 15f6 74       		.byte	0x74
 9797 15f7 00       		.sleb128 0
 9798 15f8 00       		.byte	0
 9799 15f9 0A       		.uleb128 0xa
 9800 15fa 12020000 		.4byte	.LVL259
 9801 15fe 4D0E0000 		.4byte	0xe4d
 9802 1602 1A160000 		.4byte	0x161a
 9803 1606 0B       		.uleb128 0xb
 9804 1607 01       		.uleb128 0x1
 9805 1608 50       		.byte	0x50
 9806 1609 02       		.uleb128 0x2
 9807 160a 08       		.byte	0x8
 9808 160b 26       		.byte	0x26
 9809 160c 0B       		.uleb128 0xb
 9810 160d 01       		.uleb128 0x1
 9811 160e 51       		.byte	0x51
 9812 160f 03       		.uleb128 0x3
 9813 1610 0A       		.byte	0xa
 9814 1611 FFFF     		.2byte	0xffff
 9815 1613 0B       		.uleb128 0xb
 9816 1614 01       		.uleb128 0x1
 9817 1615 52       		.byte	0x52
 9818 1616 02       		.uleb128 0x2
 9819 1617 74       		.byte	0x74
 9820 1618 00       		.sleb128 0
 9821 1619 00       		.byte	0
 9822 161a 0A       		.uleb128 0xa
 9823 161b 1C020000 		.4byte	.LVL260
 9824 161f 4D0E0000 		.4byte	0xe4d
 9825 1623 39160000 		.4byte	0x1639
 9826 1627 0B       		.uleb128 0xb
 9827 1628 01       		.uleb128 0x1
 9828 1629 50       		.byte	0x50
 9829 162a 02       		.uleb128 0x2
 9830 162b 08       		.byte	0x8
 9831 162c 27       		.byte	0x27
 9832 162d 0B       		.uleb128 0xb
 9833 162e 01       		.uleb128 0x1
 9834 162f 51       		.byte	0x51
 9835 1630 01       		.uleb128 0x1
 9836 1631 30       		.byte	0x30
 9837 1632 0B       		.uleb128 0xb
 9838 1633 01       		.uleb128 0x1
 9839 1634 52       		.byte	0x52
 9840 1635 02       		.uleb128 0x2
 9841 1636 74       		.byte	0x74
 9842 1637 00       		.sleb128 0
 9843 1638 00       		.byte	0
 9844 1639 0A       		.uleb128 0xa
 9845 163a 28020000 		.4byte	.LVL261
 9846 163e 4D0E0000 		.4byte	0xe4d
 9847 1642 5A160000 		.4byte	0x165a
 9848 1646 0B       		.uleb128 0xb
 9849 1647 01       		.uleb128 0x1
 9850 1648 50       		.byte	0x50
 9851 1649 02       		.uleb128 0x2
ARM GAS  C:\Users\Revanth\AppData\Local\Temp\ccHsQCvB.s 			page 233


 9852 164a 08       		.byte	0x8
 9853 164b 28       		.byte	0x28
 9854 164c 0B       		.uleb128 0xb
 9855 164d 01       		.uleb128 0x1
 9856 164e 51       		.byte	0x51
 9857 164f 03       		.uleb128 0x3
 9858 1650 0A       		.byte	0xa
 9859 1651 FFFF     		.2byte	0xffff
 9860 1653 0B       		.uleb128 0xb
 9861 1654 01       		.uleb128 0x1
 9862 1655 52       		.byte	0x52
 9863 1656 02       		.uleb128 0x2
 9864 1657 74       		.byte	0x74
 9865 1658 00       		.sleb128 0
 9866 1659 00       		.byte	0
 9867 165a 0A       		.uleb128 0xa
 9868 165b 34020000 		.4byte	.LVL262
 9869 165f 4D0E0000 		.4byte	0xe4d
 9870 1663 7B160000 		.4byte	0x167b
 9871 1667 0B       		.uleb128 0xb
 9872 1668 01       		.uleb128 0x1
 9873 1669 50       		.byte	0x50
 9874 166a 02       		.uleb128 0x2
 9875 166b 08       		.byte	0x8
 9876 166c 2A       		.byte	0x2a
 9877 166d 0B       		.uleb128 0xb
 9878 166e 01       		.uleb128 0x1
 9879 166f 51       		.byte	0x51
 9880 1670 03       		.uleb128 0x3
 9881 1671 0A       		.byte	0xa
 9882 1672 FFFF     		.2byte	0xffff
 9883 1674 0B       		.uleb128 0xb
 9884 1675 01       		.uleb128 0x1
 9885 1676 52       		.byte	0x52
 9886 1677 02       		.uleb128 0x2
 9887 1678 74       		.byte	0x74
 9888 1679 00       		.sleb128 0
 9889 167a 00       		.byte	0
 9890 167b 0A       		.uleb128 0xa
 9891 167c 3E020000 		.4byte	.LVL263
 9892 1680 4D0E0000 		.4byte	0xe4d
 9893 1684 9B160000 		.4byte	0x169b
 9894 1688 0B       		.uleb128 0xb
 9895 1689 01       		.uleb128 0x1
 9896 168a 50       		.byte	0x50
 9897 168b 02       		.uleb128 0x2
 9898 168c 08       		.byte	0x8
 9899 168d 2B       		.byte	0x2b
 9900 168e 0B       		.uleb128 0xb
 9901 168f 01       		.uleb128 0x1
 9902 1690 51       		.byte	0x51
 9903 1691 02       		.uleb128 0x2
 9904 1692 08       		.byte	0x8
 9905 1693 65       		.byte	0x65
 9906 1694 0B       		.uleb128 0xb
 9907 1695 01       		.uleb128 0x1
 9908 1696 52       		.byte	0x52
ARM GAS  C:\Users\Revanth\AppData\Local\Temp\ccHsQCvB.s 			page 234


 9909 1697 02       		.uleb128 0x2
 9910 1698 74       		.byte	0x74
 9911 1699 00       		.sleb128 0
 9912 169a 00       		.byte	0
 9913 169b 0C       		.uleb128 0xc
 9914 169c 48020000 		.4byte	.LVL264
 9915 16a0 4D0E0000 		.4byte	0xe4d
 9916 16a4 0B       		.uleb128 0xb
 9917 16a5 01       		.uleb128 0x1
 9918 16a6 50       		.byte	0x50
 9919 16a7 02       		.uleb128 0x2
 9920 16a8 08       		.byte	0x8
 9921 16a9 20       		.byte	0x20
 9922 16aa 0B       		.uleb128 0xb
 9923 16ab 01       		.uleb128 0x1
 9924 16ac 51       		.byte	0x51
 9925 16ad 01       		.uleb128 0x1
 9926 16ae 30       		.byte	0x30
 9927 16af 0B       		.uleb128 0xb
 9928 16b0 01       		.uleb128 0x1
 9929 16b1 52       		.byte	0x52
 9930 16b2 02       		.uleb128 0x2
 9931 16b3 74       		.byte	0x74
 9932 16b4 00       		.sleb128 0
 9933 16b5 00       		.byte	0
 9934 16b6 00       		.byte	0
 9935 16b7 19       		.uleb128 0x19
 9936 16b8 56070000 		.4byte	.LASF66
 9937 16bc 01       		.byte	0x1
 9938 16bd 9608     		.2byte	0x896
 9939 16bf 6A090000 		.4byte	0x96a
 9940 16c3 00000000 		.4byte	.LFB106
 9941 16c7 3C000000 		.4byte	.LFE106-.LFB106
 9942 16cb 01       		.uleb128 0x1
 9943 16cc 9C       		.byte	0x9c
 9944 16cd 53170000 		.4byte	0x1753
 9945 16d1 0E       		.uleb128 0xe
 9946 16d2 1B060000 		.4byte	.LASF56
 9947 16d6 01       		.byte	0x1
 9948 16d7 9608     		.2byte	0x896
 9949 16d9 97000000 		.4byte	0x97
 9950 16dd 0B040000 		.4byte	.LLST21
 9951 16e1 11       		.uleb128 0x11
 9952 16e2 C40A0000 		.4byte	.LASF67
 9953 16e6 01       		.byte	0x1
 9954 16e7 9808     		.2byte	0x898
 9955 16e9 6A090000 		.4byte	0x96a
 9956 16ed 01       		.uleb128 0x1
 9957 16ee 50       		.byte	0x50
 9958 16ef 0A       		.uleb128 0xa
 9959 16f0 0C000000 		.4byte	.LVL267
 9960 16f4 F53E0000 		.4byte	0x3ef5
 9961 16f8 04170000 		.4byte	0x1704
 9962 16fc 0B       		.uleb128 0xb
 9963 16fd 01       		.uleb128 0x1
 9964 16fe 50       		.byte	0x50
 9965 16ff 03       		.uleb128 0x3
ARM GAS  C:\Users\Revanth\AppData\Local\Temp\ccHsQCvB.s 			page 235


 9966 1700 0A       		.byte	0xa
 9967 1701 F401     		.2byte	0x1f4
 9968 1703 00       		.byte	0
 9969 1704 0A       		.uleb128 0xa
 9970 1705 18000000 		.4byte	.LVL268
 9971 1709 B70B0000 		.4byte	0xbb7
 9972 170d 23170000 		.4byte	0x1723
 9973 1711 0B       		.uleb128 0xb
 9974 1712 01       		.uleb128 0x1
 9975 1713 50       		.byte	0x50
 9976 1714 01       		.uleb128 0x1
 9977 1715 34       		.byte	0x34
 9978 1716 0B       		.uleb128 0xb
 9979 1717 01       		.uleb128 0x1
 9980 1718 51       		.byte	0x51
 9981 1719 02       		.uleb128 0x2
 9982 171a 75       		.byte	0x75
 9983 171b 00       		.sleb128 0
 9984 171c 0B       		.uleb128 0xb
 9985 171d 01       		.uleb128 0x1
 9986 171e 52       		.byte	0x52
 9987 171f 02       		.uleb128 0x2
 9988 1720 74       		.byte	0x74
 9989 1721 00       		.sleb128 0
 9990 1722 00       		.byte	0
 9991 1723 0A       		.uleb128 0xa
 9992 1724 1E000000 		.4byte	.LVL269
 9993 1728 F53E0000 		.4byte	0x3ef5
 9994 172c 37170000 		.4byte	0x1737
 9995 1730 0B       		.uleb128 0xb
 9996 1731 01       		.uleb128 0x1
 9997 1732 50       		.byte	0x50
 9998 1733 02       		.uleb128 0x2
 9999 1734 08       		.byte	0x8
 10000 1735 64       		.byte	0x64
 10001 1736 00       		.byte	0
 10002 1737 0C       		.uleb128 0xc
 10003 1738 28000000 		.4byte	.LVL270
 10004 173c B70B0000 		.4byte	0xbb7
 10005 1740 0B       		.uleb128 0xb
 10006 1741 01       		.uleb128 0x1
 10007 1742 50       		.byte	0x50
 10008 1743 01       		.uleb128 0x1
 10009 1744 34       		.byte	0x34
 10010 1745 0B       		.uleb128 0xb
 10011 1746 01       		.uleb128 0x1
 10012 1747 51       		.byte	0x51
 10013 1748 02       		.uleb128 0x2
 10014 1749 75       		.byte	0x75
 10015 174a 00       		.sleb128 0
 10016 174b 0B       		.uleb128 0xb
 10017 174c 01       		.uleb128 0x1
 10018 174d 52       		.byte	0x52
 10019 174e 02       		.uleb128 0x2
 10020 174f 74       		.byte	0x74
 10021 1750 00       		.sleb128 0
 10022 1751 00       		.byte	0
ARM GAS  C:\Users\Revanth\AppData\Local\Temp\ccHsQCvB.s 			page 236


 10023 1752 00       		.byte	0
 10024 1753 19       		.uleb128 0x19
 10025 1754 F7060000 		.4byte	.LASF68
 10026 1758 01       		.byte	0x1
 10027 1759 AA08     		.2byte	0x8aa
 10028 175b 89000000 		.4byte	0x89
 10029 175f 00000000 		.4byte	.LFB107
 10030 1763 54000000 		.4byte	.LFE107-.LFB107
 10031 1767 01       		.uleb128 0x1
 10032 1768 9C       		.byte	0x9c
 10033 1769 31180000 		.4byte	0x1831
 10034 176d 0E       		.uleb128 0xe
 10035 176e 1B060000 		.4byte	.LASF56
 10036 1772 01       		.byte	0x1
 10037 1773 AA08     		.2byte	0x8aa
 10038 1775 97000000 		.4byte	0x97
 10039 1779 2C040000 		.4byte	.LLST22
 10040 177d 11       		.uleb128 0x11
 10041 177e 8D000000 		.4byte	.LASF69
 10042 1782 01       		.byte	0x1
 10043 1783 AC08     		.2byte	0x8ac
 10044 1785 97000000 		.4byte	0x97
 10045 1789 02       		.uleb128 0x2
 10046 178a 91       		.byte	0x91
 10047 178b 6F       		.sleb128 -17
 10048 178c 1E       		.uleb128 0x1e
 10049 178d C40A0000 		.4byte	.LASF67
 10050 1791 01       		.byte	0x1
 10051 1792 AD08     		.2byte	0x8ad
 10052 1794 89000000 		.4byte	0x89
 10053 1798 00       		.byte	0
 10054 1799 0A       		.uleb128 0xa
 10055 179a 16000000 		.4byte	.LVL275
 10056 179e F53E0000 		.4byte	0x3ef5
 10057 17a2 AE170000 		.4byte	0x17ae
 10058 17a6 0B       		.uleb128 0xb
 10059 17a7 01       		.uleb128 0x1
 10060 17a8 50       		.byte	0x50
 10061 17a9 03       		.uleb128 0x3
 10062 17aa 0A       		.byte	0xa
 10063 17ab F401     		.2byte	0x1f4
 10064 17ad 00       		.byte	0
 10065 17ae 0A       		.uleb128 0xa
 10066 17af 20000000 		.4byte	.LVL276
 10067 17b3 B70B0000 		.4byte	0xbb7
 10068 17b7 CD170000 		.4byte	0x17cd
 10069 17bb 0B       		.uleb128 0xb
 10070 17bc 01       		.uleb128 0x1
 10071 17bd 50       		.byte	0x50
 10072 17be 01       		.uleb128 0x1
 10073 17bf 34       		.byte	0x34
 10074 17c0 0B       		.uleb128 0xb
 10075 17c1 01       		.uleb128 0x1
 10076 17c2 51       		.byte	0x51
 10077 17c3 02       		.uleb128 0x2
 10078 17c4 74       		.byte	0x74
 10079 17c5 00       		.sleb128 0
ARM GAS  C:\Users\Revanth\AppData\Local\Temp\ccHsQCvB.s 			page 237


 10080 17c6 0B       		.uleb128 0xb
 10081 17c7 01       		.uleb128 0x1
 10082 17c8 52       		.byte	0x52
 10083 17c9 02       		.uleb128 0x2
 10084 17ca 75       		.byte	0x75
 10085 17cb 00       		.sleb128 0
 10086 17cc 00       		.byte	0
 10087 17cd 0A       		.uleb128 0xa
 10088 17ce 26000000 		.4byte	.LVL277
 10089 17d2 F53E0000 		.4byte	0x3ef5
 10090 17d6 E1170000 		.4byte	0x17e1
 10091 17da 0B       		.uleb128 0xb
 10092 17db 01       		.uleb128 0x1
 10093 17dc 50       		.byte	0x50
 10094 17dd 02       		.uleb128 0x2
 10095 17de 08       		.byte	0x8
 10096 17df 64       		.byte	0x64
 10097 17e0 00       		.byte	0
 10098 17e1 0A       		.uleb128 0xa
 10099 17e2 30000000 		.4byte	.LVL278
 10100 17e6 B70B0000 		.4byte	0xbb7
 10101 17ea 00180000 		.4byte	0x1800
 10102 17ee 0B       		.uleb128 0xb
 10103 17ef 01       		.uleb128 0x1
 10104 17f0 50       		.byte	0x50
 10105 17f1 01       		.uleb128 0x1
 10106 17f2 34       		.byte	0x34
 10107 17f3 0B       		.uleb128 0xb
 10108 17f4 01       		.uleb128 0x1
 10109 17f5 51       		.byte	0x51
 10110 17f6 02       		.uleb128 0x2
 10111 17f7 74       		.byte	0x74
 10112 17f8 00       		.sleb128 0
 10113 17f9 0B       		.uleb128 0xb
 10114 17fa 01       		.uleb128 0x1
 10115 17fb 52       		.byte	0x52
 10116 17fc 02       		.uleb128 0x2
 10117 17fd 75       		.byte	0x75
 10118 17fe 00       		.sleb128 0
 10119 17ff 00       		.byte	0
 10120 1800 0A       		.uleb128 0xa
 10121 1801 3E000000 		.4byte	.LVL279
 10122 1805 B70B0000 		.4byte	0xbb7
 10123 1809 20180000 		.4byte	0x1820
 10124 180d 0B       		.uleb128 0xb
 10125 180e 01       		.uleb128 0x1
 10126 180f 50       		.byte	0x50
 10127 1810 02       		.uleb128 0x2
 10128 1811 08       		.byte	0x8
 10129 1812 21       		.byte	0x21
 10130 1813 0B       		.uleb128 0xb
 10131 1814 01       		.uleb128 0x1
 10132 1815 51       		.byte	0x51
 10133 1816 02       		.uleb128 0x2
 10134 1817 74       		.byte	0x74
 10135 1818 00       		.sleb128 0
 10136 1819 0B       		.uleb128 0xb
ARM GAS  C:\Users\Revanth\AppData\Local\Temp\ccHsQCvB.s 			page 238


 10137 181a 01       		.uleb128 0x1
 10138 181b 52       		.byte	0x52
 10139 181c 02       		.uleb128 0x2
 10140 181d 91       		.byte	0x91
 10141 181e 6F       		.sleb128 -17
 10142 181f 00       		.byte	0
 10143 1820 0C       		.uleb128 0xc
 10144 1821 44000000 		.4byte	.LVL280
 10145 1825 F53E0000 		.4byte	0x3ef5
 10146 1829 0B       		.uleb128 0xb
 10147 182a 01       		.uleb128 0x1
 10148 182b 50       		.byte	0x50
 10149 182c 02       		.uleb128 0x2
 10150 182d 08       		.byte	0x8
 10151 182e 64       		.byte	0x64
 10152 182f 00       		.byte	0
 10153 1830 00       		.byte	0
 10154 1831 19       		.uleb128 0x19
 10155 1832 B6050000 		.4byte	.LASF70
 10156 1836 01       		.byte	0x1
 10157 1837 5B02     		.2byte	0x25b
 10158 1839 89000000 		.4byte	0x89
 10159 183d 00000000 		.4byte	.LFB70
 10160 1841 90000000 		.4byte	.LFE70-.LFB70
 10161 1845 01       		.uleb128 0x1
 10162 1846 9C       		.byte	0x9c
 10163 1847 71190000 		.4byte	0x1971
 10164 184b 0E       		.uleb128 0xe
 10165 184c C8090000 		.4byte	.LASF71
 10166 1850 01       		.byte	0x1
 10167 1851 5B02     		.2byte	0x25b
 10168 1853 10010000 		.4byte	0x110
 10169 1857 4D040000 		.4byte	.LLST23
 10170 185b 09       		.uleb128 0x9
 10171 185c 08000000 		.4byte	.LVL282
 10172 1860 EF080000 		.4byte	0x8ef
 10173 1864 0A       		.uleb128 0xa
 10174 1865 14000000 		.4byte	.LVL283
 10175 1869 4D0E0000 		.4byte	0xe4d
 10176 186d 85180000 		.4byte	0x1885
 10177 1871 0B       		.uleb128 0xb
 10178 1872 01       		.uleb128 0x1
 10179 1873 50       		.byte	0x50
 10180 1874 01       		.uleb128 0x1
 10181 1875 40       		.byte	0x40
 10182 1876 0B       		.uleb128 0xb
 10183 1877 01       		.uleb128 0x1
 10184 1878 51       		.byte	0x51
 10185 1879 05       		.uleb128 0x5
 10186 187a 0C       		.byte	0xc
 10187 187b 03010700 		.4byte	0x70103
 10188 187f 0B       		.uleb128 0xb
 10189 1880 01       		.uleb128 0x1
 10190 1881 52       		.byte	0x52
 10191 1882 01       		.uleb128 0x1
 10192 1883 31       		.byte	0x31
 10193 1884 00       		.byte	0
ARM GAS  C:\Users\Revanth\AppData\Local\Temp\ccHsQCvB.s 			page 239


 10194 1885 0A       		.uleb128 0xa
 10195 1886 1E000000 		.4byte	.LVL284
 10196 188a 4D0E0000 		.4byte	0xe4d
 10197 188e A6180000 		.4byte	0x18a6
 10198 1892 0B       		.uleb128 0xb
 10199 1893 01       		.uleb128 0x1
 10200 1894 50       		.byte	0x50
 10201 1895 01       		.uleb128 0x1
 10202 1896 40       		.byte	0x40
 10203 1897 0B       		.uleb128 0xb
 10204 1898 01       		.uleb128 0x1
 10205 1899 51       		.byte	0x51
 10206 189a 05       		.uleb128 0x5
 10207 189b 0C       		.byte	0xc
 10208 189c 02010700 		.4byte	0x70102
 10209 18a0 0B       		.uleb128 0xb
 10210 18a1 01       		.uleb128 0x1
 10211 18a2 52       		.byte	0x52
 10212 18a3 01       		.uleb128 0x1
 10213 18a4 32       		.byte	0x32
 10214 18a5 00       		.byte	0
 10215 18a6 0A       		.uleb128 0xa
 10216 18a7 28000000 		.4byte	.LVL285
 10217 18ab 4D0E0000 		.4byte	0xe4d
 10218 18af C7180000 		.4byte	0x18c7
 10219 18b3 0B       		.uleb128 0xb
 10220 18b4 01       		.uleb128 0x1
 10221 18b5 50       		.byte	0x50
 10222 18b6 01       		.uleb128 0x1
 10223 18b7 40       		.byte	0x40
 10224 18b8 0B       		.uleb128 0xb
 10225 18b9 01       		.uleb128 0x1
 10226 18ba 51       		.byte	0x51
 10227 18bb 05       		.uleb128 0x5
 10228 18bc 0C       		.byte	0xc
 10229 18bd 0A030700 		.4byte	0x7030a
 10230 18c1 0B       		.uleb128 0xb
 10231 18c2 01       		.uleb128 0x1
 10232 18c3 52       		.byte	0x52
 10233 18c4 01       		.uleb128 0x1
 10234 18c5 30       		.byte	0x30
 10235 18c6 00       		.byte	0
 10236 18c7 09       		.uleb128 0x9
 10237 18c8 32000000 		.4byte	.LVL286
 10238 18cc 21030000 		.4byte	0x321
 10239 18d0 0A       		.uleb128 0xa
 10240 18d1 38000000 		.4byte	.LVL287
 10241 18d5 DF030000 		.4byte	0x3df
 10242 18d9 E7180000 		.4byte	0x18e7
 10243 18dd 0B       		.uleb128 0xb
 10244 18de 01       		.uleb128 0x1
 10245 18df 50       		.byte	0x50
 10246 18e0 05       		.uleb128 0x5
 10247 18e1 03       		.byte	0x3
 10248 18e2 94020000 		.4byte	.LC20
 10249 18e6 00       		.byte	0
 10250 18e7 0A       		.uleb128 0xa
ARM GAS  C:\Users\Revanth\AppData\Local\Temp\ccHsQCvB.s 			page 240


 10251 18e8 40000000 		.4byte	.LVL288
 10252 18ec 380F0000 		.4byte	0xf38
 10253 18f0 01190000 		.4byte	0x1901
 10254 18f4 0B       		.uleb128 0xb
 10255 18f5 01       		.uleb128 0x1
 10256 18f6 50       		.byte	0x50
 10257 18f7 02       		.uleb128 0x2
 10258 18f8 74       		.byte	0x74
 10259 18f9 00       		.sleb128 0
 10260 18fa 0B       		.uleb128 0xb
 10261 18fb 01       		.uleb128 0x1
 10262 18fc 51       		.byte	0x51
 10263 18fd 02       		.uleb128 0x2
 10264 18fe 76       		.byte	0x76
 10265 18ff 00       		.sleb128 0
 10266 1900 00       		.byte	0
 10267 1901 0A       		.uleb128 0xa
 10268 1902 46000000 		.4byte	.LVL289
 10269 1906 53170000 		.4byte	0x1753
 10270 190a 15190000 		.4byte	0x1915
 10271 190e 0B       		.uleb128 0xb
 10272 190f 01       		.uleb128 0x1
 10273 1910 50       		.byte	0x50
 10274 1911 02       		.uleb128 0x2
 10275 1912 76       		.byte	0x76
 10276 1913 00       		.sleb128 0
 10277 1914 00       		.byte	0
 10278 1915 0A       		.uleb128 0xa
 10279 1916 4C000000 		.4byte	.LVL290
 10280 191a F53E0000 		.4byte	0x3ef5
 10281 191e 29190000 		.4byte	0x1929
 10282 1922 0B       		.uleb128 0xb
 10283 1923 01       		.uleb128 0x1
 10284 1924 50       		.byte	0x50
 10285 1925 02       		.uleb128 0x2
 10286 1926 08       		.byte	0x8
 10287 1927 32       		.byte	0x32
 10288 1928 00       		.byte	0
 10289 1929 0A       		.uleb128 0xa
 10290 192a 52000000 		.4byte	.LVL291
 10291 192e 24070000 		.4byte	0x724
 10292 1932 3D190000 		.4byte	0x193d
 10293 1936 0B       		.uleb128 0xb
 10294 1937 01       		.uleb128 0x1
 10295 1938 50       		.byte	0x50
 10296 1939 02       		.uleb128 0x2
 10297 193a 74       		.byte	0x74
 10298 193b 00       		.sleb128 0
 10299 193c 00       		.byte	0
 10300 193d 0A       		.uleb128 0xa
 10301 193e 58000000 		.4byte	.LVL292
 10302 1942 DF030000 		.4byte	0x3df
 10303 1946 54190000 		.4byte	0x1954
 10304 194a 0B       		.uleb128 0xb
 10305 194b 01       		.uleb128 0x1
 10306 194c 50       		.byte	0x50
 10307 194d 05       		.uleb128 0x5
ARM GAS  C:\Users\Revanth\AppData\Local\Temp\ccHsQCvB.s 			page 241


 10308 194e 03       		.byte	0x3
 10309 194f B0020000 		.4byte	.LC21
 10310 1953 00       		.byte	0
 10311 1954 09       		.uleb128 0x9
 10312 1955 5C000000 		.4byte	.LVL293
 10313 1959 21030000 		.4byte	0x321
 10314 195d 0C       		.uleb128 0xc
 10315 195e 6A000000 		.4byte	.LVL295
 10316 1962 DF030000 		.4byte	0x3df
 10317 1966 0B       		.uleb128 0xb
 10318 1967 01       		.uleb128 0x1
 10319 1968 50       		.byte	0x50
 10320 1969 05       		.uleb128 0x5
 10321 196a 03       		.byte	0x3
 10322 196b B8020000 		.4byte	.LC22
 10323 196f 00       		.byte	0
 10324 1970 00       		.byte	0
 10325 1971 1F       		.uleb128 0x1f
 10326 1972 530B0000 		.4byte	.LASF72
 10327 1976 01       		.byte	0x1
 10328 1977 7D02     		.2byte	0x27d
 10329 1979 89000000 		.4byte	0x89
 10330 197d 00000000 		.4byte	.LFB71
 10331 1981 F8000000 		.4byte	.LFE71-.LFB71
 10332 1985 01       		.uleb128 0x1
 10333 1986 9C       		.byte	0x9c
 10334 1987 D01A0000 		.4byte	0x1ad0
 10335 198b 0E       		.uleb128 0xe
 10336 198c D20B0000 		.4byte	.LASF29
 10337 1990 01       		.byte	0x1
 10338 1991 7D02     		.2byte	0x27d
 10339 1993 10010000 		.4byte	0x110
 10340 1997 79040000 		.4byte	.LLST24
 10341 199b 1A       		.uleb128 0x1a
 10342 199c FB090000 		.4byte	.LASF73
 10343 19a0 01       		.byte	0x1
 10344 19a1 7F02     		.2byte	0x27f
 10345 19a3 10010000 		.4byte	0x110
 10346 19a7 A5040000 		.4byte	.LLST25
 10347 19ab 1A       		.uleb128 0x1a
 10348 19ac EB000000 		.4byte	.LASF74
 10349 19b0 01       		.byte	0x1
 10350 19b1 8002     		.2byte	0x280
 10351 19b3 97000000 		.4byte	0x97
 10352 19b7 CF040000 		.4byte	.LLST26
 10353 19bb 1A       		.uleb128 0x1a
 10354 19bc F2090000 		.4byte	.LASF75
 10355 19c0 01       		.byte	0x1
 10356 19c1 8102     		.2byte	0x281
 10357 19c3 10010000 		.4byte	0x110
 10358 19c7 F9040000 		.4byte	.LLST27
 10359 19cb 1A       		.uleb128 0x1a
 10360 19cc 7A090000 		.4byte	.LASF76
 10361 19d0 01       		.byte	0x1
 10362 19d1 8302     		.2byte	0x283
 10363 19d3 10010000 		.4byte	0x110
 10364 19d7 33050000 		.4byte	.LLST28
ARM GAS  C:\Users\Revanth\AppData\Local\Temp\ccHsQCvB.s 			page 242


 10365 19db 09       		.uleb128 0x9
 10366 19dc 1E000000 		.4byte	.LVL304
 10367 19e0 21030000 		.4byte	0x321
 10368 19e4 0A       		.uleb128 0xa
 10369 19e5 54000000 		.4byte	.LVL313
 10370 19e9 380F0000 		.4byte	0xf38
 10371 19ed F7190000 		.4byte	0x19f7
 10372 19f1 0B       		.uleb128 0xb
 10373 19f2 01       		.uleb128 0x1
 10374 19f3 51       		.byte	0x51
 10375 19f4 01       		.uleb128 0x1
 10376 19f5 30       		.byte	0x30
 10377 19f6 00       		.byte	0
 10378 19f7 0A       		.uleb128 0xa
 10379 19f8 5A000000 		.4byte	.LVL314
 10380 19fc 53170000 		.4byte	0x1753
 10381 1a00 0A1A0000 		.4byte	0x1a0a
 10382 1a04 0B       		.uleb128 0xb
 10383 1a05 01       		.uleb128 0x1
 10384 1a06 50       		.byte	0x50
 10385 1a07 01       		.uleb128 0x1
 10386 1a08 30       		.byte	0x30
 10387 1a09 00       		.byte	0
 10388 1a0a 0A       		.uleb128 0xa
 10389 1a0b 60000000 		.4byte	.LVL315
 10390 1a0f F53E0000 		.4byte	0x3ef5
 10391 1a13 1E1A0000 		.4byte	0x1a1e
 10392 1a17 0B       		.uleb128 0xb
 10393 1a18 01       		.uleb128 0x1
 10394 1a19 50       		.byte	0x50
 10395 1a1a 02       		.uleb128 0x2
 10396 1a1b 08       		.byte	0x8
 10397 1a1c 32       		.byte	0x32
 10398 1a1d 00       		.byte	0
 10399 1a1e 0A       		.uleb128 0xa
 10400 1a1f 6A000000 		.4byte	.LVL316
 10401 1a23 4D0E0000 		.4byte	0xe4d
 10402 1a27 3D1A0000 		.4byte	0x1a3d
 10403 1a2b 0B       		.uleb128 0xb
 10404 1a2c 01       		.uleb128 0x1
 10405 1a2d 50       		.byte	0x50
 10406 1a2e 02       		.uleb128 0x2
 10407 1a2f 08       		.byte	0x8
 10408 1a30 21       		.byte	0x21
 10409 1a31 0B       		.uleb128 0xb
 10410 1a32 01       		.uleb128 0x1
 10411 1a33 51       		.byte	0x51
 10412 1a34 02       		.uleb128 0x2
 10413 1a35 77       		.byte	0x77
 10414 1a36 00       		.sleb128 0
 10415 1a37 0B       		.uleb128 0xb
 10416 1a38 01       		.uleb128 0x1
 10417 1a39 52       		.byte	0x52
 10418 1a3a 01       		.uleb128 0x1
 10419 1a3b 30       		.byte	0x30
 10420 1a3c 00       		.byte	0
 10421 1a3d 09       		.uleb128 0x9
ARM GAS  C:\Users\Revanth\AppData\Local\Temp\ccHsQCvB.s 			page 243


 10422 1a3e 76000000 		.4byte	.LVL319
 10423 1a42 21030000 		.4byte	0x321
 10424 1a46 0A       		.uleb128 0xa
 10425 1a47 9E000000 		.4byte	.LVL322
 10426 1a4b DF030000 		.4byte	0x3df
 10427 1a4f 5D1A0000 		.4byte	0x1a5d
 10428 1a53 0B       		.uleb128 0xb
 10429 1a54 01       		.uleb128 0x1
 10430 1a55 50       		.byte	0x50
 10431 1a56 05       		.uleb128 0x5
 10432 1a57 03       		.byte	0x3
 10433 1a58 C8020000 		.4byte	.LC23
 10434 1a5c 00       		.byte	0
 10435 1a5d 0A       		.uleb128 0xa
 10436 1a5e A4000000 		.4byte	.LVL323
 10437 1a62 B43F0000 		.4byte	0x3fb4
 10438 1a66 711A0000 		.4byte	0x1a71
 10439 1a6a 0B       		.uleb128 0xb
 10440 1a6b 01       		.uleb128 0x1
 10441 1a6c 50       		.byte	0x50
 10442 1a6d 02       		.uleb128 0x2
 10443 1a6e 09       		.byte	0x9
 10444 1a6f FF       		.byte	0xff
 10445 1a70 00       		.byte	0
 10446 1a71 0A       		.uleb128 0xa
 10447 1a72 B8000000 		.4byte	.LVL325
 10448 1a76 DF030000 		.4byte	0x3df
 10449 1a7a 881A0000 		.4byte	0x1a88
 10450 1a7e 0B       		.uleb128 0xb
 10451 1a7f 01       		.uleb128 0x1
 10452 1a80 50       		.byte	0x50
 10453 1a81 05       		.uleb128 0x5
 10454 1a82 03       		.byte	0x3
 10455 1a83 E4020000 		.4byte	.LC24
 10456 1a87 00       		.byte	0
 10457 1a88 0A       		.uleb128 0xa
 10458 1a89 C6000000 		.4byte	.LVL326
 10459 1a8d DF030000 		.4byte	0x3df
 10460 1a91 9F1A0000 		.4byte	0x1a9f
 10461 1a95 0B       		.uleb128 0xb
 10462 1a96 01       		.uleb128 0x1
 10463 1a97 50       		.byte	0x50
 10464 1a98 05       		.uleb128 0x5
 10465 1a99 03       		.byte	0x3
 10466 1a9a 14030000 		.4byte	.LC25
 10467 1a9e 00       		.byte	0
 10468 1a9f 0A       		.uleb128 0xa
 10469 1aa0 D4000000 		.4byte	.LVL327
 10470 1aa4 4D0E0000 		.4byte	0xe4d
 10471 1aa8 BE1A0000 		.4byte	0x1abe
 10472 1aac 0B       		.uleb128 0xb
 10473 1aad 01       		.uleb128 0x1
 10474 1aae 50       		.byte	0x50
 10475 1aaf 02       		.uleb128 0x2
 10476 1ab0 08       		.byte	0x8
 10477 1ab1 21       		.byte	0x21
 10478 1ab2 0B       		.uleb128 0xb
ARM GAS  C:\Users\Revanth\AppData\Local\Temp\ccHsQCvB.s 			page 244


 10479 1ab3 01       		.uleb128 0x1
 10480 1ab4 51       		.byte	0x51
 10481 1ab5 02       		.uleb128 0x2
 10482 1ab6 77       		.byte	0x77
 10483 1ab7 00       		.sleb128 0
 10484 1ab8 0B       		.uleb128 0xb
 10485 1ab9 01       		.uleb128 0x1
 10486 1aba 52       		.byte	0x52
 10487 1abb 01       		.uleb128 0x1
 10488 1abc 30       		.byte	0x30
 10489 1abd 00       		.byte	0
 10490 1abe 0C       		.uleb128 0xc
 10491 1abf DC000000 		.4byte	.LVL328
 10492 1ac3 F53E0000 		.4byte	0x3ef5
 10493 1ac7 0B       		.uleb128 0xb
 10494 1ac8 01       		.uleb128 0x1
 10495 1ac9 50       		.byte	0x50
 10496 1aca 03       		.uleb128 0x3
 10497 1acb 0A       		.byte	0xa
 10498 1acc F401     		.2byte	0x1f4
 10499 1ace 00       		.byte	0
 10500 1acf 00       		.byte	0
 10501 1ad0 1F       		.uleb128 0x1f
 10502 1ad1 650B0000 		.4byte	.LASF77
 10503 1ad5 01       		.byte	0x1
 10504 1ad6 DC02     		.2byte	0x2dc
 10505 1ad8 89000000 		.4byte	0x89
 10506 1adc 00000000 		.4byte	.LFB73
 10507 1ae0 F0000000 		.4byte	.LFE73-.LFB73
 10508 1ae4 01       		.uleb128 0x1
 10509 1ae5 9C       		.byte	0x9c
 10510 1ae6 FB1B0000 		.4byte	0x1bfb
 10511 1aea 0E       		.uleb128 0xe
 10512 1aeb D20B0000 		.4byte	.LASF29
 10513 1aef 01       		.byte	0x1
 10514 1af0 DC02     		.2byte	0x2dc
 10515 1af2 10010000 		.4byte	0x110
 10516 1af6 6B050000 		.4byte	.LLST29
 10517 1afa 1A       		.uleb128 0x1a
 10518 1afb EB000000 		.4byte	.LASF74
 10519 1aff 01       		.byte	0x1
 10520 1b00 DE02     		.2byte	0x2de
 10521 1b02 97000000 		.4byte	0x97
 10522 1b06 97050000 		.4byte	.LLST30
 10523 1b0a 1A       		.uleb128 0x1a
 10524 1b0b F2090000 		.4byte	.LASF75
 10525 1b0f 01       		.byte	0x1
 10526 1b10 DF02     		.2byte	0x2df
 10527 1b12 10010000 		.4byte	0x110
 10528 1b16 C1050000 		.4byte	.LLST31
 10529 1b1a 1A       		.uleb128 0x1a
 10530 1b1b C9060000 		.4byte	.LASF78
 10531 1b1f 01       		.byte	0x1
 10532 1b20 E002     		.2byte	0x2e0
 10533 1b22 10010000 		.4byte	0x110
 10534 1b26 FB050000 		.4byte	.LLST32
 10535 1b2a 1A       		.uleb128 0x1a
ARM GAS  C:\Users\Revanth\AppData\Local\Temp\ccHsQCvB.s 			page 245


 10536 1b2b 7A090000 		.4byte	.LASF76
 10537 1b2f 01       		.byte	0x1
 10538 1b30 E202     		.2byte	0x2e2
 10539 1b32 10010000 		.4byte	0x110
 10540 1b36 25060000 		.4byte	.LLST33
 10541 1b3a 09       		.uleb128 0x9
 10542 1b3b 20000000 		.4byte	.LVL337
 10543 1b3f 21030000 		.4byte	0x321
 10544 1b43 0A       		.uleb128 0xa
 10545 1b44 5A000000 		.4byte	.LVL345
 10546 1b48 380F0000 		.4byte	0xf38
 10547 1b4c 561B0000 		.4byte	0x1b56
 10548 1b50 0B       		.uleb128 0xb
 10549 1b51 01       		.uleb128 0x1
 10550 1b52 51       		.byte	0x51
 10551 1b53 01       		.uleb128 0x1
 10552 1b54 31       		.byte	0x31
 10553 1b55 00       		.byte	0
 10554 1b56 0A       		.uleb128 0xa
 10555 1b57 60000000 		.4byte	.LVL346
 10556 1b5b 53170000 		.4byte	0x1753
 10557 1b5f 691B0000 		.4byte	0x1b69
 10558 1b63 0B       		.uleb128 0xb
 10559 1b64 01       		.uleb128 0x1
 10560 1b65 50       		.byte	0x50
 10561 1b66 01       		.uleb128 0x1
 10562 1b67 31       		.byte	0x31
 10563 1b68 00       		.byte	0
 10564 1b69 0A       		.uleb128 0xa
 10565 1b6a 66000000 		.4byte	.LVL347
 10566 1b6e F53E0000 		.4byte	0x3ef5
 10567 1b72 7D1B0000 		.4byte	0x1b7d
 10568 1b76 0B       		.uleb128 0xb
 10569 1b77 01       		.uleb128 0x1
 10570 1b78 50       		.byte	0x50
 10571 1b79 02       		.uleb128 0x2
 10572 1b7a 08       		.byte	0x8
 10573 1b7b 32       		.byte	0x32
 10574 1b7c 00       		.byte	0
 10575 1b7d 0A       		.uleb128 0xa
 10576 1b7e 70000000 		.4byte	.LVL348
 10577 1b82 4D0E0000 		.4byte	0xe4d
 10578 1b86 9C1B0000 		.4byte	0x1b9c
 10579 1b8a 0B       		.uleb128 0xb
 10580 1b8b 01       		.uleb128 0x1
 10581 1b8c 50       		.byte	0x50
 10582 1b8d 02       		.uleb128 0x2
 10583 1b8e 08       		.byte	0x8
 10584 1b8f 21       		.byte	0x21
 10585 1b90 0B       		.uleb128 0xb
 10586 1b91 01       		.uleb128 0x1
 10587 1b92 51       		.byte	0x51
 10588 1b93 02       		.uleb128 0x2
 10589 1b94 77       		.byte	0x77
 10590 1b95 00       		.sleb128 0
 10591 1b96 0B       		.uleb128 0xb
 10592 1b97 01       		.uleb128 0x1
ARM GAS  C:\Users\Revanth\AppData\Local\Temp\ccHsQCvB.s 			page 246


 10593 1b98 52       		.byte	0x52
 10594 1b99 01       		.uleb128 0x1
 10595 1b9a 31       		.byte	0x31
 10596 1b9b 00       		.byte	0
 10597 1b9c 09       		.uleb128 0x9
 10598 1b9d 7C000000 		.4byte	.LVL351
 10599 1ba1 21030000 		.4byte	0x321
 10600 1ba5 0A       		.uleb128 0xa
 10601 1ba6 A4000000 		.4byte	.LVL355
 10602 1baa DF030000 		.4byte	0x3df
 10603 1bae BC1B0000 		.4byte	0x1bbc
 10604 1bb2 0B       		.uleb128 0xb
 10605 1bb3 01       		.uleb128 0x1
 10606 1bb4 50       		.byte	0x50
 10607 1bb5 05       		.uleb128 0x5
 10608 1bb6 03       		.byte	0x3
 10609 1bb7 28030000 		.4byte	.LC26
 10610 1bbb 00       		.byte	0
 10611 1bbc 0A       		.uleb128 0xa
 10612 1bbd AA000000 		.4byte	.LVL356
 10613 1bc1 B43F0000 		.4byte	0x3fb4
 10614 1bc5 D01B0000 		.4byte	0x1bd0
 10615 1bc9 0B       		.uleb128 0xb
 10616 1bca 01       		.uleb128 0x1
 10617 1bcb 50       		.byte	0x50
 10618 1bcc 02       		.uleb128 0x2
 10619 1bcd 09       		.byte	0x9
 10620 1bce FF       		.byte	0xff
 10621 1bcf 00       		.byte	0
 10622 1bd0 0A       		.uleb128 0xa
 10623 1bd1 BE000000 		.4byte	.LVL357
 10624 1bd5 DF030000 		.4byte	0x3df
 10625 1bd9 E71B0000 		.4byte	0x1be7
 10626 1bdd 0B       		.uleb128 0xb
 10627 1bde 01       		.uleb128 0x1
 10628 1bdf 50       		.byte	0x50
 10629 1be0 05       		.uleb128 0x5
 10630 1be1 03       		.byte	0x3
 10631 1be2 44030000 		.4byte	.LC27
 10632 1be6 00       		.byte	0
 10633 1be7 0C       		.uleb128 0xc
 10634 1be8 CC000000 		.4byte	.LVL358
 10635 1bec DF030000 		.4byte	0x3df
 10636 1bf0 0B       		.uleb128 0xb
 10637 1bf1 01       		.uleb128 0x1
 10638 1bf2 50       		.byte	0x50
 10639 1bf3 05       		.uleb128 0x5
 10640 1bf4 03       		.byte	0x3
 10641 1bf5 74030000 		.4byte	.LC28
 10642 1bf9 00       		.byte	0
 10643 1bfa 00       		.byte	0
 10644 1bfb 19       		.uleb128 0x19
 10645 1bfc BD050000 		.4byte	.LASF79
 10646 1c00 01       		.byte	0x1
 10647 1c01 BE02     		.2byte	0x2be
 10648 1c03 89000000 		.4byte	0x89
 10649 1c07 00000000 		.4byte	.LFB72
ARM GAS  C:\Users\Revanth\AppData\Local\Temp\ccHsQCvB.s 			page 247


 10650 1c0b 8C000000 		.4byte	.LFE72-.LFB72
 10651 1c0f 01       		.uleb128 0x1
 10652 1c10 9C       		.byte	0x9c
 10653 1c11 441D0000 		.4byte	0x1d44
 10654 1c15 0E       		.uleb128 0xe
 10655 1c16 33030000 		.4byte	.LASF80
 10656 1c1a 01       		.byte	0x1
 10657 1c1b BE02     		.2byte	0x2be
 10658 1c1d 10010000 		.4byte	0x110
 10659 1c21 5D060000 		.4byte	.LLST34
 10660 1c25 09       		.uleb128 0x9
 10661 1c26 08000000 		.4byte	.LVL361
 10662 1c2a EF080000 		.4byte	0x8ef
 10663 1c2e 0A       		.uleb128 0xa
 10664 1c2f 14000000 		.4byte	.LVL362
 10665 1c33 4D0E0000 		.4byte	0xe4d
 10666 1c37 4F1C0000 		.4byte	0x1c4f
 10667 1c3b 0B       		.uleb128 0xb
 10668 1c3c 01       		.uleb128 0x1
 10669 1c3d 50       		.byte	0x50
 10670 1c3e 01       		.uleb128 0x1
 10671 1c3f 40       		.byte	0x40
 10672 1c40 0B       		.uleb128 0xb
 10673 1c41 01       		.uleb128 0x1
 10674 1c42 51       		.byte	0x51
 10675 1c43 05       		.uleb128 0x5
 10676 1c44 0C       		.byte	0xc
 10677 1c45 03010700 		.4byte	0x70103
 10678 1c49 0B       		.uleb128 0xb
 10679 1c4a 01       		.uleb128 0x1
 10680 1c4b 52       		.byte	0x52
 10681 1c4c 01       		.uleb128 0x1
 10682 1c4d 30       		.byte	0x30
 10683 1c4e 00       		.byte	0
 10684 1c4f 0A       		.uleb128 0xa
 10685 1c50 1E000000 		.4byte	.LVL363
 10686 1c54 4D0E0000 		.4byte	0xe4d
 10687 1c58 701C0000 		.4byte	0x1c70
 10688 1c5c 0B       		.uleb128 0xb
 10689 1c5d 01       		.uleb128 0x1
 10690 1c5e 50       		.byte	0x50
 10691 1c5f 01       		.uleb128 0x1
 10692 1c60 40       		.byte	0x40
 10693 1c61 0B       		.uleb128 0xb
 10694 1c62 01       		.uleb128 0x1
 10695 1c63 51       		.byte	0x51
 10696 1c64 05       		.uleb128 0x5
 10697 1c65 0C       		.byte	0xc
 10698 1c66 02010700 		.4byte	0x70102
 10699 1c6a 0B       		.uleb128 0xb
 10700 1c6b 01       		.uleb128 0x1
 10701 1c6c 52       		.byte	0x52
 10702 1c6d 01       		.uleb128 0x1
 10703 1c6e 32       		.byte	0x32
 10704 1c6f 00       		.byte	0
 10705 1c70 0A       		.uleb128 0xa
 10706 1c71 28000000 		.4byte	.LVL364
ARM GAS  C:\Users\Revanth\AppData\Local\Temp\ccHsQCvB.s 			page 248


 10707 1c75 4D0E0000 		.4byte	0xe4d
 10708 1c79 911C0000 		.4byte	0x1c91
 10709 1c7d 0B       		.uleb128 0xb
 10710 1c7e 01       		.uleb128 0x1
 10711 1c7f 50       		.byte	0x50
 10712 1c80 01       		.uleb128 0x1
 10713 1c81 40       		.byte	0x40
 10714 1c82 0B       		.uleb128 0xb
 10715 1c83 01       		.uleb128 0x1
 10716 1c84 51       		.byte	0x51
 10717 1c85 05       		.uleb128 0x5
 10718 1c86 0C       		.byte	0xc
 10719 1c87 0A010700 		.4byte	0x7010a
 10720 1c8b 0B       		.uleb128 0xb
 10721 1c8c 01       		.uleb128 0x1
 10722 1c8d 52       		.byte	0x52
 10723 1c8e 01       		.uleb128 0x1
 10724 1c8f 31       		.byte	0x31
 10725 1c90 00       		.byte	0
 10726 1c91 09       		.uleb128 0x9
 10727 1c92 32000000 		.4byte	.LVL365
 10728 1c96 21030000 		.4byte	0x321
 10729 1c9a 0A       		.uleb128 0xa
 10730 1c9b 38000000 		.4byte	.LVL366
 10731 1c9f DF030000 		.4byte	0x3df
 10732 1ca3 B11C0000 		.4byte	0x1cb1
 10733 1ca7 0B       		.uleb128 0xb
 10734 1ca8 01       		.uleb128 0x1
 10735 1ca9 50       		.byte	0x50
 10736 1caa 05       		.uleb128 0x5
 10737 1cab 03       		.byte	0x3
 10738 1cac 94020000 		.4byte	.LC20
 10739 1cb0 00       		.byte	0
 10740 1cb1 0A       		.uleb128 0xa
 10741 1cb2 40000000 		.4byte	.LVL367
 10742 1cb6 380F0000 		.4byte	0xf38
 10743 1cba CA1C0000 		.4byte	0x1cca
 10744 1cbe 0B       		.uleb128 0xb
 10745 1cbf 01       		.uleb128 0x1
 10746 1cc0 50       		.byte	0x50
 10747 1cc1 02       		.uleb128 0x2
 10748 1cc2 74       		.byte	0x74
 10749 1cc3 00       		.sleb128 0
 10750 1cc4 0B       		.uleb128 0xb
 10751 1cc5 01       		.uleb128 0x1
 10752 1cc6 51       		.byte	0x51
 10753 1cc7 01       		.uleb128 0x1
 10754 1cc8 31       		.byte	0x31
 10755 1cc9 00       		.byte	0
 10756 1cca 0A       		.uleb128 0xa
 10757 1ccb 46000000 		.4byte	.LVL368
 10758 1ccf 53170000 		.4byte	0x1753
 10759 1cd3 DD1C0000 		.4byte	0x1cdd
 10760 1cd7 0B       		.uleb128 0xb
 10761 1cd8 01       		.uleb128 0x1
 10762 1cd9 50       		.byte	0x50
 10763 1cda 01       		.uleb128 0x1
ARM GAS  C:\Users\Revanth\AppData\Local\Temp\ccHsQCvB.s 			page 249


 10764 1cdb 31       		.byte	0x31
 10765 1cdc 00       		.byte	0
 10766 1cdd 0A       		.uleb128 0xa
 10767 1cde 4C000000 		.4byte	.LVL369
 10768 1ce2 F53E0000 		.4byte	0x3ef5
 10769 1ce6 F11C0000 		.4byte	0x1cf1
 10770 1cea 0B       		.uleb128 0xb
 10771 1ceb 01       		.uleb128 0x1
 10772 1cec 50       		.byte	0x50
 10773 1ced 02       		.uleb128 0x2
 10774 1cee 08       		.byte	0x8
 10775 1cef 32       		.byte	0x32
 10776 1cf0 00       		.byte	0
 10777 1cf1 0A       		.uleb128 0xa
 10778 1cf2 52000000 		.4byte	.LVL370
 10779 1cf6 24070000 		.4byte	0x724
 10780 1cfa 051D0000 		.4byte	0x1d05
 10781 1cfe 0B       		.uleb128 0xb
 10782 1cff 01       		.uleb128 0x1
 10783 1d00 50       		.byte	0x50
 10784 1d01 02       		.uleb128 0x2
 10785 1d02 74       		.byte	0x74
 10786 1d03 00       		.sleb128 0
 10787 1d04 00       		.byte	0
 10788 1d05 0A       		.uleb128 0xa
 10789 1d06 58000000 		.4byte	.LVL371
 10790 1d0a DF030000 		.4byte	0x3df
 10791 1d0e 1C1D0000 		.4byte	0x1d1c
 10792 1d12 0B       		.uleb128 0xb
 10793 1d13 01       		.uleb128 0x1
 10794 1d14 50       		.byte	0x50
 10795 1d15 05       		.uleb128 0x5
 10796 1d16 03       		.byte	0x3
 10797 1d17 B0020000 		.4byte	.LC21
 10798 1d1b 00       		.byte	0
 10799 1d1c 0A       		.uleb128 0xa
 10800 1d1d 5E000000 		.4byte	.LVL372
 10801 1d21 D01A0000 		.4byte	0x1ad0
 10802 1d25 301D0000 		.4byte	0x1d30
 10803 1d29 0B       		.uleb128 0xb
 10804 1d2a 01       		.uleb128 0x1
 10805 1d2b 50       		.byte	0x50
 10806 1d2c 02       		.uleb128 0x2
 10807 1d2d 74       		.byte	0x74
 10808 1d2e 00       		.sleb128 0
 10809 1d2f 00       		.byte	0
 10810 1d30 0C       		.uleb128 0xc
 10811 1d31 68000000 		.4byte	.LVL374
 10812 1d35 DF030000 		.4byte	0x3df
 10813 1d39 0B       		.uleb128 0xb
 10814 1d3a 01       		.uleb128 0x1
 10815 1d3b 50       		.byte	0x50
 10816 1d3c 05       		.uleb128 0x5
 10817 1d3d 03       		.byte	0x3
 10818 1d3e B8020000 		.4byte	.LC22
 10819 1d42 00       		.byte	0
 10820 1d43 00       		.byte	0
ARM GAS  C:\Users\Revanth\AppData\Local\Temp\ccHsQCvB.s 			page 250


 10821 1d44 1F       		.uleb128 0x1f
 10822 1d45 770B0000 		.4byte	.LASF81
 10823 1d49 01       		.byte	0x1
 10824 1d4a 3F03     		.2byte	0x33f
 10825 1d4c 89000000 		.4byte	0x89
 10826 1d50 00000000 		.4byte	.LFB75
 10827 1d54 F0000000 		.4byte	.LFE75-.LFB75
 10828 1d58 01       		.uleb128 0x1
 10829 1d59 9C       		.byte	0x9c
 10830 1d5a 6F1E0000 		.4byte	0x1e6f
 10831 1d5e 0E       		.uleb128 0xe
 10832 1d5f D20B0000 		.4byte	.LASF29
 10833 1d63 01       		.byte	0x1
 10834 1d64 3F03     		.2byte	0x33f
 10835 1d66 10010000 		.4byte	0x110
 10836 1d6a 89060000 		.4byte	.LLST35
 10837 1d6e 1A       		.uleb128 0x1a
 10838 1d6f EB000000 		.4byte	.LASF74
 10839 1d73 01       		.byte	0x1
 10840 1d74 4103     		.2byte	0x341
 10841 1d76 97000000 		.4byte	0x97
 10842 1d7a B5060000 		.4byte	.LLST36
 10843 1d7e 1A       		.uleb128 0x1a
 10844 1d7f F2090000 		.4byte	.LASF75
 10845 1d83 01       		.byte	0x1
 10846 1d84 4203     		.2byte	0x342
 10847 1d86 10010000 		.4byte	0x110
 10848 1d8a DF060000 		.4byte	.LLST37
 10849 1d8e 1A       		.uleb128 0x1a
 10850 1d8f 01080000 		.4byte	.LASF82
 10851 1d93 01       		.byte	0x1
 10852 1d94 4303     		.2byte	0x343
 10853 1d96 10010000 		.4byte	0x110
 10854 1d9a 19070000 		.4byte	.LLST38
 10855 1d9e 1A       		.uleb128 0x1a
 10856 1d9f 7A090000 		.4byte	.LASF76
 10857 1da3 01       		.byte	0x1
 10858 1da4 4503     		.2byte	0x345
 10859 1da6 10010000 		.4byte	0x110
 10860 1daa 43070000 		.4byte	.LLST39
 10861 1dae 09       		.uleb128 0x9
 10862 1daf 20000000 		.4byte	.LVL383
 10863 1db3 21030000 		.4byte	0x321
 10864 1db7 0A       		.uleb128 0xa
 10865 1db8 5A000000 		.4byte	.LVL391
 10866 1dbc 380F0000 		.4byte	0xf38
 10867 1dc0 CA1D0000 		.4byte	0x1dca
 10868 1dc4 0B       		.uleb128 0xb
 10869 1dc5 01       		.uleb128 0x1
 10870 1dc6 51       		.byte	0x51
 10871 1dc7 01       		.uleb128 0x1
 10872 1dc8 32       		.byte	0x32
 10873 1dc9 00       		.byte	0
 10874 1dca 0A       		.uleb128 0xa
 10875 1dcb 60000000 		.4byte	.LVL392
 10876 1dcf 53170000 		.4byte	0x1753
 10877 1dd3 DD1D0000 		.4byte	0x1ddd
ARM GAS  C:\Users\Revanth\AppData\Local\Temp\ccHsQCvB.s 			page 251


 10878 1dd7 0B       		.uleb128 0xb
 10879 1dd8 01       		.uleb128 0x1
 10880 1dd9 50       		.byte	0x50
 10881 1dda 01       		.uleb128 0x1
 10882 1ddb 32       		.byte	0x32
 10883 1ddc 00       		.byte	0
 10884 1ddd 0A       		.uleb128 0xa
 10885 1dde 66000000 		.4byte	.LVL393
 10886 1de2 F53E0000 		.4byte	0x3ef5
 10887 1de6 F11D0000 		.4byte	0x1df1
 10888 1dea 0B       		.uleb128 0xb
 10889 1deb 01       		.uleb128 0x1
 10890 1dec 50       		.byte	0x50
 10891 1ded 02       		.uleb128 0x2
 10892 1dee 08       		.byte	0x8
 10893 1def 32       		.byte	0x32
 10894 1df0 00       		.byte	0
 10895 1df1 0A       		.uleb128 0xa
 10896 1df2 70000000 		.4byte	.LVL394
 10897 1df6 4D0E0000 		.4byte	0xe4d
 10898 1dfa 101E0000 		.4byte	0x1e10
 10899 1dfe 0B       		.uleb128 0xb
 10900 1dff 01       		.uleb128 0x1
 10901 1e00 50       		.byte	0x50
 10902 1e01 02       		.uleb128 0x2
 10903 1e02 08       		.byte	0x8
 10904 1e03 21       		.byte	0x21
 10905 1e04 0B       		.uleb128 0xb
 10906 1e05 01       		.uleb128 0x1
 10907 1e06 51       		.byte	0x51
 10908 1e07 02       		.uleb128 0x2
 10909 1e08 77       		.byte	0x77
 10910 1e09 00       		.sleb128 0
 10911 1e0a 0B       		.uleb128 0xb
 10912 1e0b 01       		.uleb128 0x1
 10913 1e0c 52       		.byte	0x52
 10914 1e0d 01       		.uleb128 0x1
 10915 1e0e 32       		.byte	0x32
 10916 1e0f 00       		.byte	0
 10917 1e10 09       		.uleb128 0x9
 10918 1e11 7C000000 		.4byte	.LVL397
 10919 1e15 21030000 		.4byte	0x321
 10920 1e19 0A       		.uleb128 0xa
 10921 1e1a A4000000 		.4byte	.LVL401
 10922 1e1e DF030000 		.4byte	0x3df
 10923 1e22 301E0000 		.4byte	0x1e30
 10924 1e26 0B       		.uleb128 0xb
 10925 1e27 01       		.uleb128 0x1
 10926 1e28 50       		.byte	0x50
 10927 1e29 05       		.uleb128 0x5
 10928 1e2a 03       		.byte	0x3
 10929 1e2b 88030000 		.4byte	.LC29
 10930 1e2f 00       		.byte	0
 10931 1e30 0A       		.uleb128 0xa
 10932 1e31 AA000000 		.4byte	.LVL402
 10933 1e35 BF3F0000 		.4byte	0x3fbf
 10934 1e39 441E0000 		.4byte	0x1e44
ARM GAS  C:\Users\Revanth\AppData\Local\Temp\ccHsQCvB.s 			page 252


 10935 1e3d 0B       		.uleb128 0xb
 10936 1e3e 01       		.uleb128 0x1
 10937 1e3f 50       		.byte	0x50
 10938 1e40 02       		.uleb128 0x2
 10939 1e41 09       		.byte	0x9
 10940 1e42 FF       		.byte	0xff
 10941 1e43 00       		.byte	0
 10942 1e44 0A       		.uleb128 0xa
 10943 1e45 BE000000 		.4byte	.LVL403
 10944 1e49 DF030000 		.4byte	0x3df
 10945 1e4d 5B1E0000 		.4byte	0x1e5b
 10946 1e51 0B       		.uleb128 0xb
 10947 1e52 01       		.uleb128 0x1
 10948 1e53 50       		.byte	0x50
 10949 1e54 05       		.uleb128 0x5
 10950 1e55 03       		.byte	0x3
 10951 1e56 A4030000 		.4byte	.LC30
 10952 1e5a 00       		.byte	0
 10953 1e5b 0C       		.uleb128 0xc
 10954 1e5c CC000000 		.4byte	.LVL404
 10955 1e60 DF030000 		.4byte	0x3df
 10956 1e64 0B       		.uleb128 0xb
 10957 1e65 01       		.uleb128 0x1
 10958 1e66 50       		.byte	0x50
 10959 1e67 05       		.uleb128 0x5
 10960 1e68 03       		.byte	0x3
 10961 1e69 D4030000 		.4byte	.LC31
 10962 1e6d 00       		.byte	0
 10963 1e6e 00       		.byte	0
 10964 1e6f 19       		.uleb128 0x19
 10965 1e70 C4050000 		.4byte	.LASF83
 10966 1e74 01       		.byte	0x1
 10967 1e75 1E03     		.2byte	0x31e
 10968 1e77 89000000 		.4byte	0x89
 10969 1e7b 00000000 		.4byte	.LFB74
 10970 1e7f 9C000000 		.4byte	.LFE74-.LFB74
 10971 1e83 01       		.uleb128 0x1
 10972 1e84 9C       		.byte	0x9c
 10973 1e85 C41F0000 		.4byte	0x1fc4
 10974 1e89 0E       		.uleb128 0xe
 10975 1e8a FC0B0000 		.4byte	.LASF84
 10976 1e8e 01       		.byte	0x1
 10977 1e8f 1E03     		.2byte	0x31e
 10978 1e91 10010000 		.4byte	0x110
 10979 1e95 7B070000 		.4byte	.LLST40
 10980 1e99 0A       		.uleb128 0xa
 10981 1e9a 10000000 		.4byte	.LVL408
 10982 1e9e 4D0E0000 		.4byte	0xe4d
 10983 1ea2 B71E0000 		.4byte	0x1eb7
 10984 1ea6 0B       		.uleb128 0xb
 10985 1ea7 01       		.uleb128 0x1
 10986 1ea8 50       		.byte	0x50
 10987 1ea9 01       		.uleb128 0x1
 10988 1eaa 40       		.byte	0x40
 10989 1eab 0B       		.uleb128 0xb
 10990 1eac 01       		.uleb128 0x1
 10991 1ead 51       		.byte	0x51
ARM GAS  C:\Users\Revanth\AppData\Local\Temp\ccHsQCvB.s 			page 253


 10992 1eae 02       		.uleb128 0x2
 10993 1eaf 74       		.byte	0x74
 10994 1eb0 00       		.sleb128 0
 10995 1eb1 0B       		.uleb128 0xb
 10996 1eb2 01       		.uleb128 0x1
 10997 1eb3 52       		.byte	0x52
 10998 1eb4 01       		.uleb128 0x1
 10999 1eb5 31       		.byte	0x31
 11000 1eb6 00       		.byte	0
 11001 1eb7 0A       		.uleb128 0xa
 11002 1eb8 1A000000 		.4byte	.LVL409
 11003 1ebc 4D0E0000 		.4byte	0xe4d
 11004 1ec0 D51E0000 		.4byte	0x1ed5
 11005 1ec4 0B       		.uleb128 0xb
 11006 1ec5 01       		.uleb128 0x1
 11007 1ec6 50       		.byte	0x50
 11008 1ec7 01       		.uleb128 0x1
 11009 1ec8 40       		.byte	0x40
 11010 1ec9 0B       		.uleb128 0xb
 11011 1eca 01       		.uleb128 0x1
 11012 1ecb 51       		.byte	0x51
 11013 1ecc 02       		.uleb128 0x2
 11014 1ecd 74       		.byte	0x74
 11015 1ece 00       		.sleb128 0
 11016 1ecf 0B       		.uleb128 0xb
 11017 1ed0 01       		.uleb128 0x1
 11018 1ed1 52       		.byte	0x52
 11019 1ed2 01       		.uleb128 0x1
 11020 1ed3 30       		.byte	0x30
 11021 1ed4 00       		.byte	0
 11022 1ed5 0A       		.uleb128 0xa
 11023 1ed6 24000000 		.4byte	.LVL410
 11024 1eda 4D0E0000 		.4byte	0xe4d
 11025 1ede F61E0000 		.4byte	0x1ef6
 11026 1ee2 0B       		.uleb128 0xb
 11027 1ee3 01       		.uleb128 0x1
 11028 1ee4 50       		.byte	0x50
 11029 1ee5 01       		.uleb128 0x1
 11030 1ee6 40       		.byte	0x40
 11031 1ee7 0B       		.uleb128 0xb
 11032 1ee8 01       		.uleb128 0x1
 11033 1ee9 51       		.byte	0x51
 11034 1eea 05       		.uleb128 0x5
 11035 1eeb 0C       		.byte	0xc
 11036 1eec 02010700 		.4byte	0x70102
 11037 1ef0 0B       		.uleb128 0xb
 11038 1ef1 01       		.uleb128 0x1
 11039 1ef2 52       		.byte	0x52
 11040 1ef3 01       		.uleb128 0x1
 11041 1ef4 32       		.byte	0x32
 11042 1ef5 00       		.byte	0
 11043 1ef6 09       		.uleb128 0x9
 11044 1ef7 2E000000 		.4byte	.LVL411
 11045 1efb 7F020000 		.4byte	0x27f
 11046 1eff 09       		.uleb128 0x9
 11047 1f00 32000000 		.4byte	.LVL412
 11048 1f04 EF080000 		.4byte	0x8ef
ARM GAS  C:\Users\Revanth\AppData\Local\Temp\ccHsQCvB.s 			page 254


 11049 1f08 09       		.uleb128 0x9
 11050 1f09 3E000000 		.4byte	.LVL413
 11051 1f0d 21030000 		.4byte	0x321
 11052 1f11 0A       		.uleb128 0xa
 11053 1f12 44000000 		.4byte	.LVL414
 11054 1f16 DF030000 		.4byte	0x3df
 11055 1f1a 281F0000 		.4byte	0x1f28
 11056 1f1e 0B       		.uleb128 0xb
 11057 1f1f 01       		.uleb128 0x1
 11058 1f20 50       		.byte	0x50
 11059 1f21 05       		.uleb128 0x5
 11060 1f22 03       		.byte	0x3
 11061 1f23 E8030000 		.4byte	.LC32
 11062 1f27 00       		.byte	0
 11063 1f28 0A       		.uleb128 0xa
 11064 1f29 4C000000 		.4byte	.LVL415
 11065 1f2d 380F0000 		.4byte	0xf38
 11066 1f31 411F0000 		.4byte	0x1f41
 11067 1f35 0B       		.uleb128 0xb
 11068 1f36 01       		.uleb128 0x1
 11069 1f37 50       		.byte	0x50
 11070 1f38 02       		.uleb128 0x2
 11071 1f39 75       		.byte	0x75
 11072 1f3a 00       		.sleb128 0
 11073 1f3b 0B       		.uleb128 0xb
 11074 1f3c 01       		.uleb128 0x1
 11075 1f3d 51       		.byte	0x51
 11076 1f3e 01       		.uleb128 0x1
 11077 1f3f 32       		.byte	0x32
 11078 1f40 00       		.byte	0
 11079 1f41 0A       		.uleb128 0xa
 11080 1f42 52000000 		.4byte	.LVL416
 11081 1f46 53170000 		.4byte	0x1753
 11082 1f4a 541F0000 		.4byte	0x1f54
 11083 1f4e 0B       		.uleb128 0xb
 11084 1f4f 01       		.uleb128 0x1
 11085 1f50 50       		.byte	0x50
 11086 1f51 01       		.uleb128 0x1
 11087 1f52 32       		.byte	0x32
 11088 1f53 00       		.byte	0
 11089 1f54 0A       		.uleb128 0xa
 11090 1f55 58000000 		.4byte	.LVL417
 11091 1f59 F53E0000 		.4byte	0x3ef5
 11092 1f5d 681F0000 		.4byte	0x1f68
 11093 1f61 0B       		.uleb128 0xb
 11094 1f62 01       		.uleb128 0x1
 11095 1f63 50       		.byte	0x50
 11096 1f64 02       		.uleb128 0x2
 11097 1f65 08       		.byte	0x8
 11098 1f66 32       		.byte	0x32
 11099 1f67 00       		.byte	0
 11100 1f68 0A       		.uleb128 0xa
 11101 1f69 5E000000 		.4byte	.LVL418
 11102 1f6d 24070000 		.4byte	0x724
 11103 1f71 7C1F0000 		.4byte	0x1f7c
 11104 1f75 0B       		.uleb128 0xb
 11105 1f76 01       		.uleb128 0x1
ARM GAS  C:\Users\Revanth\AppData\Local\Temp\ccHsQCvB.s 			page 255


 11106 1f77 50       		.byte	0x50
 11107 1f78 02       		.uleb128 0x2
 11108 1f79 75       		.byte	0x75
 11109 1f7a 00       		.sleb128 0
 11110 1f7b 00       		.byte	0
 11111 1f7c 0A       		.uleb128 0xa
 11112 1f7d 64000000 		.4byte	.LVL419
 11113 1f81 DF030000 		.4byte	0x3df
 11114 1f85 931F0000 		.4byte	0x1f93
 11115 1f89 0B       		.uleb128 0xb
 11116 1f8a 01       		.uleb128 0x1
 11117 1f8b 50       		.byte	0x50
 11118 1f8c 05       		.uleb128 0x5
 11119 1f8d 03       		.byte	0x3
 11120 1f8e B0020000 		.4byte	.LC21
 11121 1f92 00       		.byte	0
 11122 1f93 0A       		.uleb128 0xa
 11123 1f94 6A000000 		.4byte	.LVL420
 11124 1f98 441D0000 		.4byte	0x1d44
 11125 1f9c A71F0000 		.4byte	0x1fa7
 11126 1fa0 0B       		.uleb128 0xb
 11127 1fa1 01       		.uleb128 0x1
 11128 1fa2 50       		.byte	0x50
 11129 1fa3 02       		.uleb128 0x2
 11130 1fa4 75       		.byte	0x75
 11131 1fa5 00       		.sleb128 0
 11132 1fa6 00       		.byte	0
 11133 1fa7 09       		.uleb128 0x9
 11134 1fa8 6E000000 		.4byte	.LVL421
 11135 1fac 21030000 		.4byte	0x321
 11136 1fb0 0C       		.uleb128 0xc
 11137 1fb1 7C000000 		.4byte	.LVL423
 11138 1fb5 DF030000 		.4byte	0x3df
 11139 1fb9 0B       		.uleb128 0xb
 11140 1fba 01       		.uleb128 0x1
 11141 1fbb 50       		.byte	0x50
 11142 1fbc 05       		.uleb128 0x5
 11143 1fbd 03       		.byte	0x3
 11144 1fbe B8020000 		.4byte	.LC22
 11145 1fc2 00       		.byte	0
 11146 1fc3 00       		.byte	0
 11147 1fc4 1F       		.uleb128 0x1f
 11148 1fc5 2D0B0000 		.4byte	.LASF85
 11149 1fc9 01       		.byte	0x1
 11150 1fca A203     		.2byte	0x3a2
 11151 1fcc 89000000 		.4byte	0x89
 11152 1fd0 00000000 		.4byte	.LFB77
 11153 1fd4 F0000000 		.4byte	.LFE77-.LFB77
 11154 1fd8 01       		.uleb128 0x1
 11155 1fd9 9C       		.byte	0x9c
 11156 1fda DB200000 		.4byte	0x20db
 11157 1fde 0E       		.uleb128 0xe
 11158 1fdf D20B0000 		.4byte	.LASF29
 11159 1fe3 01       		.byte	0x1
 11160 1fe4 A203     		.2byte	0x3a2
 11161 1fe6 10010000 		.4byte	0x110
 11162 1fea A7070000 		.4byte	.LLST41
ARM GAS  C:\Users\Revanth\AppData\Local\Temp\ccHsQCvB.s 			page 256


 11163 1fee 1A       		.uleb128 0x1a
 11164 1fef EB000000 		.4byte	.LASF74
 11165 1ff3 01       		.byte	0x1
 11166 1ff4 A403     		.2byte	0x3a4
 11167 1ff6 97000000 		.4byte	0x97
 11168 1ffa D3070000 		.4byte	.LLST42
 11169 1ffe 1A       		.uleb128 0x1a
 11170 1fff F2090000 		.4byte	.LASF75
 11171 2003 01       		.byte	0x1
 11172 2004 A503     		.2byte	0x3a5
 11173 2006 10010000 		.4byte	0x110
 11174 200a FD070000 		.4byte	.LLST43
 11175 200e 1A       		.uleb128 0x1a
 11176 200f 41090000 		.4byte	.LASF86
 11177 2013 01       		.byte	0x1
 11178 2014 A603     		.2byte	0x3a6
 11179 2016 10010000 		.4byte	0x110
 11180 201a 37080000 		.4byte	.LLST44
 11181 201e 1A       		.uleb128 0x1a
 11182 201f 7A090000 		.4byte	.LASF76
 11183 2023 01       		.byte	0x1
 11184 2024 A803     		.2byte	0x3a8
 11185 2026 10010000 		.4byte	0x110
 11186 202a 61080000 		.4byte	.LLST45
 11187 202e 09       		.uleb128 0x9
 11188 202f 20000000 		.4byte	.LVL432
 11189 2033 21030000 		.4byte	0x321
 11190 2037 0A       		.uleb128 0xa
 11191 2038 5A000000 		.4byte	.LVL440
 11192 203c 380F0000 		.4byte	0xf38
 11193 2040 4A200000 		.4byte	0x204a
 11194 2044 0B       		.uleb128 0xb
 11195 2045 01       		.uleb128 0x1
 11196 2046 51       		.byte	0x51
 11197 2047 01       		.uleb128 0x1
 11198 2048 33       		.byte	0x33
 11199 2049 00       		.byte	0
 11200 204a 0A       		.uleb128 0xa
 11201 204b 60000000 		.4byte	.LVL441
 11202 204f 53170000 		.4byte	0x1753
 11203 2053 5D200000 		.4byte	0x205d
 11204 2057 0B       		.uleb128 0xb
 11205 2058 01       		.uleb128 0x1
 11206 2059 50       		.byte	0x50
 11207 205a 01       		.uleb128 0x1
 11208 205b 33       		.byte	0x33
 11209 205c 00       		.byte	0
 11210 205d 0A       		.uleb128 0xa
 11211 205e 66000000 		.4byte	.LVL442
 11212 2062 F53E0000 		.4byte	0x3ef5
 11213 2066 71200000 		.4byte	0x2071
 11214 206a 0B       		.uleb128 0xb
 11215 206b 01       		.uleb128 0x1
 11216 206c 50       		.byte	0x50
 11217 206d 02       		.uleb128 0x2
 11218 206e 08       		.byte	0x8
 11219 206f 32       		.byte	0x32
ARM GAS  C:\Users\Revanth\AppData\Local\Temp\ccHsQCvB.s 			page 257


 11220 2070 00       		.byte	0
 11221 2071 0A       		.uleb128 0xa
 11222 2072 70000000 		.4byte	.LVL443
 11223 2076 4D0E0000 		.4byte	0xe4d
 11224 207a 90200000 		.4byte	0x2090
 11225 207e 0B       		.uleb128 0xb
 11226 207f 01       		.uleb128 0x1
 11227 2080 50       		.byte	0x50
 11228 2081 02       		.uleb128 0x2
 11229 2082 08       		.byte	0x8
 11230 2083 21       		.byte	0x21
 11231 2084 0B       		.uleb128 0xb
 11232 2085 01       		.uleb128 0x1
 11233 2086 51       		.byte	0x51
 11234 2087 02       		.uleb128 0x2
 11235 2088 77       		.byte	0x77
 11236 2089 00       		.sleb128 0
 11237 208a 0B       		.uleb128 0xb
 11238 208b 01       		.uleb128 0x1
 11239 208c 52       		.byte	0x52
 11240 208d 01       		.uleb128 0x1
 11241 208e 33       		.byte	0x33
 11242 208f 00       		.byte	0
 11243 2090 09       		.uleb128 0x9
 11244 2091 7C000000 		.4byte	.LVL446
 11245 2095 21030000 		.4byte	0x321
 11246 2099 0A       		.uleb128 0xa
 11247 209a A4000000 		.4byte	.LVL450
 11248 209e DF030000 		.4byte	0x3df
 11249 20a2 B0200000 		.4byte	0x20b0
 11250 20a6 0B       		.uleb128 0xb
 11251 20a7 01       		.uleb128 0x1
 11252 20a8 50       		.byte	0x50
 11253 20a9 05       		.uleb128 0x5
 11254 20aa 03       		.byte	0x3
 11255 20ab 04040000 		.4byte	.LC33
 11256 20af 00       		.byte	0
 11257 20b0 0A       		.uleb128 0xa
 11258 20b1 B8000000 		.4byte	.LVL451
 11259 20b5 DF030000 		.4byte	0x3df
 11260 20b9 C7200000 		.4byte	0x20c7
 11261 20bd 0B       		.uleb128 0xb
 11262 20be 01       		.uleb128 0x1
 11263 20bf 50       		.byte	0x50
 11264 20c0 05       		.uleb128 0x5
 11265 20c1 03       		.byte	0x3
 11266 20c2 20040000 		.4byte	.LC34
 11267 20c6 00       		.byte	0
 11268 20c7 0C       		.uleb128 0xc
 11269 20c8 C6000000 		.4byte	.LVL452
 11270 20cc DF030000 		.4byte	0x3df
 11271 20d0 0B       		.uleb128 0xb
 11272 20d1 01       		.uleb128 0x1
 11273 20d2 50       		.byte	0x50
 11274 20d3 05       		.uleb128 0x5
 11275 20d4 03       		.byte	0x3
 11276 20d5 50040000 		.4byte	.LC35
ARM GAS  C:\Users\Revanth\AppData\Local\Temp\ccHsQCvB.s 			page 258


 11277 20d9 00       		.byte	0
 11278 20da 00       		.byte	0
 11279 20db 19       		.uleb128 0x19
 11280 20dc 98050000 		.4byte	.LASF87
 11281 20e0 01       		.byte	0x1
 11282 20e1 8003     		.2byte	0x380
 11283 20e3 89000000 		.4byte	0x89
 11284 20e7 00000000 		.4byte	.LFB76
 11285 20eb 9C000000 		.4byte	.LFE76-.LFB76
 11286 20ef 01       		.uleb128 0x1
 11287 20f0 9C       		.byte	0x9c
 11288 20f1 4A220000 		.4byte	0x224a
 11289 20f5 0E       		.uleb128 0xe
 11290 20f6 83080000 		.4byte	.LASF88
 11291 20fa 01       		.byte	0x1
 11292 20fb 8003     		.2byte	0x380
 11293 20fd 10010000 		.4byte	0x110
 11294 2101 99080000 		.4byte	.LLST46
 11295 2105 0A       		.uleb128 0xa
 11296 2106 0A000000 		.4byte	.LVL456
 11297 210a CA3F0000 		.4byte	0x3fca
 11298 210e 18210000 		.4byte	0x2118
 11299 2112 0B       		.uleb128 0xb
 11300 2113 01       		.uleb128 0x1
 11301 2114 50       		.byte	0x50
 11302 2115 01       		.uleb128 0x1
 11303 2116 30       		.byte	0x30
 11304 2117 00       		.byte	0
 11305 2118 0A       		.uleb128 0xa
 11306 2119 10000000 		.4byte	.LVL457
 11307 211d F53E0000 		.4byte	0x3ef5
 11308 2121 2C210000 		.4byte	0x212c
 11309 2125 0B       		.uleb128 0xb
 11310 2126 01       		.uleb128 0x1
 11311 2127 50       		.byte	0x50
 11312 2128 02       		.uleb128 0x2
 11313 2129 08       		.byte	0x8
 11314 212a 64       		.byte	0x64
 11315 212b 00       		.byte	0
 11316 212c 09       		.uleb128 0x9
 11317 212d 1A000000 		.4byte	.LVL458
 11318 2131 33020000 		.4byte	0x233
 11319 2135 09       		.uleb128 0x9
 11320 2136 1E000000 		.4byte	.LVL459
 11321 213a EF080000 		.4byte	0x8ef
 11322 213e 09       		.uleb128 0x9
 11323 213f 2A000000 		.4byte	.LVL460
 11324 2143 21030000 		.4byte	0x321
 11325 2147 0A       		.uleb128 0xa
 11326 2148 30000000 		.4byte	.LVL461
 11327 214c DF030000 		.4byte	0x3df
 11328 2150 5E210000 		.4byte	0x215e
 11329 2154 0B       		.uleb128 0xb
 11330 2155 01       		.uleb128 0x1
 11331 2156 50       		.byte	0x50
 11332 2157 05       		.uleb128 0x5
 11333 2158 03       		.byte	0x3
ARM GAS  C:\Users\Revanth\AppData\Local\Temp\ccHsQCvB.s 			page 259


 11334 2159 64040000 		.4byte	.LC36
 11335 215d 00       		.byte	0
 11336 215e 0A       		.uleb128 0xa
 11337 215f 38000000 		.4byte	.LVL462
 11338 2163 380F0000 		.4byte	0xf38
 11339 2167 77210000 		.4byte	0x2177
 11340 216b 0B       		.uleb128 0xb
 11341 216c 01       		.uleb128 0x1
 11342 216d 50       		.byte	0x50
 11343 216e 02       		.uleb128 0x2
 11344 216f 74       		.byte	0x74
 11345 2170 00       		.sleb128 0
 11346 2171 0B       		.uleb128 0xb
 11347 2172 01       		.uleb128 0x1
 11348 2173 51       		.byte	0x51
 11349 2174 01       		.uleb128 0x1
 11350 2175 33       		.byte	0x33
 11351 2176 00       		.byte	0
 11352 2177 0A       		.uleb128 0xa
 11353 2178 3E000000 		.4byte	.LVL463
 11354 217c 53170000 		.4byte	0x1753
 11355 2180 8A210000 		.4byte	0x218a
 11356 2184 0B       		.uleb128 0xb
 11357 2185 01       		.uleb128 0x1
 11358 2186 50       		.byte	0x50
 11359 2187 01       		.uleb128 0x1
 11360 2188 33       		.byte	0x33
 11361 2189 00       		.byte	0
 11362 218a 0A       		.uleb128 0xa
 11363 218b 44000000 		.4byte	.LVL464
 11364 218f F53E0000 		.4byte	0x3ef5
 11365 2193 9E210000 		.4byte	0x219e
 11366 2197 0B       		.uleb128 0xb
 11367 2198 01       		.uleb128 0x1
 11368 2199 50       		.byte	0x50
 11369 219a 02       		.uleb128 0x2
 11370 219b 08       		.byte	0x8
 11371 219c 32       		.byte	0x32
 11372 219d 00       		.byte	0
 11373 219e 0A       		.uleb128 0xa
 11374 219f 4A000000 		.4byte	.LVL465
 11375 21a3 24070000 		.4byte	0x724
 11376 21a7 B2210000 		.4byte	0x21b2
 11377 21ab 0B       		.uleb128 0xb
 11378 21ac 01       		.uleb128 0x1
 11379 21ad 50       		.byte	0x50
 11380 21ae 02       		.uleb128 0x2
 11381 21af 74       		.byte	0x74
 11382 21b0 00       		.sleb128 0
 11383 21b1 00       		.byte	0
 11384 21b2 0A       		.uleb128 0xa
 11385 21b3 50000000 		.4byte	.LVL466
 11386 21b7 DF030000 		.4byte	0x3df
 11387 21bb C9210000 		.4byte	0x21c9
 11388 21bf 0B       		.uleb128 0xb
 11389 21c0 01       		.uleb128 0x1
 11390 21c1 50       		.byte	0x50
ARM GAS  C:\Users\Revanth\AppData\Local\Temp\ccHsQCvB.s 			page 260


 11391 21c2 05       		.uleb128 0x5
 11392 21c3 03       		.byte	0x3
 11393 21c4 B0020000 		.4byte	.LC21
 11394 21c8 00       		.byte	0
 11395 21c9 0A       		.uleb128 0xa
 11396 21ca 56000000 		.4byte	.LVL467
 11397 21ce C41F0000 		.4byte	0x1fc4
 11398 21d2 DD210000 		.4byte	0x21dd
 11399 21d6 0B       		.uleb128 0xb
 11400 21d7 01       		.uleb128 0x1
 11401 21d8 50       		.byte	0x50
 11402 21d9 02       		.uleb128 0x2
 11403 21da 74       		.byte	0x74
 11404 21db 00       		.sleb128 0
 11405 21dc 00       		.byte	0
 11406 21dd 09       		.uleb128 0x9
 11407 21de 5A000000 		.4byte	.LVL468
 11408 21e2 21030000 		.4byte	0x321
 11409 21e6 0A       		.uleb128 0xa
 11410 21e7 64000000 		.4byte	.LVL469
 11411 21eb CA3F0000 		.4byte	0x3fca
 11412 21ef FA210000 		.4byte	0x21fa
 11413 21f3 0B       		.uleb128 0xb
 11414 21f4 01       		.uleb128 0x1
 11415 21f5 50       		.byte	0x50
 11416 21f6 02       		.uleb128 0x2
 11417 21f7 09       		.byte	0x9
 11418 21f8 FF       		.byte	0xff
 11419 21f9 00       		.byte	0
 11420 21fa 0A       		.uleb128 0xa
 11421 21fb 6A000000 		.4byte	.LVL470
 11422 21ff F53E0000 		.4byte	0x3ef5
 11423 2203 0E220000 		.4byte	0x220e
 11424 2207 0B       		.uleb128 0xb
 11425 2208 01       		.uleb128 0x1
 11426 2209 50       		.byte	0x50
 11427 220a 02       		.uleb128 0x2
 11428 220b 08       		.byte	0x8
 11429 220c 64       		.byte	0x64
 11430 220d 00       		.byte	0
 11431 220e 0A       		.uleb128 0xa
 11432 220f 74000000 		.4byte	.LVL472
 11433 2213 DF030000 		.4byte	0x3df
 11434 2217 25220000 		.4byte	0x2225
 11435 221b 0B       		.uleb128 0xb
 11436 221c 01       		.uleb128 0x1
 11437 221d 50       		.byte	0x50
 11438 221e 05       		.uleb128 0x5
 11439 221f 03       		.byte	0x3
 11440 2220 B8020000 		.4byte	.LC22
 11441 2224 00       		.byte	0
 11442 2225 0A       		.uleb128 0xa
 11443 2226 80000000 		.4byte	.LVL474
 11444 222a CA3F0000 		.4byte	0x3fca
 11445 222e 39220000 		.4byte	0x2239
 11446 2232 0B       		.uleb128 0xb
 11447 2233 01       		.uleb128 0x1
ARM GAS  C:\Users\Revanth\AppData\Local\Temp\ccHsQCvB.s 			page 261


 11448 2234 50       		.byte	0x50
 11449 2235 02       		.uleb128 0x2
 11450 2236 09       		.byte	0x9
 11451 2237 FF       		.byte	0xff
 11452 2238 00       		.byte	0
 11453 2239 0C       		.uleb128 0xc
 11454 223a 86000000 		.4byte	.LVL475
 11455 223e F53E0000 		.4byte	0x3ef5
 11456 2242 0B       		.uleb128 0xb
 11457 2243 01       		.uleb128 0x1
 11458 2244 50       		.byte	0x50
 11459 2245 02       		.uleb128 0x2
 11460 2246 08       		.byte	0x8
 11461 2247 64       		.byte	0x64
 11462 2248 00       		.byte	0
 11463 2249 00       		.byte	0
 11464 224a 19       		.uleb128 0x19
 11465 224b 35020000 		.4byte	.LASF89
 11466 224f 01       		.byte	0x1
 11467 2250 E303     		.2byte	0x3e3
 11468 2252 89000000 		.4byte	0x89
 11469 2256 00000000 		.4byte	.LFB78
 11470 225a 9C000000 		.4byte	.LFE78-.LFB78
 11471 225e 01       		.uleb128 0x1
 11472 225f 9C       		.byte	0x9c
 11473 2260 95230000 		.4byte	0x2395
 11474 2264 0E       		.uleb128 0xe
 11475 2265 C8090000 		.4byte	.LASF71
 11476 2269 01       		.byte	0x1
 11477 226a E303     		.2byte	0x3e3
 11478 226c 10010000 		.4byte	0x110
 11479 2270 C5080000 		.4byte	.LLST47
 11480 2274 0E       		.uleb128 0xe
 11481 2275 33030000 		.4byte	.LASF80
 11482 2279 01       		.byte	0x1
 11483 227a E303     		.2byte	0x3e3
 11484 227c 10010000 		.4byte	0x110
 11485 2280 F1080000 		.4byte	.LLST48
 11486 2284 0E       		.uleb128 0xe
 11487 2285 FC0B0000 		.4byte	.LASF84
 11488 2289 01       		.byte	0x1
 11489 228a E303     		.2byte	0x3e3
 11490 228c 10010000 		.4byte	0x110
 11491 2290 1D090000 		.4byte	.LLST49
 11492 2294 09       		.uleb128 0x9
 11493 2295 0C000000 		.4byte	.LVL477
 11494 2299 21030000 		.4byte	0x321
 11495 229d 0A       		.uleb128 0xa
 11496 229e 12000000 		.4byte	.LVL478
 11497 22a2 DF030000 		.4byte	0x3df
 11498 22a6 B4220000 		.4byte	0x22b4
 11499 22aa 0B       		.uleb128 0xb
 11500 22ab 01       		.uleb128 0x1
 11501 22ac 50       		.byte	0x50
 11502 22ad 05       		.uleb128 0x5
 11503 22ae 03       		.byte	0x3
 11504 22af 94020000 		.4byte	.LC20
ARM GAS  C:\Users\Revanth\AppData\Local\Temp\ccHsQCvB.s 			page 262


 11505 22b3 00       		.byte	0
 11506 22b4 0A       		.uleb128 0xa
 11507 22b5 1E000000 		.4byte	.LVL479
 11508 22b9 380F0000 		.4byte	0xf38
 11509 22bd CD220000 		.4byte	0x22cd
 11510 22c1 0B       		.uleb128 0xb
 11511 22c2 01       		.uleb128 0x1
 11512 22c3 50       		.byte	0x50
 11513 22c4 02       		.uleb128 0x2
 11514 22c5 76       		.byte	0x76
 11515 22c6 00       		.sleb128 0
 11516 22c7 0B       		.uleb128 0xb
 11517 22c8 01       		.uleb128 0x1
 11518 22c9 51       		.byte	0x51
 11519 22ca 01       		.uleb128 0x1
 11520 22cb 30       		.byte	0x30
 11521 22cc 00       		.byte	0
 11522 22cd 0A       		.uleb128 0xa
 11523 22ce 2A000000 		.4byte	.LVL480
 11524 22d2 380F0000 		.4byte	0xf38
 11525 22d6 E6220000 		.4byte	0x22e6
 11526 22da 0B       		.uleb128 0xb
 11527 22db 01       		.uleb128 0x1
 11528 22dc 50       		.byte	0x50
 11529 22dd 02       		.uleb128 0x2
 11530 22de 75       		.byte	0x75
 11531 22df 00       		.sleb128 0
 11532 22e0 0B       		.uleb128 0xb
 11533 22e1 01       		.uleb128 0x1
 11534 22e2 51       		.byte	0x51
 11535 22e3 01       		.uleb128 0x1
 11536 22e4 31       		.byte	0x31
 11537 22e5 00       		.byte	0
 11538 22e6 09       		.uleb128 0x9
 11539 22e7 38000000 		.4byte	.LVL481
 11540 22eb 7F020000 		.4byte	0x27f
 11541 22ef 0A       		.uleb128 0xa
 11542 22f0 40000000 		.4byte	.LVL482
 11543 22f4 380F0000 		.4byte	0xf38
 11544 22f8 08230000 		.4byte	0x2308
 11545 22fc 0B       		.uleb128 0xb
 11546 22fd 01       		.uleb128 0x1
 11547 22fe 50       		.byte	0x50
 11548 22ff 02       		.uleb128 0x2
 11549 2300 74       		.byte	0x74
 11550 2301 00       		.sleb128 0
 11551 2302 0B       		.uleb128 0xb
 11552 2303 01       		.uleb128 0x1
 11553 2304 51       		.byte	0x51
 11554 2305 01       		.uleb128 0x1
 11555 2306 32       		.byte	0x32
 11556 2307 00       		.byte	0
 11557 2308 0A       		.uleb128 0xa
 11558 2309 4A000000 		.4byte	.LVL483
 11559 230d 53170000 		.4byte	0x1753
 11560 2311 1B230000 		.4byte	0x231b
 11561 2315 0B       		.uleb128 0xb
ARM GAS  C:\Users\Revanth\AppData\Local\Temp\ccHsQCvB.s 			page 263


 11562 2316 01       		.uleb128 0x1
 11563 2317 50       		.byte	0x50
 11564 2318 01       		.uleb128 0x1
 11565 2319 30       		.byte	0x30
 11566 231a 00       		.byte	0
 11567 231b 0A       		.uleb128 0xa
 11568 231c 54000000 		.4byte	.LVL484
 11569 2320 53170000 		.4byte	0x1753
 11570 2324 2E230000 		.4byte	0x232e
 11571 2328 0B       		.uleb128 0xb
 11572 2329 01       		.uleb128 0x1
 11573 232a 50       		.byte	0x50
 11574 232b 01       		.uleb128 0x1
 11575 232c 31       		.byte	0x31
 11576 232d 00       		.byte	0
 11577 232e 0A       		.uleb128 0xa
 11578 232f 5E000000 		.4byte	.LVL485
 11579 2333 53170000 		.4byte	0x1753
 11580 2337 41230000 		.4byte	0x2341
 11581 233b 0B       		.uleb128 0xb
 11582 233c 01       		.uleb128 0x1
 11583 233d 50       		.byte	0x50
 11584 233e 01       		.uleb128 0x1
 11585 233f 32       		.byte	0x32
 11586 2340 00       		.byte	0
 11587 2341 0A       		.uleb128 0xa
 11588 2342 68000000 		.4byte	.LVL486
 11589 2346 D01A0000 		.4byte	0x1ad0
 11590 234a 55230000 		.4byte	0x2355
 11591 234e 0B       		.uleb128 0xb
 11592 234f 01       		.uleb128 0x1
 11593 2350 50       		.byte	0x50
 11594 2351 02       		.uleb128 0x2
 11595 2352 75       		.byte	0x75
 11596 2353 00       		.sleb128 0
 11597 2354 00       		.byte	0
 11598 2355 0A       		.uleb128 0xa
 11599 2356 72000000 		.4byte	.LVL487
 11600 235a 441D0000 		.4byte	0x1d44
 11601 235e 69230000 		.4byte	0x2369
 11602 2362 0B       		.uleb128 0xb
 11603 2363 01       		.uleb128 0x1
 11604 2364 50       		.byte	0x50
 11605 2365 02       		.uleb128 0x2
 11606 2366 74       		.byte	0x74
 11607 2367 00       		.sleb128 0
 11608 2368 00       		.byte	0
 11609 2369 09       		.uleb128 0x9
 11610 236a 76000000 		.4byte	.LVL488
 11611 236e 21030000 		.4byte	0x321
 11612 2372 09       		.uleb128 0x9
 11613 2373 80000000 		.4byte	.LVL489
 11614 2377 21030000 		.4byte	0x321
 11615 237b 09       		.uleb128 0x9
 11616 237c 8A000000 		.4byte	.LVL490
 11617 2380 3C060000 		.4byte	0x63c
 11618 2384 0C       		.uleb128 0xc
ARM GAS  C:\Users\Revanth\AppData\Local\Temp\ccHsQCvB.s 			page 264


 11619 2385 90000000 		.4byte	.LVL491
 11620 2389 F53E0000 		.4byte	0x3ef5
 11621 238d 0B       		.uleb128 0xb
 11622 238e 01       		.uleb128 0x1
 11623 238f 50       		.byte	0x50
 11624 2390 02       		.uleb128 0x2
 11625 2391 08       		.byte	0x8
 11626 2392 32       		.byte	0x32
 11627 2393 00       		.byte	0
 11628 2394 00       		.byte	0
 11629 2395 19       		.uleb128 0x19
 11630 2396 3E020000 		.4byte	.LASF90
 11631 239a 01       		.byte	0x1
 11632 239b BC08     		.2byte	0x8bc
 11633 239d 89000000 		.4byte	0x89
 11634 23a1 00000000 		.4byte	.LFB108
 11635 23a5 10000000 		.4byte	.LFE108-.LFB108
 11636 23a9 01       		.uleb128 0x1
 11637 23aa 9C       		.byte	0x9c
 11638 23ab E7230000 		.4byte	0x23e7
 11639 23af 0E       		.uleb128 0xe
 11640 23b0 E1030000 		.4byte	.LASF91
 11641 23b4 01       		.byte	0x1
 11642 23b5 BC08     		.2byte	0x8bc
 11643 23b7 89000000 		.4byte	0x89
 11644 23bb 49090000 		.4byte	.LLST50
 11645 23bf 0E       		.uleb128 0xe
 11646 23c0 1B060000 		.4byte	.LASF56
 11647 23c4 01       		.byte	0x1
 11648 23c5 BC08     		.2byte	0x8bc
 11649 23c7 97000000 		.4byte	0x97
 11650 23cb 75090000 		.4byte	.LLST51
 11651 23cf 0C       		.uleb128 0xc
 11652 23d0 0C000000 		.4byte	.LVL496
 11653 23d4 4D0E0000 		.4byte	0xe4d
 11654 23d8 0B       		.uleb128 0xb
 11655 23d9 01       		.uleb128 0x1
 11656 23da 50       		.byte	0x50
 11657 23db 02       		.uleb128 0x2
 11658 23dc 08       		.byte	0x8
 11659 23dd 27       		.byte	0x27
 11660 23de 0B       		.uleb128 0xb
 11661 23df 01       		.uleb128 0x1
 11662 23e0 51       		.byte	0x51
 11663 23e1 03       		.uleb128 0x3
 11664 23e2 F3       		.byte	0xf3
 11665 23e3 01       		.uleb128 0x1
 11666 23e4 50       		.byte	0x50
 11667 23e5 00       		.byte	0
 11668 23e6 00       		.byte	0
 11669 23e7 1B       		.uleb128 0x1b
 11670 23e8 8E040000 		.4byte	.LASF92
 11671 23ec 01       		.byte	0x1
 11672 23ed A4       		.byte	0xa4
 11673 23ee 00000000 		.4byte	.LFB66
 11674 23f2 7C010000 		.4byte	.LFE66-.LFB66
 11675 23f6 01       		.uleb128 0x1
ARM GAS  C:\Users\Revanth\AppData\Local\Temp\ccHsQCvB.s 			page 265


 11676 23f7 9C       		.byte	0x9c
 11677 23f8 EC260000 		.4byte	0x26ec
 11678 23fc 1D       		.uleb128 0x1d
 11679 23fd 1B060000 		.4byte	.LASF56
 11680 2401 01       		.byte	0x1
 11681 2402 A4       		.byte	0xa4
 11682 2403 97000000 		.4byte	0x97
 11683 2407 96090000 		.4byte	.LLST52
 11684 240b 0A       		.uleb128 0xa
 11685 240c 10000000 		.4byte	.LVL499
 11686 2410 95230000 		.4byte	0x2395
 11687 2414 27240000 		.4byte	0x2427
 11688 2418 0B       		.uleb128 0xb
 11689 2419 01       		.uleb128 0x1
 11690 241a 50       		.byte	0x50
 11691 241b 04       		.uleb128 0x4
 11692 241c 08       		.byte	0x8
 11693 241d 96       		.byte	0x96
 11694 241e 3B       		.byte	0x3b
 11695 241f 24       		.byte	0x24
 11696 2420 0B       		.uleb128 0xb
 11697 2421 01       		.uleb128 0x1
 11698 2422 51       		.byte	0x51
 11699 2423 02       		.uleb128 0x2
 11700 2424 74       		.byte	0x74
 11701 2425 00       		.sleb128 0
 11702 2426 00       		.byte	0
 11703 2427 0A       		.uleb128 0xa
 11704 2428 1A000000 		.4byte	.LVL500
 11705 242c 4D0E0000 		.4byte	0xe4d
 11706 2430 46240000 		.4byte	0x2446
 11707 2434 0B       		.uleb128 0xb
 11708 2435 01       		.uleb128 0x1
 11709 2436 50       		.byte	0x50
 11710 2437 02       		.uleb128 0x2
 11711 2438 08       		.byte	0x8
 11712 2439 20       		.byte	0x20
 11713 243a 0B       		.uleb128 0xb
 11714 243b 01       		.uleb128 0x1
 11715 243c 51       		.byte	0x51
 11716 243d 01       		.uleb128 0x1
 11717 243e 32       		.byte	0x32
 11718 243f 0B       		.uleb128 0xb
 11719 2440 01       		.uleb128 0x1
 11720 2441 52       		.byte	0x52
 11721 2442 02       		.uleb128 0x2
 11722 2443 74       		.byte	0x74
 11723 2444 00       		.sleb128 0
 11724 2445 00       		.byte	0
 11725 2446 0A       		.uleb128 0xa
 11726 2447 20000000 		.4byte	.LVL501
 11727 244b F53E0000 		.4byte	0x3ef5
 11728 244f 5A240000 		.4byte	0x245a
 11729 2453 0B       		.uleb128 0xb
 11730 2454 01       		.uleb128 0x1
 11731 2455 50       		.byte	0x50
 11732 2456 02       		.uleb128 0x2
ARM GAS  C:\Users\Revanth\AppData\Local\Temp\ccHsQCvB.s 			page 266


 11733 2457 08       		.byte	0x8
 11734 2458 C8       		.byte	0xc8
 11735 2459 00       		.byte	0
 11736 245a 0A       		.uleb128 0xa
 11737 245b 2C000000 		.4byte	.LVL502
 11738 245f B70B0000 		.4byte	0xbb7
 11739 2463 79240000 		.4byte	0x2479
 11740 2467 0B       		.uleb128 0xb
 11741 2468 01       		.uleb128 0x1
 11742 2469 50       		.byte	0x50
 11743 246a 01       		.uleb128 0x1
 11744 246b 34       		.byte	0x34
 11745 246c 0B       		.uleb128 0xb
 11746 246d 01       		.uleb128 0x1
 11747 246e 51       		.byte	0x51
 11748 246f 02       		.uleb128 0x2
 11749 2470 74       		.byte	0x74
 11750 2471 00       		.sleb128 0
 11751 2472 0B       		.uleb128 0xb
 11752 2473 01       		.uleb128 0x1
 11753 2474 52       		.byte	0x52
 11754 2475 02       		.uleb128 0x2
 11755 2476 75       		.byte	0x75
 11756 2477 00       		.sleb128 0
 11757 2478 00       		.byte	0
 11758 2479 0A       		.uleb128 0xa
 11759 247a 34000000 		.4byte	.LVL503
 11760 247e F53E0000 		.4byte	0x3ef5
 11761 2482 8E240000 		.4byte	0x248e
 11762 2486 0B       		.uleb128 0xb
 11763 2487 01       		.uleb128 0x1
 11764 2488 50       		.byte	0x50
 11765 2489 03       		.uleb128 0x3
 11766 248a 0A       		.byte	0xa
 11767 248b F401     		.2byte	0x1f4
 11768 248d 00       		.byte	0
 11769 248e 0A       		.uleb128 0xa
 11770 248f 3E000000 		.4byte	.LVL504
 11771 2493 B70B0000 		.4byte	0xbb7
 11772 2497 AD240000 		.4byte	0x24ad
 11773 249b 0B       		.uleb128 0xb
 11774 249c 01       		.uleb128 0x1
 11775 249d 50       		.byte	0x50
 11776 249e 01       		.uleb128 0x1
 11777 249f 34       		.byte	0x34
 11778 24a0 0B       		.uleb128 0xb
 11779 24a1 01       		.uleb128 0x1
 11780 24a2 51       		.byte	0x51
 11781 24a3 02       		.uleb128 0x2
 11782 24a4 74       		.byte	0x74
 11783 24a5 00       		.sleb128 0
 11784 24a6 0B       		.uleb128 0xb
 11785 24a7 01       		.uleb128 0x1
 11786 24a8 52       		.byte	0x52
 11787 24a9 02       		.uleb128 0x2
 11788 24aa 75       		.byte	0x75
 11789 24ab 00       		.sleb128 0
ARM GAS  C:\Users\Revanth\AppData\Local\Temp\ccHsQCvB.s 			page 267


 11790 24ac 00       		.byte	0
 11791 24ad 09       		.uleb128 0x9
 11792 24ae 44000000 		.4byte	.LVL505
 11793 24b2 D53F0000 		.4byte	0x3fd5
 11794 24b6 0A       		.uleb128 0xa
 11795 24b7 4A000000 		.4byte	.LVL506
 11796 24bb E03F0000 		.4byte	0x3fe0
 11797 24bf CD240000 		.4byte	0x24cd
 11798 24c3 0B       		.uleb128 0xb
 11799 24c4 01       		.uleb128 0x1
 11800 24c5 50       		.byte	0x50
 11801 24c6 05       		.uleb128 0x5
 11802 24c7 03       		.byte	0x3
 11803 24c8 00000000 		.4byte	wait_interrupt_Handler
 11804 24cc 00       		.byte	0
 11805 24cd 0A       		.uleb128 0xa
 11806 24ce 54000000 		.4byte	.LVL507
 11807 24d2 B70B0000 		.4byte	0xbb7
 11808 24d6 EC240000 		.4byte	0x24ec
 11809 24da 0B       		.uleb128 0xb
 11810 24db 01       		.uleb128 0x1
 11811 24dc 50       		.byte	0x50
 11812 24dd 01       		.uleb128 0x1
 11813 24de 34       		.byte	0x34
 11814 24df 0B       		.uleb128 0xb
 11815 24e0 01       		.uleb128 0x1
 11816 24e1 51       		.byte	0x51
 11817 24e2 02       		.uleb128 0x2
 11818 24e3 74       		.byte	0x74
 11819 24e4 00       		.sleb128 0
 11820 24e5 0B       		.uleb128 0xb
 11821 24e6 01       		.uleb128 0x1
 11822 24e7 52       		.byte	0x52
 11823 24e8 02       		.uleb128 0x2
 11824 24e9 75       		.byte	0x75
 11825 24ea 00       		.sleb128 0
 11826 24eb 00       		.byte	0
 11827 24ec 0A       		.uleb128 0xa
 11828 24ed 5A000000 		.4byte	.LVL508
 11829 24f1 F53E0000 		.4byte	0x3ef5
 11830 24f5 00250000 		.4byte	0x2500
 11831 24f9 0B       		.uleb128 0xb
 11832 24fa 01       		.uleb128 0x1
 11833 24fb 50       		.byte	0x50
 11834 24fc 02       		.uleb128 0x2
 11835 24fd 08       		.byte	0x8
 11836 24fe 64       		.byte	0x64
 11837 24ff 00       		.byte	0
 11838 2500 0A       		.uleb128 0xa
 11839 2501 6A000000 		.4byte	.LVL509
 11840 2505 3C060000 		.4byte	0x63c
 11841 2509 13250000 		.4byte	0x2513
 11842 250d 0B       		.uleb128 0xb
 11843 250e 01       		.uleb128 0x1
 11844 250f 50       		.byte	0x50
 11845 2510 01       		.uleb128 0x1
 11846 2511 31       		.byte	0x31
ARM GAS  C:\Users\Revanth\AppData\Local\Temp\ccHsQCvB.s 			page 268


 11847 2512 00       		.byte	0
 11848 2513 09       		.uleb128 0x9
 11849 2514 6E000000 		.4byte	.LVL510
 11850 2518 EB3F0000 		.4byte	0x3feb
 11851 251c 0A       		.uleb128 0xa
 11852 251d 78000000 		.4byte	.LVL511
 11853 2521 4D0E0000 		.4byte	0xe4d
 11854 2525 3B250000 		.4byte	0x253b
 11855 2529 0B       		.uleb128 0xb
 11856 252a 01       		.uleb128 0x1
 11857 252b 50       		.byte	0x50
 11858 252c 02       		.uleb128 0x2
 11859 252d 08       		.byte	0x8
 11860 252e 20       		.byte	0x20
 11861 252f 0B       		.uleb128 0xb
 11862 2530 01       		.uleb128 0x1
 11863 2531 51       		.byte	0x51
 11864 2532 01       		.uleb128 0x1
 11865 2533 30       		.byte	0x30
 11866 2534 0B       		.uleb128 0xb
 11867 2535 01       		.uleb128 0x1
 11868 2536 52       		.byte	0x52
 11869 2537 02       		.uleb128 0x2
 11870 2538 74       		.byte	0x74
 11871 2539 00       		.sleb128 0
 11872 253a 00       		.byte	0
 11873 253b 0A       		.uleb128 0xa
 11874 253c 82000000 		.4byte	.LVL512
 11875 2540 4D0E0000 		.4byte	0xe4d
 11876 2544 5A250000 		.4byte	0x255a
 11877 2548 0B       		.uleb128 0xb
 11878 2549 01       		.uleb128 0x1
 11879 254a 50       		.byte	0x50
 11880 254b 02       		.uleb128 0x2
 11881 254c 08       		.byte	0x8
 11882 254d 21       		.byte	0x21
 11883 254e 0B       		.uleb128 0xb
 11884 254f 01       		.uleb128 0x1
 11885 2550 51       		.byte	0x51
 11886 2551 01       		.uleb128 0x1
 11887 2552 30       		.byte	0x30
 11888 2553 0B       		.uleb128 0xb
 11889 2554 01       		.uleb128 0x1
 11890 2555 52       		.byte	0x52
 11891 2556 02       		.uleb128 0x2
 11892 2557 74       		.byte	0x74
 11893 2558 00       		.sleb128 0
 11894 2559 00       		.byte	0
 11895 255a 0A       		.uleb128 0xa
 11896 255b 8C000000 		.4byte	.LVL513
 11897 255f 4D0E0000 		.4byte	0xe4d
 11898 2563 79250000 		.4byte	0x2579
 11899 2567 0B       		.uleb128 0xb
 11900 2568 01       		.uleb128 0x1
 11901 2569 50       		.byte	0x50
 11902 256a 02       		.uleb128 0x2
 11903 256b 08       		.byte	0x8
ARM GAS  C:\Users\Revanth\AppData\Local\Temp\ccHsQCvB.s 			page 269


 11904 256c 2D       		.byte	0x2d
 11905 256d 0B       		.uleb128 0xb
 11906 256e 01       		.uleb128 0x1
 11907 256f 51       		.byte	0x51
 11908 2570 01       		.uleb128 0x1
 11909 2571 30       		.byte	0x30
 11910 2572 0B       		.uleb128 0xb
 11911 2573 01       		.uleb128 0x1
 11912 2574 52       		.byte	0x52
 11913 2575 02       		.uleb128 0x2
 11914 2576 74       		.byte	0x74
 11915 2577 00       		.sleb128 0
 11916 2578 00       		.byte	0
 11917 2579 09       		.uleb128 0x9
 11918 257a A4000000 		.4byte	.LVL514
 11919 257e EB3F0000 		.4byte	0x3feb
 11920 2582 0A       		.uleb128 0xa
 11921 2583 B4000000 		.4byte	.LVL515
 11922 2587 4D0E0000 		.4byte	0xe4d
 11923 258b A2250000 		.4byte	0x25a2
 11924 258f 0B       		.uleb128 0xb
 11925 2590 01       		.uleb128 0x1
 11926 2591 50       		.byte	0x50
 11927 2592 02       		.uleb128 0x2
 11928 2593 08       		.byte	0x8
 11929 2594 21       		.byte	0x21
 11930 2595 0B       		.uleb128 0xb
 11931 2596 01       		.uleb128 0x1
 11932 2597 51       		.byte	0x51
 11933 2598 02       		.uleb128 0x2
 11934 2599 76       		.byte	0x76
 11935 259a 00       		.sleb128 0
 11936 259b 0B       		.uleb128 0xb
 11937 259c 01       		.uleb128 0x1
 11938 259d 52       		.byte	0x52
 11939 259e 02       		.uleb128 0x2
 11940 259f 74       		.byte	0x74
 11941 25a0 00       		.sleb128 0
 11942 25a1 00       		.byte	0
 11943 25a2 0A       		.uleb128 0xa
 11944 25a3 BA000000 		.4byte	.LVL516
 11945 25a7 F53E0000 		.4byte	0x3ef5
 11946 25ab B5250000 		.4byte	0x25b5
 11947 25af 0B       		.uleb128 0xb
 11948 25b0 01       		.uleb128 0x1
 11949 25b1 50       		.byte	0x50
 11950 25b2 01       		.uleb128 0x1
 11951 25b3 3A       		.byte	0x3a
 11952 25b4 00       		.byte	0
 11953 25b5 0A       		.uleb128 0xa
 11954 25b6 C4000000 		.4byte	.LVL517
 11955 25ba 4D0E0000 		.4byte	0xe4d
 11956 25be D5250000 		.4byte	0x25d5
 11957 25c2 0B       		.uleb128 0xb
 11958 25c3 01       		.uleb128 0x1
 11959 25c4 50       		.byte	0x50
 11960 25c5 02       		.uleb128 0x2
ARM GAS  C:\Users\Revanth\AppData\Local\Temp\ccHsQCvB.s 			page 270


 11961 25c6 08       		.byte	0x8
 11962 25c7 21       		.byte	0x21
 11963 25c8 0B       		.uleb128 0xb
 11964 25c9 01       		.uleb128 0x1
 11965 25ca 51       		.byte	0x51
 11966 25cb 02       		.uleb128 0x2
 11967 25cc 76       		.byte	0x76
 11968 25cd 00       		.sleb128 0
 11969 25ce 0B       		.uleb128 0xb
 11970 25cf 01       		.uleb128 0x1
 11971 25d0 52       		.byte	0x52
 11972 25d1 02       		.uleb128 0x2
 11973 25d2 74       		.byte	0x74
 11974 25d3 00       		.sleb128 0
 11975 25d4 00       		.byte	0
 11976 25d5 0A       		.uleb128 0xa
 11977 25d6 CA000000 		.4byte	.LVL518
 11978 25da F63F0000 		.4byte	0x3ff6
 11979 25de E9250000 		.4byte	0x25e9
 11980 25e2 0B       		.uleb128 0xb
 11981 25e3 01       		.uleb128 0x1
 11982 25e4 50       		.byte	0x50
 11983 25e5 02       		.uleb128 0x2
 11984 25e6 76       		.byte	0x76
 11985 25e7 00       		.sleb128 0
 11986 25e8 00       		.byte	0
 11987 25e9 0A       		.uleb128 0xa
 11988 25ea E6000000 		.4byte	.LVL519
 11989 25ee F53E0000 		.4byte	0x3ef5
 11990 25f2 FD250000 		.4byte	0x25fd
 11991 25f6 0B       		.uleb128 0xb
 11992 25f7 01       		.uleb128 0x1
 11993 25f8 50       		.byte	0x50
 11994 25f9 02       		.uleb128 0x2
 11995 25fa 08       		.byte	0x8
 11996 25fb 64       		.byte	0x64
 11997 25fc 00       		.byte	0
 11998 25fd 0A       		.uleb128 0xa
 11999 25fe EE000000 		.4byte	.LVL520
 12000 2602 31180000 		.4byte	0x1831
 12001 2606 12260000 		.4byte	0x2612
 12002 260a 0B       		.uleb128 0xb
 12003 260b 01       		.uleb128 0x1
 12004 260c 50       		.byte	0x50
 12005 260d 03       		.uleb128 0x3
 12006 260e 0A       		.byte	0xa
 12007 260f 00C8     		.2byte	0xc800
 12008 2611 00       		.byte	0
 12009 2612 0A       		.uleb128 0xa
 12010 2613 14010000 		.4byte	.LVL521
 12011 2617 F53E0000 		.4byte	0x3ef5
 12012 261b 26260000 		.4byte	0x2626
 12013 261f 0B       		.uleb128 0xb
 12014 2620 01       		.uleb128 0x1
 12015 2621 50       		.byte	0x50
 12016 2622 02       		.uleb128 0x2
 12017 2623 08       		.byte	0x8
ARM GAS  C:\Users\Revanth\AppData\Local\Temp\ccHsQCvB.s 			page 271


 12018 2624 64       		.byte	0x64
 12019 2625 00       		.byte	0
 12020 2626 0A       		.uleb128 0xa
 12021 2627 1E010000 		.4byte	.LVL522
 12022 262b 4D0E0000 		.4byte	0xe4d
 12023 262f 46260000 		.4byte	0x2646
 12024 2633 0B       		.uleb128 0xb
 12025 2634 01       		.uleb128 0x1
 12026 2635 50       		.byte	0x50
 12027 2636 02       		.uleb128 0x2
 12028 2637 08       		.byte	0x8
 12029 2638 21       		.byte	0x21
 12030 2639 0B       		.uleb128 0xb
 12031 263a 01       		.uleb128 0x1
 12032 263b 51       		.byte	0x51
 12033 263c 02       		.uleb128 0x2
 12034 263d 76       		.byte	0x76
 12035 263e 00       		.sleb128 0
 12036 263f 0B       		.uleb128 0xb
 12037 2640 01       		.uleb128 0x1
 12038 2641 52       		.byte	0x52
 12039 2642 02       		.uleb128 0x2
 12040 2643 74       		.byte	0x74
 12041 2644 00       		.sleb128 0
 12042 2645 00       		.byte	0
 12043 2646 0A       		.uleb128 0xa
 12044 2647 28010000 		.4byte	.LVL523
 12045 264b 4D0E0000 		.4byte	0xe4d
 12046 264f 66260000 		.4byte	0x2666
 12047 2653 0B       		.uleb128 0xb
 12048 2654 01       		.uleb128 0x1
 12049 2655 50       		.byte	0x50
 12050 2656 02       		.uleb128 0x2
 12051 2657 08       		.byte	0x8
 12052 2658 2D       		.byte	0x2d
 12053 2659 0B       		.uleb128 0xb
 12054 265a 01       		.uleb128 0x1
 12055 265b 51       		.byte	0x51
 12056 265c 02       		.uleb128 0x2
 12057 265d 76       		.byte	0x76
 12058 265e 00       		.sleb128 0
 12059 265f 0B       		.uleb128 0xb
 12060 2660 01       		.uleb128 0x1
 12061 2661 52       		.byte	0x52
 12062 2662 02       		.uleb128 0x2
 12063 2663 74       		.byte	0x74
 12064 2664 00       		.sleb128 0
 12065 2665 00       		.byte	0
 12066 2666 0A       		.uleb128 0xa
 12067 2667 30010000 		.4byte	.LVL524
 12068 266b 95230000 		.4byte	0x2395
 12069 266f 83260000 		.4byte	0x2683
 12070 2673 0B       		.uleb128 0xb
 12071 2674 01       		.uleb128 0x1
 12072 2675 50       		.byte	0x50
 12073 2676 05       		.uleb128 0x5
 12074 2677 0C       		.byte	0xc
ARM GAS  C:\Users\Revanth\AppData\Local\Temp\ccHsQCvB.s 			page 272


 12075 2678 FAD00500 		.4byte	0x5d0fa
 12076 267c 0B       		.uleb128 0xb
 12077 267d 01       		.uleb128 0x1
 12078 267e 51       		.byte	0x51
 12079 267f 02       		.uleb128 0x2
 12080 2680 74       		.byte	0x74
 12081 2681 00       		.sleb128 0
 12082 2682 00       		.byte	0
 12083 2683 0A       		.uleb128 0xa
 12084 2684 3A010000 		.4byte	.LVL525
 12085 2688 4D0E0000 		.4byte	0xe4d
 12086 268c A2260000 		.4byte	0x26a2
 12087 2690 0B       		.uleb128 0xb
 12088 2691 01       		.uleb128 0x1
 12089 2692 50       		.byte	0x50
 12090 2693 01       		.uleb128 0x1
 12091 2694 3B       		.byte	0x3b
 12092 2695 0B       		.uleb128 0xb
 12093 2696 01       		.uleb128 0x1
 12094 2697 51       		.byte	0x51
 12095 2698 02       		.uleb128 0x2
 12096 2699 08       		.byte	0x8
 12097 269a 96       		.byte	0x96
 12098 269b 0B       		.uleb128 0xb
 12099 269c 01       		.uleb128 0x1
 12100 269d 52       		.byte	0x52
 12101 269e 02       		.uleb128 0x2
 12102 269f 74       		.byte	0x74
 12103 26a0 00       		.sleb128 0
 12104 26a1 00       		.byte	0
 12105 26a2 0A       		.uleb128 0xa
 12106 26a3 44010000 		.4byte	.LVL526
 12107 26a7 4D0E0000 		.4byte	0xe4d
 12108 26ab C4260000 		.4byte	0x26c4
 12109 26af 0B       		.uleb128 0xb
 12110 26b0 01       		.uleb128 0x1
 12111 26b1 50       		.byte	0x50
 12112 26b2 01       		.uleb128 0x1
 12113 26b3 40       		.byte	0x40
 12114 26b4 0B       		.uleb128 0xb
 12115 26b5 01       		.uleb128 0x1
 12116 26b6 51       		.byte	0x51
 12117 26b7 05       		.uleb128 0x5
 12118 26b8 0C       		.byte	0xc
 12119 26b9 01010700 		.4byte	0x70101
 12120 26bd 0B       		.uleb128 0xb
 12121 26be 01       		.uleb128 0x1
 12122 26bf 52       		.byte	0x52
 12123 26c0 02       		.uleb128 0x2
 12124 26c1 74       		.byte	0x74
 12125 26c2 00       		.sleb128 0
 12126 26c3 00       		.byte	0
 12127 26c4 0A       		.uleb128 0xa
 12128 26c5 4A010000 		.4byte	.LVL527
 12129 26c9 F63F0000 		.4byte	0x3ff6
 12130 26cd D8260000 		.4byte	0x26d8
 12131 26d1 0B       		.uleb128 0xb
ARM GAS  C:\Users\Revanth\AppData\Local\Temp\ccHsQCvB.s 			page 273


 12132 26d2 01       		.uleb128 0x1
 12133 26d3 50       		.byte	0x50
 12134 26d4 02       		.uleb128 0x2
 12135 26d5 76       		.byte	0x76
 12136 26d6 00       		.sleb128 0
 12137 26d7 00       		.byte	0
 12138 26d8 0C       		.uleb128 0xc
 12139 26d9 5A010000 		.4byte	.LVL528
 12140 26dd DF030000 		.4byte	0x3df
 12141 26e1 0B       		.uleb128 0xb
 12142 26e2 01       		.uleb128 0x1
 12143 26e3 50       		.byte	0x50
 12144 26e4 05       		.uleb128 0x5
 12145 26e5 03       		.byte	0x3
 12146 26e6 80040000 		.4byte	.LC37
 12147 26ea 00       		.byte	0
 12148 26eb 00       		.byte	0
 12149 26ec 0D       		.uleb128 0xd
 12150 26ed 94040000 		.4byte	.LASF93
 12151 26f1 01       		.byte	0x1
 12152 26f2 2301     		.2byte	0x123
 12153 26f4 00000000 		.4byte	.LFB67
 12154 26f8 7C010000 		.4byte	.LFE67-.LFB67
 12155 26fc 01       		.uleb128 0x1
 12156 26fd 9C       		.byte	0x9c
 12157 26fe F3290000 		.4byte	0x29f3
 12158 2702 0E       		.uleb128 0xe
 12159 2703 1B060000 		.4byte	.LASF56
 12160 2707 01       		.byte	0x1
 12161 2708 2301     		.2byte	0x123
 12162 270a 97000000 		.4byte	0x97
 12163 270e B7090000 		.4byte	.LLST53
 12164 2712 0A       		.uleb128 0xa
 12165 2713 10000000 		.4byte	.LVL531
 12166 2717 95230000 		.4byte	0x2395
 12167 271b 2E270000 		.4byte	0x272e
 12168 271f 0B       		.uleb128 0xb
 12169 2720 01       		.uleb128 0x1
 12170 2721 50       		.byte	0x50
 12171 2722 04       		.uleb128 0x4
 12172 2723 08       		.byte	0x8
 12173 2724 96       		.byte	0x96
 12174 2725 3B       		.byte	0x3b
 12175 2726 24       		.byte	0x24
 12176 2727 0B       		.uleb128 0xb
 12177 2728 01       		.uleb128 0x1
 12178 2729 51       		.byte	0x51
 12179 272a 02       		.uleb128 0x2
 12180 272b 74       		.byte	0x74
 12181 272c 00       		.sleb128 0
 12182 272d 00       		.byte	0
 12183 272e 0A       		.uleb128 0xa
 12184 272f 1A000000 		.4byte	.LVL532
 12185 2733 4D0E0000 		.4byte	0xe4d
 12186 2737 4D270000 		.4byte	0x274d
 12187 273b 0B       		.uleb128 0xb
 12188 273c 01       		.uleb128 0x1
ARM GAS  C:\Users\Revanth\AppData\Local\Temp\ccHsQCvB.s 			page 274


 12189 273d 50       		.byte	0x50
 12190 273e 02       		.uleb128 0x2
 12191 273f 08       		.byte	0x8
 12192 2740 20       		.byte	0x20
 12193 2741 0B       		.uleb128 0xb
 12194 2742 01       		.uleb128 0x1
 12195 2743 51       		.byte	0x51
 12196 2744 01       		.uleb128 0x1
 12197 2745 32       		.byte	0x32
 12198 2746 0B       		.uleb128 0xb
 12199 2747 01       		.uleb128 0x1
 12200 2748 52       		.byte	0x52
 12201 2749 02       		.uleb128 0x2
 12202 274a 74       		.byte	0x74
 12203 274b 00       		.sleb128 0
 12204 274c 00       		.byte	0
 12205 274d 0A       		.uleb128 0xa
 12206 274e 20000000 		.4byte	.LVL533
 12207 2752 F53E0000 		.4byte	0x3ef5
 12208 2756 61270000 		.4byte	0x2761
 12209 275a 0B       		.uleb128 0xb
 12210 275b 01       		.uleb128 0x1
 12211 275c 50       		.byte	0x50
 12212 275d 02       		.uleb128 0x2
 12213 275e 08       		.byte	0x8
 12214 275f 32       		.byte	0x32
 12215 2760 00       		.byte	0
 12216 2761 0A       		.uleb128 0xa
 12217 2762 2C000000 		.4byte	.LVL534
 12218 2766 B70B0000 		.4byte	0xbb7
 12219 276a 80270000 		.4byte	0x2780
 12220 276e 0B       		.uleb128 0xb
 12221 276f 01       		.uleb128 0x1
 12222 2770 50       		.byte	0x50
 12223 2771 01       		.uleb128 0x1
 12224 2772 34       		.byte	0x34
 12225 2773 0B       		.uleb128 0xb
 12226 2774 01       		.uleb128 0x1
 12227 2775 51       		.byte	0x51
 12228 2776 02       		.uleb128 0x2
 12229 2777 74       		.byte	0x74
 12230 2778 00       		.sleb128 0
 12231 2779 0B       		.uleb128 0xb
 12232 277a 01       		.uleb128 0x1
 12233 277b 52       		.byte	0x52
 12234 277c 02       		.uleb128 0x2
 12235 277d 75       		.byte	0x75
 12236 277e 00       		.sleb128 0
 12237 277f 00       		.byte	0
 12238 2780 0A       		.uleb128 0xa
 12239 2781 34000000 		.4byte	.LVL535
 12240 2785 F53E0000 		.4byte	0x3ef5
 12241 2789 95270000 		.4byte	0x2795
 12242 278d 0B       		.uleb128 0xb
 12243 278e 01       		.uleb128 0x1
 12244 278f 50       		.byte	0x50
 12245 2790 03       		.uleb128 0x3
ARM GAS  C:\Users\Revanth\AppData\Local\Temp\ccHsQCvB.s 			page 275


 12246 2791 0A       		.byte	0xa
 12247 2792 F401     		.2byte	0x1f4
 12248 2794 00       		.byte	0
 12249 2795 0A       		.uleb128 0xa
 12250 2796 3E000000 		.4byte	.LVL536
 12251 279a B70B0000 		.4byte	0xbb7
 12252 279e B4270000 		.4byte	0x27b4
 12253 27a2 0B       		.uleb128 0xb
 12254 27a3 01       		.uleb128 0x1
 12255 27a4 50       		.byte	0x50
 12256 27a5 01       		.uleb128 0x1
 12257 27a6 34       		.byte	0x34
 12258 27a7 0B       		.uleb128 0xb
 12259 27a8 01       		.uleb128 0x1
 12260 27a9 51       		.byte	0x51
 12261 27aa 02       		.uleb128 0x2
 12262 27ab 74       		.byte	0x74
 12263 27ac 00       		.sleb128 0
 12264 27ad 0B       		.uleb128 0xb
 12265 27ae 01       		.uleb128 0x1
 12266 27af 52       		.byte	0x52
 12267 27b0 02       		.uleb128 0x2
 12268 27b1 75       		.byte	0x75
 12269 27b2 00       		.sleb128 0
 12270 27b3 00       		.byte	0
 12271 27b4 09       		.uleb128 0x9
 12272 27b5 44000000 		.4byte	.LVL537
 12273 27b9 D53F0000 		.4byte	0x3fd5
 12274 27bd 0A       		.uleb128 0xa
 12275 27be 4A000000 		.4byte	.LVL538
 12276 27c2 E03F0000 		.4byte	0x3fe0
 12277 27c6 D4270000 		.4byte	0x27d4
 12278 27ca 0B       		.uleb128 0xb
 12279 27cb 01       		.uleb128 0x1
 12280 27cc 50       		.byte	0x50
 12281 27cd 05       		.uleb128 0x5
 12282 27ce 03       		.byte	0x3
 12283 27cf 00000000 		.4byte	wait_interrupt_Handler
 12284 27d3 00       		.byte	0
 12285 27d4 0A       		.uleb128 0xa
 12286 27d5 54000000 		.4byte	.LVL539
 12287 27d9 B70B0000 		.4byte	0xbb7
 12288 27dd F3270000 		.4byte	0x27f3
 12289 27e1 0B       		.uleb128 0xb
 12290 27e2 01       		.uleb128 0x1
 12291 27e3 50       		.byte	0x50
 12292 27e4 01       		.uleb128 0x1
 12293 27e5 34       		.byte	0x34
 12294 27e6 0B       		.uleb128 0xb
 12295 27e7 01       		.uleb128 0x1
 12296 27e8 51       		.byte	0x51
 12297 27e9 02       		.uleb128 0x2
 12298 27ea 74       		.byte	0x74
 12299 27eb 00       		.sleb128 0
 12300 27ec 0B       		.uleb128 0xb
 12301 27ed 01       		.uleb128 0x1
 12302 27ee 52       		.byte	0x52
ARM GAS  C:\Users\Revanth\AppData\Local\Temp\ccHsQCvB.s 			page 276


 12303 27ef 02       		.uleb128 0x2
 12304 27f0 75       		.byte	0x75
 12305 27f1 00       		.sleb128 0
 12306 27f2 00       		.byte	0
 12307 27f3 0A       		.uleb128 0xa
 12308 27f4 64000000 		.4byte	.LVL540
 12309 27f8 3C060000 		.4byte	0x63c
 12310 27fc 06280000 		.4byte	0x2806
 12311 2800 0B       		.uleb128 0xb
 12312 2801 01       		.uleb128 0x1
 12313 2802 50       		.byte	0x50
 12314 2803 01       		.uleb128 0x1
 12315 2804 38       		.byte	0x38
 12316 2805 00       		.byte	0
 12317 2806 09       		.uleb128 0x9
 12318 2807 68000000 		.4byte	.LVL541
 12319 280b EB3F0000 		.4byte	0x3feb
 12320 280f 0A       		.uleb128 0xa
 12321 2810 72000000 		.4byte	.LVL542
 12322 2814 4D0E0000 		.4byte	0xe4d
 12323 2818 2E280000 		.4byte	0x282e
 12324 281c 0B       		.uleb128 0xb
 12325 281d 01       		.uleb128 0x1
 12326 281e 50       		.byte	0x50
 12327 281f 02       		.uleb128 0x2
 12328 2820 08       		.byte	0x8
 12329 2821 20       		.byte	0x20
 12330 2822 0B       		.uleb128 0xb
 12331 2823 01       		.uleb128 0x1
 12332 2824 51       		.byte	0x51
 12333 2825 01       		.uleb128 0x1
 12334 2826 30       		.byte	0x30
 12335 2827 0B       		.uleb128 0xb
 12336 2828 01       		.uleb128 0x1
 12337 2829 52       		.byte	0x52
 12338 282a 02       		.uleb128 0x2
 12339 282b 74       		.byte	0x74
 12340 282c 00       		.sleb128 0
 12341 282d 00       		.byte	0
 12342 282e 0A       		.uleb128 0xa
 12343 282f 7C000000 		.4byte	.LVL543
 12344 2833 4D0E0000 		.4byte	0xe4d
 12345 2837 4D280000 		.4byte	0x284d
 12346 283b 0B       		.uleb128 0xb
 12347 283c 01       		.uleb128 0x1
 12348 283d 50       		.byte	0x50
 12349 283e 02       		.uleb128 0x2
 12350 283f 08       		.byte	0x8
 12351 2840 21       		.byte	0x21
 12352 2841 0B       		.uleb128 0xb
 12353 2842 01       		.uleb128 0x1
 12354 2843 51       		.byte	0x51
 12355 2844 01       		.uleb128 0x1
 12356 2845 30       		.byte	0x30
 12357 2846 0B       		.uleb128 0xb
 12358 2847 01       		.uleb128 0x1
 12359 2848 52       		.byte	0x52
ARM GAS  C:\Users\Revanth\AppData\Local\Temp\ccHsQCvB.s 			page 277


 12360 2849 02       		.uleb128 0x2
 12361 284a 74       		.byte	0x74
 12362 284b 00       		.sleb128 0
 12363 284c 00       		.byte	0
 12364 284d 0A       		.uleb128 0xa
 12365 284e 86000000 		.4byte	.LVL544
 12366 2852 4D0E0000 		.4byte	0xe4d
 12367 2856 6C280000 		.4byte	0x286c
 12368 285a 0B       		.uleb128 0xb
 12369 285b 01       		.uleb128 0x1
 12370 285c 50       		.byte	0x50
 12371 285d 02       		.uleb128 0x2
 12372 285e 08       		.byte	0x8
 12373 285f 2D       		.byte	0x2d
 12374 2860 0B       		.uleb128 0xb
 12375 2861 01       		.uleb128 0x1
 12376 2862 51       		.byte	0x51
 12377 2863 01       		.uleb128 0x1
 12378 2864 30       		.byte	0x30
 12379 2865 0B       		.uleb128 0xb
 12380 2866 01       		.uleb128 0x1
 12381 2867 52       		.byte	0x52
 12382 2868 02       		.uleb128 0x2
 12383 2869 74       		.byte	0x74
 12384 286a 00       		.sleb128 0
 12385 286b 00       		.byte	0
 12386 286c 0A       		.uleb128 0xa
 12387 286d 96000000 		.4byte	.LVL545
 12388 2871 F53E0000 		.4byte	0x3ef5
 12389 2875 80280000 		.4byte	0x2880
 12390 2879 0B       		.uleb128 0xb
 12391 287a 01       		.uleb128 0x1
 12392 287b 50       		.byte	0x50
 12393 287c 02       		.uleb128 0x2
 12394 287d 08       		.byte	0x8
 12395 287e 64       		.byte	0x64
 12396 287f 00       		.byte	0
 12397 2880 09       		.uleb128 0x9
 12398 2881 A4000000 		.4byte	.LVL546
 12399 2885 EB3F0000 		.4byte	0x3feb
 12400 2889 0A       		.uleb128 0xa
 12401 288a B4000000 		.4byte	.LVL547
 12402 288e 4D0E0000 		.4byte	0xe4d
 12403 2892 A9280000 		.4byte	0x28a9
 12404 2896 0B       		.uleb128 0xb
 12405 2897 01       		.uleb128 0x1
 12406 2898 50       		.byte	0x50
 12407 2899 02       		.uleb128 0x2
 12408 289a 08       		.byte	0x8
 12409 289b 21       		.byte	0x21
 12410 289c 0B       		.uleb128 0xb
 12411 289d 01       		.uleb128 0x1
 12412 289e 51       		.byte	0x51
 12413 289f 02       		.uleb128 0x2
 12414 28a0 76       		.byte	0x76
 12415 28a1 00       		.sleb128 0
 12416 28a2 0B       		.uleb128 0xb
ARM GAS  C:\Users\Revanth\AppData\Local\Temp\ccHsQCvB.s 			page 278


 12417 28a3 01       		.uleb128 0x1
 12418 28a4 52       		.byte	0x52
 12419 28a5 02       		.uleb128 0x2
 12420 28a6 74       		.byte	0x74
 12421 28a7 00       		.sleb128 0
 12422 28a8 00       		.byte	0
 12423 28a9 0A       		.uleb128 0xa
 12424 28aa BA000000 		.4byte	.LVL548
 12425 28ae F53E0000 		.4byte	0x3ef5
 12426 28b2 BC280000 		.4byte	0x28bc
 12427 28b6 0B       		.uleb128 0xb
 12428 28b7 01       		.uleb128 0x1
 12429 28b8 50       		.byte	0x50
 12430 28b9 01       		.uleb128 0x1
 12431 28ba 3A       		.byte	0x3a
 12432 28bb 00       		.byte	0
 12433 28bc 0A       		.uleb128 0xa
 12434 28bd C4000000 		.4byte	.LVL549
 12435 28c1 4D0E0000 		.4byte	0xe4d
 12436 28c5 DC280000 		.4byte	0x28dc
 12437 28c9 0B       		.uleb128 0xb
 12438 28ca 01       		.uleb128 0x1
 12439 28cb 50       		.byte	0x50
 12440 28cc 02       		.uleb128 0x2
 12441 28cd 08       		.byte	0x8
 12442 28ce 21       		.byte	0x21
 12443 28cf 0B       		.uleb128 0xb
 12444 28d0 01       		.uleb128 0x1
 12445 28d1 51       		.byte	0x51
 12446 28d2 02       		.uleb128 0x2
 12447 28d3 76       		.byte	0x76
 12448 28d4 00       		.sleb128 0
 12449 28d5 0B       		.uleb128 0xb
 12450 28d6 01       		.uleb128 0x1
 12451 28d7 52       		.byte	0x52
 12452 28d8 02       		.uleb128 0x2
 12453 28d9 74       		.byte	0x74
 12454 28da 00       		.sleb128 0
 12455 28db 00       		.byte	0
 12456 28dc 0A       		.uleb128 0xa
 12457 28dd CA000000 		.4byte	.LVL550
 12458 28e1 01400000 		.4byte	0x4001
 12459 28e5 F0280000 		.4byte	0x28f0
 12460 28e9 0B       		.uleb128 0xb
 12461 28ea 01       		.uleb128 0x1
 12462 28eb 50       		.byte	0x50
 12463 28ec 02       		.uleb128 0x2
 12464 28ed 76       		.byte	0x76
 12465 28ee 00       		.sleb128 0
 12466 28ef 00       		.byte	0
 12467 28f0 0A       		.uleb128 0xa
 12468 28f1 E6000000 		.4byte	.LVL551
 12469 28f5 F53E0000 		.4byte	0x3ef5
 12470 28f9 04290000 		.4byte	0x2904
 12471 28fd 0B       		.uleb128 0xb
 12472 28fe 01       		.uleb128 0x1
 12473 28ff 50       		.byte	0x50
ARM GAS  C:\Users\Revanth\AppData\Local\Temp\ccHsQCvB.s 			page 279


 12474 2900 02       		.uleb128 0x2
 12475 2901 08       		.byte	0x8
 12476 2902 64       		.byte	0x64
 12477 2903 00       		.byte	0
 12478 2904 0A       		.uleb128 0xa
 12479 2905 EE000000 		.4byte	.LVL552
 12480 2909 FB1B0000 		.4byte	0x1bfb
 12481 290d 19290000 		.4byte	0x2919
 12482 2911 0B       		.uleb128 0xb
 12483 2912 01       		.uleb128 0x1
 12484 2913 50       		.byte	0x50
 12485 2914 03       		.uleb128 0x3
 12486 2915 0A       		.byte	0xa
 12487 2916 004B     		.2byte	0x4b00
 12488 2918 00       		.byte	0
 12489 2919 0A       		.uleb128 0xa
 12490 291a 14010000 		.4byte	.LVL553
 12491 291e F53E0000 		.4byte	0x3ef5
 12492 2922 2D290000 		.4byte	0x292d
 12493 2926 0B       		.uleb128 0xb
 12494 2927 01       		.uleb128 0x1
 12495 2928 50       		.byte	0x50
 12496 2929 02       		.uleb128 0x2
 12497 292a 08       		.byte	0x8
 12498 292b 64       		.byte	0x64
 12499 292c 00       		.byte	0
 12500 292d 0A       		.uleb128 0xa
 12501 292e 1E010000 		.4byte	.LVL554
 12502 2932 4D0E0000 		.4byte	0xe4d
 12503 2936 4D290000 		.4byte	0x294d
 12504 293a 0B       		.uleb128 0xb
 12505 293b 01       		.uleb128 0x1
 12506 293c 50       		.byte	0x50
 12507 293d 02       		.uleb128 0x2
 12508 293e 08       		.byte	0x8
 12509 293f 21       		.byte	0x21
 12510 2940 0B       		.uleb128 0xb
 12511 2941 01       		.uleb128 0x1
 12512 2942 51       		.byte	0x51
 12513 2943 02       		.uleb128 0x2
 12514 2944 76       		.byte	0x76
 12515 2945 00       		.sleb128 0
 12516 2946 0B       		.uleb128 0xb
 12517 2947 01       		.uleb128 0x1
 12518 2948 52       		.byte	0x52
 12519 2949 02       		.uleb128 0x2
 12520 294a 74       		.byte	0x74
 12521 294b 00       		.sleb128 0
 12522 294c 00       		.byte	0
 12523 294d 0A       		.uleb128 0xa
 12524 294e 28010000 		.4byte	.LVL555
 12525 2952 4D0E0000 		.4byte	0xe4d
 12526 2956 6D290000 		.4byte	0x296d
 12527 295a 0B       		.uleb128 0xb
 12528 295b 01       		.uleb128 0x1
 12529 295c 50       		.byte	0x50
 12530 295d 02       		.uleb128 0x2
ARM GAS  C:\Users\Revanth\AppData\Local\Temp\ccHsQCvB.s 			page 280


 12531 295e 08       		.byte	0x8
 12532 295f 2D       		.byte	0x2d
 12533 2960 0B       		.uleb128 0xb
 12534 2961 01       		.uleb128 0x1
 12535 2962 51       		.byte	0x51
 12536 2963 02       		.uleb128 0x2
 12537 2964 76       		.byte	0x76
 12538 2965 00       		.sleb128 0
 12539 2966 0B       		.uleb128 0xb
 12540 2967 01       		.uleb128 0x1
 12541 2968 52       		.byte	0x52
 12542 2969 02       		.uleb128 0x2
 12543 296a 74       		.byte	0x74
 12544 296b 00       		.sleb128 0
 12545 296c 00       		.byte	0
 12546 296d 0A       		.uleb128 0xa
 12547 296e 30010000 		.4byte	.LVL556
 12548 2972 95230000 		.4byte	0x2395
 12549 2976 8A290000 		.4byte	0x298a
 12550 297a 0B       		.uleb128 0xb
 12551 297b 01       		.uleb128 0x1
 12552 297c 50       		.byte	0x50
 12553 297d 05       		.uleb128 0x5
 12554 297e 0C       		.byte	0xc
 12555 297f FAD00500 		.4byte	0x5d0fa
 12556 2983 0B       		.uleb128 0xb
 12557 2984 01       		.uleb128 0x1
 12558 2985 51       		.byte	0x51
 12559 2986 02       		.uleb128 0x2
 12560 2987 74       		.byte	0x74
 12561 2988 00       		.sleb128 0
 12562 2989 00       		.byte	0
 12563 298a 0A       		.uleb128 0xa
 12564 298b 3A010000 		.4byte	.LVL557
 12565 298f 4D0E0000 		.4byte	0xe4d
 12566 2993 A9290000 		.4byte	0x29a9
 12567 2997 0B       		.uleb128 0xb
 12568 2998 01       		.uleb128 0x1
 12569 2999 50       		.byte	0x50
 12570 299a 01       		.uleb128 0x1
 12571 299b 3B       		.byte	0x3b
 12572 299c 0B       		.uleb128 0xb
 12573 299d 01       		.uleb128 0x1
 12574 299e 51       		.byte	0x51
 12575 299f 02       		.uleb128 0x2
 12576 29a0 76       		.byte	0x76
 12577 29a1 00       		.sleb128 0
 12578 29a2 0B       		.uleb128 0xb
 12579 29a3 01       		.uleb128 0x1
 12580 29a4 52       		.byte	0x52
 12581 29a5 02       		.uleb128 0x2
 12582 29a6 74       		.byte	0x74
 12583 29a7 00       		.sleb128 0
 12584 29a8 00       		.byte	0
 12585 29a9 0A       		.uleb128 0xa
 12586 29aa 44010000 		.4byte	.LVL558
 12587 29ae 4D0E0000 		.4byte	0xe4d
ARM GAS  C:\Users\Revanth\AppData\Local\Temp\ccHsQCvB.s 			page 281


 12588 29b2 CB290000 		.4byte	0x29cb
 12589 29b6 0B       		.uleb128 0xb
 12590 29b7 01       		.uleb128 0x1
 12591 29b8 50       		.byte	0x50
 12592 29b9 01       		.uleb128 0x1
 12593 29ba 40       		.byte	0x40
 12594 29bb 0B       		.uleb128 0xb
 12595 29bc 01       		.uleb128 0x1
 12596 29bd 51       		.byte	0x51
 12597 29be 05       		.uleb128 0x5
 12598 29bf 0C       		.byte	0xc
 12599 29c0 01010700 		.4byte	0x70101
 12600 29c4 0B       		.uleb128 0xb
 12601 29c5 01       		.uleb128 0x1
 12602 29c6 52       		.byte	0x52
 12603 29c7 02       		.uleb128 0x2
 12604 29c8 74       		.byte	0x74
 12605 29c9 00       		.sleb128 0
 12606 29ca 00       		.byte	0
 12607 29cb 0A       		.uleb128 0xa
 12608 29cc 4A010000 		.4byte	.LVL559
 12609 29d0 01400000 		.4byte	0x4001
 12610 29d4 DF290000 		.4byte	0x29df
 12611 29d8 0B       		.uleb128 0xb
 12612 29d9 01       		.uleb128 0x1
 12613 29da 50       		.byte	0x50
 12614 29db 02       		.uleb128 0x2
 12615 29dc 76       		.byte	0x76
 12616 29dd 00       		.sleb128 0
 12617 29de 00       		.byte	0
 12618 29df 0C       		.uleb128 0xc
 12619 29e0 5A010000 		.4byte	.LVL560
 12620 29e4 DF030000 		.4byte	0x3df
 12621 29e8 0B       		.uleb128 0xb
 12622 29e9 01       		.uleb128 0x1
 12623 29ea 50       		.byte	0x50
 12624 29eb 05       		.uleb128 0x5
 12625 29ec 03       		.byte	0x3
 12626 29ed 94040000 		.4byte	.LC38
 12627 29f1 00       		.byte	0
 12628 29f2 00       		.byte	0
 12629 29f3 0D       		.uleb128 0xd
 12630 29f4 9A040000 		.4byte	.LASF94
 12631 29f8 01       		.byte	0x1
 12632 29f9 A201     		.2byte	0x1a2
 12633 29fb 00000000 		.4byte	.LFB68
 12634 29ff 74010000 		.4byte	.LFE68-.LFB68
 12635 2a03 01       		.uleb128 0x1
 12636 2a04 9C       		.byte	0x9c
 12637 2a05 D72C0000 		.4byte	0x2cd7
 12638 2a09 0E       		.uleb128 0xe
 12639 2a0a 1B060000 		.4byte	.LASF56
 12640 2a0e 01       		.byte	0x1
 12641 2a0f A201     		.2byte	0x1a2
 12642 2a11 97000000 		.4byte	0x97
 12643 2a15 D8090000 		.4byte	.LLST54
 12644 2a19 0A       		.uleb128 0xa
ARM GAS  C:\Users\Revanth\AppData\Local\Temp\ccHsQCvB.s 			page 282


 12645 2a1a 0E000000 		.4byte	.LVL563
 12646 2a1e 95230000 		.4byte	0x2395
 12647 2a22 362A0000 		.4byte	0x2a36
 12648 2a26 0B       		.uleb128 0xb
 12649 2a27 01       		.uleb128 0x1
 12650 2a28 50       		.byte	0x50
 12651 2a29 05       		.uleb128 0x5
 12652 2a2a 0C       		.byte	0xc
 12653 2a2b 6EA30100 		.4byte	0x1a36e
 12654 2a2f 0B       		.uleb128 0xb
 12655 2a30 01       		.uleb128 0x1
 12656 2a31 51       		.byte	0x51
 12657 2a32 02       		.uleb128 0x2
 12658 2a33 74       		.byte	0x74
 12659 2a34 00       		.sleb128 0
 12660 2a35 00       		.byte	0
 12661 2a36 09       		.uleb128 0x9
 12662 2a37 18000000 		.4byte	.LVL564
 12663 2a3b 7F020000 		.4byte	0x27f
 12664 2a3f 0A       		.uleb128 0xa
 12665 2a40 22000000 		.4byte	.LVL565
 12666 2a44 4D0E0000 		.4byte	0xe4d
 12667 2a48 5E2A0000 		.4byte	0x2a5e
 12668 2a4c 0B       		.uleb128 0xb
 12669 2a4d 01       		.uleb128 0x1
 12670 2a4e 50       		.byte	0x50
 12671 2a4f 02       		.uleb128 0x2
 12672 2a50 08       		.byte	0x8
 12673 2a51 20       		.byte	0x20
 12674 2a52 0B       		.uleb128 0xb
 12675 2a53 01       		.uleb128 0x1
 12676 2a54 51       		.byte	0x51
 12677 2a55 01       		.uleb128 0x1
 12678 2a56 32       		.byte	0x32
 12679 2a57 0B       		.uleb128 0xb
 12680 2a58 01       		.uleb128 0x1
 12681 2a59 52       		.byte	0x52
 12682 2a5a 02       		.uleb128 0x2
 12683 2a5b 74       		.byte	0x74
 12684 2a5c 00       		.sleb128 0
 12685 2a5d 00       		.byte	0
 12686 2a5e 0A       		.uleb128 0xa
 12687 2a5f 28000000 		.4byte	.LVL566
 12688 2a63 F53E0000 		.4byte	0x3ef5
 12689 2a67 722A0000 		.4byte	0x2a72
 12690 2a6b 0B       		.uleb128 0xb
 12691 2a6c 01       		.uleb128 0x1
 12692 2a6d 50       		.byte	0x50
 12693 2a6e 02       		.uleb128 0x2
 12694 2a6f 08       		.byte	0x8
 12695 2a70 32       		.byte	0x32
 12696 2a71 00       		.byte	0
 12697 2a72 0A       		.uleb128 0xa
 12698 2a73 34000000 		.4byte	.LVL567
 12699 2a77 B70B0000 		.4byte	0xbb7
 12700 2a7b 912A0000 		.4byte	0x2a91
 12701 2a7f 0B       		.uleb128 0xb
ARM GAS  C:\Users\Revanth\AppData\Local\Temp\ccHsQCvB.s 			page 283


 12702 2a80 01       		.uleb128 0x1
 12703 2a81 50       		.byte	0x50
 12704 2a82 01       		.uleb128 0x1
 12705 2a83 34       		.byte	0x34
 12706 2a84 0B       		.uleb128 0xb
 12707 2a85 01       		.uleb128 0x1
 12708 2a86 51       		.byte	0x51
 12709 2a87 02       		.uleb128 0x2
 12710 2a88 74       		.byte	0x74
 12711 2a89 00       		.sleb128 0
 12712 2a8a 0B       		.uleb128 0xb
 12713 2a8b 01       		.uleb128 0x1
 12714 2a8c 52       		.byte	0x52
 12715 2a8d 02       		.uleb128 0x2
 12716 2a8e 75       		.byte	0x75
 12717 2a8f 00       		.sleb128 0
 12718 2a90 00       		.byte	0
 12719 2a91 0A       		.uleb128 0xa
 12720 2a92 3C000000 		.4byte	.LVL568
 12721 2a96 F53E0000 		.4byte	0x3ef5
 12722 2a9a A62A0000 		.4byte	0x2aa6
 12723 2a9e 0B       		.uleb128 0xb
 12724 2a9f 01       		.uleb128 0x1
 12725 2aa0 50       		.byte	0x50
 12726 2aa1 03       		.uleb128 0x3
 12727 2aa2 0A       		.byte	0xa
 12728 2aa3 F401     		.2byte	0x1f4
 12729 2aa5 00       		.byte	0
 12730 2aa6 0A       		.uleb128 0xa
 12731 2aa7 46000000 		.4byte	.LVL569
 12732 2aab B70B0000 		.4byte	0xbb7
 12733 2aaf C52A0000 		.4byte	0x2ac5
 12734 2ab3 0B       		.uleb128 0xb
 12735 2ab4 01       		.uleb128 0x1
 12736 2ab5 50       		.byte	0x50
 12737 2ab6 01       		.uleb128 0x1
 12738 2ab7 34       		.byte	0x34
 12739 2ab8 0B       		.uleb128 0xb
 12740 2ab9 01       		.uleb128 0x1
 12741 2aba 51       		.byte	0x51
 12742 2abb 02       		.uleb128 0x2
 12743 2abc 74       		.byte	0x74
 12744 2abd 00       		.sleb128 0
 12745 2abe 0B       		.uleb128 0xb
 12746 2abf 01       		.uleb128 0x1
 12747 2ac0 52       		.byte	0x52
 12748 2ac1 02       		.uleb128 0x2
 12749 2ac2 75       		.byte	0x75
 12750 2ac3 00       		.sleb128 0
 12751 2ac4 00       		.byte	0
 12752 2ac5 09       		.uleb128 0x9
 12753 2ac6 4C000000 		.4byte	.LVL570
 12754 2aca D53F0000 		.4byte	0x3fd5
 12755 2ace 0A       		.uleb128 0xa
 12756 2acf 52000000 		.4byte	.LVL571
 12757 2ad3 E03F0000 		.4byte	0x3fe0
 12758 2ad7 E52A0000 		.4byte	0x2ae5
ARM GAS  C:\Users\Revanth\AppData\Local\Temp\ccHsQCvB.s 			page 284


 12759 2adb 0B       		.uleb128 0xb
 12760 2adc 01       		.uleb128 0x1
 12761 2add 50       		.byte	0x50
 12762 2ade 05       		.uleb128 0x5
 12763 2adf 03       		.byte	0x3
 12764 2ae0 00000000 		.4byte	wait_interrupt_Handler
 12765 2ae4 00       		.byte	0
 12766 2ae5 0A       		.uleb128 0xa
 12767 2ae6 5C000000 		.4byte	.LVL572
 12768 2aea B70B0000 		.4byte	0xbb7
 12769 2aee 042B0000 		.4byte	0x2b04
 12770 2af2 0B       		.uleb128 0xb
 12771 2af3 01       		.uleb128 0x1
 12772 2af4 50       		.byte	0x50
 12773 2af5 01       		.uleb128 0x1
 12774 2af6 34       		.byte	0x34
 12775 2af7 0B       		.uleb128 0xb
 12776 2af8 01       		.uleb128 0x1
 12777 2af9 51       		.byte	0x51
 12778 2afa 02       		.uleb128 0x2
 12779 2afb 74       		.byte	0x74
 12780 2afc 00       		.sleb128 0
 12781 2afd 0B       		.uleb128 0xb
 12782 2afe 01       		.uleb128 0x1
 12783 2aff 52       		.byte	0x52
 12784 2b00 02       		.uleb128 0x2
 12785 2b01 75       		.byte	0x75
 12786 2b02 00       		.sleb128 0
 12787 2b03 00       		.byte	0
 12788 2b04 0A       		.uleb128 0xa
 12789 2b05 6C000000 		.4byte	.LVL573
 12790 2b09 3C060000 		.4byte	0x63c
 12791 2b0d 172B0000 		.4byte	0x2b17
 12792 2b11 0B       		.uleb128 0xb
 12793 2b12 01       		.uleb128 0x1
 12794 2b13 50       		.byte	0x50
 12795 2b14 01       		.uleb128 0x1
 12796 2b15 3F       		.byte	0x3f
 12797 2b16 00       		.byte	0
 12798 2b17 09       		.uleb128 0x9
 12799 2b18 70000000 		.4byte	.LVL574
 12800 2b1c EB3F0000 		.4byte	0x3feb
 12801 2b20 0A       		.uleb128 0xa
 12802 2b21 7A000000 		.4byte	.LVL575
 12803 2b25 4D0E0000 		.4byte	0xe4d
 12804 2b29 3F2B0000 		.4byte	0x2b3f
 12805 2b2d 0B       		.uleb128 0xb
 12806 2b2e 01       		.uleb128 0x1
 12807 2b2f 50       		.byte	0x50
 12808 2b30 02       		.uleb128 0x2
 12809 2b31 08       		.byte	0x8
 12810 2b32 20       		.byte	0x20
 12811 2b33 0B       		.uleb128 0xb
 12812 2b34 01       		.uleb128 0x1
 12813 2b35 51       		.byte	0x51
 12814 2b36 01       		.uleb128 0x1
 12815 2b37 30       		.byte	0x30
ARM GAS  C:\Users\Revanth\AppData\Local\Temp\ccHsQCvB.s 			page 285


 12816 2b38 0B       		.uleb128 0xb
 12817 2b39 01       		.uleb128 0x1
 12818 2b3a 52       		.byte	0x52
 12819 2b3b 02       		.uleb128 0x2
 12820 2b3c 74       		.byte	0x74
 12821 2b3d 00       		.sleb128 0
 12822 2b3e 00       		.byte	0
 12823 2b3f 0A       		.uleb128 0xa
 12824 2b40 84000000 		.4byte	.LVL576
 12825 2b44 4D0E0000 		.4byte	0xe4d
 12826 2b48 5E2B0000 		.4byte	0x2b5e
 12827 2b4c 0B       		.uleb128 0xb
 12828 2b4d 01       		.uleb128 0x1
 12829 2b4e 50       		.byte	0x50
 12830 2b4f 02       		.uleb128 0x2
 12831 2b50 08       		.byte	0x8
 12832 2b51 21       		.byte	0x21
 12833 2b52 0B       		.uleb128 0xb
 12834 2b53 01       		.uleb128 0x1
 12835 2b54 51       		.byte	0x51
 12836 2b55 01       		.uleb128 0x1
 12837 2b56 30       		.byte	0x30
 12838 2b57 0B       		.uleb128 0xb
 12839 2b58 01       		.uleb128 0x1
 12840 2b59 52       		.byte	0x52
 12841 2b5a 02       		.uleb128 0x2
 12842 2b5b 74       		.byte	0x74
 12843 2b5c 00       		.sleb128 0
 12844 2b5d 00       		.byte	0
 12845 2b5e 0A       		.uleb128 0xa
 12846 2b5f 8E000000 		.4byte	.LVL577
 12847 2b63 4D0E0000 		.4byte	0xe4d
 12848 2b67 7D2B0000 		.4byte	0x2b7d
 12849 2b6b 0B       		.uleb128 0xb
 12850 2b6c 01       		.uleb128 0x1
 12851 2b6d 50       		.byte	0x50
 12852 2b6e 02       		.uleb128 0x2
 12853 2b6f 08       		.byte	0x8
 12854 2b70 2D       		.byte	0x2d
 12855 2b71 0B       		.uleb128 0xb
 12856 2b72 01       		.uleb128 0x1
 12857 2b73 51       		.byte	0x51
 12858 2b74 01       		.uleb128 0x1
 12859 2b75 30       		.byte	0x30
 12860 2b76 0B       		.uleb128 0xb
 12861 2b77 01       		.uleb128 0x1
 12862 2b78 52       		.byte	0x52
 12863 2b79 02       		.uleb128 0x2
 12864 2b7a 74       		.byte	0x74
 12865 2b7b 00       		.sleb128 0
 12866 2b7c 00       		.byte	0
 12867 2b7d 0A       		.uleb128 0xa
 12868 2b7e 9C000000 		.4byte	.LVL578
 12869 2b82 F53E0000 		.4byte	0x3ef5
 12870 2b86 912B0000 		.4byte	0x2b91
 12871 2b8a 0B       		.uleb128 0xb
 12872 2b8b 01       		.uleb128 0x1
ARM GAS  C:\Users\Revanth\AppData\Local\Temp\ccHsQCvB.s 			page 286


 12873 2b8c 50       		.byte	0x50
 12874 2b8d 02       		.uleb128 0x2
 12875 2b8e 08       		.byte	0x8
 12876 2b8f 64       		.byte	0x64
 12877 2b90 00       		.byte	0
 12878 2b91 09       		.uleb128 0x9
 12879 2b92 AA000000 		.4byte	.LVL579
 12880 2b96 EB3F0000 		.4byte	0x3feb
 12881 2b9a 0A       		.uleb128 0xa
 12882 2b9b BA000000 		.4byte	.LVL580
 12883 2b9f 4D0E0000 		.4byte	0xe4d
 12884 2ba3 BA2B0000 		.4byte	0x2bba
 12885 2ba7 0B       		.uleb128 0xb
 12886 2ba8 01       		.uleb128 0x1
 12887 2ba9 50       		.byte	0x50
 12888 2baa 02       		.uleb128 0x2
 12889 2bab 08       		.byte	0x8
 12890 2bac 21       		.byte	0x21
 12891 2bad 0B       		.uleb128 0xb
 12892 2bae 01       		.uleb128 0x1
 12893 2baf 51       		.byte	0x51
 12894 2bb0 02       		.uleb128 0x2
 12895 2bb1 75       		.byte	0x75
 12896 2bb2 00       		.sleb128 0
 12897 2bb3 0B       		.uleb128 0xb
 12898 2bb4 01       		.uleb128 0x1
 12899 2bb5 52       		.byte	0x52
 12900 2bb6 02       		.uleb128 0x2
 12901 2bb7 74       		.byte	0x74
 12902 2bb8 00       		.sleb128 0
 12903 2bb9 00       		.byte	0
 12904 2bba 0A       		.uleb128 0xa
 12905 2bbb C0000000 		.4byte	.LVL581
 12906 2bbf 7F020000 		.4byte	0x27f
 12907 2bc3 CE2B0000 		.4byte	0x2bce
 12908 2bc7 0B       		.uleb128 0xb
 12909 2bc8 01       		.uleb128 0x1
 12910 2bc9 50       		.byte	0x50
 12911 2bca 02       		.uleb128 0x2
 12912 2bcb 75       		.byte	0x75
 12913 2bcc 00       		.sleb128 0
 12914 2bcd 00       		.byte	0
 12915 2bce 0A       		.uleb128 0xa
 12916 2bcf C8000000 		.4byte	.LVL582
 12917 2bd3 F53E0000 		.4byte	0x3ef5
 12918 2bd7 E12B0000 		.4byte	0x2be1
 12919 2bdb 0B       		.uleb128 0xb
 12920 2bdc 01       		.uleb128 0x1
 12921 2bdd 50       		.byte	0x50
 12922 2bde 01       		.uleb128 0x1
 12923 2bdf 3A       		.byte	0x3a
 12924 2be0 00       		.byte	0
 12925 2be1 0A       		.uleb128 0xa
 12926 2be2 D2000000 		.4byte	.LVL583
 12927 2be6 4D0E0000 		.4byte	0xe4d
 12928 2bea 012C0000 		.4byte	0x2c01
 12929 2bee 0B       		.uleb128 0xb
ARM GAS  C:\Users\Revanth\AppData\Local\Temp\ccHsQCvB.s 			page 287


 12930 2bef 01       		.uleb128 0x1
 12931 2bf0 50       		.byte	0x50
 12932 2bf1 02       		.uleb128 0x2
 12933 2bf2 08       		.byte	0x8
 12934 2bf3 21       		.byte	0x21
 12935 2bf4 0B       		.uleb128 0xb
 12936 2bf5 01       		.uleb128 0x1
 12937 2bf6 51       		.byte	0x51
 12938 2bf7 02       		.uleb128 0x2
 12939 2bf8 75       		.byte	0x75
 12940 2bf9 00       		.sleb128 0
 12941 2bfa 0B       		.uleb128 0xb
 12942 2bfb 01       		.uleb128 0x1
 12943 2bfc 52       		.byte	0x52
 12944 2bfd 02       		.uleb128 0x2
 12945 2bfe 74       		.byte	0x74
 12946 2bff 00       		.sleb128 0
 12947 2c00 00       		.byte	0
 12948 2c01 0A       		.uleb128 0xa
 12949 2c02 D8000000 		.4byte	.LVL584
 12950 2c06 7F020000 		.4byte	0x27f
 12951 2c0a 152C0000 		.4byte	0x2c15
 12952 2c0e 0B       		.uleb128 0xb
 12953 2c0f 01       		.uleb128 0x1
 12954 2c10 50       		.byte	0x50
 12955 2c11 02       		.uleb128 0x2
 12956 2c12 75       		.byte	0x75
 12957 2c13 00       		.sleb128 0
 12958 2c14 00       		.byte	0
 12959 2c15 0A       		.uleb128 0xa
 12960 2c16 F6000000 		.4byte	.LVL585
 12961 2c1a F53E0000 		.4byte	0x3ef5
 12962 2c1e 292C0000 		.4byte	0x2c29
 12963 2c22 0B       		.uleb128 0xb
 12964 2c23 01       		.uleb128 0x1
 12965 2c24 50       		.byte	0x50
 12966 2c25 02       		.uleb128 0x2
 12967 2c26 08       		.byte	0x8
 12968 2c27 64       		.byte	0x64
 12969 2c28 00       		.byte	0
 12970 2c29 0A       		.uleb128 0xa
 12971 2c2a FE000000 		.4byte	.LVL586
 12972 2c2e 6F1E0000 		.4byte	0x1e6f
 12973 2c32 3E2C0000 		.4byte	0x2c3e
 12974 2c36 0B       		.uleb128 0xb
 12975 2c37 01       		.uleb128 0x1
 12976 2c38 50       		.byte	0x50
 12977 2c39 03       		.uleb128 0x3
 12978 2c3a 0A       		.byte	0xa
 12979 2c3b 00C8     		.2byte	0xc800
 12980 2c3d 00       		.byte	0
 12981 2c3e 0A       		.uleb128 0xa
 12982 2c3f 24010000 		.4byte	.LVL587
 12983 2c43 F53E0000 		.4byte	0x3ef5
 12984 2c47 522C0000 		.4byte	0x2c52
 12985 2c4b 0B       		.uleb128 0xb
 12986 2c4c 01       		.uleb128 0x1
ARM GAS  C:\Users\Revanth\AppData\Local\Temp\ccHsQCvB.s 			page 288


 12987 2c4d 50       		.byte	0x50
 12988 2c4e 02       		.uleb128 0x2
 12989 2c4f 08       		.byte	0x8
 12990 2c50 64       		.byte	0x64
 12991 2c51 00       		.byte	0
 12992 2c52 0A       		.uleb128 0xa
 12993 2c53 2E010000 		.4byte	.LVL588
 12994 2c57 4D0E0000 		.4byte	0xe4d
 12995 2c5b 722C0000 		.4byte	0x2c72
 12996 2c5f 0B       		.uleb128 0xb
 12997 2c60 01       		.uleb128 0x1
 12998 2c61 50       		.byte	0x50
 12999 2c62 02       		.uleb128 0x2
 13000 2c63 08       		.byte	0x8
 13001 2c64 21       		.byte	0x21
 13002 2c65 0B       		.uleb128 0xb
 13003 2c66 01       		.uleb128 0x1
 13004 2c67 51       		.byte	0x51
 13005 2c68 02       		.uleb128 0x2
 13006 2c69 75       		.byte	0x75
 13007 2c6a 00       		.sleb128 0
 13008 2c6b 0B       		.uleb128 0xb
 13009 2c6c 01       		.uleb128 0x1
 13010 2c6d 52       		.byte	0x52
 13011 2c6e 02       		.uleb128 0x2
 13012 2c6f 74       		.byte	0x74
 13013 2c70 00       		.sleb128 0
 13014 2c71 00       		.byte	0
 13015 2c72 0A       		.uleb128 0xa
 13016 2c73 38010000 		.4byte	.LVL589
 13017 2c77 4D0E0000 		.4byte	0xe4d
 13018 2c7b 922C0000 		.4byte	0x2c92
 13019 2c7f 0B       		.uleb128 0xb
 13020 2c80 01       		.uleb128 0x1
 13021 2c81 50       		.byte	0x50
 13022 2c82 02       		.uleb128 0x2
 13023 2c83 08       		.byte	0x8
 13024 2c84 2D       		.byte	0x2d
 13025 2c85 0B       		.uleb128 0xb
 13026 2c86 01       		.uleb128 0x1
 13027 2c87 51       		.byte	0x51
 13028 2c88 02       		.uleb128 0x2
 13029 2c89 75       		.byte	0x75
 13030 2c8a 00       		.sleb128 0
 13031 2c8b 0B       		.uleb128 0xb
 13032 2c8c 01       		.uleb128 0x1
 13033 2c8d 52       		.byte	0x52
 13034 2c8e 02       		.uleb128 0x2
 13035 2c8f 74       		.byte	0x74
 13036 2c90 00       		.sleb128 0
 13037 2c91 00       		.byte	0
 13038 2c92 0A       		.uleb128 0xa
 13039 2c93 40010000 		.4byte	.LVL590
 13040 2c97 95230000 		.4byte	0x2395
 13041 2c9b AF2C0000 		.4byte	0x2caf
 13042 2c9f 0B       		.uleb128 0xb
 13043 2ca0 01       		.uleb128 0x1
ARM GAS  C:\Users\Revanth\AppData\Local\Temp\ccHsQCvB.s 			page 289


 13044 2ca1 50       		.byte	0x50
 13045 2ca2 05       		.uleb128 0x5
 13046 2ca3 0C       		.byte	0xc
 13047 2ca4 6EA30100 		.4byte	0x1a36e
 13048 2ca8 0B       		.uleb128 0xb
 13049 2ca9 01       		.uleb128 0x1
 13050 2caa 51       		.byte	0x51
 13051 2cab 02       		.uleb128 0x2
 13052 2cac 74       		.byte	0x74
 13053 2cad 00       		.sleb128 0
 13054 2cae 00       		.byte	0
 13055 2caf 0A       		.uleb128 0xa
 13056 2cb0 46010000 		.4byte	.LVL591
 13057 2cb4 7F020000 		.4byte	0x27f
 13058 2cb8 C32C0000 		.4byte	0x2cc3
 13059 2cbc 0B       		.uleb128 0xb
 13060 2cbd 01       		.uleb128 0x1
 13061 2cbe 50       		.byte	0x50
 13062 2cbf 02       		.uleb128 0x2
 13063 2cc0 75       		.byte	0x75
 13064 2cc1 00       		.sleb128 0
 13065 2cc2 00       		.byte	0
 13066 2cc3 0C       		.uleb128 0xc
 13067 2cc4 56010000 		.4byte	.LVL592
 13068 2cc8 DF030000 		.4byte	0x3df
 13069 2ccc 0B       		.uleb128 0xb
 13070 2ccd 01       		.uleb128 0x1
 13071 2cce 50       		.byte	0x50
 13072 2ccf 05       		.uleb128 0x5
 13073 2cd0 03       		.byte	0x3
 13074 2cd1 A8040000 		.4byte	.LC39
 13075 2cd5 00       		.byte	0
 13076 2cd6 00       		.byte	0
 13077 2cd7 0D       		.uleb128 0xd
 13078 2cd8 76040000 		.4byte	.LASF95
 13079 2cdc 01       		.byte	0x1
 13080 2cdd FF01     		.2byte	0x1ff
 13081 2cdf 00000000 		.4byte	.LFB69
 13082 2ce3 84010000 		.4byte	.LFE69-.LFB69
 13083 2ce7 01       		.uleb128 0x1
 13084 2ce8 9C       		.byte	0x9c
 13085 2ce9 F22F0000 		.4byte	0x2ff2
 13086 2ced 0E       		.uleb128 0xe
 13087 2cee 1B060000 		.4byte	.LASF56
 13088 2cf2 01       		.byte	0x1
 13089 2cf3 FF01     		.2byte	0x1ff
 13090 2cf5 97000000 		.4byte	0x97
 13091 2cf9 F9090000 		.4byte	.LLST55
 13092 2cfd 0A       		.uleb128 0xa
 13093 2cfe 0C000000 		.4byte	.LVL595
 13094 2d02 CA3F0000 		.4byte	0x3fca
 13095 2d06 102D0000 		.4byte	0x2d10
 13096 2d0a 0B       		.uleb128 0xb
 13097 2d0b 01       		.uleb128 0x1
 13098 2d0c 50       		.byte	0x50
 13099 2d0d 01       		.uleb128 0x1
 13100 2d0e 30       		.byte	0x30
ARM GAS  C:\Users\Revanth\AppData\Local\Temp\ccHsQCvB.s 			page 290


 13101 2d0f 00       		.byte	0
 13102 2d10 0A       		.uleb128 0xa
 13103 2d11 12000000 		.4byte	.LVL596
 13104 2d15 F53E0000 		.4byte	0x3ef5
 13105 2d19 242D0000 		.4byte	0x2d24
 13106 2d1d 0B       		.uleb128 0xb
 13107 2d1e 01       		.uleb128 0x1
 13108 2d1f 50       		.byte	0x50
 13109 2d20 02       		.uleb128 0x2
 13110 2d21 08       		.byte	0x8
 13111 2d22 64       		.byte	0x64
 13112 2d23 00       		.byte	0
 13113 2d24 0A       		.uleb128 0xa
 13114 2d25 1C000000 		.4byte	.LVL597
 13115 2d29 95230000 		.4byte	0x2395
 13116 2d2d 3F2D0000 		.4byte	0x2d3f
 13117 2d31 0B       		.uleb128 0xb
 13118 2d32 01       		.uleb128 0x1
 13119 2d33 50       		.byte	0x50
 13120 2d34 03       		.uleb128 0x3
 13121 2d35 0A       		.byte	0xa
 13122 2d36 0032     		.2byte	0x3200
 13123 2d38 0B       		.uleb128 0xb
 13124 2d39 01       		.uleb128 0x1
 13125 2d3a 51       		.byte	0x51
 13126 2d3b 02       		.uleb128 0x2
 13127 2d3c 74       		.byte	0x74
 13128 2d3d 00       		.sleb128 0
 13129 2d3e 00       		.byte	0
 13130 2d3f 09       		.uleb128 0x9
 13131 2d40 26000000 		.4byte	.LVL598
 13132 2d44 33020000 		.4byte	0x233
 13133 2d48 0A       		.uleb128 0xa
 13134 2d49 30000000 		.4byte	.LVL599
 13135 2d4d 4D0E0000 		.4byte	0xe4d
 13136 2d51 672D0000 		.4byte	0x2d67
 13137 2d55 0B       		.uleb128 0xb
 13138 2d56 01       		.uleb128 0x1
 13139 2d57 50       		.byte	0x50
 13140 2d58 02       		.uleb128 0x2
 13141 2d59 08       		.byte	0x8
 13142 2d5a 20       		.byte	0x20
 13143 2d5b 0B       		.uleb128 0xb
 13144 2d5c 01       		.uleb128 0x1
 13145 2d5d 51       		.byte	0x51
 13146 2d5e 01       		.uleb128 0x1
 13147 2d5f 32       		.byte	0x32
 13148 2d60 0B       		.uleb128 0xb
 13149 2d61 01       		.uleb128 0x1
 13150 2d62 52       		.byte	0x52
 13151 2d63 02       		.uleb128 0x2
 13152 2d64 74       		.byte	0x74
 13153 2d65 00       		.sleb128 0
 13154 2d66 00       		.byte	0
 13155 2d67 0A       		.uleb128 0xa
 13156 2d68 36000000 		.4byte	.LVL600
 13157 2d6c F53E0000 		.4byte	0x3ef5
ARM GAS  C:\Users\Revanth\AppData\Local\Temp\ccHsQCvB.s 			page 291


 13158 2d70 7B2D0000 		.4byte	0x2d7b
 13159 2d74 0B       		.uleb128 0xb
 13160 2d75 01       		.uleb128 0x1
 13161 2d76 50       		.byte	0x50
 13162 2d77 02       		.uleb128 0x2
 13163 2d78 08       		.byte	0x8
 13164 2d79 32       		.byte	0x32
 13165 2d7a 00       		.byte	0
 13166 2d7b 0A       		.uleb128 0xa
 13167 2d7c 42000000 		.4byte	.LVL601
 13168 2d80 B70B0000 		.4byte	0xbb7
 13169 2d84 9A2D0000 		.4byte	0x2d9a
 13170 2d88 0B       		.uleb128 0xb
 13171 2d89 01       		.uleb128 0x1
 13172 2d8a 50       		.byte	0x50
 13173 2d8b 01       		.uleb128 0x1
 13174 2d8c 34       		.byte	0x34
 13175 2d8d 0B       		.uleb128 0xb
 13176 2d8e 01       		.uleb128 0x1
 13177 2d8f 51       		.byte	0x51
 13178 2d90 02       		.uleb128 0x2
 13179 2d91 74       		.byte	0x74
 13180 2d92 00       		.sleb128 0
 13181 2d93 0B       		.uleb128 0xb
 13182 2d94 01       		.uleb128 0x1
 13183 2d95 52       		.byte	0x52
 13184 2d96 02       		.uleb128 0x2
 13185 2d97 75       		.byte	0x75
 13186 2d98 00       		.sleb128 0
 13187 2d99 00       		.byte	0
 13188 2d9a 0A       		.uleb128 0xa
 13189 2d9b 4A000000 		.4byte	.LVL602
 13190 2d9f F53E0000 		.4byte	0x3ef5
 13191 2da3 AF2D0000 		.4byte	0x2daf
 13192 2da7 0B       		.uleb128 0xb
 13193 2da8 01       		.uleb128 0x1
 13194 2da9 50       		.byte	0x50
 13195 2daa 03       		.uleb128 0x3
 13196 2dab 0A       		.byte	0xa
 13197 2dac F401     		.2byte	0x1f4
 13198 2dae 00       		.byte	0
 13199 2daf 0A       		.uleb128 0xa
 13200 2db0 54000000 		.4byte	.LVL603
 13201 2db4 B70B0000 		.4byte	0xbb7
 13202 2db8 CE2D0000 		.4byte	0x2dce
 13203 2dbc 0B       		.uleb128 0xb
 13204 2dbd 01       		.uleb128 0x1
 13205 2dbe 50       		.byte	0x50
 13206 2dbf 01       		.uleb128 0x1
 13207 2dc0 34       		.byte	0x34
 13208 2dc1 0B       		.uleb128 0xb
 13209 2dc2 01       		.uleb128 0x1
 13210 2dc3 51       		.byte	0x51
 13211 2dc4 02       		.uleb128 0x2
 13212 2dc5 74       		.byte	0x74
 13213 2dc6 00       		.sleb128 0
 13214 2dc7 0B       		.uleb128 0xb
ARM GAS  C:\Users\Revanth\AppData\Local\Temp\ccHsQCvB.s 			page 292


 13215 2dc8 01       		.uleb128 0x1
 13216 2dc9 52       		.byte	0x52
 13217 2dca 02       		.uleb128 0x2
 13218 2dcb 75       		.byte	0x75
 13219 2dcc 00       		.sleb128 0
 13220 2dcd 00       		.byte	0
 13221 2dce 09       		.uleb128 0x9
 13222 2dcf 5A000000 		.4byte	.LVL604
 13223 2dd3 D53F0000 		.4byte	0x3fd5
 13224 2dd7 0A       		.uleb128 0xa
 13225 2dd8 60000000 		.4byte	.LVL605
 13226 2ddc E03F0000 		.4byte	0x3fe0
 13227 2de0 EE2D0000 		.4byte	0x2dee
 13228 2de4 0B       		.uleb128 0xb
 13229 2de5 01       		.uleb128 0x1
 13230 2de6 50       		.byte	0x50
 13231 2de7 05       		.uleb128 0x5
 13232 2de8 03       		.byte	0x3
 13233 2de9 00000000 		.4byte	wait_interrupt_Handler
 13234 2ded 00       		.byte	0
 13235 2dee 0A       		.uleb128 0xa
 13236 2def 6A000000 		.4byte	.LVL606
 13237 2df3 B70B0000 		.4byte	0xbb7
 13238 2df7 0D2E0000 		.4byte	0x2e0d
 13239 2dfb 0B       		.uleb128 0xb
 13240 2dfc 01       		.uleb128 0x1
 13241 2dfd 50       		.byte	0x50
 13242 2dfe 01       		.uleb128 0x1
 13243 2dff 34       		.byte	0x34
 13244 2e00 0B       		.uleb128 0xb
 13245 2e01 01       		.uleb128 0x1
 13246 2e02 51       		.byte	0x51
 13247 2e03 02       		.uleb128 0x2
 13248 2e04 74       		.byte	0x74
 13249 2e05 00       		.sleb128 0
 13250 2e06 0B       		.uleb128 0xb
 13251 2e07 01       		.uleb128 0x1
 13252 2e08 52       		.byte	0x52
 13253 2e09 02       		.uleb128 0x2
 13254 2e0a 75       		.byte	0x75
 13255 2e0b 00       		.sleb128 0
 13256 2e0c 00       		.byte	0
 13257 2e0d 0A       		.uleb128 0xa
 13258 2e0e 7A000000 		.4byte	.LVL607
 13259 2e12 3C060000 		.4byte	0x63c
 13260 2e16 202E0000 		.4byte	0x2e20
 13261 2e1a 0B       		.uleb128 0xb
 13262 2e1b 01       		.uleb128 0x1
 13263 2e1c 50       		.byte	0x50
 13264 2e1d 01       		.uleb128 0x1
 13265 2e1e 46       		.byte	0x46
 13266 2e1f 00       		.byte	0
 13267 2e20 09       		.uleb128 0x9
 13268 2e21 7E000000 		.4byte	.LVL608
 13269 2e25 EB3F0000 		.4byte	0x3feb
 13270 2e29 0A       		.uleb128 0xa
 13271 2e2a 88000000 		.4byte	.LVL609
ARM GAS  C:\Users\Revanth\AppData\Local\Temp\ccHsQCvB.s 			page 293


 13272 2e2e 4D0E0000 		.4byte	0xe4d
 13273 2e32 482E0000 		.4byte	0x2e48
 13274 2e36 0B       		.uleb128 0xb
 13275 2e37 01       		.uleb128 0x1
 13276 2e38 50       		.byte	0x50
 13277 2e39 02       		.uleb128 0x2
 13278 2e3a 08       		.byte	0x8
 13279 2e3b 20       		.byte	0x20
 13280 2e3c 0B       		.uleb128 0xb
 13281 2e3d 01       		.uleb128 0x1
 13282 2e3e 51       		.byte	0x51
 13283 2e3f 01       		.uleb128 0x1
 13284 2e40 30       		.byte	0x30
 13285 2e41 0B       		.uleb128 0xb
 13286 2e42 01       		.uleb128 0x1
 13287 2e43 52       		.byte	0x52
 13288 2e44 02       		.uleb128 0x2
 13289 2e45 74       		.byte	0x74
 13290 2e46 00       		.sleb128 0
 13291 2e47 00       		.byte	0
 13292 2e48 0A       		.uleb128 0xa
 13293 2e49 92000000 		.4byte	.LVL610
 13294 2e4d 4D0E0000 		.4byte	0xe4d
 13295 2e51 672E0000 		.4byte	0x2e67
 13296 2e55 0B       		.uleb128 0xb
 13297 2e56 01       		.uleb128 0x1
 13298 2e57 50       		.byte	0x50
 13299 2e58 02       		.uleb128 0x2
 13300 2e59 08       		.byte	0x8
 13301 2e5a 21       		.byte	0x21
 13302 2e5b 0B       		.uleb128 0xb
 13303 2e5c 01       		.uleb128 0x1
 13304 2e5d 51       		.byte	0x51
 13305 2e5e 01       		.uleb128 0x1
 13306 2e5f 30       		.byte	0x30
 13307 2e60 0B       		.uleb128 0xb
 13308 2e61 01       		.uleb128 0x1
 13309 2e62 52       		.byte	0x52
 13310 2e63 02       		.uleb128 0x2
 13311 2e64 74       		.byte	0x74
 13312 2e65 00       		.sleb128 0
 13313 2e66 00       		.byte	0
 13314 2e67 0A       		.uleb128 0xa
 13315 2e68 9C000000 		.4byte	.LVL611
 13316 2e6c 4D0E0000 		.4byte	0xe4d
 13317 2e70 862E0000 		.4byte	0x2e86
 13318 2e74 0B       		.uleb128 0xb
 13319 2e75 01       		.uleb128 0x1
 13320 2e76 50       		.byte	0x50
 13321 2e77 02       		.uleb128 0x2
 13322 2e78 08       		.byte	0x8
 13323 2e79 2D       		.byte	0x2d
 13324 2e7a 0B       		.uleb128 0xb
 13325 2e7b 01       		.uleb128 0x1
 13326 2e7c 51       		.byte	0x51
 13327 2e7d 01       		.uleb128 0x1
 13328 2e7e 30       		.byte	0x30
ARM GAS  C:\Users\Revanth\AppData\Local\Temp\ccHsQCvB.s 			page 294


 13329 2e7f 0B       		.uleb128 0xb
 13330 2e80 01       		.uleb128 0x1
 13331 2e81 52       		.byte	0x52
 13332 2e82 02       		.uleb128 0x2
 13333 2e83 74       		.byte	0x74
 13334 2e84 00       		.sleb128 0
 13335 2e85 00       		.byte	0
 13336 2e86 0A       		.uleb128 0xa
 13337 2e87 AC000000 		.4byte	.LVL612
 13338 2e8b F53E0000 		.4byte	0x3ef5
 13339 2e8f 9A2E0000 		.4byte	0x2e9a
 13340 2e93 0B       		.uleb128 0xb
 13341 2e94 01       		.uleb128 0x1
 13342 2e95 50       		.byte	0x50
 13343 2e96 02       		.uleb128 0x2
 13344 2e97 08       		.byte	0x8
 13345 2e98 64       		.byte	0x64
 13346 2e99 00       		.byte	0
 13347 2e9a 09       		.uleb128 0x9
 13348 2e9b BA000000 		.4byte	.LVL613
 13349 2e9f EB3F0000 		.4byte	0x3feb
 13350 2ea3 0A       		.uleb128 0xa
 13351 2ea4 CA000000 		.4byte	.LVL614
 13352 2ea8 4D0E0000 		.4byte	0xe4d
 13353 2eac C32E0000 		.4byte	0x2ec3
 13354 2eb0 0B       		.uleb128 0xb
 13355 2eb1 01       		.uleb128 0x1
 13356 2eb2 50       		.byte	0x50
 13357 2eb3 02       		.uleb128 0x2
 13358 2eb4 08       		.byte	0x8
 13359 2eb5 21       		.byte	0x21
 13360 2eb6 0B       		.uleb128 0xb
 13361 2eb7 01       		.uleb128 0x1
 13362 2eb8 51       		.byte	0x51
 13363 2eb9 02       		.uleb128 0x2
 13364 2eba 76       		.byte	0x76
 13365 2ebb 00       		.sleb128 0
 13366 2ebc 0B       		.uleb128 0xb
 13367 2ebd 01       		.uleb128 0x1
 13368 2ebe 52       		.byte	0x52
 13369 2ebf 02       		.uleb128 0x2
 13370 2ec0 74       		.byte	0x74
 13371 2ec1 00       		.sleb128 0
 13372 2ec2 00       		.byte	0
 13373 2ec3 0A       		.uleb128 0xa
 13374 2ec4 D0000000 		.4byte	.LVL615
 13375 2ec8 F53E0000 		.4byte	0x3ef5
 13376 2ecc D62E0000 		.4byte	0x2ed6
 13377 2ed0 0B       		.uleb128 0xb
 13378 2ed1 01       		.uleb128 0x1
 13379 2ed2 50       		.byte	0x50
 13380 2ed3 01       		.uleb128 0x1
 13381 2ed4 3A       		.byte	0x3a
 13382 2ed5 00       		.byte	0
 13383 2ed6 0A       		.uleb128 0xa
 13384 2ed7 DA000000 		.4byte	.LVL616
 13385 2edb 4D0E0000 		.4byte	0xe4d
ARM GAS  C:\Users\Revanth\AppData\Local\Temp\ccHsQCvB.s 			page 295


 13386 2edf F62E0000 		.4byte	0x2ef6
 13387 2ee3 0B       		.uleb128 0xb
 13388 2ee4 01       		.uleb128 0x1
 13389 2ee5 50       		.byte	0x50
 13390 2ee6 02       		.uleb128 0x2
 13391 2ee7 08       		.byte	0x8
 13392 2ee8 21       		.byte	0x21
 13393 2ee9 0B       		.uleb128 0xb
 13394 2eea 01       		.uleb128 0x1
 13395 2eeb 51       		.byte	0x51
 13396 2eec 02       		.uleb128 0x2
 13397 2eed 76       		.byte	0x76
 13398 2eee 00       		.sleb128 0
 13399 2eef 0B       		.uleb128 0xb
 13400 2ef0 01       		.uleb128 0x1
 13401 2ef1 52       		.byte	0x52
 13402 2ef2 02       		.uleb128 0x2
 13403 2ef3 74       		.byte	0x74
 13404 2ef4 00       		.sleb128 0
 13405 2ef5 00       		.byte	0
 13406 2ef6 0A       		.uleb128 0xa
 13407 2ef7 E0000000 		.4byte	.LVL617
 13408 2efb 33020000 		.4byte	0x233
 13409 2eff 0A2F0000 		.4byte	0x2f0a
 13410 2f03 0B       		.uleb128 0xb
 13411 2f04 01       		.uleb128 0x1
 13412 2f05 50       		.byte	0x50
 13413 2f06 02       		.uleb128 0x2
 13414 2f07 76       		.byte	0x76
 13415 2f08 00       		.sleb128 0
 13416 2f09 00       		.byte	0
 13417 2f0a 0A       		.uleb128 0xa
 13418 2f0b FE000000 		.4byte	.LVL618
 13419 2f0f F53E0000 		.4byte	0x3ef5
 13420 2f13 1E2F0000 		.4byte	0x2f1e
 13421 2f17 0B       		.uleb128 0xb
 13422 2f18 01       		.uleb128 0x1
 13423 2f19 50       		.byte	0x50
 13424 2f1a 02       		.uleb128 0x2
 13425 2f1b 08       		.byte	0x8
 13426 2f1c 64       		.byte	0x64
 13427 2f1d 00       		.byte	0
 13428 2f1e 0A       		.uleb128 0xa
 13429 2f1f 06010000 		.4byte	.LVL619
 13430 2f23 DB200000 		.4byte	0x20db
 13431 2f27 332F0000 		.4byte	0x2f33
 13432 2f2b 0B       		.uleb128 0xb
 13433 2f2c 01       		.uleb128 0x1
 13434 2f2d 50       		.byte	0x50
 13435 2f2e 03       		.uleb128 0x3
 13436 2f2f 0A       		.byte	0xa
 13437 2f30 D80E     		.2byte	0xed8
 13438 2f32 00       		.byte	0
 13439 2f33 0A       		.uleb128 0xa
 13440 2f34 2C010000 		.4byte	.LVL620
 13441 2f38 F53E0000 		.4byte	0x3ef5
 13442 2f3c 472F0000 		.4byte	0x2f47
ARM GAS  C:\Users\Revanth\AppData\Local\Temp\ccHsQCvB.s 			page 296


 13443 2f40 0B       		.uleb128 0xb
 13444 2f41 01       		.uleb128 0x1
 13445 2f42 50       		.byte	0x50
 13446 2f43 02       		.uleb128 0x2
 13447 2f44 08       		.byte	0x8
 13448 2f45 64       		.byte	0x64
 13449 2f46 00       		.byte	0
 13450 2f47 0A       		.uleb128 0xa
 13451 2f48 36010000 		.4byte	.LVL621
 13452 2f4c 4D0E0000 		.4byte	0xe4d
 13453 2f50 672F0000 		.4byte	0x2f67
 13454 2f54 0B       		.uleb128 0xb
 13455 2f55 01       		.uleb128 0x1
 13456 2f56 50       		.byte	0x50
 13457 2f57 02       		.uleb128 0x2
 13458 2f58 08       		.byte	0x8
 13459 2f59 21       		.byte	0x21
 13460 2f5a 0B       		.uleb128 0xb
 13461 2f5b 01       		.uleb128 0x1
 13462 2f5c 51       		.byte	0x51
 13463 2f5d 02       		.uleb128 0x2
 13464 2f5e 76       		.byte	0x76
 13465 2f5f 00       		.sleb128 0
 13466 2f60 0B       		.uleb128 0xb
 13467 2f61 01       		.uleb128 0x1
 13468 2f62 52       		.byte	0x52
 13469 2f63 02       		.uleb128 0x2
 13470 2f64 74       		.byte	0x74
 13471 2f65 00       		.sleb128 0
 13472 2f66 00       		.byte	0
 13473 2f67 0A       		.uleb128 0xa
 13474 2f68 40010000 		.4byte	.LVL622
 13475 2f6c 4D0E0000 		.4byte	0xe4d
 13476 2f70 872F0000 		.4byte	0x2f87
 13477 2f74 0B       		.uleb128 0xb
 13478 2f75 01       		.uleb128 0x1
 13479 2f76 50       		.byte	0x50
 13480 2f77 02       		.uleb128 0x2
 13481 2f78 08       		.byte	0x8
 13482 2f79 2D       		.byte	0x2d
 13483 2f7a 0B       		.uleb128 0xb
 13484 2f7b 01       		.uleb128 0x1
 13485 2f7c 51       		.byte	0x51
 13486 2f7d 02       		.uleb128 0x2
 13487 2f7e 76       		.byte	0x76
 13488 2f7f 00       		.sleb128 0
 13489 2f80 0B       		.uleb128 0xb
 13490 2f81 01       		.uleb128 0x1
 13491 2f82 52       		.byte	0x52
 13492 2f83 02       		.uleb128 0x2
 13493 2f84 74       		.byte	0x74
 13494 2f85 00       		.sleb128 0
 13495 2f86 00       		.byte	0
 13496 2f87 0A       		.uleb128 0xa
 13497 2f88 4A010000 		.4byte	.LVL623
 13498 2f8c 95230000 		.4byte	0x2395
 13499 2f90 A22F0000 		.4byte	0x2fa2
ARM GAS  C:\Users\Revanth\AppData\Local\Temp\ccHsQCvB.s 			page 297


 13500 2f94 0B       		.uleb128 0xb
 13501 2f95 01       		.uleb128 0x1
 13502 2f96 50       		.byte	0x50
 13503 2f97 03       		.uleb128 0x3
 13504 2f98 0A       		.byte	0xa
 13505 2f99 0032     		.2byte	0x3200
 13506 2f9b 0B       		.uleb128 0xb
 13507 2f9c 01       		.uleb128 0x1
 13508 2f9d 51       		.byte	0x51
 13509 2f9e 02       		.uleb128 0x2
 13510 2f9f 74       		.byte	0x74
 13511 2fa0 00       		.sleb128 0
 13512 2fa1 00       		.byte	0
 13513 2fa2 0A       		.uleb128 0xa
 13514 2fa3 50010000 		.4byte	.LVL624
 13515 2fa7 33020000 		.4byte	0x233
 13516 2fab B62F0000 		.4byte	0x2fb6
 13517 2faf 0B       		.uleb128 0xb
 13518 2fb0 01       		.uleb128 0x1
 13519 2fb1 50       		.byte	0x50
 13520 2fb2 02       		.uleb128 0x2
 13521 2fb3 76       		.byte	0x76
 13522 2fb4 00       		.sleb128 0
 13523 2fb5 00       		.byte	0
 13524 2fb6 0A       		.uleb128 0xa
 13525 2fb7 60010000 		.4byte	.LVL625
 13526 2fbb DF030000 		.4byte	0x3df
 13527 2fbf CD2F0000 		.4byte	0x2fcd
 13528 2fc3 0B       		.uleb128 0xb
 13529 2fc4 01       		.uleb128 0x1
 13530 2fc5 50       		.byte	0x50
 13531 2fc6 05       		.uleb128 0x5
 13532 2fc7 03       		.byte	0x3
 13533 2fc8 BC040000 		.4byte	.LC40
 13534 2fcc 00       		.byte	0
 13535 2fcd 0A       		.uleb128 0xa
 13536 2fce 66010000 		.4byte	.LVL626
 13537 2fd2 CA3F0000 		.4byte	0x3fca
 13538 2fd6 E12F0000 		.4byte	0x2fe1
 13539 2fda 0B       		.uleb128 0xb
 13540 2fdb 01       		.uleb128 0x1
 13541 2fdc 50       		.byte	0x50
 13542 2fdd 02       		.uleb128 0x2
 13543 2fde 09       		.byte	0x9
 13544 2fdf FF       		.byte	0xff
 13545 2fe0 00       		.byte	0
 13546 2fe1 0C       		.uleb128 0xc
 13547 2fe2 6C010000 		.4byte	.LVL627
 13548 2fe6 F53E0000 		.4byte	0x3ef5
 13549 2fea 0B       		.uleb128 0xb
 13550 2feb 01       		.uleb128 0x1
 13551 2fec 50       		.byte	0x50
 13552 2fed 02       		.uleb128 0x2
 13553 2fee 08       		.byte	0x8
 13554 2fef 64       		.byte	0x64
 13555 2ff0 00       		.byte	0
 13556 2ff1 00       		.byte	0
ARM GAS  C:\Users\Revanth\AppData\Local\Temp\ccHsQCvB.s 			page 298


 13557 2ff2 19       		.uleb128 0x19
 13558 2ff3 AB030000 		.4byte	.LASF96
 13559 2ff7 01       		.byte	0x1
 13560 2ff8 C208     		.2byte	0x8c2
 13561 2ffa 89000000 		.4byte	0x89
 13562 2ffe 00000000 		.4byte	.LFB109
 13563 3002 10000000 		.4byte	.LFE109-.LFB109
 13564 3006 01       		.uleb128 0x1
 13565 3007 9C       		.byte	0x9c
 13566 3008 44300000 		.4byte	0x3044
 13567 300c 0E       		.uleb128 0xe
 13568 300d 88070000 		.4byte	.LASF97
 13569 3011 01       		.byte	0x1
 13570 3012 C208     		.2byte	0x8c2
 13571 3014 89000000 		.4byte	0x89
 13572 3018 1A0A0000 		.4byte	.LLST56
 13573 301c 0E       		.uleb128 0xe
 13574 301d 1B060000 		.4byte	.LASF56
 13575 3021 01       		.byte	0x1
 13576 3022 C208     		.2byte	0x8c2
 13577 3024 97000000 		.4byte	0x97
 13578 3028 460A0000 		.4byte	.LLST57
 13579 302c 0C       		.uleb128 0xc
 13580 302d 0C000000 		.4byte	.LVL631
 13581 3031 4D0E0000 		.4byte	0xe4d
 13582 3035 0B       		.uleb128 0xb
 13583 3036 01       		.uleb128 0x1
 13584 3037 50       		.byte	0x50
 13585 3038 02       		.uleb128 0x2
 13586 3039 08       		.byte	0x8
 13587 303a 26       		.byte	0x26
 13588 303b 0B       		.uleb128 0xb
 13589 303c 01       		.uleb128 0x1
 13590 303d 51       		.byte	0x51
 13591 303e 03       		.uleb128 0x3
 13592 303f F3       		.byte	0xf3
 13593 3040 01       		.uleb128 0x1
 13594 3041 50       		.byte	0x50
 13595 3042 00       		.byte	0
 13596 3043 00       		.byte	0
 13597 3044 19       		.uleb128 0x19
 13598 3045 C9070000 		.4byte	.LASF98
 13599 3049 01       		.byte	0x1
 13600 304a C808     		.2byte	0x8c8
 13601 304c 89000000 		.4byte	0x89
 13602 3050 00000000 		.4byte	.LFB110
 13603 3054 90000000 		.4byte	.LFE110-.LFB110
 13604 3058 01       		.uleb128 0x1
 13605 3059 9C       		.byte	0x9c
 13606 305a E0310000 		.4byte	0x31e0
 13607 305e 0E       		.uleb128 0xe
 13608 305f A4020000 		.4byte	.LASF99
 13609 3063 01       		.byte	0x1
 13610 3064 C808     		.2byte	0x8c8
 13611 3066 89000000 		.4byte	0x89
 13612 306a 670A0000 		.4byte	.LLST58
 13613 306e 0E       		.uleb128 0xe
ARM GAS  C:\Users\Revanth\AppData\Local\Temp\ccHsQCvB.s 			page 299


 13614 306f C9000000 		.4byte	.LASF100
 13615 3073 01       		.byte	0x1
 13616 3074 C808     		.2byte	0x8c8
 13617 3076 97000000 		.4byte	0x97
 13618 307a B80A0000 		.4byte	.LLST59
 13619 307e 0A       		.uleb128 0xa
 13620 307f 10000000 		.4byte	.LVL635
 13621 3083 4D0E0000 		.4byte	0xe4d
 13622 3087 9C300000 		.4byte	0x309c
 13623 308b 0B       		.uleb128 0xb
 13624 308c 01       		.uleb128 0x1
 13625 308d 50       		.byte	0x50
 13626 308e 02       		.uleb128 0x2
 13627 308f 08       		.byte	0x8
 13628 3090 21       		.byte	0x21
 13629 3091 0B       		.uleb128 0xb
 13630 3092 01       		.uleb128 0x1
 13631 3093 51       		.byte	0x51
 13632 3094 01       		.uleb128 0x1
 13633 3095 30       		.byte	0x30
 13634 3096 0B       		.uleb128 0xb
 13635 3097 01       		.uleb128 0x1
 13636 3098 52       		.byte	0x52
 13637 3099 01       		.uleb128 0x1
 13638 309a 34       		.byte	0x34
 13639 309b 00       		.byte	0
 13640 309c 0A       		.uleb128 0xa
 13641 309d 1A000000 		.4byte	.LVL636
 13642 30a1 4D0E0000 		.4byte	0xe4d
 13643 30a5 BA300000 		.4byte	0x30ba
 13644 30a9 0B       		.uleb128 0xb
 13645 30aa 01       		.uleb128 0x1
 13646 30ab 50       		.byte	0x50
 13647 30ac 02       		.uleb128 0x2
 13648 30ad 08       		.byte	0x8
 13649 30ae 20       		.byte	0x20
 13650 30af 0B       		.uleb128 0xb
 13651 30b0 01       		.uleb128 0x1
 13652 30b1 51       		.byte	0x51
 13653 30b2 01       		.uleb128 0x1
 13654 30b3 30       		.byte	0x30
 13655 30b4 0B       		.uleb128 0xb
 13656 30b5 01       		.uleb128 0x1
 13657 30b6 52       		.byte	0x52
 13658 30b7 01       		.uleb128 0x1
 13659 30b8 34       		.byte	0x34
 13660 30b9 00       		.byte	0
 13661 30ba 0A       		.uleb128 0xa
 13662 30bb 22000000 		.4byte	.LVL637
 13663 30bf 95230000 		.4byte	0x2395
 13664 30c3 D6300000 		.4byte	0x30d6
 13665 30c7 0B       		.uleb128 0xb
 13666 30c8 01       		.uleb128 0x1
 13667 30c9 50       		.byte	0x50
 13668 30ca 05       		.uleb128 0x5
 13669 30cb 0C       		.byte	0xc
 13670 30cc 6EA30100 		.4byte	0x1a36e
ARM GAS  C:\Users\Revanth\AppData\Local\Temp\ccHsQCvB.s 			page 300


 13671 30d0 0B       		.uleb128 0xb
 13672 30d1 01       		.uleb128 0x1
 13673 30d2 51       		.byte	0x51
 13674 30d3 01       		.uleb128 0x1
 13675 30d4 34       		.byte	0x34
 13676 30d5 00       		.byte	0
 13677 30d6 0A       		.uleb128 0xa
 13678 30d7 28000000 		.4byte	.LVL638
 13679 30db 0C400000 		.4byte	0x400c
 13680 30df E9300000 		.4byte	0x30e9
 13681 30e3 0B       		.uleb128 0xb
 13682 30e4 01       		.uleb128 0x1
 13683 30e5 50       		.byte	0x50
 13684 30e6 01       		.uleb128 0x1
 13685 30e7 30       		.byte	0x30
 13686 30e8 00       		.byte	0
 13687 30e9 0A       		.uleb128 0xa
 13688 30ea 2E000000 		.4byte	.LVL639
 13689 30ee 713E0000 		.4byte	0x3e71
 13690 30f2 FC300000 		.4byte	0x30fc
 13691 30f6 0B       		.uleb128 0xb
 13692 30f7 01       		.uleb128 0x1
 13693 30f8 50       		.byte	0x50
 13694 30f9 01       		.uleb128 0x1
 13695 30fa 3F       		.byte	0x3f
 13696 30fb 00       		.byte	0
 13697 30fc 0A       		.uleb128 0xa
 13698 30fd 38000000 		.4byte	.LVL640
 13699 3101 713E0000 		.4byte	0x3e71
 13700 3105 0F310000 		.4byte	0x310f
 13701 3109 0B       		.uleb128 0xb
 13702 310a 01       		.uleb128 0x1
 13703 310b 50       		.byte	0x50
 13704 310c 01       		.uleb128 0x1
 13705 310d 31       		.byte	0x31
 13706 310e 00       		.byte	0
 13707 310f 0A       		.uleb128 0xa
 13708 3110 4A000000 		.4byte	.LVL642
 13709 3114 380F0000 		.4byte	0xf38
 13710 3118 28310000 		.4byte	0x3128
 13711 311c 0B       		.uleb128 0xb
 13712 311d 01       		.uleb128 0x1
 13713 311e 50       		.byte	0x50
 13714 311f 02       		.uleb128 0x2
 13715 3120 75       		.byte	0x75
 13716 3121 00       		.sleb128 0
 13717 3122 0B       		.uleb128 0xb
 13718 3123 01       		.uleb128 0x1
 13719 3124 51       		.byte	0x51
 13720 3125 01       		.uleb128 0x1
 13721 3126 34       		.byte	0x34
 13722 3127 00       		.byte	0
 13723 3128 0A       		.uleb128 0xa
 13724 3129 50000000 		.4byte	.LVL643
 13725 312d 53170000 		.4byte	0x1753
 13726 3131 3B310000 		.4byte	0x313b
 13727 3135 0B       		.uleb128 0xb
ARM GAS  C:\Users\Revanth\AppData\Local\Temp\ccHsQCvB.s 			page 301


 13728 3136 01       		.uleb128 0x1
 13729 3137 50       		.byte	0x50
 13730 3138 01       		.uleb128 0x1
 13731 3139 34       		.byte	0x34
 13732 313a 00       		.byte	0
 13733 313b 0A       		.uleb128 0xa
 13734 313c 5A000000 		.4byte	.LVL646
 13735 3140 380F0000 		.4byte	0xf38
 13736 3144 55310000 		.4byte	0x3155
 13737 3148 0B       		.uleb128 0xb
 13738 3149 01       		.uleb128 0x1
 13739 314a 50       		.byte	0x50
 13740 314b 03       		.uleb128 0x3
 13741 314c 75       		.byte	0x75
 13742 314d 00       		.sleb128 0
 13743 314e 1F       		.byte	0x1f
 13744 314f 0B       		.uleb128 0xb
 13745 3150 01       		.uleb128 0x1
 13746 3151 51       		.byte	0x51
 13747 3152 01       		.uleb128 0x1
 13748 3153 34       		.byte	0x34
 13749 3154 00       		.byte	0
 13750 3155 0A       		.uleb128 0xa
 13751 3156 60000000 		.4byte	.LVL647
 13752 315a 53170000 		.4byte	0x1753
 13753 315e 68310000 		.4byte	0x3168
 13754 3162 0B       		.uleb128 0xb
 13755 3163 01       		.uleb128 0x1
 13756 3164 50       		.byte	0x50
 13757 3165 01       		.uleb128 0x1
 13758 3166 34       		.byte	0x34
 13759 3167 00       		.byte	0
 13760 3168 0A       		.uleb128 0xa
 13761 3169 68000000 		.4byte	.LVL648
 13762 316d 95230000 		.4byte	0x2395
 13763 3171 80310000 		.4byte	0x3180
 13764 3175 0B       		.uleb128 0xb
 13765 3176 01       		.uleb128 0x1
 13766 3177 50       		.byte	0x50
 13767 3178 01       		.uleb128 0x1
 13768 3179 30       		.byte	0x30
 13769 317a 0B       		.uleb128 0xb
 13770 317b 01       		.uleb128 0x1
 13771 317c 51       		.byte	0x51
 13772 317d 01       		.uleb128 0x1
 13773 317e 34       		.byte	0x34
 13774 317f 00       		.byte	0
 13775 3180 0A       		.uleb128 0xa
 13776 3181 72000000 		.4byte	.LVL649
 13777 3185 4D0E0000 		.4byte	0xe4d
 13778 3189 9E310000 		.4byte	0x319e
 13779 318d 0B       		.uleb128 0xb
 13780 318e 01       		.uleb128 0x1
 13781 318f 50       		.byte	0x50
 13782 3190 02       		.uleb128 0x2
 13783 3191 08       		.byte	0x8
 13784 3192 21       		.byte	0x21
ARM GAS  C:\Users\Revanth\AppData\Local\Temp\ccHsQCvB.s 			page 302


 13785 3193 0B       		.uleb128 0xb
 13786 3194 01       		.uleb128 0x1
 13787 3195 51       		.byte	0x51
 13788 3196 01       		.uleb128 0x1
 13789 3197 30       		.byte	0x30
 13790 3198 0B       		.uleb128 0xb
 13791 3199 01       		.uleb128 0x1
 13792 319a 52       		.byte	0x52
 13793 319b 01       		.uleb128 0x1
 13794 319c 34       		.byte	0x34
 13795 319d 00       		.byte	0
 13796 319e 0A       		.uleb128 0xa
 13797 319f 7C000000 		.4byte	.LVL650
 13798 31a3 4D0E0000 		.4byte	0xe4d
 13799 31a7 BC310000 		.4byte	0x31bc
 13800 31ab 0B       		.uleb128 0xb
 13801 31ac 01       		.uleb128 0x1
 13802 31ad 50       		.byte	0x50
 13803 31ae 02       		.uleb128 0x2
 13804 31af 08       		.byte	0x8
 13805 31b0 20       		.byte	0x20
 13806 31b1 0B       		.uleb128 0xb
 13807 31b2 01       		.uleb128 0x1
 13808 31b3 51       		.byte	0x51
 13809 31b4 01       		.uleb128 0x1
 13810 31b5 30       		.byte	0x30
 13811 31b6 0B       		.uleb128 0xb
 13812 31b7 01       		.uleb128 0x1
 13813 31b8 52       		.byte	0x52
 13814 31b9 01       		.uleb128 0x1
 13815 31ba 34       		.byte	0x34
 13816 31bb 00       		.byte	0
 13817 31bc 0A       		.uleb128 0xa
 13818 31bd 82000000 		.4byte	.LVL651
 13819 31c1 713E0000 		.4byte	0x3e71
 13820 31c5 CF310000 		.4byte	0x31cf
 13821 31c9 0B       		.uleb128 0xb
 13822 31ca 01       		.uleb128 0x1
 13823 31cb 50       		.byte	0x50
 13824 31cc 01       		.uleb128 0x1
 13825 31cd 35       		.byte	0x35
 13826 31ce 00       		.byte	0
 13827 31cf 0C       		.uleb128 0xc
 13828 31d0 88000000 		.4byte	.LVL652
 13829 31d4 0C400000 		.4byte	0x400c
 13830 31d8 0B       		.uleb128 0xb
 13831 31d9 01       		.uleb128 0x1
 13832 31da 50       		.byte	0x50
 13833 31db 02       		.uleb128 0x2
 13834 31dc 09       		.byte	0x9
 13835 31dd FF       		.byte	0xff
 13836 31de 00       		.byte	0
 13837 31df 00       		.byte	0
 13838 31e0 19       		.uleb128 0x19
 13839 31e1 DD090000 		.4byte	.LASF101
 13840 31e5 01       		.byte	0x1
 13841 31e6 F208     		.2byte	0x8f2
ARM GAS  C:\Users\Revanth\AppData\Local\Temp\ccHsQCvB.s 			page 303


 13842 31e8 89000000 		.4byte	0x89
 13843 31ec 00000000 		.4byte	.LFB111
 13844 31f0 80000000 		.4byte	.LFE111-.LFB111
 13845 31f4 01       		.uleb128 0x1
 13846 31f5 9C       		.byte	0x9c
 13847 31f6 76330000 		.4byte	0x3376
 13848 31fa 0E       		.uleb128 0xe
 13849 31fb A4020000 		.4byte	.LASF99
 13850 31ff 01       		.byte	0x1
 13851 3200 F208     		.2byte	0x8f2
 13852 3202 89000000 		.4byte	0x89
 13853 3206 E40A0000 		.4byte	.LLST60
 13854 320a 0E       		.uleb128 0xe
 13855 320b 270B0000 		.4byte	.LASF102
 13856 320f 01       		.byte	0x1
 13857 3210 F208     		.2byte	0x8f2
 13858 3212 89000000 		.4byte	0x89
 13859 3216 290B0000 		.4byte	.LLST61
 13860 321a 0E       		.uleb128 0xe
 13861 321b C9000000 		.4byte	.LASF100
 13862 321f 01       		.byte	0x1
 13863 3220 F208     		.2byte	0x8f2
 13864 3222 97000000 		.4byte	0x97
 13865 3226 470B0000 		.4byte	.LLST62
 13866 322a 0A       		.uleb128 0xa
 13867 322b 12000000 		.4byte	.LVL658
 13868 322f 4D0E0000 		.4byte	0xe4d
 13869 3233 48320000 		.4byte	0x3248
 13870 3237 0B       		.uleb128 0xb
 13871 3238 01       		.uleb128 0x1
 13872 3239 50       		.byte	0x50
 13873 323a 02       		.uleb128 0x2
 13874 323b 08       		.byte	0x8
 13875 323c 20       		.byte	0x20
 13876 323d 0B       		.uleb128 0xb
 13877 323e 01       		.uleb128 0x1
 13878 323f 51       		.byte	0x51
 13879 3240 01       		.uleb128 0x1
 13880 3241 30       		.byte	0x30
 13881 3242 0B       		.uleb128 0xb
 13882 3243 01       		.uleb128 0x1
 13883 3244 52       		.byte	0x52
 13884 3245 01       		.uleb128 0x1
 13885 3246 34       		.byte	0x34
 13886 3247 00       		.byte	0
 13887 3248 0A       		.uleb128 0xa
 13888 3249 1C000000 		.4byte	.LVL659
 13889 324d 4D0E0000 		.4byte	0xe4d
 13890 3251 66320000 		.4byte	0x3266
 13891 3255 0B       		.uleb128 0xb
 13892 3256 01       		.uleb128 0x1
 13893 3257 50       		.byte	0x50
 13894 3258 02       		.uleb128 0x2
 13895 3259 08       		.byte	0x8
 13896 325a 21       		.byte	0x21
 13897 325b 0B       		.uleb128 0xb
 13898 325c 01       		.uleb128 0x1
ARM GAS  C:\Users\Revanth\AppData\Local\Temp\ccHsQCvB.s 			page 304


 13899 325d 51       		.byte	0x51
 13900 325e 01       		.uleb128 0x1
 13901 325f 30       		.byte	0x30
 13902 3260 0B       		.uleb128 0xb
 13903 3261 01       		.uleb128 0x1
 13904 3262 52       		.byte	0x52
 13905 3263 01       		.uleb128 0x1
 13906 3264 34       		.byte	0x34
 13907 3265 00       		.byte	0
 13908 3266 0A       		.uleb128 0xa
 13909 3267 24000000 		.4byte	.LVL660
 13910 326b 95230000 		.4byte	0x2395
 13911 326f 7F320000 		.4byte	0x327f
 13912 3273 0B       		.uleb128 0xb
 13913 3274 01       		.uleb128 0x1
 13914 3275 50       		.byte	0x50
 13915 3276 02       		.uleb128 0x2
 13916 3277 75       		.byte	0x75
 13917 3278 00       		.sleb128 0
 13918 3279 0B       		.uleb128 0xb
 13919 327a 01       		.uleb128 0x1
 13920 327b 51       		.byte	0x51
 13921 327c 01       		.uleb128 0x1
 13922 327d 34       		.byte	0x34
 13923 327e 00       		.byte	0
 13924 327f 0A       		.uleb128 0xa
 13925 3280 2A000000 		.4byte	.LVL661
 13926 3284 0C400000 		.4byte	0x400c
 13927 3288 92320000 		.4byte	0x3292
 13928 328c 0B       		.uleb128 0xb
 13929 328d 01       		.uleb128 0x1
 13930 328e 50       		.byte	0x50
 13931 328f 01       		.uleb128 0x1
 13932 3290 30       		.byte	0x30
 13933 3291 00       		.byte	0
 13934 3292 0A       		.uleb128 0xa
 13935 3293 30000000 		.4byte	.LVL662
 13936 3297 713E0000 		.4byte	0x3e71
 13937 329b A5320000 		.4byte	0x32a5
 13938 329f 0B       		.uleb128 0xb
 13939 32a0 01       		.uleb128 0x1
 13940 32a1 50       		.byte	0x50
 13941 32a2 01       		.uleb128 0x1
 13942 32a3 3A       		.byte	0x3a
 13943 32a4 00       		.byte	0
 13944 32a5 0A       		.uleb128 0xa
 13945 32a6 3E000000 		.4byte	.LVL663
 13946 32aa 380F0000 		.4byte	0xf38
 13947 32ae BE320000 		.4byte	0x32be
 13948 32b2 0B       		.uleb128 0xb
 13949 32b3 01       		.uleb128 0x1
 13950 32b4 50       		.byte	0x50
 13951 32b5 02       		.uleb128 0x2
 13952 32b6 76       		.byte	0x76
 13953 32b7 00       		.sleb128 0
 13954 32b8 0B       		.uleb128 0xb
 13955 32b9 01       		.uleb128 0x1
ARM GAS  C:\Users\Revanth\AppData\Local\Temp\ccHsQCvB.s 			page 305


 13956 32ba 51       		.byte	0x51
 13957 32bb 01       		.uleb128 0x1
 13958 32bc 34       		.byte	0x34
 13959 32bd 00       		.byte	0
 13960 32be 0A       		.uleb128 0xa
 13961 32bf 44000000 		.4byte	.LVL664
 13962 32c3 53170000 		.4byte	0x1753
 13963 32c7 D1320000 		.4byte	0x32d1
 13964 32cb 0B       		.uleb128 0xb
 13965 32cc 01       		.uleb128 0x1
 13966 32cd 50       		.byte	0x50
 13967 32ce 01       		.uleb128 0x1
 13968 32cf 34       		.byte	0x34
 13969 32d0 00       		.byte	0
 13970 32d1 0A       		.uleb128 0xa
 13971 32d2 4E000000 		.4byte	.LVL667
 13972 32d6 380F0000 		.4byte	0xf38
 13973 32da EB320000 		.4byte	0x32eb
 13974 32de 0B       		.uleb128 0xb
 13975 32df 01       		.uleb128 0x1
 13976 32e0 50       		.byte	0x50
 13977 32e1 03       		.uleb128 0x3
 13978 32e2 76       		.byte	0x76
 13979 32e3 00       		.sleb128 0
 13980 32e4 1F       		.byte	0x1f
 13981 32e5 0B       		.uleb128 0xb
 13982 32e6 01       		.uleb128 0x1
 13983 32e7 51       		.byte	0x51
 13984 32e8 01       		.uleb128 0x1
 13985 32e9 34       		.byte	0x34
 13986 32ea 00       		.byte	0
 13987 32eb 0A       		.uleb128 0xa
 13988 32ec 54000000 		.4byte	.LVL668
 13989 32f0 53170000 		.4byte	0x1753
 13990 32f4 FE320000 		.4byte	0x32fe
 13991 32f8 0B       		.uleb128 0xb
 13992 32f9 01       		.uleb128 0x1
 13993 32fa 50       		.byte	0x50
 13994 32fb 01       		.uleb128 0x1
 13995 32fc 34       		.byte	0x34
 13996 32fd 00       		.byte	0
 13997 32fe 0A       		.uleb128 0xa
 13998 32ff 5C000000 		.4byte	.LVL669
 13999 3303 95230000 		.4byte	0x2395
 14000 3307 16330000 		.4byte	0x3316
 14001 330b 0B       		.uleb128 0xb
 14002 330c 01       		.uleb128 0x1
 14003 330d 50       		.byte	0x50
 14004 330e 01       		.uleb128 0x1
 14005 330f 30       		.byte	0x30
 14006 3310 0B       		.uleb128 0xb
 14007 3311 01       		.uleb128 0x1
 14008 3312 51       		.byte	0x51
 14009 3313 01       		.uleb128 0x1
 14010 3314 34       		.byte	0x34
 14011 3315 00       		.byte	0
 14012 3316 0A       		.uleb128 0xa
ARM GAS  C:\Users\Revanth\AppData\Local\Temp\ccHsQCvB.s 			page 306


 14013 3317 66000000 		.4byte	.LVL670
 14014 331b 4D0E0000 		.4byte	0xe4d
 14015 331f 34330000 		.4byte	0x3334
 14016 3323 0B       		.uleb128 0xb
 14017 3324 01       		.uleb128 0x1
 14018 3325 50       		.byte	0x50
 14019 3326 02       		.uleb128 0x2
 14020 3327 08       		.byte	0x8
 14021 3328 21       		.byte	0x21
 14022 3329 0B       		.uleb128 0xb
 14023 332a 01       		.uleb128 0x1
 14024 332b 51       		.byte	0x51
 14025 332c 01       		.uleb128 0x1
 14026 332d 30       		.byte	0x30
 14027 332e 0B       		.uleb128 0xb
 14028 332f 01       		.uleb128 0x1
 14029 3330 52       		.byte	0x52
 14030 3331 01       		.uleb128 0x1
 14031 3332 34       		.byte	0x34
 14032 3333 00       		.byte	0
 14033 3334 0A       		.uleb128 0xa
 14034 3335 70000000 		.4byte	.LVL671
 14035 3339 4D0E0000 		.4byte	0xe4d
 14036 333d 52330000 		.4byte	0x3352
 14037 3341 0B       		.uleb128 0xb
 14038 3342 01       		.uleb128 0x1
 14039 3343 50       		.byte	0x50
 14040 3344 02       		.uleb128 0x2
 14041 3345 08       		.byte	0x8
 14042 3346 20       		.byte	0x20
 14043 3347 0B       		.uleb128 0xb
 14044 3348 01       		.uleb128 0x1
 14045 3349 51       		.byte	0x51
 14046 334a 01       		.uleb128 0x1
 14047 334b 31       		.byte	0x31
 14048 334c 0B       		.uleb128 0xb
 14049 334d 01       		.uleb128 0x1
 14050 334e 52       		.byte	0x52
 14051 334f 01       		.uleb128 0x1
 14052 3350 34       		.byte	0x34
 14053 3351 00       		.byte	0
 14054 3352 0A       		.uleb128 0xa
 14055 3353 76000000 		.4byte	.LVL672
 14056 3357 713E0000 		.4byte	0x3e71
 14057 335b 65330000 		.4byte	0x3365
 14058 335f 0B       		.uleb128 0xb
 14059 3360 01       		.uleb128 0x1
 14060 3361 50       		.byte	0x50
 14061 3362 01       		.uleb128 0x1
 14062 3363 35       		.byte	0x35
 14063 3364 00       		.byte	0
 14064 3365 0C       		.uleb128 0xc
 14065 3366 7C000000 		.4byte	.LVL673
 14066 336a 0C400000 		.4byte	0x400c
 14067 336e 0B       		.uleb128 0xb
 14068 336f 01       		.uleb128 0x1
 14069 3370 50       		.byte	0x50
ARM GAS  C:\Users\Revanth\AppData\Local\Temp\ccHsQCvB.s 			page 307


 14070 3371 02       		.uleb128 0x2
 14071 3372 09       		.byte	0x9
 14072 3373 FF       		.byte	0xff
 14073 3374 00       		.byte	0
 14074 3375 00       		.byte	0
 14075 3376 20       		.uleb128 0x20
 14076 3377 68070000 		.4byte	.LASF103
 14077 337b 01       		.byte	0x1
 14078 337c C504     		.2byte	0x4c5
 14079 337e 00000000 		.4byte	.LFB91
 14080 3382 84070000 		.4byte	.LFE91-.LFB91
 14081 3386 01       		.uleb128 0x1
 14082 3387 9C       		.byte	0x9c
 14083 3388 2F3B0000 		.4byte	0x3b2f
 14084 338c 21       		.uleb128 0x21
 14085 338d 52020000 		.4byte	.LBB4
 14086 3391 3C000000 		.4byte	.LBE4-.LBB4
 14087 3395 EA330000 		.4byte	0x33ea
 14088 3399 1A       		.uleb128 0x1a
 14089 339a A4020000 		.4byte	.LASF99
 14090 339e 01       		.byte	0x1
 14091 339f 2A05     		.2byte	0x52a
 14092 33a1 89000000 		.4byte	0x89
 14093 33a5 680B0000 		.4byte	.LLST63
 14094 33a9 1A       		.uleb128 0x1a
 14095 33aa C9000000 		.4byte	.LASF100
 14096 33ae 01       		.byte	0x1
 14097 33af 2B05     		.2byte	0x52b
 14098 33b1 97000000 		.4byte	0x97
 14099 33b5 870B0000 		.4byte	.LLST64
 14100 33b9 0A       		.uleb128 0xa
 14101 33ba 74020000 		.4byte	.LVL727
 14102 33be F53E0000 		.4byte	0x3ef5
 14103 33c2 CC330000 		.4byte	0x33cc
 14104 33c6 0B       		.uleb128 0xb
 14105 33c7 01       		.uleb128 0x1
 14106 33c8 50       		.byte	0x50
 14107 33c9 01       		.uleb128 0x1
 14108 33ca 3A       		.byte	0x3a
 14109 33cb 00       		.byte	0
 14110 33cc 0A       		.uleb128 0xa
 14111 33cd 86020000 		.4byte	.LVL729
 14112 33d1 44300000 		.4byte	0x3044
 14113 33d5 E0330000 		.4byte	0x33e0
 14114 33d9 0B       		.uleb128 0xb
 14115 33da 01       		.uleb128 0x1
 14116 33db 50       		.byte	0x50
 14117 33dc 02       		.uleb128 0x2
 14118 33dd 74       		.byte	0x74
 14119 33de 00       		.sleb128 0
 14120 33df 00       		.byte	0
 14121 33e0 09       		.uleb128 0x9
 14122 33e1 8E020000 		.4byte	.LVL730
 14123 33e5 3C060000 		.4byte	0x63c
 14124 33e9 00       		.byte	0
 14125 33ea 21       		.uleb128 0x21
 14126 33eb F8030000 		.4byte	.LBB5
ARM GAS  C:\Users\Revanth\AppData\Local\Temp\ccHsQCvB.s 			page 308


 14127 33ef 22000000 		.4byte	.LBE5-.LBB5
 14128 33f3 3C340000 		.4byte	0x343c
 14129 33f7 1A       		.uleb128 0x1a
 14130 33f8 DB030000 		.4byte	.LASF28
 14131 33fc 01       		.byte	0x1
 14132 33fd 6A05     		.2byte	0x56a
 14133 33ff 97000000 		.4byte	0x97
 14134 3403 AA0B0000 		.4byte	.LLST65
 14135 3407 0A       		.uleb128 0xa
 14136 3408 08040000 		.4byte	.LVL756
 14137 340c DF030000 		.4byte	0x3df
 14138 3410 1E340000 		.4byte	0x341e
 14139 3414 0B       		.uleb128 0xb
 14140 3415 01       		.uleb128 0x1
 14141 3416 50       		.byte	0x50
 14142 3417 05       		.uleb128 0x5
 14143 3418 03       		.byte	0x3
 14144 3419 D0040000 		.4byte	.LC41
 14145 341d 00       		.byte	0
 14146 341e 0A       		.uleb128 0xa
 14147 341f 12040000 		.4byte	.LVL758
 14148 3423 7C3E0000 		.4byte	0x3e7c
 14149 3427 32340000 		.4byte	0x3432
 14150 342b 0B       		.uleb128 0xb
 14151 342c 01       		.uleb128 0x1
 14152 342d 50       		.byte	0x50
 14153 342e 02       		.uleb128 0x2
 14154 342f 74       		.byte	0x74
 14155 3430 00       		.sleb128 0
 14156 3431 00       		.byte	0
 14157 3432 09       		.uleb128 0x9
 14158 3433 1A040000 		.4byte	.LVL759
 14159 3437 3C060000 		.4byte	0x63c
 14160 343b 00       		.byte	0
 14161 343c 0A       		.uleb128 0xa
 14162 343d 22000000 		.4byte	.LVL674
 14163 3441 95230000 		.4byte	0x2395
 14164 3445 58340000 		.4byte	0x3458
 14165 3449 0B       		.uleb128 0xb
 14166 344a 01       		.uleb128 0x1
 14167 344b 50       		.byte	0x50
 14168 344c 05       		.uleb128 0x5
 14169 344d 0C       		.byte	0xc
 14170 344e FAD00500 		.4byte	0x5d0fa
 14171 3452 0B       		.uleb128 0xb
 14172 3453 01       		.uleb128 0x1
 14173 3454 51       		.byte	0x51
 14174 3455 01       		.uleb128 0x1
 14175 3456 30       		.byte	0x30
 14176 3457 00       		.byte	0
 14177 3458 0A       		.uleb128 0xa
 14178 3459 28000000 		.4byte	.LVL675
 14179 345d 713E0000 		.4byte	0x3e71
 14180 3461 6B340000 		.4byte	0x346b
 14181 3465 0B       		.uleb128 0xb
 14182 3466 01       		.uleb128 0x1
 14183 3467 50       		.byte	0x50
ARM GAS  C:\Users\Revanth\AppData\Local\Temp\ccHsQCvB.s 			page 309


 14184 3468 01       		.uleb128 0x1
 14185 3469 31       		.byte	0x31
 14186 346a 00       		.byte	0
 14187 346b 0A       		.uleb128 0xa
 14188 346c 2E000000 		.4byte	.LVL676
 14189 3470 31180000 		.4byte	0x1831
 14190 3474 7E340000 		.4byte	0x347e
 14191 3478 0B       		.uleb128 0xb
 14192 3479 01       		.uleb128 0x1
 14193 347a 50       		.byte	0x50
 14194 347b 01       		.uleb128 0x1
 14195 347c 30       		.byte	0x30
 14196 347d 00       		.byte	0
 14197 347e 0A       		.uleb128 0xa
 14198 347f 34000000 		.4byte	.LVL677
 14199 3483 E7230000 		.4byte	0x23e7
 14200 3487 91340000 		.4byte	0x3491
 14201 348b 0B       		.uleb128 0xb
 14202 348c 01       		.uleb128 0x1
 14203 348d 50       		.byte	0x50
 14204 348e 01       		.uleb128 0x1
 14205 348f 30       		.byte	0x30
 14206 3490 00       		.byte	0
 14207 3491 09       		.uleb128 0x9
 14208 3492 3C000000 		.4byte	.LVL678
 14209 3496 3C060000 		.4byte	0x63c
 14210 349a 0A       		.uleb128 0xa
 14211 349b 4A000000 		.4byte	.LVL679
 14212 349f 95230000 		.4byte	0x2395
 14213 34a3 B6340000 		.4byte	0x34b6
 14214 34a7 0B       		.uleb128 0xb
 14215 34a8 01       		.uleb128 0x1
 14216 34a9 50       		.byte	0x50
 14217 34aa 05       		.uleb128 0x5
 14218 34ab 0C       		.byte	0xc
 14219 34ac FAD00500 		.4byte	0x5d0fa
 14220 34b0 0B       		.uleb128 0xb
 14221 34b1 01       		.uleb128 0x1
 14222 34b2 51       		.byte	0x51
 14223 34b3 01       		.uleb128 0x1
 14224 34b4 31       		.byte	0x31
 14225 34b5 00       		.byte	0
 14226 34b6 0A       		.uleb128 0xa
 14227 34b7 50000000 		.4byte	.LVL680
 14228 34bb 713E0000 		.4byte	0x3e71
 14229 34bf C9340000 		.4byte	0x34c9
 14230 34c3 0B       		.uleb128 0xb
 14231 34c4 01       		.uleb128 0x1
 14232 34c5 50       		.byte	0x50
 14233 34c6 01       		.uleb128 0x1
 14234 34c7 31       		.byte	0x31
 14235 34c8 00       		.byte	0
 14236 34c9 0A       		.uleb128 0xa
 14237 34ca 56000000 		.4byte	.LVL681
 14238 34ce FB1B0000 		.4byte	0x1bfb
 14239 34d2 DC340000 		.4byte	0x34dc
 14240 34d6 0B       		.uleb128 0xb
ARM GAS  C:\Users\Revanth\AppData\Local\Temp\ccHsQCvB.s 			page 310


 14241 34d7 01       		.uleb128 0x1
 14242 34d8 50       		.byte	0x50
 14243 34d9 01       		.uleb128 0x1
 14244 34da 30       		.byte	0x30
 14245 34db 00       		.byte	0
 14246 34dc 0A       		.uleb128 0xa
 14247 34dd 5C000000 		.4byte	.LVL682
 14248 34e1 EC260000 		.4byte	0x26ec
 14249 34e5 EF340000 		.4byte	0x34ef
 14250 34e9 0B       		.uleb128 0xb
 14251 34ea 01       		.uleb128 0x1
 14252 34eb 50       		.byte	0x50
 14253 34ec 01       		.uleb128 0x1
 14254 34ed 31       		.byte	0x31
 14255 34ee 00       		.byte	0
 14256 34ef 09       		.uleb128 0x9
 14257 34f0 64000000 		.4byte	.LVL683
 14258 34f4 3C060000 		.4byte	0x63c
 14259 34f8 0A       		.uleb128 0xa
 14260 34f9 72000000 		.4byte	.LVL684
 14261 34fd 95230000 		.4byte	0x2395
 14262 3501 14350000 		.4byte	0x3514
 14263 3505 0B       		.uleb128 0xb
 14264 3506 01       		.uleb128 0x1
 14265 3507 50       		.byte	0x50
 14266 3508 05       		.uleb128 0x5
 14267 3509 0C       		.byte	0xc
 14268 350a 6EA30100 		.4byte	0x1a36e
 14269 350e 0B       		.uleb128 0xb
 14270 350f 01       		.uleb128 0x1
 14271 3510 51       		.byte	0x51
 14272 3511 01       		.uleb128 0x1
 14273 3512 32       		.byte	0x32
 14274 3513 00       		.byte	0
 14275 3514 0A       		.uleb128 0xa
 14276 3515 78000000 		.4byte	.LVL685
 14277 3519 F53E0000 		.4byte	0x3ef5
 14278 351d 28350000 		.4byte	0x3528
 14279 3521 0B       		.uleb128 0xb
 14280 3522 01       		.uleb128 0x1
 14281 3523 50       		.byte	0x50
 14282 3524 02       		.uleb128 0x2
 14283 3525 08       		.byte	0x8
 14284 3526 64       		.byte	0x64
 14285 3527 00       		.byte	0
 14286 3528 0A       		.uleb128 0xa
 14287 3529 7E000000 		.4byte	.LVL686
 14288 352d 6F1E0000 		.4byte	0x1e6f
 14289 3531 3B350000 		.4byte	0x353b
 14290 3535 0B       		.uleb128 0xb
 14291 3536 01       		.uleb128 0x1
 14292 3537 50       		.byte	0x50
 14293 3538 01       		.uleb128 0x1
 14294 3539 30       		.byte	0x30
 14295 353a 00       		.byte	0
 14296 353b 0A       		.uleb128 0xa
 14297 353c 84000000 		.4byte	.LVL687
ARM GAS  C:\Users\Revanth\AppData\Local\Temp\ccHsQCvB.s 			page 311


 14298 3540 F3290000 		.4byte	0x29f3
 14299 3544 4E350000 		.4byte	0x354e
 14300 3548 0B       		.uleb128 0xb
 14301 3549 01       		.uleb128 0x1
 14302 354a 50       		.byte	0x50
 14303 354b 01       		.uleb128 0x1
 14304 354c 32       		.byte	0x32
 14305 354d 00       		.byte	0
 14306 354e 09       		.uleb128 0x9
 14307 354f 8C000000 		.4byte	.LVL688
 14308 3553 3C060000 		.4byte	0x63c
 14309 3557 0A       		.uleb128 0xa
 14310 3558 9C000000 		.4byte	.LVL689
 14311 355c 4D0E0000 		.4byte	0xe4d
 14312 3560 78350000 		.4byte	0x3578
 14313 3564 0B       		.uleb128 0xb
 14314 3565 01       		.uleb128 0x1
 14315 3566 50       		.byte	0x50
 14316 3567 01       		.uleb128 0x1
 14317 3568 40       		.byte	0x40
 14318 3569 0B       		.uleb128 0xb
 14319 356a 01       		.uleb128 0x1
 14320 356b 51       		.byte	0x51
 14321 356c 05       		.uleb128 0x5
 14322 356d 0C       		.byte	0xc
 14323 356e 03050700 		.4byte	0x70503
 14324 3572 0B       		.uleb128 0xb
 14325 3573 01       		.uleb128 0x1
 14326 3574 52       		.byte	0x52
 14327 3575 01       		.uleb128 0x1
 14328 3576 33       		.byte	0x33
 14329 3577 00       		.byte	0
 14330 3578 0A       		.uleb128 0xa
 14331 3579 A2000000 		.4byte	.LVL690
 14332 357d 713E0000 		.4byte	0x3e71
 14333 3581 8B350000 		.4byte	0x358b
 14334 3585 0B       		.uleb128 0xb
 14335 3586 01       		.uleb128 0x1
 14336 3587 50       		.byte	0x50
 14337 3588 01       		.uleb128 0x1
 14338 3589 3A       		.byte	0x3a
 14339 358a 00       		.byte	0
 14340 358b 0A       		.uleb128 0xa
 14341 358c A8000000 		.4byte	.LVL691
 14342 3590 DB200000 		.4byte	0x20db
 14343 3594 9E350000 		.4byte	0x359e
 14344 3598 0B       		.uleb128 0xb
 14345 3599 01       		.uleb128 0x1
 14346 359a 50       		.byte	0x50
 14347 359b 01       		.uleb128 0x1
 14348 359c 30       		.byte	0x30
 14349 359d 00       		.byte	0
 14350 359e 0A       		.uleb128 0xa
 14351 359f AE000000 		.4byte	.LVL692
 14352 35a3 D72C0000 		.4byte	0x2cd7
 14353 35a7 B1350000 		.4byte	0x35b1
 14354 35ab 0B       		.uleb128 0xb
ARM GAS  C:\Users\Revanth\AppData\Local\Temp\ccHsQCvB.s 			page 312


 14355 35ac 01       		.uleb128 0x1
 14356 35ad 50       		.byte	0x50
 14357 35ae 01       		.uleb128 0x1
 14358 35af 33       		.byte	0x33
 14359 35b0 00       		.byte	0
 14360 35b1 09       		.uleb128 0x9
 14361 35b2 B6000000 		.4byte	.LVL693
 14362 35b6 3C060000 		.4byte	0x63c
 14363 35ba 09       		.uleb128 0x9
 14364 35bb FC000000 		.4byte	.LVL697
 14365 35bf 31180000 		.4byte	0x1831
 14366 35c3 0A       		.uleb128 0xa
 14367 35c4 08010000 		.4byte	.LVL698
 14368 35c8 4D0E0000 		.4byte	0xe4d
 14369 35cc E4350000 		.4byte	0x35e4
 14370 35d0 0B       		.uleb128 0xb
 14371 35d1 01       		.uleb128 0x1
 14372 35d2 50       		.byte	0x50
 14373 35d3 01       		.uleb128 0x1
 14374 35d4 40       		.byte	0x40
 14375 35d5 0B       		.uleb128 0xb
 14376 35d6 01       		.uleb128 0x1
 14377 35d7 51       		.byte	0x51
 14378 35d8 05       		.uleb128 0x5
 14379 35d9 0C       		.byte	0xc
 14380 35da 0A010700 		.4byte	0x7010a
 14381 35de 0B       		.uleb128 0xb
 14382 35df 01       		.uleb128 0x1
 14383 35e0 52       		.byte	0x52
 14384 35e1 01       		.uleb128 0x1
 14385 35e2 30       		.byte	0x30
 14386 35e3 00       		.byte	0
 14387 35e4 0A       		.uleb128 0xa
 14388 35e5 0E010000 		.4byte	.LVL699
 14389 35e9 713E0000 		.4byte	0x3e71
 14390 35ed F7350000 		.4byte	0x35f7
 14391 35f1 0B       		.uleb128 0xb
 14392 35f2 01       		.uleb128 0x1
 14393 35f3 50       		.byte	0x50
 14394 35f4 01       		.uleb128 0x1
 14395 35f5 3A       		.byte	0x3a
 14396 35f6 00       		.byte	0
 14397 35f7 0A       		.uleb128 0xa
 14398 35f8 1A010000 		.4byte	.LVL700
 14399 35fc 4D0E0000 		.4byte	0xe4d
 14400 3600 15360000 		.4byte	0x3615
 14401 3604 0B       		.uleb128 0xb
 14402 3605 01       		.uleb128 0x1
 14403 3606 50       		.byte	0x50
 14404 3607 01       		.uleb128 0x1
 14405 3608 40       		.byte	0x40
 14406 3609 0B       		.uleb128 0xb
 14407 360a 01       		.uleb128 0x1
 14408 360b 51       		.byte	0x51
 14409 360c 02       		.uleb128 0x2
 14410 360d 74       		.byte	0x74
 14411 360e 00       		.sleb128 0
ARM GAS  C:\Users\Revanth\AppData\Local\Temp\ccHsQCvB.s 			page 313


 14412 360f 0B       		.uleb128 0xb
 14413 3610 01       		.uleb128 0x1
 14414 3611 52       		.byte	0x52
 14415 3612 01       		.uleb128 0x1
 14416 3613 31       		.byte	0x31
 14417 3614 00       		.byte	0
 14418 3615 0A       		.uleb128 0xa
 14419 3616 24010000 		.4byte	.LVL701
 14420 361a 4D0E0000 		.4byte	0xe4d
 14421 361e 33360000 		.4byte	0x3633
 14422 3622 0B       		.uleb128 0xb
 14423 3623 01       		.uleb128 0x1
 14424 3624 50       		.byte	0x50
 14425 3625 01       		.uleb128 0x1
 14426 3626 40       		.byte	0x40
 14427 3627 0B       		.uleb128 0xb
 14428 3628 01       		.uleb128 0x1
 14429 3629 51       		.byte	0x51
 14430 362a 02       		.uleb128 0x2
 14431 362b 74       		.byte	0x74
 14432 362c 00       		.sleb128 0
 14433 362d 0B       		.uleb128 0xb
 14434 362e 01       		.uleb128 0x1
 14435 362f 52       		.byte	0x52
 14436 3630 01       		.uleb128 0x1
 14437 3631 32       		.byte	0x32
 14438 3632 00       		.byte	0
 14439 3633 0A       		.uleb128 0xa
 14440 3634 2E010000 		.4byte	.LVL702
 14441 3638 4D0E0000 		.4byte	0xe4d
 14442 363c 51360000 		.4byte	0x3651
 14443 3640 0B       		.uleb128 0xb
 14444 3641 01       		.uleb128 0x1
 14445 3642 50       		.byte	0x50
 14446 3643 01       		.uleb128 0x1
 14447 3644 40       		.byte	0x40
 14448 3645 0B       		.uleb128 0xb
 14449 3646 01       		.uleb128 0x1
 14450 3647 51       		.byte	0x51
 14451 3648 02       		.uleb128 0x2
 14452 3649 74       		.byte	0x74
 14453 364a 00       		.sleb128 0
 14454 364b 0B       		.uleb128 0xb
 14455 364c 01       		.uleb128 0x1
 14456 364d 52       		.byte	0x52
 14457 364e 01       		.uleb128 0x1
 14458 364f 30       		.byte	0x30
 14459 3650 00       		.byte	0
 14460 3651 0A       		.uleb128 0xa
 14461 3652 38010000 		.4byte	.LVL703
 14462 3656 4D0E0000 		.4byte	0xe4d
 14463 365a 6F360000 		.4byte	0x366f
 14464 365e 0B       		.uleb128 0xb
 14465 365f 01       		.uleb128 0x1
 14466 3660 50       		.byte	0x50
 14467 3661 01       		.uleb128 0x1
 14468 3662 40       		.byte	0x40
ARM GAS  C:\Users\Revanth\AppData\Local\Temp\ccHsQCvB.s 			page 314


 14469 3663 0B       		.uleb128 0xb
 14470 3664 01       		.uleb128 0x1
 14471 3665 51       		.byte	0x51
 14472 3666 02       		.uleb128 0x2
 14473 3667 74       		.byte	0x74
 14474 3668 00       		.sleb128 0
 14475 3669 0B       		.uleb128 0xb
 14476 366a 01       		.uleb128 0x1
 14477 366b 52       		.byte	0x52
 14478 366c 01       		.uleb128 0x1
 14479 366d 33       		.byte	0x33
 14480 366e 00       		.byte	0
 14481 366f 09       		.uleb128 0x9
 14482 3670 3E010000 		.4byte	.LVL704
 14483 3674 3C060000 		.4byte	0x63c
 14484 3678 09       		.uleb128 0x9
 14485 3679 80010000 		.4byte	.LVL708
 14486 367d FB1B0000 		.4byte	0x1bfb
 14487 3681 0A       		.uleb128 0xa
 14488 3682 8C010000 		.4byte	.LVL709
 14489 3686 4D0E0000 		.4byte	0xe4d
 14490 368a A2360000 		.4byte	0x36a2
 14491 368e 0B       		.uleb128 0xb
 14492 368f 01       		.uleb128 0x1
 14493 3690 50       		.byte	0x50
 14494 3691 01       		.uleb128 0x1
 14495 3692 40       		.byte	0x40
 14496 3693 0B       		.uleb128 0xb
 14497 3694 01       		.uleb128 0x1
 14498 3695 51       		.byte	0x51
 14499 3696 05       		.uleb128 0x5
 14500 3697 0C       		.byte	0xc
 14501 3698 0A010700 		.4byte	0x7010a
 14502 369c 0B       		.uleb128 0xb
 14503 369d 01       		.uleb128 0x1
 14504 369e 52       		.byte	0x52
 14505 369f 01       		.uleb128 0x1
 14506 36a0 31       		.byte	0x31
 14507 36a1 00       		.byte	0
 14508 36a2 0A       		.uleb128 0xa
 14509 36a3 92010000 		.4byte	.LVL710
 14510 36a7 713E0000 		.4byte	0x3e71
 14511 36ab B5360000 		.4byte	0x36b5
 14512 36af 0B       		.uleb128 0xb
 14513 36b0 01       		.uleb128 0x1
 14514 36b1 50       		.byte	0x50
 14515 36b2 01       		.uleb128 0x1
 14516 36b3 3A       		.byte	0x3a
 14517 36b4 00       		.byte	0
 14518 36b5 0A       		.uleb128 0xa
 14519 36b6 9E010000 		.4byte	.LVL711
 14520 36ba 4D0E0000 		.4byte	0xe4d
 14521 36be D3360000 		.4byte	0x36d3
 14522 36c2 0B       		.uleb128 0xb
 14523 36c3 01       		.uleb128 0x1
 14524 36c4 50       		.byte	0x50
 14525 36c5 01       		.uleb128 0x1
ARM GAS  C:\Users\Revanth\AppData\Local\Temp\ccHsQCvB.s 			page 315


 14526 36c6 40       		.byte	0x40
 14527 36c7 0B       		.uleb128 0xb
 14528 36c8 01       		.uleb128 0x1
 14529 36c9 51       		.byte	0x51
 14530 36ca 02       		.uleb128 0x2
 14531 36cb 74       		.byte	0x74
 14532 36cc 00       		.sleb128 0
 14533 36cd 0B       		.uleb128 0xb
 14534 36ce 01       		.uleb128 0x1
 14535 36cf 52       		.byte	0x52
 14536 36d0 01       		.uleb128 0x1
 14537 36d1 31       		.byte	0x31
 14538 36d2 00       		.byte	0
 14539 36d3 0A       		.uleb128 0xa
 14540 36d4 A8010000 		.4byte	.LVL712
 14541 36d8 4D0E0000 		.4byte	0xe4d
 14542 36dc F1360000 		.4byte	0x36f1
 14543 36e0 0B       		.uleb128 0xb
 14544 36e1 01       		.uleb128 0x1
 14545 36e2 50       		.byte	0x50
 14546 36e3 01       		.uleb128 0x1
 14547 36e4 40       		.byte	0x40
 14548 36e5 0B       		.uleb128 0xb
 14549 36e6 01       		.uleb128 0x1
 14550 36e7 51       		.byte	0x51
 14551 36e8 02       		.uleb128 0x2
 14552 36e9 74       		.byte	0x74
 14553 36ea 00       		.sleb128 0
 14554 36eb 0B       		.uleb128 0xb
 14555 36ec 01       		.uleb128 0x1
 14556 36ed 52       		.byte	0x52
 14557 36ee 01       		.uleb128 0x1
 14558 36ef 32       		.byte	0x32
 14559 36f0 00       		.byte	0
 14560 36f1 0A       		.uleb128 0xa
 14561 36f2 B2010000 		.4byte	.LVL713
 14562 36f6 4D0E0000 		.4byte	0xe4d
 14563 36fa 0F370000 		.4byte	0x370f
 14564 36fe 0B       		.uleb128 0xb
 14565 36ff 01       		.uleb128 0x1
 14566 3700 50       		.byte	0x50
 14567 3701 01       		.uleb128 0x1
 14568 3702 40       		.byte	0x40
 14569 3703 0B       		.uleb128 0xb
 14570 3704 01       		.uleb128 0x1
 14571 3705 51       		.byte	0x51
 14572 3706 02       		.uleb128 0x2
 14573 3707 74       		.byte	0x74
 14574 3708 00       		.sleb128 0
 14575 3709 0B       		.uleb128 0xb
 14576 370a 01       		.uleb128 0x1
 14577 370b 52       		.byte	0x52
 14578 370c 01       		.uleb128 0x1
 14579 370d 30       		.byte	0x30
 14580 370e 00       		.byte	0
 14581 370f 0A       		.uleb128 0xa
 14582 3710 BC010000 		.4byte	.LVL714
ARM GAS  C:\Users\Revanth\AppData\Local\Temp\ccHsQCvB.s 			page 316


 14583 3714 4D0E0000 		.4byte	0xe4d
 14584 3718 2D370000 		.4byte	0x372d
 14585 371c 0B       		.uleb128 0xb
 14586 371d 01       		.uleb128 0x1
 14587 371e 50       		.byte	0x50
 14588 371f 01       		.uleb128 0x1
 14589 3720 40       		.byte	0x40
 14590 3721 0B       		.uleb128 0xb
 14591 3722 01       		.uleb128 0x1
 14592 3723 51       		.byte	0x51
 14593 3724 02       		.uleb128 0x2
 14594 3725 74       		.byte	0x74
 14595 3726 00       		.sleb128 0
 14596 3727 0B       		.uleb128 0xb
 14597 3728 01       		.uleb128 0x1
 14598 3729 52       		.byte	0x52
 14599 372a 01       		.uleb128 0x1
 14600 372b 33       		.byte	0x33
 14601 372c 00       		.byte	0
 14602 372d 09       		.uleb128 0x9
 14603 372e C2010000 		.4byte	.LVL715
 14604 3732 3C060000 		.4byte	0x63c
 14605 3736 09       		.uleb128 0x9
 14606 3737 06020000 		.4byte	.LVL719
 14607 373b 6F1E0000 		.4byte	0x1e6f
 14608 373f 09       		.uleb128 0x9
 14609 3740 0C020000 		.4byte	.LVL720
 14610 3744 3C060000 		.4byte	0x63c
 14611 3748 0A       		.uleb128 0xa
 14612 3749 1E020000 		.4byte	.LVL721
 14613 374d 4D0E0000 		.4byte	0xe4d
 14614 3751 69370000 		.4byte	0x3769
 14615 3755 0B       		.uleb128 0xb
 14616 3756 01       		.uleb128 0x1
 14617 3757 50       		.byte	0x50
 14618 3758 01       		.uleb128 0x1
 14619 3759 40       		.byte	0x40
 14620 375a 0B       		.uleb128 0xb
 14621 375b 01       		.uleb128 0x1
 14622 375c 51       		.byte	0x51
 14623 375d 05       		.uleb128 0x5
 14624 375e 0C       		.byte	0xc
 14625 375f 03050700 		.4byte	0x70503
 14626 3763 0B       		.uleb128 0xb
 14627 3764 01       		.uleb128 0x1
 14628 3765 52       		.byte	0x52
 14629 3766 01       		.uleb128 0x1
 14630 3767 33       		.byte	0x33
 14631 3768 00       		.byte	0
 14632 3769 09       		.uleb128 0x9
 14633 376a 3C020000 		.4byte	.LVL722
 14634 376e DB200000 		.4byte	0x20db
 14635 3772 09       		.uleb128 0x9
 14636 3773 42020000 		.4byte	.LVL723
 14637 3777 3C060000 		.4byte	0x63c
 14638 377b 0A       		.uleb128 0xa
 14639 377c 4C020000 		.4byte	.LVL724
ARM GAS  C:\Users\Revanth\AppData\Local\Temp\ccHsQCvB.s 			page 317


 14640 3780 4D0E0000 		.4byte	0xe4d
 14641 3784 9C370000 		.4byte	0x379c
 14642 3788 0B       		.uleb128 0xb
 14643 3789 01       		.uleb128 0x1
 14644 378a 50       		.byte	0x50
 14645 378b 01       		.uleb128 0x1
 14646 378c 40       		.byte	0x40
 14647 378d 0B       		.uleb128 0xb
 14648 378e 01       		.uleb128 0x1
 14649 378f 51       		.byte	0x51
 14650 3790 05       		.uleb128 0x5
 14651 3791 0C       		.byte	0xc
 14652 3792 03030700 		.4byte	0x70303
 14653 3796 0B       		.uleb128 0xb
 14654 3797 01       		.uleb128 0x1
 14655 3798 52       		.byte	0x52
 14656 3799 01       		.uleb128 0x1
 14657 379a 33       		.byte	0x33
 14658 379b 00       		.byte	0
 14659 379c 09       		.uleb128 0x9
 14660 379d 84030000 		.4byte	.LVL741
 14661 37a1 4A220000 		.4byte	0x224a
 14662 37a5 0A       		.uleb128 0xa
 14663 37a6 8C030000 		.4byte	.LVL742
 14664 37aa 713E0000 		.4byte	0x3e71
 14665 37ae B8370000 		.4byte	0x37b8
 14666 37b2 0B       		.uleb128 0xb
 14667 37b3 01       		.uleb128 0x1
 14668 37b4 50       		.byte	0x50
 14669 37b5 01       		.uleb128 0x1
 14670 37b6 3A       		.byte	0x3a
 14671 37b7 00       		.byte	0
 14672 37b8 0A       		.uleb128 0xa
 14673 37b9 98030000 		.4byte	.LVL743
 14674 37bd 4D0E0000 		.4byte	0xe4d
 14675 37c1 D6370000 		.4byte	0x37d6
 14676 37c5 0B       		.uleb128 0xb
 14677 37c6 01       		.uleb128 0x1
 14678 37c7 50       		.byte	0x50
 14679 37c8 01       		.uleb128 0x1
 14680 37c9 40       		.byte	0x40
 14681 37ca 0B       		.uleb128 0xb
 14682 37cb 01       		.uleb128 0x1
 14683 37cc 51       		.byte	0x51
 14684 37cd 02       		.uleb128 0x2
 14685 37ce 75       		.byte	0x75
 14686 37cf 00       		.sleb128 0
 14687 37d0 0B       		.uleb128 0xb
 14688 37d1 01       		.uleb128 0x1
 14689 37d2 52       		.byte	0x52
 14690 37d3 01       		.uleb128 0x1
 14691 37d4 31       		.byte	0x31
 14692 37d5 00       		.byte	0
 14693 37d6 0A       		.uleb128 0xa
 14694 37d7 A2030000 		.4byte	.LVL744
 14695 37db 4D0E0000 		.4byte	0xe4d
 14696 37df F4370000 		.4byte	0x37f4
ARM GAS  C:\Users\Revanth\AppData\Local\Temp\ccHsQCvB.s 			page 318


 14697 37e3 0B       		.uleb128 0xb
 14698 37e4 01       		.uleb128 0x1
 14699 37e5 50       		.byte	0x50
 14700 37e6 01       		.uleb128 0x1
 14701 37e7 40       		.byte	0x40
 14702 37e8 0B       		.uleb128 0xb
 14703 37e9 01       		.uleb128 0x1
 14704 37ea 51       		.byte	0x51
 14705 37eb 02       		.uleb128 0x2
 14706 37ec 75       		.byte	0x75
 14707 37ed 00       		.sleb128 0
 14708 37ee 0B       		.uleb128 0xb
 14709 37ef 01       		.uleb128 0x1
 14710 37f0 52       		.byte	0x52
 14711 37f1 01       		.uleb128 0x1
 14712 37f2 32       		.byte	0x32
 14713 37f3 00       		.byte	0
 14714 37f4 0A       		.uleb128 0xa
 14715 37f5 AC030000 		.4byte	.LVL745
 14716 37f9 4D0E0000 		.4byte	0xe4d
 14717 37fd 12380000 		.4byte	0x3812
 14718 3801 0B       		.uleb128 0xb
 14719 3802 01       		.uleb128 0x1
 14720 3803 50       		.byte	0x50
 14721 3804 01       		.uleb128 0x1
 14722 3805 40       		.byte	0x40
 14723 3806 0B       		.uleb128 0xb
 14724 3807 01       		.uleb128 0x1
 14725 3808 51       		.byte	0x51
 14726 3809 02       		.uleb128 0x2
 14727 380a 75       		.byte	0x75
 14728 380b 00       		.sleb128 0
 14729 380c 0B       		.uleb128 0xb
 14730 380d 01       		.uleb128 0x1
 14731 380e 52       		.byte	0x52
 14732 380f 01       		.uleb128 0x1
 14733 3810 30       		.byte	0x30
 14734 3811 00       		.byte	0
 14735 3812 0A       		.uleb128 0xa
 14736 3813 B6030000 		.4byte	.LVL746
 14737 3817 4D0E0000 		.4byte	0xe4d
 14738 381b 30380000 		.4byte	0x3830
 14739 381f 0B       		.uleb128 0xb
 14740 3820 01       		.uleb128 0x1
 14741 3821 50       		.byte	0x50
 14742 3822 01       		.uleb128 0x1
 14743 3823 40       		.byte	0x40
 14744 3824 0B       		.uleb128 0xb
 14745 3825 01       		.uleb128 0x1
 14746 3826 51       		.byte	0x51
 14747 3827 02       		.uleb128 0x2
 14748 3828 75       		.byte	0x75
 14749 3829 00       		.sleb128 0
 14750 382a 0B       		.uleb128 0xb
 14751 382b 01       		.uleb128 0x1
 14752 382c 52       		.byte	0x52
 14753 382d 01       		.uleb128 0x1
ARM GAS  C:\Users\Revanth\AppData\Local\Temp\ccHsQCvB.s 			page 319


 14754 382e 33       		.byte	0x33
 14755 382f 00       		.byte	0
 14756 3830 09       		.uleb128 0x9
 14757 3831 BC030000 		.4byte	.LVL747
 14758 3835 3C060000 		.4byte	0x63c
 14759 3839 09       		.uleb128 0x9
 14760 383a C8030000 		.4byte	.LVL748
 14761 383e 29080000 		.4byte	0x829
 14762 3842 0A       		.uleb128 0xa
 14763 3843 CE030000 		.4byte	.LVL749
 14764 3847 713E0000 		.4byte	0x3e71
 14765 384b 56380000 		.4byte	0x3856
 14766 384f 0B       		.uleb128 0xb
 14767 3850 01       		.uleb128 0x1
 14768 3851 50       		.byte	0x50
 14769 3852 02       		.uleb128 0x2
 14770 3853 08       		.byte	0x8
 14771 3854 64       		.byte	0x64
 14772 3855 00       		.byte	0
 14773 3856 09       		.uleb128 0x9
 14774 3857 D6030000 		.4byte	.LVL750
 14775 385b 3C060000 		.4byte	0x63c
 14776 385f 09       		.uleb128 0x9
 14777 3860 E2030000 		.4byte	.LVL751
 14778 3864 BB070000 		.4byte	0x7bb
 14779 3868 0A       		.uleb128 0xa
 14780 3869 E8030000 		.4byte	.LVL752
 14781 386d 713E0000 		.4byte	0x3e71
 14782 3871 7C380000 		.4byte	0x387c
 14783 3875 0B       		.uleb128 0xb
 14784 3876 01       		.uleb128 0x1
 14785 3877 50       		.byte	0x50
 14786 3878 02       		.uleb128 0x2
 14787 3879 08       		.byte	0x8
 14788 387a 64       		.byte	0x64
 14789 387b 00       		.byte	0
 14790 387c 09       		.uleb128 0x9
 14791 387d F0030000 		.4byte	.LVL753
 14792 3881 3C060000 		.4byte	0x63c
 14793 3885 0A       		.uleb128 0xa
 14794 3886 26040000 		.4byte	.LVL761
 14795 388a DF030000 		.4byte	0x3df
 14796 388e 9C380000 		.4byte	0x389c
 14797 3892 0B       		.uleb128 0xb
 14798 3893 01       		.uleb128 0x1
 14799 3894 50       		.byte	0x50
 14800 3895 05       		.uleb128 0x5
 14801 3896 03       		.byte	0x3
 14802 3897 F8040000 		.4byte	.LC42
 14803 389b 00       		.byte	0
 14804 389c 0A       		.uleb128 0xa
 14805 389d 2C040000 		.4byte	.LVL762
 14806 38a1 DF030000 		.4byte	0x3df
 14807 38a5 B3380000 		.4byte	0x38b3
 14808 38a9 0B       		.uleb128 0xb
 14809 38aa 01       		.uleb128 0x1
 14810 38ab 50       		.byte	0x50
ARM GAS  C:\Users\Revanth\AppData\Local\Temp\ccHsQCvB.s 			page 320


 14811 38ac 05       		.uleb128 0x5
 14812 38ad 03       		.byte	0x3
 14813 38ae B8000000 		.4byte	.LC8
 14814 38b2 00       		.byte	0
 14815 38b3 0A       		.uleb128 0xa
 14816 38b4 34040000 		.4byte	.LVL763
 14817 38b8 713E0000 		.4byte	0x3e71
 14818 38bc C8380000 		.4byte	0x38c8
 14819 38c0 0B       		.uleb128 0xb
 14820 38c1 01       		.uleb128 0x1
 14821 38c2 50       		.byte	0x50
 14822 38c3 03       		.uleb128 0x3
 14823 38c4 0A       		.byte	0xa
 14824 38c5 F401     		.2byte	0x1f4
 14825 38c7 00       		.byte	0
 14826 38c8 0A       		.uleb128 0xa
 14827 38c9 3A040000 		.4byte	.LVL764
 14828 38cd 3C060000 		.4byte	0x63c
 14829 38d1 DB380000 		.4byte	0x38db
 14830 38d5 0B       		.uleb128 0xb
 14831 38d6 01       		.uleb128 0x1
 14832 38d7 50       		.byte	0x50
 14833 38d8 01       		.uleb128 0x1
 14834 38d9 30       		.byte	0x30
 14835 38da 00       		.byte	0
 14836 38db 0A       		.uleb128 0xa
 14837 38dc 42040000 		.4byte	.LVL765
 14838 38e0 713E0000 		.4byte	0x3e71
 14839 38e4 F0380000 		.4byte	0x38f0
 14840 38e8 0B       		.uleb128 0xb
 14841 38e9 01       		.uleb128 0x1
 14842 38ea 50       		.byte	0x50
 14843 38eb 03       		.uleb128 0x3
 14844 38ec 0A       		.byte	0xa
 14845 38ed F401     		.2byte	0x1f4
 14846 38ef 00       		.byte	0
 14847 38f0 09       		.uleb128 0x9
 14848 38f1 46040000 		.4byte	.LVL766
 14849 38f5 5C3F0000 		.4byte	0x3f5c
 14850 38f9 0A       		.uleb128 0xa
 14851 38fa 9A040000 		.4byte	.LVL767
 14852 38fe DF030000 		.4byte	0x3df
 14853 3902 10390000 		.4byte	0x3910
 14854 3906 0B       		.uleb128 0xb
 14855 3907 01       		.uleb128 0x1
 14856 3908 50       		.byte	0x50
 14857 3909 05       		.uleb128 0x5
 14858 390a 03       		.byte	0x3
 14859 390b 18050000 		.4byte	.LC43
 14860 390f 00       		.byte	0
 14861 3910 0A       		.uleb128 0xa
 14862 3911 A2040000 		.4byte	.LVL768
 14863 3915 95230000 		.4byte	0x2395
 14864 3919 23390000 		.4byte	0x3923
 14865 391d 0B       		.uleb128 0xb
 14866 391e 01       		.uleb128 0x1
 14867 391f 51       		.byte	0x51
ARM GAS  C:\Users\Revanth\AppData\Local\Temp\ccHsQCvB.s 			page 321


 14868 3920 01       		.uleb128 0x1
 14869 3921 30       		.byte	0x30
 14870 3922 00       		.byte	0
 14871 3923 0A       		.uleb128 0xa
 14872 3924 AA040000 		.4byte	.LVL769
 14873 3928 95230000 		.4byte	0x2395
 14874 392c 36390000 		.4byte	0x3936
 14875 3930 0B       		.uleb128 0xb
 14876 3931 01       		.uleb128 0x1
 14877 3932 51       		.byte	0x51
 14878 3933 01       		.uleb128 0x1
 14879 3934 31       		.byte	0x31
 14880 3935 00       		.byte	0
 14881 3936 0A       		.uleb128 0xa
 14882 3937 B2040000 		.4byte	.LVL770
 14883 393b 95230000 		.4byte	0x2395
 14884 393f 49390000 		.4byte	0x3949
 14885 3943 0B       		.uleb128 0xb
 14886 3944 01       		.uleb128 0x1
 14887 3945 51       		.byte	0x51
 14888 3946 01       		.uleb128 0x1
 14889 3947 32       		.byte	0x32
 14890 3948 00       		.byte	0
 14891 3949 0A       		.uleb128 0xa
 14892 394a B8040000 		.4byte	.LVL771
 14893 394e DF030000 		.4byte	0x3df
 14894 3952 60390000 		.4byte	0x3960
 14895 3956 0B       		.uleb128 0xb
 14896 3957 01       		.uleb128 0x1
 14897 3958 50       		.byte	0x50
 14898 3959 05       		.uleb128 0x5
 14899 395a 03       		.byte	0x3
 14900 395b 40050000 		.4byte	.LC44
 14901 395f 00       		.byte	0
 14902 3960 09       		.uleb128 0x9
 14903 3961 BE040000 		.4byte	.LVL772
 14904 3965 24070000 		.4byte	0x724
 14905 3969 0A       		.uleb128 0xa
 14906 396a C6040000 		.4byte	.LVL773
 14907 396e DF030000 		.4byte	0x3df
 14908 3972 7D390000 		.4byte	0x397d
 14909 3976 0B       		.uleb128 0xb
 14910 3977 01       		.uleb128 0x1
 14911 3978 50       		.byte	0x50
 14912 3979 02       		.uleb128 0x2
 14913 397a 75       		.byte	0x75
 14914 397b 00       		.sleb128 0
 14915 397c 00       		.byte	0
 14916 397d 09       		.uleb128 0x9
 14917 397e CC040000 		.4byte	.LVL774
 14918 3982 24070000 		.4byte	0x724
 14919 3986 0A       		.uleb128 0xa
 14920 3987 D2040000 		.4byte	.LVL775
 14921 398b DF030000 		.4byte	0x3df
 14922 398f 9A390000 		.4byte	0x399a
 14923 3993 0B       		.uleb128 0xb
 14924 3994 01       		.uleb128 0x1
ARM GAS  C:\Users\Revanth\AppData\Local\Temp\ccHsQCvB.s 			page 322


 14925 3995 50       		.byte	0x50
 14926 3996 02       		.uleb128 0x2
 14927 3997 75       		.byte	0x75
 14928 3998 00       		.sleb128 0
 14929 3999 00       		.byte	0
 14930 399a 09       		.uleb128 0x9
 14931 399b D8040000 		.4byte	.LVL776
 14932 399f 24070000 		.4byte	0x724
 14933 39a3 0A       		.uleb128 0xa
 14934 39a4 DE040000 		.4byte	.LVL777
 14935 39a8 DF030000 		.4byte	0x3df
 14936 39ac B7390000 		.4byte	0x39b7
 14937 39b0 0B       		.uleb128 0xb
 14938 39b1 01       		.uleb128 0x1
 14939 39b2 50       		.byte	0x50
 14940 39b3 02       		.uleb128 0x2
 14941 39b4 75       		.byte	0x75
 14942 39b5 00       		.sleb128 0
 14943 39b6 00       		.byte	0
 14944 39b7 09       		.uleb128 0x9
 14945 39b8 E6040000 		.4byte	.LVL778
 14946 39bc 3C060000 		.4byte	0x63c
 14947 39c0 0A       		.uleb128 0xa
 14948 39c1 28050000 		.4byte	.LVL779
 14949 39c5 95230000 		.4byte	0x2395
 14950 39c9 D3390000 		.4byte	0x39d3
 14951 39cd 0B       		.uleb128 0xb
 14952 39ce 01       		.uleb128 0x1
 14953 39cf 51       		.byte	0x51
 14954 39d0 01       		.uleb128 0x1
 14955 39d1 32       		.byte	0x32
 14956 39d2 00       		.byte	0
 14957 39d3 09       		.uleb128 0x9
 14958 39d4 4C050000 		.4byte	.LVL783
 14959 39d8 6F1E0000 		.4byte	0x1e6f
 14960 39dc 09       		.uleb128 0x9
 14961 39dd 52050000 		.4byte	.LVL784
 14962 39e1 3C060000 		.4byte	0x63c
 14963 39e5 09       		.uleb128 0x9
 14964 39e6 94050000 		.4byte	.LVL785
 14965 39ea E0310000 		.4byte	0x31e0
 14966 39ee 0A       		.uleb128 0xa
 14967 39ef 9C050000 		.4byte	.LVL786
 14968 39f3 3C060000 		.4byte	0x63c
 14969 39f7 013A0000 		.4byte	0x3a01
 14970 39fb 0B       		.uleb128 0xb
 14971 39fc 01       		.uleb128 0x1
 14972 39fd 50       		.byte	0x50
 14973 39fe 01       		.uleb128 0x1
 14974 39ff 30       		.byte	0x30
 14975 3a00 00       		.byte	0
 14976 3a01 0A       		.uleb128 0xa
 14977 3a02 74060000 		.4byte	.LVL787
 14978 3a06 F53E0000 		.4byte	0x3ef5
 14979 3a0a 143A0000 		.4byte	0x3a14
 14980 3a0e 0B       		.uleb128 0xb
 14981 3a0f 01       		.uleb128 0x1
ARM GAS  C:\Users\Revanth\AppData\Local\Temp\ccHsQCvB.s 			page 323


 14982 3a10 50       		.byte	0x50
 14983 3a11 01       		.uleb128 0x1
 14984 3a12 3A       		.byte	0x3a
 14985 3a13 00       		.byte	0
 14986 3a14 0A       		.uleb128 0xa
 14987 3a15 7C060000 		.4byte	.LVL788
 14988 3a19 95230000 		.4byte	0x2395
 14989 3a1d 273A0000 		.4byte	0x3a27
 14990 3a21 0B       		.uleb128 0xb
 14991 3a22 01       		.uleb128 0x1
 14992 3a23 51       		.byte	0x51
 14993 3a24 01       		.uleb128 0x1
 14994 3a25 30       		.byte	0x30
 14995 3a26 00       		.byte	0
 14996 3a27 0A       		.uleb128 0xa
 14997 3a28 84060000 		.4byte	.LVL789
 14998 3a2c 95230000 		.4byte	0x2395
 14999 3a30 3A3A0000 		.4byte	0x3a3a
 15000 3a34 0B       		.uleb128 0xb
 15001 3a35 01       		.uleb128 0x1
 15002 3a36 51       		.byte	0x51
 15003 3a37 01       		.uleb128 0x1
 15004 3a38 31       		.byte	0x31
 15005 3a39 00       		.byte	0
 15006 3a3a 0A       		.uleb128 0xa
 15007 3a3b 8C060000 		.4byte	.LVL790
 15008 3a3f 95230000 		.4byte	0x2395
 15009 3a43 4D3A0000 		.4byte	0x3a4d
 15010 3a47 0B       		.uleb128 0xb
 15011 3a48 01       		.uleb128 0x1
 15012 3a49 51       		.byte	0x51
 15013 3a4a 01       		.uleb128 0x1
 15014 3a4b 32       		.byte	0x32
 15015 3a4c 00       		.byte	0
 15016 3a4d 0A       		.uleb128 0xa
 15017 3a4e F2060000 		.4byte	.LVL800
 15018 3a52 F53E0000 		.4byte	0x3ef5
 15019 3a56 613A0000 		.4byte	0x3a61
 15020 3a5a 0B       		.uleb128 0xb
 15021 3a5b 01       		.uleb128 0x1
 15022 3a5c 50       		.byte	0x50
 15023 3a5d 02       		.uleb128 0x2
 15024 3a5e 08       		.byte	0x8
 15025 3a5f 64       		.byte	0x64
 15026 3a60 00       		.byte	0
 15027 3a61 09       		.uleb128 0x9
 15028 3a62 FC060000 		.4byte	.LVL801
 15029 3a66 4A220000 		.4byte	0x224a
 15030 3a6a 0A       		.uleb128 0xa
 15031 3a6b 04070000 		.4byte	.LVL802
 15032 3a6f 713E0000 		.4byte	0x3e71
 15033 3a73 7E3A0000 		.4byte	0x3a7e
 15034 3a77 0B       		.uleb128 0xb
 15035 3a78 01       		.uleb128 0x1
 15036 3a79 50       		.byte	0x50
 15037 3a7a 02       		.uleb128 0x2
 15038 3a7b 08       		.byte	0x8
ARM GAS  C:\Users\Revanth\AppData\Local\Temp\ccHsQCvB.s 			page 324


 15039 3a7c 64       		.byte	0x64
 15040 3a7d 00       		.byte	0
 15041 3a7e 09       		.uleb128 0x9
 15042 3a7f 0E070000 		.4byte	.LVL803
 15043 3a83 3C060000 		.4byte	0x63c
 15044 3a87 0A       		.uleb128 0xa
 15045 3a88 1C070000 		.4byte	.LVL804
 15046 3a8c 3C060000 		.4byte	0x63c
 15047 3a90 9A3A0000 		.4byte	0x3a9a
 15048 3a94 0B       		.uleb128 0xb
 15049 3a95 01       		.uleb128 0x1
 15050 3a96 50       		.byte	0x50
 15051 3a97 01       		.uleb128 0x1
 15052 3a98 30       		.byte	0x30
 15053 3a99 00       		.byte	0
 15054 3a9a 0A       		.uleb128 0xa
 15055 3a9b 28070000 		.4byte	.LVL805
 15056 3a9f B43F0000 		.4byte	0x3fb4
 15057 3aa3 AE3A0000 		.4byte	0x3aae
 15058 3aa7 0B       		.uleb128 0xb
 15059 3aa8 01       		.uleb128 0x1
 15060 3aa9 50       		.byte	0x50
 15061 3aaa 02       		.uleb128 0x2
 15062 3aab 09       		.byte	0x9
 15063 3aac FF       		.byte	0xff
 15064 3aad 00       		.byte	0
 15065 3aae 0A       		.uleb128 0xa
 15066 3aaf 2E070000 		.4byte	.LVL806
 15067 3ab3 DF030000 		.4byte	0x3df
 15068 3ab7 C53A0000 		.4byte	0x3ac5
 15069 3abb 0B       		.uleb128 0xb
 15070 3abc 01       		.uleb128 0x1
 15071 3abd 50       		.byte	0x50
 15072 3abe 05       		.uleb128 0x5
 15073 3abf 03       		.byte	0x3
 15074 3ac0 6C050000 		.4byte	.LC46
 15075 3ac4 00       		.byte	0
 15076 3ac5 0A       		.uleb128 0xa
 15077 3ac6 34070000 		.4byte	.LVL807
 15078 3aca 713E0000 		.4byte	0x3e71
 15079 3ace D83A0000 		.4byte	0x3ad8
 15080 3ad2 0B       		.uleb128 0xb
 15081 3ad3 01       		.uleb128 0x1
 15082 3ad4 50       		.byte	0x50
 15083 3ad5 01       		.uleb128 0x1
 15084 3ad6 3A       		.byte	0x3a
 15085 3ad7 00       		.byte	0
 15086 3ad8 0A       		.uleb128 0xa
 15087 3ad9 3A070000 		.4byte	.LVL808
 15088 3add 3C060000 		.4byte	0x63c
 15089 3ae1 EB3A0000 		.4byte	0x3aeb
 15090 3ae5 0B       		.uleb128 0xb
 15091 3ae6 01       		.uleb128 0x1
 15092 3ae7 50       		.byte	0x50
 15093 3ae8 01       		.uleb128 0x1
 15094 3ae9 30       		.byte	0x30
 15095 3aea 00       		.byte	0
ARM GAS  C:\Users\Revanth\AppData\Local\Temp\ccHsQCvB.s 			page 325


 15096 3aeb 0A       		.uleb128 0xa
 15097 3aec 40070000 		.4byte	.LVL809
 15098 3af0 B43F0000 		.4byte	0x3fb4
 15099 3af4 FE3A0000 		.4byte	0x3afe
 15100 3af8 0B       		.uleb128 0xb
 15101 3af9 01       		.uleb128 0x1
 15102 3afa 50       		.byte	0x50
 15103 3afb 01       		.uleb128 0x1
 15104 3afc 30       		.byte	0x30
 15105 3afd 00       		.byte	0
 15106 3afe 0A       		.uleb128 0xa
 15107 3aff 4E070000 		.4byte	.LVL810
 15108 3b03 DF030000 		.4byte	0x3df
 15109 3b07 153B0000 		.4byte	0x3b15
 15110 3b0b 0B       		.uleb128 0xb
 15111 3b0c 01       		.uleb128 0x1
 15112 3b0d 50       		.byte	0x50
 15113 3b0e 05       		.uleb128 0x5
 15114 3b0f 03       		.byte	0x3
 15115 3b10 8C050000 		.4byte	.LC47
 15116 3b14 00       		.byte	0
 15117 3b15 09       		.uleb128 0x9
 15118 3b16 52070000 		.4byte	.LVL811
 15119 3b1a 97080000 		.4byte	0x897
 15120 3b1e 0C       		.uleb128 0xc
 15121 3b1f 58070000 		.4byte	.LVL812
 15122 3b23 3C060000 		.4byte	0x63c
 15123 3b27 0B       		.uleb128 0xb
 15124 3b28 01       		.uleb128 0x1
 15125 3b29 50       		.byte	0x50
 15126 3b2a 02       		.uleb128 0x2
 15127 3b2b 74       		.byte	0x74
 15128 3b2c 00       		.sleb128 0
 15129 3b2d 00       		.byte	0
 15130 3b2e 00       		.byte	0
 15131 3b2f 22       		.uleb128 0x22
 15132 3b30 69010000 		.4byte	.LASF104
 15133 3b34 05       		.byte	0x5
 15134 3b35 1207     		.2byte	0x712
 15135 3b37 3B3B0000 		.4byte	0x3b3b
 15136 3b3b 23       		.uleb128 0x23
 15137 3b3c AD000000 		.4byte	0xad
 15138 3b40 24       		.uleb128 0x24
 15139 3b41 410A0000 		.4byte	.LASF105
 15140 3b45 06       		.byte	0x6
 15141 3b46 16       		.byte	0x16
 15142 3b47 6A090000 		.4byte	0x96a
 15143 3b4b 05       		.uleb128 0x5
 15144 3b4c 03       		.byte	0x3
 15145 3b4d 00000000 		.4byte	Is_Slide_On_Gripper
 15146 3b51 24       		.uleb128 0x24
 15147 3b52 17000000 		.4byte	.LASF106
 15148 3b56 06       		.byte	0x6
 15149 3b57 17       		.byte	0x17
 15150 3b58 F8000000 		.4byte	0xf8
 15151 3b5c 05       		.uleb128 0x5
 15152 3b5d 03       		.byte	0x3
ARM GAS  C:\Users\Revanth\AppData\Local\Temp\ccHsQCvB.s 			page 326


 15153 3b5e 00000000 		.4byte	count
 15154 3b62 24       		.uleb128 0x24
 15155 3b63 0F070000 		.4byte	.LASF107
 15156 3b67 06       		.byte	0x6
 15157 3b68 18       		.byte	0x18
 15158 3b69 CF030000 		.4byte	0x3cf
 15159 3b6d 05       		.uleb128 0x5
 15160 3b6e 03       		.byte	0x3
 15161 3b6f 00000000 		.4byte	USB_received
 15162 3b73 12       		.uleb128 0x12
 15163 3b74 04010000 		.4byte	0x104
 15164 3b78 833B0000 		.4byte	0x3b83
 15165 3b7c 13       		.uleb128 0x13
 15166 3b7d CA000000 		.4byte	0xca
 15167 3b81 39       		.byte	0x39
 15168 3b82 00       		.byte	0
 15169 3b83 24       		.uleb128 0x24
 15170 3b84 76080000 		.4byte	.LASF108
 15171 3b88 06       		.byte	0x6
 15172 3b89 19       		.byte	0x19
 15173 3b8a 733B0000 		.4byte	0x3b73
 15174 3b8e 05       		.uleb128 0x5
 15175 3b8f 03       		.byte	0x3
 15176 3b90 00000000 		.4byte	USB_transmit
 15177 3b94 24       		.uleb128 0x24
 15178 3b95 95020000 		.4byte	.LASF109
 15179 3b99 01       		.byte	0x1
 15180 3b9a 14       		.byte	0x14
 15181 3b9b 6A090000 		.4byte	0x96a
 15182 3b9f 05       		.uleb128 0x5
 15183 3ba0 03       		.byte	0x3
 15184 3ba1 00000000 		.4byte	Time_Out_Error
 15185 3ba5 24       		.uleb128 0x24
 15186 3ba6 55040000 		.4byte	.LASF110
 15187 3baa 01       		.byte	0x1
 15188 3bab 15       		.byte	0x15
 15189 3bac 90000000 		.4byte	0x90
 15190 3bb0 05       		.uleb128 0x5
 15191 3bb1 03       		.byte	0x3
 15192 3bb2 00000000 		.4byte	command
 15193 3bb6 24       		.uleb128 0x24
 15194 3bb7 21060000 		.4byte	.LASF43
 15195 3bbb 01       		.byte	0x1
 15196 3bbc 16       		.byte	0x16
 15197 3bbd 89000000 		.4byte	0x89
 15198 3bc1 05       		.uleb128 0x5
 15199 3bc2 03       		.byte	0x3
 15200 3bc3 00000000 		.4byte	Error
 15201 3bc7 24       		.uleb128 0x24
 15202 3bc8 33030000 		.4byte	.LASF80
 15203 3bcc 01       		.byte	0x1
 15204 3bcd 18       		.byte	0x18
 15205 3bce 10010000 		.4byte	0x110
 15206 3bd2 05       		.uleb128 0x5
 15207 3bd3 03       		.byte	0x3
 15208 3bd4 00000000 		.4byte	Position_Y_Requested
 15209 3bd8 24       		.uleb128 0x24
ARM GAS  C:\Users\Revanth\AppData\Local\Temp\ccHsQCvB.s 			page 327


 15210 3bd9 C8090000 		.4byte	.LASF71
 15211 3bdd 01       		.byte	0x1
 15212 3bde 19       		.byte	0x19
 15213 3bdf 10010000 		.4byte	0x110
 15214 3be3 05       		.uleb128 0x5
 15215 3be4 03       		.byte	0x3
 15216 3be5 00000000 		.4byte	Position_X_Requested
 15217 3be9 24       		.uleb128 0x24
 15218 3bea DD040000 		.4byte	.LASF111
 15219 3bee 01       		.byte	0x1
 15220 3bef 1A       		.byte	0x1a
 15221 3bf0 10010000 		.4byte	0x110
 15222 3bf4 05       		.uleb128 0x5
 15223 3bf5 03       		.byte	0x3
 15224 3bf6 00000000 		.4byte	Input_Position_X_Temp
 15225 3bfa 24       		.uleb128 0x24
 15226 3bfb FC0B0000 		.4byte	.LASF84
 15227 3bff 01       		.byte	0x1
 15228 3c00 1B       		.byte	0x1b
 15229 3c01 10010000 		.4byte	0x110
 15230 3c05 05       		.uleb128 0x5
 15231 3c06 03       		.byte	0x3
 15232 3c07 00000000 		.4byte	Position_Z_Requested
 15233 3c0b 24       		.uleb128 0x24
 15234 3c0c 83080000 		.4byte	.LASF88
 15235 3c10 01       		.byte	0x1
 15236 3c11 1C       		.byte	0x1c
 15237 3c12 10010000 		.4byte	0x110
 15238 3c16 05       		.uleb128 0x5
 15239 3c17 03       		.byte	0x3
 15240 3c18 00000000 		.4byte	Position_T_Requested
 15241 3c1c 24       		.uleb128 0x24
 15242 3c1d A4020000 		.4byte	.LASF99
 15243 3c21 01       		.byte	0x1
 15244 3c22 1E       		.byte	0x1e
 15245 3c23 10010000 		.4byte	0x110
 15246 3c27 05       		.uleb128 0x5
 15247 3c28 03       		.byte	0x3
 15248 3c29 00000000 		.4byte	time_ms
 15249 3c2d 24       		.uleb128 0x24
 15250 3c2e 25020000 		.4byte	.LASF112
 15251 3c32 01       		.byte	0x1
 15252 3c33 1F       		.byte	0x1f
 15253 3c34 10010000 		.4byte	0x110
 15254 3c38 05       		.uleb128 0x5
 15255 3c39 03       		.byte	0x3
 15256 3c3a 00000000 		.4byte	oil_speed
 15257 3c3e 24       		.uleb128 0x24
 15258 3c3f FE020000 		.4byte	.LASF113
 15259 3c43 01       		.byte	0x1
 15260 3c44 20       		.byte	0x20
 15261 3c45 10010000 		.4byte	0x110
 15262 3c49 05       		.uleb128 0x5
 15263 3c4a 03       		.byte	0x3
 15264 3c4b 00000000 		.4byte	oil_dir
 15265 3c4f 24       		.uleb128 0x24
 15266 3c50 BA070000 		.4byte	.LASF114
ARM GAS  C:\Users\Revanth\AppData\Local\Temp\ccHsQCvB.s 			page 328


 15267 3c54 01       		.byte	0x1
 15268 3c55 22       		.byte	0x22
 15269 3c56 603C0000 		.4byte	0x3c60
 15270 3c5a 05       		.uleb128 0x5
 15271 3c5b 03       		.byte	0x3
 15272 3c5c 00000000 		.4byte	X_QuadPosition
 15273 3c60 23       		.uleb128 0x23
 15274 3c61 10010000 		.4byte	0x110
 15275 3c65 24       		.uleb128 0x24
 15276 3c66 B0060000 		.4byte	.LASF115
 15277 3c6a 01       		.byte	0x1
 15278 3c6b 23       		.byte	0x23
 15279 3c6c 603C0000 		.4byte	0x3c60
 15280 3c70 05       		.uleb128 0x5
 15281 3c71 03       		.byte	0x3
 15282 3c72 00000000 		.4byte	Y_QuadPosition
 15283 3c76 24       		.uleb128 0x24
 15284 3c77 F8000000 		.4byte	.LASF116
 15285 3c7b 01       		.byte	0x1
 15286 3c7c 24       		.byte	0x24
 15287 3c7d 603C0000 		.4byte	0x3c60
 15288 3c81 05       		.uleb128 0x5
 15289 3c82 03       		.byte	0x3
 15290 3c83 00000000 		.4byte	Z_QuadPosition
 15291 3c87 24       		.uleb128 0x24
 15292 3c88 79070000 		.4byte	.LASF117
 15293 3c8c 01       		.byte	0x1
 15294 3c8d 25       		.byte	0x25
 15295 3c8e 603C0000 		.4byte	0x3c60
 15296 3c92 05       		.uleb128 0x5
 15297 3c93 03       		.byte	0x3
 15298 3c94 00000000 		.4byte	T_QuadPosition
 15299 3c98 24       		.uleb128 0x24
 15300 3c99 5E020000 		.4byte	.LASF118
 15301 3c9d 01       		.byte	0x1
 15302 3c9e 26       		.byte	0x26
 15303 3c9f 89000000 		.4byte	0x89
 15304 3ca3 05       		.uleb128 0x5
 15305 3ca4 03       		.byte	0x3
 15306 3ca5 00000000 		.4byte	EncoderTZSelect
 15307 3ca9 24       		.uleb128 0x24
 15308 3caa E2020000 		.4byte	.LASF119
 15309 3cae 01       		.byte	0x1
 15310 3caf 27       		.byte	0x27
 15311 3cb0 89000000 		.4byte	0x89
 15312 3cb4 05       		.uleb128 0x5
 15313 3cb5 03       		.byte	0x3
 15314 3cb6 00000000 		.4byte	Buffer_Z_QuadPosition
 15315 3cba 24       		.uleb128 0x24
 15316 3cbb 82050000 		.4byte	.LASF120
 15317 3cbf 01       		.byte	0x1
 15318 3cc0 28       		.byte	0x28
 15319 3cc1 89000000 		.4byte	0x89
 15320 3cc5 05       		.uleb128 0x5
 15321 3cc6 03       		.byte	0x3
 15322 3cc7 00000000 		.4byte	Buffer_T_QuadPosition
 15323 3ccb 24       		.uleb128 0x24
ARM GAS  C:\Users\Revanth\AppData\Local\Temp\ccHsQCvB.s 			page 329


 15324 3ccc D6050000 		.4byte	.LASF121
 15325 3cd0 01       		.byte	0x1
 15326 3cd1 2A       		.byte	0x2a
 15327 3cd2 E5000000 		.4byte	0xe5
 15328 3cd6 05       		.uleb128 0x5
 15329 3cd7 03       		.byte	0x3
 15330 3cd8 00000000 		.4byte	X_Pitchfactor
 15331 3cdc 24       		.uleb128 0x24
 15332 3cdd B60A0000 		.4byte	.LASF122
 15333 3ce1 01       		.byte	0x1
 15334 3ce2 2B       		.byte	0x2b
 15335 3ce3 E5000000 		.4byte	0xe5
 15336 3ce7 05       		.uleb128 0x5
 15337 3ce8 03       		.byte	0x3
 15338 3ce9 00000000 		.4byte	Y_Pitchfactor
 15339 3ced 24       		.uleb128 0x24
 15340 3cee 47040000 		.4byte	.LASF123
 15341 3cf2 01       		.byte	0x1
 15342 3cf3 2C       		.byte	0x2c
 15343 3cf4 E5000000 		.4byte	0xe5
 15344 3cf8 05       		.uleb128 0x5
 15345 3cf9 03       		.byte	0x3
 15346 3cfa 00000000 		.4byte	Z_Pitchfactor
 15347 3cfe 24       		.uleb128 0x24
 15348 3cff 05020000 		.4byte	.LASF124
 15349 3d03 01       		.byte	0x1
 15350 3d04 2D       		.byte	0x2d
 15351 3d05 E5000000 		.4byte	0xe5
 15352 3d09 05       		.uleb128 0x5
 15353 3d0a 03       		.byte	0x3
 15354 3d0b 00000000 		.4byte	T_Pitchfactor
 15355 3d0f 24       		.uleb128 0x24
 15356 3d10 1C070000 		.4byte	.LASF125
 15357 3d14 01       		.byte	0x1
 15358 3d15 2F       		.byte	0x2f
 15359 3d16 90000000 		.4byte	0x90
 15360 3d1a 05       		.uleb128 0x5
 15361 3d1b 03       		.byte	0x3
 15362 3d1c 00000000 		.4byte	Motor_Speed_X
 15363 3d20 24       		.uleb128 0x24
 15364 3d21 2A070000 		.4byte	.LASF126
 15365 3d25 01       		.byte	0x1
 15366 3d26 30       		.byte	0x30
 15367 3d27 90000000 		.4byte	0x90
 15368 3d2b 05       		.uleb128 0x5
 15369 3d2c 03       		.byte	0x3
 15370 3d2d 00000000 		.4byte	Motor_Speed_Y
 15371 3d31 24       		.uleb128 0x24
 15372 3d32 38070000 		.4byte	.LASF127
 15373 3d36 01       		.byte	0x1
 15374 3d37 31       		.byte	0x31
 15375 3d38 90000000 		.4byte	0x90
 15376 3d3c 05       		.uleb128 0x5
 15377 3d3d 03       		.byte	0x3
 15378 3d3e 00000000 		.4byte	Motor_Speed_Z
 15379 3d42 24       		.uleb128 0x24
 15380 3d43 8E090000 		.4byte	.LASF128
ARM GAS  C:\Users\Revanth\AppData\Local\Temp\ccHsQCvB.s 			page 330


 15381 3d47 01       		.byte	0x1
 15382 3d48 33       		.byte	0x33
 15383 3d49 6A090000 		.4byte	0x96a
 15384 3d4d 05       		.uleb128 0x5
 15385 3d4e 03       		.byte	0x3
 15386 3d4f 00000000 		.4byte	HomeX_done
 15387 3d53 24       		.uleb128 0x24
 15388 3d54 86010000 		.4byte	.LASF129
 15389 3d58 01       		.byte	0x1
 15390 3d59 34       		.byte	0x34
 15391 3d5a 6A090000 		.4byte	0x96a
 15392 3d5e 05       		.uleb128 0x5
 15393 3d5f 03       		.byte	0x3
 15394 3d60 00000000 		.4byte	HomeY_done
 15395 3d64 24       		.uleb128 0x24
 15396 3d65 E4050000 		.4byte	.LASF130
 15397 3d69 01       		.byte	0x1
 15398 3d6a 35       		.byte	0x35
 15399 3d6b 6A090000 		.4byte	0x96a
 15400 3d6f 05       		.uleb128 0x5
 15401 3d70 03       		.byte	0x3
 15402 3d71 00000000 		.4byte	HomeZ_done
 15403 3d75 24       		.uleb128 0x24
 15404 3d76 3D050000 		.4byte	.LASF131
 15405 3d7a 01       		.byte	0x1
 15406 3d7b 36       		.byte	0x36
 15407 3d7c 6A090000 		.4byte	0x96a
 15408 3d80 05       		.uleb128 0x5
 15409 3d81 03       		.byte	0x3
 15410 3d82 00000000 		.4byte	HomeT_done
 15411 3d86 24       		.uleb128 0x24
 15412 3d87 7D060000 		.4byte	.LASF132
 15413 3d8b 01       		.byte	0x1
 15414 3d8c 38       		.byte	0x38
 15415 3d8d 6A090000 		.4byte	0x96a
 15416 3d91 05       		.uleb128 0x5
 15417 3d92 03       		.byte	0x3
 15418 3d93 00000000 		.4byte	HomeX_done_Buffer
 15419 3d97 24       		.uleb128 0x24
 15420 3d98 5B030000 		.4byte	.LASF133
 15421 3d9c 01       		.byte	0x1
 15422 3d9d 39       		.byte	0x39
 15423 3d9e 6A090000 		.4byte	0x96a
 15424 3da2 05       		.uleb128 0x5
 15425 3da3 03       		.byte	0x3
 15426 3da4 00000000 		.4byte	HomeY_done_Buffer
 15427 3da8 24       		.uleb128 0x24
 15428 3da9 73000000 		.4byte	.LASF134
 15429 3dad 01       		.byte	0x1
 15430 3dae 3A       		.byte	0x3a
 15431 3daf 6A090000 		.4byte	0x96a
 15432 3db3 05       		.uleb128 0x5
 15433 3db4 03       		.byte	0x3
 15434 3db5 00000000 		.4byte	HomeZ_done_Buffer
 15435 3db9 24       		.uleb128 0x24
 15436 3dba 150B0000 		.4byte	.LASF135
 15437 3dbe 01       		.byte	0x1
ARM GAS  C:\Users\Revanth\AppData\Local\Temp\ccHsQCvB.s 			page 331


 15438 3dbf 3B       		.byte	0x3b
 15439 3dc0 6A090000 		.4byte	0x96a
 15440 3dc4 05       		.uleb128 0x5
 15441 3dc5 03       		.byte	0x3
 15442 3dc6 00000000 		.4byte	HomeT_done_Buffer
 15443 3dca 24       		.uleb128 0x24
 15444 3dcb 890B0000 		.4byte	.LASF136
 15445 3dcf 01       		.byte	0x1
 15446 3dd0 3E       		.byte	0x3e
 15447 3dd1 89000000 		.4byte	0x89
 15448 3dd5 05       		.uleb128 0x5
 15449 3dd6 03       		.byte	0x3
 15450 3dd7 00000000 		.4byte	PWM_Condenser_comare_value
 15451 3ddb 24       		.uleb128 0x24
 15452 3ddc B90B0000 		.4byte	.LASF137
 15453 3de0 01       		.byte	0x1
 15454 3de1 3F       		.byte	0x3f
 15455 3de2 89000000 		.4byte	0x89
 15456 3de6 05       		.uleb128 0x5
 15457 3de7 03       		.byte	0x3
 15458 3de8 00000000 		.4byte	PWM_barcode_comare_value
 15459 3dec 25       		.uleb128 0x25
 15460 3ded AC020000 		.4byte	.LASF138
 15461 3df1 01       		.byte	0x1
 15462 3df2 42       		.byte	0x42
 15463 3df3 97000000 		.4byte	0x97
 15464 3df7 25       		.uleb128 0x25
 15465 3df8 B5020000 		.4byte	.LASF139
 15466 3dfc 01       		.byte	0x1
 15467 3dfd 43       		.byte	0x43
 15468 3dfe 97000000 		.4byte	0x97
 15469 3e02 25       		.uleb128 0x25
 15470 3e03 BE020000 		.4byte	.LASF140
 15471 3e07 01       		.byte	0x1
 15472 3e08 44       		.byte	0x44
 15473 3e09 97000000 		.4byte	0x97
 15474 3e0d 24       		.uleb128 0x24
 15475 3e0e 2A030000 		.4byte	.LASF141
 15476 3e12 01       		.byte	0x1
 15477 3e13 48       		.byte	0x48
 15478 3e14 A2000000 		.4byte	0xa2
 15479 3e18 05       		.uleb128 0x5
 15480 3e19 03       		.byte	0x3
 15481 3e1a 00000000 		.4byte	ms_count
 15482 3e1e 24       		.uleb128 0x24
 15483 3e1f D80B0000 		.4byte	.LASF142
 15484 3e23 01       		.byte	0x1
 15485 3e24 49       		.byte	0x49
 15486 3e25 6A090000 		.4byte	0x96a
 15487 3e29 05       		.uleb128 0x5
 15488 3e2a 03       		.byte	0x3
 15489 3e2b 00000000 		.4byte	exit_loop
 15490 3e2f 26       		.uleb128 0x26
 15491 3e30 900A0000 		.4byte	.LASF143
 15492 3e34 900A0000 		.4byte	.LASF143
 15493 3e38 07       		.byte	0x7
 15494 3e39 92       		.byte	0x92
ARM GAS  C:\Users\Revanth\AppData\Local\Temp\ccHsQCvB.s 			page 332


 15495 3e3a 26       		.uleb128 0x26
 15496 3e3b 6E020000 		.4byte	.LASF144
 15497 3e3f 6E020000 		.4byte	.LASF144
 15498 3e43 07       		.byte	0x7
 15499 3e44 C3       		.byte	0xc3
 15500 3e45 26       		.uleb128 0x26
 15501 3e46 07010000 		.4byte	.LASF145
 15502 3e4a 07010000 		.4byte	.LASF145
 15503 3e4e 08       		.byte	0x8
 15504 3e4f 92       		.byte	0x92
 15505 3e50 26       		.uleb128 0x26
 15506 3e51 A3000000 		.4byte	.LASF146
 15507 3e55 A3000000 		.4byte	.LASF146
 15508 3e59 08       		.byte	0x8
 15509 3e5a C3       		.byte	0xc3
 15510 3e5b 26       		.uleb128 0x26
 15511 3e5c 30090000 		.4byte	.LASF147
 15512 3e60 30090000 		.4byte	.LASF147
 15513 3e64 09       		.byte	0x9
 15514 3e65 92       		.byte	0x92
 15515 3e66 26       		.uleb128 0x26
 15516 3e67 03060000 		.4byte	.LASF148
 15517 3e6b 03060000 		.4byte	.LASF148
 15518 3e6f 09       		.byte	0x9
 15519 3e70 C3       		.byte	0xc3
 15520 3e71 26       		.uleb128 0x26
 15521 3e72 F0000000 		.4byte	.LASF149
 15522 3e76 F0000000 		.4byte	.LASF149
 15523 3e7a 0A       		.byte	0xa
 15524 3e7b 76       		.byte	0x76
 15525 3e7c 26       		.uleb128 0x26
 15526 3e7d 3F0B0000 		.4byte	.LASF150
 15527 3e81 3F0B0000 		.4byte	.LASF150
 15528 3e85 0B       		.byte	0xb
 15529 3e86 26       		.byte	0x26
 15530 3e87 26       		.uleb128 0x26
 15531 3e88 8F060000 		.4byte	.LASF151
 15532 3e8c 8F060000 		.4byte	.LASF151
 15533 3e90 0C       		.byte	0xc
 15534 3e91 4F       		.byte	0x4f
 15535 3e92 26       		.uleb128 0x26
 15536 3e93 AF090000 		.4byte	.LASF152
 15537 3e97 AF090000 		.4byte	.LASF152
 15538 3e9b 0D       		.byte	0xd
 15539 3e9c 2F       		.byte	0x2f
 15540 3e9d 26       		.uleb128 0x26
 15541 3e9e 0E050000 		.4byte	.LASF153
 15542 3ea2 0E050000 		.4byte	.LASF153
 15543 3ea6 0C       		.byte	0xc
 15544 3ea7 48       		.byte	0x48
 15545 3ea8 26       		.uleb128 0x26
 15546 3ea9 4A010000 		.4byte	.LASF154
 15547 3ead 4A010000 		.4byte	.LASF154
 15548 3eb1 0E       		.byte	0xe
 15549 3eb2 48       		.byte	0x48
 15550 3eb3 26       		.uleb128 0x26
 15551 3eb4 46070000 		.4byte	.LASF155
ARM GAS  C:\Users\Revanth\AppData\Local\Temp\ccHsQCvB.s 			page 333


 15552 3eb8 46070000 		.4byte	.LASF155
 15553 3ebc 0F       		.byte	0xf
 15554 3ebd 48       		.byte	0x48
 15555 3ebe 26       		.uleb128 0x26
 15556 3ebf 99090000 		.4byte	.LASF156
 15557 3ec3 99090000 		.4byte	.LASF156
 15558 3ec7 0C       		.byte	0xc
 15559 3ec8 4E       		.byte	0x4e
 15560 3ec9 26       		.uleb128 0x26
 15561 3eca F0010000 		.4byte	.LASF157
 15562 3ece F0010000 		.4byte	.LASF157
 15563 3ed2 0E       		.byte	0xe
 15564 3ed3 4E       		.byte	0x4e
 15565 3ed4 26       		.uleb128 0x26
 15566 3ed5 CB050000 		.4byte	.LASF158
 15567 3ed9 CB050000 		.4byte	.LASF158
 15568 3edd 10       		.byte	0x10
 15569 3ede 2B       		.byte	0x2b
 15570 3edf 26       		.uleb128 0x26
 15571 3ee0 1E080000 		.4byte	.LASF159
 15572 3ee4 1E080000 		.4byte	.LASF159
 15573 3ee8 11       		.byte	0x11
 15574 3ee9 23       		.byte	0x23
 15575 3eea 26       		.uleb128 0x26
 15576 3eeb 9F050000 		.4byte	.LASF160
 15577 3eef 9F050000 		.4byte	.LASF160
 15578 3ef3 12       		.byte	0x12
 15579 3ef4 8B       		.byte	0x8b
 15580 3ef5 26       		.uleb128 0x26
 15581 3ef6 26090000 		.4byte	.LASF161
 15582 3efa 26090000 		.4byte	.LASF161
 15583 3efe 0A       		.byte	0xa
 15584 3eff 77       		.byte	0x77
 15585 3f00 26       		.uleb128 0x26
 15586 3f01 E3000000 		.4byte	.LASF162
 15587 3f05 E3000000 		.4byte	.LASF162
 15588 3f09 11       		.byte	0x11
 15589 3f0a 24       		.byte	0x24
 15590 3f0b 26       		.uleb128 0x26
 15591 3f0c D2070000 		.4byte	.LASF163
 15592 3f10 D2070000 		.4byte	.LASF163
 15593 3f14 10       		.byte	0x10
 15594 3f15 23       		.byte	0x23
 15595 3f16 27       		.uleb128 0x27
 15596 3f17 48050000 		.4byte	.LASF164
 15597 3f1b 48050000 		.4byte	.LASF164
 15598 3f1f 13       		.byte	0x13
 15599 3f20 2E01     		.2byte	0x12e
 15600 3f22 27       		.uleb128 0x27
 15601 3f23 95070000 		.4byte	.LASF165
 15602 3f27 95070000 		.4byte	.LASF165
 15603 3f2b 13       		.byte	0x13
 15604 3f2c 3101     		.2byte	0x131
 15605 3f2e 26       		.uleb128 0x26
 15606 3f2f 14030000 		.4byte	.LASF166
 15607 3f33 14030000 		.4byte	.LASF166
 15608 3f37 10       		.byte	0x10
ARM GAS  C:\Users\Revanth\AppData\Local\Temp\ccHsQCvB.s 			page 334


 15609 3f38 22       		.byte	0x22
 15610 3f39 27       		.uleb128 0x27
 15611 3f3a 3F080000 		.4byte	.LASF167
 15612 3f3e 3F080000 		.4byte	.LASF167
 15613 3f42 13       		.byte	0x13
 15614 3f43 4301     		.2byte	0x143
 15615 3f45 26       		.uleb128 0x26
 15616 3f46 85000000 		.4byte	.LASF168
 15617 3f4a 85000000 		.4byte	.LASF168
 15618 3f4e 14       		.byte	0x14
 15619 3f4f E7       		.byte	0xe7
 15620 3f50 27       		.uleb128 0x27
 15621 3f51 C7020000 		.4byte	.LASF169
 15622 3f55 C7020000 		.4byte	.LASF169
 15623 3f59 13       		.byte	0x13
 15624 3f5a 3201     		.2byte	0x132
 15625 3f5c 26       		.uleb128 0x26
 15626 3f5d 76010000 		.4byte	.LASF170
 15627 3f61 76010000 		.4byte	.LASF170
 15628 3f65 0A       		.byte	0xa
 15629 3f66 7B       		.byte	0x7b
 15630 3f67 26       		.uleb128 0x26
 15631 3f68 0A040000 		.4byte	.LASF171
 15632 3f6c 0A040000 		.4byte	.LASF171
 15633 3f70 15       		.byte	0x15
 15634 3f71 5E       		.byte	0x5e
 15635 3f72 26       		.uleb128 0x26
 15636 3f73 550A0000 		.4byte	.LASF172
 15637 3f77 550A0000 		.4byte	.LASF172
 15638 3f7b 16       		.byte	0x16
 15639 3f7c 26       		.byte	0x26
 15640 3f7d 26       		.uleb128 0x26
 15641 3f7e 680A0000 		.4byte	.LASF173
 15642 3f82 680A0000 		.4byte	.LASF173
 15643 3f86 17       		.byte	0x17
 15644 3f87 26       		.byte	0x26
 15645 3f88 26       		.uleb128 0x26
 15646 3f89 C5040000 		.4byte	.LASF174
 15647 3f8d C5040000 		.4byte	.LASF174
 15648 3f91 18       		.byte	0x18
 15649 3f92 26       		.byte	0x26
 15650 3f93 26       		.uleb128 0x26
 15651 3f94 E20B0000 		.4byte	.LASF175
 15652 3f98 E20B0000 		.4byte	.LASF175
 15653 3f9c 19       		.byte	0x19
 15654 3f9d 26       		.byte	0x26
 15655 3f9e 26       		.uleb128 0x26
 15656 3f9f 48030000 		.4byte	.LASF176
 15657 3fa3 48030000 		.4byte	.LASF176
 15658 3fa7 1A       		.byte	0x1a
 15659 3fa8 26       		.byte	0x26
 15660 3fa9 26       		.uleb128 0x26
 15661 3faa AA070000 		.4byte	.LASF177
 15662 3fae AA070000 		.4byte	.LASF177
 15663 3fb2 15       		.byte	0x15
 15664 3fb3 60       		.byte	0x60
 15665 3fb4 26       		.uleb128 0x26
ARM GAS  C:\Users\Revanth\AppData\Local\Temp\ccHsQCvB.s 			page 335


 15666 3fb5 A5060000 		.4byte	.LASF178
 15667 3fb9 A5060000 		.4byte	.LASF178
 15668 3fbd 1B       		.byte	0x1b
 15669 3fbe 26       		.byte	0x26
 15670 3fbf 26       		.uleb128 0x26
 15671 3fc0 68000000 		.4byte	.LASF179
 15672 3fc4 68000000 		.4byte	.LASF179
 15673 3fc8 1C       		.byte	0x1c
 15674 3fc9 26       		.byte	0x26
 15675 3fca 26       		.uleb128 0x26
 15676 3fcb A0040000 		.4byte	.LASF180
 15677 3fcf A0040000 		.4byte	.LASF180
 15678 3fd3 1D       		.byte	0x1d
 15679 3fd4 26       		.byte	0x26
 15680 3fd5 26       		.uleb128 0x26
 15681 3fd6 E6060000 		.4byte	.LASF181
 15682 3fda E6060000 		.4byte	.LASF181
 15683 3fde 1E       		.byte	0x1e
 15684 3fdf 5A       		.byte	0x5a
 15685 3fe0 26       		.uleb128 0x26
 15686 3fe1 00000000 		.4byte	.LASF182
 15687 3fe5 00000000 		.4byte	.LASF182
 15688 3fe9 1F       		.byte	0x1f
 15689 3fea 18       		.byte	0x18
 15690 3feb 26       		.uleb128 0x26
 15691 3fec 91010000 		.4byte	.LASF183
 15692 3ff0 91010000 		.4byte	.LASF183
 15693 3ff4 1E       		.byte	0x1e
 15694 3ff5 5B       		.byte	0x5b
 15695 3ff6 26       		.uleb128 0x26
 15696 3ff7 38060000 		.4byte	.LASF184
 15697 3ffb 38060000 		.4byte	.LASF184
 15698 3fff 0F       		.byte	0xf
 15699 4000 4F       		.byte	0x4f
 15700 4001 26       		.uleb128 0x26
 15701 4002 7B0A0000 		.4byte	.LASF185
 15702 4006 7B0A0000 		.4byte	.LASF185
 15703 400a 0E       		.byte	0xe
 15704 400b 4F       		.byte	0x4f
 15705 400c 26       		.uleb128 0x26
 15706 400d C3030000 		.4byte	.LASF186
 15707 4011 C3030000 		.4byte	.LASF186
 15708 4015 20       		.byte	0x20
 15709 4016 26       		.byte	0x26
 15710 4017 00       		.byte	0
 15711              		.section	.debug_abbrev,"",%progbits
 15712              	.Ldebug_abbrev0:
 15713 0000 01       		.uleb128 0x1
 15714 0001 11       		.uleb128 0x11
 15715 0002 01       		.byte	0x1
 15716 0003 25       		.uleb128 0x25
 15717 0004 0E       		.uleb128 0xe
 15718 0005 13       		.uleb128 0x13
 15719 0006 0B       		.uleb128 0xb
 15720 0007 03       		.uleb128 0x3
 15721 0008 0E       		.uleb128 0xe
 15722 0009 1B       		.uleb128 0x1b
ARM GAS  C:\Users\Revanth\AppData\Local\Temp\ccHsQCvB.s 			page 336


 15723 000a 0E       		.uleb128 0xe
 15724 000b 55       		.uleb128 0x55
 15725 000c 17       		.uleb128 0x17
 15726 000d 11       		.uleb128 0x11
 15727 000e 01       		.uleb128 0x1
 15728 000f 10       		.uleb128 0x10
 15729 0010 17       		.uleb128 0x17
 15730 0011 00       		.byte	0
 15731 0012 00       		.byte	0
 15732 0013 02       		.uleb128 0x2
 15733 0014 24       		.uleb128 0x24
 15734 0015 00       		.byte	0
 15735 0016 0B       		.uleb128 0xb
 15736 0017 0B       		.uleb128 0xb
 15737 0018 3E       		.uleb128 0x3e
 15738 0019 0B       		.uleb128 0xb
 15739 001a 03       		.uleb128 0x3
 15740 001b 0E       		.uleb128 0xe
 15741 001c 00       		.byte	0
 15742 001d 00       		.byte	0
 15743 001e 03       		.uleb128 0x3
 15744 001f 16       		.uleb128 0x16
 15745 0020 00       		.byte	0
 15746 0021 03       		.uleb128 0x3
 15747 0022 0E       		.uleb128 0xe
 15748 0023 3A       		.uleb128 0x3a
 15749 0024 0B       		.uleb128 0xb
 15750 0025 3B       		.uleb128 0x3b
 15751 0026 0B       		.uleb128 0xb
 15752 0027 49       		.uleb128 0x49
 15753 0028 13       		.uleb128 0x13
 15754 0029 00       		.byte	0
 15755 002a 00       		.byte	0
 15756 002b 04       		.uleb128 0x4
 15757 002c 24       		.uleb128 0x24
 15758 002d 00       		.byte	0
 15759 002e 0B       		.uleb128 0xb
 15760 002f 0B       		.uleb128 0xb
 15761 0030 3E       		.uleb128 0x3e
 15762 0031 0B       		.uleb128 0xb
 15763 0032 03       		.uleb128 0x3
 15764 0033 08       		.uleb128 0x8
 15765 0034 00       		.byte	0
 15766 0035 00       		.byte	0
 15767 0036 05       		.uleb128 0x5
 15768 0037 0F       		.uleb128 0xf
 15769 0038 00       		.byte	0
 15770 0039 0B       		.uleb128 0xb
 15771 003a 0B       		.uleb128 0xb
 15772 003b 49       		.uleb128 0x49
 15773 003c 13       		.uleb128 0x13
 15774 003d 00       		.byte	0
 15775 003e 00       		.byte	0
 15776 003f 06       		.uleb128 0x6
 15777 0040 16       		.uleb128 0x16
 15778 0041 00       		.byte	0
 15779 0042 03       		.uleb128 0x3
ARM GAS  C:\Users\Revanth\AppData\Local\Temp\ccHsQCvB.s 			page 337


 15780 0043 0E       		.uleb128 0xe
 15781 0044 3A       		.uleb128 0x3a
 15782 0045 0B       		.uleb128 0xb
 15783 0046 3B       		.uleb128 0x3b
 15784 0047 05       		.uleb128 0x5
 15785 0048 49       		.uleb128 0x49
 15786 0049 13       		.uleb128 0x13
 15787 004a 00       		.byte	0
 15788 004b 00       		.byte	0
 15789 004c 07       		.uleb128 0x7
 15790 004d 2E       		.uleb128 0x2e
 15791 004e 00       		.byte	0
 15792 004f 3F       		.uleb128 0x3f
 15793 0050 19       		.uleb128 0x19
 15794 0051 03       		.uleb128 0x3
 15795 0052 0E       		.uleb128 0xe
 15796 0053 3A       		.uleb128 0x3a
 15797 0054 0B       		.uleb128 0xb
 15798 0055 3B       		.uleb128 0x3b
 15799 0056 0B       		.uleb128 0xb
 15800 0057 27       		.uleb128 0x27
 15801 0058 19       		.uleb128 0x19
 15802 0059 11       		.uleb128 0x11
 15803 005a 01       		.uleb128 0x1
 15804 005b 12       		.uleb128 0x12
 15805 005c 06       		.uleb128 0x6
 15806 005d 40       		.uleb128 0x40
 15807 005e 18       		.uleb128 0x18
 15808 005f 9742     		.uleb128 0x2117
 15809 0061 19       		.uleb128 0x19
 15810 0062 00       		.byte	0
 15811 0063 00       		.byte	0
 15812 0064 08       		.uleb128 0x8
 15813 0065 2E       		.uleb128 0x2e
 15814 0066 01       		.byte	0x1
 15815 0067 3F       		.uleb128 0x3f
 15816 0068 19       		.uleb128 0x19
 15817 0069 03       		.uleb128 0x3
 15818 006a 0E       		.uleb128 0xe
 15819 006b 3A       		.uleb128 0x3a
 15820 006c 0B       		.uleb128 0xb
 15821 006d 3B       		.uleb128 0x3b
 15822 006e 05       		.uleb128 0x5
 15823 006f 11       		.uleb128 0x11
 15824 0070 01       		.uleb128 0x1
 15825 0071 12       		.uleb128 0x12
 15826 0072 06       		.uleb128 0x6
 15827 0073 40       		.uleb128 0x40
 15828 0074 18       		.uleb128 0x18
 15829 0075 9742     		.uleb128 0x2117
 15830 0077 19       		.uleb128 0x19
 15831 0078 01       		.uleb128 0x1
 15832 0079 13       		.uleb128 0x13
 15833 007a 00       		.byte	0
 15834 007b 00       		.byte	0
 15835 007c 09       		.uleb128 0x9
 15836 007d 898201   		.uleb128 0x4109
ARM GAS  C:\Users\Revanth\AppData\Local\Temp\ccHsQCvB.s 			page 338


 15837 0080 00       		.byte	0
 15838 0081 11       		.uleb128 0x11
 15839 0082 01       		.uleb128 0x1
 15840 0083 31       		.uleb128 0x31
 15841 0084 13       		.uleb128 0x13
 15842 0085 00       		.byte	0
 15843 0086 00       		.byte	0
 15844 0087 0A       		.uleb128 0xa
 15845 0088 898201   		.uleb128 0x4109
 15846 008b 01       		.byte	0x1
 15847 008c 11       		.uleb128 0x11
 15848 008d 01       		.uleb128 0x1
 15849 008e 31       		.uleb128 0x31
 15850 008f 13       		.uleb128 0x13
 15851 0090 01       		.uleb128 0x1
 15852 0091 13       		.uleb128 0x13
 15853 0092 00       		.byte	0
 15854 0093 00       		.byte	0
 15855 0094 0B       		.uleb128 0xb
 15856 0095 8A8201   		.uleb128 0x410a
 15857 0098 00       		.byte	0
 15858 0099 02       		.uleb128 0x2
 15859 009a 18       		.uleb128 0x18
 15860 009b 9142     		.uleb128 0x2111
 15861 009d 18       		.uleb128 0x18
 15862 009e 00       		.byte	0
 15863 009f 00       		.byte	0
 15864 00a0 0C       		.uleb128 0xc
 15865 00a1 898201   		.uleb128 0x4109
 15866 00a4 01       		.byte	0x1
 15867 00a5 11       		.uleb128 0x11
 15868 00a6 01       		.uleb128 0x1
 15869 00a7 31       		.uleb128 0x31
 15870 00a8 13       		.uleb128 0x13
 15871 00a9 00       		.byte	0
 15872 00aa 00       		.byte	0
 15873 00ab 0D       		.uleb128 0xd
 15874 00ac 2E       		.uleb128 0x2e
 15875 00ad 01       		.byte	0x1
 15876 00ae 3F       		.uleb128 0x3f
 15877 00af 19       		.uleb128 0x19
 15878 00b0 03       		.uleb128 0x3
 15879 00b1 0E       		.uleb128 0xe
 15880 00b2 3A       		.uleb128 0x3a
 15881 00b3 0B       		.uleb128 0xb
 15882 00b4 3B       		.uleb128 0x3b
 15883 00b5 05       		.uleb128 0x5
 15884 00b6 27       		.uleb128 0x27
 15885 00b7 19       		.uleb128 0x19
 15886 00b8 11       		.uleb128 0x11
 15887 00b9 01       		.uleb128 0x1
 15888 00ba 12       		.uleb128 0x12
 15889 00bb 06       		.uleb128 0x6
 15890 00bc 40       		.uleb128 0x40
 15891 00bd 18       		.uleb128 0x18
 15892 00be 9742     		.uleb128 0x2117
 15893 00c0 19       		.uleb128 0x19
ARM GAS  C:\Users\Revanth\AppData\Local\Temp\ccHsQCvB.s 			page 339


 15894 00c1 01       		.uleb128 0x1
 15895 00c2 13       		.uleb128 0x13
 15896 00c3 00       		.byte	0
 15897 00c4 00       		.byte	0
 15898 00c5 0E       		.uleb128 0xe
 15899 00c6 05       		.uleb128 0x5
 15900 00c7 00       		.byte	0
 15901 00c8 03       		.uleb128 0x3
 15902 00c9 0E       		.uleb128 0xe
 15903 00ca 3A       		.uleb128 0x3a
 15904 00cb 0B       		.uleb128 0xb
 15905 00cc 3B       		.uleb128 0x3b
 15906 00cd 05       		.uleb128 0x5
 15907 00ce 49       		.uleb128 0x49
 15908 00cf 13       		.uleb128 0x13
 15909 00d0 02       		.uleb128 0x2
 15910 00d1 17       		.uleb128 0x17
 15911 00d2 00       		.byte	0
 15912 00d3 00       		.byte	0
 15913 00d4 0F       		.uleb128 0xf
 15914 00d5 2E       		.uleb128 0x2e
 15915 00d6 00       		.byte	0
 15916 00d7 3F       		.uleb128 0x3f
 15917 00d8 19       		.uleb128 0x19
 15918 00d9 03       		.uleb128 0x3
 15919 00da 0E       		.uleb128 0xe
 15920 00db 3A       		.uleb128 0x3a
 15921 00dc 0B       		.uleb128 0xb
 15922 00dd 3B       		.uleb128 0x3b
 15923 00de 05       		.uleb128 0x5
 15924 00df 11       		.uleb128 0x11
 15925 00e0 01       		.uleb128 0x1
 15926 00e1 12       		.uleb128 0x12
 15927 00e2 06       		.uleb128 0x6
 15928 00e3 40       		.uleb128 0x40
 15929 00e4 18       		.uleb128 0x18
 15930 00e5 9742     		.uleb128 0x2117
 15931 00e7 19       		.uleb128 0x19
 15932 00e8 00       		.byte	0
 15933 00e9 00       		.byte	0
 15934 00ea 10       		.uleb128 0x10
 15935 00eb 34       		.uleb128 0x34
 15936 00ec 00       		.byte	0
 15937 00ed 03       		.uleb128 0x3
 15938 00ee 08       		.uleb128 0x8
 15939 00ef 3A       		.uleb128 0x3a
 15940 00f0 0B       		.uleb128 0xb
 15941 00f1 3B       		.uleb128 0x3b
 15942 00f2 05       		.uleb128 0x5
 15943 00f3 49       		.uleb128 0x49
 15944 00f4 13       		.uleb128 0x13
 15945 00f5 02       		.uleb128 0x2
 15946 00f6 17       		.uleb128 0x17
 15947 00f7 00       		.byte	0
 15948 00f8 00       		.byte	0
 15949 00f9 11       		.uleb128 0x11
 15950 00fa 34       		.uleb128 0x34
ARM GAS  C:\Users\Revanth\AppData\Local\Temp\ccHsQCvB.s 			page 340


 15951 00fb 00       		.byte	0
 15952 00fc 03       		.uleb128 0x3
 15953 00fd 0E       		.uleb128 0xe
 15954 00fe 3A       		.uleb128 0x3a
 15955 00ff 0B       		.uleb128 0xb
 15956 0100 3B       		.uleb128 0x3b
 15957 0101 05       		.uleb128 0x5
 15958 0102 49       		.uleb128 0x49
 15959 0103 13       		.uleb128 0x13
 15960 0104 02       		.uleb128 0x2
 15961 0105 18       		.uleb128 0x18
 15962 0106 00       		.byte	0
 15963 0107 00       		.byte	0
 15964 0108 12       		.uleb128 0x12
 15965 0109 01       		.uleb128 0x1
 15966 010a 01       		.byte	0x1
 15967 010b 49       		.uleb128 0x49
 15968 010c 13       		.uleb128 0x13
 15969 010d 01       		.uleb128 0x1
 15970 010e 13       		.uleb128 0x13
 15971 010f 00       		.byte	0
 15972 0110 00       		.byte	0
 15973 0111 13       		.uleb128 0x13
 15974 0112 21       		.uleb128 0x21
 15975 0113 00       		.byte	0
 15976 0114 49       		.uleb128 0x49
 15977 0115 13       		.uleb128 0x13
 15978 0116 2F       		.uleb128 0x2f
 15979 0117 0B       		.uleb128 0xb
 15980 0118 00       		.byte	0
 15981 0119 00       		.byte	0
 15982 011a 14       		.uleb128 0x14
 15983 011b 05       		.uleb128 0x5
 15984 011c 00       		.byte	0
 15985 011d 03       		.uleb128 0x3
 15986 011e 08       		.uleb128 0x8
 15987 011f 3A       		.uleb128 0x3a
 15988 0120 0B       		.uleb128 0xb
 15989 0121 3B       		.uleb128 0x3b
 15990 0122 05       		.uleb128 0x5
 15991 0123 49       		.uleb128 0x49
 15992 0124 13       		.uleb128 0x13
 15993 0125 02       		.uleb128 0x2
 15994 0126 17       		.uleb128 0x17
 15995 0127 00       		.byte	0
 15996 0128 00       		.byte	0
 15997 0129 15       		.uleb128 0x15
 15998 012a 0B       		.uleb128 0xb
 15999 012b 01       		.byte	0x1
 16000 012c 11       		.uleb128 0x11
 16001 012d 01       		.uleb128 0x1
 16002 012e 12       		.uleb128 0x12
 16003 012f 06       		.uleb128 0x6
 16004 0130 00       		.byte	0
 16005 0131 00       		.byte	0
 16006 0132 16       		.uleb128 0x16
 16007 0133 2E       		.uleb128 0x2e
ARM GAS  C:\Users\Revanth\AppData\Local\Temp\ccHsQCvB.s 			page 341


 16008 0134 01       		.byte	0x1
 16009 0135 3F       		.uleb128 0x3f
 16010 0136 19       		.uleb128 0x19
 16011 0137 03       		.uleb128 0x3
 16012 0138 0E       		.uleb128 0xe
 16013 0139 3A       		.uleb128 0x3a
 16014 013a 0B       		.uleb128 0xb
 16015 013b 3B       		.uleb128 0x3b
 16016 013c 05       		.uleb128 0x5
 16017 013d 49       		.uleb128 0x49
 16018 013e 13       		.uleb128 0x13
 16019 013f 11       		.uleb128 0x11
 16020 0140 01       		.uleb128 0x1
 16021 0141 12       		.uleb128 0x12
 16022 0142 06       		.uleb128 0x6
 16023 0143 40       		.uleb128 0x40
 16024 0144 18       		.uleb128 0x18
 16025 0145 9742     		.uleb128 0x2117
 16026 0147 19       		.uleb128 0x19
 16027 0148 01       		.uleb128 0x1
 16028 0149 13       		.uleb128 0x13
 16029 014a 00       		.byte	0
 16030 014b 00       		.byte	0
 16031 014c 17       		.uleb128 0x17
 16032 014d 2E       		.uleb128 0x2e
 16033 014e 01       		.byte	0x1
 16034 014f 3F       		.uleb128 0x3f
 16035 0150 19       		.uleb128 0x19
 16036 0151 03       		.uleb128 0x3
 16037 0152 0E       		.uleb128 0xe
 16038 0153 3A       		.uleb128 0x3a
 16039 0154 0B       		.uleb128 0xb
 16040 0155 3B       		.uleb128 0x3b
 16041 0156 05       		.uleb128 0x5
 16042 0157 27       		.uleb128 0x27
 16043 0158 19       		.uleb128 0x19
 16044 0159 11       		.uleb128 0x11
 16045 015a 01       		.uleb128 0x1
 16046 015b 12       		.uleb128 0x12
 16047 015c 06       		.uleb128 0x6
 16048 015d 40       		.uleb128 0x40
 16049 015e 18       		.uleb128 0x18
 16050 015f 9642     		.uleb128 0x2116
 16051 0161 19       		.uleb128 0x19
 16052 0162 01       		.uleb128 0x1
 16053 0163 13       		.uleb128 0x13
 16054 0164 00       		.byte	0
 16055 0165 00       		.byte	0
 16056 0166 18       		.uleb128 0x18
 16057 0167 2E       		.uleb128 0x2e
 16058 0168 01       		.byte	0x1
 16059 0169 3F       		.uleb128 0x3f
 16060 016a 19       		.uleb128 0x19
 16061 016b 03       		.uleb128 0x3
 16062 016c 0E       		.uleb128 0xe
 16063 016d 3A       		.uleb128 0x3a
 16064 016e 0B       		.uleb128 0xb
ARM GAS  C:\Users\Revanth\AppData\Local\Temp\ccHsQCvB.s 			page 342


 16065 016f 3B       		.uleb128 0x3b
 16066 0170 05       		.uleb128 0x5
 16067 0171 49       		.uleb128 0x49
 16068 0172 13       		.uleb128 0x13
 16069 0173 11       		.uleb128 0x11
 16070 0174 01       		.uleb128 0x1
 16071 0175 12       		.uleb128 0x12
 16072 0176 06       		.uleb128 0x6
 16073 0177 40       		.uleb128 0x40
 16074 0178 18       		.uleb128 0x18
 16075 0179 9642     		.uleb128 0x2116
 16076 017b 19       		.uleb128 0x19
 16077 017c 01       		.uleb128 0x1
 16078 017d 13       		.uleb128 0x13
 16079 017e 00       		.byte	0
 16080 017f 00       		.byte	0
 16081 0180 19       		.uleb128 0x19
 16082 0181 2E       		.uleb128 0x2e
 16083 0182 01       		.byte	0x1
 16084 0183 3F       		.uleb128 0x3f
 16085 0184 19       		.uleb128 0x19
 16086 0185 03       		.uleb128 0x3
 16087 0186 0E       		.uleb128 0xe
 16088 0187 3A       		.uleb128 0x3a
 16089 0188 0B       		.uleb128 0xb
 16090 0189 3B       		.uleb128 0x3b
 16091 018a 05       		.uleb128 0x5
 16092 018b 27       		.uleb128 0x27
 16093 018c 19       		.uleb128 0x19
 16094 018d 49       		.uleb128 0x49
 16095 018e 13       		.uleb128 0x13
 16096 018f 11       		.uleb128 0x11
 16097 0190 01       		.uleb128 0x1
 16098 0191 12       		.uleb128 0x12
 16099 0192 06       		.uleb128 0x6
 16100 0193 40       		.uleb128 0x40
 16101 0194 18       		.uleb128 0x18
 16102 0195 9742     		.uleb128 0x2117
 16103 0197 19       		.uleb128 0x19
 16104 0198 01       		.uleb128 0x1
 16105 0199 13       		.uleb128 0x13
 16106 019a 00       		.byte	0
 16107 019b 00       		.byte	0
 16108 019c 1A       		.uleb128 0x1a
 16109 019d 34       		.uleb128 0x34
 16110 019e 00       		.byte	0
 16111 019f 03       		.uleb128 0x3
 16112 01a0 0E       		.uleb128 0xe
 16113 01a1 3A       		.uleb128 0x3a
 16114 01a2 0B       		.uleb128 0xb
 16115 01a3 3B       		.uleb128 0x3b
 16116 01a4 05       		.uleb128 0x5
 16117 01a5 49       		.uleb128 0x49
 16118 01a6 13       		.uleb128 0x13
 16119 01a7 02       		.uleb128 0x2
 16120 01a8 17       		.uleb128 0x17
 16121 01a9 00       		.byte	0
ARM GAS  C:\Users\Revanth\AppData\Local\Temp\ccHsQCvB.s 			page 343


 16122 01aa 00       		.byte	0
 16123 01ab 1B       		.uleb128 0x1b
 16124 01ac 2E       		.uleb128 0x2e
 16125 01ad 01       		.byte	0x1
 16126 01ae 3F       		.uleb128 0x3f
 16127 01af 19       		.uleb128 0x19
 16128 01b0 03       		.uleb128 0x3
 16129 01b1 0E       		.uleb128 0xe
 16130 01b2 3A       		.uleb128 0x3a
 16131 01b3 0B       		.uleb128 0xb
 16132 01b4 3B       		.uleb128 0x3b
 16133 01b5 0B       		.uleb128 0xb
 16134 01b6 27       		.uleb128 0x27
 16135 01b7 19       		.uleb128 0x19
 16136 01b8 11       		.uleb128 0x11
 16137 01b9 01       		.uleb128 0x1
 16138 01ba 12       		.uleb128 0x12
 16139 01bb 06       		.uleb128 0x6
 16140 01bc 40       		.uleb128 0x40
 16141 01bd 18       		.uleb128 0x18
 16142 01be 9742     		.uleb128 0x2117
 16143 01c0 19       		.uleb128 0x19
 16144 01c1 01       		.uleb128 0x1
 16145 01c2 13       		.uleb128 0x13
 16146 01c3 00       		.byte	0
 16147 01c4 00       		.byte	0
 16148 01c5 1C       		.uleb128 0x1c
 16149 01c6 05       		.uleb128 0x5
 16150 01c7 00       		.byte	0
 16151 01c8 03       		.uleb128 0x3
 16152 01c9 08       		.uleb128 0x8
 16153 01ca 3A       		.uleb128 0x3a
 16154 01cb 0B       		.uleb128 0xb
 16155 01cc 3B       		.uleb128 0x3b
 16156 01cd 0B       		.uleb128 0xb
 16157 01ce 49       		.uleb128 0x49
 16158 01cf 13       		.uleb128 0x13
 16159 01d0 02       		.uleb128 0x2
 16160 01d1 17       		.uleb128 0x17
 16161 01d2 00       		.byte	0
 16162 01d3 00       		.byte	0
 16163 01d4 1D       		.uleb128 0x1d
 16164 01d5 05       		.uleb128 0x5
 16165 01d6 00       		.byte	0
 16166 01d7 03       		.uleb128 0x3
 16167 01d8 0E       		.uleb128 0xe
 16168 01d9 3A       		.uleb128 0x3a
 16169 01da 0B       		.uleb128 0xb
 16170 01db 3B       		.uleb128 0x3b
 16171 01dc 0B       		.uleb128 0xb
 16172 01dd 49       		.uleb128 0x49
 16173 01de 13       		.uleb128 0x13
 16174 01df 02       		.uleb128 0x2
 16175 01e0 17       		.uleb128 0x17
 16176 01e1 00       		.byte	0
 16177 01e2 00       		.byte	0
 16178 01e3 1E       		.uleb128 0x1e
ARM GAS  C:\Users\Revanth\AppData\Local\Temp\ccHsQCvB.s 			page 344


 16179 01e4 34       		.uleb128 0x34
 16180 01e5 00       		.byte	0
 16181 01e6 03       		.uleb128 0x3
 16182 01e7 0E       		.uleb128 0xe
 16183 01e8 3A       		.uleb128 0x3a
 16184 01e9 0B       		.uleb128 0xb
 16185 01ea 3B       		.uleb128 0x3b
 16186 01eb 05       		.uleb128 0x5
 16187 01ec 49       		.uleb128 0x49
 16188 01ed 13       		.uleb128 0x13
 16189 01ee 1C       		.uleb128 0x1c
 16190 01ef 0B       		.uleb128 0xb
 16191 01f0 00       		.byte	0
 16192 01f1 00       		.byte	0
 16193 01f2 1F       		.uleb128 0x1f
 16194 01f3 2E       		.uleb128 0x2e
 16195 01f4 01       		.byte	0x1
 16196 01f5 3F       		.uleb128 0x3f
 16197 01f6 19       		.uleb128 0x19
 16198 01f7 03       		.uleb128 0x3
 16199 01f8 0E       		.uleb128 0xe
 16200 01f9 3A       		.uleb128 0x3a
 16201 01fa 0B       		.uleb128 0xb
 16202 01fb 3B       		.uleb128 0x3b
 16203 01fc 05       		.uleb128 0x5
 16204 01fd 27       		.uleb128 0x27
 16205 01fe 19       		.uleb128 0x19
 16206 01ff 49       		.uleb128 0x49
 16207 0200 13       		.uleb128 0x13
 16208 0201 11       		.uleb128 0x11
 16209 0202 01       		.uleb128 0x1
 16210 0203 12       		.uleb128 0x12
 16211 0204 06       		.uleb128 0x6
 16212 0205 40       		.uleb128 0x40
 16213 0206 18       		.uleb128 0x18
 16214 0207 9642     		.uleb128 0x2116
 16215 0209 19       		.uleb128 0x19
 16216 020a 01       		.uleb128 0x1
 16217 020b 13       		.uleb128 0x13
 16218 020c 00       		.byte	0
 16219 020d 00       		.byte	0
 16220 020e 20       		.uleb128 0x20
 16221 020f 2E       		.uleb128 0x2e
 16222 0210 01       		.byte	0x1
 16223 0211 3F       		.uleb128 0x3f
 16224 0212 19       		.uleb128 0x19
 16225 0213 03       		.uleb128 0x3
 16226 0214 0E       		.uleb128 0xe
 16227 0215 3A       		.uleb128 0x3a
 16228 0216 0B       		.uleb128 0xb
 16229 0217 3B       		.uleb128 0x3b
 16230 0218 05       		.uleb128 0x5
 16231 0219 11       		.uleb128 0x11
 16232 021a 01       		.uleb128 0x1
 16233 021b 12       		.uleb128 0x12
 16234 021c 06       		.uleb128 0x6
 16235 021d 40       		.uleb128 0x40
ARM GAS  C:\Users\Revanth\AppData\Local\Temp\ccHsQCvB.s 			page 345


 16236 021e 18       		.uleb128 0x18
 16237 021f 9642     		.uleb128 0x2116
 16238 0221 19       		.uleb128 0x19
 16239 0222 01       		.uleb128 0x1
 16240 0223 13       		.uleb128 0x13
 16241 0224 00       		.byte	0
 16242 0225 00       		.byte	0
 16243 0226 21       		.uleb128 0x21
 16244 0227 0B       		.uleb128 0xb
 16245 0228 01       		.byte	0x1
 16246 0229 11       		.uleb128 0x11
 16247 022a 01       		.uleb128 0x1
 16248 022b 12       		.uleb128 0x12
 16249 022c 06       		.uleb128 0x6
 16250 022d 01       		.uleb128 0x1
 16251 022e 13       		.uleb128 0x13
 16252 022f 00       		.byte	0
 16253 0230 00       		.byte	0
 16254 0231 22       		.uleb128 0x22
 16255 0232 34       		.uleb128 0x34
 16256 0233 00       		.byte	0
 16257 0234 03       		.uleb128 0x3
 16258 0235 0E       		.uleb128 0xe
 16259 0236 3A       		.uleb128 0x3a
 16260 0237 0B       		.uleb128 0xb
 16261 0238 3B       		.uleb128 0x3b
 16262 0239 05       		.uleb128 0x5
 16263 023a 49       		.uleb128 0x49
 16264 023b 13       		.uleb128 0x13
 16265 023c 3F       		.uleb128 0x3f
 16266 023d 19       		.uleb128 0x19
 16267 023e 3C       		.uleb128 0x3c
 16268 023f 19       		.uleb128 0x19
 16269 0240 00       		.byte	0
 16270 0241 00       		.byte	0
 16271 0242 23       		.uleb128 0x23
 16272 0243 35       		.uleb128 0x35
 16273 0244 00       		.byte	0
 16274 0245 49       		.uleb128 0x49
 16275 0246 13       		.uleb128 0x13
 16276 0247 00       		.byte	0
 16277 0248 00       		.byte	0
 16278 0249 24       		.uleb128 0x24
 16279 024a 34       		.uleb128 0x34
 16280 024b 00       		.byte	0
 16281 024c 03       		.uleb128 0x3
 16282 024d 0E       		.uleb128 0xe
 16283 024e 3A       		.uleb128 0x3a
 16284 024f 0B       		.uleb128 0xb
 16285 0250 3B       		.uleb128 0x3b
 16286 0251 0B       		.uleb128 0xb
 16287 0252 49       		.uleb128 0x49
 16288 0253 13       		.uleb128 0x13
 16289 0254 3F       		.uleb128 0x3f
 16290 0255 19       		.uleb128 0x19
 16291 0256 02       		.uleb128 0x2
 16292 0257 18       		.uleb128 0x18
ARM GAS  C:\Users\Revanth\AppData\Local\Temp\ccHsQCvB.s 			page 346


 16293 0258 00       		.byte	0
 16294 0259 00       		.byte	0
 16295 025a 25       		.uleb128 0x25
 16296 025b 34       		.uleb128 0x34
 16297 025c 00       		.byte	0
 16298 025d 03       		.uleb128 0x3
 16299 025e 0E       		.uleb128 0xe
 16300 025f 3A       		.uleb128 0x3a
 16301 0260 0B       		.uleb128 0xb
 16302 0261 3B       		.uleb128 0x3b
 16303 0262 0B       		.uleb128 0xb
 16304 0263 49       		.uleb128 0x49
 16305 0264 13       		.uleb128 0x13
 16306 0265 3F       		.uleb128 0x3f
 16307 0266 19       		.uleb128 0x19
 16308 0267 3C       		.uleb128 0x3c
 16309 0268 19       		.uleb128 0x19
 16310 0269 00       		.byte	0
 16311 026a 00       		.byte	0
 16312 026b 26       		.uleb128 0x26
 16313 026c 2E       		.uleb128 0x2e
 16314 026d 00       		.byte	0
 16315 026e 3F       		.uleb128 0x3f
 16316 026f 19       		.uleb128 0x19
 16317 0270 3C       		.uleb128 0x3c
 16318 0271 19       		.uleb128 0x19
 16319 0272 6E       		.uleb128 0x6e
 16320 0273 0E       		.uleb128 0xe
 16321 0274 03       		.uleb128 0x3
 16322 0275 0E       		.uleb128 0xe
 16323 0276 3A       		.uleb128 0x3a
 16324 0277 0B       		.uleb128 0xb
 16325 0278 3B       		.uleb128 0x3b
 16326 0279 0B       		.uleb128 0xb
 16327 027a 00       		.byte	0
 16328 027b 00       		.byte	0
 16329 027c 27       		.uleb128 0x27
 16330 027d 2E       		.uleb128 0x2e
 16331 027e 00       		.byte	0
 16332 027f 3F       		.uleb128 0x3f
 16333 0280 19       		.uleb128 0x19
 16334 0281 3C       		.uleb128 0x3c
 16335 0282 19       		.uleb128 0x19
 16336 0283 6E       		.uleb128 0x6e
 16337 0284 0E       		.uleb128 0xe
 16338 0285 03       		.uleb128 0x3
 16339 0286 0E       		.uleb128 0xe
 16340 0287 3A       		.uleb128 0x3a
 16341 0288 0B       		.uleb128 0xb
 16342 0289 3B       		.uleb128 0x3b
 16343 028a 05       		.uleb128 0x5
 16344 028b 00       		.byte	0
 16345 028c 00       		.byte	0
 16346 028d 00       		.byte	0
 16347              		.section	.debug_loc,"",%progbits
 16348              	.Ldebug_loc0:
 16349              	.LLST0:
ARM GAS  C:\Users\Revanth\AppData\Local\Temp\ccHsQCvB.s 			page 347


 16350 0000 00000000 		.4byte	.LVL12
 16351 0004 05000000 		.4byte	.LVL13-1
 16352 0008 0100     		.2byte	0x1
 16353 000a 50       		.byte	0x50
 16354 000b 05000000 		.4byte	.LVL13-1
 16355 000f 08000000 		.4byte	.LFE86
 16356 0013 0400     		.2byte	0x4
 16357 0015 F3       		.byte	0xf3
 16358 0016 01       		.uleb128 0x1
 16359 0017 50       		.byte	0x50
 16360 0018 9F       		.byte	0x9f
 16361 0019 00000000 		.4byte	0
 16362 001d 00000000 		.4byte	0
 16363              	.LLST1:
 16364 0021 00000000 		.4byte	.LVL14
 16365 0025 0B000000 		.4byte	.LVL15-1
 16366 0029 0100     		.2byte	0x1
 16367 002b 50       		.byte	0x50
 16368 002c 0B000000 		.4byte	.LVL15-1
 16369 0030 18000000 		.4byte	.LFE88
 16370 0034 0400     		.2byte	0x4
 16371 0036 F3       		.byte	0xf3
 16372 0037 01       		.uleb128 0x1
 16373 0038 50       		.byte	0x50
 16374 0039 9F       		.byte	0x9f
 16375 003a 00000000 		.4byte	0
 16376 003e 00000000 		.4byte	0
 16377              	.LLST2:
 16378 0042 00000000 		.4byte	.LVL17
 16379 0046 0B000000 		.4byte	.LVL18-1
 16380 004a 0100     		.2byte	0x1
 16381 004c 50       		.byte	0x50
 16382 004d 0B000000 		.4byte	.LVL18-1
 16383 0051 18000000 		.4byte	.LFE89
 16384 0055 0400     		.2byte	0x4
 16385 0057 F3       		.byte	0xf3
 16386 0058 01       		.uleb128 0x1
 16387 0059 50       		.byte	0x50
 16388 005a 9F       		.byte	0x9f
 16389 005b 00000000 		.4byte	0
 16390 005f 00000000 		.4byte	0
 16391              	.LLST3:
 16392 0063 00000000 		.4byte	.LVL28
 16393 0067 04000000 		.4byte	.LVL29
 16394 006b 0200     		.2byte	0x2
 16395 006d 30       		.byte	0x30
 16396 006e 9F       		.byte	0x9f
 16397 006f 04000000 		.4byte	.LVL29
 16398 0073 18000000 		.4byte	.LFE96
 16399 0077 0100     		.2byte	0x1
 16400 0079 53       		.byte	0x53
 16401 007a 00000000 		.4byte	0
 16402 007e 00000000 		.4byte	0
 16403              	.LLST4:
 16404 0082 04000000 		.4byte	.LVL31
 16405 0086 08000000 		.4byte	.LVL32
 16406 008a 0200     		.2byte	0x2
ARM GAS  C:\Users\Revanth\AppData\Local\Temp\ccHsQCvB.s 			page 348


 16407 008c 30       		.byte	0x30
 16408 008d 9F       		.byte	0x9f
 16409 008e 08000000 		.4byte	.LVL32
 16410 0092 18000000 		.4byte	.LFE97
 16411 0096 0100     		.2byte	0x1
 16412 0098 54       		.byte	0x54
 16413 0099 00000000 		.4byte	0
 16414 009d 00000000 		.4byte	0
 16415              	.LLST5:
 16416 00a1 00000000 		.4byte	.LVL35
 16417 00a5 0A000000 		.4byte	.LVL36
 16418 00a9 0100     		.2byte	0x1
 16419 00ab 50       		.byte	0x50
 16420 00ac 0A000000 		.4byte	.LVL36
 16421 00b0 0D000000 		.4byte	.LVL37-1
 16422 00b4 0100     		.2byte	0x1
 16423 00b6 51       		.byte	0x51
 16424 00b7 0D000000 		.4byte	.LVL37-1
 16425 00bb 28000000 		.4byte	.LVL41
 16426 00bf 0100     		.2byte	0x1
 16427 00c1 54       		.byte	0x54
 16428 00c2 28000000 		.4byte	.LVL41
 16429 00c6 2C000000 		.4byte	.LFE98
 16430 00ca 0400     		.2byte	0x4
 16431 00cc F3       		.byte	0xf3
 16432 00cd 01       		.uleb128 0x1
 16433 00ce 50       		.byte	0x50
 16434 00cf 9F       		.byte	0x9f
 16435 00d0 00000000 		.4byte	0
 16436 00d4 00000000 		.4byte	0
 16437              	.LLST6:
 16438 00d8 00000000 		.4byte	.LVL59
 16439 00dc 07000000 		.4byte	.LVL60-1
 16440 00e0 0100     		.2byte	0x1
 16441 00e2 50       		.byte	0x50
 16442 00e3 07000000 		.4byte	.LVL60-1
 16443 00e7 22000000 		.4byte	.LVL61
 16444 00eb 0100     		.2byte	0x1
 16445 00ed 54       		.byte	0x54
 16446 00ee 22000000 		.4byte	.LVL61
 16447 00f2 D8010000 		.4byte	.LVL62
 16448 00f6 0300     		.2byte	0x3
 16449 00f8 74       		.byte	0x74
 16450 00f9 01       		.sleb128 1
 16451 00fa 9F       		.byte	0x9f
 16452 00fb D8010000 		.4byte	.LVL62
 16453 00ff E4020000 		.4byte	.LFE92
 16454 0103 0400     		.2byte	0x4
 16455 0105 F3       		.byte	0xf3
 16456 0106 01       		.uleb128 0x1
 16457 0107 50       		.byte	0x50
 16458 0108 9F       		.byte	0x9f
 16459 0109 00000000 		.4byte	0
 16460 010d 00000000 		.4byte	0
 16461              	.LLST7:
 16462 0111 00000000 		.4byte	.LVL75
 16463 0115 0A000000 		.4byte	.LVL76
ARM GAS  C:\Users\Revanth\AppData\Local\Temp\ccHsQCvB.s 			page 349


 16464 0119 0100     		.2byte	0x1
 16465 011b 50       		.byte	0x50
 16466 011c 0A000000 		.4byte	.LVL76
 16467 0120 0D000000 		.4byte	.LVL77-1
 16468 0124 0100     		.2byte	0x1
 16469 0126 52       		.byte	0x52
 16470 0127 0D000000 		.4byte	.LVL77-1
 16471 012b 24000000 		.4byte	.LFE99
 16472 012f 0400     		.2byte	0x4
 16473 0131 F3       		.byte	0xf3
 16474 0132 01       		.uleb128 0x1
 16475 0133 50       		.byte	0x50
 16476 0134 9F       		.byte	0x9f
 16477 0135 00000000 		.4byte	0
 16478 0139 00000000 		.4byte	0
 16479              	.LLST8:
 16480 013d 00000000 		.4byte	.LVL114
 16481 0141 05000000 		.4byte	.LVL115-1
 16482 0145 0100     		.2byte	0x1
 16483 0147 50       		.byte	0x50
 16484 0148 05000000 		.4byte	.LVL115-1
 16485 014c 10000000 		.4byte	.LFE101
 16486 0150 0400     		.2byte	0x4
 16487 0152 F3       		.byte	0xf3
 16488 0153 01       		.uleb128 0x1
 16489 0154 50       		.byte	0x50
 16490 0155 9F       		.byte	0x9f
 16491 0156 00000000 		.4byte	0
 16492 015a 00000000 		.4byte	0
 16493              	.LLST9:
 16494 015e 00000000 		.4byte	.LVL117
 16495 0162 1C000000 		.4byte	.LVL118
 16496 0166 0100     		.2byte	0x1
 16497 0168 50       		.byte	0x50
 16498 0169 1C000000 		.4byte	.LVL118
 16499 016d 2E000000 		.4byte	.LVL122
 16500 0171 0400     		.2byte	0x4
 16501 0173 F3       		.byte	0xf3
 16502 0174 01       		.uleb128 0x1
 16503 0175 50       		.byte	0x50
 16504 0176 9F       		.byte	0x9f
 16505 0177 2E000000 		.4byte	.LVL122
 16506 017b 30000000 		.4byte	.LVL123
 16507 017f 0100     		.2byte	0x1
 16508 0181 50       		.byte	0x50
 16509 0182 30000000 		.4byte	.LVL123
 16510 0186 42000000 		.4byte	.LVL127
 16511 018a 0400     		.2byte	0x4
 16512 018c F3       		.byte	0xf3
 16513 018d 01       		.uleb128 0x1
 16514 018e 50       		.byte	0x50
 16515 018f 9F       		.byte	0x9f
 16516 0190 42000000 		.4byte	.LVL127
 16517 0194 44000000 		.4byte	.LVL128
 16518 0198 0100     		.2byte	0x1
 16519 019a 50       		.byte	0x50
 16520 019b 44000000 		.4byte	.LVL128
ARM GAS  C:\Users\Revanth\AppData\Local\Temp\ccHsQCvB.s 			page 350


 16521 019f 56000000 		.4byte	.LVL132
 16522 01a3 0400     		.2byte	0x4
 16523 01a5 F3       		.byte	0xf3
 16524 01a6 01       		.uleb128 0x1
 16525 01a7 50       		.byte	0x50
 16526 01a8 9F       		.byte	0x9f
 16527 01a9 56000000 		.4byte	.LVL132
 16528 01ad 58000000 		.4byte	.LVL133
 16529 01b1 0100     		.2byte	0x1
 16530 01b3 50       		.byte	0x50
 16531 01b4 58000000 		.4byte	.LVL133
 16532 01b8 6A000000 		.4byte	.LVL137
 16533 01bc 0400     		.2byte	0x4
 16534 01be F3       		.byte	0xf3
 16535 01bf 01       		.uleb128 0x1
 16536 01c0 50       		.byte	0x50
 16537 01c1 9F       		.byte	0x9f
 16538 01c2 6A000000 		.4byte	.LVL137
 16539 01c6 6C000000 		.4byte	.LVL138
 16540 01ca 0100     		.2byte	0x1
 16541 01cc 50       		.byte	0x50
 16542 01cd 6C000000 		.4byte	.LVL138
 16543 01d1 7E000000 		.4byte	.LVL142
 16544 01d5 0400     		.2byte	0x4
 16545 01d7 F3       		.byte	0xf3
 16546 01d8 01       		.uleb128 0x1
 16547 01d9 50       		.byte	0x50
 16548 01da 9F       		.byte	0x9f
 16549 01db 7E000000 		.4byte	.LVL142
 16550 01df 80000000 		.4byte	.LVL143
 16551 01e3 0100     		.2byte	0x1
 16552 01e5 50       		.byte	0x50
 16553 01e6 80000000 		.4byte	.LVL143
 16554 01ea 86000000 		.4byte	.LVL145
 16555 01ee 0400     		.2byte	0x4
 16556 01f0 F3       		.byte	0xf3
 16557 01f1 01       		.uleb128 0x1
 16558 01f2 50       		.byte	0x50
 16559 01f3 9F       		.byte	0x9f
 16560 01f4 86000000 		.4byte	.LVL145
 16561 01f8 88000000 		.4byte	.LVL146
 16562 01fc 0100     		.2byte	0x1
 16563 01fe 50       		.byte	0x50
 16564 01ff 88000000 		.4byte	.LVL146
 16565 0203 98000000 		.4byte	.LFE102
 16566 0207 0400     		.2byte	0x4
 16567 0209 F3       		.byte	0xf3
 16568 020a 01       		.uleb128 0x1
 16569 020b 50       		.byte	0x50
 16570 020c 9F       		.byte	0x9f
 16571 020d 00000000 		.4byte	0
 16572 0211 00000000 		.4byte	0
 16573              	.LLST10:
 16574 0215 00000000 		.4byte	.LVL117
 16575 0219 1F000000 		.4byte	.LVL119-1
 16576 021d 0100     		.2byte	0x1
 16577 021f 51       		.byte	0x51
ARM GAS  C:\Users\Revanth\AppData\Local\Temp\ccHsQCvB.s 			page 351


 16578 0220 1F000000 		.4byte	.LVL119-1
 16579 0224 2E000000 		.4byte	.LVL122
 16580 0228 0400     		.2byte	0x4
 16581 022a F3       		.byte	0xf3
 16582 022b 01       		.uleb128 0x1
 16583 022c 51       		.byte	0x51
 16584 022d 9F       		.byte	0x9f
 16585 022e 2E000000 		.4byte	.LVL122
 16586 0232 33000000 		.4byte	.LVL124-1
 16587 0236 0100     		.2byte	0x1
 16588 0238 51       		.byte	0x51
 16589 0239 33000000 		.4byte	.LVL124-1
 16590 023d 42000000 		.4byte	.LVL127
 16591 0241 0400     		.2byte	0x4
 16592 0243 F3       		.byte	0xf3
 16593 0244 01       		.uleb128 0x1
 16594 0245 51       		.byte	0x51
 16595 0246 9F       		.byte	0x9f
 16596 0247 42000000 		.4byte	.LVL127
 16597 024b 47000000 		.4byte	.LVL129-1
 16598 024f 0100     		.2byte	0x1
 16599 0251 51       		.byte	0x51
 16600 0252 47000000 		.4byte	.LVL129-1
 16601 0256 56000000 		.4byte	.LVL132
 16602 025a 0400     		.2byte	0x4
 16603 025c F3       		.byte	0xf3
 16604 025d 01       		.uleb128 0x1
 16605 025e 51       		.byte	0x51
 16606 025f 9F       		.byte	0x9f
 16607 0260 56000000 		.4byte	.LVL132
 16608 0264 5B000000 		.4byte	.LVL134-1
 16609 0268 0100     		.2byte	0x1
 16610 026a 51       		.byte	0x51
 16611 026b 5B000000 		.4byte	.LVL134-1
 16612 026f 6A000000 		.4byte	.LVL137
 16613 0273 0400     		.2byte	0x4
 16614 0275 F3       		.byte	0xf3
 16615 0276 01       		.uleb128 0x1
 16616 0277 51       		.byte	0x51
 16617 0278 9F       		.byte	0x9f
 16618 0279 6A000000 		.4byte	.LVL137
 16619 027d 6F000000 		.4byte	.LVL139-1
 16620 0281 0100     		.2byte	0x1
 16621 0283 51       		.byte	0x51
 16622 0284 6F000000 		.4byte	.LVL139-1
 16623 0288 7E000000 		.4byte	.LVL142
 16624 028c 0400     		.2byte	0x4
 16625 028e F3       		.byte	0xf3
 16626 028f 01       		.uleb128 0x1
 16627 0290 51       		.byte	0x51
 16628 0291 9F       		.byte	0x9f
 16629 0292 7E000000 		.4byte	.LVL142
 16630 0296 83000000 		.4byte	.LVL144-1
 16631 029a 0100     		.2byte	0x1
 16632 029c 51       		.byte	0x51
 16633 029d 83000000 		.4byte	.LVL144-1
 16634 02a1 86000000 		.4byte	.LVL145
ARM GAS  C:\Users\Revanth\AppData\Local\Temp\ccHsQCvB.s 			page 352


 16635 02a5 0400     		.2byte	0x4
 16636 02a7 F3       		.byte	0xf3
 16637 02a8 01       		.uleb128 0x1
 16638 02a9 51       		.byte	0x51
 16639 02aa 9F       		.byte	0x9f
 16640 02ab 86000000 		.4byte	.LVL145
 16641 02af 8B000000 		.4byte	.LVL147-1
 16642 02b3 0100     		.2byte	0x1
 16643 02b5 51       		.byte	0x51
 16644 02b6 8B000000 		.4byte	.LVL147-1
 16645 02ba 98000000 		.4byte	.LFE102
 16646 02be 0400     		.2byte	0x4
 16647 02c0 F3       		.byte	0xf3
 16648 02c1 01       		.uleb128 0x1
 16649 02c2 51       		.byte	0x51
 16650 02c3 9F       		.byte	0x9f
 16651 02c4 00000000 		.4byte	0
 16652 02c8 00000000 		.4byte	0
 16653              	.LLST11:
 16654 02cc 00000000 		.4byte	.LVL148
 16655 02d0 0C000000 		.4byte	.LVL151
 16656 02d4 0100     		.2byte	0x1
 16657 02d6 50       		.byte	0x50
 16658 02d7 0C000000 		.4byte	.LVL151
 16659 02db EC000000 		.4byte	.LFE103
 16660 02df 0400     		.2byte	0x4
 16661 02e1 F3       		.byte	0xf3
 16662 02e2 01       		.uleb128 0x1
 16663 02e3 50       		.byte	0x50
 16664 02e4 9F       		.byte	0x9f
 16665 02e5 00000000 		.4byte	0
 16666 02e9 00000000 		.4byte	0
 16667              	.LLST12:
 16668 02ed 00000000 		.4byte	.LVL148
 16669 02f1 0A000000 		.4byte	.LVL150
 16670 02f5 0100     		.2byte	0x1
 16671 02f7 51       		.byte	0x51
 16672 02f8 0A000000 		.4byte	.LVL150
 16673 02fc EC000000 		.4byte	.LFE103
 16674 0300 0400     		.2byte	0x4
 16675 0302 F3       		.byte	0xf3
 16676 0303 01       		.uleb128 0x1
 16677 0304 51       		.byte	0x51
 16678 0305 9F       		.byte	0x9f
 16679 0306 00000000 		.4byte	0
 16680 030a 00000000 		.4byte	0
 16681              	.LLST13:
 16682 030e 00000000 		.4byte	.LVL148
 16683 0312 0F000000 		.4byte	.LVL152-1
 16684 0316 0100     		.2byte	0x1
 16685 0318 52       		.byte	0x52
 16686 0319 0F000000 		.4byte	.LVL152-1
 16687 031d EC000000 		.4byte	.LFE103
 16688 0321 0100     		.2byte	0x1
 16689 0323 57       		.byte	0x57
 16690 0324 00000000 		.4byte	0
 16691 0328 00000000 		.4byte	0
ARM GAS  C:\Users\Revanth\AppData\Local\Temp\ccHsQCvB.s 			page 353


 16692              	.LLST14:
 16693 032c 08000000 		.4byte	.LVL149
 16694 0330 60000000 		.4byte	.LVL165
 16695 0334 0200     		.2byte	0x2
 16696 0336 30       		.byte	0x30
 16697 0337 9F       		.byte	0x9f
 16698 0338 60000000 		.4byte	.LVL165
 16699 033c EC000000 		.4byte	.LFE103
 16700 0340 0100     		.2byte	0x1
 16701 0342 54       		.byte	0x54
 16702 0343 00000000 		.4byte	0
 16703 0347 00000000 		.4byte	0
 16704              	.LLST15:
 16705 034b 00000000 		.4byte	.LVL193
 16706 034f 0C000000 		.4byte	.LVL195
 16707 0353 0100     		.2byte	0x1
 16708 0355 50       		.byte	0x50
 16709 0356 0C000000 		.4byte	.LVL195
 16710 035a 3E000000 		.4byte	.LFE104
 16711 035e 0400     		.2byte	0x4
 16712 0360 F3       		.byte	0xf3
 16713 0361 01       		.uleb128 0x1
 16714 0362 50       		.byte	0x50
 16715 0363 9F       		.byte	0x9f
 16716 0364 00000000 		.4byte	0
 16717 0368 00000000 		.4byte	0
 16718              	.LLST16:
 16719 036c 00000000 		.4byte	.LVL193
 16720 0370 0A000000 		.4byte	.LVL194
 16721 0374 0100     		.2byte	0x1
 16722 0376 51       		.byte	0x51
 16723 0377 0A000000 		.4byte	.LVL194
 16724 037b 3E000000 		.4byte	.LFE104
 16725 037f 0100     		.2byte	0x1
 16726 0381 54       		.byte	0x54
 16727 0382 00000000 		.4byte	0
 16728 0386 00000000 		.4byte	0
 16729              	.LLST17:
 16730 038a 00000000 		.4byte	.LVL193
 16731 038e 0F000000 		.4byte	.LVL196-1
 16732 0392 0100     		.2byte	0x1
 16733 0394 52       		.byte	0x52
 16734 0395 0F000000 		.4byte	.LVL196-1
 16735 0399 3E000000 		.4byte	.LFE104
 16736 039d 0400     		.2byte	0x4
 16737 039f F3       		.byte	0xf3
 16738 03a0 01       		.uleb128 0x1
 16739 03a1 52       		.byte	0x52
 16740 03a2 9F       		.byte	0x9f
 16741 03a3 00000000 		.4byte	0
 16742 03a7 00000000 		.4byte	0
 16743              	.LLST18:
 16744 03ab 00000000 		.4byte	.LVL203
 16745 03af 0C000000 		.4byte	.LVL205
 16746 03b3 0100     		.2byte	0x1
 16747 03b5 50       		.byte	0x50
 16748 03b6 0C000000 		.4byte	.LVL205
ARM GAS  C:\Users\Revanth\AppData\Local\Temp\ccHsQCvB.s 			page 354


 16749 03ba 26000000 		.4byte	.LFE65
 16750 03be 0100     		.2byte	0x1
 16751 03c0 55       		.byte	0x55
 16752 03c1 00000000 		.4byte	0
 16753 03c5 00000000 		.4byte	0
 16754              	.LLST19:
 16755 03c9 00000000 		.4byte	.LVL203
 16756 03cd 0A000000 		.4byte	.LVL204
 16757 03d1 0100     		.2byte	0x1
 16758 03d3 51       		.byte	0x51
 16759 03d4 0A000000 		.4byte	.LVL204
 16760 03d8 26000000 		.4byte	.LFE65
 16761 03dc 0400     		.2byte	0x4
 16762 03de F3       		.byte	0xf3
 16763 03df 01       		.uleb128 0x1
 16764 03e0 51       		.byte	0x51
 16765 03e1 9F       		.byte	0x9f
 16766 03e2 00000000 		.4byte	0
 16767 03e6 00000000 		.4byte	0
 16768              	.LLST20:
 16769 03ea 00000000 		.4byte	.LVL209
 16770 03ee 0A000000 		.4byte	.LVL210
 16771 03f2 0100     		.2byte	0x1
 16772 03f4 50       		.byte	0x50
 16773 03f5 0A000000 		.4byte	.LVL210
 16774 03f9 88020000 		.4byte	.LFE105
 16775 03fd 0400     		.2byte	0x4
 16776 03ff F3       		.byte	0xf3
 16777 0400 01       		.uleb128 0x1
 16778 0401 50       		.byte	0x50
 16779 0402 9F       		.byte	0x9f
 16780 0403 00000000 		.4byte	0
 16781 0407 00000000 		.4byte	0
 16782              	.LLST21:
 16783 040b 00000000 		.4byte	.LVL265
 16784 040f 08000000 		.4byte	.LVL266
 16785 0413 0100     		.2byte	0x1
 16786 0415 50       		.byte	0x50
 16787 0416 08000000 		.4byte	.LVL266
 16788 041a 3C000000 		.4byte	.LFE106
 16789 041e 0400     		.2byte	0x4
 16790 0420 F3       		.byte	0xf3
 16791 0421 01       		.uleb128 0x1
 16792 0422 50       		.byte	0x50
 16793 0423 9F       		.byte	0x9f
 16794 0424 00000000 		.4byte	0
 16795 0428 00000000 		.4byte	0
 16796              	.LLST22:
 16797 042c 00000000 		.4byte	.LVL272
 16798 0430 12000000 		.4byte	.LVL274
 16799 0434 0100     		.2byte	0x1
 16800 0436 50       		.byte	0x50
 16801 0437 12000000 		.4byte	.LVL274
 16802 043b 54000000 		.4byte	.LFE107
 16803 043f 0400     		.2byte	0x4
 16804 0441 F3       		.byte	0xf3
 16805 0442 01       		.uleb128 0x1
ARM GAS  C:\Users\Revanth\AppData\Local\Temp\ccHsQCvB.s 			page 355


 16806 0443 50       		.byte	0x50
 16807 0444 9F       		.byte	0x9f
 16808 0445 00000000 		.4byte	0
 16809 0449 00000000 		.4byte	0
 16810              	.LLST23:
 16811 044d 00000000 		.4byte	.LVL281
 16812 0451 07000000 		.4byte	.LVL282-1
 16813 0455 0100     		.2byte	0x1
 16814 0457 50       		.byte	0x50
 16815 0458 07000000 		.4byte	.LVL282-1
 16816 045c 72000000 		.4byte	.LVL296
 16817 0460 0100     		.2byte	0x1
 16818 0462 54       		.byte	0x54
 16819 0463 72000000 		.4byte	.LVL296
 16820 0467 90000000 		.4byte	.LFE70
 16821 046b 0400     		.2byte	0x4
 16822 046d F3       		.byte	0xf3
 16823 046e 01       		.uleb128 0x1
 16824 046f 50       		.byte	0x50
 16825 0470 9F       		.byte	0x9f
 16826 0471 00000000 		.4byte	0
 16827 0475 00000000 		.4byte	0
 16828              	.LLST24:
 16829 0479 00000000 		.4byte	.LVL297
 16830 047d 07000000 		.4byte	.LVL299-1
 16831 0481 0100     		.2byte	0x1
 16832 0483 50       		.byte	0x50
 16833 0484 07000000 		.4byte	.LVL299-1
 16834 0488 E2000000 		.4byte	.LVL329
 16835 048c 0100     		.2byte	0x1
 16836 048e 57       		.byte	0x57
 16837 048f E2000000 		.4byte	.LVL329
 16838 0493 F8000000 		.4byte	.LFE71
 16839 0497 0400     		.2byte	0x4
 16840 0499 F3       		.byte	0xf3
 16841 049a 01       		.uleb128 0x1
 16842 049b 50       		.byte	0x50
 16843 049c 9F       		.byte	0x9f
 16844 049d 00000000 		.4byte	0
 16845 04a1 00000000 		.4byte	0
 16846              	.LLST25:
 16847 04a5 04000000 		.4byte	.LVL298
 16848 04a9 16000000 		.4byte	.LVL302
 16849 04ad 0200     		.2byte	0x2
 16850 04af 30       		.byte	0x30
 16851 04b0 9F       		.byte	0x9f
 16852 04b1 16000000 		.4byte	.LVL302
 16853 04b5 1A000000 		.4byte	.LVL303
 16854 04b9 0100     		.2byte	0x1
 16855 04bb 50       		.byte	0x50
 16856 04bc 1A000000 		.4byte	.LVL303
 16857 04c0 7C000000 		.4byte	.LVL320
 16858 04c4 0100     		.2byte	0x1
 16859 04c6 56       		.byte	0x56
 16860 04c7 00000000 		.4byte	0
 16861 04cb 00000000 		.4byte	0
 16862              	.LLST26:
ARM GAS  C:\Users\Revanth\AppData\Local\Temp\ccHsQCvB.s 			page 356


 16863 04cf 16000000 		.4byte	.LVL302
 16864 04d3 1A000000 		.4byte	.LVL303
 16865 04d7 0200     		.2byte	0x2
 16866 04d9 30       		.byte	0x30
 16867 04da 9F       		.byte	0x9f
 16868 04db 1A000000 		.4byte	.LVL303
 16869 04df 6C000000 		.4byte	.LVL317
 16870 04e3 0100     		.2byte	0x1
 16871 04e5 55       		.byte	0x55
 16872 04e6 6E000000 		.4byte	.LVL318
 16873 04ea E2000000 		.4byte	.LVL329
 16874 04ee 0100     		.2byte	0x1
 16875 04f0 55       		.byte	0x55
 16876 04f1 00000000 		.4byte	0
 16877 04f5 00000000 		.4byte	0
 16878              	.LLST27:
 16879 04f9 04000000 		.4byte	.LVL298
 16880 04fd 1A000000 		.4byte	.LVL303
 16881 0501 0200     		.2byte	0x2
 16882 0503 30       		.byte	0x30
 16883 0504 9F       		.byte	0x9f
 16884 0505 42000000 		.4byte	.LVL309
 16885 0509 4C000000 		.4byte	.LVL311
 16886 050d 0100     		.2byte	0x1
 16887 050f 50       		.byte	0x50
 16888 0510 4C000000 		.4byte	.LVL311
 16889 0514 50000000 		.4byte	.LVL312
 16890 0518 0600     		.2byte	0x6
 16891 051a 77       		.byte	0x77
 16892 051b 00       		.sleb128 0
 16893 051c 70       		.byte	0x70
 16894 051d 00       		.sleb128 0
 16895 051e 22       		.byte	0x22
 16896 051f 9F       		.byte	0x9f
 16897 0520 50000000 		.4byte	.LVL312
 16898 0524 53000000 		.4byte	.LVL313-1
 16899 0528 0100     		.2byte	0x1
 16900 052a 50       		.byte	0x50
 16901 052b 00000000 		.4byte	0
 16902 052f 00000000 		.4byte	0
 16903              	.LLST28:
 16904 0533 04000000 		.4byte	.LVL298
 16905 0537 1A000000 		.4byte	.LVL303
 16906 053b 0200     		.2byte	0x2
 16907 053d 30       		.byte	0x30
 16908 053e 9F       		.byte	0x9f
 16909 053f 24000000 		.4byte	.LVL305
 16910 0543 48000000 		.4byte	.LVL310
 16911 0547 0100     		.2byte	0x1
 16912 0549 54       		.byte	0x54
 16913 054a 7C000000 		.4byte	.LVL320
 16914 054e 90000000 		.4byte	.LVL321
 16915 0552 0100     		.2byte	0x1
 16916 0554 56       		.byte	0x56
 16917 0555 90000000 		.4byte	.LVL321
 16918 0559 AC000000 		.4byte	.LVL324
 16919 055d 0400     		.2byte	0x4
ARM GAS  C:\Users\Revanth\AppData\Local\Temp\ccHsQCvB.s 			page 357


 16920 055f 76       		.byte	0x76
 16921 0560 B170     		.sleb128 -1999
 16922 0562 9F       		.byte	0x9f
 16923 0563 00000000 		.4byte	0
 16924 0567 00000000 		.4byte	0
 16925              	.LLST29:
 16926 056b 00000000 		.4byte	.LVL330
 16927 056f 07000000 		.4byte	.LVL332-1
 16928 0573 0100     		.2byte	0x1
 16929 0575 50       		.byte	0x50
 16930 0576 07000000 		.4byte	.LVL332-1
 16931 057a D8000000 		.4byte	.LVL359
 16932 057e 0100     		.2byte	0x1
 16933 0580 57       		.byte	0x57
 16934 0581 D8000000 		.4byte	.LVL359
 16935 0585 F0000000 		.4byte	.LFE73
 16936 0589 0400     		.2byte	0x4
 16937 058b F3       		.byte	0xf3
 16938 058c 01       		.uleb128 0x1
 16939 058d 50       		.byte	0x50
 16940 058e 9F       		.byte	0x9f
 16941 058f 00000000 		.4byte	0
 16942 0593 00000000 		.4byte	0
 16943              	.LLST30:
 16944 0597 04000000 		.4byte	.LVL331
 16945 059b 1C000000 		.4byte	.LVL336
 16946 059f 0200     		.2byte	0x2
 16947 05a1 30       		.byte	0x30
 16948 05a2 9F       		.byte	0x9f
 16949 05a3 1C000000 		.4byte	.LVL336
 16950 05a7 72000000 		.4byte	.LVL349
 16951 05ab 0100     		.2byte	0x1
 16952 05ad 55       		.byte	0x55
 16953 05ae 74000000 		.4byte	.LVL350
 16954 05b2 D8000000 		.4byte	.LVL359
 16955 05b6 0100     		.2byte	0x1
 16956 05b8 55       		.byte	0x55
 16957 05b9 00000000 		.4byte	0
 16958 05bd 00000000 		.4byte	0
 16959              	.LLST31:
 16960 05c1 04000000 		.4byte	.LVL331
 16961 05c5 1C000000 		.4byte	.LVL336
 16962 05c9 0200     		.2byte	0x2
 16963 05cb 30       		.byte	0x30
 16964 05cc 9F       		.byte	0x9f
 16965 05cd 3A000000 		.4byte	.LVL341
 16966 05d1 52000000 		.4byte	.LVL343
 16967 05d5 0100     		.2byte	0x1
 16968 05d7 50       		.byte	0x50
 16969 05d8 52000000 		.4byte	.LVL343
 16970 05dc 56000000 		.4byte	.LVL344
 16971 05e0 0600     		.2byte	0x6
 16972 05e2 77       		.byte	0x77
 16973 05e3 00       		.sleb128 0
 16974 05e4 70       		.byte	0x70
 16975 05e5 00       		.sleb128 0
 16976 05e6 22       		.byte	0x22
ARM GAS  C:\Users\Revanth\AppData\Local\Temp\ccHsQCvB.s 			page 358


 16977 05e7 9F       		.byte	0x9f
 16978 05e8 56000000 		.4byte	.LVL344
 16979 05ec 59000000 		.4byte	.LVL345-1
 16980 05f0 0100     		.2byte	0x1
 16981 05f2 50       		.byte	0x50
 16982 05f3 00000000 		.4byte	0
 16983 05f7 00000000 		.4byte	0
 16984              	.LLST32:
 16985 05fb 04000000 		.4byte	.LVL331
 16986 05ff 18000000 		.4byte	.LVL335
 16987 0603 0200     		.2byte	0x2
 16988 0605 30       		.byte	0x30
 16989 0606 9F       		.byte	0x9f
 16990 0607 18000000 		.4byte	.LVL335
 16991 060b 1C000000 		.4byte	.LVL336
 16992 060f 0100     		.2byte	0x1
 16993 0611 50       		.byte	0x50
 16994 0612 1C000000 		.4byte	.LVL336
 16995 0616 D8000000 		.4byte	.LVL359
 16996 061a 0100     		.2byte	0x1
 16997 061c 56       		.byte	0x56
 16998 061d 00000000 		.4byte	0
 16999 0621 00000000 		.4byte	0
 17000              	.LLST33:
 17001 0625 04000000 		.4byte	.LVL331
 17002 0629 1C000000 		.4byte	.LVL336
 17003 062d 0200     		.2byte	0x2
 17004 062f 30       		.byte	0x30
 17005 0630 9F       		.byte	0x9f
 17006 0631 26000000 		.4byte	.LVL338
 17007 0635 4E000000 		.4byte	.LVL342
 17008 0639 0100     		.2byte	0x1
 17009 063b 54       		.byte	0x54
 17010 063c 82000000 		.4byte	.LVL352
 17011 0640 96000000 		.4byte	.LVL353
 17012 0644 0100     		.2byte	0x1
 17013 0646 50       		.byte	0x50
 17014 0647 96000000 		.4byte	.LVL353
 17015 064b A0000000 		.4byte	.LVL354
 17016 064f 0400     		.2byte	0x4
 17017 0651 70       		.byte	0x70
 17018 0652 B170     		.sleb128 -1999
 17019 0654 9F       		.byte	0x9f
 17020 0655 00000000 		.4byte	0
 17021 0659 00000000 		.4byte	0
 17022              	.LLST34:
 17023 065d 00000000 		.4byte	.LVL360
 17024 0661 07000000 		.4byte	.LVL361-1
 17025 0665 0100     		.2byte	0x1
 17026 0667 50       		.byte	0x50
 17027 0668 07000000 		.4byte	.LVL361-1
 17028 066c 70000000 		.4byte	.LVL375
 17029 0670 0100     		.2byte	0x1
 17030 0672 54       		.byte	0x54
 17031 0673 70000000 		.4byte	.LVL375
 17032 0677 8C000000 		.4byte	.LFE72
 17033 067b 0400     		.2byte	0x4
ARM GAS  C:\Users\Revanth\AppData\Local\Temp\ccHsQCvB.s 			page 359


 17034 067d F3       		.byte	0xf3
 17035 067e 01       		.uleb128 0x1
 17036 067f 50       		.byte	0x50
 17037 0680 9F       		.byte	0x9f
 17038 0681 00000000 		.4byte	0
 17039 0685 00000000 		.4byte	0
 17040              	.LLST35:
 17041 0689 00000000 		.4byte	.LVL376
 17042 068d 07000000 		.4byte	.LVL378-1
 17043 0691 0100     		.2byte	0x1
 17044 0693 50       		.byte	0x50
 17045 0694 07000000 		.4byte	.LVL378-1
 17046 0698 D8000000 		.4byte	.LVL405
 17047 069c 0100     		.2byte	0x1
 17048 069e 57       		.byte	0x57
 17049 069f D8000000 		.4byte	.LVL405
 17050 06a3 F0000000 		.4byte	.LFE75
 17051 06a7 0400     		.2byte	0x4
 17052 06a9 F3       		.byte	0xf3
 17053 06aa 01       		.uleb128 0x1
 17054 06ab 50       		.byte	0x50
 17055 06ac 9F       		.byte	0x9f
 17056 06ad 00000000 		.4byte	0
 17057 06b1 00000000 		.4byte	0
 17058              	.LLST36:
 17059 06b5 04000000 		.4byte	.LVL377
 17060 06b9 1C000000 		.4byte	.LVL382
 17061 06bd 0200     		.2byte	0x2
 17062 06bf 30       		.byte	0x30
 17063 06c0 9F       		.byte	0x9f
 17064 06c1 1C000000 		.4byte	.LVL382
 17065 06c5 72000000 		.4byte	.LVL395
 17066 06c9 0100     		.2byte	0x1
 17067 06cb 55       		.byte	0x55
 17068 06cc 74000000 		.4byte	.LVL396
 17069 06d0 D8000000 		.4byte	.LVL405
 17070 06d4 0100     		.2byte	0x1
 17071 06d6 55       		.byte	0x55
 17072 06d7 00000000 		.4byte	0
 17073 06db 00000000 		.4byte	0
 17074              	.LLST37:
 17075 06df 04000000 		.4byte	.LVL377
 17076 06e3 1C000000 		.4byte	.LVL382
 17077 06e7 0200     		.2byte	0x2
 17078 06e9 30       		.byte	0x30
 17079 06ea 9F       		.byte	0x9f
 17080 06eb 3A000000 		.4byte	.LVL387
 17081 06ef 52000000 		.4byte	.LVL389
 17082 06f3 0100     		.2byte	0x1
 17083 06f5 50       		.byte	0x50
 17084 06f6 52000000 		.4byte	.LVL389
 17085 06fa 56000000 		.4byte	.LVL390
 17086 06fe 0600     		.2byte	0x6
 17087 0700 77       		.byte	0x77
 17088 0701 00       		.sleb128 0
 17089 0702 70       		.byte	0x70
 17090 0703 00       		.sleb128 0
ARM GAS  C:\Users\Revanth\AppData\Local\Temp\ccHsQCvB.s 			page 360


 17091 0704 22       		.byte	0x22
 17092 0705 9F       		.byte	0x9f
 17093 0706 56000000 		.4byte	.LVL390
 17094 070a 59000000 		.4byte	.LVL391-1
 17095 070e 0100     		.2byte	0x1
 17096 0710 50       		.byte	0x50
 17097 0711 00000000 		.4byte	0
 17098 0715 00000000 		.4byte	0
 17099              	.LLST38:
 17100 0719 04000000 		.4byte	.LVL377
 17101 071d 18000000 		.4byte	.LVL381
 17102 0721 0200     		.2byte	0x2
 17103 0723 30       		.byte	0x30
 17104 0724 9F       		.byte	0x9f
 17105 0725 18000000 		.4byte	.LVL381
 17106 0729 1C000000 		.4byte	.LVL382
 17107 072d 0100     		.2byte	0x1
 17108 072f 50       		.byte	0x50
 17109 0730 1C000000 		.4byte	.LVL382
 17110 0734 D8000000 		.4byte	.LVL405
 17111 0738 0100     		.2byte	0x1
 17112 073a 56       		.byte	0x56
 17113 073b 00000000 		.4byte	0
 17114 073f 00000000 		.4byte	0
 17115              	.LLST39:
 17116 0743 04000000 		.4byte	.LVL377
 17117 0747 1C000000 		.4byte	.LVL382
 17118 074b 0200     		.2byte	0x2
 17119 074d 30       		.byte	0x30
 17120 074e 9F       		.byte	0x9f
 17121 074f 26000000 		.4byte	.LVL384
 17122 0753 4E000000 		.4byte	.LVL388
 17123 0757 0100     		.2byte	0x1
 17124 0759 54       		.byte	0x54
 17125 075a 82000000 		.4byte	.LVL398
 17126 075e 96000000 		.4byte	.LVL399
 17127 0762 0100     		.2byte	0x1
 17128 0764 50       		.byte	0x50
 17129 0765 96000000 		.4byte	.LVL399
 17130 0769 A0000000 		.4byte	.LVL400
 17131 076d 0400     		.2byte	0x4
 17132 076f 70       		.byte	0x70
 17133 0770 E160     		.sleb128 -3999
 17134 0772 9F       		.byte	0x9f
 17135 0773 00000000 		.4byte	0
 17136 0777 00000000 		.4byte	0
 17137              	.LLST40:
 17138 077b 00000000 		.4byte	.LVL406
 17139 077f 0C000000 		.4byte	.LVL407
 17140 0783 0100     		.2byte	0x1
 17141 0785 50       		.byte	0x50
 17142 0786 0C000000 		.4byte	.LVL407
 17143 078a 84000000 		.4byte	.LVL424
 17144 078e 0100     		.2byte	0x1
 17145 0790 55       		.byte	0x55
 17146 0791 84000000 		.4byte	.LVL424
 17147 0795 9C000000 		.4byte	.LFE74
ARM GAS  C:\Users\Revanth\AppData\Local\Temp\ccHsQCvB.s 			page 361


 17148 0799 0400     		.2byte	0x4
 17149 079b F3       		.byte	0xf3
 17150 079c 01       		.uleb128 0x1
 17151 079d 50       		.byte	0x50
 17152 079e 9F       		.byte	0x9f
 17153 079f 00000000 		.4byte	0
 17154 07a3 00000000 		.4byte	0
 17155              	.LLST41:
 17156 07a7 00000000 		.4byte	.LVL425
 17157 07ab 07000000 		.4byte	.LVL427-1
 17158 07af 0100     		.2byte	0x1
 17159 07b1 50       		.byte	0x50
 17160 07b2 07000000 		.4byte	.LVL427-1
 17161 07b6 D2000000 		.4byte	.LVL453
 17162 07ba 0100     		.2byte	0x1
 17163 07bc 57       		.byte	0x57
 17164 07bd D2000000 		.4byte	.LVL453
 17165 07c1 F0000000 		.4byte	.LFE77
 17166 07c5 0400     		.2byte	0x4
 17167 07c7 F3       		.byte	0xf3
 17168 07c8 01       		.uleb128 0x1
 17169 07c9 50       		.byte	0x50
 17170 07ca 9F       		.byte	0x9f
 17171 07cb 00000000 		.4byte	0
 17172 07cf 00000000 		.4byte	0
 17173              	.LLST42:
 17174 07d3 04000000 		.4byte	.LVL426
 17175 07d7 1C000000 		.4byte	.LVL431
 17176 07db 0200     		.2byte	0x2
 17177 07dd 30       		.byte	0x30
 17178 07de 9F       		.byte	0x9f
 17179 07df 1C000000 		.4byte	.LVL431
 17180 07e3 72000000 		.4byte	.LVL444
 17181 07e7 0100     		.2byte	0x1
 17182 07e9 55       		.byte	0x55
 17183 07ea 74000000 		.4byte	.LVL445
 17184 07ee D2000000 		.4byte	.LVL453
 17185 07f2 0100     		.2byte	0x1
 17186 07f4 55       		.byte	0x55
 17187 07f5 00000000 		.4byte	0
 17188 07f9 00000000 		.4byte	0
 17189              	.LLST43:
 17190 07fd 04000000 		.4byte	.LVL426
 17191 0801 1C000000 		.4byte	.LVL431
 17192 0805 0200     		.2byte	0x2
 17193 0807 30       		.byte	0x30
 17194 0808 9F       		.byte	0x9f
 17195 0809 3A000000 		.4byte	.LVL436
 17196 080d 52000000 		.4byte	.LVL438
 17197 0811 0100     		.2byte	0x1
 17198 0813 50       		.byte	0x50
 17199 0814 52000000 		.4byte	.LVL438
 17200 0818 56000000 		.4byte	.LVL439
 17201 081c 0600     		.2byte	0x6
 17202 081e 77       		.byte	0x77
 17203 081f 00       		.sleb128 0
 17204 0820 70       		.byte	0x70
ARM GAS  C:\Users\Revanth\AppData\Local\Temp\ccHsQCvB.s 			page 362


 17205 0821 00       		.sleb128 0
 17206 0822 22       		.byte	0x22
 17207 0823 9F       		.byte	0x9f
 17208 0824 56000000 		.4byte	.LVL439
 17209 0828 59000000 		.4byte	.LVL440-1
 17210 082c 0100     		.2byte	0x1
 17211 082e 50       		.byte	0x50
 17212 082f 00000000 		.4byte	0
 17213 0833 00000000 		.4byte	0
 17214              	.LLST44:
 17215 0837 04000000 		.4byte	.LVL426
 17216 083b 18000000 		.4byte	.LVL430
 17217 083f 0200     		.2byte	0x2
 17218 0841 30       		.byte	0x30
 17219 0842 9F       		.byte	0x9f
 17220 0843 18000000 		.4byte	.LVL430
 17221 0847 1C000000 		.4byte	.LVL431
 17222 084b 0100     		.2byte	0x1
 17223 084d 50       		.byte	0x50
 17224 084e 1C000000 		.4byte	.LVL431
 17225 0852 D2000000 		.4byte	.LVL453
 17226 0856 0100     		.2byte	0x1
 17227 0858 56       		.byte	0x56
 17228 0859 00000000 		.4byte	0
 17229 085d 00000000 		.4byte	0
 17230              	.LLST45:
 17231 0861 04000000 		.4byte	.LVL426
 17232 0865 1C000000 		.4byte	.LVL431
 17233 0869 0200     		.2byte	0x2
 17234 086b 30       		.byte	0x30
 17235 086c 9F       		.byte	0x9f
 17236 086d 26000000 		.4byte	.LVL433
 17237 0871 4E000000 		.4byte	.LVL437
 17238 0875 0100     		.2byte	0x1
 17239 0877 54       		.byte	0x54
 17240 0878 82000000 		.4byte	.LVL447
 17241 087c 96000000 		.4byte	.LVL448
 17242 0880 0100     		.2byte	0x1
 17243 0882 50       		.byte	0x50
 17244 0883 96000000 		.4byte	.LVL448
 17245 0887 A0000000 		.4byte	.LVL449
 17246 088b 0400     		.2byte	0x4
 17247 088d 70       		.byte	0x70
 17248 088e E160     		.sleb128 -3999
 17249 0890 9F       		.byte	0x9f
 17250 0891 00000000 		.4byte	0
 17251 0895 00000000 		.4byte	0
 17252              	.LLST46:
 17253 0899 00000000 		.4byte	.LVL454
 17254 089d 06000000 		.4byte	.LVL455
 17255 08a1 0100     		.2byte	0x1
 17256 08a3 50       		.byte	0x50
 17257 08a4 06000000 		.4byte	.LVL455
 17258 08a8 76000000 		.4byte	.LVL473
 17259 08ac 0100     		.2byte	0x1
 17260 08ae 54       		.byte	0x54
 17261 08af 76000000 		.4byte	.LVL473
ARM GAS  C:\Users\Revanth\AppData\Local\Temp\ccHsQCvB.s 			page 363


 17262 08b3 9C000000 		.4byte	.LFE76
 17263 08b7 0400     		.2byte	0x4
 17264 08b9 F3       		.byte	0xf3
 17265 08ba 01       		.uleb128 0x1
 17266 08bb 50       		.byte	0x50
 17267 08bc 9F       		.byte	0x9f
 17268 08bd 00000000 		.4byte	0
 17269 08c1 00000000 		.4byte	0
 17270              	.LLST47:
 17271 08c5 00000000 		.4byte	.LVL476
 17272 08c9 0B000000 		.4byte	.LVL477-1
 17273 08cd 0100     		.2byte	0x1
 17274 08cf 50       		.byte	0x50
 17275 08d0 0B000000 		.4byte	.LVL477-1
 17276 08d4 94000000 		.4byte	.LVL492
 17277 08d8 0100     		.2byte	0x1
 17278 08da 56       		.byte	0x56
 17279 08db 94000000 		.4byte	.LVL492
 17280 08df 9C000000 		.4byte	.LFE78
 17281 08e3 0400     		.2byte	0x4
 17282 08e5 F3       		.byte	0xf3
 17283 08e6 01       		.uleb128 0x1
 17284 08e7 50       		.byte	0x50
 17285 08e8 9F       		.byte	0x9f
 17286 08e9 00000000 		.4byte	0
 17287 08ed 00000000 		.4byte	0
 17288              	.LLST48:
 17289 08f1 00000000 		.4byte	.LVL476
 17290 08f5 0B000000 		.4byte	.LVL477-1
 17291 08f9 0100     		.2byte	0x1
 17292 08fb 51       		.byte	0x51
 17293 08fc 0B000000 		.4byte	.LVL477-1
 17294 0900 94000000 		.4byte	.LVL492
 17295 0904 0100     		.2byte	0x1
 17296 0906 55       		.byte	0x55
 17297 0907 94000000 		.4byte	.LVL492
 17298 090b 9C000000 		.4byte	.LFE78
 17299 090f 0400     		.2byte	0x4
 17300 0911 F3       		.byte	0xf3
 17301 0912 01       		.uleb128 0x1
 17302 0913 51       		.byte	0x51
 17303 0914 9F       		.byte	0x9f
 17304 0915 00000000 		.4byte	0
 17305 0919 00000000 		.4byte	0
 17306              	.LLST49:
 17307 091d 00000000 		.4byte	.LVL476
 17308 0921 0B000000 		.4byte	.LVL477-1
 17309 0925 0100     		.2byte	0x1
 17310 0927 52       		.byte	0x52
 17311 0928 0B000000 		.4byte	.LVL477-1
 17312 092c 94000000 		.4byte	.LVL492
 17313 0930 0100     		.2byte	0x1
 17314 0932 54       		.byte	0x54
 17315 0933 94000000 		.4byte	.LVL492
 17316 0937 9C000000 		.4byte	.LFE78
 17317 093b 0400     		.2byte	0x4
 17318 093d F3       		.byte	0xf3
ARM GAS  C:\Users\Revanth\AppData\Local\Temp\ccHsQCvB.s 			page 364


 17319 093e 01       		.uleb128 0x1
 17320 093f 52       		.byte	0x52
 17321 0940 9F       		.byte	0x9f
 17322 0941 00000000 		.4byte	0
 17323 0945 00000000 		.4byte	0
 17324              	.LLST50:
 17325 0949 00000000 		.4byte	.LVL493
 17326 094d 08000000 		.4byte	.LVL495
 17327 0951 0100     		.2byte	0x1
 17328 0953 50       		.byte	0x50
 17329 0954 08000000 		.4byte	.LVL495
 17330 0958 0B000000 		.4byte	.LVL496-1
 17331 095c 0100     		.2byte	0x1
 17332 095e 51       		.byte	0x51
 17333 095f 0B000000 		.4byte	.LVL496-1
 17334 0963 10000000 		.4byte	.LFE108
 17335 0967 0400     		.2byte	0x4
 17336 0969 F3       		.byte	0xf3
 17337 096a 01       		.uleb128 0x1
 17338 096b 50       		.byte	0x50
 17339 096c 9F       		.byte	0x9f
 17340 096d 00000000 		.4byte	0
 17341 0971 00000000 		.4byte	0
 17342              	.LLST51:
 17343 0975 00000000 		.4byte	.LVL493
 17344 0979 06000000 		.4byte	.LVL494
 17345 097d 0100     		.2byte	0x1
 17346 097f 51       		.byte	0x51
 17347 0980 06000000 		.4byte	.LVL494
 17348 0984 10000000 		.4byte	.LFE108
 17349 0988 0400     		.2byte	0x4
 17350 098a F3       		.byte	0xf3
 17351 098b 01       		.uleb128 0x1
 17352 098c 51       		.byte	0x51
 17353 098d 9F       		.byte	0x9f
 17354 098e 00000000 		.4byte	0
 17355 0992 00000000 		.4byte	0
 17356              	.LLST52:
 17357 0996 00000000 		.4byte	.LVL497
 17358 099a 0C000000 		.4byte	.LVL498
 17359 099e 0100     		.2byte	0x1
 17360 09a0 50       		.byte	0x50
 17361 09a1 0C000000 		.4byte	.LVL498
 17362 09a5 7C010000 		.4byte	.LFE66
 17363 09a9 0400     		.2byte	0x4
 17364 09ab F3       		.byte	0xf3
 17365 09ac 01       		.uleb128 0x1
 17366 09ad 50       		.byte	0x50
 17367 09ae 9F       		.byte	0x9f
 17368 09af 00000000 		.4byte	0
 17369 09b3 00000000 		.4byte	0
 17370              	.LLST53:
 17371 09b7 00000000 		.4byte	.LVL529
 17372 09bb 0C000000 		.4byte	.LVL530
 17373 09bf 0100     		.2byte	0x1
 17374 09c1 50       		.byte	0x50
 17375 09c2 0C000000 		.4byte	.LVL530
ARM GAS  C:\Users\Revanth\AppData\Local\Temp\ccHsQCvB.s 			page 365


 17376 09c6 7C010000 		.4byte	.LFE67
 17377 09ca 0400     		.2byte	0x4
 17378 09cc F3       		.byte	0xf3
 17379 09cd 01       		.uleb128 0x1
 17380 09ce 50       		.byte	0x50
 17381 09cf 9F       		.byte	0x9f
 17382 09d0 00000000 		.4byte	0
 17383 09d4 00000000 		.4byte	0
 17384              	.LLST54:
 17385 09d8 00000000 		.4byte	.LVL561
 17386 09dc 0A000000 		.4byte	.LVL562
 17387 09e0 0100     		.2byte	0x1
 17388 09e2 50       		.byte	0x50
 17389 09e3 0A000000 		.4byte	.LVL562
 17390 09e7 74010000 		.4byte	.LFE68
 17391 09eb 0400     		.2byte	0x4
 17392 09ed F3       		.byte	0xf3
 17393 09ee 01       		.uleb128 0x1
 17394 09ef 50       		.byte	0x50
 17395 09f0 9F       		.byte	0x9f
 17396 09f1 00000000 		.4byte	0
 17397 09f5 00000000 		.4byte	0
 17398              	.LLST55:
 17399 09f9 00000000 		.4byte	.LVL593
 17400 09fd 08000000 		.4byte	.LVL594
 17401 0a01 0100     		.2byte	0x1
 17402 0a03 50       		.byte	0x50
 17403 0a04 08000000 		.4byte	.LVL594
 17404 0a08 84010000 		.4byte	.LFE69
 17405 0a0c 0400     		.2byte	0x4
 17406 0a0e F3       		.byte	0xf3
 17407 0a0f 01       		.uleb128 0x1
 17408 0a10 50       		.byte	0x50
 17409 0a11 9F       		.byte	0x9f
 17410 0a12 00000000 		.4byte	0
 17411 0a16 00000000 		.4byte	0
 17412              	.LLST56:
 17413 0a1a 00000000 		.4byte	.LVL628
 17414 0a1e 08000000 		.4byte	.LVL630
 17415 0a22 0100     		.2byte	0x1
 17416 0a24 50       		.byte	0x50
 17417 0a25 08000000 		.4byte	.LVL630
 17418 0a29 0B000000 		.4byte	.LVL631-1
 17419 0a2d 0100     		.2byte	0x1
 17420 0a2f 51       		.byte	0x51
 17421 0a30 0B000000 		.4byte	.LVL631-1
 17422 0a34 10000000 		.4byte	.LFE109
 17423 0a38 0400     		.2byte	0x4
 17424 0a3a F3       		.byte	0xf3
 17425 0a3b 01       		.uleb128 0x1
 17426 0a3c 50       		.byte	0x50
 17427 0a3d 9F       		.byte	0x9f
 17428 0a3e 00000000 		.4byte	0
 17429 0a42 00000000 		.4byte	0
 17430              	.LLST57:
 17431 0a46 00000000 		.4byte	.LVL628
 17432 0a4a 06000000 		.4byte	.LVL629
ARM GAS  C:\Users\Revanth\AppData\Local\Temp\ccHsQCvB.s 			page 366


 17433 0a4e 0100     		.2byte	0x1
 17434 0a50 51       		.byte	0x51
 17435 0a51 06000000 		.4byte	.LVL629
 17436 0a55 10000000 		.4byte	.LFE109
 17437 0a59 0400     		.2byte	0x4
 17438 0a5b F3       		.byte	0xf3
 17439 0a5c 01       		.uleb128 0x1
 17440 0a5d 51       		.byte	0x51
 17441 0a5e 9F       		.byte	0x9f
 17442 0a5f 00000000 		.4byte	0
 17443 0a63 00000000 		.4byte	0
 17444              	.LLST58:
 17445 0a67 00000000 		.4byte	.LVL632
 17446 0a6b 0C000000 		.4byte	.LVL634
 17447 0a6f 0100     		.2byte	0x1
 17448 0a71 50       		.byte	0x50
 17449 0a72 0C000000 		.4byte	.LVL634
 17450 0a76 52000000 		.4byte	.LVL644
 17451 0a7a 0100     		.2byte	0x1
 17452 0a7c 55       		.byte	0x55
 17453 0a7d 52000000 		.4byte	.LVL644
 17454 0a81 56000000 		.4byte	.LVL645
 17455 0a85 0400     		.2byte	0x4
 17456 0a87 75       		.byte	0x75
 17457 0a88 00       		.sleb128 0
 17458 0a89 1F       		.byte	0x1f
 17459 0a8a 9F       		.byte	0x9f
 17460 0a8b 56000000 		.4byte	.LVL645
 17461 0a8f 59000000 		.4byte	.LVL646-1
 17462 0a93 0100     		.2byte	0x1
 17463 0a95 50       		.byte	0x50
 17464 0a96 59000000 		.4byte	.LVL646-1
 17465 0a9a 60000000 		.4byte	.LVL647
 17466 0a9e 0400     		.2byte	0x4
 17467 0aa0 75       		.byte	0x75
 17468 0aa1 00       		.sleb128 0
 17469 0aa2 1F       		.byte	0x1f
 17470 0aa3 9F       		.byte	0x9f
 17471 0aa4 60000000 		.4byte	.LVL647
 17472 0aa8 90000000 		.4byte	.LFE110
 17473 0aac 0200     		.2byte	0x2
 17474 0aae 30       		.byte	0x30
 17475 0aaf 9F       		.byte	0x9f
 17476 0ab0 00000000 		.4byte	0
 17477 0ab4 00000000 		.4byte	0
 17478              	.LLST59:
 17479 0ab8 00000000 		.4byte	.LVL632
 17480 0abc 0A000000 		.4byte	.LVL633
 17481 0ac0 0100     		.2byte	0x1
 17482 0ac2 51       		.byte	0x51
 17483 0ac3 0A000000 		.4byte	.LVL633
 17484 0ac7 3C000000 		.4byte	.LVL641
 17485 0acb 0400     		.2byte	0x4
 17486 0acd F3       		.byte	0xf3
 17487 0ace 01       		.uleb128 0x1
 17488 0acf 51       		.byte	0x51
 17489 0ad0 9F       		.byte	0x9f
ARM GAS  C:\Users\Revanth\AppData\Local\Temp\ccHsQCvB.s 			page 367


 17490 0ad1 3C000000 		.4byte	.LVL641
 17491 0ad5 8C000000 		.4byte	.LVL653
 17492 0ad9 0100     		.2byte	0x1
 17493 0adb 54       		.byte	0x54
 17494 0adc 00000000 		.4byte	0
 17495 0ae0 00000000 		.4byte	0
 17496              	.LLST60:
 17497 0ae4 00000000 		.4byte	.LVL654
 17498 0ae8 0E000000 		.4byte	.LVL657
 17499 0aec 0100     		.2byte	0x1
 17500 0aee 50       		.byte	0x50
 17501 0aef 0E000000 		.4byte	.LVL657
 17502 0af3 46000000 		.4byte	.LVL665
 17503 0af7 0100     		.2byte	0x1
 17504 0af9 56       		.byte	0x56
 17505 0afa 46000000 		.4byte	.LVL665
 17506 0afe 4A000000 		.4byte	.LVL666
 17507 0b02 0400     		.2byte	0x4
 17508 0b04 76       		.byte	0x76
 17509 0b05 00       		.sleb128 0
 17510 0b06 1F       		.byte	0x1f
 17511 0b07 9F       		.byte	0x9f
 17512 0b08 4A000000 		.4byte	.LVL666
 17513 0b0c 4D000000 		.4byte	.LVL667-1
 17514 0b10 0100     		.2byte	0x1
 17515 0b12 50       		.byte	0x50
 17516 0b13 4D000000 		.4byte	.LVL667-1
 17517 0b17 54000000 		.4byte	.LVL668
 17518 0b1b 0400     		.2byte	0x4
 17519 0b1d 76       		.byte	0x76
 17520 0b1e 00       		.sleb128 0
 17521 0b1f 1F       		.byte	0x1f
 17522 0b20 9F       		.byte	0x9f
 17523 0b21 00000000 		.4byte	0
 17524 0b25 00000000 		.4byte	0
 17525              	.LLST61:
 17526 0b29 00000000 		.4byte	.LVL654
 17527 0b2d 0C000000 		.4byte	.LVL656
 17528 0b31 0100     		.2byte	0x1
 17529 0b33 51       		.byte	0x51
 17530 0b34 0C000000 		.4byte	.LVL656
 17531 0b38 80000000 		.4byte	.LFE111
 17532 0b3c 0100     		.2byte	0x1
 17533 0b3e 55       		.byte	0x55
 17534 0b3f 00000000 		.4byte	0
 17535 0b43 00000000 		.4byte	0
 17536              	.LLST62:
 17537 0b47 00000000 		.4byte	.LVL654
 17538 0b4b 0A000000 		.4byte	.LVL655
 17539 0b4f 0100     		.2byte	0x1
 17540 0b51 52       		.byte	0x52
 17541 0b52 0A000000 		.4byte	.LVL655
 17542 0b56 80000000 		.4byte	.LFE111
 17543 0b5a 0400     		.2byte	0x4
 17544 0b5c F3       		.byte	0xf3
 17545 0b5d 01       		.uleb128 0x1
 17546 0b5e 52       		.byte	0x52
ARM GAS  C:\Users\Revanth\AppData\Local\Temp\ccHsQCvB.s 			page 368


 17547 0b5f 9F       		.byte	0x9f
 17548 0b60 00000000 		.4byte	0
 17549 0b64 00000000 		.4byte	0
 17550              	.LLST63:
 17551 0b68 52020000 		.4byte	.LVL725
 17552 0b6c 68020000 		.4byte	.LVL726
 17553 0b70 0200     		.2byte	0x2
 17554 0b72 30       		.byte	0x30
 17555 0b73 9F       		.byte	0x9f
 17556 0b74 68020000 		.4byte	.LVL726
 17557 0b78 90020000 		.4byte	.LVL731
 17558 0b7c 0100     		.2byte	0x1
 17559 0b7e 54       		.byte	0x54
 17560 0b7f 00000000 		.4byte	0
 17561 0b83 00000000 		.4byte	0
 17562              	.LLST64:
 17563 0b87 52020000 		.4byte	.LVL725
 17564 0b8b 7C020000 		.4byte	.LVL728
 17565 0b8f 0200     		.2byte	0x2
 17566 0b91 30       		.byte	0x30
 17567 0b92 9F       		.byte	0x9f
 17568 0b93 7C020000 		.4byte	.LVL728
 17569 0b97 85020000 		.4byte	.LVL729-1
 17570 0b9b 0500     		.2byte	0x5
 17571 0b9d 03       		.byte	0x3
 17572 0b9e 06000000 		.4byte	USB_received+6
 17573 0ba2 00000000 		.4byte	0
 17574 0ba6 00000000 		.4byte	0
 17575              	.LLST65:
 17576 0baa F8030000 		.4byte	.LVL754
 17577 0bae FC030000 		.4byte	.LVL755
 17578 0bb2 0200     		.2byte	0x2
 17579 0bb4 30       		.byte	0x30
 17580 0bb5 9F       		.byte	0x9f
 17581 0bb6 FC030000 		.4byte	.LVL755
 17582 0bba 1C040000 		.4byte	.LVL760
 17583 0bbe 0100     		.2byte	0x1
 17584 0bc0 54       		.byte	0x54
 17585 0bc1 00000000 		.4byte	0
 17586 0bc5 00000000 		.4byte	0
 17587              		.section	.debug_aranges,"",%progbits
 17588 0000 94010000 		.4byte	0x194
 17589 0004 0200     		.2byte	0x2
 17590 0006 00000000 		.4byte	.Ldebug_info0
 17591 000a 04       		.byte	0x4
 17592 000b 00       		.byte	0
 17593 000c 0000     		.2byte	0
 17594 000e 0000     		.2byte	0
 17595 0010 00000000 		.4byte	.LFB64
 17596 0014 24000000 		.4byte	.LFE64-.LFB64
 17597 0018 00000000 		.4byte	.LFB80
 17598 001c 50000000 		.4byte	.LFE80-.LFB80
 17599 0020 00000000 		.4byte	.LFB86
 17600 0024 08000000 		.4byte	.LFE86-.LFB86
 17601 0028 00000000 		.4byte	.LFB88
 17602 002c 18000000 		.4byte	.LFE88-.LFB88
 17603 0030 00000000 		.4byte	.LFB89
ARM GAS  C:\Users\Revanth\AppData\Local\Temp\ccHsQCvB.s 			page 369


 17604 0034 18000000 		.4byte	.LFE89-.LFB89
 17605 0038 00000000 		.4byte	.LFB87
 17606 003c 2C000000 		.4byte	.LFE87-.LFB87
 17607 0040 00000000 		.4byte	.LFB90
 17608 0044 40000000 		.4byte	.LFE90-.LFB90
 17609 0048 00000000 		.4byte	.LFB93
 17610 004c 02000000 		.4byte	.LFE93-.LFB93
 17611 0050 00000000 		.4byte	.LFB96
 17612 0054 18000000 		.4byte	.LFE96-.LFB96
 17613 0058 00000000 		.4byte	.LFB97
 17614 005c 18000000 		.4byte	.LFE97-.LFB97
 17615 0060 00000000 		.4byte	.LFB98
 17616 0064 2C000000 		.4byte	.LFE98-.LFB98
 17617 0068 00000000 		.4byte	.LFB83
 17618 006c 24000000 		.4byte	.LFE83-.LFB83
 17619 0070 00000000 		.4byte	.LFB84
 17620 0074 40000000 		.4byte	.LFE84-.LFB84
 17621 0078 00000000 		.4byte	.LFB85
 17622 007c 2C000000 		.4byte	.LFE85-.LFB85
 17623 0080 00000000 		.4byte	.LFB92
 17624 0084 E4020000 		.4byte	.LFE92-.LFB92
 17625 0088 00000000 		.4byte	.LFB94
 17626 008c 38000000 		.4byte	.LFE94-.LFB94
 17627 0090 00000000 		.4byte	.LFB99
 17628 0094 24000000 		.4byte	.LFE99-.LFB99
 17629 0098 00000000 		.4byte	.LFB81
 17630 009c 70000000 		.4byte	.LFE81-.LFB81
 17631 00a0 00000000 		.4byte	.LFB82
 17632 00a4 70000000 		.4byte	.LFE82-.LFB82
 17633 00a8 00000000 		.4byte	.LFB100
 17634 00ac 24000000 		.4byte	.LFE100-.LFB100
 17635 00b0 00000000 		.4byte	.LFB79
 17636 00b4 7C000000 		.4byte	.LFE79-.LFB79
 17637 00b8 00000000 		.4byte	.LFB95
 17638 00bc 40000000 		.4byte	.LFE95-.LFB95
 17639 00c0 00000000 		.4byte	.LFB101
 17640 00c4 10000000 		.4byte	.LFE101-.LFB101
 17641 00c8 00000000 		.4byte	.LFB102
 17642 00cc 98000000 		.4byte	.LFE102-.LFB102
 17643 00d0 00000000 		.4byte	.LFB103
 17644 00d4 EC000000 		.4byte	.LFE103-.LFB103
 17645 00d8 00000000 		.4byte	.LFB104
 17646 00dc 3E000000 		.4byte	.LFE104-.LFB104
 17647 00e0 00000000 		.4byte	.LFB65
 17648 00e4 26000000 		.4byte	.LFE65-.LFB65
 17649 00e8 00000000 		.4byte	.LFB105
 17650 00ec 88020000 		.4byte	.LFE105-.LFB105
 17651 00f0 00000000 		.4byte	.LFB106
 17652 00f4 3C000000 		.4byte	.LFE106-.LFB106
 17653 00f8 00000000 		.4byte	.LFB107
 17654 00fc 54000000 		.4byte	.LFE107-.LFB107
 17655 0100 00000000 		.4byte	.LFB70
 17656 0104 90000000 		.4byte	.LFE70-.LFB70
 17657 0108 00000000 		.4byte	.LFB71
 17658 010c F8000000 		.4byte	.LFE71-.LFB71
 17659 0110 00000000 		.4byte	.LFB73
 17660 0114 F0000000 		.4byte	.LFE73-.LFB73
ARM GAS  C:\Users\Revanth\AppData\Local\Temp\ccHsQCvB.s 			page 370


 17661 0118 00000000 		.4byte	.LFB72
 17662 011c 8C000000 		.4byte	.LFE72-.LFB72
 17663 0120 00000000 		.4byte	.LFB75
 17664 0124 F0000000 		.4byte	.LFE75-.LFB75
 17665 0128 00000000 		.4byte	.LFB74
 17666 012c 9C000000 		.4byte	.LFE74-.LFB74
 17667 0130 00000000 		.4byte	.LFB77
 17668 0134 F0000000 		.4byte	.LFE77-.LFB77
 17669 0138 00000000 		.4byte	.LFB76
 17670 013c 9C000000 		.4byte	.LFE76-.LFB76
 17671 0140 00000000 		.4byte	.LFB78
 17672 0144 9C000000 		.4byte	.LFE78-.LFB78
 17673 0148 00000000 		.4byte	.LFB108
 17674 014c 10000000 		.4byte	.LFE108-.LFB108
 17675 0150 00000000 		.4byte	.LFB66
 17676 0154 7C010000 		.4byte	.LFE66-.LFB66
 17677 0158 00000000 		.4byte	.LFB67
 17678 015c 7C010000 		.4byte	.LFE67-.LFB67
 17679 0160 00000000 		.4byte	.LFB68
 17680 0164 74010000 		.4byte	.LFE68-.LFB68
 17681 0168 00000000 		.4byte	.LFB69
 17682 016c 84010000 		.4byte	.LFE69-.LFB69
 17683 0170 00000000 		.4byte	.LFB109
 17684 0174 10000000 		.4byte	.LFE109-.LFB109
 17685 0178 00000000 		.4byte	.LFB110
 17686 017c 90000000 		.4byte	.LFE110-.LFB110
 17687 0180 00000000 		.4byte	.LFB111
 17688 0184 80000000 		.4byte	.LFE111-.LFB111
 17689 0188 00000000 		.4byte	.LFB91
 17690 018c 84070000 		.4byte	.LFE91-.LFB91
 17691 0190 00000000 		.4byte	0
 17692 0194 00000000 		.4byte	0
 17693              		.section	.debug_ranges,"",%progbits
 17694              	.Ldebug_ranges0:
 17695 0000 00000000 		.4byte	.LFB64
 17696 0004 24000000 		.4byte	.LFE64
 17697 0008 00000000 		.4byte	.LFB80
 17698 000c 50000000 		.4byte	.LFE80
 17699 0010 00000000 		.4byte	.LFB86
 17700 0014 08000000 		.4byte	.LFE86
 17701 0018 00000000 		.4byte	.LFB88
 17702 001c 18000000 		.4byte	.LFE88
 17703 0020 00000000 		.4byte	.LFB89
 17704 0024 18000000 		.4byte	.LFE89
 17705 0028 00000000 		.4byte	.LFB87
 17706 002c 2C000000 		.4byte	.LFE87
 17707 0030 00000000 		.4byte	.LFB90
 17708 0034 40000000 		.4byte	.LFE90
 17709 0038 00000000 		.4byte	.LFB93
 17710 003c 02000000 		.4byte	.LFE93
 17711 0040 00000000 		.4byte	.LFB96
 17712 0044 18000000 		.4byte	.LFE96
 17713 0048 00000000 		.4byte	.LFB97
 17714 004c 18000000 		.4byte	.LFE97
 17715 0050 00000000 		.4byte	.LFB98
 17716 0054 2C000000 		.4byte	.LFE98
 17717 0058 00000000 		.4byte	.LFB83
ARM GAS  C:\Users\Revanth\AppData\Local\Temp\ccHsQCvB.s 			page 371


 17718 005c 24000000 		.4byte	.LFE83
 17719 0060 00000000 		.4byte	.LFB84
 17720 0064 40000000 		.4byte	.LFE84
 17721 0068 00000000 		.4byte	.LFB85
 17722 006c 2C000000 		.4byte	.LFE85
 17723 0070 00000000 		.4byte	.LFB92
 17724 0074 E4020000 		.4byte	.LFE92
 17725 0078 00000000 		.4byte	.LFB94
 17726 007c 38000000 		.4byte	.LFE94
 17727 0080 00000000 		.4byte	.LFB99
 17728 0084 24000000 		.4byte	.LFE99
 17729 0088 00000000 		.4byte	.LFB81
 17730 008c 70000000 		.4byte	.LFE81
 17731 0090 00000000 		.4byte	.LFB82
 17732 0094 70000000 		.4byte	.LFE82
 17733 0098 00000000 		.4byte	.LFB100
 17734 009c 24000000 		.4byte	.LFE100
 17735 00a0 00000000 		.4byte	.LFB79
 17736 00a4 7C000000 		.4byte	.LFE79
 17737 00a8 00000000 		.4byte	.LFB95
 17738 00ac 40000000 		.4byte	.LFE95
 17739 00b0 00000000 		.4byte	.LFB101
 17740 00b4 10000000 		.4byte	.LFE101
 17741 00b8 00000000 		.4byte	.LFB102
 17742 00bc 98000000 		.4byte	.LFE102
 17743 00c0 00000000 		.4byte	.LFB103
 17744 00c4 EC000000 		.4byte	.LFE103
 17745 00c8 00000000 		.4byte	.LFB104
 17746 00cc 3E000000 		.4byte	.LFE104
 17747 00d0 00000000 		.4byte	.LFB65
 17748 00d4 26000000 		.4byte	.LFE65
 17749 00d8 00000000 		.4byte	.LFB105
 17750 00dc 88020000 		.4byte	.LFE105
 17751 00e0 00000000 		.4byte	.LFB106
 17752 00e4 3C000000 		.4byte	.LFE106
 17753 00e8 00000000 		.4byte	.LFB107
 17754 00ec 54000000 		.4byte	.LFE107
 17755 00f0 00000000 		.4byte	.LFB70
 17756 00f4 90000000 		.4byte	.LFE70
 17757 00f8 00000000 		.4byte	.LFB71
 17758 00fc F8000000 		.4byte	.LFE71
 17759 0100 00000000 		.4byte	.LFB73
 17760 0104 F0000000 		.4byte	.LFE73
 17761 0108 00000000 		.4byte	.LFB72
 17762 010c 8C000000 		.4byte	.LFE72
 17763 0110 00000000 		.4byte	.LFB75
 17764 0114 F0000000 		.4byte	.LFE75
 17765 0118 00000000 		.4byte	.LFB74
 17766 011c 9C000000 		.4byte	.LFE74
 17767 0120 00000000 		.4byte	.LFB77
 17768 0124 F0000000 		.4byte	.LFE77
 17769 0128 00000000 		.4byte	.LFB76
 17770 012c 9C000000 		.4byte	.LFE76
 17771 0130 00000000 		.4byte	.LFB78
 17772 0134 9C000000 		.4byte	.LFE78
 17773 0138 00000000 		.4byte	.LFB108
 17774 013c 10000000 		.4byte	.LFE108
ARM GAS  C:\Users\Revanth\AppData\Local\Temp\ccHsQCvB.s 			page 372


 17775 0140 00000000 		.4byte	.LFB66
 17776 0144 7C010000 		.4byte	.LFE66
 17777 0148 00000000 		.4byte	.LFB67
 17778 014c 7C010000 		.4byte	.LFE67
 17779 0150 00000000 		.4byte	.LFB68
 17780 0154 74010000 		.4byte	.LFE68
 17781 0158 00000000 		.4byte	.LFB69
 17782 015c 84010000 		.4byte	.LFE69
 17783 0160 00000000 		.4byte	.LFB109
 17784 0164 10000000 		.4byte	.LFE109
 17785 0168 00000000 		.4byte	.LFB110
 17786 016c 90000000 		.4byte	.LFE110
 17787 0170 00000000 		.4byte	.LFB111
 17788 0174 80000000 		.4byte	.LFE111
 17789 0178 00000000 		.4byte	.LFB91
 17790 017c 84070000 		.4byte	.LFE91
 17791 0180 00000000 		.4byte	0
 17792 0184 00000000 		.4byte	0
 17793              		.section	.debug_line,"",%progbits
 17794              	.Ldebug_line0:
 17795 0000 490B0000 		.section	.debug_str,"MS",%progbits,1
 17795      02007403 
 17795      00000201 
 17795      FB0E0D00 
 17795      01010101 
 17796              	.LASF182:
 17797 0000 77616974 		.ascii	"wait_interrupt_StartEx\000"
 17797      5F696E74 
 17797      65727275 
 17797      70745F53 
 17797      74617274 
 17798              	.LASF106:
 17799 0017 636F756E 		.ascii	"count\000"
 17799      7400
 17800              	.LASF189:
 17801 001d 433A5C55 		.ascii	"C:\\Users\\Revanth\\Documents\\GitHub\\AS76_FFP\\AS"
 17801      73657273 
 17801      5C526576 
 17801      616E7468 
 17801      5C446F63 
 17802 004a 37365F46 		.ascii	"76_FFP\\AS76_FFP6.cydsn\000"
 17802      46505C41 
 17802      5337365F 
 17802      46465036 
 17802      2E637964 
 17803              	.LASF23:
 17804 0061 75696E74 		.ascii	"uint16\000"
 17804      313600
 17805              	.LASF179:
 17806 0068 4C454432 		.ascii	"LED2_Write\000"
 17806      5F577269 
 17806      746500
 17807              	.LASF134:
 17808 0073 486F6D65 		.ascii	"HomeZ_done_Buffer\000"
 17808      5A5F646F 
 17808      6E655F42 
 17808      75666665 
ARM GAS  C:\Users\Revanth\AppData\Local\Temp\ccHsQCvB.s 			page 373


 17808      7200
 17809              	.LASF168:
 17810 0085 73707269 		.ascii	"sprintf\000"
 17810      6E746600 
 17811              	.LASF69:
 17812 008d 77616974 		.ascii	"wait_status\000"
 17812      5F737461 
 17812      74757300 
 17813              	.LASF3:
 17814 0099 5F5F7569 		.ascii	"__uint8_t\000"
 17814      6E74385F 
 17814      7400
 17815              	.LASF146:
 17816 00a3 50574D5F 		.ascii	"PWM_BarcodeCondenser_LED_WriteCompare\000"
 17816      42617263 
 17816      6F646543 
 17816      6F6E6465 
 17816      6E736572 
 17817              	.LASF100:
 17818 00c9 64697265 		.ascii	"direction\000"
 17818      6374696F 
 17818      6E00
 17819              	.LASF52:
 17820 00d3 49735F55 		.ascii	"Is_USB_Unpluged\000"
 17820      53425F55 
 17820      6E706C75 
 17820      67656400 
 17821              	.LASF162:
 17822 00e3 7374726E 		.ascii	"strncpy\000"
 17822      63707900 
 17823              	.LASF74:
 17824 00eb 74656D70 		.ascii	"temp\000"
 17824      00
 17825              	.LASF149:
 17826 00f0 43794465 		.ascii	"CyDelay\000"
 17826      6C617900 
 17827              	.LASF116:
 17828 00f8 5A5F5175 		.ascii	"Z_QuadPosition\000"
 17828      6164506F 
 17828      73697469 
 17828      6F6E00
 17829              	.LASF145:
 17830 0107 50574D5F 		.ascii	"PWM_BarcodeCondenser_LED_Start\000"
 17830      42617263 
 17830      6F646543 
 17830      6F6E6465 
 17830      6E736572 
 17831              	.LASF11:
 17832 0126 6C6F6E67 		.ascii	"long long unsigned int\000"
 17832      206C6F6E 
 17832      6720756E 
 17832      7369676E 
 17832      65642069 
 17833              	.LASF38:
 17834 013d 5374725F 		.ascii	"Str_Last_One\000"
 17834      4C617374 
 17834      5F4F6E65 
ARM GAS  C:\Users\Revanth\AppData\Local\Temp\ccHsQCvB.s 			page 374


 17834      00
 17835              	.LASF154:
 17836 014a 51756164 		.ascii	"QuadDec_Y_Start\000"
 17836      4465635F 
 17836      595F5374 
 17836      61727400 
 17837              	.LASF31:
 17838 015a 496E6974 		.ascii	"Initialize_PWM\000"
 17838      69616C69 
 17838      7A655F50 
 17838      574D00
 17839              	.LASF104:
 17840 0169 49544D5F 		.ascii	"ITM_RxBuffer\000"
 17840      52784275 
 17840      66666572 
 17840      00
 17841              	.LASF170:
 17842 0176 4379536F 		.ascii	"CySoftwareReset\000"
 17842      66747761 
 17842      72655265 
 17842      73657400 
 17843              	.LASF129:
 17844 0186 486F6D65 		.ascii	"HomeY_done\000"
 17844      595F646F 
 17844      6E6500
 17845              	.LASF183:
 17846 0191 77616974 		.ascii	"wait_timer_Stop\000"
 17846      5F74696D 
 17846      65725F53 
 17846      746F7000 
 17847              	.LASF60:
 17848 01a1 41444452 		.ascii	"ADDR\000"
 17848      00
 17849              	.LASF65:
 17850 01a6 496E6974 		.ascii	"Initialize_Motor\000"
 17850      69616C69 
 17850      7A655F4D 
 17850      6F746F72 
 17850      00
 17851              	.LASF63:
 17852 01b7 57726974 		.ascii	"Write_32bitSPI_DATA\000"
 17852      655F3332 
 17852      62697453 
 17852      50495F44 
 17852      41544100 
 17853              	.LASF0:
 17854 01cb 7369676E 		.ascii	"signed char\000"
 17854      65642063 
 17854      68617200 
 17855              	.LASF33:
 17856 01d7 52656164 		.ascii	"Read_All_Optical_Encoder\000"
 17856      5F416C6C 
 17856      5F4F7074 
 17856      6963616C 
 17856      5F456E63 
 17857              	.LASF157:
 17858 01f0 51756164 		.ascii	"QuadDec_Y_GetCounter\000"
ARM GAS  C:\Users\Revanth\AppData\Local\Temp\ccHsQCvB.s 			page 375


 17858      4465635F 
 17858      595F4765 
 17858      74436F75 
 17858      6E746572 
 17859              	.LASF124:
 17860 0205 545F5069 		.ascii	"T_Pitchfactor\000"
 17860      74636866 
 17860      6163746F 
 17860      7200
 17861              	.LASF26:
 17862 0213 5365745F 		.ascii	"Set_Backlight_LED\000"
 17862      4261636B 
 17862      6C696768 
 17862      745F4C45 
 17862      4400
 17863              	.LASF112:
 17864 0225 6F696C5F 		.ascii	"oil_speed\000"
 17864      73706565 
 17864      6400
 17865              	.LASF25:
 17866 022f 696E7433 		.ascii	"int32\000"
 17866      3200
 17867              	.LASF89:
 17868 0235 676F546F 		.ascii	"goTo_XYZ\000"
 17868      5F58595A 
 17868      00
 17869              	.LASF90:
 17870 023e 75706461 		.ascii	"update_max_velocity\000"
 17870      74655F6D 
 17870      61785F76 
 17870      656C6F63 
 17870      69747900 
 17871              	.LASF46:
 17872 0252 75617274 		.ascii	"uart_Buffer\000"
 17872      5F427566 
 17872      66657200 
 17873              	.LASF118:
 17874 025e 456E636F 		.ascii	"EncoderTZSelect\000"
 17874      64657254 
 17874      5A53656C 
 17874      65637400 
 17875              	.LASF144:
 17876 026e 50574D5F 		.ascii	"PWM_CondenserLED_WriteCompare\000"
 17876      436F6E64 
 17876      656E7365 
 17876      724C4544 
 17876      5F577269 
 17877              	.LASF7:
 17878 028c 6C6F6E67 		.ascii	"long int\000"
 17878      20696E74 
 17878      00
 17879              	.LASF109:
 17880 0295 54696D65 		.ascii	"Time_Out_Error\000"
 17880      5F4F7574 
 17880      5F457272 
 17880      6F7200
 17881              	.LASF99:
ARM GAS  C:\Users\Revanth\AppData\Local\Temp\ccHsQCvB.s 			page 376


 17882 02a4 74696D65 		.ascii	"time_ms\000"
 17882      5F6D7300 
 17883              	.LASF138:
 17884 02ac 73746174 		.ascii	"status_x\000"
 17884      75735F78 
 17884      00
 17885              	.LASF139:
 17886 02b5 73746174 		.ascii	"status_y\000"
 17886      75735F79 
 17886      00
 17887              	.LASF140:
 17888 02be 73746174 		.ascii	"status_z\000"
 17888      75735F7A 
 17888      00
 17889              	.LASF169:
 17890 02c7 5553425F 		.ascii	"USB_IsConfigurationChanged\000"
 17890      4973436F 
 17890      6E666967 
 17890      75726174 
 17890      696F6E43 
 17891              	.LASF119:
 17892 02e2 42756666 		.ascii	"Buffer_Z_QuadPosition\000"
 17892      65725F5A 
 17892      5F517561 
 17892      64506F73 
 17892      6974696F 
 17893              	.LASF22:
 17894 02f8 75696E74 		.ascii	"uint8\000"
 17894      3800
 17895              	.LASF113:
 17896 02fe 6F696C5F 		.ascii	"oil_dir\000"
 17896      64697200 
 17897              	.LASF10:
 17898 0306 6C6F6E67 		.ascii	"long long int\000"
 17898      206C6F6E 
 17898      6720696E 
 17898      7400
 17899              	.LASF166:
 17900 0314 5553425F 		.ascii	"USB_CDC_Init\000"
 17900      4344435F 
 17900      496E6974 
 17900      00
 17901              	.LASF14:
 17902 0321 75696E74 		.ascii	"uint16_t\000"
 17902      31365F74 
 17902      00
 17903              	.LASF141:
 17904 032a 6D735F63 		.ascii	"ms_count\000"
 17904      6F756E74 
 17904      00
 17905              	.LASF80:
 17906 0333 506F7369 		.ascii	"Position_Y_Requested\000"
 17906      74696F6E 
 17906      5F595F52 
 17906      65717565 
 17906      73746564 
 17907              	.LASF176:
ARM GAS  C:\Users\Revanth\AppData\Local\Temp\ccHsQCvB.s 			page 377


 17908 0348 50696E5F 		.ascii	"Pin_CSMotorO_Write\000"
 17908      43534D6F 
 17908      746F724F 
 17908      5F577269 
 17908      746500
 17909              	.LASF133:
 17910 035b 486F6D65 		.ascii	"HomeY_done_Buffer\000"
 17910      595F646F 
 17910      6E655F42 
 17910      75666665 
 17910      7200
 17911              	.LASF58:
 17912 036d 44617461 		.ascii	"Data_To_Transfer\000"
 17912      5F546F5F 
 17912      5472616E 
 17912      73666572 
 17912      00
 17913              	.LASF190:
 17914 037e 77616974 		.ascii	"wait_interrupt_Handler\000"
 17914      5F696E74 
 17914      65727275 
 17914      70745F48 
 17914      616E646C 
 17915              	.LASF4:
 17916 0395 5F5F7569 		.ascii	"__uint16_t\000"
 17916      6E743136 
 17916      5F7400
 17917              	.LASF8:
 17918 03a0 5F5F7569 		.ascii	"__uint32_t\000"
 17918      6E743332 
 17918      5F7400
 17919              	.LASF96:
 17920 03ab 75706461 		.ascii	"update_max_accelaration\000"
 17920      74655F6D 
 17920      61785F61 
 17920      6363656C 
 17920      61726174 
 17921              	.LASF186:
 17922 03c3 544D4335 		.ascii	"TMC5160_MotorO_EN_Write\000"
 17922      3136305F 
 17922      4D6F746F 
 17922      724F5F45 
 17922      4E5F5772 
 17923              	.LASF28:
 17924 03db 76616C75 		.ascii	"value\000"
 17924      6500
 17925              	.LASF91:
 17926 03e1 76656C6F 		.ascii	"velocity\000"
 17926      63697479 
 17926      00
 17927              	.LASF59:
 17928 03ea 52656164 		.ascii	"Read_32bitSPI_DATA\000"
 17928      5F333262 
 17928      69745350 
 17928      495F4441 
 17928      544100
 17929              	.LASF12:
ARM GAS  C:\Users\Revanth\AppData\Local\Temp\ccHsQCvB.s 			page 378


 17930 03fd 756E7369 		.ascii	"unsigned int\000"
 17930      676E6564 
 17930      20696E74 
 17930      00
 17931              	.LASF171:
 17932 040a 5350494D 		.ascii	"SPIM_WriteTxData\000"
 17932      5F577269 
 17932      74655478 
 17932      44617461 
 17932      00
 17933              	.LASF55:
 17934 041b 5350495F 		.ascii	"SPI_MOTOR_CHIP_SELECT\000"
 17934      4D4F544F 
 17934      525F4348 
 17934      49505F53 
 17934      454C4543 
 17935              	.LASF53:
 17936 0431 646F6E74 		.ascii	"dont_Execute_1st_Time\000"
 17936      5F457865 
 17936      63757465 
 17936      5F317374 
 17936      5F54696D 
 17937              	.LASF123:
 17938 0447 5A5F5069 		.ascii	"Z_Pitchfactor\000"
 17938      74636866 
 17938      6163746F 
 17938      7200
 17939              	.LASF110:
 17940 0455 636F6D6D 		.ascii	"command\000"
 17940      616E6400 
 17941              	.LASF47:
 17942 045d 7365745F 		.ascii	"set_BarcodeCondenser_LED\000"
 17942      42617263 
 17942      6F646543 
 17942      6F6E6465 
 17942      6E736572 
 17943              	.LASF95:
 17944 0476 686F6D65 		.ascii	"homeT\000"
 17944      5400
 17945              	.LASF9:
 17946 047c 6C6F6E67 		.ascii	"long unsigned int\000"
 17946      20756E73 
 17946      69676E65 
 17946      6420696E 
 17946      7400
 17947              	.LASF92:
 17948 048e 686F6D65 		.ascii	"homeX\000"
 17948      5800
 17949              	.LASF93:
 17950 0494 686F6D65 		.ascii	"homeY\000"
 17950      5900
 17951              	.LASF94:
 17952 049a 686F6D65 		.ascii	"homeZ\000"
 17952      5A00
 17953              	.LASF180:
 17954 04a0 544D4335 		.ascii	"TMC5160_MotorT_EN_Write\000"
 17954      3136305F 
ARM GAS  C:\Users\Revanth\AppData\Local\Temp\ccHsQCvB.s 			page 379


 17954      4D6F746F 
 17954      72545F45 
 17954      4E5F5772 
 17955              	.LASF61:
 17956 04b8 6D6F746F 		.ascii	"motor_status\000"
 17956      725F7374 
 17956      61747573 
 17956      00
 17957              	.LASF174:
 17958 04c5 50696E5F 		.ascii	"Pin_CSMotorZ_Write\000"
 17958      43534D6F 
 17958      746F725A 
 17958      5F577269 
 17958      746500
 17959              	.LASF54:
 17960 04d8 64617461 		.ascii	"data\000"
 17960      00
 17961              	.LASF111:
 17962 04dd 496E7075 		.ascii	"Input_Position_X_Temp\000"
 17962      745F506F 
 17962      73697469 
 17962      6F6E5F58 
 17962      5F54656D 
 17963              	.LASF49:
 17964 04f3 55415254 		.ascii	"UART_print_all_values\000"
 17964      5F707269 
 17964      6E745F61 
 17964      6C6C5F76 
 17964      616C7565 
 17965              	.LASF24:
 17966 0509 696E7438 		.ascii	"int8\000"
 17966      00
 17967              	.LASF153:
 17968 050e 51756164 		.ascii	"QuadDec_TZ_Start\000"
 17968      4465635F 
 17968      545A5F53 
 17968      74617274 
 17968      00
 17969              	.LASF191:
 17970 051f 5553425F 		.ascii	"USB_Detect_Indication_Via_LED\000"
 17970      44657465 
 17970      63745F49 
 17970      6E646963 
 17970      6174696F 
 17971              	.LASF131:
 17972 053d 486F6D65 		.ascii	"HomeT_done\000"
 17972      545F646F 
 17972      6E6500
 17973              	.LASF164:
 17974 0548 5553425F 		.ascii	"USB_Start\000"
 17974      53746172 
 17974      7400
 17975              	.LASF32:
 17976 0552 496E6974 		.ascii	"Initialize_And_Start_All_Opt_Encoder\000"
 17976      69616C69 
 17976      7A655F41 
 17976      6E645F53 
ARM GAS  C:\Users\Revanth\AppData\Local\Temp\ccHsQCvB.s 			page 380


 17976      74617274 
 17977              	.LASF40:
 17978 0577 42656570 		.ascii	"Beep_Twice\000"
 17978      5F547769 
 17978      636500
 17979              	.LASF120:
 17980 0582 42756666 		.ascii	"Buffer_T_QuadPosition\000"
 17980      65725F54 
 17980      5F517561 
 17980      64506F73 
 17980      6974696F 
 17981              	.LASF87:
 17982 0598 676F546F 		.ascii	"goTo_T\000"
 17982      5F5400
 17983              	.LASF160:
 17984 059f 55415254 		.ascii	"UART_PCB_LOG_PutString\000"
 17984      5F504342 
 17984      5F4C4F47 
 17984      5F507574 
 17984      53747269 
 17985              	.LASF70:
 17986 05b6 676F546F 		.ascii	"goTo_X\000"
 17986      5F5800
 17987              	.LASF79:
 17988 05bd 676F546F 		.ascii	"goTo_Y\000"
 17988      5F5900
 17989              	.LASF83:
 17990 05c4 676F546F 		.ascii	"goTo_Z\000"
 17990      5F5A00
 17991              	.LASF158:
 17992 05cb 5553425F 		.ascii	"USB_GetAll\000"
 17992      47657441 
 17992      6C6C00
 17993              	.LASF121:
 17994 05d6 585F5069 		.ascii	"X_Pitchfactor\000"
 17994      74636866 
 17994      6163746F 
 17994      7200
 17995              	.LASF130:
 17996 05e4 486F6D65 		.ascii	"HomeZ_done\000"
 17996      5A5F646F 
 17996      6E6500
 17997              	.LASF34:
 17998 05ef 436C6561 		.ascii	"Clear_USB_RX_Buffer\000"
 17998      725F5553 
 17998      425F5258 
 17998      5F427566 
 17998      66657200 
 17999              	.LASF148:
 18000 0603 50574D5F 		.ascii	"PWM_Buzzer_WriteCompare\000"
 18000      42757A7A 
 18000      65725F57 
 18000      72697465 
 18000      436F6D70 
 18001              	.LASF56:
 18002 061b 4D6F746F 		.ascii	"Motor\000"
 18002      7200
ARM GAS  C:\Users\Revanth\AppData\Local\Temp\ccHsQCvB.s 			page 381


 18003              	.LASF43:
 18004 0621 4572726F 		.ascii	"Error\000"
 18004      7200
 18005              	.LASF27:
 18006 0627 456E6162 		.ascii	"Enable_Encoder_T\000"
 18006      6C655F45 
 18006      6E636F64 
 18006      65725F54 
 18006      00
 18007              	.LASF184:
 18008 0638 51756164 		.ascii	"QuadDec_X_SetCounter\000"
 18008      4465635F 
 18008      585F5365 
 18008      74436F75 
 18008      6E746572 
 18009              	.LASF30:
 18010 064d 456E6162 		.ascii	"Enable_Encoder_Z\000"
 18010      6C655F45 
 18010      6E636F64 
 18010      65725F5A 
 18010      00
 18011              	.LASF18:
 18012 065e 73697A65 		.ascii	"sizetype\000"
 18012      74797065 
 18012      00
 18013              	.LASF39:
 18014 0667 42656570 		.ascii	"Beep_Once\000"
 18014      5F4F6E63 
 18014      6500
 18015              	.LASF17:
 18016 0671 6C6F6E67 		.ascii	"long double\000"
 18016      20646F75 
 18016      626C6500 
 18017              	.LASF132:
 18018 067d 486F6D65 		.ascii	"HomeX_done_Buffer\000"
 18018      585F646F 
 18018      6E655F42 
 18018      75666665 
 18018      7200
 18019              	.LASF151:
 18020 068f 51756164 		.ascii	"QuadDec_TZ_SetCounter\000"
 18020      4465635F 
 18020      545A5F53 
 18020      6574436F 
 18020      756E7465 
 18021              	.LASF178:
 18022 06a5 4C454433 		.ascii	"LED3_Write\000"
 18022      5F577269 
 18022      746500
 18023              	.LASF115:
 18024 06b0 595F5175 		.ascii	"Y_QuadPosition\000"
 18024      6164506F 
 18024      73697469 
 18024      6F6E00
 18025              	.LASF41:
 18026 06bf 4C6F6E67 		.ascii	"Long_Beep\000"
 18026      5F426565 
ARM GAS  C:\Users\Revanth\AppData\Local\Temp\ccHsQCvB.s 			page 382


 18026      7000
 18027              	.LASF78:
 18028 06c9 456E636F 		.ascii	"Encoder_Position_Y_Requested\000"
 18028      6465725F 
 18028      506F7369 
 18028      74696F6E 
 18028      5F595F52 
 18029              	.LASF181:
 18030 06e6 77616974 		.ascii	"wait_timer_Start\000"
 18030      5F74696D 
 18030      65725F53 
 18030      74617274 
 18030      00
 18031              	.LASF68:
 18032 06f7 57616974 		.ascii	"WaitTillPositionReached\000"
 18032      54696C6C 
 18032      506F7369 
 18032      74696F6E 
 18032      52656163 
 18033              	.LASF107:
 18034 070f 5553425F 		.ascii	"USB_received\000"
 18034      72656365 
 18034      69766564 
 18034      00
 18035              	.LASF125:
 18036 071c 4D6F746F 		.ascii	"Motor_Speed_X\000"
 18036      725F5370 
 18036      6565645F 
 18036      5800
 18037              	.LASF126:
 18038 072a 4D6F746F 		.ascii	"Motor_Speed_Y\000"
 18038      725F5370 
 18038      6565645F 
 18038      5900
 18039              	.LASF127:
 18040 0738 4D6F746F 		.ascii	"Motor_Speed_Z\000"
 18040      725F5370 
 18040      6565645F 
 18040      5A00
 18041              	.LASF155:
 18042 0746 51756164 		.ascii	"QuadDec_X_Start\000"
 18042      4465635F 
 18042      585F5374 
 18042      61727400 
 18043              	.LASF66:
 18044 0756 4973506F 		.ascii	"IsPositionReached\000"
 18044      73697469 
 18044      6F6E5265 
 18044      61636865 
 18044      6400
 18045              	.LASF103:
 18046 0768 50726F63 		.ascii	"Process_USB_Data\000"
 18046      6573735F 
 18046      5553425F 
 18046      44617461 
 18046      00
 18047              	.LASF117:
ARM GAS  C:\Users\Revanth\AppData\Local\Temp\ccHsQCvB.s 			page 383


 18048 0779 545F5175 		.ascii	"T_QuadPosition\000"
 18048      6164506F 
 18048      73697469 
 18048      6F6E00
 18049              	.LASF97:
 18050 0788 61636365 		.ascii	"accelaration\000"
 18050      6C617261 
 18050      74696F6E 
 18050      00
 18051              	.LASF165:
 18052 0795 5553425F 		.ascii	"USB_GetConfiguration\000"
 18052      47657443 
 18052      6F6E6669 
 18052      67757261 
 18052      74696F6E 
 18053              	.LASF177:
 18054 07aa 5350494D 		.ascii	"SPIM_ReadRxData\000"
 18054      5F526561 
 18054      64527844 
 18054      61746100 
 18055              	.LASF114:
 18056 07ba 585F5175 		.ascii	"X_QuadPosition\000"
 18056      6164506F 
 18056      73697469 
 18056      6F6E00
 18057              	.LASF98:
 18058 07c9 72756E5F 		.ascii	"run_pump\000"
 18058      70756D70 
 18058      00
 18059              	.LASF163:
 18060 07d2 5553425F 		.ascii	"USB_PutData\000"
 18060      50757444 
 18060      61746100 
 18061              	.LASF51:
 18062 07de 5F426F6F 		.ascii	"_Bool\000"
 18062      6C00
 18063              	.LASF15:
 18064 07e4 696E7433 		.ascii	"int32_t\000"
 18064      325F7400 
 18065              	.LASF1:
 18066 07ec 756E7369 		.ascii	"unsigned char\000"
 18066      676E6564 
 18066      20636861 
 18066      7200
 18067              	.LASF188:
 18068 07fa 41533736 		.ascii	"AS76.c\000"
 18068      2E6300
 18069              	.LASF82:
 18070 0801 456E636F 		.ascii	"Encoder_Position_Z_Requested\000"
 18070      6465725F 
 18070      506F7369 
 18070      74696F6E 
 18070      5F5A5F52 
 18071              	.LASF159:
 18072 081e 7374726E 		.ascii	"strncmp\000"
 18072      636D7000 
 18073              	.LASF44:
ARM GAS  C:\Users\Revanth\AppData\Local\Temp\ccHsQCvB.s 			page 384


 18074 0826 496E6974 		.ascii	"Initialize_USB\000"
 18074      69616C69 
 18074      7A655F55 
 18074      534200
 18075              	.LASF2:
 18076 0835 73686F72 		.ascii	"short int\000"
 18076      7420696E 
 18076      7400
 18077              	.LASF167:
 18078 083f 5553425F 		.ascii	"USB_EnableSofInt\000"
 18078      456E6162 
 18078      6C65536F 
 18078      66496E74 
 18078      00
 18079              	.LASF48:
 18080 0850 7365745F 		.ascii	"set_CondenserLED\000"
 18080      436F6E64 
 18080      656E7365 
 18080      724C4544 
 18080      00
 18081              	.LASF42:
 18082 0861 53656E64 		.ascii	"Send_Feedback_to_USB\000"
 18082      5F466565 
 18082      64626163 
 18082      6B5F746F 
 18082      5F555342 
 18083              	.LASF108:
 18084 0876 5553425F 		.ascii	"USB_transmit\000"
 18084      7472616E 
 18084      736D6974 
 18084      00
 18085              	.LASF88:
 18086 0883 506F7369 		.ascii	"Position_T_Requested\000"
 18086      74696F6E 
 18086      5F545F52 
 18086      65717565 
 18086      73746564 
 18087              	.LASF187:
 18088 0898 474E5520 		.ascii	"GNU C11 5.4.1 20160609 (release) [ARM/embedded-5-br"
 18088      43313120 
 18088      352E342E 
 18088      31203230 
 18088      31363036 
 18089 08cb 616E6368 		.ascii	"anch revision 237715] -mcpu=cortex-m3 -mthumb -g -O"
 18089      20726576 
 18089      6973696F 
 18089      6E203233 
 18089      37373135 
 18090 08fe 67202D66 		.ascii	"g -ffunction-sections -ffat-lto-objects\000"
 18090      66756E63 
 18090      74696F6E 
 18090      2D736563 
 18090      74696F6E 
 18091              	.LASF161:
 18092 0926 43794465 		.ascii	"CyDelayUs\000"
 18092      6C617955 
 18092      7300
ARM GAS  C:\Users\Revanth\AppData\Local\Temp\ccHsQCvB.s 			page 385


 18093              	.LASF147:
 18094 0930 50574D5F 		.ascii	"PWM_Buzzer_Start\000"
 18094      42757A7A 
 18094      65725F53 
 18094      74617274 
 18094      00
 18095              	.LASF86:
 18096 0941 456E636F 		.ascii	"Encoder_Position_T_Requested\000"
 18096      6465725F 
 18096      506F7369 
 18096      74696F6E 
 18096      5F545F52 
 18097              	.LASF16:
 18098 095e 75696E74 		.ascii	"uint32_t\000"
 18098      33325F74 
 18098      00
 18099              	.LASF64:
 18100 0967 476F746F 		.ascii	"GotoPos\000"
 18100      506F7300 
 18101              	.LASF21:
 18102 096f 666C6F61 		.ascii	"float\000"
 18102      7400
 18103              	.LASF19:
 18104 0975 63686172 		.ascii	"char\000"
 18104      00
 18105              	.LASF76:
 18106 097a 656E636F 		.ascii	"encoder_error_value\000"
 18106      6465725F 
 18106      6572726F 
 18106      725F7661 
 18106      6C756500 
 18107              	.LASF128:
 18108 098e 486F6D65 		.ascii	"HomeX_done\000"
 18108      585F646F 
 18108      6E6500
 18109              	.LASF156:
 18110 0999 51756164 		.ascii	"QuadDec_TZ_GetCounter\000"
 18110      4465635F 
 18110      545A5F47 
 18110      6574436F 
 18110      756E7465 
 18111              	.LASF152:
 18112 09af 456E636F 		.ascii	"Encoder_T_Z_Select_Write\000"
 18112      6465725F 
 18112      545F5A5F 
 18112      53656C65 
 18112      63745F57 
 18113              	.LASF71:
 18114 09c8 506F7369 		.ascii	"Position_X_Requested\000"
 18114      74696F6E 
 18114      5F585F52 
 18114      65717565 
 18114      73746564 
 18115              	.LASF101:
 18116 09dd 72756E5F 		.ascii	"run_pumpvs\000"
 18116      70756D70 
 18116      767300
ARM GAS  C:\Users\Revanth\AppData\Local\Temp\ccHsQCvB.s 			page 386


 18117              	.LASF6:
 18118 09e8 5F5F696E 		.ascii	"__int32_t\000"
 18118      7433325F 
 18118      7400
 18119              	.LASF75:
 18120 09f2 6E65775F 		.ascii	"new_step\000"
 18120      73746570 
 18120      00
 18121              	.LASF73:
 18122 09fb 456E636F 		.ascii	"Encoder_Position_X_Requested\000"
 18122      6465725F 
 18122      506F7369 
 18122      74696F6E 
 18122      5F585F52 
 18123              	.LASF5:
 18124 0a18 73686F72 		.ascii	"short unsigned int\000"
 18124      7420756E 
 18124      7369676E 
 18124      65642069 
 18124      6E7400
 18125              	.LASF37:
 18126 0a2b 57726974 		.ascii	"Write_Debug_UART_Char\000"
 18126      655F4465 
 18126      6275675F 
 18126      55415254 
 18126      5F436861 
 18127              	.LASF105:
 18128 0a41 49735F53 		.ascii	"Is_Slide_On_Gripper\000"
 18128      6C696465 
 18128      5F4F6E5F 
 18128      47726970 
 18128      70657200 
 18129              	.LASF172:
 18130 0a55 50696E5F 		.ascii	"Pin_CSMotorX_Write\000"
 18130      43534D6F 
 18130      746F7258 
 18130      5F577269 
 18130      746500
 18131              	.LASF173:
 18132 0a68 50696E5F 		.ascii	"Pin_CSMotorY_Write\000"
 18132      43534D6F 
 18132      746F7259 
 18132      5F577269 
 18132      746500
 18133              	.LASF185:
 18134 0a7b 51756164 		.ascii	"QuadDec_Y_SetCounter\000"
 18134      4465635F 
 18134      595F5365 
 18134      74436F75 
 18134      6E746572 
 18135              	.LASF143:
 18136 0a90 50574D5F 		.ascii	"PWM_CondenserLED_Start\000"
 18136      436F6E64 
 18136      656E7365 
 18136      724C4544 
 18136      5F537461 
 18137              	.LASF62:
ARM GAS  C:\Users\Revanth\AppData\Local\Temp\ccHsQCvB.s 			page 387


 18138 0aa7 5350495F 		.ascii	"SPI_DATA_VALUE\000"
 18138      44415441 
 18138      5F56414C 
 18138      554500
 18139              	.LASF122:
 18140 0ab6 595F5069 		.ascii	"Y_Pitchfactor\000"
 18140      74636866 
 18140      6163746F 
 18140      7200
 18141              	.LASF67:
 18142 0ac4 73746174 		.ascii	"status\000"
 18142      757300
 18143              	.LASF36:
 18144 0acb 5553425F 		.ascii	"USB_received_temp\000"
 18144      72656365 
 18144      69766564 
 18144      5F74656D 
 18144      7000
 18145              	.LASF57:
 18146 0add 56616C75 		.ascii	"Value\000"
 18146      6500
 18147              	.LASF50:
 18148 0ae3 69665F61 		.ascii	"if_all_homing_done\000"
 18148      6C6C5F68 
 18148      6F6D696E 
 18148      675F646F 
 18148      6E6500
 18149              	.LASF35:
 18150 0af6 436C6561 		.ascii	"Clear_Pending_USB_Data\000"
 18150      725F5065 
 18150      6E64696E 
 18150      675F5553 
 18150      425F4461 
 18151              	.LASF13:
 18152 0b0d 75696E74 		.ascii	"uint8_t\000"
 18152      385F7400 
 18153              	.LASF135:
 18154 0b15 486F6D65 		.ascii	"HomeT_done_Buffer\000"
 18154      545F646F 
 18154      6E655F42 
 18154      75666665 
 18154      7200
 18155              	.LASF102:
 18156 0b27 73706565 		.ascii	"speed\000"
 18156      6400
 18157              	.LASF85:
 18158 0b2d 53746570 		.ascii	"Step_correction_t\000"
 18158      5F636F72 
 18158      72656374 
 18158      696F6E5F 
 18158      7400
 18159              	.LASF150:
 18160 0b3f 50696E5F 		.ascii	"Pin_Backlight_Write\000"
 18160      4261636B 
 18160      6C696768 
 18160      745F5772 
 18160      69746500 
ARM GAS  C:\Users\Revanth\AppData\Local\Temp\ccHsQCvB.s 			page 388


 18161              	.LASF72:
 18162 0b53 53746570 		.ascii	"Step_correction_x\000"
 18162      5F636F72 
 18162      72656374 
 18162      696F6E5F 
 18162      7800
 18163              	.LASF77:
 18164 0b65 53746570 		.ascii	"Step_correction_y\000"
 18164      5F636F72 
 18164      72656374 
 18164      696F6E5F 
 18164      7900
 18165              	.LASF81:
 18166 0b77 53746570 		.ascii	"Step_correction_z\000"
 18166      5F636F72 
 18166      72656374 
 18166      696F6E5F 
 18166      7A00
 18167              	.LASF136:
 18168 0b89 50574D5F 		.ascii	"PWM_Condenser_comare_value\000"
 18168      436F6E64 
 18168      656E7365 
 18168      725F636F 
 18168      6D617265 
 18169              	.LASF45:
 18170 0ba4 57726974 		.ascii	"Write_Debug_UART_Int\000"
 18170      655F4465 
 18170      6275675F 
 18170      55415254 
 18170      5F496E74 
 18171              	.LASF137:
 18172 0bb9 50574D5F 		.ascii	"PWM_barcode_comare_value\000"
 18172      62617263 
 18172      6F64655F 
 18172      636F6D61 
 18172      72655F76 
 18173              	.LASF29:
 18174 0bd2 73746570 		.ascii	"steps\000"
 18174      7300
 18175              	.LASF142:
 18176 0bd8 65786974 		.ascii	"exit_loop\000"
 18176      5F6C6F6F 
 18176      7000
 18177              	.LASF175:
 18178 0be2 50696E5F 		.ascii	"Pin_CSMotorT_Write\000"
 18178      43534D6F 
 18178      746F7254 
 18178      5F577269 
 18178      746500
 18179              	.LASF20:
 18180 0bf5 646F7562 		.ascii	"double\000"
 18180      6C6500
 18181              	.LASF84:
 18182 0bfc 506F7369 		.ascii	"Position_Z_Requested\000"
 18182      74696F6E 
 18182      5F5A5F52 
 18182      65717565 
ARM GAS  C:\Users\Revanth\AppData\Local\Temp\ccHsQCvB.s 			page 389


 18182      73746564 
 18183              		.ident	"GCC: (GNU Tools for ARM Embedded Processors) 5.4.1 20160609 (release) [ARM/embedded-5-bran
