ARM GAS  C:\Users\Revanth\AppData\Local\Temp\ccvmpTGe.s 			page 1


   1              		.syntax unified
   2              		.cpu cortex-m3
   3              		.fpu softvfp
   4              		.eabi_attribute 20, 1
   5              		.eabi_attribute 21, 1
   6              		.eabi_attribute 23, 3
   7              		.eabi_attribute 24, 1
   8              		.eabi_attribute 25, 1
   9              		.eabi_attribute 26, 1
  10              		.eabi_attribute 30, 1
  11              		.eabi_attribute 34, 1
  12              		.eabi_attribute 18, 4
  13              		.thumb
  14              		.syntax unified
  15              		.file	"AS76.c"
  16              		.text
  17              	.Ltext0:
  18              		.cfi_sections	.debug_frame
  19              		.section	.text.wait_interrupt_Handler,"ax",%progbits
  20              		.align	2
  21              		.global	wait_interrupt_Handler
  22              		.thumb
  23              		.thumb_func
  24              		.type	wait_interrupt_Handler, %function
  25              	wait_interrupt_Handler:
  26              	.LFB64:
  27              		.file 1 "AS76.c"
   1:AS76.c        **** 
   2:AS76.c        **** /* ========================================
   3:AS76.c        **** 
   4:AS76.c        ****    Copyright Sigtuple, 2022
   5:AS76.c        ****    All Rights Reserved
   6:AS76.c        ****    UNPUBLISHED, LICENSED SOFTWARE.
   7:AS76.c        **** 
   8:AS76.c        ****    CONFIDENTIAL AND PROPRIETARY INFORMATION
   9:AS76.c        ****    WHICH IS THE PROPERTY OF SIGTUPLE.
  10:AS76.c        **** 
  11:AS76.c        ****    ========================================
  12:AS76.c        **** */
  13:AS76.c        **** #include "AS76.h"
  14:AS76.c        **** #include "variables.h"
  15:AS76.c        **** #include "project.h"
  16:AS76.c        **** #include "math.h"
  17:AS76.c        **** #include "configuration.h"
  18:AS76.c        **** #include <stdlib.h>
  19:AS76.c        **** 
  20:AS76.c        **** bool Time_Out_Error = true;
  21:AS76.c        **** unsigned int command;
  22:AS76.c        **** int Error = 0;
  23:AS76.c        **** 
  24:AS76.c        **** int32 Position_Y_Requested = 0; // Variable to hold position of Motor X in uSteps 51200 uSteps = 1 
  25:AS76.c        **** int32 Position_X_Requested = 0; // Variable to hold position of Motor X in uSteps 51200 uSteps = 1 
  26:AS76.c        **** int32 Input_Position_X_Temp =0;
  27:AS76.c        **** int32 Position_Z_Requested = 0; // Variable to hold position of Motor X in uSteps 51200 uSteps = 1 
  28:AS76.c        **** int32 Position_T_Requested = 0; // Variable to hold position of Motor X in uSteps 51200 uSteps = 1 
  29:AS76.c        **** 
  30:AS76.c        **** int32 time_ms   = 0;
ARM GAS  C:\Users\Revanth\AppData\Local\Temp\ccvmpTGe.s 			page 2


  31:AS76.c        **** int32 oil_speed = 0;
  32:AS76.c        **** int32 oil_dir   = 0;
  33:AS76.c        **** 
  34:AS76.c        **** volatile int32 X_QuadPosition = 0; // Variable to hold position of Motor X in encoder steps, this v
  35:AS76.c        **** volatile int32 Y_QuadPosition = 0; // Variable to hold position of Motor Y in encoder steps, this v
  36:AS76.c        **** volatile int32 Z_QuadPosition = 0; // Variable to hold position of Motor Z in encoder steps, this v
  37:AS76.c        **** volatile int32 T_QuadPosition = 0; // Variable to hold position of Motor T in encoder steps, this v
  38:AS76.c        **** int EncoderTZSelect = 0; //Variable to indicate which encoder is being currently selected Z or T
  39:AS76.c        **** int Buffer_Z_QuadPosition = 0; //Buffer variable to store Z Encoder value when T Encoder channel is
  40:AS76.c        **** int Buffer_T_QuadPosition = 0; //Buffer variable to store T Encoder value when Z Encoder channel is
  41:AS76.c        **** 
  42:AS76.c        **** float X_Pitchfactor = 12.8; //Pitchfactor = 51200/(Encoder CPR * 4), where 51200 is the uStep requi
  43:AS76.c        **** float Y_Pitchfactor = 12.8; //Pitchfactor = 51200/(Encoder CPR * 4), where 51200 is the uStep requi
  44:AS76.c        **** float Z_Pitchfactor = 3.2;  //Pitchfactor = 51200/(Encoder CPR * 4), where 51200 is the uStep requi
  45:AS76.c        **** float T_Pitchfactor = 3.2;  //Pitchfactor = 51200/(Encoder CPR * 4), where 51200 is the uStep requi
  46:AS76.c        **** 
  47:AS76.c        **** unsigned int Motor_Speed_X = (51200*6); //Default_X_Motor_Speed - 6 Rotations per second;
  48:AS76.c        **** unsigned int Motor_Speed_Y = (51200*6); //Default_Y_Motor_Speed - 6 Rotations per second;
  49:AS76.c        **** unsigned int Motor_Speed_Z = (51200*6); //Default_Z_Motor_Speed - 3 Rotations per second;
  50:AS76.c        **** 
  51:AS76.c        **** bool HomeX_done = true; //Variable to indicate if Homing procedure done  or not in X Motor, intial 
  52:AS76.c        **** bool HomeY_done = true; //Variable to indicate if Homing procedure done  or not in Y Motor, intial 
  53:AS76.c        **** bool HomeZ_done = true; //Variable to indicate if Homing procedure done  or not in Z Motor, intial 
  54:AS76.c        **** bool HomeT_done = true; //Variable to indicate if Homing procedure done  or not in T Motor, intial 
  55:AS76.c        **** 
  56:AS76.c        **** bool HomeX_done_Buffer = false; //Variable to indicate if Homing procedure done  or not in X Motor,
  57:AS76.c        **** bool HomeY_done_Buffer = false; //Variable to indicate if Homing procedure done  or not in Y Motor,
  58:AS76.c        **** bool HomeZ_done_Buffer = false; //Variable to indicate if Homing procedure done  or not in Z Motor,
  59:AS76.c        **** bool HomeT_done_Buffer = false; //Variable to indicate if Homing procedure done  or not in T Motor,
  60:AS76.c        **** 
  61:AS76.c        **** // PWM Value for Condenser LED and Barcode LED
  62:AS76.c        **** int PWM_Condenser_comare_value = 200;
  63:AS76.c        **** int PWM_barcode_comare_value = 0;
  64:AS76.c        **** 
  65:AS76.c        **** // Variable to store the status byte of the corresponding motor driver
  66:AS76.c        **** extern uint8_t status_x;
  67:AS76.c        **** extern uint8_t status_y;
  68:AS76.c        **** extern uint8_t status_z;
  69:AS76.c        **** extern uint8_t status_t;
  70:AS76.c        **** 
  71:AS76.c        **** 
  72:AS76.c        **** uint16_t ms_count = 0;
  73:AS76.c        **** bool exit_loop =0;
  74:AS76.c        **** CY_ISR(wait_interrupt_Handler) {
  28              		.loc 1 74 0
  29              		.cfi_startproc
  30              		@ args = 0, pretend = 0, frame = 0
  31              		@ frame_needed = 0, uses_anonymous_args = 0
  32              		@ link register save eliminated.
  75:AS76.c        ****     ms_count++;
  33              		.loc 1 75 0
  34 0000 074A     		ldr	r2, .L3
  35 0002 1388     		ldrh	r3, [r2]
  36 0004 0133     		adds	r3, r3, #1
  37 0006 9BB2     		uxth	r3, r3
  38 0008 1380     		strh	r3, [r2]	@ movhi
  76:AS76.c        ****      
ARM GAS  C:\Users\Revanth\AppData\Local\Temp\ccvmpTGe.s 			page 3


  77:AS76.c        ****     if(ms_count == 11000) 
  39              		.loc 1 77 0
  40 000a 42F6F822 		movw	r2, #11000
  41 000e 9342     		cmp	r3, r2
  42 0010 04D1     		bne	.L1
  78:AS76.c        ****     { // ~30 second
  79:AS76.c        ****         
  80:AS76.c        ****         exit_loop = 1;
  43              		.loc 1 80 0
  44 0012 034B     		ldr	r3, .L3
  45 0014 0122     		movs	r2, #1
  46 0016 9A70     		strb	r2, [r3, #2]
  81:AS76.c        ****         ms_count = 0; // reset ms counter
  47              		.loc 1 81 0
  48 0018 0022     		movs	r2, #0
  49 001a 1A80     		strh	r2, [r3]	@ movhi
  50              	.L1:
  51 001c 7047     		bx	lr
  52              	.L4:
  53 001e 00BF     		.align	2
  54              	.L3:
  55 0020 00000000 		.word	.LANCHOR0
  56              		.cfi_endproc
  57              	.LFE64:
  58              		.size	wait_interrupt_Handler, .-wait_interrupt_Handler
  59              		.section	.text.Initialize_PWM,"ax",%progbits
  60              		.align	2
  61              		.global	Initialize_PWM
  62              		.thumb
  63              		.thumb_func
  64              		.type	Initialize_PWM, %function
  65              	Initialize_PWM:
  66              	.LFB80:
  82:AS76.c        ****     }
  83:AS76.c        **** }
  84:AS76.c        **** 
  85:AS76.c        **** //Motor Movment Functions Start-------------------------------------------------------
  86:AS76.c        **** 
  87:AS76.c        **** /* --------------------------------------------------------------------------------------------
  88:AS76.c        **** Function Name        : GotoPos
  89:AS76.c        **** 
  90:AS76.c        **** Prerequist Knowledge : TMC5160 Register Sets, Stepper Motor
  91:AS76.c        **** 
  92:AS76.c        **** Function Description : This Function is used to move the stepper motor to a desired position in the
  93:AS76.c        ****                        provided axis
  94:AS76.c        **** 
  95:AS76.c        **** Return Type & Data   : Void
  96:AS76.c        **** 
  97:AS76.c        **** Variable Updation:   : Nil
  98:AS76.c        **** 
  99:AS76.c        **** Numnber of Arguments : 2
 100:AS76.c        **** 
 101:AS76.c        **** -----Argument 1-----
 102:AS76.c        **** Name                 : Pos
 103:AS76.c        **** Tupe                 : int
 104:AS76.c        **** Description          : This Argument Represents the Target postion in 1/256 microsteps to which the
 105:AS76.c        ****                        stepper should move
ARM GAS  C:\Users\Revanth\AppData\Local\Temp\ccvmpTGe.s 			page 4


 106:AS76.c        **** Condition            : Nil                       
 107:AS76.c        **** --------------------
 108:AS76.c        **** 
 109:AS76.c        **** -----Argument 2-----
 110:AS76.c        **** Name                 : Motor
 111:AS76.c        **** Tupe                 : uint8_t
 112:AS76.c        **** Description          : This Argument Represents the driver channel
 113:AS76.c        **** Condition            : This Value must range from 0x00 to 0x04 since there are only 5 channels
 114:AS76.c        ****                        available in AS76 System Configuration, condition to be checked in 
 115:AS76.c        ****                        SPI_MOTOR_CHIP_SELECT Function                       
 116:AS76.c        **** --------------------
 117:AS76.c        **** 
 118:AS76.c        **** 
 119:AS76.c        **** 
 120:AS76.c        **** ---------------------------------------------------------------------------------------------*/
 121:AS76.c        **** void GotoPos(int Pos, uint8_t Motor)
 122:AS76.c        **** {
 123:AS76.c        ****     Write_32bitSPI_DATA (0x20  , (int) 0x00000000, Motor );
 124:AS76.c        ****     Write_32bitSPI_DATA (0x05  , Pos, Motor );
 125:AS76.c        ****     Write_32bitSPI_DATA (0x2D  , Pos, Motor );   
 126:AS76.c        **** 
 127:AS76.c        **** }
 128:AS76.c        **** 
 129:AS76.c        **** ///////////////////////////////////////////////////////////////////////////////////////
 130:AS76.c        **** 
 131:AS76.c        **** /////////////////////////////////////Homing X//////////////////////////////////////////
 132:AS76.c        **** 
 133:AS76.c        **** /* --------------------------------------------------------------------------------------------
 134:AS76.c        **** Function Name        : homeX
 135:AS76.c        **** 
 136:AS76.c        **** Prerequist Knowledge : Homing of stepper motor system, TM5160 Datasheet, Encoders
 137:AS76.c        **** 
 138:AS76.c        **** Function Description : This Function is used to home the motor X, where motor moves at specific
 139:AS76.c        ****                        Low speed towards left until it hits the limit switch on the left side then 
 140:AS76.c        ****                        motor rotates 1 rotation next the motor moves at specific Low speed towards 
 141:AS76.c        ****                        left until it hits the limit switch then motor gain moves 1 rotaion with ste
 142:AS76.c        ****                        loss correction and that point TMC5160 marks as position 0 and resets the X 
 143:AS76.c        ****                        Channel encoder.
 144:AS76.c        **** 
 145:AS76.c        **** Return Type & Data   :Void
 146:AS76.c        **** 
 147:AS76.c        **** Variable Updation: status_x, Error, X_QuadPosition
 148:AS76.c        **** 
 149:AS76.c        **** Numnber of Arguments : 1
 150:AS76.c        **** 
 151:AS76.c        **** -----Argument 1-----
 152:AS76.c        **** Name                 : Motor
 153:AS76.c        **** Tupe                 : uint8_t
 154:AS76.c        **** Description          : This Argument Represents the driver channel
 155:AS76.c        **** Condition            : This Value must range from 0x00 to 0x04 since there are only 5 channels
 156:AS76.c        ****                        available in AS76 System Configuration, condition to be checked in 
 157:AS76.c        ****                        SPI_MOTOR_CHIP_SELECT Function                       
 158:AS76.c        **** --------------------
 159:AS76.c        **** 
 160:AS76.c        **** 
 161:AS76.c        **** 
 162:AS76.c        **** ---------------------------------------------------------------------------------------------*/
ARM GAS  C:\Users\Revanth\AppData\Local\Temp\ccvmpTGe.s 			page 5


 163:AS76.c        **** 
 164:AS76.c        **** void homeX(uint8_t Motor)
 165:AS76.c        **** {
 166:AS76.c        ****     TMC5160_MotorZ_EN_Write(0xFF);
 167:AS76.c        ****     CyDelayUs(500);
 168:AS76.c        ****     TMC5160_MotorY_EN_Write(0xFF);
 169:AS76.c        ****     CyDelayUs(500);
 170:AS76.c        ****     TMC5160_MotorX_EN_Write(0x00);
 171:AS76.c        ****     CyDelayUs(500);
 172:AS76.c        ****     update_max_velocity((307200), Motor); // Set Motor to low speed
 173:AS76.c        ****     Write_32bitSPI_DATA (0x20  , (int) 0x00000002, Motor ); // Move the motor to Left continuously
 174:AS76.c        ****     CyDelayUs(200);
 175:AS76.c        ****     Read_32bitSPI_DATA(0x04, Motor, &status_x); // Read the status register of TMC5160
 176:AS76.c        ****     CyDelayUs(500);
 177:AS76.c        ****     Read_32bitSPI_DATA(0x04, Motor, &status_x); // Read the status register of TMC5160
 178:AS76.c        ****     while ( (status_x & 0x40) == 0x00) // Condition to check if the Left limit switch is pressed or
 179:AS76.c        ****     {
 180:AS76.c        ****        wait_timer_Start();
 181:AS76.c        ****        wait_interrupt_StartEx(wait_interrupt_Handler);
 182:AS76.c        ****        Read_32bitSPI_DATA(0x04, Motor, &status_x); // Read the status register of TMC5160
 183:AS76.c        ****        CyDelayUs(100);
 184:AS76.c        ****        if(exit_loop == 1)
 185:AS76.c        ****        {
 186:AS76.c        ****         Error = 1;
 187:AS76.c        ****         Send_Feedback_to_USB(Error);
 188:AS76.c        ****         wait_timer_Stop();
 189:AS76.c        ****         Write_32bitSPI_DATA (0x20  , (int) 0x00000000, Motor );
 190:AS76.c        ****         Write_32bitSPI_DATA (0x21  , (int) 0x0000000, Motor); // Mark the current postion as 0
 191:AS76.c        ****         Write_32bitSPI_DATA (0x2D  , 0x00000000, Motor ); // Set thye target position as 0
 192:AS76.c        ****         exit_loop = 0;
 193:AS76.c        ****         Error =0;
 194:AS76.c        ****         return;        
 195:AS76.c        ****     }
 196:AS76.c        ****     }    
 197:AS76.c        ****     wait_timer_Stop();
 198:AS76.c        ****     exit_loop =0;
 199:AS76.c        ****     
 200:AS76.c        ****     
 201:AS76.c        ****     Write_32bitSPI_DATA (0x21  , (int) 0x0000000, Motor); //Write the X_Actual Register of TMC5160 
 202:AS76.c        ****     CyDelayUs(10);
 203:AS76.c        ****     /*
 204:AS76.c        ****     GotoPos(((256*200)*2), Motor); // Move the motor 2 rotations (102400 uSteps)
 205:AS76.c        ****     CyDelayUs(500);
 206:AS76.c        ****     // Read the status byte register to whther the required position is reached by the motor or not
 207:AS76.c        ****     Read_32bitSPI_DATA(0x04, Motor, &status_x); // Read the status register of TMC5160
 208:AS76.c        ****     CyDelayUs(500);
 209:AS76.c        ****     Read_32bitSPI_DATA(0x04, Motor, &status_x); // Read the status register of TMC5160
 210:AS76.c        ****     while ( (status_x & 0x20) == 0x00) // Check if target position is reached or not
 211:AS76.c        ****     {
 212:AS76.c        ****         Read_32bitSPI_DATA(0x04, Motor, &status_x); // Read the status register of TMC5160
 213:AS76.c        ****         CyDelayUs(100);
 214:AS76.c        ****        
 215:AS76.c        ****     }
 216:AS76.c        ****     
 217:AS76.c        ****     // Till the above point of code 1st homing is done repeat the same procedure at lower speed to 
 218:AS76.c        ****     Write_32bitSPI_DATA (0x0B  , (int) 127, Motor );
 219:AS76.c        ****     Write_32bitSPI_DATA (0x11  , (int) 0x00070103, Motor );
ARM GAS  C:\Users\Revanth\AppData\Local\Temp\ccvmpTGe.s 			page 6


 220:AS76.c        ****     update_max_velocity((53687), Motor); // Update motor speed to 1 rotation/second
 221:AS76.c        ****     Write_32bitSPI_DATA (0x20  , (int) 0x00000002, Motor ); // // Move the motor to Left continuous
 222:AS76.c        ****     CyDelayUs(200);
 223:AS76.c        ****     Read_32bitSPI_DATA(0x04, Motor, &status_x);
 224:AS76.c        ****     CyDelayUs(500);
 225:AS76.c        ****     Read_32bitSPI_DATA(0x04, Motor, &status_x);
 226:AS76.c        ****     while ( (status_x & 0x40) == 0x00)
 227:AS76.c        ****     {
 228:AS76.c        ****        Read_32bitSPI_DATA(0x04, Motor, &status_x);
 229:AS76.c        ****        CyDelayUs(100);
 230:AS76.c        ****     }
 231:AS76.c        **** */
 232:AS76.c        ****     Write_32bitSPI_DATA (0x21  , (int) 0x0000000, Motor);
 233:AS76.c        ****     //X_last_position = 0;
 234:AS76.c        ****     QuadDec_X_SetCounter(0);
 235:AS76.c        ****     HomeX_done = true;
 236:AS76.c        ****     HomeY_done = true;
 237:AS76.c        ****     HomeZ_done = true;
 238:AS76.c        ****     HomeT_done = true;
 239:AS76.c        ****     CyDelayUs(100);
 240:AS76.c        ****     goTo_X((256*200)*1); // Move the motor 1 rotation with error corrction mechanism based on encod
 241:AS76.c        ****     HomeX_done = HomeX_done_Buffer;
 242:AS76.c        ****     HomeY_done = HomeY_done_Buffer;
 243:AS76.c        ****     HomeZ_done = HomeZ_done_Buffer;
 244:AS76.c        ****     HomeT_done = HomeT_done_Buffer;
 245:AS76.c        ****     CyDelayUs(100);
 246:AS76.c        ****     Write_32bitSPI_DATA (0x21  , (int) 0x0000000, Motor); // Mark the current postion as 0
 247:AS76.c        ****     Write_32bitSPI_DATA (0x2D  , 0x00000000, Motor ); // Set thye target position as 0
 248:AS76.c        ****     update_max_velocity(381178, Motor); // update the motor speed to to 10 rotations per second 536
 249:AS76.c        ****     Write_32bitSPI_DATA (0x0B  , (int) 150, Motor );
 250:AS76.c        ****     Write_32bitSPI_DATA (0x10  , (int) 0x00070101, Motor );
 251:AS76.c        ****     //Write_32bitSPI_DATA (0x25  , (51200*5)-100, Motor );
 252:AS76.c        **** 
 253:AS76.c        **** 
 254:AS76.c        ****     QuadDec_X_SetCounter(0); //set the encoder counter value as 0
 255:AS76.c        ****     X_QuadPosition =0 ; // set the encoder variable to 0
 256:AS76.c        ****     HomeX_done = true;
 257:AS76.c        ****     HomeX_done_Buffer = true;
 258:AS76.c        ****     Write_Debug_UART_Char("HomeX executed  \r\n");
 259:AS76.c        ****     Write_32bitSPI_DATA (0x10  , (int) 0x00070101, TMC5160_nCS_MotorX );
 260:AS76.c        ****     Write_32bitSPI_DATA (0x10  , (int) 0x00070101, TMC5160_nCS_MotorY );
 261:AS76.c        ****     Write_32bitSPI_DATA (0x10  , (int) 0x00070101, TMC5160_nCS_MotorZ );
 262:AS76.c        ****     CyDelayUs(500);
 263:AS76.c        ****     TMC5160_MotorY_EN_Write(0x00);
 264:AS76.c        ****     CyDelayUs(500);
 265:AS76.c        ****     TMC5160_MotorZ_EN_Write(0x00);
 266:AS76.c        **** 
 267:AS76.c        **** }
 268:AS76.c        **** 
 269:AS76.c        **** ///////////////////////////////////////////////////////////////////////////////////////
 270:AS76.c        **** 
 271:AS76.c        **** /////////////////////////////////////Homing Y//////////////////////////////////////////
 272:AS76.c        **** 
 273:AS76.c        **** /* --------------------------------------------------------------------------------------------
 274:AS76.c        **** Function Name        : homeY
 275:AS76.c        **** 
 276:AS76.c        **** Prerequist Knowledge : Homing of stepper motor system, TM5160 Datasheet, Encoders
ARM GAS  C:\Users\Revanth\AppData\Local\Temp\ccvmpTGe.s 			page 7


 277:AS76.c        **** 
 278:AS76.c        **** Function Description : This Function is used to home the motor Y, where motor moves at specific
 279:AS76.c        ****                        Low speed towards left until it hits the limit switch on the left side then 
 280:AS76.c        ****                        motor rotates 1 rotation next the motor moves at specific Low speed towards 
 281:AS76.c        ****                        left until it hits the limit switch then motor gain moves 1 rotaion with ste
 282:AS76.c        ****                        loss correction and that point TMC5160 marks as position 0 and resets the Y 
 283:AS76.c        ****                        Channel encoder.
 284:AS76.c        **** 
 285:AS76.c        **** Return Type & Data   :Void
 286:AS76.c        **** 
 287:AS76.c        **** Variable Updation: status_y, Error, Y_QuadPosition
 288:AS76.c        **** 
 289:AS76.c        **** Numnber of Arguments : 1
 290:AS76.c        **** 
 291:AS76.c        **** -----Argument 1-----
 292:AS76.c        **** Name                 : Motor
 293:AS76.c        **** Tupe                 : uint8_t
 294:AS76.c        **** Description          : This Argument Represents the driver channel
 295:AS76.c        **** Condition            : This Value must range from 0x00 to 0x04 since there are only 5 channels
 296:AS76.c        ****                        available in AS76 System Configuration, condition to be checked in 
 297:AS76.c        ****                        SPI_MOTOR_CHIP_SELECT Function                       
 298:AS76.c        **** --------------------
 299:AS76.c        **** 
 300:AS76.c        **** 
 301:AS76.c        **** 
 302:AS76.c        **** ---------------------------------------------------------------------------------------------*/
 303:AS76.c        **** 
 304:AS76.c        **** void homeY(uint8_t Motor)
 305:AS76.c        **** {
 306:AS76.c        ****     TMC5160_MotorZ_EN_Write(0xFF);
 307:AS76.c        ****     CyDelayUs(500);
 308:AS76.c        ****     TMC5160_MotorX_EN_Write(0xFF);
 309:AS76.c        ****     CyDelayUs(500);
 310:AS76.c        ****     TMC5160_MotorY_EN_Write(0x00);
 311:AS76.c        ****     CyDelayUs(500);
 312:AS76.c        ****     update_max_velocity((307200), Motor);
 313:AS76.c        ****     Write_32bitSPI_DATA (0x20  , (int) 0x00000002, Motor );
 314:AS76.c        ****     CyDelayUs(50);
 315:AS76.c        ****     Read_32bitSPI_DATA(0x04, Motor, &status_y);
 316:AS76.c        ****     CyDelayUs(500);
 317:AS76.c        ****     Read_32bitSPI_DATA(0x04, Motor, &status_y);
 318:AS76.c        ****     while ( (status_y & 0x40) == 0x00)
 319:AS76.c        ****     {
 320:AS76.c        ****         wait_timer_Start();
 321:AS76.c        ****         wait_interrupt_StartEx(wait_interrupt_Handler);
 322:AS76.c        ****         Read_32bitSPI_DATA(0x04, Motor, &status_y);
 323:AS76.c        ****        
 324:AS76.c        ****         if(exit_loop == 1)
 325:AS76.c        ****         {
 326:AS76.c        ****         Error = 8;
 327:AS76.c        ****         Send_Feedback_to_USB(Error);
 328:AS76.c        ****         wait_timer_Stop();
 329:AS76.c        ****         Write_32bitSPI_DATA (0x20  , (int) 0x00000000, Motor );
 330:AS76.c        ****         Write_32bitSPI_DATA (0x21  , (int) 0x0000000, Motor); // Mark the current postion as 0
 331:AS76.c        ****         Write_32bitSPI_DATA (0x2D  , 0x00000000, Motor ); // Set thye target position as 0
 332:AS76.c        ****         exit_loop = 0;
 333:AS76.c        ****         Error = 0;
ARM GAS  C:\Users\Revanth\AppData\Local\Temp\ccvmpTGe.s 			page 8


 334:AS76.c        ****         return;
 335:AS76.c        ****         }
 336:AS76.c        ****     CyDelayUs(100);
 337:AS76.c        ****     }
 338:AS76.c        ****     wait_timer_Stop();
 339:AS76.c        ****     exit_loop =0;
 340:AS76.c        ****     
 341:AS76.c        ****     
 342:AS76.c        ****     Write_32bitSPI_DATA (0x21  , (int) 0x0000000, Motor);
 343:AS76.c        ****     CyDelayUs(10);
 344:AS76.c        ****     /*
 345:AS76.c        ****     GotoPos(((256*200)*1), Motor);
 346:AS76.c        ****     CyDelayUs(500);
 347:AS76.c        ****     Read_32bitSPI_DATA(0x04, Motor, &status_y);
 348:AS76.c        ****     CyDelayUs(500);
 349:AS76.c        ****     Read_32bitSPI_DATA(0x04, Motor, &status_y);
 350:AS76.c        ****     while ( (status_y & 0x20) == 0x00)
 351:AS76.c        ****     {
 352:AS76.c        ****        Read_32bitSPI_DATA(0x04, Motor, &status_y);
 353:AS76.c        ****         CyDelayUs(100);
 354:AS76.c        ****        
 355:AS76.c        ****     }
 356:AS76.c        ****     Write_32bitSPI_DATA (0x0B  , (int) 180, Motor );
 357:AS76.c        ****     Write_32bitSPI_DATA (0x10  , (int) 0x00070103, Motor );
 358:AS76.c        ****     update_max_velocity(53687, Motor);
 359:AS76.c        ****     Write_32bitSPI_DATA (0x20  , (int) 0x00000002, Motor );
 360:AS76.c        ****     CyDelayUs(200);
 361:AS76.c        ****     Read_32bitSPI_DATA(0x04, Motor, &status_y);
 362:AS76.c        ****     CyDelayUs(500);
 363:AS76.c        ****     Read_32bitSPI_DATA(0x04, Motor, &status_y);
 364:AS76.c        ****     while ( (status_y & 0x40) == 0x00)
 365:AS76.c        ****     {
 366:AS76.c        ****        Read_32bitSPI_DATA(0x04, Motor, &status_y);
 367:AS76.c        ****        CyDelayUs(100);
 368:AS76.c        ****     }
 369:AS76.c        ****     */
 370:AS76.c        **** 
 371:AS76.c        ****     Write_32bitSPI_DATA (0x21  , (int) 0x0000000, Motor);
 372:AS76.c        ****     //Y_last_position = 0;
 373:AS76.c        ****     QuadDec_Y_SetCounter(0);
 374:AS76.c        ****     HomeX_done = true;
 375:AS76.c        ****     HomeY_done = true;
 376:AS76.c        ****     HomeZ_done = true;
 377:AS76.c        ****     HomeT_done = true;
 378:AS76.c        ****     CyDelayUs(100);
 379:AS76.c        ****     //goTo_Y((256*200)*1);
 380:AS76.c        ****     goTo_Y(19200);
 381:AS76.c        ****     HomeX_done = HomeX_done_Buffer;
 382:AS76.c        ****     HomeY_done = HomeY_done_Buffer;
 383:AS76.c        ****     HomeZ_done = HomeZ_done_Buffer;
 384:AS76.c        ****     HomeT_done = HomeT_done_Buffer;
 385:AS76.c        ****     CyDelayUs(100);
 386:AS76.c        ****     Write_32bitSPI_DATA (0x21  , (int) 0x0000000, Motor); 
 387:AS76.c        ****     Write_32bitSPI_DATA (0x2D  , 0x00000000, Motor );
 388:AS76.c        ****     update_max_velocity(381178, Motor);
 389:AS76.c        ****     Write_32bitSPI_DATA (0x0B  , 0, Motor );
 390:AS76.c        ****     Write_32bitSPI_DATA (0x10  , (int) 0x00070101, Motor );
ARM GAS  C:\Users\Revanth\AppData\Local\Temp\ccvmpTGe.s 			page 9


 391:AS76.c        ****     //Write_32bitSPI_DATA (0x25  , (51200*5)-100, Motor );
 392:AS76.c        **** 
 393:AS76.c        ****     //Y_last_position = 0;
 394:AS76.c        ****     QuadDec_Y_SetCounter(0);
 395:AS76.c        ****     X_QuadPosition =0 ;
 396:AS76.c        ****     HomeY_done = true;
 397:AS76.c        ****     HomeY_done_Buffer = true;
 398:AS76.c        ****     Write_Debug_UART_Char("HomeY executed  \r\n");
 399:AS76.c        ****     Write_32bitSPI_DATA (0x10  , (int) 0x00070101, TMC5160_nCS_MotorX );
 400:AS76.c        ****     Write_32bitSPI_DATA (0x10  , (int) 0x00070101, TMC5160_nCS_MotorY );
 401:AS76.c        ****     Write_32bitSPI_DATA (0x10  , (int) 0x00070101, TMC5160_nCS_MotorZ );
 402:AS76.c        ****     CyDelayUs(500);
 403:AS76.c        ****     TMC5160_MotorX_EN_Write(0x00);
 404:AS76.c        ****     CyDelayUs(500);
 405:AS76.c        ****     TMC5160_MotorZ_EN_Write(0x00);
 406:AS76.c        **** 
 407:AS76.c        **** }
 408:AS76.c        **** 
 409:AS76.c        **** ////////////////////////////////////////////////////////////////////////////////////////////
 410:AS76.c        **** 
 411:AS76.c        **** //////////////////////////////////////////Homing Z//////////////////////////////////////////
 412:AS76.c        **** 
 413:AS76.c        **** /* --------------------------------------------------------------------------------------------
 414:AS76.c        **** Function Name        : homeZ
 415:AS76.c        **** 
 416:AS76.c        **** Prerequist Knowledge : Homing of stepper motor system, TM5160 Datasheet, Encoders
 417:AS76.c        **** 
 418:AS76.c        **** Function Description : This Function is used to home the motor Z, where motor moves at specific
 419:AS76.c        ****                        Low speed towards left until it hits the limit switch on the left side then 
 420:AS76.c        ****                        motor rotates 1 rotation next the motor moves at specific Low speed towards 
 421:AS76.c        ****                        left until it hits the limit switch then motor gain moves 1 rotaion with ste
 422:AS76.c        ****                        loss correction and that point TMC5160 marks as position 0 and resets the Z 
 423:AS76.c        ****                        Channel encoder.
 424:AS76.c        **** 
 425:AS76.c        **** Return Type & Data   :Void
 426:AS76.c        **** 
 427:AS76.c        **** Variable Updation: status_z, Error, Z_QuadPosition
 428:AS76.c        **** 
 429:AS76.c        **** Numnber of Arguments : 1
 430:AS76.c        **** 
 431:AS76.c        **** -----Argument 1-----
 432:AS76.c        **** Name                 : Motor
 433:AS76.c        **** Tupe                 : uint8_t
 434:AS76.c        **** Description          : This Argument Represents the driver channel
 435:AS76.c        **** Condition            : This Value must range from 0x00 to 0x04 since there are only 5 channels
 436:AS76.c        ****                        available in AS76 System Configuration, condition to be checked in 
 437:AS76.c        ****                        SPI_MOTOR_CHIP_SELECT Function                       
 438:AS76.c        **** --------------------
 439:AS76.c        **** 
 440:AS76.c        **** 
 441:AS76.c        **** 
 442:AS76.c        **** ---------------------------------------------------------------------------------------------*/
 443:AS76.c        **** 
 444:AS76.c        **** void homeZ(uint8_t Motor)
 445:AS76.c        **** {
 446:AS76.c        ****     TMC5160_MotorZ_EN_Write(0xFF);
 447:AS76.c        ****     CyDelayUs(500);
ARM GAS  C:\Users\Revanth\AppData\Local\Temp\ccvmpTGe.s 			page 10


 448:AS76.c        ****     TMC5160_MotorY_EN_Write(0xFF);
 449:AS76.c        ****     CyDelayUs(500);
 450:AS76.c        ****     TMC5160_MotorX_EN_Write(0x00);
 451:AS76.c        ****     CyDelayUs(500);
 452:AS76.c        ****     update_max_velocity((53687*2), Motor);
 453:AS76.c        ****     Enable_Encoder_Z(-Buffer_Z_QuadPosition);
 454:AS76.c        ****     Write_32bitSPI_DATA (0x20  , (int) 0x00000002, Motor );
 455:AS76.c        ****     CyDelayUs(50);
 456:AS76.c        ****     Read_32bitSPI_DATA(0x04, Motor, &status_z);
 457:AS76.c        ****     CyDelayUs(500);
 458:AS76.c        ****     Read_32bitSPI_DATA(0x04, Motor, &status_z);
 459:AS76.c        ****     while ( (status_z & 0x40) == 0x00)
 460:AS76.c        ****     {
 461:AS76.c        ****        wait_timer_Start();
 462:AS76.c        ****        wait_interrupt_StartEx(wait_interrupt_Handler);
 463:AS76.c        ****        Read_32bitSPI_DATA(0x04, Motor, &status_z);
 464:AS76.c        ****        if(exit_loop == 1)
 465:AS76.c        ****             {
 466:AS76.c        ****             Error = 15;
 467:AS76.c        ****             Send_Feedback_to_USB(Error);
 468:AS76.c        ****             wait_timer_Stop();
 469:AS76.c        ****             Write_32bitSPI_DATA (0x20  , (int) 0x00000000, Motor );
 470:AS76.c        ****             Write_32bitSPI_DATA (0x21  , (int) 0x0000000, Motor); // Mark the current postion as 0
 471:AS76.c        ****             Write_32bitSPI_DATA (0x2D  , 0x00000000, Motor ); // Set thye target position as 0
 472:AS76.c        ****             exit_loop = 0;
 473:AS76.c        ****             return;
 474:AS76.c        ****             //break;
 475:AS76.c        ****             }
 476:AS76.c        ****        CyDelayUs(100);
 477:AS76.c        ****     }
 478:AS76.c        ****     wait_timer_Stop();
 479:AS76.c        ****     exit_loop =0;
 480:AS76.c        ****     
 481:AS76.c        ****     Write_32bitSPI_DATA (0x21  , (int) 0x0000000, Motor);
 482:AS76.c        ****     //Z_last_position = 0;
 483:AS76.c        ****     Enable_Encoder_Z(0);
 484:AS76.c        ****     Buffer_Z_QuadPosition=0;
 485:AS76.c        ****     CyDelayUs(10);
 486:AS76.c        ****     /*
 487:AS76.c        ****     GotoPos(((256*200)*1), Motor);
 488:AS76.c        ****     CyDelayUs(500);
 489:AS76.c        ****     Read_32bitSPI_DATA(0x04, Motor, &status_z);
 490:AS76.c        ****     CyDelayUs(500);
 491:AS76.c        ****     Read_32bitSPI_DATA(0x04, Motor, &status_z);
 492:AS76.c        ****     while ( (status_z & 0x20) == 0x00)
 493:AS76.c        ****     {
 494:AS76.c        ****        Read_32bitSPI_DATA(0x04, Motor, &status_z);
 495:AS76.c        ****         CyDelayUs(100);
 496:AS76.c        ****        
 497:AS76.c        ****     }
 498:AS76.c        ****     update_max_velocity(53687, Motor);
 499:AS76.c        ****     Write_32bitSPI_DATA (0x20  , (int) 0x00000002, Motor );
 500:AS76.c        ****     CyDelayUs(200);
 501:AS76.c        ****     Read_32bitSPI_DATA(0x04, Motor, &status_z);
 502:AS76.c        ****     CyDelayUs(500);
 503:AS76.c        ****     Read_32bitSPI_DATA(0x04, Motor, &status_z);
 504:AS76.c        ****     while ( (status_z & 0x40) == 0x00)
ARM GAS  C:\Users\Revanth\AppData\Local\Temp\ccvmpTGe.s 			page 11


 505:AS76.c        ****     {
 506:AS76.c        ****        Read_32bitSPI_DATA(0x04, Motor, &status_z);
 507:AS76.c        ****        CyDelayUs(100);
 508:AS76.c        ****     }
 509:AS76.c        ****     */
 510:AS76.c        **** 
 511:AS76.c        ****     Write_32bitSPI_DATA (0x21  , (int) 0x0000000, Motor);
 512:AS76.c        ****     //Z_last_position = 0;
 513:AS76.c        ****     Enable_Encoder_Z(0);
 514:AS76.c        ****     Buffer_Z_QuadPosition=0;
 515:AS76.c        ****     HomeX_done = true;
 516:AS76.c        ****     HomeY_done = true;
 517:AS76.c        ****     HomeZ_done = true;
 518:AS76.c        ****     HomeT_done = true;
 519:AS76.c        ****     CyDelayUs(100);
 520:AS76.c        ****     goTo_Z(((256*200)*1));
 521:AS76.c        ****     HomeX_done = HomeX_done_Buffer;
 522:AS76.c        ****     HomeY_done = HomeY_done_Buffer;
 523:AS76.c        ****     HomeZ_done = HomeZ_done_Buffer;
 524:AS76.c        ****     HomeT_done = HomeT_done_Buffer;
 525:AS76.c        ****     CyDelayUs(100);
 526:AS76.c        ****     Write_32bitSPI_DATA (0x21  , (int) 0x0000000, Motor); 
 527:AS76.c        ****     Write_32bitSPI_DATA (0x2D  , 0x00000000, Motor );
 528:AS76.c        ****     update_max_velocity(53687*2, Motor);
 529:AS76.c        **** 
 530:AS76.c        ****     //Z_last_position = 0;
 531:AS76.c        ****     Enable_Encoder_Z(0);
 532:AS76.c        ****     Buffer_Z_QuadPosition=0;
 533:AS76.c        ****     HomeZ_done = true;
 534:AS76.c        ****     HomeZ_done_Buffer = true;
 535:AS76.c        ****     Write_Debug_UART_Char("HomeZ executed  \r\n");
 536:AS76.c        ****     Write_32bitSPI_DATA (0x10  , (int) 0x00070101, TMC5160_nCS_MotorX );
 537:AS76.c        ****     Write_32bitSPI_DATA (0x10  , (int) 0x00070101, TMC5160_nCS_MotorY );
 538:AS76.c        ****     Write_32bitSPI_DATA (0x10  , (int) 0x00070101, TMC5160_nCS_MotorZ );
 539:AS76.c        ****     CyDelayUs(500);
 540:AS76.c        ****     TMC5160_MotorY_EN_Write(0x00);
 541:AS76.c        ****     CyDelayUs(500);
 542:AS76.c        ****     TMC5160_MotorX_EN_Write(0x00);
 543:AS76.c        **** 
 544:AS76.c        **** }
 545:AS76.c        **** 
 546:AS76.c        **** ///////////////////////////////////////////////////////////////////////////////////////
 547:AS76.c        **** 
 548:AS76.c        **** /////////////////////////////////////Homing T//////////////////////////////////////////
 549:AS76.c        **** 
 550:AS76.c        **** void homeT(uint8_t Motor)
 551:AS76.c        **** {
 552:AS76.c        ****     TMC5160_MotorT_EN_Write(0x00);
 553:AS76.c        ****     CyDelayUs(100);
 554:AS76.c        ****     update_max_velocity(12800, Motor);
 555:AS76.c        ****     Enable_Encoder_T(-Buffer_T_QuadPosition);
 556:AS76.c        ****     Write_32bitSPI_DATA (0x20  , (int) 0x00000002, Motor );
 557:AS76.c        ****     CyDelayUs(50);
 558:AS76.c        ****     Read_32bitSPI_DATA(0x04, Motor, &status_z);
 559:AS76.c        ****     CyDelayUs(500);
 560:AS76.c        ****     Read_32bitSPI_DATA(0x04, Motor, &status_z);
 561:AS76.c        ****     while ( (status_z & 0x40) == 0x00)
ARM GAS  C:\Users\Revanth\AppData\Local\Temp\ccvmpTGe.s 			page 12


 562:AS76.c        ****     {
 563:AS76.c        ****        wait_timer_Start();
 564:AS76.c        ****        wait_interrupt_StartEx(wait_interrupt_Handler);
 565:AS76.c        ****        Read_32bitSPI_DATA(0x04, Motor, &status_z);
 566:AS76.c        ****        if(exit_loop == 1)
 567:AS76.c        ****             {
 568:AS76.c        ****             Error = 22;
 569:AS76.c        ****             Send_Feedback_to_USB(Error);
 570:AS76.c        ****             wait_timer_Stop();
 571:AS76.c        ****             Write_32bitSPI_DATA (0x20  , (int) 0x00000000, Motor );
 572:AS76.c        ****             Write_32bitSPI_DATA (0x21  , (int) 0x0000000, Motor); // Mark the current postion as 0
 573:AS76.c        ****             Write_32bitSPI_DATA (0x2D  , 0x00000000, Motor ); // Set thye target position as 0
 574:AS76.c        ****             exit_loop = 0;
 575:AS76.c        ****             Error =0;
 576:AS76.c        ****             return;
 577:AS76.c        ****             //break;
 578:AS76.c        ****             }
 579:AS76.c        ****        CyDelayUs(100);
 580:AS76.c        ****     }
 581:AS76.c        ****     wait_timer_Stop();
 582:AS76.c        ****     exit_loop =0;
 583:AS76.c        ****     
 584:AS76.c        ****     Write_32bitSPI_DATA (0x21  , (int) 0x0000000, Motor);
 585:AS76.c        ****     CyDelayUs(10);
 586:AS76.c        ****     /*
 587:AS76.c        ****     GotoPos((12800), Motor);
 588:AS76.c        ****     CyDelayUs(500);
 589:AS76.c        ****     Read_32bitSPI_DATA(0x04, Motor, &status_z);
 590:AS76.c        ****     CyDelayUs(500);
 591:AS76.c        ****     Read_32bitSPI_DATA(0x04, Motor, &status_z);
 592:AS76.c        ****     while ( (status_z & 0x20) == 0x00)
 593:AS76.c        ****     {
 594:AS76.c        ****        Read_32bitSPI_DATA(0x04, Motor, &status_z);
 595:AS76.c        ****         CyDelayUs(100);
 596:AS76.c        ****        
 597:AS76.c        ****     }
 598:AS76.c        ****     update_max_velocity(12800, Motor);
 599:AS76.c        ****     Write_32bitSPI_DATA (0x20  , (int) 0x00000002, Motor );
 600:AS76.c        ****     CyDelayUs(200);
 601:AS76.c        ****     Read_32bitSPI_DATA(0x04, Motor, &status_y);
 602:AS76.c        ****     CyDelay0Us(500);
 603:AS76.c        ****     Read_32bitSPI_DATA(0x04, Motor, &status_y);
 604:AS76.c        ****     while ( (status_y & 0x40) == 0x00)
 605:AS76.c        ****     {
 606:AS76.c        ****        Read_32bitSPI_DATA(0x04, Motor, &status_y);
 607:AS76.c        ****        CyDelayUs(100);
 608:AS76.c        ****     }
 609:AS76.c        ****     */
 610:AS76.c        ****     Write_32bitSPI_DATA (0x21  , (int) 0x0000000, Motor);
 611:AS76.c        ****     //T_last_position = 0;
 612:AS76.c        ****     Enable_Encoder_T(0);
 613:AS76.c        ****     Buffer_T_QuadPosition=0;
 614:AS76.c        ****     HomeX_done = true;
 615:AS76.c        ****     HomeY_done = true;
 616:AS76.c        ****     HomeZ_done = true;
 617:AS76.c        ****     HomeT_done = true;
 618:AS76.c        ****     CyDelayUs(100); 
ARM GAS  C:\Users\Revanth\AppData\Local\Temp\ccvmpTGe.s 			page 13


 619:AS76.c        ****     goTo_T(3800);
 620:AS76.c        ****     HomeX_done = HomeX_done_Buffer;
 621:AS76.c        ****     HomeY_done = HomeY_done_Buffer;
 622:AS76.c        ****     HomeZ_done = HomeZ_done_Buffer;
 623:AS76.c        ****     HomeT_done = HomeT_done_Buffer;
 624:AS76.c        ****     CyDelayUs(100);
 625:AS76.c        ****     Write_32bitSPI_DATA (0x21  , (int) 0x0000000, Motor); 
 626:AS76.c        ****     Write_32bitSPI_DATA (0x2D  , 0x00000000, Motor );
 627:AS76.c        ****     update_max_velocity(12800, Motor);
 628:AS76.c        **** 
 629:AS76.c        ****     //T_last_position = 0;
 630:AS76.c        ****     Enable_Encoder_T(0);
 631:AS76.c        ****     Buffer_T_QuadPosition=0;
 632:AS76.c        ****     HomeT_done = true;
 633:AS76.c        ****     HomeT_done_Buffer = true;
 634:AS76.c        ****     Write_Debug_UART_Char("HomeT executed  \r\n");
 635:AS76.c        ****     TMC5160_MotorT_EN_Write(0xFF);
 636:AS76.c        ****     CyDelayUs(100);
 637:AS76.c        **** }
 638:AS76.c        **** 
 639:AS76.c        **** ///////////////////////////////////////////////////////////////////////////////////////////////////
 640:AS76.c        **** /////////////////////////////////////Go to Position in X Axis//////////////////////////////////////
 641:AS76.c        **** 
 642:AS76.c        **** int goTo_X(int32 Position_X_Requested)
 643:AS76.c        **** {
 644:AS76.c        ****       
 645:AS76.c        ****     if(if_all_homing_done())
 646:AS76.c        ****     
 647:AS76.c        ****     {
 648:AS76.c        ****         Write_32bitSPI_DATA (0x10  , (int) 0x00070103, TMC5160_nCS_MotorY );
 649:AS76.c        ****         Write_32bitSPI_DATA (0x10  , (int) 0x00070102, TMC5160_nCS_MotorZ );
 650:AS76.c        ****         Write_32bitSPI_DATA (0x10  , (int) 0x0007030A, TMC5160_nCS_MotorX );
 651:AS76.c        ****         //Position_X_Move = Position_X_Move + Position_X_Requested;
 652:AS76.c        ****         Error = 0;
 653:AS76.c        ****         Read_All_Optical_Encoder();
 654:AS76.c        ****         //X_last_position = X_QuadPosition;
 655:AS76.c        ****         Write_Debug_UART_Char("GotoX Command Recived--->");
 656:AS76.c        ****         GotoPos(Position_X_Requested, TMC5160_nCS_MotorX); // If provided value is position and not
 657:AS76.c        ****         WaitTillPositionReached (TMC5160_nCS_MotorX);
 658:AS76.c        ****         CyDelayUs(50);
 659:AS76.c        ****         //GotoPos(Position_X_Move, TMC5160_nCS_MotorX); // If provided value is steps to move and n
 660:AS76.c        ****         Write_Debug_UART_Int(Position_X_Requested);
 661:AS76.c        ****         Write_Debug_UART_Char("  \r\n");
 662:AS76.c        ****         //Step_correction_x(Position_X_Requested);
 663:AS76.c        ****         Read_All_Optical_Encoder();
 664:AS76.c        ****         X_QuadPosition = Input_Position_X_Temp;
 665:AS76.c        ****         return Error;
 666:AS76.c        ****     }
 667:AS76.c        ****     else
 668:AS76.c        ****     {
 669:AS76.c        ****         Write_Debug_UART_Char("Homing Not Done");
 670:AS76.c        ****         Error = 32;
 671:AS76.c        ****         return Error;
 672:AS76.c        ****     }
 673:AS76.c        ****     
 674:AS76.c        **** }
 675:AS76.c        **** 
ARM GAS  C:\Users\Revanth\AppData\Local\Temp\ccvmpTGe.s 			page 14


 676:AS76.c        **** int Step_correction_x(int32 steps)
 677:AS76.c        **** {  
 678:AS76.c        ****     int32 Encoder_Position_X_Requested =0;
 679:AS76.c        ****     uint8_t temp;
 680:AS76.c        ****     int32 new_step=0;
 681:AS76.c        ****     //int32 diff_encoder_value=0;
 682:AS76.c        ****     int32 encoder_error_value = 0;
 683:AS76.c        ****     Encoder_Position_X_Requested = steps/X_Pitchfactor;
 684:AS76.c        ****     
 685:AS76.c        ****     for(temp=0; temp<=5; temp++)
 686:AS76.c        ****     {
 687:AS76.c        ****     Read_All_Optical_Encoder();
 688:AS76.c        ****     
 689:AS76.c        ****     encoder_error_value = Encoder_Position_X_Requested - X_QuadPosition;
 690:AS76.c        ****     if(encoder_error_value >= 2000)
 691:AS76.c        ****     {
 692:AS76.c        ****         Error=  2;
 693:AS76.c        ****         return Error;
 694:AS76.c        ****     }
 695:AS76.c        ****     new_step= encoder_error_value* X_Pitchfactor ;
 696:AS76.c        ****     
 697:AS76.c        ****        
 698:AS76.c        ****     if((abs(encoder_error_value))>= X_max_error_After_Correction )
 699:AS76.c        ****     {
 700:AS76.c        ****       new_step = new_step+steps;     
 701:AS76.c        ****       GotoPos(new_step, TMC5160_nCS_MotorX);
 702:AS76.c        ****       WaitTillPositionReached (TMC5160_nCS_MotorX);
 703:AS76.c        ****       CyDelayUs(50);
 704:AS76.c        ****       Write_32bitSPI_DATA (0x21  , steps, TMC5160_nCS_MotorX );
 705:AS76.c        ****     }
 706:AS76.c        ****     }
 707:AS76.c        ****     Read_All_Optical_Encoder();
 708:AS76.c        ****     encoder_error_value = Encoder_Position_X_Requested - X_QuadPosition;
 709:AS76.c        ****     if((temp>5))
 710:AS76.c        ****     {
 711:AS76.c        ****      if(((abs(encoder_error_value))>= X_max_error_After_Correction ) && ((abs(encoder_error_value))
 712:AS76.c        ****      {
 713:AS76.c        ****         Write_Debug_UART_Char("Fail to reach X position \r\n");
 714:AS76.c        ****         LED3_Write(0xFF);
 715:AS76.c        ****         Error=  1;
 716:AS76.c        ****      }
 717:AS76.c        ****     
 718:AS76.c        ****      else if ( ((abs(encoder_error_value))>2000))
 719:AS76.c        ****      {
 720:AS76.c        ****        Write_Debug_UART_Char("X Encoder or X Motor Might Not be Working \r\n");
 721:AS76.c        ****        Error=  2;
 722:AS76.c        ****      }
 723:AS76.c        ****     
 724:AS76.c        ****      else
 725:AS76.c        ****      {
 726:AS76.c        ****         Write_Debug_UART_Char("X position Reached");
 727:AS76.c        ****         Error = 0;
 728:AS76.c        ****         Write_32bitSPI_DATA (0x21  , steps, TMC5160_nCS_MotorX );
 729:AS76.c        ****         CyDelayUs(500);
 730:AS76.c        ****         
 731:AS76.c        ****      }
 732:AS76.c        ****     
ARM GAS  C:\Users\Revanth\AppData\Local\Temp\ccvmpTGe.s 			page 15


 733:AS76.c        ****     }
 734:AS76.c        ****     
 735:AS76.c        ****     return Error;
 736:AS76.c        **** }
 737:AS76.c        **** 
 738:AS76.c        **** ///////////////////////////////////////////////////////////////////////////////////////////////////
 739:AS76.c        **** /////////////////////////////////////Go to Position in Y Axis//////////////////////////////////////
 740:AS76.c        **** 
 741:AS76.c        **** int goTo_Y(int32 Position_Y_Requested)
 742:AS76.c        **** {   
 743:AS76.c        ****     if(if_all_homing_done())
 744:AS76.c        ****     {
 745:AS76.c        ****         Write_32bitSPI_DATA (0x10  , (int) 0x00070103, TMC5160_nCS_MotorX );
 746:AS76.c        ****         Write_32bitSPI_DATA (0x10  , (int) 0x00070102, TMC5160_nCS_MotorZ );
 747:AS76.c        ****         Write_32bitSPI_DATA (0x10  , (int) 0x0007010A, TMC5160_nCS_MotorY );
 748:AS76.c        ****         
 749:AS76.c        ****         //Position_Y_Move = Position_Y_Move + Position_Y_Requested;
 750:AS76.c        ****         Error = 0;
 751:AS76.c        ****         Read_All_Optical_Encoder();
 752:AS76.c        ****         //Y_last_position = Y_QuadPosition;
 753:AS76.c        ****         Write_Debug_UART_Char("GotoX Command Recived--->");
 754:AS76.c        ****         GotoPos(Position_Y_Requested, TMC5160_nCS_MotorY); // If provided value is position and not
 755:AS76.c        ****         WaitTillPositionReached (TMC5160_nCS_MotorY);
 756:AS76.c        ****         CyDelayUs(50);
 757:AS76.c        ****         //GotoPos(Position_X_Move, TMC5160_nCS_MotorX); // If provided value is steps to move and n
 758:AS76.c        ****         Write_Debug_UART_Int(Position_Y_Requested);
 759:AS76.c        ****         Write_Debug_UART_Char("  \r\n");
 760:AS76.c        ****         Step_correction_y(Position_Y_Requested);
 761:AS76.c        ****         return Error;
 762:AS76.c        ****     }
 763:AS76.c        ****     else
 764:AS76.c        ****     {
 765:AS76.c        ****         Write_Debug_UART_Char("Homing Not Done");
 766:AS76.c        ****         Error = 32;
 767:AS76.c        ****         return Error;
 768:AS76.c        ****     }
 769:AS76.c        **** }
 770:AS76.c        **** 
 771:AS76.c        **** int Step_correction_y(int32 steps)
 772:AS76.c        **** {  
 773:AS76.c        ****     uint8_t temp=0;
 774:AS76.c        ****     int32 new_step=0;
 775:AS76.c        ****     int32 Encoder_Position_Y_Requested =0;
 776:AS76.c        ****     //int32 diff_encoder_value=0;
 777:AS76.c        ****     int32 encoder_error_value = 0;
 778:AS76.c        ****     Encoder_Position_Y_Requested = steps/12.8;
 779:AS76.c        ****     
 780:AS76.c        ****     for(temp=0; temp<=3; temp++)
 781:AS76.c        ****     {
 782:AS76.c        ****     Read_All_Optical_Encoder();
 783:AS76.c        ****     //diff_encoder_value = (X_QuadPosition - X_last_position);
 784:AS76.c        ****     encoder_error_value = Encoder_Position_Y_Requested - Y_QuadPosition;
 785:AS76.c        ****     new_step= encoder_error_value*12.8;
 786:AS76.c        ****     if(encoder_error_value >= 4000)
 787:AS76.c        ****     {
 788:AS76.c        ****         Error=  9;
 789:AS76.c        ****         break;
ARM GAS  C:\Users\Revanth\AppData\Local\Temp\ccvmpTGe.s 			page 16


 790:AS76.c        ****     }
 791:AS76.c        ****     if((abs(encoder_error_value))>=3)
 792:AS76.c        ****     {
 793:AS76.c        ****       new_step = new_step+steps;     
 794:AS76.c        ****       GotoPos(new_step, TMC5160_nCS_MotorY);
 795:AS76.c        ****       WaitTillPositionReached (TMC5160_nCS_MotorY);
 796:AS76.c        ****       CyDelayUs(50);
 797:AS76.c        ****       Write_32bitSPI_DATA (0x21  , steps, TMC5160_nCS_MotorY );
 798:AS76.c        ****     }
 799:AS76.c        ****     
 800:AS76.c        ****     }
 801:AS76.c        ****     
 802:AS76.c        ****     
 803:AS76.c        ****     Read_All_Optical_Encoder();
 804:AS76.c        ****     encoder_error_value = Encoder_Position_Y_Requested - Y_QuadPosition;
 805:AS76.c        ****     
 806:AS76.c        ****     if(temp>=4)
 807:AS76.c        ****     {
 808:AS76.c        ****      if(((abs(encoder_error_value))>=3) && ((abs(encoder_error_value))<2000) )
 809:AS76.c        ****      {
 810:AS76.c        ****         Write_Debug_UART_Char("Fail to reach Y position \r\n");
 811:AS76.c        ****         LED3_Write(0xFF);
 812:AS76.c        ****         Error=  8;
 813:AS76.c        ****      }
 814:AS76.c        ****     
 815:AS76.c        ****      else if ( ((abs(encoder_error_value))>2000))
 816:AS76.c        ****      {
 817:AS76.c        ****        Write_Debug_UART_Char("Y Encoder or Y Motor Might Not be Working \r\n"); 
 818:AS76.c        ****        Error=  9;
 819:AS76.c        ****      }
 820:AS76.c        ****     
 821:AS76.c        ****      else
 822:AS76.c        ****      {
 823:AS76.c        ****         Write_Debug_UART_Char("Y position Reached");
 824:AS76.c        ****         Error = 0;
 825:AS76.c        ****         
 826:AS76.c        ****      }
 827:AS76.c        ****     
 828:AS76.c        ****     }
 829:AS76.c        ****     
 830:AS76.c        ****     return Error;
 831:AS76.c        **** }
 832:AS76.c        **** 
 833:AS76.c        **** ///////////////////////////////////////////////////////////////////////////////////////////////////
 834:AS76.c        **** /////////////////////////////////////Go to Position in Z Axis//////////////////////////////////////
 835:AS76.c        **** 
 836:AS76.c        **** 
 837:AS76.c        **** int goTo_Z(int32 Position_Z_Requested)
 838:AS76.c        **** {
 839:AS76.c        ****     Write_32bitSPI_DATA (0x10  , (int) 0x00070103, TMC5160_nCS_MotorY );
 840:AS76.c        ****     Write_32bitSPI_DATA (0x10  , (int) 0x00070103, TMC5160_nCS_MotorX );
 841:AS76.c        ****     Write_32bitSPI_DATA (0x10  , (int) 0x00070102, TMC5160_nCS_MotorZ );
 842:AS76.c        ****     Position_Z_Requested =  Position_Z_Requested;
 843:AS76.c        ****     Enable_Encoder_Z(-Buffer_Z_QuadPosition);
 844:AS76.c        ****     if(if_all_homing_done())
 845:AS76.c        ****     {
 846:AS76.c        ****         Error = 0;
ARM GAS  C:\Users\Revanth\AppData\Local\Temp\ccvmpTGe.s 			page 17


 847:AS76.c        ****         Read_All_Optical_Encoder();
 848:AS76.c        ****         //Z_last_position = Z_QuadPosition;
 849:AS76.c        ****         Write_Debug_UART_Char("GotoZ Command Recived--->");
 850:AS76.c        ****         GotoPos(Position_Z_Requested, TMC5160_nCS_MotorZ); // If provided value is position and not
 851:AS76.c        ****         WaitTillPositionReached (TMC5160_nCS_MotorZ);
 852:AS76.c        ****         CyDelayUs(50);
 853:AS76.c        ****         //GotoPos(Position_X_Move, TMC5160_nCS_MotorX); // If provided value is steps to move and n
 854:AS76.c        ****         Write_Debug_UART_Int(Position_Z_Requested);
 855:AS76.c        ****         Write_Debug_UART_Char("  \r\n");
 856:AS76.c        ****         Step_correction_z(Position_Z_Requested);
 857:AS76.c        ****         Read_All_Optical_Encoder();
 858:AS76.c        ****         Buffer_Z_QuadPosition = Z_QuadPosition;
 859:AS76.c        ****         return Error;
 860:AS76.c        ****     }
 861:AS76.c        ****     else
 862:AS76.c        ****     {
 863:AS76.c        ****         Write_Debug_UART_Char("Homing Not Done");
 864:AS76.c        ****         Error = 32;
 865:AS76.c        ****         return Error;
 866:AS76.c        ****     }
 867:AS76.c        **** 
 868:AS76.c        **** }
 869:AS76.c        **** 
 870:AS76.c        **** int Step_correction_z(int32 steps)
 871:AS76.c        **** {  
 872:AS76.c        ****     uint8_t temp=0;
 873:AS76.c        ****     int32 new_step=0;
 874:AS76.c        ****     int32 Encoder_Position_Z_Requested =0;
 875:AS76.c        ****     //int32 diff_encoder_value=0;
 876:AS76.c        ****     int32 encoder_error_value = 0;
 877:AS76.c        ****     Encoder_Position_Z_Requested = steps/3.2;
 878:AS76.c        ****     
 879:AS76.c        ****     for(temp=0; temp<=5; temp++)
 880:AS76.c        ****     {
 881:AS76.c        ****     
 882:AS76.c        ****     Read_All_Optical_Encoder();
 883:AS76.c        ****     //diff_encoder_value = (X_QuadPosition - X_last_position);
 884:AS76.c        ****     encoder_error_value = Encoder_Position_Z_Requested - Z_QuadPosition;
 885:AS76.c        ****     new_step= encoder_error_value*3.2;
 886:AS76.c        ****     if(encoder_error_value >= 4000)
 887:AS76.c        ****     {
 888:AS76.c        ****         Error=  16;
 889:AS76.c        ****         break;
 890:AS76.c        ****     }
 891:AS76.c        ****     if((abs(encoder_error_value))>=3)
 892:AS76.c        ****     {
 893:AS76.c        ****       new_step = new_step+steps;     
 894:AS76.c        ****       GotoPos(new_step, TMC5160_nCS_MotorZ);
 895:AS76.c        ****       WaitTillPositionReached (TMC5160_nCS_MotorZ);
 896:AS76.c        ****       CyDelayUs(50);
 897:AS76.c        ****       Write_32bitSPI_DATA (0x21  , steps, TMC5160_nCS_MotorZ );
 898:AS76.c        ****     }
 899:AS76.c        ****     
 900:AS76.c        ****     }
 901:AS76.c        ****     
 902:AS76.c        ****     
 903:AS76.c        ****     Read_All_Optical_Encoder();
ARM GAS  C:\Users\Revanth\AppData\Local\Temp\ccvmpTGe.s 			page 18


 904:AS76.c        ****     encoder_error_value = Encoder_Position_Z_Requested - Z_QuadPosition;
 905:AS76.c        ****     
 906:AS76.c        ****     if(temp>=4)
 907:AS76.c        ****     {
 908:AS76.c        ****      if(((abs(encoder_error_value))>=5) && ((abs(encoder_error_value))<4000) )
 909:AS76.c        ****      {
 910:AS76.c        ****         Write_Debug_UART_Char("Fail to reach Z position \r\n");
 911:AS76.c        ****         LED2_Write(0xFF);
 912:AS76.c        ****         Error = 15;
 913:AS76.c        ****      }
 914:AS76.c        ****     
 915:AS76.c        ****      else if ( ((abs(encoder_error_value))>4000))
 916:AS76.c        ****      {
 917:AS76.c        ****        Write_Debug_UART_Char("Z Encoder or Z Motor Might Not be Working \r\n"); 
 918:AS76.c        ****        Error = 16;
 919:AS76.c        ****      }
 920:AS76.c        ****     
 921:AS76.c        ****      else
 922:AS76.c        ****      {
 923:AS76.c        ****        Write_Debug_UART_Char("Z position Reached");
 924:AS76.c        ****        Error = 0;
 925:AS76.c        ****         
 926:AS76.c        ****      }
 927:AS76.c        ****     
 928:AS76.c        ****     }
 929:AS76.c        ****     
 930:AS76.c        ****     return Error;
 931:AS76.c        **** }
 932:AS76.c        **** 
 933:AS76.c        **** /////////////////////////////////////Go to Position in T Axis//////////////////////////////////////
 934:AS76.c        **** 
 935:AS76.c        **** int goTo_T(int32 Position_T_Requested)
 936:AS76.c        **** {
 937:AS76.c        ****     TMC5160_MotorT_EN_Write(0x00);
 938:AS76.c        ****     CyDelayUs(100);
 939:AS76.c        ****     Enable_Encoder_T(-Buffer_T_QuadPosition);
 940:AS76.c        ****     if(if_all_homing_done())
 941:AS76.c        ****     {
 942:AS76.c        ****         Error = 0;
 943:AS76.c        ****         Read_All_Optical_Encoder();        
 944:AS76.c        ****         Write_Debug_UART_Char("GotoT Command Recived--->");
 945:AS76.c        ****         GotoPos(Position_T_Requested, TMC5160_nCS_MotorT); // If provided value is position and not
 946:AS76.c        ****         WaitTillPositionReached (TMC5160_nCS_MotorT);
 947:AS76.c        ****         CyDelayUs(50);
 948:AS76.c        ****         //GotoPos(Position_X_Move, TMC5160_nCS_MotorX); // If provided value is steps to move and n
 949:AS76.c        ****         Write_Debug_UART_Int(Position_T_Requested);
 950:AS76.c        ****         Write_Debug_UART_Char("  \r\n");
 951:AS76.c        ****         Step_correction_t(Position_T_Requested);
 952:AS76.c        ****         Read_All_Optical_Encoder();
 953:AS76.c        ****         Buffer_T_QuadPosition = T_QuadPosition;
 954:AS76.c        ****         TMC5160_MotorT_EN_Write(0xFF);
 955:AS76.c        ****         CyDelayUs (100);
 956:AS76.c        ****         return Error;
 957:AS76.c        ****     }
 958:AS76.c        ****     else
 959:AS76.c        ****     {
 960:AS76.c        ****         Write_Debug_UART_Char("Homing Not Done");
ARM GAS  C:\Users\Revanth\AppData\Local\Temp\ccvmpTGe.s 			page 19


 961:AS76.c        ****         Error = 32;
 962:AS76.c        ****          TMC5160_MotorT_EN_Write(0xFF);
 963:AS76.c        ****         CyDelayUs(100);
 964:AS76.c        ****         return Error;
 965:AS76.c        ****     }
 966:AS76.c        ****     //Buffer_T_QuadPosition = T_QuadPosition;
 967:AS76.c        **** }
 968:AS76.c        **** 
 969:AS76.c        **** int Step_correction_t(int32 steps)
 970:AS76.c        **** {  
 971:AS76.c        ****     uint8_t temp=0;
 972:AS76.c        ****     int32 new_step=0;
 973:AS76.c        ****     int32 Encoder_Position_T_Requested =0;
 974:AS76.c        ****     //int32 diff_encoder_value=0;
 975:AS76.c        ****     int32 encoder_error_value = 0;
 976:AS76.c        ****     Encoder_Position_T_Requested = steps/3.2;
 977:AS76.c        ****     
 978:AS76.c        ****     for(temp=0; temp<=3; temp++)
 979:AS76.c        ****     {
 980:AS76.c        ****     Read_All_Optical_Encoder();
 981:AS76.c        ****     //diff_encoder_value = (X_QuadPosition - X_last_position);
 982:AS76.c        ****     encoder_error_value = Encoder_Position_T_Requested - T_QuadPosition;
 983:AS76.c        ****     new_step= encoder_error_value*3.2;
 984:AS76.c        ****     if(encoder_error_value >= 4000)
 985:AS76.c        ****     {
 986:AS76.c        ****         Error=  23;
 987:AS76.c        ****         break;
 988:AS76.c        ****     }
 989:AS76.c        ****     
 990:AS76.c        ****     if((abs(encoder_error_value))>=5)
 991:AS76.c        ****     {
 992:AS76.c        ****       new_step = new_step+steps;     
 993:AS76.c        ****       GotoPos(new_step, TMC5160_nCS_MotorT);
 994:AS76.c        ****       WaitTillPositionReached (TMC5160_nCS_MotorT);
 995:AS76.c        ****       CyDelayUs(50);
 996:AS76.c        ****       Write_32bitSPI_DATA (0x21  , steps, TMC5160_nCS_MotorT );
 997:AS76.c        ****     }
 998:AS76.c        ****     
 999:AS76.c        ****     }
1000:AS76.c        ****     
1001:AS76.c        ****     Read_All_Optical_Encoder();
1002:AS76.c        ****     encoder_error_value = Encoder_Position_T_Requested - T_QuadPosition;
1003:AS76.c        ****     
1004:AS76.c        ****     if(temp>=4)
1005:AS76.c        ****     {
1006:AS76.c        ****      if(((abs(encoder_error_value))>=5) && ((abs(encoder_error_value))<4000) )
1007:AS76.c        ****      {
1008:AS76.c        ****         Write_Debug_UART_Char("Fail to reach T position \r\n");
1009:AS76.c        ****         Error = 22;
1010:AS76.c        ****      }
1011:AS76.c        ****     
1012:AS76.c        ****      else if ( ((abs(encoder_error_value))>4000))
1013:AS76.c        ****      {
1014:AS76.c        ****        Write_Debug_UART_Char("T Encoder or T Motor Might Not be Working \r\n"); 
1015:AS76.c        ****        Error = 23;
1016:AS76.c        ****      }
1017:AS76.c        ****     
ARM GAS  C:\Users\Revanth\AppData\Local\Temp\ccvmpTGe.s 			page 20


1018:AS76.c        ****      else
1019:AS76.c        ****      {
1020:AS76.c        ****         Write_Debug_UART_Char("T position Reached");
1021:AS76.c        ****         Error = 0;
1022:AS76.c        ****         
1023:AS76.c        ****      }
1024:AS76.c        ****     
1025:AS76.c        ****     }
1026:AS76.c        ****     
1027:AS76.c        ****     return Error;
1028:AS76.c        **** }
1029:AS76.c        **** 
1030:AS76.c        **** 
1031:AS76.c        **** ///////////////////////////////////////////////////////////////////////////////////////////////////
1032:AS76.c        **** /////////////////////////////////////Go to Position in XYZ Axis////////////////////////////////////
1033:AS76.c        **** 
1034:AS76.c        **** int goTo_XYZ(int32 Position_X_Requested,int32 Position_Y_Requested,int32 Position_Z_Requested)
1035:AS76.c        **** {
1036:AS76.c        ****     Read_All_Optical_Encoder();
1037:AS76.c        ****     //X_last_position = X_QuadPosition;
1038:AS76.c        ****     Write_Debug_UART_Char("GotoX Command Recived--->");
1039:AS76.c        ****     if(Position_X_Requested >= 0)
1040:AS76.c        ****     { 
1041:AS76.c        ****     GotoPos(Position_X_Requested, TMC5160_nCS_MotorX); // If provided value is position and not the
1042:AS76.c        ****     }
1043:AS76.c        ****     if(Position_Y_Requested >= 0)
1044:AS76.c        ****     { 
1045:AS76.c        ****     GotoPos(Position_Y_Requested, TMC5160_nCS_MotorY);
1046:AS76.c        ****     }
1047:AS76.c        ****     if(Position_Z_Requested >= 0)
1048:AS76.c        ****     { 
1049:AS76.c        ****     Enable_Encoder_Z(-Buffer_Z_QuadPosition);
1050:AS76.c        ****     GotoPos(Position_Z_Requested, TMC5160_nCS_MotorZ);
1051:AS76.c        ****     }
1052:AS76.c        ****     
1053:AS76.c        ****     if(Position_X_Requested >= 0)
1054:AS76.c        ****     {
1055:AS76.c        ****     WaitTillPositionReached (TMC5160_nCS_MotorX);
1056:AS76.c        ****     }
1057:AS76.c        ****     if(Position_Y_Requested >= 0)
1058:AS76.c        ****     {
1059:AS76.c        ****     WaitTillPositionReached (TMC5160_nCS_MotorY);
1060:AS76.c        ****     }
1061:AS76.c        ****     if(Position_Z_Requested >= 0)
1062:AS76.c        ****     {
1063:AS76.c        ****     WaitTillPositionReached (TMC5160_nCS_MotorZ);
1064:AS76.c        ****     }
1065:AS76.c        ****     
1066:AS76.c        ****     if(Position_X_Requested >= 0)
1067:AS76.c        ****     {
1068:AS76.c        ****     //Step_correction_x(Position_X_Requested);
1069:AS76.c        ****     //Read_All_Optical_Encoder();
1070:AS76.c        ****     }
1071:AS76.c        ****     //Send_Feedback_to_USB(Error);
1072:AS76.c        ****     if(Position_Y_Requested >= 0)
1073:AS76.c        ****     {
1074:AS76.c        ****     Step_correction_y(Position_Y_Requested);
ARM GAS  C:\Users\Revanth\AppData\Local\Temp\ccvmpTGe.s 			page 21


1075:AS76.c        ****     //Read_All_Optical_Encoder();
1076:AS76.c        ****     }
1077:AS76.c        ****     //Send_Feedback_to_USB(Error);
1078:AS76.c        ****     if(Position_Z_Requested >= 0)
1079:AS76.c        ****     {
1080:AS76.c        ****     Step_correction_z(Position_Z_Requested);    
1081:AS76.c        ****     Read_All_Optical_Encoder();
1082:AS76.c        ****     Buffer_Z_QuadPosition = Z_QuadPosition;
1083:AS76.c        ****     }
1084:AS76.c        ****     Read_All_Optical_Encoder();
1085:AS76.c        ****     X_QuadPosition = Position_X_Requested;
1086:AS76.c        ****     Send_Feedback_to_USB(Error);
1087:AS76.c        ****     
1088:AS76.c        ****     CyDelayUs(50);
1089:AS76.c        ****     return 0;  
1090:AS76.c        ****         
1091:AS76.c        **** }
1092:AS76.c        **** 
1093:AS76.c        **** 
1094:AS76.c        **** bool if_all_homing_done()
1095:AS76.c        **** {
1096:AS76.c        ****     if((HomeY_done == false)&&(Error == 0))
1097:AS76.c        ****     {
1098:AS76.c        ****         Error = 12;//Y_Homing_Not_Done_Yet
1099:AS76.c        ****         Write_Debug_UART_Char("Y_Homing_Not_Done_Yet***********[x12]  \r\n");
1100:AS76.c        ****         UART_print_all_values();
1101:AS76.c        ****         return false;
1102:AS76.c        ****     }
1103:AS76.c        ****     else if((HomeX_done == false)&&(Error == 0))
1104:AS76.c        ****     {
1105:AS76.c        ****         Error = 6;//X_Homing_Not_Done_Yet
1106:AS76.c        ****         Write_Debug_UART_Char("X_Homing_Not_Done_Yet***********  \r\n");
1107:AS76.c        ****         UART_print_all_values();
1108:AS76.c        ****         return false;
1109:AS76.c        ****     }
1110:AS76.c        ****     else if((HomeZ_done == false)&&(Error == 0))
1111:AS76.c        ****     {
1112:AS76.c        ****         Error = 18;//Z_Homing_Not_Done_Yet
1113:AS76.c        ****         Write_Debug_UART_Char("Z_Homing_Not_Done_Yet***********  \r\n");
1114:AS76.c        ****         UART_print_all_values();
1115:AS76.c        ****         return false;
1116:AS76.c        ****     } 
1117:AS76.c        ****    /* else if((HomeT_done == false)&&(Error == 0))
1118:AS76.c        ****     {
1119:AS76.c        ****         Error = 27;//T_Homing_Not_Done_Yet
1120:AS76.c        ****         Write_Debug_UART_Char("Z_Homing_Not_Done_Yet***********  \r\n");
1121:AS76.c        ****         UART_print_all_values();
1122:AS76.c        ****         return false;
1123:AS76.c        ****     } */
1124:AS76.c        ****     else
1125:AS76.c        ****     {
1126:AS76.c        ****         return true;
1127:AS76.c        ****     }
1128:AS76.c        **** }
1129:AS76.c        **** 
1130:AS76.c        **** ///////////////////////////////////////////////////////////////////////////////////////////////////
1131:AS76.c        **** //PWM Functions Start-------------------------------------------------------
ARM GAS  C:\Users\Revanth\AppData\Local\Temp\ccvmpTGe.s 			page 22


1132:AS76.c        **** void Initialize_PWM()
1133:AS76.c        **** {
  67              		.loc 1 1133 0
  68              		.cfi_startproc
  69              		@ args = 0, pretend = 0, frame = 0
  70              		@ frame_needed = 0, uses_anonymous_args = 0
  71 0000 08B5     		push	{r3, lr}
  72              		.cfi_def_cfa_offset 8
  73              		.cfi_offset 3, -8
  74              		.cfi_offset 14, -4
1134:AS76.c        ****     PWM_CondenserLED_Start();
  75              		.loc 1 1134 0
  76 0002 FFF7FEFF 		bl	PWM_CondenserLED_Start
  77              	.LVL0:
1135:AS76.c        ****     PWM_CondenserLED_WriteCompare(PWM_Condenser_comare_value); 
  78              		.loc 1 1135 0
  79 0006 114B     		ldr	r3, .L7
  80 0008 1888     		ldrh	r0, [r3]
  81 000a FFF7FEFF 		bl	PWM_CondenserLED_WriteCompare
  82              	.LVL1:
1136:AS76.c        ****     
1137:AS76.c        ****     PWM_BarcodeCondenser_LED_Start();
  83              		.loc 1 1137 0
  84 000e FFF7FEFF 		bl	PWM_BarcodeCondenser_LED_Start
  85              	.LVL2:
1138:AS76.c        ****     PWM_BarcodeCondenser_LED_WriteCompare(2);
  86              		.loc 1 1138 0
  87 0012 0220     		movs	r0, #2
  88 0014 FFF7FEFF 		bl	PWM_BarcodeCondenser_LED_WriteCompare
  89              	.LVL3:
1139:AS76.c        ****     
1140:AS76.c        ****     PWM_Buzzer_Start();
  90              		.loc 1 1140 0
  91 0018 FFF7FEFF 		bl	PWM_Buzzer_Start
  92              	.LVL4:
1141:AS76.c        ****     PWM_Buzzer_WriteCompare(2500);
  93              		.loc 1 1141 0
  94 001c 40F6C410 		movw	r0, #2500
  95 0020 FFF7FEFF 		bl	PWM_Buzzer_WriteCompare
  96              	.LVL5:
1142:AS76.c        ****     CyDelay(200);
  97              		.loc 1 1142 0
  98 0024 C820     		movs	r0, #200
  99 0026 FFF7FEFF 		bl	CyDelay
 100              	.LVL6:
1143:AS76.c        ****     PWM_Buzzer_WriteCompare(0);
 101              		.loc 1 1143 0
 102 002a 0020     		movs	r0, #0
 103 002c FFF7FEFF 		bl	PWM_Buzzer_WriteCompare
 104              	.LVL7:
1144:AS76.c        ****     CyDelay(200);
 105              		.loc 1 1144 0
 106 0030 C820     		movs	r0, #200
 107 0032 FFF7FEFF 		bl	CyDelay
 108              	.LVL8:
1145:AS76.c        ****     PWM_Buzzer_WriteCompare(2500);
 109              		.loc 1 1145 0
ARM GAS  C:\Users\Revanth\AppData\Local\Temp\ccvmpTGe.s 			page 23


 110 0036 40F6C410 		movw	r0, #2500
 111 003a FFF7FEFF 		bl	PWM_Buzzer_WriteCompare
 112              	.LVL9:
1146:AS76.c        ****     CyDelay(200);
 113              		.loc 1 1146 0
 114 003e C820     		movs	r0, #200
 115 0040 FFF7FEFF 		bl	CyDelay
 116              	.LVL10:
1147:AS76.c        ****     PWM_Buzzer_WriteCompare(0);
 117              		.loc 1 1147 0
 118 0044 0020     		movs	r0, #0
 119 0046 FFF7FEFF 		bl	PWM_Buzzer_WriteCompare
 120              	.LVL11:
 121 004a 08BD     		pop	{r3, pc}
 122              	.L8:
 123              		.align	2
 124              	.L7:
 125 004c 00000000 		.word	.LANCHOR1
 126              		.cfi_endproc
 127              	.LFE80:
 128              		.size	Initialize_PWM, .-Initialize_PWM
 129              		.section	.text.Set_Backlight_LED,"ax",%progbits
 130              		.align	2
 131              		.global	Set_Backlight_LED
 132              		.thumb
 133              		.thumb_func
 134              		.type	Set_Backlight_LED, %function
 135              	Set_Backlight_LED:
 136              	.LFB86:
1148:AS76.c        **** }
1149:AS76.c        **** int set_BarcodeCondenser_LED()//Set Barcode Condenser LED light intensity
1150:AS76.c        **** {
1151:AS76.c        ****     PWM_barcode_comare_value = ((unsigned int)USB_received[3] << 8) + USB_received[2];  //Read LED 
1152:AS76.c        ****     PWM_BarcodeCondenser_LED_WriteCompare((PWM_barcode_comare_value*0.6)/10);    //Writing LED valu
1153:AS76.c        ****     Write_Debug_UART_Char("LED Barcode Value Recived--->");
1154:AS76.c        ****     Write_Debug_UART_Int(PWM_barcode_comare_value);
1155:AS76.c        ****     Write_Debug_UART_Char("\r\n");
1156:AS76.c        ****     Write_Debug_UART_Char("Set Barcode LED Command Executed  \r\n");
1157:AS76.c        ****     return 0;
1158:AS76.c        **** }
1159:AS76.c        **** 
1160:AS76.c        **** int set_CondenserLED()//Set Condenser LED light intensity
1161:AS76.c        **** {
1162:AS76.c        ****     PWM_Condenser_comare_value = ((unsigned int)USB_received[3] << 8) + USB_received[2];  //Read LE
1163:AS76.c        ****     PWM_CondenserLED_WriteCompare((PWM_Condenser_comare_value*0.6)/10);    //Writing LED value in t
1164:AS76.c        ****     Write_Debug_UART_Char(" LED Value Recived--->");
1165:AS76.c        ****     Write_Debug_UART_Int(PWM_Condenser_comare_value);
1166:AS76.c        ****     Write_Debug_UART_Char("\r\n");
1167:AS76.c        ****     Write_Debug_UART_Char("Set LED Command Executed  \r\n");
1168:AS76.c        ****     return 0;
1169:AS76.c        **** }
1170:AS76.c        **** 
1171:AS76.c        **** int Beep_Once()//Set Condenser LED light intensity
1172:AS76.c        **** {
1173:AS76.c        ****     PWM_Buzzer_WriteCompare(2500);
1174:AS76.c        ****     CyDelay(200);
1175:AS76.c        ****     PWM_Buzzer_WriteCompare(0);
ARM GAS  C:\Users\Revanth\AppData\Local\Temp\ccvmpTGe.s 			page 24


1176:AS76.c        ****     Write_Debug_UART_Char("Beeped Once  \r\n");
1177:AS76.c        ****     return 0;
1178:AS76.c        **** }
1179:AS76.c        **** 
1180:AS76.c        **** int Beep_Twice()//Set Condenser LED light intensity
1181:AS76.c        **** {
1182:AS76.c        ****     PWM_Buzzer_WriteCompare(2500);
1183:AS76.c        ****     CyDelay(200);
1184:AS76.c        ****     PWM_Buzzer_WriteCompare(0);
1185:AS76.c        ****     CyDelay(200);
1186:AS76.c        ****     PWM_Buzzer_WriteCompare(2500);
1187:AS76.c        ****     CyDelay(200);
1188:AS76.c        ****     PWM_Buzzer_WriteCompare(0);
1189:AS76.c        ****     Write_Debug_UART_Char("Beeped Twice  \r\n");
1190:AS76.c        ****     return 0;
1191:AS76.c        **** }
1192:AS76.c        **** 
1193:AS76.c        **** int Long_Beep()//Set Condenser LED light intensity
1194:AS76.c        **** {
1195:AS76.c        ****     PWM_Buzzer_WriteCompare(2500);
1196:AS76.c        ****     CyDelay(2000);
1197:AS76.c        ****     PWM_Buzzer_WriteCompare(0);
1198:AS76.c        ****     CyDelay(200);
1199:AS76.c        ****     
1200:AS76.c        ****     Write_Debug_UART_Char("Beeped Long  \r\n");
1201:AS76.c        ****     return 0;
1202:AS76.c        **** }
1203:AS76.c        **** 
1204:AS76.c        **** //PWM Functions Stop-------------------------------------------------------
1205:AS76.c        **** 
1206:AS76.c        **** void Set_Backlight_LED(uint8_t value)
1207:AS76.c        **** {
 137              		.loc 1 1207 0
 138              		.cfi_startproc
 139              		@ args = 0, pretend = 0, frame = 0
 140              		@ frame_needed = 0, uses_anonymous_args = 0
 141              	.LVL12:
 142 0000 08B5     		push	{r3, lr}
 143              		.cfi_def_cfa_offset 8
 144              		.cfi_offset 3, -8
 145              		.cfi_offset 14, -4
1208:AS76.c        ****     Pin_Backlight_Write(value);
 146              		.loc 1 1208 0
 147 0002 FFF7FEFF 		bl	Pin_Backlight_Write
 148              	.LVL13:
 149 0006 08BD     		pop	{r3, pc}
 150              		.cfi_endproc
 151              	.LFE86:
 152              		.size	Set_Backlight_LED, .-Set_Backlight_LED
 153              		.section	.text.Enable_Encoder_T,"ax",%progbits
 154              		.align	2
 155              		.global	Enable_Encoder_T
 156              		.thumb
 157              		.thumb_func
 158              		.type	Enable_Encoder_T, %function
 159              	Enable_Encoder_T:
 160              	.LFB88:
ARM GAS  C:\Users\Revanth\AppData\Local\Temp\ccvmpTGe.s 			page 25


1209:AS76.c        **** }
1210:AS76.c        **** 
1211:AS76.c        **** //Optical Decoder Functions Start-------------------------------------------------------
1212:AS76.c        **** void Initialize_And_Start_All_Opt_Encoder()//Initialize and start Interrupt for XY encoder count an
1213:AS76.c        **** {   
1214:AS76.c        ****     X_QuadPosition = 0;
1215:AS76.c        ****     Y_QuadPosition = 0;
1216:AS76.c        ****     Z_QuadPosition =0 ;
1217:AS76.c        ****     T_QuadPosition=0;
1218:AS76.c        ****     QuadDec_TZ_Start();
1219:AS76.c        ****     QuadDec_Y_Start();
1220:AS76.c        ****     QuadDec_X_Start();
1221:AS76.c        **** 
1222:AS76.c        ****     Enable_Encoder_Z(0);
1223:AS76.c        ****     Enable_Encoder_T(0);
1224:AS76.c        **** }
1225:AS76.c        **** 
1226:AS76.c        **** 
1227:AS76.c        **** void Enable_Encoder_T(int steps)
1228:AS76.c        **** {
 161              		.loc 1 1228 0
 162              		.cfi_startproc
 163              		@ args = 0, pretend = 0, frame = 0
 164              		@ frame_needed = 0, uses_anonymous_args = 0
 165              	.LVL14:
 166 0000 10B5     		push	{r4, lr}
 167              		.cfi_def_cfa_offset 8
 168              		.cfi_offset 4, -8
 169              		.cfi_offset 14, -4
1229:AS76.c        ****     EncoderTZSelect = 0; // 0 for T and 1 for Z
 170              		.loc 1 1229 0
 171 0002 0024     		movs	r4, #0
 172 0004 034B     		ldr	r3, .L13
 173 0006 5C60     		str	r4, [r3, #4]
1230:AS76.c        ****     QuadDec_TZ_SetCounter(steps);      
 174              		.loc 1 1230 0
 175 0008 FFF7FEFF 		bl	QuadDec_TZ_SetCounter
 176              	.LVL15:
1231:AS76.c        ****     Encoder_T_Z_Select_Write(0);
 177              		.loc 1 1231 0
 178 000c 2046     		mov	r0, r4
 179 000e FFF7FEFF 		bl	Encoder_T_Z_Select_Write
 180              	.LVL16:
 181 0012 10BD     		pop	{r4, pc}
 182              	.L14:
 183              		.align	2
 184              	.L13:
 185 0014 00000000 		.word	.LANCHOR0
 186              		.cfi_endproc
 187              	.LFE88:
 188              		.size	Enable_Encoder_T, .-Enable_Encoder_T
 189              		.section	.text.Enable_Encoder_Z,"ax",%progbits
 190              		.align	2
 191              		.global	Enable_Encoder_Z
 192              		.thumb
 193              		.thumb_func
 194              		.type	Enable_Encoder_Z, %function
ARM GAS  C:\Users\Revanth\AppData\Local\Temp\ccvmpTGe.s 			page 26


 195              	Enable_Encoder_Z:
 196              	.LFB89:
1232:AS76.c        **** }
1233:AS76.c        **** 
1234:AS76.c        **** void Enable_Encoder_Z(int steps)
1235:AS76.c        **** {
 197              		.loc 1 1235 0
 198              		.cfi_startproc
 199              		@ args = 0, pretend = 0, frame = 0
 200              		@ frame_needed = 0, uses_anonymous_args = 0
 201              	.LVL17:
 202 0000 10B5     		push	{r4, lr}
 203              		.cfi_def_cfa_offset 8
 204              		.cfi_offset 4, -8
 205              		.cfi_offset 14, -4
1236:AS76.c        ****     EncoderTZSelect = 1; // 0 for T and 1 for Z
 206              		.loc 1 1236 0
 207 0002 0124     		movs	r4, #1
 208 0004 034B     		ldr	r3, .L17
 209 0006 5C60     		str	r4, [r3, #4]
1237:AS76.c        ****     QuadDec_TZ_SetCounter(steps);
 210              		.loc 1 1237 0
 211 0008 FFF7FEFF 		bl	QuadDec_TZ_SetCounter
 212              	.LVL18:
1238:AS76.c        ****     Encoder_T_Z_Select_Write(1);
 213              		.loc 1 1238 0
 214 000c 2046     		mov	r0, r4
 215 000e FFF7FEFF 		bl	Encoder_T_Z_Select_Write
 216              	.LVL19:
 217 0012 10BD     		pop	{r4, pc}
 218              	.L18:
 219              		.align	2
 220              	.L17:
 221 0014 00000000 		.word	.LANCHOR0
 222              		.cfi_endproc
 223              	.LFE89:
 224              		.size	Enable_Encoder_Z, .-Enable_Encoder_Z
 225              		.section	.text.Initialize_And_Start_All_Opt_Encoder,"ax",%progbits
 226              		.align	2
 227              		.global	Initialize_And_Start_All_Opt_Encoder
 228              		.thumb
 229              		.thumb_func
 230              		.type	Initialize_And_Start_All_Opt_Encoder, %function
 231              	Initialize_And_Start_All_Opt_Encoder:
 232              	.LFB87:
1213:AS76.c        ****     X_QuadPosition = 0;
 233              		.loc 1 1213 0
 234              		.cfi_startproc
 235              		@ args = 0, pretend = 0, frame = 0
 236              		@ frame_needed = 0, uses_anonymous_args = 0
 237 0000 10B5     		push	{r4, lr}
 238              		.cfi_def_cfa_offset 8
 239              		.cfi_offset 4, -8
 240              		.cfi_offset 14, -4
1214:AS76.c        ****     Y_QuadPosition = 0;
 241              		.loc 1 1214 0
 242 0002 094B     		ldr	r3, .L21
ARM GAS  C:\Users\Revanth\AppData\Local\Temp\ccvmpTGe.s 			page 27


 243 0004 0024     		movs	r4, #0
 244 0006 9C60     		str	r4, [r3, #8]
1215:AS76.c        ****     Z_QuadPosition =0 ;
 245              		.loc 1 1215 0
 246 0008 DC60     		str	r4, [r3, #12]
1216:AS76.c        ****     T_QuadPosition=0;
 247              		.loc 1 1216 0
 248 000a 1C61     		str	r4, [r3, #16]
1217:AS76.c        ****     QuadDec_TZ_Start();
 249              		.loc 1 1217 0
 250 000c 5C61     		str	r4, [r3, #20]
1218:AS76.c        ****     QuadDec_Y_Start();
 251              		.loc 1 1218 0
 252 000e FFF7FEFF 		bl	QuadDec_TZ_Start
 253              	.LVL20:
1219:AS76.c        ****     QuadDec_X_Start();
 254              		.loc 1 1219 0
 255 0012 FFF7FEFF 		bl	QuadDec_Y_Start
 256              	.LVL21:
1220:AS76.c        **** 
 257              		.loc 1 1220 0
 258 0016 FFF7FEFF 		bl	QuadDec_X_Start
 259              	.LVL22:
1222:AS76.c        ****     Enable_Encoder_T(0);
 260              		.loc 1 1222 0
 261 001a 2046     		mov	r0, r4
 262 001c FFF7FEFF 		bl	Enable_Encoder_Z
 263              	.LVL23:
1223:AS76.c        **** }
 264              		.loc 1 1223 0
 265 0020 2046     		mov	r0, r4
 266 0022 FFF7FEFF 		bl	Enable_Encoder_T
 267              	.LVL24:
 268 0026 10BD     		pop	{r4, pc}
 269              	.L22:
 270              		.align	2
 271              	.L21:
 272 0028 00000000 		.word	.LANCHOR0
 273              		.cfi_endproc
 274              	.LFE87:
 275              		.size	Initialize_And_Start_All_Opt_Encoder, .-Initialize_And_Start_All_Opt_Encoder
 276              		.section	.text.Read_All_Optical_Encoder,"ax",%progbits
 277              		.align	2
 278              		.global	Read_All_Optical_Encoder
 279              		.thumb
 280              		.thumb_func
 281              		.type	Read_All_Optical_Encoder, %function
 282              	Read_All_Optical_Encoder:
 283              	.LFB90:
1239:AS76.c        **** }
1240:AS76.c        **** 
1241:AS76.c        **** void Read_All_Optical_Encoder()//Read all optical encoder value and update XYZ value
1242:AS76.c        **** {
 284              		.loc 1 1242 0
 285              		.cfi_startproc
 286              		@ args = 0, pretend = 0, frame = 0
 287              		@ frame_needed = 0, uses_anonymous_args = 0
ARM GAS  C:\Users\Revanth\AppData\Local\Temp\ccvmpTGe.s 			page 28


 288 0000 10B5     		push	{r4, lr}
 289              		.cfi_def_cfa_offset 8
 290              		.cfi_offset 4, -8
 291              		.cfi_offset 14, -4
1243:AS76.c        ****     if(EncoderTZSelect == 0)
 292              		.loc 1 1243 0
 293 0002 0E4B     		ldr	r3, .L27
 294 0004 5B68     		ldr	r3, [r3, #4]
 295 0006 33B9     		cbnz	r3, .L24
1244:AS76.c        ****     {
1245:AS76.c        ****         T_QuadPosition = -QuadDec_TZ_GetCounter();
 296              		.loc 1 1245 0
 297 0008 FFF7FEFF 		bl	QuadDec_TZ_GetCounter
 298              	.LVL25:
 299 000c 4042     		negs	r0, r0
 300 000e 0B4B     		ldr	r3, .L27
 301 0010 5861     		str	r0, [r3, #20]
1246:AS76.c        ****         Z_QuadPosition = Buffer_Z_QuadPosition;
 302              		.loc 1 1246 0
 303 0012 9A69     		ldr	r2, [r3, #24]
 304 0014 1A61     		str	r2, [r3, #16]
 305              	.L24:
1247:AS76.c        ****     }
1248:AS76.c        ****     if(EncoderTZSelect == 1)
 306              		.loc 1 1248 0
 307 0016 094B     		ldr	r3, .L27
 308 0018 5B68     		ldr	r3, [r3, #4]
 309 001a 012B     		cmp	r3, #1
 310 001c 06D1     		bne	.L25
1249:AS76.c        ****     {
1250:AS76.c        ****         T_QuadPosition = Buffer_T_QuadPosition;
 311              		.loc 1 1250 0
 312 001e 074C     		ldr	r4, .L27
 313 0020 E369     		ldr	r3, [r4, #28]
 314 0022 6361     		str	r3, [r4, #20]
1251:AS76.c        ****         Z_QuadPosition = -QuadDec_TZ_GetCounter();
 315              		.loc 1 1251 0
 316 0024 FFF7FEFF 		bl	QuadDec_TZ_GetCounter
 317              	.LVL26:
 318 0028 4042     		negs	r0, r0
 319 002a 2061     		str	r0, [r4, #16]
 320              	.L25:
1252:AS76.c        ****     }
1253:AS76.c        ****     X_QuadPosition =  Input_Position_X_Temp ;
 321              		.loc 1 1253 0
 322 002c 034C     		ldr	r4, .L27
 323 002e 236A     		ldr	r3, [r4, #32]
 324 0030 A360     		str	r3, [r4, #8]
1254:AS76.c        ****     Y_QuadPosition = -QuadDec_Y_GetCounter();
 325              		.loc 1 1254 0
 326 0032 FFF7FEFF 		bl	QuadDec_Y_GetCounter
 327              	.LVL27:
 328 0036 4042     		negs	r0, r0
 329 0038 E060     		str	r0, [r4, #12]
 330 003a 10BD     		pop	{r4, pc}
 331              	.L28:
 332              		.align	2
ARM GAS  C:\Users\Revanth\AppData\Local\Temp\ccvmpTGe.s 			page 29


 333              	.L27:
 334 003c 00000000 		.word	.LANCHOR0
 335              		.cfi_endproc
 336              	.LFE90:
 337              		.size	Read_All_Optical_Encoder, .-Read_All_Optical_Encoder
 338              		.section	.text.USB_Detect_Indication_Via_LED,"ax",%progbits
 339              		.align	2
 340              		.global	USB_Detect_Indication_Via_LED
 341              		.thumb
 342              		.thumb_func
 343              		.type	USB_Detect_Indication_Via_LED, %function
 344              	USB_Detect_Indication_Via_LED:
 345              	.LFB93:
1255:AS76.c        **** }    
1256:AS76.c        **** //Optical Decoder Functions Stop-------------------------------------------------------
1257:AS76.c        **** 
1258:AS76.c        **** 
1259:AS76.c        **** //USB Functions Start-------------------------------------------------------
1260:AS76.c        **** void Process_USB_Data()/* Process USB incoming data command. */
1261:AS76.c        **** {
1262:AS76.c        ****     //Pin_USB_RX_TX_Indicator_LED_Write(1); /* turn ON LED as a indicator to start process the comm
1263:AS76.c        ****     Error = 0;
1264:AS76.c        ****     command = ((unsigned int)USB_received[1] << 8) + USB_received[0];   /* Reading USB data. */
1265:AS76.c        ****     /*Compare USB data and execute the command*/
1266:AS76.c        **** 
1267:AS76.c        ****     if (command == HomeX)                                          
1268:AS76.c        ****     {
1269:AS76.c        ****         update_max_velocity(381178, TMC5160_nCS_MotorX);
1270:AS76.c        ****         CyDelay(1);
1271:AS76.c        ****         goTo_X(0);
1272:AS76.c        ****         homeX(TMC5160_nCS_MotorX);   
1273:AS76.c        ****         Send_Feedback_to_USB(Error);
1274:AS76.c        ****     
1275:AS76.c        ****     }
1276:AS76.c        ****     else if (command == HomeY)                           
1277:AS76.c        ****     {
1278:AS76.c        ****         update_max_velocity(381178, TMC5160_nCS_MotorY);
1279:AS76.c        ****         CyDelay(1);
1280:AS76.c        ****         goTo_Y(0);
1281:AS76.c        ****         homeY(TMC5160_nCS_MotorY);
1282:AS76.c        ****         Send_Feedback_to_USB(Error);
1283:AS76.c        ****         
1284:AS76.c        ****     }
1285:AS76.c        ****     else if (command == HomeZ)                           
1286:AS76.c        ****     {
1287:AS76.c        ****         update_max_velocity(53687*2, TMC5160_nCS_MotorZ);
1288:AS76.c        ****         CyDelayUs(100);
1289:AS76.c        ****         goTo_Z(0);
1290:AS76.c        ****         homeZ(TMC5160_nCS_MotorZ);
1291:AS76.c        ****         Send_Feedback_to_USB(Error);
1292:AS76.c        ****     }
1293:AS76.c        ****     else if (command == HomeT)                           
1294:AS76.c        ****     {
1295:AS76.c        ****         Write_32bitSPI_DATA (0x10  , (int) 0x00070503, TMC5160_nCS_MotorT ); 
1296:AS76.c        ****         CyDelay(10);
1297:AS76.c        ****         goTo_T(0);
1298:AS76.c        ****         homeT(TMC5160_nCS_MotorT);
ARM GAS  C:\Users\Revanth\AppData\Local\Temp\ccvmpTGe.s 			page 30


1299:AS76.c        ****         Send_Feedback_to_USB(Error);
1300:AS76.c        ****     }
1301:AS76.c        ****     else if (command == GotoX)                           
1302:AS76.c        ****     {
1303:AS76.c        ****         Position_X_Requested = ((int32)USB_received[5] << 24) + ((int32)USB_received[4] << 16) + ((
1304:AS76.c        ****         
1305:AS76.c        ****         {
1306:AS76.c        ****             Input_Position_X_Temp = Position_X_Requested;
1307:AS76.c        ****             Position_X_Requested = (int)(Position_X_Requested / 4);
1308:AS76.c        ****             Position_X_Requested = (int)Position_X_Requested * 12.8;
1309:AS76.c        ****             Error = goTo_X(Position_X_Requested);
1310:AS76.c        ****         }
1311:AS76.c        ****         
1312:AS76.c        ****         
1313:AS76.c        ****         
1314:AS76.c        ****         
1315:AS76.c        ****         Write_32bitSPI_DATA (0x10  , (int) 0x0007010A, TMC5160_nCS_MotorX );
1316:AS76.c        ****         CyDelay(10);
1317:AS76.c        ****         Write_32bitSPI_DATA (0x10  , (int) 0x00070102, TMC5160_nCS_MotorY );
1318:AS76.c        ****         Write_32bitSPI_DATA (0x10  , (int) 0x00070102, TMC5160_nCS_MotorZ );
1319:AS76.c        ****         Write_32bitSPI_DATA (0x10  , (int) 0x00070102, TMC5160_nCS_MotorX );
1320:AS76.c        ****         Write_32bitSPI_DATA (0x10  , (int) 0x00070102, TMC5160_nCS_MotorT ); 
1321:AS76.c        ****         Send_Feedback_to_USB(Error);
1322:AS76.c        ****         
1323:AS76.c        ****         
1324:AS76.c        ****     }
1325:AS76.c        ****     else if (command == GotoY)          
1326:AS76.c        ****     {
1327:AS76.c        ****         Position_Y_Requested = ((int32)USB_received[5] << 24) + ((int32)USB_received[4] << 16) + ((
1328:AS76.c        ****         Position_Y_Requested = (int)(Position_Y_Requested / 4);
1329:AS76.c        ****         Position_Y_Requested = (int)(Position_Y_Requested * 12.8);
1330:AS76.c        ****         Error = goTo_Y(Position_Y_Requested);
1331:AS76.c        ****                
1332:AS76.c        ****         Write_32bitSPI_DATA (0x10  , (int) 0x0007010A, TMC5160_nCS_MotorY );
1333:AS76.c        ****         CyDelay(10);        
1334:AS76.c        ****         Write_32bitSPI_DATA (0x10  , (int) 0x00070102, TMC5160_nCS_MotorY );
1335:AS76.c        ****         Write_32bitSPI_DATA (0x10  , (int) 0x00070102, TMC5160_nCS_MotorZ );
1336:AS76.c        ****         Write_32bitSPI_DATA (0x10  , (int) 0x00070102, TMC5160_nCS_MotorX );
1337:AS76.c        ****         Write_32bitSPI_DATA (0x10  , (int) 0x00070102, TMC5160_nCS_MotorT ); 
1338:AS76.c        ****         Send_Feedback_to_USB(Error);
1339:AS76.c        ****     }
1340:AS76.c        ****     else if (command == GotoZ)        
1341:AS76.c        ****     {
1342:AS76.c        ****         Position_Z_Requested = ((int32)USB_received[5] << 24) + ((int32)USB_received[4] << 16) + ((
1343:AS76.c        ****         Position_Z_Requested = (Position_Z_Requested / 16);
1344:AS76.c        ****         Position_Z_Requested = Position_Z_Requested * 51.2;
1345:AS76.c        ****         Error = goTo_Z(Position_Z_Requested);
1346:AS76.c        ****         Send_Feedback_to_USB(Error);
1347:AS76.c        ****     }
1348:AS76.c        ****     else if (command == GotoT)        
1349:AS76.c        ****     {
1350:AS76.c        ****         Write_32bitSPI_DATA (0x10  , (int) 0x00070503, TMC5160_nCS_MotorT ); 
1351:AS76.c        ****         Position_T_Requested = ((int32)USB_received[5] << 24) + ((int32)USB_received[4] << 16) + ((
1352:AS76.c        ****         Position_T_Requested = (Position_T_Requested / 1);
1353:AS76.c        ****         Position_T_Requested = Position_T_Requested * 1;
1354:AS76.c        ****         Error = goTo_T(Position_T_Requested);
1355:AS76.c        ****         Send_Feedback_to_USB(Error);
ARM GAS  C:\Users\Revanth\AppData\Local\Temp\ccvmpTGe.s 			page 31


1356:AS76.c        ****         Write_32bitSPI_DATA (0x10  , (int) 0x00070303, TMC5160_nCS_MotorT );
1357:AS76.c        ****    
1358:AS76.c        ****     }
1359:AS76.c        ****     else if ( command == Set_OilDispenser )
1360:AS76.c        ****     {
1361:AS76.c        ****         int time_ms=0;
1362:AS76.c        ****         uint8_t direction=0;
1363:AS76.c        ****         time_ms = ((int32)USB_received[5] << 24) + ((int32)USB_received[4] << 16) + ((int32)USB_rec
1364:AS76.c        ****         if((USB_received[6] == 0x00) || (USB_received[6] == 0x01))
1365:AS76.c        ****         {
1366:AS76.c        ****             CyDelayUs(10);
1367:AS76.c        ****         }
1368:AS76.c        ****         else
1369:AS76.c        ****         {
1370:AS76.c        ****           USB_received[6] = 0x00;
1371:AS76.c        ****         }
1372:AS76.c        ****         
1373:AS76.c        ****         direction = USB_received[6];
1374:AS76.c        ****         run_pump (time_ms, direction);
1375:AS76.c        ****         Send_Feedback_to_USB(Error);
1376:AS76.c        ****     }
1377:AS76.c        ****     
1378:AS76.c        ****     else if (command == GotoXYZ)
1379:AS76.c        ****     {
1380:AS76.c        ****         Position_X_Requested = ((int32)USB_received[5] << 24) + ((int32)USB_received[4] << 16) + ((
1381:AS76.c        ****         Position_Y_Requested = ((int32)USB_received[9] << 24) + ((int32)USB_received[8] << 16) + ((
1382:AS76.c        ****         Position_Z_Requested = ((int32)USB_received[13] << 24) + ((int32)USB_received[12] << 16) + 
1383:AS76.c        ****         
1384:AS76.c        ****         if(Position_X_Requested >= 0)
1385:AS76.c        ****         {        
1386:AS76.c        ****         Position_X_Requested = (Position_X_Requested / 4);
1387:AS76.c        ****         Position_X_Requested = Position_X_Requested * 12.8;
1388:AS76.c        ****         }
1389:AS76.c        ****         if(Position_Y_Requested >= 0)
1390:AS76.c        ****         { 
1391:AS76.c        ****         Position_Y_Requested = (Position_Y_Requested / 4);
1392:AS76.c        ****         Position_Y_Requested = Position_Y_Requested * 12.8;
1393:AS76.c        ****         }
1394:AS76.c        ****         if(Position_Z_Requested >= 0)
1395:AS76.c        ****         { 
1396:AS76.c        ****         Position_Z_Requested = (Position_Z_Requested / 16);
1397:AS76.c        ****         Position_Z_Requested = Position_Z_Requested * 51.2;
1398:AS76.c        ****         }
1399:AS76.c        ****         
1400:AS76.c        ****         Error = goTo_XYZ(Position_X_Requested, Position_Y_Requested, Position_Z_Requested);
1401:AS76.c        ****         CyDelay(10);
1402:AS76.c        ****         Write_32bitSPI_DATA (0x10  , (int) 0x00070103, TMC5160_nCS_MotorY );
1403:AS76.c        ****         Write_32bitSPI_DATA (0x10  , (int) 0x00070103, TMC5160_nCS_MotorZ );
1404:AS76.c        ****         Write_32bitSPI_DATA (0x10  , (int) 0x00070103, TMC5160_nCS_MotorX );
1405:AS76.c        ****         Write_32bitSPI_DATA (0x10  , (int) 0x00070103, TMC5160_nCS_MotorT );
1406:AS76.c        ****         Send_Feedback_to_USB(Error);
1407:AS76.c        ****     }
1408:AS76.c        ****     
1409:AS76.c        ****     else if (command == Set_LED_voltage)
1410:AS76.c        ****     { 
1411:AS76.c        ****         set_CondenserLED();
1412:AS76.c        ****         CyDelay(100);
ARM GAS  C:\Users\Revanth\AppData\Local\Temp\ccvmpTGe.s 			page 32


1413:AS76.c        ****         Send_Feedback_to_USB(Error);  
1414:AS76.c        ****     }
1415:AS76.c        ****     
1416:AS76.c        ****     else if (command == Set_BarClight)
1417:AS76.c        ****     {
1418:AS76.c        ****         set_BarcodeCondenser_LED();
1419:AS76.c        ****         CyDelay(100);
1420:AS76.c        ****         Send_Feedback_to_USB(Error);  
1421:AS76.c        ****     }
1422:AS76.c        ****     
1423:AS76.c        ****     else if (command == Set_Backlight)
1424:AS76.c        ****     {
1425:AS76.c        ****         uint8_t value=0;
1426:AS76.c        ****         value = USB_received[2];
1427:AS76.c        ****         if(value == 0)
1428:AS76.c        ****         {
1429:AS76.c        ****         value = 0x00;
1430:AS76.c        ****         }
1431:AS76.c        ****         else if(value == 1)
1432:AS76.c        ****         {
1433:AS76.c        ****         value =0xFF;
1434:AS76.c        ****         }
1435:AS76.c        ****         else
1436:AS76.c        ****         {
1437:AS76.c        ****         Write_Debug_UART_Char("Backlight LED wronf Value Provided  \r\n");
1438:AS76.c        ****         }
1439:AS76.c        ****        
1440:AS76.c        ****         Pin_Backlight_Write(value);
1441:AS76.c        ****         Send_Feedback_to_USB(Error);
1442:AS76.c        ****     }
1443:AS76.c        ****     
1444:AS76.c        ****     else if (command == PCB_Reset)                     
1445:AS76.c        ****     {
1446:AS76.c        ****         Write_Debug_UART_Char("PCB Reset Command Recived  \r\n");
1447:AS76.c        ****         Write_Debug_UART_Char("\r\n");
1448:AS76.c        ****         CyDelay(500);
1449:AS76.c        ****         Send_Feedback_to_USB(0);
1450:AS76.c        ****         CyDelay(500);
1451:AS76.c        ****         CySoftwareReset();
1452:AS76.c        ****     }
1453:AS76.c        ****     else if(command == SetSpeed)  
1454:AS76.c        ****     {
1455:AS76.c        ****         
1456:AS76.c        ****         Motor_Speed_X = ((int32)USB_received[5] << 24) + ((int32)USB_received[4] << 16) + ((int32)U
1457:AS76.c        ****         Motor_Speed_Y = ((int32)USB_received[9] << 24) + ((int32)USB_received[8] << 16) + ((int32)U
1458:AS76.c        ****         Motor_Speed_Z = ((int32)USB_received[13] << 24) + ((int32)USB_received[12] << 16) + ((int32
1459:AS76.c        ****         
1460:AS76.c        ****         Write_Debug_UART_Char("SetNoOfExecution Command Recived  \r\n");
1461:AS76.c        ****         
1462:AS76.c        ****         update_max_velocity(Motor_Speed_X, TMC5160_nCS_MotorX);        
1463:AS76.c        ****         update_max_velocity(Motor_Speed_Y, TMC5160_nCS_MotorY);        
1464:AS76.c        ****         update_max_velocity(Motor_Speed_Z, TMC5160_nCS_MotorZ);
1465:AS76.c        ****         Write_Debug_UART_Char("Value received for x,y and z is --->");
1466:AS76.c        ****         Write_Debug_UART_Int(Motor_Speed_X);
1467:AS76.c        ****         Write_Debug_UART_Char(",");
1468:AS76.c        ****         Write_Debug_UART_Int(Motor_Speed_Y);
1469:AS76.c        ****         Write_Debug_UART_Char(",");
ARM GAS  C:\Users\Revanth\AppData\Local\Temp\ccvmpTGe.s 			page 33


1470:AS76.c        ****         Write_Debug_UART_Int(Motor_Speed_Z);
1471:AS76.c        ****         Write_Debug_UART_Char(",");
1472:AS76.c        ****         Send_Feedback_to_USB(Error);
1473:AS76.c        ****     }
1474:AS76.c        ****     
1475:AS76.c        ****     else if(command == GotoZ_Vs)
1476:AS76.c        ****     {
1477:AS76.c        ****     Position_Z_Requested = ((int32)USB_received[5] << 24) + ((int32)USB_received[4] << 16) + ((int3
1478:AS76.c        ****     Motor_Speed_Z = ((int32)USB_received[9] << 24) + ((int32)USB_received[8] << 16) + ((int32)USB_r
1479:AS76.c        ****     update_max_velocity(Motor_Speed_Z,TMC5160_nCS_MotorZ);    
1480:AS76.c        ****     Position_Z_Requested = (Position_Z_Requested / 16);
1481:AS76.c        ****     Position_Z_Requested = Position_Z_Requested * 51.2;
1482:AS76.c        ****     goTo_Z(Position_Z_Requested);
1483:AS76.c        ****     Send_Feedback_to_USB(Error);
1484:AS76.c        ****     }
1485:AS76.c        ****     
1486:AS76.c        ****     else if(command == GotoO_Vs)
1487:AS76.c        ****     {        
1488:AS76.c        ****     time_ms   = ((int32)USB_received[5] << 24) + ((int32)USB_received[4] << 16) + ((int32)USB_recei
1489:AS76.c        ****     oil_speed = ((int32)USB_received[9] << 24) + ((int32)USB_received[8] << 16) + ((int32)USB_recei
1490:AS76.c        ****     oil_dir   = USB_received[10];
1491:AS76.c        ****     run_pumpvs (time_ms, oil_speed, oil_dir);
1492:AS76.c        ****     Error = 0;
1493:AS76.c        ****     Send_Feedback_to_USB(Error);
1494:AS76.c        ****     }
1495:AS76.c        ****     
1496:AS76.c        ****     else if (command == GotoXYZ_Vs)
1497:AS76.c        ****     {
1498:AS76.c        ****         Position_X_Requested = ((int32)USB_received[5] << 24) + ((int32)USB_received[4] << 16) + ((
1499:AS76.c        ****         Input_Position_X_Temp = Position_X_Requested;
1500:AS76.c        ****         Position_Y_Requested = ((int32)USB_received[9] << 24) + ((int32)USB_received[8] << 16) + ((
1501:AS76.c        ****         Position_Z_Requested = ((int32)USB_received[13] << 24) + ((int32)USB_received[12] << 16) + 
1502:AS76.c        ****         
1503:AS76.c        ****         Motor_Speed_X = ((int32)USB_received[17] << 24) + ((int32)USB_received[16] << 16) + ((int32
1504:AS76.c        ****         Motor_Speed_Y = ((int32)USB_received[21] << 24) + ((int32)USB_received[20] << 16) + ((int32
1505:AS76.c        ****         Motor_Speed_Z = ((int32)USB_received[25] << 24) + ((int32)USB_received[24] << 16) + ((int32
1506:AS76.c        ****         
1507:AS76.c        ****         CyDelayUs(10);
1508:AS76.c        ****         
1509:AS76.c        ****         update_max_velocity(Motor_Speed_X, TMC5160_nCS_MotorX);        
1510:AS76.c        ****         update_max_velocity(Motor_Speed_Y, TMC5160_nCS_MotorY);        
1511:AS76.c        ****         update_max_velocity(Motor_Speed_Z, TMC5160_nCS_MotorZ);
1512:AS76.c        ****         
1513:AS76.c        ****         Position_X_Requested = (Position_X_Requested / 4);
1514:AS76.c        ****         Position_X_Requested = Position_X_Requested * 12.8;
1515:AS76.c        ****         
1516:AS76.c        ****         Position_Y_Requested = (Position_Y_Requested / 4);
1517:AS76.c        ****         Position_Y_Requested = Position_Y_Requested * 12.8;
1518:AS76.c        ****         
1519:AS76.c        ****         Position_Z_Requested = (Position_Z_Requested / 16);
1520:AS76.c        ****         Position_Z_Requested = Position_Z_Requested * 51.2;
1521:AS76.c        ****         
1522:AS76.c        ****         CyDelayUs(100);
1523:AS76.c        ****         
1524:AS76.c        ****         Error = goTo_XYZ(Position_X_Requested, Position_Y_Requested, Position_Z_Requested);
1525:AS76.c        ****         CyDelay(100);
1526:AS76.c        ****          X_QuadPosition = Position_X_Requested;
ARM GAS  C:\Users\Revanth\AppData\Local\Temp\ccvmpTGe.s 			page 34


1527:AS76.c        ****         Send_Feedback_to_USB(Error);
1528:AS76.c        ****     }
1529:AS76.c        ****     else if (command == SetNoOfExecution)
1530:AS76.c        ****     {
1531:AS76.c        ****         //set_no_of_execution();
1532:AS76.c        ****         
1533:AS76.c        ****         Send_Feedback_to_USB(Error);   
1534:AS76.c        ****     }
1535:AS76.c        ****     else if (command == Get_Status)                          
1536:AS76.c        ****     {
1537:AS76.c        ****         LED3_Write(0xFF);
1538:AS76.c        ****         Write_Debug_UART_Char("Get Status Command Recived  \r\n");
1539:AS76.c        ****         CyDelay(10);
1540:AS76.c        ****         Send_Feedback_to_USB(0);
1541:AS76.c        ****         LED3_Write(0x00);
1542:AS76.c        ****     }
1543:AS76.c        ****     else
1544:AS76.c        ****     {
1545:AS76.c        ****         Error = 19;//Wrong_Command_Received
1546:AS76.c        ****         Write_Debug_UART_Char("Wrong Command Received*********** \r\n");
1547:AS76.c        ****         UART_print_all_values();
1548:AS76.c        ****         Send_Feedback_to_USB(19);
1549:AS76.c        ****     }
1550:AS76.c        ****     //Pin_USB_RX_TX_Indicator_LED_Write(0);/* turn OFF LED as a indicator to stop process the comma
1551:AS76.c        **** }
1552:AS76.c        **** void Send_Feedback_to_USB(int Error)//Send Feedback to USB if USB command executed correctely 
1553:AS76.c        **** {
1554:AS76.c        ****      Read_All_Optical_Encoder();
1555:AS76.c        **** 
1556:AS76.c        ****     
1557:AS76.c        ****     
1558:AS76.c        ****         if(Error == 0)
1559:AS76.c        ****         {            
1560:AS76.c        ****             USB_transmit[0] = command;
1561:AS76.c        ****             USB_transmit[1] = (command >> 8);
1562:AS76.c        ****             USB_transmit[2] = No_Error;
1563:AS76.c        ****             USB_transmit[3] = No_Error >> 8;
1564:AS76.c        ****         }
1565:AS76.c        ****         else
1566:AS76.c        ****         {
1567:AS76.c        ****             switch(Error)
1568:AS76.c        ****             {
1569:AS76.c        ****                 case 1:
1570:AS76.c        ****                 {
1571:AS76.c        ****                     USB_transmit[2] = X_Motor_Not_Working;
1572:AS76.c        ****                     USB_transmit[3] = X_Motor_Not_Working >> 8; 
1573:AS76.c        ****                     break;
1574:AS76.c        ****                 }
1575:AS76.c        ****                 case 2:
1576:AS76.c        ****                 {
1577:AS76.c        ****                     USB_transmit[2] = X_Encoder_Not_Working;
1578:AS76.c        ****                     USB_transmit[3] = X_Encoder_Not_Working >> 8; 
1579:AS76.c        ****                     break;
1580:AS76.c        ****                 }
1581:AS76.c        ****                 case 3:
1582:AS76.c        ****                 {
1583:AS76.c        ****                     USB_transmit[2] = X_Switch_Not_Working;
ARM GAS  C:\Users\Revanth\AppData\Local\Temp\ccvmpTGe.s 			page 35


1584:AS76.c        ****                     USB_transmit[3] = X_Switch_Not_Working >> 8; 
1585:AS76.c        ****                     break;
1586:AS76.c        ****                 }
1587:AS76.c        ****                 case 4:
1588:AS76.c        ****                 {
1589:AS76.c        ****                     USB_transmit[2] = X_Motor_Driver_Fault;
1590:AS76.c        ****                     USB_transmit[3] = X_Motor_Driver_Fault >> 8; 
1591:AS76.c        ****                     break;
1592:AS76.c        ****                 }
1593:AS76.c        ****                 case 5:
1594:AS76.c        ****                 {
1595:AS76.c        ****                     USB_transmit[2] = Requested_X_Step_Exceeding_The_Limit;
1596:AS76.c        ****                     USB_transmit[3] = Requested_X_Step_Exceeding_The_Limit >> 8; 
1597:AS76.c        ****                     break;
1598:AS76.c        ****                 }
1599:AS76.c        ****                 case 6:
1600:AS76.c        ****                 {
1601:AS76.c        ****                     USB_transmit[2] = X_Homing_Not_Done_Yet;
1602:AS76.c        ****                     USB_transmit[3] = X_Homing_Not_Done_Yet >> 8; 
1603:AS76.c        ****                     break;
1604:AS76.c        ****                 }
1605:AS76.c        ****                 case 7:
1606:AS76.c        ****                 {
1607:AS76.c        ****                     USB_transmit[2] = X_Motor_Busy ;
1608:AS76.c        ****                     USB_transmit[3] = X_Motor_Busy >> 8; 
1609:AS76.c        ****                     break;
1610:AS76.c        ****                 }
1611:AS76.c        ****                 case 8:
1612:AS76.c        ****                 {
1613:AS76.c        ****                     USB_transmit[2] = Y_Motor_Not_Working;
1614:AS76.c        ****                     USB_transmit[3] = Y_Motor_Not_Working >> 8; 
1615:AS76.c        ****                     break;
1616:AS76.c        ****                 }
1617:AS76.c        ****                 case 9:
1618:AS76.c        ****                 {
1619:AS76.c        ****                     USB_transmit[2] = Y_Encoder_Not_Working;
1620:AS76.c        ****                     USB_transmit[3] = Y_Encoder_Not_Working >> 8; 
1621:AS76.c        ****                     break;
1622:AS76.c        ****                 }
1623:AS76.c        ****                 case 10:
1624:AS76.c        ****                 {
1625:AS76.c        ****                     USB_transmit[2] = Y_Switch_Not_Working;
1626:AS76.c        ****                     USB_transmit[3] = Y_Switch_Not_Working >> 8; 
1627:AS76.c        ****                     break;
1628:AS76.c        ****                 }
1629:AS76.c        ****                 case 11:
1630:AS76.c        ****                 {
1631:AS76.c        ****                     USB_transmit[2] = Y_Motor_Driver_Fault;
1632:AS76.c        ****                     USB_transmit[3] = Y_Motor_Driver_Fault >> 8; 
1633:AS76.c        ****                     break;
1634:AS76.c        ****                 }
1635:AS76.c        ****                 case 12:
1636:AS76.c        ****                 {
1637:AS76.c        ****                     USB_transmit[2] = Requested_Y_Step_Exceeding_The_Limit;
1638:AS76.c        ****                     USB_transmit[3] = Requested_Y_Step_Exceeding_The_Limit >> 8; 
1639:AS76.c        ****                     break;
1640:AS76.c        ****                 }
ARM GAS  C:\Users\Revanth\AppData\Local\Temp\ccvmpTGe.s 			page 36


1641:AS76.c        ****                 case 13:
1642:AS76.c        ****                 {
1643:AS76.c        ****                     USB_transmit[2] = Y_Homing_Not_Done_Yet;
1644:AS76.c        ****                     USB_transmit[3] = Y_Homing_Not_Done_Yet >> 8; 
1645:AS76.c        ****                     break;
1646:AS76.c        ****                 }
1647:AS76.c        ****                 case 14:
1648:AS76.c        ****                 {
1649:AS76.c        ****                     USB_transmit[2] = Y_Motor_Busy;
1650:AS76.c        ****                     USB_transmit[3] = Y_Motor_Busy >> 8; 
1651:AS76.c        ****                     break;
1652:AS76.c        ****                 }
1653:AS76.c        ****                 case 15:
1654:AS76.c        ****                 {
1655:AS76.c        ****                     USB_transmit[2] = Z_Motor_Not_Working ;
1656:AS76.c        ****                     USB_transmit[3] = Z_Motor_Not_Working >> 8; 
1657:AS76.c        ****                     break;
1658:AS76.c        ****                 }
1659:AS76.c        ****                 case 16:
1660:AS76.c        ****                 {
1661:AS76.c        ****                     USB_transmit[2] = Z_Encoder_Not_Working ;
1662:AS76.c        ****                     USB_transmit[3] = Z_Encoder_Not_Working >> 8; 
1663:AS76.c        ****                     break;
1664:AS76.c        ****                 }
1665:AS76.c        ****                 case 17:
1666:AS76.c        ****                 {
1667:AS76.c        ****                     USB_transmit[2] = Z_Switch_Not_Working;
1668:AS76.c        ****                     USB_transmit[3] = Z_Switch_Not_Working >> 8; 
1669:AS76.c        ****                     break;
1670:AS76.c        ****                 }
1671:AS76.c        ****                 case 18:
1672:AS76.c        ****                 {
1673:AS76.c        ****                     USB_transmit[2] = Z_Motor_Driver_Fault;
1674:AS76.c        ****                     USB_transmit[3] = Z_Motor_Driver_Fault >> 8; 
1675:AS76.c        ****                     break;
1676:AS76.c        ****                 }
1677:AS76.c        ****                 case 19:
1678:AS76.c        ****                 {
1679:AS76.c        ****                     USB_transmit[2] = Requested_Z_Step_Exceeding_The_Limit;
1680:AS76.c        ****                     USB_transmit[3] = Requested_Z_Step_Exceeding_The_Limit >> 8; 
1681:AS76.c        ****                     break;
1682:AS76.c        ****                 }
1683:AS76.c        ****                 case 20:
1684:AS76.c        ****                 {
1685:AS76.c        ****                     USB_transmit[2] = Z_Homing_Not_Done_Yet;
1686:AS76.c        ****                     USB_transmit[3] = Z_Homing_Not_Done_Yet >> 8; 
1687:AS76.c        ****                     break;
1688:AS76.c        ****                 }
1689:AS76.c        ****                 case 21:
1690:AS76.c        ****                 {
1691:AS76.c        ****                     USB_transmit[2] = Z_Motor_Busy;
1692:AS76.c        ****                     USB_transmit[3] = Z_Motor_Busy >> 8; 
1693:AS76.c        ****                     break;
1694:AS76.c        ****                 }
1695:AS76.c        ****                 case 22:
1696:AS76.c        ****                 {
1697:AS76.c        ****                     USB_transmit[2] = T_Motor_Not_Working;
ARM GAS  C:\Users\Revanth\AppData\Local\Temp\ccvmpTGe.s 			page 37


1698:AS76.c        ****                     USB_transmit[3] =  T_Motor_Not_Working>> 8; 
1699:AS76.c        ****                     break;
1700:AS76.c        ****                 }
1701:AS76.c        ****                 case 23:
1702:AS76.c        ****                 {
1703:AS76.c        ****                     USB_transmit[2] = T_Encoder_Not_Working;
1704:AS76.c        ****                     USB_transmit[3] =  T_Encoder_Not_Working>> 8; 
1705:AS76.c        ****                     break;
1706:AS76.c        ****                 }
1707:AS76.c        ****                 case 24:
1708:AS76.c        ****                 {
1709:AS76.c        ****                     USB_transmit[2] = T_Switch_Not_Working;
1710:AS76.c        ****                     USB_transmit[3] =  T_Switch_Not_Working>> 8; 
1711:AS76.c        ****                     break;
1712:AS76.c        ****                 }
1713:AS76.c        ****                 
1714:AS76.c        ****                 case 25:
1715:AS76.c        ****                 {
1716:AS76.c        ****                     USB_transmit[2] = T_Motor_Driver_Fault;
1717:AS76.c        ****                     USB_transmit[3] =  T_Motor_Driver_Fault>> 8; 
1718:AS76.c        ****                     break;
1719:AS76.c        ****                 }
1720:AS76.c        ****                 case 26:
1721:AS76.c        ****                 {
1722:AS76.c        ****                     USB_transmit[2] = Requested_T_Step_Exceeding_The_Limit;
1723:AS76.c        ****                     USB_transmit[3] =  Requested_T_Step_Exceeding_The_Limit>> 8; 
1724:AS76.c        ****                     break;
1725:AS76.c        ****                 }
1726:AS76.c        ****                 case 27:
1727:AS76.c        ****                 {
1728:AS76.c        ****                     USB_transmit[2] = T_Homing_Not_Done_Yet;
1729:AS76.c        ****                     USB_transmit[3] =  T_Homing_Not_Done_Yet>> 8; 
1730:AS76.c        ****                     break;
1731:AS76.c        ****                 }
1732:AS76.c        ****                 case 28:
1733:AS76.c        ****                 {
1734:AS76.c        ****                     USB_transmit[2] = T_Motor_Busy;
1735:AS76.c        ****                     USB_transmit[3] = T_Motor_Busy >> 8; 
1736:AS76.c        ****                     break;
1737:AS76.c        ****                 }
1738:AS76.c        ****                 case 29:
1739:AS76.c        ****                 {
1740:AS76.c        ****                     USB_transmit[2] = Wrong_Command_Received;
1741:AS76.c        ****                     USB_transmit[3] = Wrong_Command_Received >> 8; 
1742:AS76.c        ****                     break;
1743:AS76.c        ****                 }
1744:AS76.c        ****                 case 30:
1745:AS76.c        ****                 {
1746:AS76.c        ****                     USB_transmit[2] = PCB_Paused;
1747:AS76.c        ****                     USB_transmit[3] = PCB_Paused >> 8; 
1748:AS76.c        ****                     break;
1749:AS76.c        ****                 }
1750:AS76.c        ****                 case 31:
1751:AS76.c        ****                 {
1752:AS76.c        ****                     USB_transmit[2] = PCB_Busy;
1753:AS76.c        ****                     USB_transmit[3] = PCB_Busy >> 8; 
1754:AS76.c        ****                     break;
ARM GAS  C:\Users\Revanth\AppData\Local\Temp\ccvmpTGe.s 			page 38


1755:AS76.c        ****                 }
1756:AS76.c        ****                 case 32:
1757:AS76.c        ****                 {
1758:AS76.c        ****                     USB_transmit[2] = All_Motors_Homing_Not_Done;
1759:AS76.c        ****                     USB_transmit[3] = All_Motors_Homing_Not_Done >> 8; 
1760:AS76.c        ****                     break;
1761:AS76.c        ****                 }
1762:AS76.c        ****                 
1763:AS76.c        ****                 case 33:
1764:AS76.c        ****                 {
1765:AS76.c        ****                     USB_transmit[2] = O_Motor_Not_Working;
1766:AS76.c        ****                     USB_transmit[3] = O_Motor_Not_Working >> 8; 
1767:AS76.c        ****                     break;
1768:AS76.c        ****                 }
1769:AS76.c        ****             }
1770:AS76.c        ****         }
1771:AS76.c        ****         
1772:AS76.c        ****         //X_QuadPosition = (X_QuadPosition * 4);
1773:AS76.c        ****         Y_QuadPosition = (Y_QuadPosition * 4);    
1774:AS76.c        ****         T_QuadPosition = (int)(T_QuadPosition * 3.2); 
1775:AS76.c        ****         USB_transmit[4] = (X_QuadPosition);
1776:AS76.c        ****         USB_transmit[5] = (X_QuadPosition) >> 8;
1777:AS76.c        ****         USB_transmit[6] = (X_QuadPosition) >> 16;
1778:AS76.c        ****         USB_transmit[7] = (X_QuadPosition) >> 24;
1779:AS76.c        ****         USB_transmit[8] = (Y_QuadPosition);
1780:AS76.c        ****         USB_transmit[9] = (Y_QuadPosition) >> 8;
1781:AS76.c        ****         USB_transmit[10] =(Y_QuadPosition) >> 16;
1782:AS76.c        ****         USB_transmit[11] =(Y_QuadPosition) >> 24;
1783:AS76.c        ****         USB_transmit[12] = Z_QuadPosition;
1784:AS76.c        ****         USB_transmit[13] = Z_QuadPosition >> 8;
1785:AS76.c        ****         USB_transmit[14] = Z_QuadPosition >> 16;
1786:AS76.c        ****         USB_transmit[15] = Z_QuadPosition >> 24;
1787:AS76.c        ****         USB_transmit[16] = T_QuadPosition;
1788:AS76.c        ****         USB_transmit[17] = T_QuadPosition >> 8;
1789:AS76.c        ****         USB_transmit[18] = T_QuadPosition >> 16;
1790:AS76.c        ****         USB_transmit[19] = T_QuadPosition >> 24;
1791:AS76.c        ****         USB_transmit[20] = PWM_Condenser_comare_value;
1792:AS76.c        ****         USB_transmit[21] = PWM_Condenser_comare_value >> 8;
1793:AS76.c        ****         USB_transmit[22] = 0;
1794:AS76.c        ****         USB_transmit[23] = 0;
1795:AS76.c        ****         USB_transmit[24] = 0;
1796:AS76.c        ****         USB_transmit[25] = 0;
1797:AS76.c        ****         USB_transmit[26] = 0;
1798:AS76.c        ****         USB_transmit[27] = 0;
1799:AS76.c        ****         USB_transmit[28] = Motor_Speed_X;
1800:AS76.c        ****         USB_transmit[29] = Motor_Speed_X >> 8;
1801:AS76.c        ****         USB_transmit[30] = Motor_Speed_Y;
1802:AS76.c        ****         USB_transmit[31] = Motor_Speed_Y >> 8;
1803:AS76.c        ****         USB_transmit[32] = Motor_Speed_Z;
1804:AS76.c        ****         USB_transmit[33] = Motor_Speed_Z >> 8;
1805:AS76.c        ****         USB_transmit[34] = 0x00;
1806:AS76.c        ****         USB_transmit[35] = 0x00 >> 8;
1807:AS76.c        ****         USB_transmit[36] = 0x00;
1808:AS76.c        ****         USB_transmit[37] = 0x00;
1809:AS76.c        ****         USB_transmit[38] = 0x00;
1810:AS76.c        ****         USB_transmit[39] = Firmware_Version;
1811:AS76.c        ****         USB_transmit[40] = 0;
ARM GAS  C:\Users\Revanth\AppData\Local\Temp\ccvmpTGe.s 			page 39


1812:AS76.c        ****         USB_transmit[41] = 0;
1813:AS76.c        ****         USB_transmit[42] = 0;
1814:AS76.c        ****         USB_transmit[43] = 0;
1815:AS76.c        ****         USB_transmit[44] = 0;
1816:AS76.c        ****         USB_transmit[45] = 0;
1817:AS76.c        ****         
1818:AS76.c        ****         
1819:AS76.c        ****         
1820:AS76.c        ****         
1821:AS76.c        ****         
1822:AS76.c        ****         Write_Debug_UART_Char("Feedback Sent to Motherboard  \r\n");
1823:AS76.c        ****         USB_PutData(USB_transmit, 46);  //send data back to usb
1824:AS76.c        ****     
1825:AS76.c        **** }
1826:AS76.c        **** void USB_Detect_Indication_Via_LED()/* LED Indicator for USB detection. */
1827:AS76.c        **** {
 346              		.loc 1 1827 0
 347              		.cfi_startproc
 348              		@ args = 0, pretend = 0, frame = 0
 349              		@ frame_needed = 0, uses_anonymous_args = 0
 350              		@ link register save eliminated.
 351 0000 7047     		bx	lr
 352              		.cfi_endproc
 353              	.LFE93:
 354              		.size	USB_Detect_Indication_Via_LED, .-USB_Detect_Indication_Via_LED
 355 0002 00BF     		.section	.text.Clear_USB_RX_Buffer,"ax",%progbits
 356              		.align	2
 357              		.global	Clear_USB_RX_Buffer
 358              		.thumb
 359              		.thumb_func
 360              		.type	Clear_USB_RX_Buffer, %function
 361              	Clear_USB_RX_Buffer:
 362              	.LFB96:
1828:AS76.c        **** 
1829:AS76.c        **** }
1830:AS76.c        **** void Initialize_USB()/* Start the USB. */
1831:AS76.c        **** {
1832:AS76.c        ****     USB_Start(0, USB_5V_OPERATION);   
1833:AS76.c        ****     while (0 == USB_GetConfiguration()) /* wait untill USB not found. */
1834:AS76.c        ****     {
1835:AS76.c        ****         Write_Debug_UART_Char("USB not Connected***********  \r\n");
1836:AS76.c        ****         CyDelayUs(1);
1837:AS76.c        ****     }
1838:AS76.c        ****     USB_CDC_Init();
1839:AS76.c        ****     Write_Debug_UART_Char("USB Connected  \r\n");
1840:AS76.c        ****     USB_EnableSofInt();  
1841:AS76.c        **** }
1842:AS76.c        **** void Is_USB_Unpluged()/* Check for changes in USB port reset if USB changes. */
1843:AS76.c        **** {
1844:AS76.c        ****    static bool dont_Execute_1st_Time=false;
1845:AS76.c        ****    if(USB_IsConfigurationChanged() != 0)
1846:AS76.c        ****    {
1847:AS76.c        ****     Beep_Twice();
1848:AS76.c        ****        if(USB_GetConfiguration() != 0)
1849:AS76.c        ****        {
1850:AS76.c        ****             if(dont_Execute_1st_Time)/* Ignore for the first time. */
1851:AS76.c        ****             {
ARM GAS  C:\Users\Revanth\AppData\Local\Temp\ccvmpTGe.s 			page 40


1852:AS76.c        ****                 Write_Debug_UART_Char("USB Unpluged PCB resetting ***********  \r\n");
1853:AS76.c        ****                 UART_print_all_values();
1854:AS76.c        ****                 CyDelay(1);
1855:AS76.c        ****                 CySoftwareReset();
1856:AS76.c        ****             }
1857:AS76.c        ****             dont_Execute_1st_Time = true;
1858:AS76.c        ****        }
1859:AS76.c        ****    }  
1860:AS76.c        **** }
1861:AS76.c        **** void Clear_USB_RX_Buffer()/* Initialize all USB_received 64 bits to 0. */
1862:AS76.c        **** {
 363              		.loc 1 1862 0
 364              		.cfi_startproc
 365              		@ args = 0, pretend = 0, frame = 0
 366              		@ frame_needed = 0, uses_anonymous_args = 0
 367              		@ link register save eliminated.
 368              	.LVL28:
1863:AS76.c        ****     int i =0;
1864:AS76.c        ****     for(i=0;i<65;i++)   //Initializing all bites to 0
 369              		.loc 1 1864 0
 370 0000 0023     		movs	r3, #0
 371 0002 03E0     		b	.L31
 372              	.LVL29:
 373              	.L32:
1865:AS76.c        ****         USB_received[i] = 0;   
 374              		.loc 1 1865 0 discriminator 3
 375 0004 0021     		movs	r1, #0
 376 0006 034A     		ldr	r2, .L33
 377 0008 D154     		strb	r1, [r2, r3]
1864:AS76.c        ****         USB_received[i] = 0;   
 378              		.loc 1 1864 0 discriminator 3
 379 000a 0133     		adds	r3, r3, #1
 380              	.LVL30:
 381              	.L31:
1864:AS76.c        ****         USB_received[i] = 0;   
 382              		.loc 1 1864 0 is_stmt 0 discriminator 1
 383 000c 402B     		cmp	r3, #64
 384 000e F9DD     		ble	.L32
1866:AS76.c        **** }
 385              		.loc 1 1866 0 is_stmt 1
 386 0010 7047     		bx	lr
 387              	.L34:
 388 0012 00BF     		.align	2
 389              	.L33:
 390 0014 00000000 		.word	USB_received
 391              		.cfi_endproc
 392              	.LFE96:
 393              		.size	Clear_USB_RX_Buffer, .-Clear_USB_RX_Buffer
 394              		.section	.text.Clear_Pending_USB_Data,"ax",%progbits
 395              		.align	2
 396              		.global	Clear_Pending_USB_Data
 397              		.thumb
 398              		.thumb_func
 399              		.type	Clear_Pending_USB_Data, %function
 400              	Clear_Pending_USB_Data:
 401              	.LFB97:
1867:AS76.c        **** void Clear_Pending_USB_Data()/* Clear all pending data on usb RX buffer. */
ARM GAS  C:\Users\Revanth\AppData\Local\Temp\ccvmpTGe.s 			page 41


1868:AS76.c        **** {
 402              		.loc 1 1868 0
 403              		.cfi_startproc
 404              		@ args = 0, pretend = 0, frame = 64
 405              		@ frame_needed = 0, uses_anonymous_args = 0
 406 0000 10B5     		push	{r4, lr}
 407              		.cfi_def_cfa_offset 8
 408              		.cfi_offset 4, -8
 409              		.cfi_offset 14, -4
 410 0002 90B0     		sub	sp, sp, #64
 411              		.cfi_def_cfa_offset 72
 412              	.LVL31:
1869:AS76.c        ****     int i;
1870:AS76.c        ****     uint8 USB_received_temp[64];
1871:AS76.c        ****     for(i=0;i<5;i++)
 413              		.loc 1 1871 0
 414 0004 0024     		movs	r4, #0
 415 0006 03E0     		b	.L36
 416              	.LVL32:
 417              	.L37:
1872:AS76.c        ****         {       
1873:AS76.c        ****             USB_GetAll(USB_received_temp);/* read and clear all Pending data. */
 418              		.loc 1 1873 0 discriminator 3
 419 0008 6846     		mov	r0, sp
 420 000a FFF7FEFF 		bl	USB_GetAll
 421              	.LVL33:
1871:AS76.c        ****         {       
 422              		.loc 1 1871 0 discriminator 3
 423 000e 0134     		adds	r4, r4, #1
 424              	.LVL34:
 425              	.L36:
1871:AS76.c        ****         {       
 426              		.loc 1 1871 0 is_stmt 0 discriminator 1
 427 0010 042C     		cmp	r4, #4
 428 0012 F9DD     		ble	.L37
1874:AS76.c        ****         }    
1875:AS76.c        **** }
 429              		.loc 1 1875 0 is_stmt 1
 430 0014 10B0     		add	sp, sp, #64
 431              		.cfi_def_cfa_offset 8
 432              		@ sp needed
 433 0016 10BD     		pop	{r4, pc}
 434              		.cfi_endproc
 435              	.LFE97:
 436              		.size	Clear_Pending_USB_Data, .-Clear_Pending_USB_Data
 437              		.section	.text.Write_Debug_UART_Char,"ax",%progbits
 438              		.align	2
 439              		.global	Write_Debug_UART_Char
 440              		.thumb
 441              		.thumb_func
 442              		.type	Write_Debug_UART_Char, %function
 443              	Write_Debug_UART_Char:
 444              	.LFB98:
1876:AS76.c        **** void Write_Debug_UART_Char(char Str[])
1877:AS76.c        **** {
 445              		.loc 1 1877 0
 446              		.cfi_startproc
ARM GAS  C:\Users\Revanth\AppData\Local\Temp\ccvmpTGe.s 			page 42


 447              		@ args = 0, pretend = 0, frame = 0
 448              		@ frame_needed = 0, uses_anonymous_args = 0
 449              	.LVL35:
 450 0000 10B5     		push	{r4, lr}
 451              		.cfi_def_cfa_offset 8
 452              		.cfi_offset 4, -8
 453              		.cfi_offset 14, -4
 454 0002 0446     		mov	r4, r0
 455              	.LBB2:
1878:AS76.c        ****     //if(Pin_UART_Enable_Read()==0)
1879:AS76.c        ****     {
1880:AS76.c        ****         static char Str_Last_One[] = "ShonitV2.2\r\n";
1881:AS76.c        ****         if((strncmp(Str_Last_One, Str, 10)!=0))
 456              		.loc 1 1881 0
 457 0004 0A22     		movs	r2, #10
 458 0006 0146     		mov	r1, r0
 459 0008 0748     		ldr	r0, .L42
 460              	.LVL36:
 461 000a FFF7FEFF 		bl	strncmp
 462              	.LVL37:
 463 000e 50B1     		cbz	r0, .L39
1882:AS76.c        ****     	{
1883:AS76.c        ****             UART_PCB_LOG_PutString(Str);
 464              		.loc 1 1883 0
 465 0010 2046     		mov	r0, r4
 466 0012 FFF7FEFF 		bl	UART_PCB_LOG_PutString
 467              	.LVL38:
1884:AS76.c        ****             CyDelayUs(1);
 468              		.loc 1 1884 0
 469 0016 0120     		movs	r0, #1
 470 0018 FFF7FEFF 		bl	CyDelayUs
 471              	.LVL39:
1885:AS76.c        ****             strncpy(Str_Last_One, Str, 10); 
 472              		.loc 1 1885 0
 473 001c 0A22     		movs	r2, #10
 474 001e 2146     		mov	r1, r4
 475 0020 0148     		ldr	r0, .L42
 476 0022 FFF7FEFF 		bl	strncpy
 477              	.LVL40:
 478              	.L39:
 479 0026 10BD     		pop	{r4, pc}
 480              	.LVL41:
 481              	.L43:
 482              		.align	2
 483              	.L42:
 484 0028 04000000 		.word	.LANCHOR1+4
 485              	.LBE2:
 486              		.cfi_endproc
 487              	.LFE98:
 488              		.size	Write_Debug_UART_Char, .-Write_Debug_UART_Char
 489              		.section	.text.Beep_Once,"ax",%progbits
 490              		.align	2
 491              		.global	Beep_Once
 492              		.thumb
 493              		.thumb_func
 494              		.type	Beep_Once, %function
 495              	Beep_Once:
ARM GAS  C:\Users\Revanth\AppData\Local\Temp\ccvmpTGe.s 			page 43


 496              	.LFB83:
1172:AS76.c        ****     PWM_Buzzer_WriteCompare(2500);
 497              		.loc 1 1172 0
 498              		.cfi_startproc
 499              		@ args = 0, pretend = 0, frame = 0
 500              		@ frame_needed = 0, uses_anonymous_args = 0
 501 0000 08B5     		push	{r3, lr}
 502              		.cfi_def_cfa_offset 8
 503              		.cfi_offset 3, -8
 504              		.cfi_offset 14, -4
1173:AS76.c        ****     CyDelay(200);
 505              		.loc 1 1173 0
 506 0002 40F6C410 		movw	r0, #2500
 507 0006 FFF7FEFF 		bl	PWM_Buzzer_WriteCompare
 508              	.LVL42:
1174:AS76.c        ****     PWM_Buzzer_WriteCompare(0);
 509              		.loc 1 1174 0
 510 000a C820     		movs	r0, #200
 511 000c FFF7FEFF 		bl	CyDelay
 512              	.LVL43:
1175:AS76.c        ****     Write_Debug_UART_Char("Beeped Once  \r\n");
 513              		.loc 1 1175 0
 514 0010 0020     		movs	r0, #0
 515 0012 FFF7FEFF 		bl	PWM_Buzzer_WriteCompare
 516              	.LVL44:
1176:AS76.c        ****     return 0;
 517              		.loc 1 1176 0
 518 0016 0248     		ldr	r0, .L46
 519 0018 FFF7FEFF 		bl	Write_Debug_UART_Char
 520              	.LVL45:
1178:AS76.c        **** 
 521              		.loc 1 1178 0
 522 001c 0020     		movs	r0, #0
 523 001e 08BD     		pop	{r3, pc}
 524              	.L47:
 525              		.align	2
 526              	.L46:
 527 0020 00000000 		.word	.LC0
 528              		.cfi_endproc
 529              	.LFE83:
 530              		.size	Beep_Once, .-Beep_Once
 531              		.section	.text.Beep_Twice,"ax",%progbits
 532              		.align	2
 533              		.global	Beep_Twice
 534              		.thumb
 535              		.thumb_func
 536              		.type	Beep_Twice, %function
 537              	Beep_Twice:
 538              	.LFB84:
1181:AS76.c        ****     PWM_Buzzer_WriteCompare(2500);
 539              		.loc 1 1181 0
 540              		.cfi_startproc
 541              		@ args = 0, pretend = 0, frame = 0
 542              		@ frame_needed = 0, uses_anonymous_args = 0
 543 0000 08B5     		push	{r3, lr}
 544              		.cfi_def_cfa_offset 8
 545              		.cfi_offset 3, -8
ARM GAS  C:\Users\Revanth\AppData\Local\Temp\ccvmpTGe.s 			page 44


 546              		.cfi_offset 14, -4
1182:AS76.c        ****     CyDelay(200);
 547              		.loc 1 1182 0
 548 0002 40F6C410 		movw	r0, #2500
 549 0006 FFF7FEFF 		bl	PWM_Buzzer_WriteCompare
 550              	.LVL46:
1183:AS76.c        ****     PWM_Buzzer_WriteCompare(0);
 551              		.loc 1 1183 0
 552 000a C820     		movs	r0, #200
 553 000c FFF7FEFF 		bl	CyDelay
 554              	.LVL47:
1184:AS76.c        ****     CyDelay(200);
 555              		.loc 1 1184 0
 556 0010 0020     		movs	r0, #0
 557 0012 FFF7FEFF 		bl	PWM_Buzzer_WriteCompare
 558              	.LVL48:
1185:AS76.c        ****     PWM_Buzzer_WriteCompare(2500);
 559              		.loc 1 1185 0
 560 0016 C820     		movs	r0, #200
 561 0018 FFF7FEFF 		bl	CyDelay
 562              	.LVL49:
1186:AS76.c        ****     CyDelay(200);
 563              		.loc 1 1186 0
 564 001c 40F6C410 		movw	r0, #2500
 565 0020 FFF7FEFF 		bl	PWM_Buzzer_WriteCompare
 566              	.LVL50:
1187:AS76.c        ****     PWM_Buzzer_WriteCompare(0);
 567              		.loc 1 1187 0
 568 0024 C820     		movs	r0, #200
 569 0026 FFF7FEFF 		bl	CyDelay
 570              	.LVL51:
1188:AS76.c        ****     Write_Debug_UART_Char("Beeped Twice  \r\n");
 571              		.loc 1 1188 0
 572 002a 0020     		movs	r0, #0
 573 002c FFF7FEFF 		bl	PWM_Buzzer_WriteCompare
 574              	.LVL52:
1189:AS76.c        ****     return 0;
 575              		.loc 1 1189 0
 576 0030 0248     		ldr	r0, .L50
 577 0032 FFF7FEFF 		bl	Write_Debug_UART_Char
 578              	.LVL53:
1191:AS76.c        **** 
 579              		.loc 1 1191 0
 580 0036 0020     		movs	r0, #0
 581 0038 08BD     		pop	{r3, pc}
 582              	.L51:
 583 003a 00BF     		.align	2
 584              	.L50:
 585 003c 10000000 		.word	.LC1
 586              		.cfi_endproc
 587              	.LFE84:
 588              		.size	Beep_Twice, .-Beep_Twice
 589              		.section	.text.Long_Beep,"ax",%progbits
 590              		.align	2
 591              		.global	Long_Beep
 592              		.thumb
 593              		.thumb_func
ARM GAS  C:\Users\Revanth\AppData\Local\Temp\ccvmpTGe.s 			page 45


 594              		.type	Long_Beep, %function
 595              	Long_Beep:
 596              	.LFB85:
1194:AS76.c        ****     PWM_Buzzer_WriteCompare(2500);
 597              		.loc 1 1194 0
 598              		.cfi_startproc
 599              		@ args = 0, pretend = 0, frame = 0
 600              		@ frame_needed = 0, uses_anonymous_args = 0
 601 0000 08B5     		push	{r3, lr}
 602              		.cfi_def_cfa_offset 8
 603              		.cfi_offset 3, -8
 604              		.cfi_offset 14, -4
1195:AS76.c        ****     CyDelay(2000);
 605              		.loc 1 1195 0
 606 0002 40F6C410 		movw	r0, #2500
 607 0006 FFF7FEFF 		bl	PWM_Buzzer_WriteCompare
 608              	.LVL54:
1196:AS76.c        ****     PWM_Buzzer_WriteCompare(0);
 609              		.loc 1 1196 0
 610 000a 4FF4FA60 		mov	r0, #2000
 611 000e FFF7FEFF 		bl	CyDelay
 612              	.LVL55:
1197:AS76.c        ****     CyDelay(200);
 613              		.loc 1 1197 0
 614 0012 0020     		movs	r0, #0
 615 0014 FFF7FEFF 		bl	PWM_Buzzer_WriteCompare
 616              	.LVL56:
1198:AS76.c        ****     
 617              		.loc 1 1198 0
 618 0018 C820     		movs	r0, #200
 619 001a FFF7FEFF 		bl	CyDelay
 620              	.LVL57:
1200:AS76.c        ****     return 0;
 621              		.loc 1 1200 0
 622 001e 0248     		ldr	r0, .L54
 623 0020 FFF7FEFF 		bl	Write_Debug_UART_Char
 624              	.LVL58:
1202:AS76.c        **** 
 625              		.loc 1 1202 0
 626 0024 0020     		movs	r0, #0
 627 0026 08BD     		pop	{r3, pc}
 628              	.L55:
 629              		.align	2
 630              	.L54:
 631 0028 24000000 		.word	.LC2
 632              		.cfi_endproc
 633              	.LFE85:
 634              		.size	Long_Beep, .-Long_Beep
 635              		.global	__aeabi_i2d
 636              		.global	__aeabi_dmul
 637              		.global	__aeabi_d2iz
 638              		.section	.text.Send_Feedback_to_USB,"ax",%progbits
 639              		.align	2
 640              		.global	Send_Feedback_to_USB
 641              		.thumb
 642              		.thumb_func
 643              		.type	Send_Feedback_to_USB, %function
ARM GAS  C:\Users\Revanth\AppData\Local\Temp\ccvmpTGe.s 			page 46


 644              	Send_Feedback_to_USB:
 645              	.LFB92:
1553:AS76.c        ****      Read_All_Optical_Encoder();
 646              		.loc 1 1553 0
 647              		.cfi_startproc
 648              		@ args = 0, pretend = 0, frame = 0
 649              		@ frame_needed = 0, uses_anonymous_args = 0
 650              	.LVL59:
 651 0000 38B5     		push	{r3, r4, r5, lr}
 652              		.cfi_def_cfa_offset 16
 653              		.cfi_offset 3, -16
 654              		.cfi_offset 4, -12
 655              		.cfi_offset 5, -8
 656              		.cfi_offset 14, -4
 657 0002 0446     		mov	r4, r0
1554:AS76.c        **** 
 658              		.loc 1 1554 0
 659 0004 FFF7FEFF 		bl	Read_All_Optical_Encoder
 660              	.LVL60:
1558:AS76.c        ****         {            
 661              		.loc 1 1558 0
 662 0008 54B9     		cbnz	r4, .L57
1560:AS76.c        ****             USB_transmit[1] = (command >> 8);
 663              		.loc 1 1560 0
 664 000a B14B     		ldr	r3, .L94+8
 665 000c 1A68     		ldr	r2, [r3]
 666 000e B14B     		ldr	r3, .L94+12
 667 0010 1A70     		strb	r2, [r3]
1561:AS76.c        ****             USB_transmit[2] = No_Error;
 668              		.loc 1 1561 0
 669 0012 120A     		lsrs	r2, r2, #8
 670 0014 5A70     		strb	r2, [r3, #1]
1562:AS76.c        ****             USB_transmit[3] = No_Error >> 8;
 671              		.loc 1 1562 0
 672 0016 0022     		movs	r2, #0
 673 0018 9A70     		strb	r2, [r3, #2]
1563:AS76.c        ****         }
 674              		.loc 1 1563 0
 675 001a FA22     		movs	r2, #250
 676 001c DA70     		strb	r2, [r3, #3]
 677 001e DBE0     		b	.L58
 678              	.L57:
1567:AS76.c        ****             {
 679              		.loc 1 1567 0
 680 0020 013C     		subs	r4, r4, #1
 681              	.LVL61:
 682 0022 202C     		cmp	r4, #32
 683 0024 00F2D880 		bhi	.L58
 684 0028 DFE804F0 		tbb	[pc, r4]
 685              	.L60:
 686 002c 11       		.byte	(.L59-.L60)/2
 687 002d 17       		.byte	(.L61-.L60)/2
 688 002e 1D       		.byte	(.L62-.L60)/2
 689 002f 23       		.byte	(.L63-.L60)/2
 690 0030 29       		.byte	(.L64-.L60)/2
 691 0031 2F       		.byte	(.L65-.L60)/2
 692 0032 35       		.byte	(.L66-.L60)/2
ARM GAS  C:\Users\Revanth\AppData\Local\Temp\ccvmpTGe.s 			page 47


 693 0033 3B       		.byte	(.L67-.L60)/2
 694 0034 41       		.byte	(.L68-.L60)/2
 695 0035 47       		.byte	(.L69-.L60)/2
 696 0036 4D       		.byte	(.L70-.L60)/2
 697 0037 53       		.byte	(.L71-.L60)/2
 698 0038 59       		.byte	(.L72-.L60)/2
 699 0039 5F       		.byte	(.L73-.L60)/2
 700 003a 65       		.byte	(.L74-.L60)/2
 701 003b 6B       		.byte	(.L75-.L60)/2
 702 003c 71       		.byte	(.L76-.L60)/2
 703 003d 77       		.byte	(.L77-.L60)/2
 704 003e 7D       		.byte	(.L78-.L60)/2
 705 003f 83       		.byte	(.L79-.L60)/2
 706 0040 89       		.byte	(.L80-.L60)/2
 707 0041 8F       		.byte	(.L81-.L60)/2
 708 0042 95       		.byte	(.L82-.L60)/2
 709 0043 9B       		.byte	(.L83-.L60)/2
 710 0044 A1       		.byte	(.L84-.L60)/2
 711 0045 A7       		.byte	(.L85-.L60)/2
 712 0046 AD       		.byte	(.L86-.L60)/2
 713 0047 B3       		.byte	(.L87-.L60)/2
 714 0048 B9       		.byte	(.L88-.L60)/2
 715 0049 BF       		.byte	(.L89-.L60)/2
 716 004a C5       		.byte	(.L90-.L60)/2
 717 004b CB       		.byte	(.L91-.L60)/2
 718 004c D1       		.byte	(.L92-.L60)/2
 719 004d 00       		.p2align 1
 720              	.L59:
1571:AS76.c        ****                     USB_transmit[3] = X_Motor_Not_Working >> 8; 
 721              		.loc 1 1571 0
 722 004e A14B     		ldr	r3, .L94+12
 723 0050 0122     		movs	r2, #1
 724 0052 9A70     		strb	r2, [r3, #2]
1572:AS76.c        ****                     break;
 725              		.loc 1 1572 0
 726 0054 FA22     		movs	r2, #250
 727 0056 DA70     		strb	r2, [r3, #3]
1573:AS76.c        ****                 }
 728              		.loc 1 1573 0
 729 0058 BEE0     		b	.L58
 730              	.L61:
1577:AS76.c        ****                     USB_transmit[3] = X_Encoder_Not_Working >> 8; 
 731              		.loc 1 1577 0
 732 005a 9E4B     		ldr	r3, .L94+12
 733 005c 0222     		movs	r2, #2
 734 005e 9A70     		strb	r2, [r3, #2]
1578:AS76.c        ****                     break;
 735              		.loc 1 1578 0
 736 0060 FA22     		movs	r2, #250
 737 0062 DA70     		strb	r2, [r3, #3]
1579:AS76.c        ****                 }
 738              		.loc 1 1579 0
 739 0064 B8E0     		b	.L58
 740              	.L62:
1583:AS76.c        ****                     USB_transmit[3] = X_Switch_Not_Working >> 8; 
 741              		.loc 1 1583 0
 742 0066 9B4B     		ldr	r3, .L94+12
ARM GAS  C:\Users\Revanth\AppData\Local\Temp\ccvmpTGe.s 			page 48


 743 0068 1722     		movs	r2, #23
 744 006a 9A70     		strb	r2, [r3, #2]
1584:AS76.c        ****                     break;
 745              		.loc 1 1584 0
 746 006c FA22     		movs	r2, #250
 747 006e DA70     		strb	r2, [r3, #3]
1585:AS76.c        ****                 }
 748              		.loc 1 1585 0
 749 0070 B2E0     		b	.L58
 750              	.L63:
1589:AS76.c        ****                     USB_transmit[3] = X_Motor_Driver_Fault >> 8; 
 751              		.loc 1 1589 0
 752 0072 984B     		ldr	r3, .L94+12
 753 0074 0722     		movs	r2, #7
 754 0076 9A70     		strb	r2, [r3, #2]
1590:AS76.c        ****                     break;
 755              		.loc 1 1590 0
 756 0078 FA22     		movs	r2, #250
 757 007a DA70     		strb	r2, [r3, #3]
1591:AS76.c        ****                 }
 758              		.loc 1 1591 0
 759 007c ACE0     		b	.L58
 760              	.L64:
1595:AS76.c        ****                     USB_transmit[3] = Requested_X_Step_Exceeding_The_Limit >> 8; 
 761              		.loc 1 1595 0
 762 007e 954B     		ldr	r3, .L94+12
 763 0080 1122     		movs	r2, #17
 764 0082 9A70     		strb	r2, [r3, #2]
1596:AS76.c        ****                     break;
 765              		.loc 1 1596 0
 766 0084 FA22     		movs	r2, #250
 767 0086 DA70     		strb	r2, [r3, #3]
1597:AS76.c        ****                 }
 768              		.loc 1 1597 0
 769 0088 A6E0     		b	.L58
 770              	.L65:
1601:AS76.c        ****                     USB_transmit[3] = X_Homing_Not_Done_Yet >> 8; 
 771              		.loc 1 1601 0
 772 008a 924B     		ldr	r3, .L94+12
 773 008c 1D22     		movs	r2, #29
 774 008e 9A70     		strb	r2, [r3, #2]
1602:AS76.c        ****                     break;
 775              		.loc 1 1602 0
 776 0090 FA22     		movs	r2, #250
 777 0092 DA70     		strb	r2, [r3, #3]
1603:AS76.c        ****                 }
 778              		.loc 1 1603 0
 779 0094 A0E0     		b	.L58
 780              	.L66:
1607:AS76.c        ****                     USB_transmit[3] = X_Motor_Busy >> 8; 
 781              		.loc 1 1607 0
 782 0096 8F4B     		ldr	r3, .L94+12
 783 0098 2522     		movs	r2, #37
 784 009a 9A70     		strb	r2, [r3, #2]
1608:AS76.c        ****                     break;
 785              		.loc 1 1608 0
 786 009c FA22     		movs	r2, #250
ARM GAS  C:\Users\Revanth\AppData\Local\Temp\ccvmpTGe.s 			page 49


 787 009e DA70     		strb	r2, [r3, #3]
1609:AS76.c        ****                 }
 788              		.loc 1 1609 0
 789 00a0 9AE0     		b	.L58
 790              	.L67:
1613:AS76.c        ****                     USB_transmit[3] = Y_Motor_Not_Working >> 8; 
 791              		.loc 1 1613 0
 792 00a2 8C4B     		ldr	r3, .L94+12
 793 00a4 0322     		movs	r2, #3
 794 00a6 9A70     		strb	r2, [r3, #2]
1614:AS76.c        ****                     break;
 795              		.loc 1 1614 0
 796 00a8 FA22     		movs	r2, #250
 797 00aa DA70     		strb	r2, [r3, #3]
1615:AS76.c        ****                 }
 798              		.loc 1 1615 0
 799 00ac 94E0     		b	.L58
 800              	.L68:
1619:AS76.c        ****                     USB_transmit[3] = Y_Encoder_Not_Working >> 8; 
 801              		.loc 1 1619 0
 802 00ae 894B     		ldr	r3, .L94+12
 803 00b0 0422     		movs	r2, #4
 804 00b2 9A70     		strb	r2, [r3, #2]
1620:AS76.c        ****                     break;
 805              		.loc 1 1620 0
 806 00b4 FA22     		movs	r2, #250
 807 00b6 DA70     		strb	r2, [r3, #3]
1621:AS76.c        ****                 }
 808              		.loc 1 1621 0
 809 00b8 8EE0     		b	.L58
 810              	.L69:
1625:AS76.c        ****                     USB_transmit[3] = Y_Switch_Not_Working >> 8; 
 811              		.loc 1 1625 0
 812 00ba 864B     		ldr	r3, .L94+12
 813 00bc 1822     		movs	r2, #24
 814 00be 9A70     		strb	r2, [r3, #2]
1626:AS76.c        ****                     break;
 815              		.loc 1 1626 0
 816 00c0 FA22     		movs	r2, #250
 817 00c2 DA70     		strb	r2, [r3, #3]
1627:AS76.c        ****                 }
 818              		.loc 1 1627 0
 819 00c4 88E0     		b	.L58
 820              	.L70:
1631:AS76.c        ****                     USB_transmit[3] = Y_Motor_Driver_Fault >> 8; 
 821              		.loc 1 1631 0
 822 00c6 834B     		ldr	r3, .L94+12
 823 00c8 0822     		movs	r2, #8
 824 00ca 9A70     		strb	r2, [r3, #2]
1632:AS76.c        ****                     break;
 825              		.loc 1 1632 0
 826 00cc FA22     		movs	r2, #250
 827 00ce DA70     		strb	r2, [r3, #3]
1633:AS76.c        ****                 }
 828              		.loc 1 1633 0
 829 00d0 82E0     		b	.L58
 830              	.L71:
ARM GAS  C:\Users\Revanth\AppData\Local\Temp\ccvmpTGe.s 			page 50


1637:AS76.c        ****                     USB_transmit[3] = Requested_Y_Step_Exceeding_The_Limit >> 8; 
 831              		.loc 1 1637 0
 832 00d2 804B     		ldr	r3, .L94+12
 833 00d4 1222     		movs	r2, #18
 834 00d6 9A70     		strb	r2, [r3, #2]
1638:AS76.c        ****                     break;
 835              		.loc 1 1638 0
 836 00d8 FA22     		movs	r2, #250
 837 00da DA70     		strb	r2, [r3, #3]
1639:AS76.c        ****                 }
 838              		.loc 1 1639 0
 839 00dc 7CE0     		b	.L58
 840              	.L72:
1643:AS76.c        ****                     USB_transmit[3] = Y_Homing_Not_Done_Yet >> 8; 
 841              		.loc 1 1643 0
 842 00de 7D4B     		ldr	r3, .L94+12
 843 00e0 1E22     		movs	r2, #30
 844 00e2 9A70     		strb	r2, [r3, #2]
1644:AS76.c        ****                     break;
 845              		.loc 1 1644 0
 846 00e4 FA22     		movs	r2, #250
 847 00e6 DA70     		strb	r2, [r3, #3]
1645:AS76.c        ****                 }
 848              		.loc 1 1645 0
 849 00e8 76E0     		b	.L58
 850              	.L73:
1649:AS76.c        ****                     USB_transmit[3] = Y_Motor_Busy >> 8; 
 851              		.loc 1 1649 0
 852 00ea 7A4B     		ldr	r3, .L94+12
 853 00ec 2622     		movs	r2, #38
 854 00ee 9A70     		strb	r2, [r3, #2]
1650:AS76.c        ****                     break;
 855              		.loc 1 1650 0
 856 00f0 FA22     		movs	r2, #250
 857 00f2 DA70     		strb	r2, [r3, #3]
1651:AS76.c        ****                 }
 858              		.loc 1 1651 0
 859 00f4 70E0     		b	.L58
 860              	.L74:
1655:AS76.c        ****                     USB_transmit[3] = Z_Motor_Not_Working >> 8; 
 861              		.loc 1 1655 0
 862 00f6 774B     		ldr	r3, .L94+12
 863 00f8 0522     		movs	r2, #5
 864 00fa 9A70     		strb	r2, [r3, #2]
1656:AS76.c        ****                     break;
 865              		.loc 1 1656 0
 866 00fc FA22     		movs	r2, #250
 867 00fe DA70     		strb	r2, [r3, #3]
1657:AS76.c        ****                 }
 868              		.loc 1 1657 0
 869 0100 6AE0     		b	.L58
 870              	.L75:
1661:AS76.c        ****                     USB_transmit[3] = Z_Encoder_Not_Working >> 8; 
 871              		.loc 1 1661 0
 872 0102 744B     		ldr	r3, .L94+12
 873 0104 0622     		movs	r2, #6
 874 0106 9A70     		strb	r2, [r3, #2]
ARM GAS  C:\Users\Revanth\AppData\Local\Temp\ccvmpTGe.s 			page 51


1662:AS76.c        ****                     break;
 875              		.loc 1 1662 0
 876 0108 FA22     		movs	r2, #250
 877 010a DA70     		strb	r2, [r3, #3]
1663:AS76.c        ****                 }
 878              		.loc 1 1663 0
 879 010c 64E0     		b	.L58
 880              	.L76:
1667:AS76.c        ****                     USB_transmit[3] = Z_Switch_Not_Working >> 8; 
 881              		.loc 1 1667 0
 882 010e 714B     		ldr	r3, .L94+12
 883 0110 1922     		movs	r2, #25
 884 0112 9A70     		strb	r2, [r3, #2]
1668:AS76.c        ****                     break;
 885              		.loc 1 1668 0
 886 0114 FA22     		movs	r2, #250
 887 0116 DA70     		strb	r2, [r3, #3]
1669:AS76.c        ****                 }
 888              		.loc 1 1669 0
 889 0118 5EE0     		b	.L58
 890              	.L77:
1673:AS76.c        ****                     USB_transmit[3] = Z_Motor_Driver_Fault >> 8; 
 891              		.loc 1 1673 0
 892 011a 6E4B     		ldr	r3, .L94+12
 893 011c 0922     		movs	r2, #9
 894 011e 9A70     		strb	r2, [r3, #2]
1674:AS76.c        ****                     break;
 895              		.loc 1 1674 0
 896 0120 FA22     		movs	r2, #250
 897 0122 DA70     		strb	r2, [r3, #3]
1675:AS76.c        ****                 }
 898              		.loc 1 1675 0
 899 0124 58E0     		b	.L58
 900              	.L78:
1679:AS76.c        ****                     USB_transmit[3] = Requested_Z_Step_Exceeding_The_Limit >> 8; 
 901              		.loc 1 1679 0
 902 0126 6B4B     		ldr	r3, .L94+12
 903 0128 1322     		movs	r2, #19
 904 012a 9A70     		strb	r2, [r3, #2]
1680:AS76.c        ****                     break;
 905              		.loc 1 1680 0
 906 012c FA22     		movs	r2, #250
 907 012e DA70     		strb	r2, [r3, #3]
1681:AS76.c        ****                 }
 908              		.loc 1 1681 0
 909 0130 52E0     		b	.L58
 910              	.L79:
1685:AS76.c        ****                     USB_transmit[3] = Z_Homing_Not_Done_Yet >> 8; 
 911              		.loc 1 1685 0
 912 0132 684B     		ldr	r3, .L94+12
 913 0134 1F22     		movs	r2, #31
 914 0136 9A70     		strb	r2, [r3, #2]
1686:AS76.c        ****                     break;
 915              		.loc 1 1686 0
 916 0138 FA22     		movs	r2, #250
 917 013a DA70     		strb	r2, [r3, #3]
1687:AS76.c        ****                 }
ARM GAS  C:\Users\Revanth\AppData\Local\Temp\ccvmpTGe.s 			page 52


 918              		.loc 1 1687 0
 919 013c 4CE0     		b	.L58
 920              	.L80:
1691:AS76.c        ****                     USB_transmit[3] = Z_Motor_Busy >> 8; 
 921              		.loc 1 1691 0
 922 013e 654B     		ldr	r3, .L94+12
 923 0140 2722     		movs	r2, #39
 924 0142 9A70     		strb	r2, [r3, #2]
1692:AS76.c        ****                     break;
 925              		.loc 1 1692 0
 926 0144 FA22     		movs	r2, #250
 927 0146 DA70     		strb	r2, [r3, #3]
1693:AS76.c        ****                 }
 928              		.loc 1 1693 0
 929 0148 46E0     		b	.L58
 930              	.L81:
1697:AS76.c        ****                     USB_transmit[3] =  T_Motor_Not_Working>> 8; 
 931              		.loc 1 1697 0
 932 014a 624B     		ldr	r3, .L94+12
 933 014c 2B22     		movs	r2, #43
 934 014e 9A70     		strb	r2, [r3, #2]
1698:AS76.c        ****                     break;
 935              		.loc 1 1698 0
 936 0150 FA22     		movs	r2, #250
 937 0152 DA70     		strb	r2, [r3, #3]
1699:AS76.c        ****                 }
 938              		.loc 1 1699 0
 939 0154 40E0     		b	.L58
 940              	.L82:
1703:AS76.c        ****                     USB_transmit[3] =  T_Encoder_Not_Working>> 8; 
 941              		.loc 1 1703 0
 942 0156 5F4B     		ldr	r3, .L94+12
 943 0158 2C22     		movs	r2, #44
 944 015a 9A70     		strb	r2, [r3, #2]
1704:AS76.c        ****                     break;
 945              		.loc 1 1704 0
 946 015c FA22     		movs	r2, #250
 947 015e DA70     		strb	r2, [r3, #3]
1705:AS76.c        ****                 }
 948              		.loc 1 1705 0
 949 0160 3AE0     		b	.L58
 950              	.L83:
1709:AS76.c        ****                     USB_transmit[3] =  T_Switch_Not_Working>> 8; 
 951              		.loc 1 1709 0
 952 0162 5C4B     		ldr	r3, .L94+12
 953 0164 2D22     		movs	r2, #45
 954 0166 9A70     		strb	r2, [r3, #2]
1710:AS76.c        ****                     break;
 955              		.loc 1 1710 0
 956 0168 FA22     		movs	r2, #250
 957 016a DA70     		strb	r2, [r3, #3]
1711:AS76.c        ****                 }
 958              		.loc 1 1711 0
 959 016c 34E0     		b	.L58
 960              	.L84:
1716:AS76.c        ****                     USB_transmit[3] =  T_Motor_Driver_Fault>> 8; 
 961              		.loc 1 1716 0
ARM GAS  C:\Users\Revanth\AppData\Local\Temp\ccvmpTGe.s 			page 53


 962 016e 594B     		ldr	r3, .L94+12
 963 0170 2E22     		movs	r2, #46
 964 0172 9A70     		strb	r2, [r3, #2]
1717:AS76.c        ****                     break;
 965              		.loc 1 1717 0
 966 0174 FA22     		movs	r2, #250
 967 0176 DA70     		strb	r2, [r3, #3]
1718:AS76.c        ****                 }
 968              		.loc 1 1718 0
 969 0178 2EE0     		b	.L58
 970              	.L85:
1722:AS76.c        ****                     USB_transmit[3] =  Requested_T_Step_Exceeding_The_Limit>> 8; 
 971              		.loc 1 1722 0
 972 017a 564B     		ldr	r3, .L94+12
 973 017c 2A22     		movs	r2, #42
 974 017e 9A70     		strb	r2, [r3, #2]
1723:AS76.c        ****                     break;
 975              		.loc 1 1723 0
 976 0180 FA22     		movs	r2, #250
 977 0182 DA70     		strb	r2, [r3, #3]
1724:AS76.c        ****                 }
 978              		.loc 1 1724 0
 979 0184 28E0     		b	.L58
 980              	.L86:
1728:AS76.c        ****                     USB_transmit[3] =  T_Homing_Not_Done_Yet>> 8; 
 981              		.loc 1 1728 0
 982 0186 534B     		ldr	r3, .L94+12
 983 0188 2F22     		movs	r2, #47
 984 018a 9A70     		strb	r2, [r3, #2]
1729:AS76.c        ****                     break;
 985              		.loc 1 1729 0
 986 018c FA22     		movs	r2, #250
 987 018e DA70     		strb	r2, [r3, #3]
1730:AS76.c        ****                 }
 988              		.loc 1 1730 0
 989 0190 22E0     		b	.L58
 990              	.L87:
1734:AS76.c        ****                     USB_transmit[3] = T_Motor_Busy >> 8; 
 991              		.loc 1 1734 0
 992 0192 504B     		ldr	r3, .L94+12
 993 0194 2822     		movs	r2, #40
 994 0196 9A70     		strb	r2, [r3, #2]
1735:AS76.c        ****                     break;
 995              		.loc 1 1735 0
 996 0198 FA22     		movs	r2, #250
 997 019a DA70     		strb	r2, [r3, #3]
1736:AS76.c        ****                 }
 998              		.loc 1 1736 0
 999 019c 1CE0     		b	.L58
 1000              	.L88:
1740:AS76.c        ****                     USB_transmit[3] = Wrong_Command_Received >> 8; 
 1001              		.loc 1 1740 0
 1002 019e 4D4B     		ldr	r3, .L94+12
 1003 01a0 2222     		movs	r2, #34
 1004 01a2 9A70     		strb	r2, [r3, #2]
1741:AS76.c        ****                     break;
 1005              		.loc 1 1741 0
ARM GAS  C:\Users\Revanth\AppData\Local\Temp\ccvmpTGe.s 			page 54


 1006 01a4 FA22     		movs	r2, #250
 1007 01a6 DA70     		strb	r2, [r3, #3]
1742:AS76.c        ****                 }
 1008              		.loc 1 1742 0
 1009 01a8 16E0     		b	.L58
 1010              	.L89:
1746:AS76.c        ****                     USB_transmit[3] = PCB_Paused >> 8; 
 1011              		.loc 1 1746 0
 1012 01aa 4A4B     		ldr	r3, .L94+12
 1013 01ac 2322     		movs	r2, #35
 1014 01ae 9A70     		strb	r2, [r3, #2]
1747:AS76.c        ****                     break;
 1015              		.loc 1 1747 0
 1016 01b0 FA22     		movs	r2, #250
 1017 01b2 DA70     		strb	r2, [r3, #3]
1748:AS76.c        ****                 }
 1018              		.loc 1 1748 0
 1019 01b4 10E0     		b	.L58
 1020              	.L90:
1752:AS76.c        ****                     USB_transmit[3] = PCB_Busy >> 8; 
 1021              		.loc 1 1752 0
 1022 01b6 474B     		ldr	r3, .L94+12
 1023 01b8 2422     		movs	r2, #36
 1024 01ba 9A70     		strb	r2, [r3, #2]
1753:AS76.c        ****                     break;
 1025              		.loc 1 1753 0
 1026 01bc FA22     		movs	r2, #250
 1027 01be DA70     		strb	r2, [r3, #3]
1754:AS76.c        ****                 }
 1028              		.loc 1 1754 0
 1029 01c0 0AE0     		b	.L58
 1030              	.L91:
1758:AS76.c        ****                     USB_transmit[3] = All_Motors_Homing_Not_Done >> 8; 
 1031              		.loc 1 1758 0
 1032 01c2 444B     		ldr	r3, .L94+12
 1033 01c4 2922     		movs	r2, #41
 1034 01c6 9A70     		strb	r2, [r3, #2]
1759:AS76.c        ****                     break;
 1035              		.loc 1 1759 0
 1036 01c8 FA22     		movs	r2, #250
 1037 01ca DA70     		strb	r2, [r3, #3]
1760:AS76.c        ****                 }
 1038              		.loc 1 1760 0
 1039 01cc 04E0     		b	.L58
 1040              	.L92:
1765:AS76.c        ****                     USB_transmit[3] = O_Motor_Not_Working >> 8; 
 1041              		.loc 1 1765 0
 1042 01ce 414B     		ldr	r3, .L94+12
 1043 01d0 3022     		movs	r2, #48
 1044 01d2 9A70     		strb	r2, [r3, #2]
1766:AS76.c        ****                     break;
 1045              		.loc 1 1766 0
 1046 01d4 FA22     		movs	r2, #250
 1047 01d6 DA70     		strb	r2, [r3, #3]
 1048              	.LVL62:
 1049              	.L58:
1773:AS76.c        ****         T_QuadPosition = (int)(T_QuadPosition * 3.2); 
ARM GAS  C:\Users\Revanth\AppData\Local\Temp\ccvmpTGe.s 			page 55


 1050              		.loc 1 1773 0
 1051 01d8 3F4D     		ldr	r5, .L94+16
 1052 01da EB68     		ldr	r3, [r5, #12]
 1053 01dc 9B00     		lsls	r3, r3, #2
 1054 01de EB60     		str	r3, [r5, #12]
1774:AS76.c        ****         USB_transmit[4] = (X_QuadPosition);
 1055              		.loc 1 1774 0
 1056 01e0 6869     		ldr	r0, [r5, #20]
 1057 01e2 FFF7FEFF 		bl	__aeabi_i2d
 1058              	.LVL63:
 1059 01e6 38A3     		adr	r3, .L94
 1060 01e8 D3E90023 		ldrd	r2, [r3]
 1061 01ec FFF7FEFF 		bl	__aeabi_dmul
 1062              	.LVL64:
 1063 01f0 FFF7FEFF 		bl	__aeabi_d2iz
 1064              	.LVL65:
 1065 01f4 6861     		str	r0, [r5, #20]
1775:AS76.c        ****         USB_transmit[5] = (X_QuadPosition) >> 8;
 1066              		.loc 1 1775 0
 1067 01f6 AB68     		ldr	r3, [r5, #8]
 1068 01f8 364C     		ldr	r4, .L94+12
 1069 01fa 2371     		strb	r3, [r4, #4]
1776:AS76.c        ****         USB_transmit[6] = (X_QuadPosition) >> 16;
 1070              		.loc 1 1776 0
 1071 01fc AB68     		ldr	r3, [r5, #8]
 1072 01fe 1B12     		asrs	r3, r3, #8
 1073 0200 6371     		strb	r3, [r4, #5]
1777:AS76.c        ****         USB_transmit[7] = (X_QuadPosition) >> 24;
 1074              		.loc 1 1777 0
 1075 0202 AB68     		ldr	r3, [r5, #8]
 1076 0204 1B14     		asrs	r3, r3, #16
 1077 0206 A371     		strb	r3, [r4, #6]
1778:AS76.c        ****         USB_transmit[8] = (Y_QuadPosition);
 1078              		.loc 1 1778 0
 1079 0208 AB68     		ldr	r3, [r5, #8]
 1080 020a 1B16     		asrs	r3, r3, #24
 1081 020c E371     		strb	r3, [r4, #7]
1779:AS76.c        ****         USB_transmit[9] = (Y_QuadPosition) >> 8;
 1082              		.loc 1 1779 0
 1083 020e EB68     		ldr	r3, [r5, #12]
 1084 0210 2372     		strb	r3, [r4, #8]
1780:AS76.c        ****         USB_transmit[10] =(Y_QuadPosition) >> 16;
 1085              		.loc 1 1780 0
 1086 0212 EB68     		ldr	r3, [r5, #12]
 1087 0214 1B12     		asrs	r3, r3, #8
 1088 0216 6372     		strb	r3, [r4, #9]
1781:AS76.c        ****         USB_transmit[11] =(Y_QuadPosition) >> 24;
 1089              		.loc 1 1781 0
 1090 0218 EB68     		ldr	r3, [r5, #12]
 1091 021a 1B14     		asrs	r3, r3, #16
 1092 021c A372     		strb	r3, [r4, #10]
1782:AS76.c        ****         USB_transmit[12] = Z_QuadPosition;
 1093              		.loc 1 1782 0
 1094 021e EB68     		ldr	r3, [r5, #12]
 1095 0220 1B16     		asrs	r3, r3, #24
 1096 0222 E372     		strb	r3, [r4, #11]
1783:AS76.c        ****         USB_transmit[13] = Z_QuadPosition >> 8;
ARM GAS  C:\Users\Revanth\AppData\Local\Temp\ccvmpTGe.s 			page 56


 1097              		.loc 1 1783 0
 1098 0224 2B69     		ldr	r3, [r5, #16]
 1099 0226 2373     		strb	r3, [r4, #12]
1784:AS76.c        ****         USB_transmit[14] = Z_QuadPosition >> 16;
 1100              		.loc 1 1784 0
 1101 0228 2B69     		ldr	r3, [r5, #16]
 1102 022a 1B12     		asrs	r3, r3, #8
 1103 022c 6373     		strb	r3, [r4, #13]
1785:AS76.c        ****         USB_transmit[15] = Z_QuadPosition >> 24;
 1104              		.loc 1 1785 0
 1105 022e 2B69     		ldr	r3, [r5, #16]
 1106 0230 1B14     		asrs	r3, r3, #16
 1107 0232 A373     		strb	r3, [r4, #14]
1786:AS76.c        ****         USB_transmit[16] = T_QuadPosition;
 1108              		.loc 1 1786 0
 1109 0234 2B69     		ldr	r3, [r5, #16]
 1110 0236 1B16     		asrs	r3, r3, #24
 1111 0238 E373     		strb	r3, [r4, #15]
1787:AS76.c        ****         USB_transmit[17] = T_QuadPosition >> 8;
 1112              		.loc 1 1787 0
 1113 023a 6B69     		ldr	r3, [r5, #20]
 1114 023c 2374     		strb	r3, [r4, #16]
1788:AS76.c        ****         USB_transmit[18] = T_QuadPosition >> 16;
 1115              		.loc 1 1788 0
 1116 023e 6B69     		ldr	r3, [r5, #20]
 1117 0240 1B12     		asrs	r3, r3, #8
 1118 0242 6374     		strb	r3, [r4, #17]
1789:AS76.c        ****         USB_transmit[19] = T_QuadPosition >> 24;
 1119              		.loc 1 1789 0
 1120 0244 6B69     		ldr	r3, [r5, #20]
 1121 0246 1B14     		asrs	r3, r3, #16
 1122 0248 A374     		strb	r3, [r4, #18]
1790:AS76.c        ****         USB_transmit[20] = PWM_Condenser_comare_value;
 1123              		.loc 1 1790 0
 1124 024a 6B69     		ldr	r3, [r5, #20]
 1125 024c 1B16     		asrs	r3, r3, #24
 1126 024e E374     		strb	r3, [r4, #19]
1791:AS76.c        ****         USB_transmit[21] = PWM_Condenser_comare_value >> 8;
 1127              		.loc 1 1791 0
 1128 0250 224A     		ldr	r2, .L94+20
 1129 0252 1368     		ldr	r3, [r2]
 1130 0254 2375     		strb	r3, [r4, #20]
1792:AS76.c        ****         USB_transmit[22] = 0;
 1131              		.loc 1 1792 0
 1132 0256 1B12     		asrs	r3, r3, #8
 1133 0258 6375     		strb	r3, [r4, #21]
1793:AS76.c        ****         USB_transmit[23] = 0;
 1134              		.loc 1 1793 0
 1135 025a 0023     		movs	r3, #0
 1136 025c A375     		strb	r3, [r4, #22]
1794:AS76.c        ****         USB_transmit[24] = 0;
 1137              		.loc 1 1794 0
 1138 025e E375     		strb	r3, [r4, #23]
1795:AS76.c        ****         USB_transmit[25] = 0;
 1139              		.loc 1 1795 0
 1140 0260 2376     		strb	r3, [r4, #24]
1796:AS76.c        ****         USB_transmit[26] = 0;
ARM GAS  C:\Users\Revanth\AppData\Local\Temp\ccvmpTGe.s 			page 57


 1141              		.loc 1 1796 0
 1142 0262 6376     		strb	r3, [r4, #25]
1797:AS76.c        ****         USB_transmit[27] = 0;
 1143              		.loc 1 1797 0
 1144 0264 A376     		strb	r3, [r4, #26]
1798:AS76.c        ****         USB_transmit[28] = Motor_Speed_X;
 1145              		.loc 1 1798 0
 1146 0266 E376     		strb	r3, [r4, #27]
1799:AS76.c        ****         USB_transmit[29] = Motor_Speed_X >> 8;
 1147              		.loc 1 1799 0
 1148 0268 5169     		ldr	r1, [r2, #20]
 1149 026a 2177     		strb	r1, [r4, #28]
1800:AS76.c        ****         USB_transmit[30] = Motor_Speed_Y;
 1150              		.loc 1 1800 0
 1151 026c 090A     		lsrs	r1, r1, #8
 1152 026e 6177     		strb	r1, [r4, #29]
1801:AS76.c        ****         USB_transmit[31] = Motor_Speed_Y >> 8;
 1153              		.loc 1 1801 0
 1154 0270 9169     		ldr	r1, [r2, #24]
 1155 0272 A177     		strb	r1, [r4, #30]
1802:AS76.c        ****         USB_transmit[32] = Motor_Speed_Z;
 1156              		.loc 1 1802 0
 1157 0274 090A     		lsrs	r1, r1, #8
 1158 0276 E177     		strb	r1, [r4, #31]
1803:AS76.c        ****         USB_transmit[33] = Motor_Speed_Z >> 8;
 1159              		.loc 1 1803 0
 1160 0278 D269     		ldr	r2, [r2, #28]
 1161 027a 84F82020 		strb	r2, [r4, #32]
1804:AS76.c        ****         USB_transmit[34] = 0x00;
 1162              		.loc 1 1804 0
 1163 027e 120A     		lsrs	r2, r2, #8
 1164 0280 84F82120 		strb	r2, [r4, #33]
1805:AS76.c        ****         USB_transmit[35] = 0x00 >> 8;
 1165              		.loc 1 1805 0
 1166 0284 84F82230 		strb	r3, [r4, #34]
1806:AS76.c        ****         USB_transmit[36] = 0x00;
 1167              		.loc 1 1806 0
 1168 0288 84F82330 		strb	r3, [r4, #35]
1807:AS76.c        ****         USB_transmit[37] = 0x00;
 1169              		.loc 1 1807 0
 1170 028c 84F82430 		strb	r3, [r4, #36]
1808:AS76.c        ****         USB_transmit[38] = 0x00;
 1171              		.loc 1 1808 0
 1172 0290 84F82530 		strb	r3, [r4, #37]
1809:AS76.c        ****         USB_transmit[39] = Firmware_Version;
 1173              		.loc 1 1809 0
 1174 0294 84F82630 		strb	r3, [r4, #38]
1810:AS76.c        ****         USB_transmit[40] = 0;
 1175              		.loc 1 1810 0
 1176 0298 4C22     		movs	r2, #76
 1177 029a 84F82720 		strb	r2, [r4, #39]
1811:AS76.c        ****         USB_transmit[41] = 0;
 1178              		.loc 1 1811 0
 1179 029e 84F82830 		strb	r3, [r4, #40]
1812:AS76.c        ****         USB_transmit[42] = 0;
 1180              		.loc 1 1812 0
 1181 02a2 84F82930 		strb	r3, [r4, #41]
ARM GAS  C:\Users\Revanth\AppData\Local\Temp\ccvmpTGe.s 			page 58


1813:AS76.c        ****         USB_transmit[43] = 0;
 1182              		.loc 1 1813 0
 1183 02a6 84F82A30 		strb	r3, [r4, #42]
1814:AS76.c        ****         USB_transmit[44] = 0;
 1184              		.loc 1 1814 0
 1185 02aa 84F82B30 		strb	r3, [r4, #43]
1815:AS76.c        ****         USB_transmit[45] = 0;
 1186              		.loc 1 1815 0
 1187 02ae 84F82C30 		strb	r3, [r4, #44]
1816:AS76.c        ****         
 1188              		.loc 1 1816 0
 1189 02b2 84F82D30 		strb	r3, [r4, #45]
1822:AS76.c        ****         USB_PutData(USB_transmit, 46);  //send data back to usb
 1190              		.loc 1 1822 0
 1191 02b6 0A48     		ldr	r0, .L94+24
 1192 02b8 FFF7FEFF 		bl	Write_Debug_UART_Char
 1193              	.LVL66:
1823:AS76.c        ****     
 1194              		.loc 1 1823 0
 1195 02bc 2E21     		movs	r1, #46
 1196 02be 2046     		mov	r0, r4
 1197 02c0 FFF7FEFF 		bl	USB_PutData
 1198              	.LVL67:
 1199 02c4 38BD     		pop	{r3, r4, r5, pc}
 1200              	.L95:
 1201 02c6 00BF     		.align	3
 1202              	.L94:
 1203 02c8 9A999999 		.word	-1717986918
 1204 02cc 99990940 		.word	1074370969
 1205 02d0 00000000 		.word	command
 1206 02d4 00000000 		.word	USB_transmit
 1207 02d8 00000000 		.word	.LANCHOR0
 1208 02dc 00000000 		.word	.LANCHOR1
 1209 02e0 34000000 		.word	.LC3
 1210              		.cfi_endproc
 1211              	.LFE92:
 1212              		.size	Send_Feedback_to_USB, .-Send_Feedback_to_USB
 1213              		.section	.text.Initialize_USB,"ax",%progbits
 1214              		.align	2
 1215              		.global	Initialize_USB
 1216              		.thumb
 1217              		.thumb_func
 1218              		.type	Initialize_USB, %function
 1219              	Initialize_USB:
 1220              	.LFB94:
1831:AS76.c        ****     USB_Start(0, USB_5V_OPERATION);   
 1221              		.loc 1 1831 0
 1222              		.cfi_startproc
 1223              		@ args = 0, pretend = 0, frame = 0
 1224              		@ frame_needed = 0, uses_anonymous_args = 0
 1225 0000 08B5     		push	{r3, lr}
 1226              		.cfi_def_cfa_offset 8
 1227              		.cfi_offset 3, -8
 1228              		.cfi_offset 14, -4
1832:AS76.c        ****     while (0 == USB_GetConfiguration()) /* wait untill USB not found. */
 1229              		.loc 1 1832 0
 1230 0002 0121     		movs	r1, #1
ARM GAS  C:\Users\Revanth\AppData\Local\Temp\ccvmpTGe.s 			page 59


 1231 0004 0020     		movs	r0, #0
 1232 0006 FFF7FEFF 		bl	USB_Start
 1233              	.LVL68:
1833:AS76.c        ****     {
 1234              		.loc 1 1833 0
 1235 000a 05E0     		b	.L97
 1236              	.L98:
1835:AS76.c        ****         CyDelayUs(1);
 1237              		.loc 1 1835 0
 1238 000c 0848     		ldr	r0, .L100
 1239 000e FFF7FEFF 		bl	Write_Debug_UART_Char
 1240              	.LVL69:
1836:AS76.c        ****     }
 1241              		.loc 1 1836 0
 1242 0012 0120     		movs	r0, #1
 1243 0014 FFF7FEFF 		bl	CyDelayUs
 1244              	.LVL70:
 1245              	.L97:
1833:AS76.c        ****     {
 1246              		.loc 1 1833 0
 1247 0018 FFF7FEFF 		bl	USB_GetConfiguration
 1248              	.LVL71:
 1249 001c 0028     		cmp	r0, #0
 1250 001e F5D0     		beq	.L98
1838:AS76.c        ****     Write_Debug_UART_Char("USB Connected  \r\n");
 1251              		.loc 1 1838 0
 1252 0020 FFF7FEFF 		bl	USB_CDC_Init
 1253              	.LVL72:
1839:AS76.c        ****     USB_EnableSofInt();  
 1254              		.loc 1 1839 0
 1255 0024 0348     		ldr	r0, .L100+4
 1256 0026 FFF7FEFF 		bl	Write_Debug_UART_Char
 1257              	.LVL73:
1840:AS76.c        **** }
 1258              		.loc 1 1840 0
 1259 002a FFF7FEFF 		bl	USB_EnableSofInt
 1260              	.LVL74:
 1261 002e 08BD     		pop	{r3, pc}
 1262              	.L101:
 1263              		.align	2
 1264              	.L100:
 1265 0030 58000000 		.word	.LC4
 1266 0034 7C000000 		.word	.LC5
 1267              		.cfi_endproc
 1268              	.LFE94:
 1269              		.size	Initialize_USB, .-Initialize_USB
 1270              		.section	.text.Write_Debug_UART_Int,"ax",%progbits
 1271              		.align	2
 1272              		.global	Write_Debug_UART_Int
 1273              		.thumb
 1274              		.thumb_func
 1275              		.type	Write_Debug_UART_Int, %function
 1276              	Write_Debug_UART_Int:
 1277              	.LFB99:
1886:AS76.c        ****     	}
1887:AS76.c        ****     }
1888:AS76.c        **** }
ARM GAS  C:\Users\Revanth\AppData\Local\Temp\ccvmpTGe.s 			page 60


1889:AS76.c        **** void Write_Debug_UART_Int(int32 num)
1890:AS76.c        **** {
 1278              		.loc 1 1890 0
 1279              		.cfi_startproc
 1280              		@ args = 0, pretend = 0, frame = 24
 1281              		@ frame_needed = 0, uses_anonymous_args = 0
 1282              	.LVL75:
 1283 0000 00B5     		push	{lr}
 1284              		.cfi_def_cfa_offset 4
 1285              		.cfi_offset 14, -4
 1286 0002 87B0     		sub	sp, sp, #28
 1287              		.cfi_def_cfa_offset 32
 1288              	.LBB3:
1891:AS76.c        ****    // if(Pin_UART_Enable_Read()==0)
1892:AS76.c        ****     {
1893:AS76.c        ****         char uart_Buffer[20];
1894:AS76.c        ****         sprintf(uart_Buffer,"%d, ",(int)num);
 1289              		.loc 1 1894 0
 1290 0004 0246     		mov	r2, r0
 1291 0006 0649     		ldr	r1, .L104
 1292 0008 01A8     		add	r0, sp, #4
 1293              	.LVL76:
 1294 000a FFF7FEFF 		bl	sprintf
 1295              	.LVL77:
1895:AS76.c        ****         UART_PCB_LOG_PutString(uart_Buffer);
 1296              		.loc 1 1895 0
 1297 000e 01A8     		add	r0, sp, #4
 1298 0010 FFF7FEFF 		bl	UART_PCB_LOG_PutString
 1299              	.LVL78:
1896:AS76.c        ****         CyDelayUs(1);
 1300              		.loc 1 1896 0
 1301 0014 0120     		movs	r0, #1
 1302 0016 FFF7FEFF 		bl	CyDelayUs
 1303              	.LVL79:
 1304              	.LBE3:
1897:AS76.c        ****     }
1898:AS76.c        **** }
 1305              		.loc 1 1898 0
 1306 001a 07B0     		add	sp, sp, #28
 1307              		.cfi_def_cfa_offset 4
 1308              		@ sp needed
 1309 001c 5DF804FB 		ldr	pc, [sp], #4
 1310              	.L105:
 1311              		.align	2
 1312              	.L104:
 1313 0020 90000000 		.word	.LC6
 1314              		.cfi_endproc
 1315              	.LFE99:
 1316              		.size	Write_Debug_UART_Int, .-Write_Debug_UART_Int
 1317              		.global	__aeabi_ddiv
 1318              		.global	__aeabi_d2uiz
 1319              		.section	.text.set_BarcodeCondenser_LED,"ax",%progbits
 1320              		.align	2
 1321              		.global	set_BarcodeCondenser_LED
 1322              		.thumb
 1323              		.thumb_func
 1324              		.type	set_BarcodeCondenser_LED, %function
ARM GAS  C:\Users\Revanth\AppData\Local\Temp\ccvmpTGe.s 			page 61


 1325              	set_BarcodeCondenser_LED:
 1326              	.LFB81:
1150:AS76.c        ****     PWM_barcode_comare_value = ((unsigned int)USB_received[3] << 8) + USB_received[2];  //Read LED 
 1327              		.loc 1 1150 0
 1328              		.cfi_startproc
 1329              		@ args = 0, pretend = 0, frame = 0
 1330              		@ frame_needed = 0, uses_anonymous_args = 0
 1331 0000 10B5     		push	{r4, lr}
 1332              		.cfi_def_cfa_offset 8
 1333              		.cfi_offset 4, -8
 1334              		.cfi_offset 14, -4
1151:AS76.c        ****     PWM_BarcodeCondenser_LED_WriteCompare((PWM_barcode_comare_value*0.6)/10);    //Writing LED valu
 1335              		.loc 1 1151 0
 1336 0002 154B     		ldr	r3, .L108+8
 1337 0004 D878     		ldrb	r0, [r3, #3]	@ zero_extendqisi2
 1338 0006 9B78     		ldrb	r3, [r3, #2]	@ zero_extendqisi2
 1339 0008 03EB0020 		add	r0, r3, r0, lsl #8
 1340 000c 134C     		ldr	r4, .L108+12
 1341 000e 6062     		str	r0, [r4, #36]
1152:AS76.c        ****     Write_Debug_UART_Char("LED Barcode Value Recived--->");
 1342              		.loc 1 1152 0
 1343 0010 FFF7FEFF 		bl	__aeabi_i2d
 1344              	.LVL80:
 1345 0014 0EA3     		adr	r3, .L108
 1346 0016 D3E90023 		ldrd	r2, [r3]
 1347 001a FFF7FEFF 		bl	__aeabi_dmul
 1348              	.LVL81:
 1349 001e 0022     		movs	r2, #0
 1350 0020 0F4B     		ldr	r3, .L108+16
 1351 0022 FFF7FEFF 		bl	__aeabi_ddiv
 1352              	.LVL82:
 1353 0026 FFF7FEFF 		bl	__aeabi_d2uiz
 1354              	.LVL83:
 1355 002a 80B2     		uxth	r0, r0
 1356 002c FFF7FEFF 		bl	PWM_BarcodeCondenser_LED_WriteCompare
 1357              	.LVL84:
1153:AS76.c        ****     Write_Debug_UART_Int(PWM_barcode_comare_value);
 1358              		.loc 1 1153 0
 1359 0030 0C48     		ldr	r0, .L108+20
 1360 0032 FFF7FEFF 		bl	Write_Debug_UART_Char
 1361              	.LVL85:
1154:AS76.c        ****     Write_Debug_UART_Char("\r\n");
 1362              		.loc 1 1154 0
 1363 0036 606A     		ldr	r0, [r4, #36]
 1364 0038 FFF7FEFF 		bl	Write_Debug_UART_Int
 1365              	.LVL86:
1155:AS76.c        ****     Write_Debug_UART_Char("Set Barcode LED Command Executed  \r\n");
 1366              		.loc 1 1155 0
 1367 003c 0A48     		ldr	r0, .L108+24
 1368 003e FFF7FEFF 		bl	Write_Debug_UART_Char
 1369              	.LVL87:
1156:AS76.c        ****     return 0;
 1370              		.loc 1 1156 0
 1371 0042 0A48     		ldr	r0, .L108+28
 1372 0044 FFF7FEFF 		bl	Write_Debug_UART_Char
 1373              	.LVL88:
1158:AS76.c        **** 
ARM GAS  C:\Users\Revanth\AppData\Local\Temp\ccvmpTGe.s 			page 62


 1374              		.loc 1 1158 0
 1375 0048 0020     		movs	r0, #0
 1376 004a 10BD     		pop	{r4, pc}
 1377              	.L109:
 1378 004c AFF30080 		.align	3
 1379              	.L108:
 1380 0050 33333333 		.word	858993459
 1381 0054 3333E33F 		.word	1071854387
 1382 0058 00000000 		.word	USB_received
 1383 005c 00000000 		.word	.LANCHOR0
 1384 0060 00002440 		.word	1076101120
 1385 0064 98000000 		.word	.LC7
 1386 0068 B8000000 		.word	.LC8
 1387 006c BC000000 		.word	.LC9
 1388              		.cfi_endproc
 1389              	.LFE81:
 1390              		.size	set_BarcodeCondenser_LED, .-set_BarcodeCondenser_LED
 1391              		.section	.text.set_CondenserLED,"ax",%progbits
 1392              		.align	2
 1393              		.global	set_CondenserLED
 1394              		.thumb
 1395              		.thumb_func
 1396              		.type	set_CondenserLED, %function
 1397              	set_CondenserLED:
 1398              	.LFB82:
1161:AS76.c        ****     PWM_Condenser_comare_value = ((unsigned int)USB_received[3] << 8) + USB_received[2];  //Read LE
 1399              		.loc 1 1161 0
 1400              		.cfi_startproc
 1401              		@ args = 0, pretend = 0, frame = 0
 1402              		@ frame_needed = 0, uses_anonymous_args = 0
 1403 0000 10B5     		push	{r4, lr}
 1404              		.cfi_def_cfa_offset 8
 1405              		.cfi_offset 4, -8
 1406              		.cfi_offset 14, -4
1162:AS76.c        ****     PWM_CondenserLED_WriteCompare((PWM_Condenser_comare_value*0.6)/10);    //Writing LED value in t
 1407              		.loc 1 1162 0
 1408 0002 154B     		ldr	r3, .L112+8
 1409 0004 D878     		ldrb	r0, [r3, #3]	@ zero_extendqisi2
 1410 0006 9B78     		ldrb	r3, [r3, #2]	@ zero_extendqisi2
 1411 0008 03EB0020 		add	r0, r3, r0, lsl #8
 1412 000c 134C     		ldr	r4, .L112+12
 1413 000e 2060     		str	r0, [r4]
1163:AS76.c        ****     Write_Debug_UART_Char(" LED Value Recived--->");
 1414              		.loc 1 1163 0
 1415 0010 FFF7FEFF 		bl	__aeabi_i2d
 1416              	.LVL89:
 1417 0014 0EA3     		adr	r3, .L112
 1418 0016 D3E90023 		ldrd	r2, [r3]
 1419 001a FFF7FEFF 		bl	__aeabi_dmul
 1420              	.LVL90:
 1421 001e 0022     		movs	r2, #0
 1422 0020 0F4B     		ldr	r3, .L112+16
 1423 0022 FFF7FEFF 		bl	__aeabi_ddiv
 1424              	.LVL91:
 1425 0026 FFF7FEFF 		bl	__aeabi_d2uiz
 1426              	.LVL92:
 1427 002a 80B2     		uxth	r0, r0
ARM GAS  C:\Users\Revanth\AppData\Local\Temp\ccvmpTGe.s 			page 63


 1428 002c FFF7FEFF 		bl	PWM_CondenserLED_WriteCompare
 1429              	.LVL93:
1164:AS76.c        ****     Write_Debug_UART_Int(PWM_Condenser_comare_value);
 1430              		.loc 1 1164 0
 1431 0030 0C48     		ldr	r0, .L112+20
 1432 0032 FFF7FEFF 		bl	Write_Debug_UART_Char
 1433              	.LVL94:
1165:AS76.c        ****     Write_Debug_UART_Char("\r\n");
 1434              		.loc 1 1165 0
 1435 0036 2068     		ldr	r0, [r4]
 1436 0038 FFF7FEFF 		bl	Write_Debug_UART_Int
 1437              	.LVL95:
1166:AS76.c        ****     Write_Debug_UART_Char("Set LED Command Executed  \r\n");
 1438              		.loc 1 1166 0
 1439 003c 0A48     		ldr	r0, .L112+24
 1440 003e FFF7FEFF 		bl	Write_Debug_UART_Char
 1441              	.LVL96:
1167:AS76.c        ****     return 0;
 1442              		.loc 1 1167 0
 1443 0042 0A48     		ldr	r0, .L112+28
 1444 0044 FFF7FEFF 		bl	Write_Debug_UART_Char
 1445              	.LVL97:
1169:AS76.c        **** 
 1446              		.loc 1 1169 0
 1447 0048 0020     		movs	r0, #0
 1448 004a 10BD     		pop	{r4, pc}
 1449              	.L113:
 1450 004c AFF30080 		.align	3
 1451              	.L112:
 1452 0050 33333333 		.word	858993459
 1453 0054 3333E33F 		.word	1071854387
 1454 0058 00000000 		.word	USB_received
 1455 005c 00000000 		.word	.LANCHOR1
 1456 0060 00002440 		.word	1076101120
 1457 0064 E4000000 		.word	.LC10
 1458 0068 B8000000 		.word	.LC8
 1459 006c FC000000 		.word	.LC11
 1460              		.cfi_endproc
 1461              	.LFE82:
 1462              		.size	set_CondenserLED, .-set_CondenserLED
 1463              		.section	.text.UART_print_all_values,"ax",%progbits
 1464              		.align	2
 1465              		.global	UART_print_all_values
 1466              		.thumb
 1467              		.thumb_func
 1468              		.type	UART_print_all_values, %function
 1469              	UART_print_all_values:
 1470              	.LFB100:
1899:AS76.c        **** void UART_print_all_values()
1900:AS76.c        **** {
 1471              		.loc 1 1900 0
 1472              		.cfi_startproc
 1473              		@ args = 0, pretend = 0, frame = 0
 1474              		@ frame_needed = 0, uses_anonymous_args = 0
 1475 0000 08B5     		push	{r3, lr}
 1476              		.cfi_def_cfa_offset 8
 1477              		.cfi_offset 3, -8
ARM GAS  C:\Users\Revanth\AppData\Local\Temp\ccvmpTGe.s 			page 64


 1478              		.cfi_offset 14, -4
1901:AS76.c        ****     Write_Debug_UART_Char("\r\n");
 1479              		.loc 1 1901 0
 1480 0002 0548     		ldr	r0, .L116
 1481 0004 FFF7FEFF 		bl	Write_Debug_UART_Char
 1482              	.LVL98:
1902:AS76.c        ****     Write_Debug_UART_Char("--------------------------------------------------");
 1483              		.loc 1 1902 0
 1484 0008 0448     		ldr	r0, .L116+4
 1485 000a FFF7FEFF 		bl	Write_Debug_UART_Char
 1486              	.LVL99:
1903:AS76.c        ****     Write_Debug_UART_Char("\n");
 1487              		.loc 1 1903 0
 1488 000e 0448     		ldr	r0, .L116+8
 1489 0010 FFF7FEFF 		bl	Write_Debug_UART_Char
 1490              	.LVL100:
 1491 0014 08BD     		pop	{r3, pc}
 1492              	.L117:
 1493 0016 00BF     		.align	2
 1494              	.L116:
 1495 0018 B8000000 		.word	.LC8
 1496 001c 1C010000 		.word	.LC12
 1497 0020 50010000 		.word	.LC13
 1498              		.cfi_endproc
 1499              	.LFE100:
 1500              		.size	UART_print_all_values, .-UART_print_all_values
 1501              		.section	.text.if_all_homing_done,"ax",%progbits
 1502              		.align	2
 1503              		.global	if_all_homing_done
 1504              		.thumb
 1505              		.thumb_func
 1506              		.type	if_all_homing_done, %function
 1507              	if_all_homing_done:
 1508              	.LFB79:
1095:AS76.c        ****     if((HomeY_done == false)&&(Error == 0))
 1509              		.loc 1 1095 0
 1510              		.cfi_startproc
 1511              		@ args = 0, pretend = 0, frame = 0
 1512              		@ frame_needed = 0, uses_anonymous_args = 0
 1513 0000 10B5     		push	{r4, lr}
 1514              		.cfi_def_cfa_offset 8
 1515              		.cfi_offset 4, -8
 1516              		.cfi_offset 14, -4
1096:AS76.c        ****     {
 1517              		.loc 1 1096 0
 1518 0002 194B     		ldr	r3, .L124
 1519 0004 93F82040 		ldrb	r4, [r3, #32]	@ zero_extendqisi2
 1520 0008 5CB9     		cbnz	r4, .L119
1096:AS76.c        ****     {
 1521              		.loc 1 1096 0 is_stmt 0 discriminator 1
 1522 000a 184B     		ldr	r3, .L124+4
 1523 000c 9B6A     		ldr	r3, [r3, #40]
 1524 000e 43B9     		cbnz	r3, .L119
1098:AS76.c        ****         Write_Debug_UART_Char("Y_Homing_Not_Done_Yet***********[x12]  \r\n");
 1525              		.loc 1 1098 0 is_stmt 1
 1526 0010 0C22     		movs	r2, #12
 1527 0012 164B     		ldr	r3, .L124+4
ARM GAS  C:\Users\Revanth\AppData\Local\Temp\ccvmpTGe.s 			page 65


 1528 0014 9A62     		str	r2, [r3, #40]
1099:AS76.c        ****         UART_print_all_values();
 1529              		.loc 1 1099 0
 1530 0016 1648     		ldr	r0, .L124+8
 1531 0018 FFF7FEFF 		bl	Write_Debug_UART_Char
 1532              	.LVL101:
1100:AS76.c        ****         return false;
 1533              		.loc 1 1100 0
 1534 001c FFF7FEFF 		bl	UART_print_all_values
 1535              	.LVL102:
1101:AS76.c        ****     }
 1536              		.loc 1 1101 0
 1537 0020 20E0     		b	.L120
 1538              	.L119:
1103:AS76.c        ****     {
 1539              		.loc 1 1103 0
 1540 0022 114B     		ldr	r3, .L124
 1541 0024 93F82140 		ldrb	r4, [r3, #33]	@ zero_extendqisi2
 1542 0028 5CB9     		cbnz	r4, .L121
1103:AS76.c        ****     {
 1543              		.loc 1 1103 0 is_stmt 0 discriminator 1
 1544 002a 104B     		ldr	r3, .L124+4
 1545 002c 9B6A     		ldr	r3, [r3, #40]
 1546 002e 43B9     		cbnz	r3, .L121
1105:AS76.c        ****         Write_Debug_UART_Char("X_Homing_Not_Done_Yet***********  \r\n");
 1547              		.loc 1 1105 0 is_stmt 1
 1548 0030 0622     		movs	r2, #6
 1549 0032 0E4B     		ldr	r3, .L124+4
 1550 0034 9A62     		str	r2, [r3, #40]
1106:AS76.c        ****         UART_print_all_values();
 1551              		.loc 1 1106 0
 1552 0036 0F48     		ldr	r0, .L124+12
 1553 0038 FFF7FEFF 		bl	Write_Debug_UART_Char
 1554              	.LVL103:
1107:AS76.c        ****         return false;
 1555              		.loc 1 1107 0
 1556 003c FFF7FEFF 		bl	UART_print_all_values
 1557              	.LVL104:
1108:AS76.c        ****     }
 1558              		.loc 1 1108 0
 1559 0040 10E0     		b	.L120
 1560              	.L121:
1110:AS76.c        ****     {
 1561              		.loc 1 1110 0
 1562 0042 094B     		ldr	r3, .L124
 1563 0044 93F82240 		ldrb	r4, [r3, #34]	@ zero_extendqisi2
 1564 0048 64B9     		cbnz	r4, .L120
1110:AS76.c        ****     {
 1565              		.loc 1 1110 0 is_stmt 0 discriminator 1
 1566 004a 084B     		ldr	r3, .L124+4
 1567 004c 9B6A     		ldr	r3, [r3, #40]
 1568 004e 43B9     		cbnz	r3, .L122
1112:AS76.c        ****         Write_Debug_UART_Char("Z_Homing_Not_Done_Yet***********  \r\n");
 1569              		.loc 1 1112 0 is_stmt 1
 1570 0050 1222     		movs	r2, #18
 1571 0052 064B     		ldr	r3, .L124+4
 1572 0054 9A62     		str	r2, [r3, #40]
ARM GAS  C:\Users\Revanth\AppData\Local\Temp\ccvmpTGe.s 			page 66


1113:AS76.c        ****         UART_print_all_values();
 1573              		.loc 1 1113 0
 1574 0056 0848     		ldr	r0, .L124+16
 1575 0058 FFF7FEFF 		bl	Write_Debug_UART_Char
 1576              	.LVL105:
1114:AS76.c        ****         return false;
 1577              		.loc 1 1114 0
 1578 005c FFF7FEFF 		bl	UART_print_all_values
 1579              	.LVL106:
1115:AS76.c        ****     } 
 1580              		.loc 1 1115 0
 1581 0060 00E0     		b	.L120
 1582              	.L122:
1126:AS76.c        ****     }
 1583              		.loc 1 1126 0
 1584 0062 0124     		movs	r4, #1
 1585              	.L120:
1128:AS76.c        **** 
 1586              		.loc 1 1128 0
 1587 0064 2046     		mov	r0, r4
 1588 0066 10BD     		pop	{r4, pc}
 1589              	.L125:
 1590              		.align	2
 1591              	.L124:
 1592 0068 00000000 		.word	.LANCHOR1
 1593 006c 00000000 		.word	.LANCHOR0
 1594 0070 54010000 		.word	.LC14
 1595 0074 80010000 		.word	.LC15
 1596 0078 A8010000 		.word	.LC16
 1597              		.cfi_endproc
 1598              	.LFE79:
 1599              		.size	if_all_homing_done, .-if_all_homing_done
 1600              		.section	.text.Is_USB_Unpluged,"ax",%progbits
 1601              		.align	2
 1602              		.global	Is_USB_Unpluged
 1603              		.thumb
 1604              		.thumb_func
 1605              		.type	Is_USB_Unpluged, %function
 1606              	Is_USB_Unpluged:
 1607              	.LFB95:
1843:AS76.c        ****    static bool dont_Execute_1st_Time=false;
 1608              		.loc 1 1843 0
 1609              		.cfi_startproc
 1610              		@ args = 0, pretend = 0, frame = 0
 1611              		@ frame_needed = 0, uses_anonymous_args = 0
 1612 0000 08B5     		push	{r3, lr}
 1613              		.cfi_def_cfa_offset 8
 1614              		.cfi_offset 3, -8
 1615              		.cfi_offset 14, -4
1845:AS76.c        ****    {
 1616              		.loc 1 1845 0
 1617 0002 FFF7FEFF 		bl	USB_IsConfigurationChanged
 1618              	.LVL107:
 1619 0006 B0B1     		cbz	r0, .L126
1847:AS76.c        ****        if(USB_GetConfiguration() != 0)
 1620              		.loc 1 1847 0
 1621 0008 FFF7FEFF 		bl	Beep_Twice
ARM GAS  C:\Users\Revanth\AppData\Local\Temp\ccvmpTGe.s 			page 67


 1622              	.LVL108:
1848:AS76.c        ****        {
 1623              		.loc 1 1848 0
 1624 000c FFF7FEFF 		bl	USB_GetConfiguration
 1625              	.LVL109:
 1626 0010 88B1     		cbz	r0, .L126
1850:AS76.c        ****             {
 1627              		.loc 1 1850 0
 1628 0012 094B     		ldr	r3, .L130
 1629 0014 93F82C30 		ldrb	r3, [r3, #44]	@ zero_extendqisi2
 1630 0018 4BB1     		cbz	r3, .L128
1852:AS76.c        ****                 UART_print_all_values();
 1631              		.loc 1 1852 0
 1632 001a 0848     		ldr	r0, .L130+4
 1633 001c FFF7FEFF 		bl	Write_Debug_UART_Char
 1634              	.LVL110:
1853:AS76.c        ****                 CyDelay(1);
 1635              		.loc 1 1853 0
 1636 0020 FFF7FEFF 		bl	UART_print_all_values
 1637              	.LVL111:
1854:AS76.c        ****                 CySoftwareReset();
 1638              		.loc 1 1854 0
 1639 0024 0120     		movs	r0, #1
 1640 0026 FFF7FEFF 		bl	CyDelay
 1641              	.LVL112:
1855:AS76.c        ****             }
 1642              		.loc 1 1855 0
 1643 002a FFF7FEFF 		bl	CySoftwareReset
 1644              	.LVL113:
 1645              	.L128:
1857:AS76.c        ****        }
 1646              		.loc 1 1857 0
 1647 002e 0122     		movs	r2, #1
 1648 0030 014B     		ldr	r3, .L130
 1649 0032 83F82C20 		strb	r2, [r3, #44]
 1650              	.L126:
 1651 0036 08BD     		pop	{r3, pc}
 1652              	.L131:
 1653              		.align	2
 1654              	.L130:
 1655 0038 00000000 		.word	.LANCHOR0
 1656 003c D0010000 		.word	.LC17
 1657              		.cfi_endproc
 1658              	.LFE95:
 1659              		.size	Is_USB_Unpluged, .-Is_USB_Unpluged
 1660              		.section	.text.Data_To_Transfer,"ax",%progbits
 1661              		.align	2
 1662              		.global	Data_To_Transfer
 1663              		.thumb
 1664              		.thumb_func
 1665              		.type	Data_To_Transfer, %function
 1666              	Data_To_Transfer:
 1667              	.LFB101:
1904:AS76.c        **** 
1905:AS76.c        **** }
1906:AS76.c        **** //USB Functions Stop-------------------------------------------------------
1907:AS76.c        **** 
ARM GAS  C:\Users\Revanth\AppData\Local\Temp\ccvmpTGe.s 			page 68


1908:AS76.c        **** 
1909:AS76.c        **** //L6470 Motor Driver Functions Stop-------------------------------------------------------
1910:AS76.c        **** 
1911:AS76.c        **** 
1912:AS76.c        **** uint8_t Data_To_Transfer(uint8_t data)
1913:AS76.c        **** {   
 1668              		.loc 1 1913 0
 1669              		.cfi_startproc
 1670              		@ args = 0, pretend = 0, frame = 0
 1671              		@ frame_needed = 0, uses_anonymous_args = 0
 1672              	.LVL114:
 1673 0000 08B5     		push	{r3, lr}
 1674              		.cfi_def_cfa_offset 8
 1675              		.cfi_offset 3, -8
 1676              		.cfi_offset 14, -4
1914:AS76.c        ****     SPIM_WriteTxData(data);
 1677              		.loc 1 1914 0
 1678 0002 FFF7FEFF 		bl	SPIM_WriteTxData
 1679              	.LVL115:
1915:AS76.c        ****     CyDelayUs(10);
 1680              		.loc 1 1915 0
 1681 0006 0A20     		movs	r0, #10
 1682 0008 FFF7FEFF 		bl	CyDelayUs
 1683              	.LVL116:
1916:AS76.c        ****     return 1;
1917:AS76.c        **** }
 1684              		.loc 1 1917 0
 1685 000c 0120     		movs	r0, #1
 1686 000e 08BD     		pop	{r3, pc}
 1687              		.cfi_endproc
 1688              	.LFE101:
 1689              		.size	Data_To_Transfer, .-Data_To_Transfer
 1690              		.section	.text.SPI_MOTOR_CHIP_SELECT,"ax",%progbits
 1691              		.align	2
 1692              		.global	SPI_MOTOR_CHIP_SELECT
 1693              		.thumb
 1694              		.thumb_func
 1695              		.type	SPI_MOTOR_CHIP_SELECT, %function
 1696              	SPI_MOTOR_CHIP_SELECT:
 1697              	.LFB102:
1918:AS76.c        **** 
1919:AS76.c        **** 
1920:AS76.c        **** 
1921:AS76.c        **** /* --------------------------------------------------------------------------------------------
1922:AS76.c        **** Function Name        : SPI_MOTOR_CHIP_SELECT
1923:AS76.c        **** 
1924:AS76.c        **** Prerequist Knowledge : SPI Communication Protocol, SCI Chip Select Pin, GPIO, SWITCH Statement
1925:AS76.c        **** 
1926:AS76.c        **** Function Description : This Function is used to assert or de-assert the chipselect pin of
1927:AS76.c        ****                        selected driver IC.
1928:AS76.c        **** 
1929:AS76.c        **** Return Type & Data   : Void
1930:AS76.c        **** 
1931:AS76.c        **** Numnber of Arguments : 2
1932:AS76.c        **** 
1933:AS76.c        **** -----Argument 1-----
1934:AS76.c        **** Name                 : Motor
ARM GAS  C:\Users\Revanth\AppData\Local\Temp\ccvmpTGe.s 			page 69


1935:AS76.c        **** Tupe                 : uint8_t
1936:AS76.c        **** Description          : This Argument Represents the driver channel
1937:AS76.c        **** Condition            : This Value must range from 0x00 to 0x04 since there are only 5 channels
1938:AS76.c        ****                        available in AS76 System Configuration
1939:AS76.c        **** --------------------
1940:AS76.c        **** 
1941:AS76.c        **** -----Argument 2-----
1942:AS76.c        **** Name                 : Value
1943:AS76.c        **** Tupe                 : uint8_t
1944:AS76.c        **** Description          : This Argument Represents the GPIO Level
1945:AS76.c        **** Condition            : This Value must either 0x00 or 0xFF (Low/High)
1946:AS76.c        **** --------------------
1947:AS76.c        **** 
1948:AS76.c        **** ---------------------------------------------------------------------------------------------*/
1949:AS76.c        **** 
1950:AS76.c        **** void SPI_MOTOR_CHIP_SELECT (uint8_t Motor, uint8_t Value)
1951:AS76.c        **** {
 1698              		.loc 1 1951 0
 1699              		.cfi_startproc
 1700              		@ args = 0, pretend = 0, frame = 0
 1701              		@ frame_needed = 0, uses_anonymous_args = 0
 1702              	.LVL117:
 1703 0000 10B5     		push	{r4, lr}
 1704              		.cfi_def_cfa_offset 8
 1705              		.cfi_offset 4, -8
 1706              		.cfi_offset 14, -4
1952:AS76.c        ****     
1953:AS76.c        **** if ((Value == 0x00) || (Value == 0xFF))  // Condition to check for valid GPIO Value
 1707              		.loc 1 1953 0
 1708 0002 4B1E     		subs	r3, r1, #1
 1709 0004 DBB2     		uxtb	r3, r3
 1710 0006 FD2B     		cmp	r3, #253
 1711 0008 3DD9     		bls	.L135
 1712 000a 0C46     		mov	r4, r1
1954:AS76.c        **** {
1955:AS76.c        ****  switch (Motor) // Condition to select correct motor driver channel
 1713              		.loc 1 1955 0
 1714 000c 0428     		cmp	r0, #4
 1715 000e 36D8     		bhi	.L136
 1716 0010 DFE800F0 		tbb	[pc, r0]
 1717              	.L138:
 1718 0014 03       		.byte	(.L137-.L138)/2
 1719 0015 0D       		.byte	(.L139-.L138)/2
 1720 0016 17       		.byte	(.L140-.L138)/2
 1721 0017 21       		.byte	(.L141-.L138)/2
 1722 0018 2B       		.byte	(.L142-.L138)/2
 1723 0019 00       		.p2align 1
 1724              	.L137:
1956:AS76.c        ****     {
1957:AS76.c        ****     case 0x00:
1958:AS76.c        ****         {
1959:AS76.c        ****           CyDelayUs(10);
 1725              		.loc 1 1959 0
 1726 001a 0A20     		movs	r0, #10
 1727              	.LVL118:
 1728 001c FFF7FEFF 		bl	CyDelayUs
 1729              	.LVL119:
ARM GAS  C:\Users\Revanth\AppData\Local\Temp\ccvmpTGe.s 			page 70


1960:AS76.c        ****           Pin_CSMotorX_Write(Value);
 1730              		.loc 1 1960 0
 1731 0020 2046     		mov	r0, r4
 1732 0022 FFF7FEFF 		bl	Pin_CSMotorX_Write
 1733              	.LVL120:
1961:AS76.c        ****           CyDelayUs(10);
 1734              		.loc 1 1961 0
 1735 0026 0A20     		movs	r0, #10
 1736 0028 FFF7FEFF 		bl	CyDelayUs
 1737              	.LVL121:
1962:AS76.c        ****          // Write_Debug_UART_Char("Motor Channel 1 asserted/de-asserted for SPI Read/Write  \r\n");
1963:AS76.c        ****           break;
 1738              		.loc 1 1963 0
 1739 002c 10BD     		pop	{r4, pc}
 1740              	.LVL122:
 1741              	.L139:
1964:AS76.c        ****         }
1965:AS76.c        ****     case 0x01:
1966:AS76.c        ****         {
1967:AS76.c        ****           CyDelayUs(10);
 1742              		.loc 1 1967 0
 1743 002e 0A20     		movs	r0, #10
 1744              	.LVL123:
 1745 0030 FFF7FEFF 		bl	CyDelayUs
 1746              	.LVL124:
1968:AS76.c        ****           Pin_CSMotorY_Write(Value);
 1747              		.loc 1 1968 0
 1748 0034 2046     		mov	r0, r4
 1749 0036 FFF7FEFF 		bl	Pin_CSMotorY_Write
 1750              	.LVL125:
1969:AS76.c        ****           CyDelayUs(10);
 1751              		.loc 1 1969 0
 1752 003a 0A20     		movs	r0, #10
 1753 003c FFF7FEFF 		bl	CyDelayUs
 1754              	.LVL126:
1970:AS76.c        ****          // Write_Debug_UART_Char("Motor Channel 2 asserted/de-asserted for SPI Read/Write  \r\n");
1971:AS76.c        ****           break;
 1755              		.loc 1 1971 0
 1756 0040 10BD     		pop	{r4, pc}
 1757              	.LVL127:
 1758              	.L140:
1972:AS76.c        ****         }
1973:AS76.c        ****         case 0x02:
1974:AS76.c        ****         {
1975:AS76.c        ****           CyDelayUs(10);
 1759              		.loc 1 1975 0
 1760 0042 0A20     		movs	r0, #10
 1761              	.LVL128:
 1762 0044 FFF7FEFF 		bl	CyDelayUs
 1763              	.LVL129:
1976:AS76.c        ****           Pin_CSMotorZ_Write(Value);
 1764              		.loc 1 1976 0
 1765 0048 2046     		mov	r0, r4
 1766 004a FFF7FEFF 		bl	Pin_CSMotorZ_Write
 1767              	.LVL130:
1977:AS76.c        ****          // Write_Debug_UART_Char("Motor Channel 3 asserted/de-asserted for SPI Read/Write  \r\n");
1978:AS76.c        ****           CyDelayUs(10);
ARM GAS  C:\Users\Revanth\AppData\Local\Temp\ccvmpTGe.s 			page 71


 1768              		.loc 1 1978 0
 1769 004e 0A20     		movs	r0, #10
 1770 0050 FFF7FEFF 		bl	CyDelayUs
 1771              	.LVL131:
1979:AS76.c        ****           break;
 1772              		.loc 1 1979 0
 1773 0054 10BD     		pop	{r4, pc}
 1774              	.LVL132:
 1775              	.L141:
1980:AS76.c        ****         }
1981:AS76.c        ****         case 0x03:
1982:AS76.c        ****         {
1983:AS76.c        ****           CyDelayUs(10);
 1776              		.loc 1 1983 0
 1777 0056 0A20     		movs	r0, #10
 1778              	.LVL133:
 1779 0058 FFF7FEFF 		bl	CyDelayUs
 1780              	.LVL134:
1984:AS76.c        ****           Pin_CSMotorT_Write(Value);
 1781              		.loc 1 1984 0
 1782 005c 2046     		mov	r0, r4
 1783 005e FFF7FEFF 		bl	Pin_CSMotorT_Write
 1784              	.LVL135:
1985:AS76.c        ****         //  Write_Debug_UART_Char("Motor Channel 4 asserted/de-asserted for SPI Read/Write  \r\n");
1986:AS76.c        ****           CyDelayUs(10);
 1785              		.loc 1 1986 0
 1786 0062 0A20     		movs	r0, #10
 1787 0064 FFF7FEFF 		bl	CyDelayUs
 1788              	.LVL136:
1987:AS76.c        ****           break;
 1789              		.loc 1 1987 0
 1790 0068 10BD     		pop	{r4, pc}
 1791              	.LVL137:
 1792              	.L142:
1988:AS76.c        ****         }
1989:AS76.c        ****         case 0x04:
1990:AS76.c        ****         {
1991:AS76.c        ****           CyDelayUs(10);
 1793              		.loc 1 1991 0
 1794 006a 0A20     		movs	r0, #10
 1795              	.LVL138:
 1796 006c FFF7FEFF 		bl	CyDelayUs
 1797              	.LVL139:
1992:AS76.c        ****           Pin_CSMotorO_Write(Value);
 1798              		.loc 1 1992 0
 1799 0070 2046     		mov	r0, r4
 1800 0072 FFF7FEFF 		bl	Pin_CSMotorO_Write
 1801              	.LVL140:
1993:AS76.c        ****         //  Write_Debug_UART_Char("Motor Channel 5 asserted/de-asserted for SPI Read/Write  \r\n");
1994:AS76.c        ****           CyDelayUs(10);
 1802              		.loc 1 1994 0
 1803 0076 0A20     		movs	r0, #10
 1804 0078 FFF7FEFF 		bl	CyDelayUs
 1805              	.LVL141:
1995:AS76.c        ****           break;
 1806              		.loc 1 1995 0
 1807 007c 10BD     		pop	{r4, pc}
ARM GAS  C:\Users\Revanth\AppData\Local\Temp\ccvmpTGe.s 			page 72


 1808              	.LVL142:
 1809              	.L136:
1996:AS76.c        ****         }
1997:AS76.c        ****         
1998:AS76.c        ****         default : // If Invalid motor channel selected print error message
1999:AS76.c        ****         {
2000:AS76.c        ****             Write_Debug_UART_Char("No Valid Driver nCS asserted/de-asserted for SPI Read/Write  \r\
 1810              		.loc 1 2000 0
 1811 007e 0448     		ldr	r0, .L145
 1812              	.LVL143:
 1813 0080 FFF7FEFF 		bl	Write_Debug_UART_Char
 1814              	.LVL144:
 1815 0084 10BD     		pop	{r4, pc}
 1816              	.LVL145:
 1817              	.L135:
2001:AS76.c        ****         }
2002:AS76.c        ****     } 
2003:AS76.c        **** }
2004:AS76.c        **** else // If Invalid GPIO Value given, print error message
2005:AS76.c        **** {
2006:AS76.c        ****    Write_Debug_UART_Char("Invalid GPIO Level Value, Unable to assert/de-assert nCSN Pin for SPI Rea
 1818              		.loc 1 2006 0
 1819 0086 0348     		ldr	r0, .L145+4
 1820              	.LVL146:
 1821 0088 FFF7FEFF 		bl	Write_Debug_UART_Char
 1822              	.LVL147:
 1823 008c 10BD     		pop	{r4, pc}
 1824              	.L146:
 1825 008e 00BF     		.align	2
 1826              	.L145:
 1827 0090 FC010000 		.word	.LC18
 1828 0094 3C020000 		.word	.LC19
 1829              		.cfi_endproc
 1830              	.LFE102:
 1831              		.size	SPI_MOTOR_CHIP_SELECT, .-SPI_MOTOR_CHIP_SELECT
 1832              		.section	.text.Read_32bitSPI_DATA,"ax",%progbits
 1833              		.align	2
 1834              		.global	Read_32bitSPI_DATA
 1835              		.thumb
 1836              		.thumb_func
 1837              		.type	Read_32bitSPI_DATA, %function
 1838              	Read_32bitSPI_DATA:
 1839              	.LFB103:
2007:AS76.c        **** }
2008:AS76.c        **** }
2009:AS76.c        **** 
2010:AS76.c        **** //-------------------------- [] END OF SPI_MOTOR_CHIP_SELECT Function ---------------------------
2011:AS76.c        **** 
2012:AS76.c        **** 
2013:AS76.c        **** /* --------------------------------------------------------------------------------------------
2014:AS76.c        **** Function Name        : Read_32bitSPI_DATA
2015:AS76.c        **** 
2016:AS76.c        **** Prerequist Knowledge : SPI Communication Protocol, TMC5160 SPI Communication Protocol
2017:AS76.c        **** 
2018:AS76.c        **** Function Description : This Function is used to read 32bit data from the driver register
2019:AS76.c        ****                        using 32bit SPI communication protocol specific to TMC5160.
2020:AS76.c        **** 
ARM GAS  C:\Users\Revanth\AppData\Local\Temp\ccvmpTGe.s 			page 73


2021:AS76.c        **** Return Type & Data   :32 bit signed or unsigned integer which was fetched from the register
2022:AS76.c        **** 
2023:AS76.c        **** Numnber of Arguments : 2
2024:AS76.c        **** 
2025:AS76.c        **** -----Argument 1-----
2026:AS76.c        **** Name                 : ADDR
2027:AS76.c        **** Tupe                 : uint8_t
2028:AS76.c        **** Description          : The Address of the TMC5160 Register from which data needs to be read
2029:AS76.c        **** Condition            : Nil
2030:AS76.c        **** --------------------
2031:AS76.c        **** 
2032:AS76.c        **** -----Argument 2-----
2033:AS76.c        **** Name                 : Motor
2034:AS76.c        **** Tupe                 : uint8_t
2035:AS76.c        **** Description          : This Argument Represents the driver channel
2036:AS76.c        **** Condition            : This Value must range from 0x00 to 0x04 since there are only 5 channels
2037:AS76.c        ****                        available in AS76 System Configuration, condition to be checked in 
2038:AS76.c        ****                        SPI_MOTOR_CHIP_SELECT Function                       
2039:AS76.c        **** --------------------
2040:AS76.c        **** 
2041:AS76.c        **** 
2042:AS76.c        **** ---------------------------------------------------------------------------------------------*/
2043:AS76.c        **** 
2044:AS76.c        **** 
2045:AS76.c        **** int Read_32bitSPI_DATA(uint8_t ADDR, uint8_t Motor, uint8_t* motor_status )
2046:AS76.c        **** {
 1840              		.loc 1 2046 0
 1841              		.cfi_startproc
 1842              		@ args = 0, pretend = 0, frame = 0
 1843              		@ frame_needed = 0, uses_anonymous_args = 0
 1844              	.LVL148:
 1845 0000 F8B5     		push	{r3, r4, r5, r6, r7, lr}
 1846              		.cfi_def_cfa_offset 24
 1847              		.cfi_offset 3, -24
 1848              		.cfi_offset 4, -20
 1849              		.cfi_offset 5, -16
 1850              		.cfi_offset 6, -12
 1851              		.cfi_offset 7, -8
 1852              		.cfi_offset 14, -4
 1853 0002 0646     		mov	r6, r0
 1854 0004 0D46     		mov	r5, r1
 1855 0006 1746     		mov	r7, r2
 1856              	.LVL149:
2047:AS76.c        ****                 uint32_t SPI_DATA_VALUE = 0;
2048:AS76.c        ****                
2049:AS76.c        ****                
2050:AS76.c        ****                 SPI_MOTOR_CHIP_SELECT (Motor, 0x00);  
 1857              		.loc 1 2050 0
 1858 0008 0021     		movs	r1, #0
 1859              	.LVL150:
 1860 000a 2846     		mov	r0, r5
 1861              	.LVL151:
 1862 000c FFF7FEFF 		bl	SPI_MOTOR_CHIP_SELECT
 1863              	.LVL152:
2051:AS76.c        ****                 
2052:AS76.c        ****                 Data_To_Transfer(ADDR & 0x7F);                
 1864              		.loc 1 2052 0
ARM GAS  C:\Users\Revanth\AppData\Local\Temp\ccvmpTGe.s 			page 74


 1865 0010 06F07F06 		and	r6, r6, #127
 1866 0014 3046     		mov	r0, r6
 1867 0016 FFF7FEFF 		bl	Data_To_Transfer
 1868              	.LVL153:
2053:AS76.c        ****                 Data_To_Transfer(0x00);                
 1869              		.loc 1 2053 0
 1870 001a 0020     		movs	r0, #0
 1871 001c FFF7FEFF 		bl	Data_To_Transfer
 1872              	.LVL154:
2054:AS76.c        ****                 Data_To_Transfer(0x00);                
 1873              		.loc 1 2054 0
 1874 0020 0020     		movs	r0, #0
 1875 0022 FFF7FEFF 		bl	Data_To_Transfer
 1876              	.LVL155:
2055:AS76.c        ****                 Data_To_Transfer(0x00);                
 1877              		.loc 1 2055 0
 1878 0026 0020     		movs	r0, #0
 1879 0028 FFF7FEFF 		bl	Data_To_Transfer
 1880              	.LVL156:
2056:AS76.c        ****                 Data_To_Transfer(0x00); 
 1881              		.loc 1 2056 0
 1882 002c 0020     		movs	r0, #0
 1883 002e FFF7FEFF 		bl	Data_To_Transfer
 1884              	.LVL157:
2057:AS76.c        ****                 
2058:AS76.c        ****                 SPI_MOTOR_CHIP_SELECT (Motor, 0xFF); 
 1885              		.loc 1 2058 0
 1886 0032 FF21     		movs	r1, #255
 1887 0034 2846     		mov	r0, r5
 1888 0036 FFF7FEFF 		bl	SPI_MOTOR_CHIP_SELECT
 1889              	.LVL158:
2059:AS76.c        ****                 
2060:AS76.c        ****                 CyDelay(1);
 1890              		.loc 1 2060 0
 1891 003a 0120     		movs	r0, #1
 1892 003c FFF7FEFF 		bl	CyDelay
 1893              	.LVL159:
2061:AS76.c        ****                 
2062:AS76.c        ****                 SPI_MOTOR_CHIP_SELECT (Motor, 0x00);
 1894              		.loc 1 2062 0
 1895 0040 0021     		movs	r1, #0
 1896 0042 2846     		mov	r0, r5
 1897 0044 FFF7FEFF 		bl	SPI_MOTOR_CHIP_SELECT
 1898              	.LVL160:
2063:AS76.c        ****                 
2064:AS76.c        ****                 Data_To_Transfer(ADDR & 0x7F);
 1899              		.loc 1 2064 0
 1900 0048 3046     		mov	r0, r6
 1901 004a FFF7FEFF 		bl	Data_To_Transfer
 1902              	.LVL161:
2065:AS76.c        ****                 *motor_status = SPIM_ReadRxData();
 1903              		.loc 1 2065 0
 1904 004e FFF7FEFF 		bl	SPIM_ReadRxData
 1905              	.LVL162:
 1906 0052 3870     		strb	r0, [r7]
2066:AS76.c        ****                 Data_To_Transfer(0x00);
 1907              		.loc 1 2066 0
ARM GAS  C:\Users\Revanth\AppData\Local\Temp\ccvmpTGe.s 			page 75


 1908 0054 0020     		movs	r0, #0
 1909 0056 FFF7FEFF 		bl	Data_To_Transfer
 1910              	.LVL163:
2067:AS76.c        ****                 SPI_DATA_VALUE |= (uint32_t) SPIM_ReadRxData() << 24;
 1911              		.loc 1 2067 0
 1912 005a FFF7FEFF 		bl	SPIM_ReadRxData
 1913              	.LVL164:
 1914 005e 0406     		lsls	r4, r0, #24
 1915              	.LVL165:
2068:AS76.c        ****                 Data_To_Transfer(0x00);
 1916              		.loc 1 2068 0
 1917 0060 0020     		movs	r0, #0
 1918 0062 FFF7FEFF 		bl	Data_To_Transfer
 1919              	.LVL166:
2069:AS76.c        ****                 SPI_DATA_VALUE |= (uint32_t) SPIM_ReadRxData() << 16;
 1920              		.loc 1 2069 0
 1921 0066 FFF7FEFF 		bl	SPIM_ReadRxData
 1922              	.LVL167:
 1923 006a 44EA0044 		orr	r4, r4, r0, lsl #16
 1924              	.LVL168:
2070:AS76.c        ****                 Data_To_Transfer(0x00);
 1925              		.loc 1 2070 0
 1926 006e 0020     		movs	r0, #0
 1927 0070 FFF7FEFF 		bl	Data_To_Transfer
 1928              	.LVL169:
2071:AS76.c        ****                 SPI_DATA_VALUE |= (uint32_t) SPIM_ReadRxData() << 8; 
 1929              		.loc 1 2071 0
 1930 0074 FFF7FEFF 		bl	SPIM_ReadRxData
 1931              	.LVL170:
 1932 0078 44EA0024 		orr	r4, r4, r0, lsl #8
 1933              	.LVL171:
2072:AS76.c        ****                 Data_To_Transfer(0x00); 
 1934              		.loc 1 2072 0
 1935 007c 0020     		movs	r0, #0
 1936 007e FFF7FEFF 		bl	Data_To_Transfer
 1937              	.LVL172:
2073:AS76.c        ****                 SPI_DATA_VALUE |= (uint32_t) SPIM_ReadRxData();
 1938              		.loc 1 2073 0
 1939 0082 FFF7FEFF 		bl	SPIM_ReadRxData
 1940              	.LVL173:
 1941 0086 0443     		orrs	r4, r4, r0
 1942              	.LVL174:
2074:AS76.c        ****                 
2075:AS76.c        ****                 SPI_MOTOR_CHIP_SELECT (Motor, 0xFF);
 1943              		.loc 1 2075 0
 1944 0088 FF21     		movs	r1, #255
 1945 008a 2846     		mov	r0, r5
 1946 008c FFF7FEFF 		bl	SPI_MOTOR_CHIP_SELECT
 1947              	.LVL175:
2076:AS76.c        **** 
2077:AS76.c        ****                 CyDelay(1);
 1948              		.loc 1 2077 0
 1949 0090 0120     		movs	r0, #1
 1950 0092 FFF7FEFF 		bl	CyDelay
 1951              	.LVL176:
2078:AS76.c        ****                 
2079:AS76.c        ****                 SPI_MOTOR_CHIP_SELECT (Motor, 0x00);
ARM GAS  C:\Users\Revanth\AppData\Local\Temp\ccvmpTGe.s 			page 76


 1952              		.loc 1 2079 0
 1953 0096 0021     		movs	r1, #0
 1954 0098 2846     		mov	r0, r5
 1955 009a FFF7FEFF 		bl	SPI_MOTOR_CHIP_SELECT
 1956              	.LVL177:
2080:AS76.c        ****                 
2081:AS76.c        ****                 Data_To_Transfer(ADDR & 0x7F);
 1957              		.loc 1 2081 0
 1958 009e 3046     		mov	r0, r6
 1959 00a0 FFF7FEFF 		bl	Data_To_Transfer
 1960              	.LVL178:
2082:AS76.c        ****                 *motor_status = SPIM_ReadRxData();
 1961              		.loc 1 2082 0
 1962 00a4 FFF7FEFF 		bl	SPIM_ReadRxData
 1963              	.LVL179:
 1964 00a8 3870     		strb	r0, [r7]
2083:AS76.c        ****                 Data_To_Transfer(0x00);
 1965              		.loc 1 2083 0
 1966 00aa 0020     		movs	r0, #0
 1967 00ac FFF7FEFF 		bl	Data_To_Transfer
 1968              	.LVL180:
2084:AS76.c        ****                 SPI_DATA_VALUE |= (uint32_t) SPIM_ReadRxData() << 24;
 1969              		.loc 1 2084 0
 1970 00b0 FFF7FEFF 		bl	SPIM_ReadRxData
 1971              	.LVL181:
 1972 00b4 44EA0064 		orr	r4, r4, r0, lsl #24
 1973              	.LVL182:
2085:AS76.c        ****                 Data_To_Transfer(0x00);
 1974              		.loc 1 2085 0
 1975 00b8 0020     		movs	r0, #0
 1976 00ba FFF7FEFF 		bl	Data_To_Transfer
 1977              	.LVL183:
2086:AS76.c        ****                 SPI_DATA_VALUE |= (uint32_t) SPIM_ReadRxData() << 16;
 1978              		.loc 1 2086 0
 1979 00be FFF7FEFF 		bl	SPIM_ReadRxData
 1980              	.LVL184:
 1981 00c2 44EA0044 		orr	r4, r4, r0, lsl #16
 1982              	.LVL185:
2087:AS76.c        ****                 Data_To_Transfer(0x00);
 1983              		.loc 1 2087 0
 1984 00c6 0020     		movs	r0, #0
 1985 00c8 FFF7FEFF 		bl	Data_To_Transfer
 1986              	.LVL186:
2088:AS76.c        ****                 SPI_DATA_VALUE |= (uint32_t) SPIM_ReadRxData() << 8; 
 1987              		.loc 1 2088 0
 1988 00cc FFF7FEFF 		bl	SPIM_ReadRxData
 1989              	.LVL187:
 1990 00d0 44EA0024 		orr	r4, r4, r0, lsl #8
 1991              	.LVL188:
2089:AS76.c        ****                 Data_To_Transfer(0x00); 
 1992              		.loc 1 2089 0
 1993 00d4 0020     		movs	r0, #0
 1994 00d6 FFF7FEFF 		bl	Data_To_Transfer
 1995              	.LVL189:
2090:AS76.c        ****                 SPI_DATA_VALUE |= (uint32_t) SPIM_ReadRxData();
 1996              		.loc 1 2090 0
 1997 00da FFF7FEFF 		bl	SPIM_ReadRxData
ARM GAS  C:\Users\Revanth\AppData\Local\Temp\ccvmpTGe.s 			page 77


 1998              	.LVL190:
 1999 00de 0443     		orrs	r4, r4, r0
 2000              	.LVL191:
2091:AS76.c        ****                 
2092:AS76.c        ****                 SPI_MOTOR_CHIP_SELECT (Motor, 0xFF);
 2001              		.loc 1 2092 0
 2002 00e0 FF21     		movs	r1, #255
 2003 00e2 2846     		mov	r0, r5
 2004 00e4 FFF7FEFF 		bl	SPI_MOTOR_CHIP_SELECT
 2005              	.LVL192:
2093:AS76.c        ****                 
2094:AS76.c        ****                 
2095:AS76.c        ****                 return SPI_DATA_VALUE;
2096:AS76.c        **** }
 2006              		.loc 1 2096 0
 2007 00e8 2046     		mov	r0, r4
 2008 00ea F8BD     		pop	{r3, r4, r5, r6, r7, pc}
 2009              		.cfi_endproc
 2010              	.LFE103:
 2011              		.size	Read_32bitSPI_DATA, .-Read_32bitSPI_DATA
 2012              		.section	.text.Write_32bitSPI_DATA,"ax",%progbits
 2013              		.align	2
 2014              		.global	Write_32bitSPI_DATA
 2015              		.thumb
 2016              		.thumb_func
 2017              		.type	Write_32bitSPI_DATA, %function
 2018              	Write_32bitSPI_DATA:
 2019              	.LFB104:
2097:AS76.c        **** 
2098:AS76.c        **** //-------------------------- [] END OF Read_32bitSPI_DATA Function ---------------------------
2099:AS76.c        **** 
2100:AS76.c        **** 
2101:AS76.c        **** /* --------------------------------------------------------------------------------------------
2102:AS76.c        **** Function Name        : Write_32bitSPI_DATA
2103:AS76.c        **** 
2104:AS76.c        **** Prerequist Knowledge : SPI Communication Protocol, TMC5160 SPI Communication Protocol
2105:AS76.c        **** 
2106:AS76.c        **** Function Description : This Function is used to write 32bit data to the driver register
2107:AS76.c        ****                        using 32bit SPI communication protocol specific to TMC5160.
2108:AS76.c        **** 
2109:AS76.c        **** Return Type & Data   :Void
2110:AS76.c        **** 
2111:AS76.c        **** Numnber of Arguments : 3
2112:AS76.c        **** 
2113:AS76.c        **** -----Argument 1-----
2114:AS76.c        **** Name                 : ADDR
2115:AS76.c        **** Tupe                 : uint8_t
2116:AS76.c        **** Description          : The Address of the TMC5160 Register to which data needs to be written
2117:AS76.c        **** Condition            : Nil
2118:AS76.c        **** --------------------
2119:AS76.c        **** 
2120:AS76.c        **** -----Argument 2-----
2121:AS76.c        **** Name                 : data
2122:AS76.c        **** Tupe                 : uint8_t
2123:AS76.c        **** Description          : The 32bit data that needs to be written to TMC5160 register
2124:AS76.c        **** Condition            : Nil
2125:AS76.c        **** --------------------
ARM GAS  C:\Users\Revanth\AppData\Local\Temp\ccvmpTGe.s 			page 78


2126:AS76.c        **** 
2127:AS76.c        **** -----Argument 3-----
2128:AS76.c        **** Name                 : Motor
2129:AS76.c        **** Tupe                 : uint8_t
2130:AS76.c        **** Description          : This Argument Represents the driver channel
2131:AS76.c        **** Condition            : This Value must range from 0x00 to 0x04 since there are only 5 channels
2132:AS76.c        ****                        available in AS76 System Configuration, condition to be checked in 
2133:AS76.c        ****                        SPI_MOTOR_CHIP_SELECT Function                       
2134:AS76.c        **** --------------------
2135:AS76.c        **** 
2136:AS76.c        **** ---------------------------------------------------------------------------------------------*/
2137:AS76.c        **** 
2138:AS76.c        **** void Write_32bitSPI_DATA (uint8_t ADDR, int data, uint8_t Motor)
2139:AS76.c        **** {
 2020              		.loc 1 2139 0
 2021              		.cfi_startproc
 2022              		@ args = 0, pretend = 0, frame = 0
 2023              		@ frame_needed = 0, uses_anonymous_args = 0
 2024              	.LVL193:
 2025 0000 70B5     		push	{r4, r5, r6, lr}
 2026              		.cfi_def_cfa_offset 16
 2027              		.cfi_offset 4, -16
 2028              		.cfi_offset 5, -12
 2029              		.cfi_offset 6, -8
 2030              		.cfi_offset 14, -4
 2031 0002 0646     		mov	r6, r0
 2032 0004 0C46     		mov	r4, r1
 2033 0006 1546     		mov	r5, r2
2140:AS76.c        ****  
2141:AS76.c        ****                 SPI_MOTOR_CHIP_SELECT (Motor, 0x00);
 2034              		.loc 1 2141 0
 2035 0008 0021     		movs	r1, #0
 2036              	.LVL194:
 2037 000a 1046     		mov	r0, r2
 2038              	.LVL195:
 2039 000c FFF7FEFF 		bl	SPI_MOTOR_CHIP_SELECT
 2040              	.LVL196:
2142:AS76.c        ****                 Data_To_Transfer(ADDR | 0x80);                
 2041              		.loc 1 2142 0
 2042 0010 46F08000 		orr	r0, r6, #128
 2043 0014 FFF7FEFF 		bl	Data_To_Transfer
 2044              	.LVL197:
2143:AS76.c        ****                 Data_To_Transfer((data & 0xFF000000) >> 24);
 2045              		.loc 1 2143 0
 2046 0018 200E     		lsrs	r0, r4, #24
 2047 001a FFF7FEFF 		bl	Data_To_Transfer
 2048              	.LVL198:
2144:AS76.c        ****                 Data_To_Transfer((data & 0xFF0000) >> 16);
 2049              		.loc 1 2144 0
 2050 001e C4F30740 		ubfx	r0, r4, #16, #8
 2051 0022 FFF7FEFF 		bl	Data_To_Transfer
 2052              	.LVL199:
2145:AS76.c        ****                 Data_To_Transfer((data & 0xFF00) >> 8);
 2053              		.loc 1 2145 0
 2054 0026 C4F30720 		ubfx	r0, r4, #8, #8
 2055 002a FFF7FEFF 		bl	Data_To_Transfer
 2056              	.LVL200:
ARM GAS  C:\Users\Revanth\AppData\Local\Temp\ccvmpTGe.s 			page 79


2146:AS76.c        ****                 Data_To_Transfer(data & 0xFF);     
 2057              		.loc 1 2146 0
 2058 002e E0B2     		uxtb	r0, r4
 2059 0030 FFF7FEFF 		bl	Data_To_Transfer
 2060              	.LVL201:
2147:AS76.c        ****                 SPI_MOTOR_CHIP_SELECT (Motor, 0xFF); 
 2061              		.loc 1 2147 0
 2062 0034 FF21     		movs	r1, #255
 2063 0036 2846     		mov	r0, r5
 2064 0038 FFF7FEFF 		bl	SPI_MOTOR_CHIP_SELECT
 2065              	.LVL202:
 2066 003c 70BD     		pop	{r4, r5, r6, pc}
 2067              		.cfi_endproc
 2068              	.LFE104:
 2069              		.size	Write_32bitSPI_DATA, .-Write_32bitSPI_DATA
 2070 003e 00BF     		.section	.text.GotoPos,"ax",%progbits
 2071              		.align	2
 2072              		.global	GotoPos
 2073              		.thumb
 2074              		.thumb_func
 2075              		.type	GotoPos, %function
 2076              	GotoPos:
 2077              	.LFB65:
 122:AS76.c        ****     Write_32bitSPI_DATA (0x20  , (int) 0x00000000, Motor );
 2078              		.loc 1 122 0
 2079              		.cfi_startproc
 2080              		@ args = 0, pretend = 0, frame = 0
 2081              		@ frame_needed = 0, uses_anonymous_args = 0
 2082              	.LVL203:
 2083 0000 38B5     		push	{r3, r4, r5, lr}
 2084              		.cfi_def_cfa_offset 16
 2085              		.cfi_offset 3, -16
 2086              		.cfi_offset 4, -12
 2087              		.cfi_offset 5, -8
 2088              		.cfi_offset 14, -4
 2089 0002 0546     		mov	r5, r0
 2090 0004 0C46     		mov	r4, r1
 123:AS76.c        ****     Write_32bitSPI_DATA (0x05  , Pos, Motor );
 2091              		.loc 1 123 0
 2092 0006 0A46     		mov	r2, r1
 2093 0008 0021     		movs	r1, #0
 2094              	.LVL204:
 2095 000a 2020     		movs	r0, #32
 2096              	.LVL205:
 2097 000c FFF7FEFF 		bl	Write_32bitSPI_DATA
 2098              	.LVL206:
 124:AS76.c        ****     Write_32bitSPI_DATA (0x2D  , Pos, Motor );   
 2099              		.loc 1 124 0
 2100 0010 2246     		mov	r2, r4
 2101 0012 2946     		mov	r1, r5
 2102 0014 0520     		movs	r0, #5
 2103 0016 FFF7FEFF 		bl	Write_32bitSPI_DATA
 2104              	.LVL207:
 125:AS76.c        **** 
 2105              		.loc 1 125 0
 2106 001a 2246     		mov	r2, r4
 2107 001c 2946     		mov	r1, r5
ARM GAS  C:\Users\Revanth\AppData\Local\Temp\ccvmpTGe.s 			page 80


 2108 001e 2D20     		movs	r0, #45
 2109 0020 FFF7FEFF 		bl	Write_32bitSPI_DATA
 2110              	.LVL208:
 2111 0024 38BD     		pop	{r3, r4, r5, pc}
 2112              		.cfi_endproc
 2113              	.LFE65:
 2114              		.size	GotoPos, .-GotoPos
 2115 0026 00BF     		.section	.text.Initialize_Motor,"ax",%progbits
 2116              		.align	2
 2117              		.global	Initialize_Motor
 2118              		.thumb
 2119              		.thumb_func
 2120              		.type	Initialize_Motor, %function
 2121              	Initialize_Motor:
 2122              	.LFB105:
2148:AS76.c        ****    
2149:AS76.c        ****     
2150:AS76.c        **** }
2151:AS76.c        **** 
2152:AS76.c        **** //-------------------------- [] END OF Write_32bitSPI_DATA Function ---------------------------
2153:AS76.c        **** 
2154:AS76.c        **** void Initialize_Motor(uint8_t Motor)
2155:AS76.c        **** {
 2123              		.loc 1 2155 0
 2124              		.cfi_startproc
 2125              		@ args = 0, pretend = 0, frame = 0
 2126              		@ frame_needed = 0, uses_anonymous_args = 0
 2127              	.LVL209:
 2128 0000 10B5     		push	{r4, lr}
 2129              		.cfi_def_cfa_offset 8
 2130              		.cfi_offset 4, -8
 2131              		.cfi_offset 14, -4
 2132 0002 0446     		mov	r4, r0
2156:AS76.c        ****             Write_32bitSPI_DATA (0x01  , (int) 0x00000005, Motor ); // Global Status Flag Register
 2133              		.loc 1 2156 0
 2134 0004 0246     		mov	r2, r0
 2135 0006 0521     		movs	r1, #5
 2136 0008 0120     		movs	r0, #1
 2137              	.LVL210:
 2138 000a FFF7FEFF 		bl	Write_32bitSPI_DATA
 2139              	.LVL211:
2157:AS76.c        ****             Write_32bitSPI_DATA (0x00  , (int) 0x00000008, Motor ); // Global Configuration Flag Re
 2140              		.loc 1 2157 0
 2141 000e 2246     		mov	r2, r4
 2142 0010 0821     		movs	r1, #8
 2143 0012 0020     		movs	r0, #0
 2144 0014 FFF7FEFF 		bl	Write_32bitSPI_DATA
 2145              	.LVL212:
2158:AS76.c        ****             Write_32bitSPI_DATA (0x03  , (int) 0x00000000, Motor ); // Uart Register
 2146              		.loc 1 2158 0
 2147 0018 2246     		mov	r2, r4
 2148 001a 0021     		movs	r1, #0
 2149 001c 0320     		movs	r0, #3
 2150 001e FFF7FEFF 		bl	Write_32bitSPI_DATA
 2151              	.LVL213:
2159:AS76.c        ****             Write_32bitSPI_DATA (0x05  , (int) 0x00000000, Motor ); // X_COMPARE Register (Position
 2152              		.loc 1 2159 0
ARM GAS  C:\Users\Revanth\AppData\Local\Temp\ccvmpTGe.s 			page 81


 2153 0022 2246     		mov	r2, r4
 2154 0024 0021     		movs	r1, #0
 2155 0026 0520     		movs	r0, #5
 2156 0028 FFF7FEFF 		bl	Write_32bitSPI_DATA
 2157              	.LVL214:
2160:AS76.c        ****             Write_32bitSPI_DATA (0x06  , (int) 0x00000000, Motor ); // OTP_Program Register
 2158              		.loc 1 2160 0
 2159 002c 2246     		mov	r2, r4
 2160 002e 0021     		movs	r1, #0
 2161 0030 0620     		movs	r0, #6
 2162 0032 FFF7FEFF 		bl	Write_32bitSPI_DATA
 2163              	.LVL215:
2161:AS76.c        ****             Write_32bitSPI_DATA (0x08  , (int) 0x0000000F, Motor ); // Factory_Config
 2164              		.loc 1 2161 0
 2165 0036 2246     		mov	r2, r4
 2166 0038 0F21     		movs	r1, #15
 2167 003a 0820     		movs	r0, #8
 2168 003c FFF7FEFF 		bl	Write_32bitSPI_DATA
 2169              	.LVL216:
2162:AS76.c        ****             Write_32bitSPI_DATA (0x09  , (int) 0x00010606, Motor ); // Short Config Register
 2170              		.loc 1 2162 0
 2171 0040 2246     		mov	r2, r4
 2172 0042 8249     		ldr	r1, .L160
 2173 0044 0920     		movs	r0, #9
 2174 0046 FFF7FEFF 		bl	Write_32bitSPI_DATA
 2175              	.LVL217:
2163:AS76.c        ****             Write_32bitSPI_DATA (0x0A  , (int) 0x00080400, Motor ); // Drive Config
 2176              		.loc 1 2163 0
 2177 004a 2246     		mov	r2, r4
 2178 004c 8049     		ldr	r1, .L160+4
 2179 004e 0A20     		movs	r0, #10
 2180 0050 FFF7FEFF 		bl	Write_32bitSPI_DATA
 2181              	.LVL218:
2164:AS76.c        ****             //Write_32bitSPI_DATA (0x0B  , (int) 0x00000000, Motor ); // Global Scaller (Global sca
2165:AS76.c        ****             // Current setting register Irun abd Ihold
2166:AS76.c        ****             if ( Motor == TMC5160_nCS_MotorZ)
 2182              		.loc 1 2166 0
 2183 0054 022C     		cmp	r4, #2
 2184 0056 0AD1     		bne	.L154
2167:AS76.c        ****             {
2168:AS76.c        ****             Write_32bitSPI_DATA (0x0B  , (int) 0x00000000, Motor );
 2185              		.loc 1 2168 0
 2186 0058 2246     		mov	r2, r4
 2187 005a 0021     		movs	r1, #0
 2188 005c 0B20     		movs	r0, #11
 2189 005e FFF7FEFF 		bl	Write_32bitSPI_DATA
 2190              	.LVL219:
2169:AS76.c        ****             Write_32bitSPI_DATA (0x10  , (int) 0x00070301, Motor );
 2191              		.loc 1 2169 0
 2192 0062 2246     		mov	r2, r4
 2193 0064 7B49     		ldr	r1, .L160+8
 2194 0066 1020     		movs	r0, #16
 2195 0068 FFF7FEFF 		bl	Write_32bitSPI_DATA
 2196              	.LVL220:
 2197 006c 2FE0     		b	.L155
 2198              	.L154:
2170:AS76.c        ****             }
ARM GAS  C:\Users\Revanth\AppData\Local\Temp\ccvmpTGe.s 			page 82


2171:AS76.c        ****             else if ( Motor == TMC5160_nCS_MotorX)
 2199              		.loc 1 2171 0
 2200 006e 54B9     		cbnz	r4, .L156
2172:AS76.c        ****             {
2173:AS76.c        ****             Write_32bitSPI_DATA (0x0B  , 90, Motor );
 2201              		.loc 1 2173 0
 2202 0070 2246     		mov	r2, r4
 2203 0072 5A21     		movs	r1, #90
 2204 0074 0B20     		movs	r0, #11
 2205 0076 FFF7FEFF 		bl	Write_32bitSPI_DATA
 2206              	.LVL221:
2174:AS76.c        ****             Write_32bitSPI_DATA (0x10  , (int) 0x00070101, Motor );
 2207              		.loc 1 2174 0
 2208 007a 2246     		mov	r2, r4
 2209 007c 7649     		ldr	r1, .L160+12
 2210 007e 1020     		movs	r0, #16
 2211 0080 FFF7FEFF 		bl	Write_32bitSPI_DATA
 2212              	.LVL222:
 2213 0084 23E0     		b	.L155
 2214              	.L156:
2175:AS76.c        ****             }
2176:AS76.c        ****             else if ( Motor == TMC5160_nCS_MotorY)
 2215              		.loc 1 2176 0
 2216 0086 012C     		cmp	r4, #1
 2217 0088 0AD1     		bne	.L157
2177:AS76.c        ****             {
2178:AS76.c        ****              Write_32bitSPI_DATA (0x0B  , (int) 127, Motor );
 2218              		.loc 1 2178 0
 2219 008a 2246     		mov	r2, r4
 2220 008c 7F21     		movs	r1, #127
 2221 008e 0B20     		movs	r0, #11
 2222 0090 FFF7FEFF 		bl	Write_32bitSPI_DATA
 2223              	.LVL223:
2179:AS76.c        ****              Write_32bitSPI_DATA (0x10  , (int) 0x00070101, Motor );
 2224              		.loc 1 2179 0
 2225 0094 2246     		mov	r2, r4
 2226 0096 7049     		ldr	r1, .L160+12
 2227 0098 1020     		movs	r0, #16
 2228 009a FFF7FEFF 		bl	Write_32bitSPI_DATA
 2229              	.LVL224:
 2230 009e 16E0     		b	.L155
 2231              	.L157:
2180:AS76.c        ****             }
2181:AS76.c        ****             else if ( Motor == TMC5160_nCS_MotorO)
 2232              		.loc 1 2181 0
 2233 00a0 042C     		cmp	r4, #4
 2234 00a2 0AD1     		bne	.L158
2182:AS76.c        ****             {
2183:AS76.c        ****              Write_32bitSPI_DATA (0x0B  , (int) 210, Motor );
 2235              		.loc 1 2183 0
 2236 00a4 2246     		mov	r2, r4
 2237 00a6 D221     		movs	r1, #210
 2238 00a8 0B20     		movs	r0, #11
 2239 00aa FFF7FEFF 		bl	Write_32bitSPI_DATA
 2240              	.LVL225:
2184:AS76.c        ****              Write_32bitSPI_DATA (0x10  , (int) 0x00070100, Motor );
 2241              		.loc 1 2184 0
ARM GAS  C:\Users\Revanth\AppData\Local\Temp\ccvmpTGe.s 			page 83


 2242 00ae 2246     		mov	r2, r4
 2243 00b0 6A49     		ldr	r1, .L160+16
 2244 00b2 1020     		movs	r0, #16
 2245 00b4 FFF7FEFF 		bl	Write_32bitSPI_DATA
 2246              	.LVL226:
 2247 00b8 09E0     		b	.L155
 2248              	.L158:
2185:AS76.c        ****             }
2186:AS76.c        ****             else
2187:AS76.c        ****             {
2188:AS76.c        ****              Write_32bitSPI_DATA (0x0B  , (int) 0x00000000, Motor );
 2249              		.loc 1 2188 0
 2250 00ba 2246     		mov	r2, r4
 2251 00bc 0021     		movs	r1, #0
 2252 00be 0B20     		movs	r0, #11
 2253 00c0 FFF7FEFF 		bl	Write_32bitSPI_DATA
 2254              	.LVL227:
2189:AS76.c        ****              Write_32bitSPI_DATA (0x10  , (int) 0x00070501, Motor );  
 2255              		.loc 1 2189 0
 2256 00c4 2246     		mov	r2, r4
 2257 00c6 6649     		ldr	r1, .L160+20
 2258 00c8 1020     		movs	r0, #16
 2259 00ca FFF7FEFF 		bl	Write_32bitSPI_DATA
 2260              	.LVL228:
 2261              	.L155:
2190:AS76.c        ****             }
2191:AS76.c        ****             Write_32bitSPI_DATA (0x11  , (int) 0x0000000A, Motor ); // TPOWERDOWN Register sets the
 2262              		.loc 1 2191 0
 2263 00ce 2246     		mov	r2, r4
 2264 00d0 0A21     		movs	r1, #10
 2265 00d2 1120     		movs	r0, #17
 2266 00d4 FFF7FEFF 		bl	Write_32bitSPI_DATA
 2267              	.LVL229:
2192:AS76.c        ****             Write_32bitSPI_DATA (0x13  , (int) 0x00000000, Motor );
 2268              		.loc 1 2192 0
 2269 00d8 2246     		mov	r2, r4
 2270 00da 0021     		movs	r1, #0
 2271 00dc 1320     		movs	r0, #19
 2272 00de FFF7FEFF 		bl	Write_32bitSPI_DATA
 2273              	.LVL230:
2193:AS76.c        ****             Write_32bitSPI_DATA (0x14  , (int) 0x00000000, Motor );
 2274              		.loc 1 2193 0
 2275 00e2 2246     		mov	r2, r4
 2276 00e4 0021     		movs	r1, #0
 2277 00e6 1420     		movs	r0, #20
 2278 00e8 FFF7FEFF 		bl	Write_32bitSPI_DATA
 2279              	.LVL231:
2194:AS76.c        ****             Write_32bitSPI_DATA (0x15  , (int) 0x00000000, Motor );
 2280              		.loc 1 2194 0
 2281 00ec 2246     		mov	r2, r4
 2282 00ee 0021     		movs	r1, #0
 2283 00f0 1520     		movs	r0, #21
 2284 00f2 FFF7FEFF 		bl	Write_32bitSPI_DATA
 2285              	.LVL232:
2195:AS76.c        ****             
2196:AS76.c        ****             Write_32bitSPI_DATA (0x21  , (int) 0x00000000, Motor );
 2286              		.loc 1 2196 0
ARM GAS  C:\Users\Revanth\AppData\Local\Temp\ccvmpTGe.s 			page 84


 2287 00f6 2246     		mov	r2, r4
 2288 00f8 0021     		movs	r1, #0
 2289 00fa 2120     		movs	r0, #33
 2290 00fc FFF7FEFF 		bl	Write_32bitSPI_DATA
 2291              	.LVL233:
2197:AS76.c        ****             Write_32bitSPI_DATA (0x23  , (int) 0x00000000, Motor );
 2292              		.loc 1 2197 0
 2293 0100 2246     		mov	r2, r4
 2294 0102 0021     		movs	r1, #0
 2295 0104 2320     		movs	r0, #35
 2296 0106 FFF7FEFF 		bl	Write_32bitSPI_DATA
 2297              	.LVL234:
2198:AS76.c        ****             
2199:AS76.c        ****             Write_32bitSPI_DATA (0x2C  , (int) 0x00000000, Motor );
 2298              		.loc 1 2199 0
 2299 010a 2246     		mov	r2, r4
 2300 010c 0021     		movs	r1, #0
 2301 010e 2C20     		movs	r0, #44
 2302 0110 FFF7FEFF 		bl	Write_32bitSPI_DATA
 2303              	.LVL235:
2200:AS76.c        ****             
2201:AS76.c        ****             Write_32bitSPI_DATA (0x33  , (int) 0x00000000, Motor );
 2304              		.loc 1 2201 0
 2305 0114 2246     		mov	r2, r4
 2306 0116 0021     		movs	r1, #0
 2307 0118 3320     		movs	r0, #51
 2308 011a FFF7FEFF 		bl	Write_32bitSPI_DATA
 2309              	.LVL236:
2202:AS76.c        ****             Write_32bitSPI_DATA (0x34  , (int) 0x000002AF, Motor );
 2310              		.loc 1 2202 0
 2311 011e 2246     		mov	r2, r4
 2312 0120 40F2AF21 		movw	r1, #687
 2313 0124 3420     		movs	r0, #52
 2314 0126 FFF7FEFF 		bl	Write_32bitSPI_DATA
 2315              	.LVL237:
2203:AS76.c        ****             Write_32bitSPI_DATA (0x38  , (int) 0x00000000, Motor );
 2316              		.loc 1 2203 0
 2317 012a 2246     		mov	r2, r4
 2318 012c 0021     		movs	r1, #0
 2319 012e 3820     		movs	r0, #56
 2320 0130 FFF7FEFF 		bl	Write_32bitSPI_DATA
 2321              	.LVL238:
2204:AS76.c        ****             Write_32bitSPI_DATA (0x39  , (int) 0x00000000, Motor );
 2322              		.loc 1 2204 0
 2323 0134 2246     		mov	r2, r4
 2324 0136 0021     		movs	r1, #0
 2325 0138 3920     		movs	r0, #57
 2326 013a FFF7FEFF 		bl	Write_32bitSPI_DATA
 2327              	.LVL239:
2205:AS76.c        ****             Write_32bitSPI_DATA (0x3A  , (int) 0x00010000, Motor );
 2328              		.loc 1 2205 0
 2329 013e 2246     		mov	r2, r4
 2330 0140 4FF48031 		mov	r1, #65536
 2331 0144 3A20     		movs	r0, #58
 2332 0146 FFF7FEFF 		bl	Write_32bitSPI_DATA
 2333              	.LVL240:
2206:AS76.c        ****             Write_32bitSPI_DATA (0x3D  , (int) 0x00000000, Motor );
ARM GAS  C:\Users\Revanth\AppData\Local\Temp\ccvmpTGe.s 			page 85


 2334              		.loc 1 2206 0
 2335 014a 2246     		mov	r2, r4
 2336 014c 0021     		movs	r1, #0
 2337 014e 3D20     		movs	r0, #61
 2338 0150 FFF7FEFF 		bl	Write_32bitSPI_DATA
 2339              	.LVL241:
2207:AS76.c        ****             Write_32bitSPI_DATA (0x60  , (int) 0xAAAAB554, Motor );
 2340              		.loc 1 2207 0
 2341 0154 2246     		mov	r2, r4
 2342 0156 4349     		ldr	r1, .L160+24
 2343 0158 6020     		movs	r0, #96
 2344 015a FFF7FEFF 		bl	Write_32bitSPI_DATA
 2345              	.LVL242:
2208:AS76.c        ****             Write_32bitSPI_DATA (0x61  , (int) 0x4A9554AA, Motor );
 2346              		.loc 1 2208 0
 2347 015e 2246     		mov	r2, r4
 2348 0160 4149     		ldr	r1, .L160+28
 2349 0162 6120     		movs	r0, #97
 2350 0164 FFF7FEFF 		bl	Write_32bitSPI_DATA
 2351              	.LVL243:
2209:AS76.c        ****             Write_32bitSPI_DATA (0x62  , (int) 0x24492929, Motor );
 2352              		.loc 1 2209 0
 2353 0168 2246     		mov	r2, r4
 2354 016a 4049     		ldr	r1, .L160+32
 2355 016c 6220     		movs	r0, #98
 2356 016e FFF7FEFF 		bl	Write_32bitSPI_DATA
 2357              	.LVL244:
2210:AS76.c        ****             Write_32bitSPI_DATA (0x63  , (int) 0x00000008, Motor );
 2358              		.loc 1 2210 0
 2359 0172 2246     		mov	r2, r4
 2360 0174 0821     		movs	r1, #8
 2361 0176 6320     		movs	r0, #99
 2362 0178 FFF7FEFF 		bl	Write_32bitSPI_DATA
 2363              	.LVL245:
2211:AS76.c        ****             Write_32bitSPI_DATA (0x64  , (int) 0xFBFFFFFF, Motor );
 2364              		.loc 1 2211 0
 2365 017c 2246     		mov	r2, r4
 2366 017e 6FF08061 		mvn	r1, #67108864
 2367 0182 6420     		movs	r0, #100
 2368 0184 FFF7FEFF 		bl	Write_32bitSPI_DATA
 2369              	.LVL246:
2212:AS76.c        ****             Write_32bitSPI_DATA (0x65  , (int) 0xB5BB777D, Motor );
 2370              		.loc 1 2212 0
 2371 0188 2246     		mov	r2, r4
 2372 018a 3949     		ldr	r1, .L160+36
 2373 018c 6520     		movs	r0, #101
 2374 018e FFF7FEFF 		bl	Write_32bitSPI_DATA
 2375              	.LVL247:
2213:AS76.c        ****             Write_32bitSPI_DATA (0x66  , (int) 0x49295556, Motor );
 2376              		.loc 1 2213 0
 2377 0192 2246     		mov	r2, r4
 2378 0194 3749     		ldr	r1, .L160+40
 2379 0196 6620     		movs	r0, #102
 2380 0198 FFF7FEFF 		bl	Write_32bitSPI_DATA
 2381              	.LVL248:
2214:AS76.c        ****             Write_32bitSPI_DATA (0x67  , (int) 0x00404222, Motor );
 2382              		.loc 1 2214 0
ARM GAS  C:\Users\Revanth\AppData\Local\Temp\ccvmpTGe.s 			page 86


 2383 019c 2246     		mov	r2, r4
 2384 019e 3649     		ldr	r1, .L160+44
 2385 01a0 6720     		movs	r0, #103
 2386 01a2 FFF7FEFF 		bl	Write_32bitSPI_DATA
 2387              	.LVL249:
2215:AS76.c        ****             Write_32bitSPI_DATA (0x68  , (int) 0xFFFF8056, Motor );
 2388              		.loc 1 2215 0
 2389 01a6 2246     		mov	r2, r4
 2390 01a8 3449     		ldr	r1, .L160+48
 2391 01aa 6820     		movs	r0, #104
 2392 01ac FFF7FEFF 		bl	Write_32bitSPI_DATA
 2393              	.LVL250:
2216:AS76.c        ****             Write_32bitSPI_DATA (0x69  , (int) 0x00F70000, Motor );
 2394              		.loc 1 2216 0
 2395 01b0 2246     		mov	r2, r4
 2396 01b2 4FF47701 		mov	r1, #16187392
 2397 01b6 6920     		movs	r0, #105
 2398 01b8 FFF7FEFF 		bl	Write_32bitSPI_DATA
 2399              	.LVL251:
2217:AS76.c        ****            
2218:AS76.c        ****             Write_32bitSPI_DATA (0x6C  , (int) 0x00410153, Motor ); 
 2400              		.loc 1 2218 0
 2401 01bc 2246     		mov	r2, r4
 2402 01be 3049     		ldr	r1, .L160+52
 2403 01c0 6C20     		movs	r0, #108
 2404 01c2 FFF7FEFF 		bl	Write_32bitSPI_DATA
 2405              	.LVL252:
2219:AS76.c        ****             Write_32bitSPI_DATA (0x6D  , (int) 0x00000000, Motor );
 2406              		.loc 1 2219 0
 2407 01c6 2246     		mov	r2, r4
 2408 01c8 0021     		movs	r1, #0
 2409 01ca 6D20     		movs	r0, #109
 2410 01cc FFF7FEFF 		bl	Write_32bitSPI_DATA
 2411              	.LVL253:
2220:AS76.c        **** 
2221:AS76.c        ****             Write_32bitSPI_DATA (0x6E  , (int) 0x00000000, Motor );
 2412              		.loc 1 2221 0
 2413 01d0 2246     		mov	r2, r4
 2414 01d2 0021     		movs	r1, #0
 2415 01d4 6E20     		movs	r0, #110
 2416 01d6 FFF7FEFF 		bl	Write_32bitSPI_DATA
 2417              	.LVL254:
2222:AS76.c        ****             Write_32bitSPI_DATA (0x70  , (int) 0xC40C001E, Motor ); 
 2418              		.loc 1 2222 0
 2419 01da 2246     		mov	r2, r4
 2420 01dc 2949     		ldr	r1, .L160+56
 2421 01de 7020     		movs	r0, #112
 2422 01e0 FFF7FEFF 		bl	Write_32bitSPI_DATA
 2423              	.LVL255:
2223:AS76.c        ****             
2224:AS76.c        ****             Write_32bitSPI_DATA (0x21  , (int) 0x00000000, Motor );            
 2424              		.loc 1 2224 0
 2425 01e4 2246     		mov	r2, r4
 2426 01e6 0021     		movs	r1, #0
 2427 01e8 2120     		movs	r0, #33
 2428 01ea FFF7FEFF 		bl	Write_32bitSPI_DATA
 2429              	.LVL256:
ARM GAS  C:\Users\Revanth\AppData\Local\Temp\ccvmpTGe.s 			page 87


2225:AS76.c        ****             Write_32bitSPI_DATA (0x24  , (int) 0x0000FFFF, Motor );
 2430              		.loc 1 2225 0
 2431 01ee 2246     		mov	r2, r4
 2432 01f0 4FF6FF71 		movw	r1, #65535
 2433 01f4 2420     		movs	r0, #36
 2434 01f6 FFF7FEFF 		bl	Write_32bitSPI_DATA
 2435              	.LVL257:
2226:AS76.c        ****             Write_32bitSPI_DATA (0x25  , (int) 0x0000FFFF, Motor );
 2436              		.loc 1 2226 0
 2437 01fa 2246     		mov	r2, r4
 2438 01fc 4FF6FF71 		movw	r1, #65535
 2439 0200 2520     		movs	r0, #37
 2440 0202 FFF7FEFF 		bl	Write_32bitSPI_DATA
 2441              	.LVL258:
2227:AS76.c        ****             Write_32bitSPI_DATA (0x26  , (int) 0x0000FFFF, Motor );
 2442              		.loc 1 2227 0
 2443 0206 2246     		mov	r2, r4
 2444 0208 4FF6FF71 		movw	r1, #65535
 2445 020c 2620     		movs	r0, #38
 2446 020e FFF7FEFF 		bl	Write_32bitSPI_DATA
 2447              	.LVL259:
2228:AS76.c        ****             Write_32bitSPI_DATA (0x27  , (int) 0x00000000, Motor );
 2448              		.loc 1 2228 0
 2449 0212 2246     		mov	r2, r4
 2450 0214 0021     		movs	r1, #0
 2451 0216 2720     		movs	r0, #39
 2452 0218 FFF7FEFF 		bl	Write_32bitSPI_DATA
 2453              	.LVL260:
2229:AS76.c        ****             Write_32bitSPI_DATA (0x28  , (int) 0x0000FFFF, Motor );
 2454              		.loc 1 2229 0
 2455 021c 2246     		mov	r2, r4
 2456 021e 4FF6FF71 		movw	r1, #65535
 2457 0222 2820     		movs	r0, #40
 2458 0224 FFF7FEFF 		bl	Write_32bitSPI_DATA
 2459              	.LVL261:
2230:AS76.c        ****             Write_32bitSPI_DATA (0x2A  , (int) 0x0000FFFF, Motor );
 2460              		.loc 1 2230 0
 2461 0228 2246     		mov	r2, r4
 2462 022a 4FF6FF71 		movw	r1, #65535
 2463 022e 2A20     		movs	r0, #42
 2464 0230 FFF7FEFF 		bl	Write_32bitSPI_DATA
 2465              	.LVL262:
2231:AS76.c        ****             Write_32bitSPI_DATA (0x2B  , (int) 0x00000065, Motor );
 2466              		.loc 1 2231 0
 2467 0234 2246     		mov	r2, r4
 2468 0236 6521     		movs	r1, #101
 2469 0238 2B20     		movs	r0, #43
 2470 023a FFF7FEFF 		bl	Write_32bitSPI_DATA
 2471              	.LVL263:
2232:AS76.c        ****             Write_32bitSPI_DATA (0x20  , (int) 0x00000000, Motor );
 2472              		.loc 1 2232 0
 2473 023e 2246     		mov	r2, r4
 2474 0240 0021     		movs	r1, #0
 2475 0242 2020     		movs	r0, #32
 2476 0244 FFF7FEFF 		bl	Write_32bitSPI_DATA
 2477              	.LVL264:
 2478 0248 10BD     		pop	{r4, pc}
ARM GAS  C:\Users\Revanth\AppData\Local\Temp\ccvmpTGe.s 			page 88


 2479              	.L161:
 2480 024a 00BF     		.align	2
 2481              	.L160:
 2482 024c 06060100 		.word	67078
 2483 0250 00040800 		.word	525312
 2484 0254 01030700 		.word	459521
 2485 0258 01010700 		.word	459009
 2486 025c 00010700 		.word	459008
 2487 0260 01050700 		.word	460033
 2488 0264 54B5AAAA 		.word	-1431653036
 2489 0268 AA54954A 		.word	1251300522
 2490 026c 29294924 		.word	608774441
 2491 0270 7D77BBB5 		.word	-1246005379
 2492 0274 56552949 		.word	1227445590
 2493 0278 22424000 		.word	4211234
 2494 027c 5680FFFF 		.word	-32682
 2495 0280 53014100 		.word	4260179
 2496 0284 1E000CC4 		.word	-1005846498
 2497              		.cfi_endproc
 2498              	.LFE105:
 2499              		.size	Initialize_Motor, .-Initialize_Motor
 2500              		.section	.text.IsPositionReached,"ax",%progbits
 2501              		.align	2
 2502              		.global	IsPositionReached
 2503              		.thumb
 2504              		.thumb_func
 2505              		.type	IsPositionReached, %function
 2506              	IsPositionReached:
 2507              	.LFB106:
2233:AS76.c        **** }
2234:AS76.c        **** 
2235:AS76.c        **** 
2236:AS76.c        **** 
2237:AS76.c        **** bool IsPositionReached (uint8_t Motor)
2238:AS76.c        **** {
 2508              		.loc 1 2238 0
 2509              		.cfi_startproc
 2510              		@ args = 0, pretend = 0, frame = 0
 2511              		@ frame_needed = 0, uses_anonymous_args = 0
 2512              	.LVL265:
 2513 0000 38B5     		push	{r3, r4, r5, lr}
 2514              		.cfi_def_cfa_offset 16
 2515              		.cfi_offset 3, -16
 2516              		.cfi_offset 4, -12
 2517              		.cfi_offset 5, -8
 2518              		.cfi_offset 14, -4
 2519 0002 0546     		mov	r5, r0
2239:AS76.c        ****          bool status;
2240:AS76.c        ****          CyDelayUs(500);
 2520              		.loc 1 2240 0
 2521 0004 4FF4FA70 		mov	r0, #500
 2522              	.LVL266:
 2523 0008 FFF7FEFF 		bl	CyDelayUs
 2524              	.LVL267:
2241:AS76.c        ****          Read_32bitSPI_DATA(0x04, Motor, &status_x);
 2525              		.loc 1 2241 0
 2526 000c 0A4C     		ldr	r4, .L166
ARM GAS  C:\Users\Revanth\AppData\Local\Temp\ccvmpTGe.s 			page 89


 2527 000e 2246     		mov	r2, r4
 2528 0010 2946     		mov	r1, r5
 2529 0012 0420     		movs	r0, #4
 2530 0014 FFF7FEFF 		bl	Read_32bitSPI_DATA
 2531              	.LVL268:
2242:AS76.c        ****          CyDelayUs(100);
 2532              		.loc 1 2242 0
 2533 0018 6420     		movs	r0, #100
 2534 001a FFF7FEFF 		bl	CyDelayUs
 2535              	.LVL269:
2243:AS76.c        ****          Read_32bitSPI_DATA(0x04, Motor, &status_x);
 2536              		.loc 1 2243 0
 2537 001e 2246     		mov	r2, r4
 2538 0020 2946     		mov	r1, r5
 2539 0022 0420     		movs	r0, #4
 2540 0024 FFF7FEFF 		bl	Read_32bitSPI_DATA
 2541              	.LVL270:
2244:AS76.c        ****          if ( (status_x & 0x20) == 0x00)
 2542              		.loc 1 2244 0
 2543 0028 2378     		ldrb	r3, [r4]	@ zero_extendqisi2
 2544 002a 13F0200F 		tst	r3, #32
 2545 002e 01D1     		bne	.L164
2245:AS76.c        ****             {
2246:AS76.c        ****                  status = false;
 2546              		.loc 1 2246 0
 2547 0030 0020     		movs	r0, #0
 2548 0032 38BD     		pop	{r3, r4, r5, pc}
 2549              	.L164:
2247:AS76.c        ****    
2248:AS76.c        ****             }
2249:AS76.c        ****          else
2250:AS76.c        ****             {
2251:AS76.c        ****                  status = true;
 2550              		.loc 1 2251 0
 2551 0034 0120     		movs	r0, #1
 2552              	.LVL271:
2252:AS76.c        ****             }
2253:AS76.c        ****             
2254:AS76.c        ****          return status;
2255:AS76.c        **** }
 2553              		.loc 1 2255 0
 2554 0036 38BD     		pop	{r3, r4, r5, pc}
 2555              	.L167:
 2556              		.align	2
 2557              	.L166:
 2558 0038 00000000 		.word	status_x
 2559              		.cfi_endproc
 2560              	.LFE106:
 2561              		.size	IsPositionReached, .-IsPositionReached
 2562              		.section	.text.WaitTillPositionReached,"ax",%progbits
 2563              		.align	2
 2564              		.global	WaitTillPositionReached
 2565              		.thumb
 2566              		.thumb_func
 2567              		.type	WaitTillPositionReached, %function
 2568              	WaitTillPositionReached:
 2569              	.LFB107:
ARM GAS  C:\Users\Revanth\AppData\Local\Temp\ccvmpTGe.s 			page 90


2256:AS76.c        **** 
2257:AS76.c        **** int WaitTillPositionReached (uint8_t Motor)
2258:AS76.c        **** {
 2570              		.loc 1 2258 0
 2571              		.cfi_startproc
 2572              		@ args = 0, pretend = 0, frame = 8
 2573              		@ frame_needed = 0, uses_anonymous_args = 0
 2574              	.LVL272:
 2575 0000 30B5     		push	{r4, r5, lr}
 2576              		.cfi_def_cfa_offset 12
 2577              		.cfi_offset 4, -12
 2578              		.cfi_offset 5, -8
 2579              		.cfi_offset 14, -4
 2580 0002 83B0     		sub	sp, sp, #12
 2581              		.cfi_def_cfa_offset 24
 2582 0004 0446     		mov	r4, r0
2259:AS76.c        ****          uint8_t wait_status = 0;
 2583              		.loc 1 2259 0
 2584 0006 02AD     		add	r5, sp, #8
 2585 0008 0023     		movs	r3, #0
 2586 000a 05F8013D 		strb	r3, [r5, #-1]!
 2587              	.LVL273:
2260:AS76.c        ****          int status = 0;
2261:AS76.c        ****          CyDelayUs(500);
 2588              		.loc 1 2261 0
 2589 000e 4FF4FA70 		mov	r0, #500
 2590              	.LVL274:
 2591 0012 FFF7FEFF 		bl	CyDelayUs
 2592              	.LVL275:
2262:AS76.c        ****          Read_32bitSPI_DATA(0x04, Motor, &wait_status);
 2593              		.loc 1 2262 0
 2594 0016 2A46     		mov	r2, r5
 2595 0018 2146     		mov	r1, r4
 2596 001a 0420     		movs	r0, #4
 2597 001c FFF7FEFF 		bl	Read_32bitSPI_DATA
 2598              	.LVL276:
2263:AS76.c        ****          CyDelayUs(100);
 2599              		.loc 1 2263 0
 2600 0020 6420     		movs	r0, #100
 2601 0022 FFF7FEFF 		bl	CyDelayUs
 2602              	.LVL277:
2264:AS76.c        ****          Read_32bitSPI_DATA(0x04, Motor, &wait_status);
 2603              		.loc 1 2264 0
 2604 0026 2A46     		mov	r2, r5
 2605 0028 2146     		mov	r1, r4
 2606 002a 0420     		movs	r0, #4
 2607 002c FFF7FEFF 		bl	Read_32bitSPI_DATA
 2608              	.LVL278:
2265:AS76.c        ****          while ( (wait_status & 0x20) == 0x00)
 2609              		.loc 1 2265 0
 2610 0030 08E0     		b	.L169
 2611              	.L170:
2266:AS76.c        ****             {
2267:AS76.c        ****                  Read_32bitSPI_DATA(0x21, Motor,  &wait_status);                
 2612              		.loc 1 2267 0
 2613 0032 0DF10702 		add	r2, sp, #7
 2614 0036 2146     		mov	r1, r4
ARM GAS  C:\Users\Revanth\AppData\Local\Temp\ccvmpTGe.s 			page 91


 2615 0038 2120     		movs	r0, #33
 2616 003a FFF7FEFF 		bl	Read_32bitSPI_DATA
 2617              	.LVL279:
2268:AS76.c        ****                  CyDelayUs(100);
 2618              		.loc 1 2268 0
 2619 003e 6420     		movs	r0, #100
 2620 0040 FFF7FEFF 		bl	CyDelayUs
 2621              	.LVL280:
 2622              	.L169:
