ARM GAS  C:\Users\Revanth\AppData\Local\Temp\cctCFyeS.s 			page 1


   1              		.syntax unified
   2              		.cpu cortex-m3
   3              		.fpu softvfp
   4              		.eabi_attribute 20, 1
   5              		.eabi_attribute 21, 1
   6              		.eabi_attribute 23, 3
   7              		.eabi_attribute 24, 1
   8              		.eabi_attribute 25, 1
   9              		.eabi_attribute 26, 1
  10              		.eabi_attribute 30, 1
  11              		.eabi_attribute 34, 1
  12              		.eabi_attribute 18, 4
  13              		.thumb
  14              		.syntax unified
  15              		.file	"USB_std.c"
  16              		.text
  17              	.Ltext0:
  18              		.cfi_sections	.debug_frame
  19              		.section	.text.USB_ReadDieID,"ax",%progbits
  20              		.align	2
  21              		.global	USB_ReadDieID
  22              		.thumb
  23              		.thumb_func
  24              		.type	USB_ReadDieID, %function
  25              	USB_ReadDieID:
  26              	.LFB1:
  27              		.file 1 "Generated_Source\\PSoC5\\USB_std.c"
   1:Generated_Source\PSoC5/USB_std.c **** /***************************************************************************//**
   2:Generated_Source\PSoC5/USB_std.c **** * \file USB_std.c
   3:Generated_Source\PSoC5/USB_std.c **** * \version 3.20
   4:Generated_Source\PSoC5/USB_std.c **** *
   5:Generated_Source\PSoC5/USB_std.c **** * \brief
   6:Generated_Source\PSoC5/USB_std.c **** *  This file contains the USB Standard request handler.
   7:Generated_Source\PSoC5/USB_std.c **** *
   8:Generated_Source\PSoC5/USB_std.c **** ********************************************************************************
   9:Generated_Source\PSoC5/USB_std.c **** * \copyright
  10:Generated_Source\PSoC5/USB_std.c **** * Copyright 2008-2016, Cypress Semiconductor Corporation.  All rights reserved.
  11:Generated_Source\PSoC5/USB_std.c **** * You may use this file only in accordance with the license, terms, conditions,
  12:Generated_Source\PSoC5/USB_std.c **** * disclaimers, and limitations in the end user license agreement accompanying
  13:Generated_Source\PSoC5/USB_std.c **** * the software package with which this file was provided.
  14:Generated_Source\PSoC5/USB_std.c **** *******************************************************************************/
  15:Generated_Source\PSoC5/USB_std.c **** 
  16:Generated_Source\PSoC5/USB_std.c **** #include "USB_pvt.h"
  17:Generated_Source\PSoC5/USB_std.c **** 
  18:Generated_Source\PSoC5/USB_std.c **** /***************************************
  19:Generated_Source\PSoC5/USB_std.c **** *   Static data allocation
  20:Generated_Source\PSoC5/USB_std.c **** ***************************************/
  21:Generated_Source\PSoC5/USB_std.c **** 
  22:Generated_Source\PSoC5/USB_std.c **** #if defined(USB_ENABLE_FWSN_STRING)
  23:Generated_Source\PSoC5/USB_std.c ****     static volatile uint8* USB_fwSerialNumberStringDescriptor;
  24:Generated_Source\PSoC5/USB_std.c ****     static volatile uint8  USB_snStringConfirm = USB_FALSE;
  25:Generated_Source\PSoC5/USB_std.c **** #endif  /* (USB_ENABLE_FWSN_STRING) */
  26:Generated_Source\PSoC5/USB_std.c **** 
  27:Generated_Source\PSoC5/USB_std.c **** #if defined(USB_ENABLE_FWSN_STRING)
  28:Generated_Source\PSoC5/USB_std.c ****     /***************************************************************************
  29:Generated_Source\PSoC5/USB_std.c ****     * Function Name: USB_SerialNumString
  30:Generated_Source\PSoC5/USB_std.c ****     ************************************************************************//**
ARM GAS  C:\Users\Revanth\AppData\Local\Temp\cctCFyeS.s 			page 2


  31:Generated_Source\PSoC5/USB_std.c ****     *
  32:Generated_Source\PSoC5/USB_std.c ****     *  This function is available only when the User Call Back option in the 
  33:Generated_Source\PSoC5/USB_std.c ****     *  Serial Number String descriptor properties is selected. Application 
  34:Generated_Source\PSoC5/USB_std.c ****     *  firmware can provide the source of the USB device serial number string 
  35:Generated_Source\PSoC5/USB_std.c ****     *  descriptor during run time. The default string is used if the application 
  36:Generated_Source\PSoC5/USB_std.c ****     *  firmware does not use this function or sets the wrong string descriptor.
  37:Generated_Source\PSoC5/USB_std.c ****     *
  38:Generated_Source\PSoC5/USB_std.c ****     *  \param snString:  Pointer to the user-defined string descriptor. The 
  39:Generated_Source\PSoC5/USB_std.c ****     *  string descriptor should meet the Universal Serial Bus Specification 
  40:Generated_Source\PSoC5/USB_std.c ****     *  revision 2.0 chapter 9.6.7
  41:Generated_Source\PSoC5/USB_std.c ****     *  Offset|Size|Value|Description
  42:Generated_Source\PSoC5/USB_std.c ****     *  ------|----|------|---------------------------------
  43:Generated_Source\PSoC5/USB_std.c ****     *  0     |1   |N     |Size of this descriptor in bytes
  44:Generated_Source\PSoC5/USB_std.c ****     *  1     |1   |0x03  |STRING Descriptor Type
  45:Generated_Source\PSoC5/USB_std.c ****     *  2     |N-2 |Number|UNICODE encoded string
  46:Generated_Source\PSoC5/USB_std.c ****     *  
  47:Generated_Source\PSoC5/USB_std.c ****     * *For example:* uint8 snString[16]={0x0E,0x03,'F',0,'W',0,'S',0,'N',0,'0',0,'1',0};
  48:Generated_Source\PSoC5/USB_std.c ****     *
  49:Generated_Source\PSoC5/USB_std.c ****     * \reentrant
  50:Generated_Source\PSoC5/USB_std.c ****     *  No.
  51:Generated_Source\PSoC5/USB_std.c ****     *
  52:Generated_Source\PSoC5/USB_std.c ****     ***************************************************************************/
  53:Generated_Source\PSoC5/USB_std.c ****     void  USB_SerialNumString(uint8 snString[]) 
  54:Generated_Source\PSoC5/USB_std.c ****     {
  55:Generated_Source\PSoC5/USB_std.c ****         USB_snStringConfirm = USB_FALSE;
  56:Generated_Source\PSoC5/USB_std.c ****         
  57:Generated_Source\PSoC5/USB_std.c ****         if (snString != NULL)
  58:Generated_Source\PSoC5/USB_std.c ****         {
  59:Generated_Source\PSoC5/USB_std.c ****             /* Check descriptor validation */
  60:Generated_Source\PSoC5/USB_std.c ****             if ((snString[0u] > 1u) && (snString[1u] == USB_DESCR_STRING))
  61:Generated_Source\PSoC5/USB_std.c ****             {
  62:Generated_Source\PSoC5/USB_std.c ****                 USB_fwSerialNumberStringDescriptor = snString;
  63:Generated_Source\PSoC5/USB_std.c ****                 USB_snStringConfirm = USB_TRUE;
  64:Generated_Source\PSoC5/USB_std.c ****             }
  65:Generated_Source\PSoC5/USB_std.c ****         }
  66:Generated_Source\PSoC5/USB_std.c ****     }
  67:Generated_Source\PSoC5/USB_std.c **** #endif  /* USB_ENABLE_FWSN_STRING */
  68:Generated_Source\PSoC5/USB_std.c **** 
  69:Generated_Source\PSoC5/USB_std.c **** 
  70:Generated_Source\PSoC5/USB_std.c **** /*******************************************************************************
  71:Generated_Source\PSoC5/USB_std.c **** * Function Name: USB_HandleStandardRqst
  72:Generated_Source\PSoC5/USB_std.c **** ****************************************************************************//**
  73:Generated_Source\PSoC5/USB_std.c **** *
  74:Generated_Source\PSoC5/USB_std.c **** *  This Routine dispatches standard requests
  75:Generated_Source\PSoC5/USB_std.c **** *
  76:Generated_Source\PSoC5/USB_std.c **** *
  77:Generated_Source\PSoC5/USB_std.c **** * \return
  78:Generated_Source\PSoC5/USB_std.c **** *  TRUE if request handled.
  79:Generated_Source\PSoC5/USB_std.c **** *
  80:Generated_Source\PSoC5/USB_std.c **** * \reentrant
  81:Generated_Source\PSoC5/USB_std.c **** *  No.
  82:Generated_Source\PSoC5/USB_std.c **** *
  83:Generated_Source\PSoC5/USB_std.c **** *******************************************************************************/
  84:Generated_Source\PSoC5/USB_std.c **** uint8 USB_HandleStandardRqst(void) 
  85:Generated_Source\PSoC5/USB_std.c **** {
  86:Generated_Source\PSoC5/USB_std.c ****     uint8 requestHandled = USB_FALSE;
  87:Generated_Source\PSoC5/USB_std.c ****     uint8 interfaceNumber;
ARM GAS  C:\Users\Revanth\AppData\Local\Temp\cctCFyeS.s 			page 3


  88:Generated_Source\PSoC5/USB_std.c ****     uint8 configurationN;
  89:Generated_Source\PSoC5/USB_std.c ****     uint8 bmRequestType = USB_bmRequestTypeReg;
  90:Generated_Source\PSoC5/USB_std.c **** 
  91:Generated_Source\PSoC5/USB_std.c **** #if defined(USB_ENABLE_STRINGS)
  92:Generated_Source\PSoC5/USB_std.c ****     volatile uint8 *pStr = 0u;
  93:Generated_Source\PSoC5/USB_std.c ****     #if defined(USB_ENABLE_DESCRIPTOR_STRINGS)
  94:Generated_Source\PSoC5/USB_std.c ****         uint8 nStr;
  95:Generated_Source\PSoC5/USB_std.c ****         uint8 descrLength;
  96:Generated_Source\PSoC5/USB_std.c ****     #endif /* (USB_ENABLE_DESCRIPTOR_STRINGS) */
  97:Generated_Source\PSoC5/USB_std.c **** #endif /* (USB_ENABLE_STRINGS) */
  98:Generated_Source\PSoC5/USB_std.c ****     
  99:Generated_Source\PSoC5/USB_std.c ****     static volatile uint8 USB_tBuffer[USB_STATUS_LENGTH_MAX];
 100:Generated_Source\PSoC5/USB_std.c ****     const T_USB_LUT CYCODE *pTmp;
 101:Generated_Source\PSoC5/USB_std.c **** 
 102:Generated_Source\PSoC5/USB_std.c ****     USB_currentTD.count = 0u;
 103:Generated_Source\PSoC5/USB_std.c **** 
 104:Generated_Source\PSoC5/USB_std.c ****     if (USB_RQST_DIR_D2H == (bmRequestType & USB_RQST_DIR_MASK))
 105:Generated_Source\PSoC5/USB_std.c ****     {
 106:Generated_Source\PSoC5/USB_std.c ****         /* Control Read */
 107:Generated_Source\PSoC5/USB_std.c ****         switch (USB_bRequestReg)
 108:Generated_Source\PSoC5/USB_std.c ****         {
 109:Generated_Source\PSoC5/USB_std.c ****             case USB_GET_DESCRIPTOR:
 110:Generated_Source\PSoC5/USB_std.c ****                 if (USB_DESCR_DEVICE ==USB_wValueHiReg)
 111:Generated_Source\PSoC5/USB_std.c ****                 {
 112:Generated_Source\PSoC5/USB_std.c ****                     pTmp = USB_GetDeviceTablePtr();
 113:Generated_Source\PSoC5/USB_std.c ****                     USB_currentTD.pData = (volatile uint8 *)pTmp->p_list;
 114:Generated_Source\PSoC5/USB_std.c ****                     USB_currentTD.count = USB_DEVICE_DESCR_LENGTH;
 115:Generated_Source\PSoC5/USB_std.c ****                     
 116:Generated_Source\PSoC5/USB_std.c ****                     requestHandled  = USB_InitControlRead();
 117:Generated_Source\PSoC5/USB_std.c ****                 }
 118:Generated_Source\PSoC5/USB_std.c ****                 else if (USB_DESCR_CONFIG == USB_wValueHiReg)
 119:Generated_Source\PSoC5/USB_std.c ****                 {
 120:Generated_Source\PSoC5/USB_std.c ****                     pTmp = USB_GetConfigTablePtr((uint8) USB_wValueLoReg);
 121:Generated_Source\PSoC5/USB_std.c ****                     
 122:Generated_Source\PSoC5/USB_std.c ****                     /* Verify that requested descriptor exists */
 123:Generated_Source\PSoC5/USB_std.c ****                     if (pTmp != NULL)
 124:Generated_Source\PSoC5/USB_std.c ****                     {
 125:Generated_Source\PSoC5/USB_std.c ****                         USB_currentTD.pData = (volatile uint8 *)pTmp->p_list;
 126:Generated_Source\PSoC5/USB_std.c ****                         USB_currentTD.count = (uint16)((uint16)(USB_currentTD.pData)[USB_CONFIG_DES
 127:Generated_Source\PSoC5/USB_std.c ****                                                                             (USB_currentTD.pData)[U
 128:Generated_Source\PSoC5/USB_std.c ****                         requestHandled  = USB_InitControlRead();
 129:Generated_Source\PSoC5/USB_std.c ****                     }
 130:Generated_Source\PSoC5/USB_std.c ****                 }
 131:Generated_Source\PSoC5/USB_std.c ****                 
 132:Generated_Source\PSoC5/USB_std.c ****             #if(USB_BOS_ENABLE)
 133:Generated_Source\PSoC5/USB_std.c ****                 else if (USB_DESCR_BOS == USB_wValueHiReg)
 134:Generated_Source\PSoC5/USB_std.c ****                 {
 135:Generated_Source\PSoC5/USB_std.c ****                     pTmp = USB_GetBOSPtr();
 136:Generated_Source\PSoC5/USB_std.c ****                     
 137:Generated_Source\PSoC5/USB_std.c ****                     /* Verify that requested descriptor exists */
 138:Generated_Source\PSoC5/USB_std.c ****                     if (pTmp != NULL)
 139:Generated_Source\PSoC5/USB_std.c ****                     {
 140:Generated_Source\PSoC5/USB_std.c ****                         USB_currentTD.pData = (volatile uint8 *)pTmp;
 141:Generated_Source\PSoC5/USB_std.c ****                         USB_currentTD.count = ((uint16)((uint16)(USB_currentTD.pData)[USB_BOS_DESCR
 142:Generated_Source\PSoC5/USB_std.c ****                                                                              (USB_currentTD.pData)[
 143:Generated_Source\PSoC5/USB_std.c ****                         requestHandled  = USB_InitControlRead();
 144:Generated_Source\PSoC5/USB_std.c ****                     }
ARM GAS  C:\Users\Revanth\AppData\Local\Temp\cctCFyeS.s 			page 4


 145:Generated_Source\PSoC5/USB_std.c ****                 }
 146:Generated_Source\PSoC5/USB_std.c ****             #endif /*(USB_BOS_ENABLE)*/
 147:Generated_Source\PSoC5/USB_std.c ****             
 148:Generated_Source\PSoC5/USB_std.c ****             #if defined(USB_ENABLE_STRINGS)
 149:Generated_Source\PSoC5/USB_std.c ****                 else if (USB_DESCR_STRING == USB_wValueHiReg)
 150:Generated_Source\PSoC5/USB_std.c ****                 {
 151:Generated_Source\PSoC5/USB_std.c ****                 /* Descriptor Strings */
 152:Generated_Source\PSoC5/USB_std.c ****                 #if defined(USB_ENABLE_DESCRIPTOR_STRINGS)
 153:Generated_Source\PSoC5/USB_std.c ****                     nStr = 0u;
 154:Generated_Source\PSoC5/USB_std.c ****                     pStr = (volatile uint8 *) &USB_STRING_DESCRIPTORS[0u];
 155:Generated_Source\PSoC5/USB_std.c ****                     
 156:Generated_Source\PSoC5/USB_std.c ****                     while ((USB_wValueLoReg > nStr) && (*pStr != 0u))
 157:Generated_Source\PSoC5/USB_std.c ****                     {
 158:Generated_Source\PSoC5/USB_std.c ****                         /* Read descriptor length from 1st byte */
 159:Generated_Source\PSoC5/USB_std.c ****                         descrLength = *pStr;
 160:Generated_Source\PSoC5/USB_std.c ****                         /* Move to next string descriptor */
 161:Generated_Source\PSoC5/USB_std.c ****                         pStr = &pStr[descrLength];
 162:Generated_Source\PSoC5/USB_std.c ****                         nStr++;
 163:Generated_Source\PSoC5/USB_std.c ****                     }
 164:Generated_Source\PSoC5/USB_std.c ****                 #endif /* (USB_ENABLE_DESCRIPTOR_STRINGS) */
 165:Generated_Source\PSoC5/USB_std.c ****                 
 166:Generated_Source\PSoC5/USB_std.c ****                 /* Microsoft OS String */
 167:Generated_Source\PSoC5/USB_std.c ****                 #if defined(USB_ENABLE_MSOS_STRING)
 168:Generated_Source\PSoC5/USB_std.c ****                     if (USB_STRING_MSOS == USB_wValueLoReg)
 169:Generated_Source\PSoC5/USB_std.c ****                     {
 170:Generated_Source\PSoC5/USB_std.c ****                         pStr = (volatile uint8 *)& USB_MSOS_DESCRIPTOR[0u];
 171:Generated_Source\PSoC5/USB_std.c ****                     }
 172:Generated_Source\PSoC5/USB_std.c ****                 #endif /* (USB_ENABLE_MSOS_STRING) */
 173:Generated_Source\PSoC5/USB_std.c ****                 
 174:Generated_Source\PSoC5/USB_std.c ****                 /* SN string */
 175:Generated_Source\PSoC5/USB_std.c ****                 #if defined(USB_ENABLE_SN_STRING)
 176:Generated_Source\PSoC5/USB_std.c ****                     if ((USB_wValueLoReg != 0u) && 
 177:Generated_Source\PSoC5/USB_std.c ****                         (USB_wValueLoReg == USB_DEVICE0_DESCR[USB_DEVICE_DESCR_SN_SHIFT]))
 178:Generated_Source\PSoC5/USB_std.c ****                     {
 179:Generated_Source\PSoC5/USB_std.c ****                     #if defined(USB_ENABLE_IDSN_STRING)
 180:Generated_Source\PSoC5/USB_std.c ****                         /* Read DIE ID and generate string descriptor in RAM */
 181:Generated_Source\PSoC5/USB_std.c ****                         USB_ReadDieID(USB_idSerialNumberStringDescriptor);
 182:Generated_Source\PSoC5/USB_std.c ****                         pStr = USB_idSerialNumberStringDescriptor;
 183:Generated_Source\PSoC5/USB_std.c ****                     #elif defined(USB_ENABLE_FWSN_STRING)
 184:Generated_Source\PSoC5/USB_std.c ****                         
 185:Generated_Source\PSoC5/USB_std.c ****                         if(USB_snStringConfirm != USB_FALSE)
 186:Generated_Source\PSoC5/USB_std.c ****                         {
 187:Generated_Source\PSoC5/USB_std.c ****                             pStr = USB_fwSerialNumberStringDescriptor;
 188:Generated_Source\PSoC5/USB_std.c ****                         }
 189:Generated_Source\PSoC5/USB_std.c ****                         else
 190:Generated_Source\PSoC5/USB_std.c ****                         {
 191:Generated_Source\PSoC5/USB_std.c ****                             pStr = (volatile uint8 *)&USB_SN_STRING_DESCRIPTOR[0u];
 192:Generated_Source\PSoC5/USB_std.c ****                         }
 193:Generated_Source\PSoC5/USB_std.c ****                     #else
 194:Generated_Source\PSoC5/USB_std.c ****                         pStr = (volatile uint8 *)&USB_SN_STRING_DESCRIPTOR[0u];
 195:Generated_Source\PSoC5/USB_std.c ****                     #endif  /* (USB_ENABLE_IDSN_STRING) */
 196:Generated_Source\PSoC5/USB_std.c ****                     }
 197:Generated_Source\PSoC5/USB_std.c ****                 #endif /* (USB_ENABLE_SN_STRING) */
 198:Generated_Source\PSoC5/USB_std.c ****                 
 199:Generated_Source\PSoC5/USB_std.c ****                     if (*pStr != 0u)
 200:Generated_Source\PSoC5/USB_std.c ****                     {
 201:Generated_Source\PSoC5/USB_std.c ****                         USB_currentTD.count = *pStr;
ARM GAS  C:\Users\Revanth\AppData\Local\Temp\cctCFyeS.s 			page 5


 202:Generated_Source\PSoC5/USB_std.c ****                         USB_currentTD.pData = pStr;
 203:Generated_Source\PSoC5/USB_std.c ****                         requestHandled  = USB_InitControlRead();
 204:Generated_Source\PSoC5/USB_std.c ****                     }
 205:Generated_Source\PSoC5/USB_std.c ****                 }
 206:Generated_Source\PSoC5/USB_std.c ****             #endif /*  USB_ENABLE_STRINGS */
 207:Generated_Source\PSoC5/USB_std.c ****                 else
 208:Generated_Source\PSoC5/USB_std.c ****                 {
 209:Generated_Source\PSoC5/USB_std.c ****                     requestHandled = USB_DispatchClassRqst();
 210:Generated_Source\PSoC5/USB_std.c ****                 }
 211:Generated_Source\PSoC5/USB_std.c ****                 break;
 212:Generated_Source\PSoC5/USB_std.c ****                 
 213:Generated_Source\PSoC5/USB_std.c ****             case USB_GET_STATUS:
 214:Generated_Source\PSoC5/USB_std.c ****                 switch (bmRequestType & USB_RQST_RCPT_MASK)
 215:Generated_Source\PSoC5/USB_std.c ****                 {
 216:Generated_Source\PSoC5/USB_std.c ****                     case USB_RQST_RCPT_EP:
 217:Generated_Source\PSoC5/USB_std.c ****                         USB_currentTD.count = USB_EP_STATUS_LENGTH;
 218:Generated_Source\PSoC5/USB_std.c ****                         USB_tBuffer[0u]     = USB_EP[USB_wIndexLoReg & USB_DIR_UNUSED].hwEpState;
 219:Generated_Source\PSoC5/USB_std.c ****                         USB_tBuffer[1u]     = 0u;
 220:Generated_Source\PSoC5/USB_std.c ****                         USB_currentTD.pData = &USB_tBuffer[0u];
 221:Generated_Source\PSoC5/USB_std.c ****                         
 222:Generated_Source\PSoC5/USB_std.c ****                         requestHandled  = USB_InitControlRead();
 223:Generated_Source\PSoC5/USB_std.c ****                         break;
 224:Generated_Source\PSoC5/USB_std.c ****                     case USB_RQST_RCPT_DEV:
 225:Generated_Source\PSoC5/USB_std.c ****                         USB_currentTD.count = USB_DEVICE_STATUS_LENGTH;
 226:Generated_Source\PSoC5/USB_std.c ****                         USB_tBuffer[0u]     = USB_deviceStatus;
 227:Generated_Source\PSoC5/USB_std.c ****                         USB_tBuffer[1u]     = 0u;
 228:Generated_Source\PSoC5/USB_std.c ****                         USB_currentTD.pData = &USB_tBuffer[0u];
 229:Generated_Source\PSoC5/USB_std.c ****                         
 230:Generated_Source\PSoC5/USB_std.c ****                         requestHandled  = USB_InitControlRead();
 231:Generated_Source\PSoC5/USB_std.c ****                         break;
 232:Generated_Source\PSoC5/USB_std.c ****                     default:    /* requestHandled is initialized as FALSE by default */
 233:Generated_Source\PSoC5/USB_std.c ****                         break;
 234:Generated_Source\PSoC5/USB_std.c ****                 }
 235:Generated_Source\PSoC5/USB_std.c ****                 break;
 236:Generated_Source\PSoC5/USB_std.c ****                 
 237:Generated_Source\PSoC5/USB_std.c ****             case USB_GET_CONFIGURATION:
 238:Generated_Source\PSoC5/USB_std.c ****                 USB_currentTD.count = 1u;
 239:Generated_Source\PSoC5/USB_std.c ****                 USB_currentTD.pData = (volatile uint8 *) &USB_configuration;
 240:Generated_Source\PSoC5/USB_std.c ****                 requestHandled  = USB_InitControlRead();
 241:Generated_Source\PSoC5/USB_std.c ****                 break;
 242:Generated_Source\PSoC5/USB_std.c ****                 
 243:Generated_Source\PSoC5/USB_std.c ****             case USB_GET_INTERFACE:
 244:Generated_Source\PSoC5/USB_std.c ****                 USB_currentTD.count = 1u;
 245:Generated_Source\PSoC5/USB_std.c ****                 USB_currentTD.pData = (volatile uint8 *) &USB_interfaceSetting[USB_wIndexLoReg];
 246:Generated_Source\PSoC5/USB_std.c ****                 requestHandled  = USB_InitControlRead();
 247:Generated_Source\PSoC5/USB_std.c ****                 break;
 248:Generated_Source\PSoC5/USB_std.c ****                 
 249:Generated_Source\PSoC5/USB_std.c ****             default: /* requestHandled is initialized as FALSE by default */
 250:Generated_Source\PSoC5/USB_std.c ****                 break;
 251:Generated_Source\PSoC5/USB_std.c ****         }
 252:Generated_Source\PSoC5/USB_std.c ****     }
 253:Generated_Source\PSoC5/USB_std.c ****     else
 254:Generated_Source\PSoC5/USB_std.c ****     {
 255:Generated_Source\PSoC5/USB_std.c ****         /* Control Write */
 256:Generated_Source\PSoC5/USB_std.c ****         switch (USB_bRequestReg)
 257:Generated_Source\PSoC5/USB_std.c ****         {
 258:Generated_Source\PSoC5/USB_std.c ****             case USB_SET_ADDRESS:
ARM GAS  C:\Users\Revanth\AppData\Local\Temp\cctCFyeS.s 			page 6


 259:Generated_Source\PSoC5/USB_std.c ****                 /* Store address to be set in USB_NoDataControlStatusStage(). */
 260:Generated_Source\PSoC5/USB_std.c ****                 USB_deviceAddress = (uint8) USB_wValueLoReg;
 261:Generated_Source\PSoC5/USB_std.c ****                 requestHandled = USB_InitNoDataControlTransfer();
 262:Generated_Source\PSoC5/USB_std.c ****                 break;
 263:Generated_Source\PSoC5/USB_std.c ****                 
 264:Generated_Source\PSoC5/USB_std.c ****             case USB_SET_CONFIGURATION:
 265:Generated_Source\PSoC5/USB_std.c ****                 configurationN = USB_wValueLoReg;
 266:Generated_Source\PSoC5/USB_std.c ****                 
 267:Generated_Source\PSoC5/USB_std.c ****                 /* Verify that configuration descriptor exists */
 268:Generated_Source\PSoC5/USB_std.c ****                 if(configurationN > 0u)
 269:Generated_Source\PSoC5/USB_std.c ****                 {
 270:Generated_Source\PSoC5/USB_std.c ****                     pTmp = USB_GetConfigTablePtr((uint8) configurationN - 1u);
 271:Generated_Source\PSoC5/USB_std.c ****                 }
 272:Generated_Source\PSoC5/USB_std.c ****                 
 273:Generated_Source\PSoC5/USB_std.c ****                 /* Responds with a Request Error when configuration number is invalid */
 274:Generated_Source\PSoC5/USB_std.c ****                 if (((configurationN > 0u) && (pTmp != NULL)) || (configurationN == 0u))
 275:Generated_Source\PSoC5/USB_std.c ****                 {
 276:Generated_Source\PSoC5/USB_std.c ****                     /* Set new configuration if it has been changed */
 277:Generated_Source\PSoC5/USB_std.c ****                     if(configurationN != USB_configuration)
 278:Generated_Source\PSoC5/USB_std.c ****                     {
 279:Generated_Source\PSoC5/USB_std.c ****                         USB_configuration = (uint8) configurationN;
 280:Generated_Source\PSoC5/USB_std.c ****                         USB_configurationChanged = USB_TRUE;
 281:Generated_Source\PSoC5/USB_std.c ****                         USB_Config(USB_TRUE);
 282:Generated_Source\PSoC5/USB_std.c ****                     }
 283:Generated_Source\PSoC5/USB_std.c ****                     requestHandled = USB_InitNoDataControlTransfer();
 284:Generated_Source\PSoC5/USB_std.c ****                 }
 285:Generated_Source\PSoC5/USB_std.c ****                 break;
 286:Generated_Source\PSoC5/USB_std.c ****                 
 287:Generated_Source\PSoC5/USB_std.c ****             case USB_SET_INTERFACE:
 288:Generated_Source\PSoC5/USB_std.c ****                 if (0u != USB_ValidateAlternateSetting())
 289:Generated_Source\PSoC5/USB_std.c ****                 {
 290:Generated_Source\PSoC5/USB_std.c ****                     /* Get interface number from the request. */
 291:Generated_Source\PSoC5/USB_std.c ****                     interfaceNumber = USB_wIndexLoReg;
 292:Generated_Source\PSoC5/USB_std.c ****                     USB_interfaceNumber = (uint8) USB_wIndexLoReg;
 293:Generated_Source\PSoC5/USB_std.c ****                      
 294:Generated_Source\PSoC5/USB_std.c ****                     /* Check if alternate settings is changed for interface. */
 295:Generated_Source\PSoC5/USB_std.c ****                     if (USB_interfaceSettingLast[interfaceNumber] != USB_interfaceSetting[interface
 296:Generated_Source\PSoC5/USB_std.c ****                     {
 297:Generated_Source\PSoC5/USB_std.c ****                         USB_configurationChanged = USB_TRUE;
 298:Generated_Source\PSoC5/USB_std.c ****                     
 299:Generated_Source\PSoC5/USB_std.c ****                         /* Change alternate setting for the endpoints. */
 300:Generated_Source\PSoC5/USB_std.c ****                     #if (USB_EP_MANAGEMENT_MANUAL && USB_EP_ALLOC_DYNAMIC)
 301:Generated_Source\PSoC5/USB_std.c ****                         USB_Config(USB_FALSE);
 302:Generated_Source\PSoC5/USB_std.c ****                     #else
 303:Generated_Source\PSoC5/USB_std.c ****                         USB_ConfigAltChanged();
 304:Generated_Source\PSoC5/USB_std.c ****                     #endif /* (USB_EP_MANAGEMENT_MANUAL && USB_EP_ALLOC_DYNAMIC) */
 305:Generated_Source\PSoC5/USB_std.c ****                     }
 306:Generated_Source\PSoC5/USB_std.c ****                     
 307:Generated_Source\PSoC5/USB_std.c ****                     requestHandled = USB_InitNoDataControlTransfer();
 308:Generated_Source\PSoC5/USB_std.c ****                 }
 309:Generated_Source\PSoC5/USB_std.c ****                 break;
 310:Generated_Source\PSoC5/USB_std.c ****                 
 311:Generated_Source\PSoC5/USB_std.c ****             case USB_CLEAR_FEATURE:
 312:Generated_Source\PSoC5/USB_std.c ****                 switch (bmRequestType & USB_RQST_RCPT_MASK)
 313:Generated_Source\PSoC5/USB_std.c ****                 {
 314:Generated_Source\PSoC5/USB_std.c ****                     case USB_RQST_RCPT_EP:
 315:Generated_Source\PSoC5/USB_std.c ****                         if (USB_wValueLoReg == USB_ENDPOINT_HALT)
ARM GAS  C:\Users\Revanth\AppData\Local\Temp\cctCFyeS.s 			page 7


 316:Generated_Source\PSoC5/USB_std.c ****                         {
 317:Generated_Source\PSoC5/USB_std.c ****                             requestHandled = USB_ClearEndpointHalt();
 318:Generated_Source\PSoC5/USB_std.c ****                         }
 319:Generated_Source\PSoC5/USB_std.c ****                         break;
 320:Generated_Source\PSoC5/USB_std.c ****                     case USB_RQST_RCPT_DEV:
 321:Generated_Source\PSoC5/USB_std.c ****                         /* Clear device REMOTE_WAKEUP */
 322:Generated_Source\PSoC5/USB_std.c ****                         if (USB_wValueLoReg == USB_DEVICE_REMOTE_WAKEUP)
 323:Generated_Source\PSoC5/USB_std.c ****                         {
 324:Generated_Source\PSoC5/USB_std.c ****                             USB_deviceStatus &= (uint8)~USB_DEVICE_STATUS_REMOTE_WAKEUP;
 325:Generated_Source\PSoC5/USB_std.c ****                             requestHandled = USB_InitNoDataControlTransfer();
 326:Generated_Source\PSoC5/USB_std.c ****                         }
 327:Generated_Source\PSoC5/USB_std.c ****                         break;
 328:Generated_Source\PSoC5/USB_std.c ****                     case USB_RQST_RCPT_IFC:
 329:Generated_Source\PSoC5/USB_std.c ****                         /* Validate interfaceNumber */
 330:Generated_Source\PSoC5/USB_std.c ****                         if (USB_wIndexLoReg < USB_MAX_INTERFACES_NUMBER)
 331:Generated_Source\PSoC5/USB_std.c ****                         {
 332:Generated_Source\PSoC5/USB_std.c ****                             USB_interfaceStatus[USB_wIndexLoReg] &= (uint8) ~USB_wValueLoReg;
 333:Generated_Source\PSoC5/USB_std.c ****                             requestHandled = USB_InitNoDataControlTransfer();
 334:Generated_Source\PSoC5/USB_std.c ****                         }
 335:Generated_Source\PSoC5/USB_std.c ****                         break;
 336:Generated_Source\PSoC5/USB_std.c ****                     default:    /* requestHandled is initialized as FALSE by default */
 337:Generated_Source\PSoC5/USB_std.c ****                         break;
 338:Generated_Source\PSoC5/USB_std.c ****                 }
 339:Generated_Source\PSoC5/USB_std.c ****                 break;
 340:Generated_Source\PSoC5/USB_std.c ****                 
 341:Generated_Source\PSoC5/USB_std.c ****             case USB_SET_FEATURE:
 342:Generated_Source\PSoC5/USB_std.c ****                 switch (bmRequestType & USB_RQST_RCPT_MASK)
 343:Generated_Source\PSoC5/USB_std.c ****                 {
 344:Generated_Source\PSoC5/USB_std.c ****                     case USB_RQST_RCPT_EP:
 345:Generated_Source\PSoC5/USB_std.c ****                         if (USB_wValueLoReg == USB_ENDPOINT_HALT)
 346:Generated_Source\PSoC5/USB_std.c ****                         {
 347:Generated_Source\PSoC5/USB_std.c ****                             requestHandled = USB_SetEndpointHalt();
 348:Generated_Source\PSoC5/USB_std.c ****                         }
 349:Generated_Source\PSoC5/USB_std.c ****                         break;
 350:Generated_Source\PSoC5/USB_std.c ****                         
 351:Generated_Source\PSoC5/USB_std.c ****                     case USB_RQST_RCPT_DEV:
 352:Generated_Source\PSoC5/USB_std.c ****                         /* Set device REMOTE_WAKEUP */
 353:Generated_Source\PSoC5/USB_std.c ****                         if (USB_wValueLoReg == USB_DEVICE_REMOTE_WAKEUP)
 354:Generated_Source\PSoC5/USB_std.c ****                         {
 355:Generated_Source\PSoC5/USB_std.c ****                             USB_deviceStatus |= USB_DEVICE_STATUS_REMOTE_WAKEUP;
 356:Generated_Source\PSoC5/USB_std.c ****                             requestHandled = USB_InitNoDataControlTransfer();
 357:Generated_Source\PSoC5/USB_std.c ****                         }
 358:Generated_Source\PSoC5/USB_std.c ****                         break;
 359:Generated_Source\PSoC5/USB_std.c ****                         
 360:Generated_Source\PSoC5/USB_std.c ****                     case USB_RQST_RCPT_IFC:
 361:Generated_Source\PSoC5/USB_std.c ****                         /* Validate interfaceNumber */
 362:Generated_Source\PSoC5/USB_std.c ****                         if (USB_wIndexLoReg < USB_MAX_INTERFACES_NUMBER)
 363:Generated_Source\PSoC5/USB_std.c ****                         {
 364:Generated_Source\PSoC5/USB_std.c ****                             USB_interfaceStatus[USB_wIndexLoReg] &= (uint8) ~USB_wValueLoReg;
 365:Generated_Source\PSoC5/USB_std.c ****                             requestHandled = USB_InitNoDataControlTransfer();
 366:Generated_Source\PSoC5/USB_std.c ****                         }
 367:Generated_Source\PSoC5/USB_std.c ****                         break;
 368:Generated_Source\PSoC5/USB_std.c ****                     
 369:Generated_Source\PSoC5/USB_std.c ****                     default:    /* requestHandled is initialized as FALSE by default */
 370:Generated_Source\PSoC5/USB_std.c ****                         break;
 371:Generated_Source\PSoC5/USB_std.c ****                 }
 372:Generated_Source\PSoC5/USB_std.c ****                 break;
ARM GAS  C:\Users\Revanth\AppData\Local\Temp\cctCFyeS.s 			page 8


 373:Generated_Source\PSoC5/USB_std.c ****                 
 374:Generated_Source\PSoC5/USB_std.c ****             default:    /* requestHandled is initialized as FALSE by default */
 375:Generated_Source\PSoC5/USB_std.c ****                 break;
 376:Generated_Source\PSoC5/USB_std.c ****         }
 377:Generated_Source\PSoC5/USB_std.c ****     }
 378:Generated_Source\PSoC5/USB_std.c ****     
 379:Generated_Source\PSoC5/USB_std.c ****     return (requestHandled);
 380:Generated_Source\PSoC5/USB_std.c **** }
 381:Generated_Source\PSoC5/USB_std.c **** 
 382:Generated_Source\PSoC5/USB_std.c **** 
 383:Generated_Source\PSoC5/USB_std.c **** #if defined(USB_ENABLE_IDSN_STRING)
 384:Generated_Source\PSoC5/USB_std.c ****     /***************************************************************************
 385:Generated_Source\PSoC5/USB_std.c ****     * Function Name: USB_ReadDieID
 386:Generated_Source\PSoC5/USB_std.c ****     ************************************************************************//**
 387:Generated_Source\PSoC5/USB_std.c ****     *
 388:Generated_Source\PSoC5/USB_std.c ****     *  This routine read Die ID and generate Serial Number string descriptor.
 389:Generated_Source\PSoC5/USB_std.c ****     *
 390:Generated_Source\PSoC5/USB_std.c ****     *  \param descr:  pointer on string descriptor. This string size has to be equal or
 391:Generated_Source\PSoC5/USB_std.c ****     *          greater than USB_IDSN_DESCR_LENGTH.
 392:Generated_Source\PSoC5/USB_std.c ****     *
 393:Generated_Source\PSoC5/USB_std.c ****     *
 394:Generated_Source\PSoC5/USB_std.c ****     * \reentrant
 395:Generated_Source\PSoC5/USB_std.c ****     *  No.
 396:Generated_Source\PSoC5/USB_std.c ****     *
 397:Generated_Source\PSoC5/USB_std.c ****     ***************************************************************************/
 398:Generated_Source\PSoC5/USB_std.c ****     void USB_ReadDieID(uint8 descr[]) 
 399:Generated_Source\PSoC5/USB_std.c ****     {
  28              		.loc 1 399 0
  29              		.cfi_startproc
  30              		@ args = 0, pretend = 0, frame = 32
  31              		@ frame_needed = 0, uses_anonymous_args = 0
  32              	.LVL0:
  33 0000 70B5     		push	{r4, r5, r6, lr}
  34              		.cfi_def_cfa_offset 16
  35              		.cfi_offset 4, -16
  36              		.cfi_offset 5, -12
  37              		.cfi_offset 6, -8
  38              		.cfi_offset 14, -4
  39 0002 88B0     		sub	sp, sp, #32
  40              		.cfi_def_cfa_offset 48
  41 0004 0546     		mov	r5, r0
 400:Generated_Source\PSoC5/USB_std.c ****         const char8 CYCODE hex[] = "0123456789ABCDEF";
  42              		.loc 1 400 0
  43 0006 03AC     		add	r4, sp, #12
  44 0008 174E     		ldr	r6, .L6
  45 000a 0FCE     		ldmia	r6!, {r0, r1, r2, r3}
  46              	.LVL1:
  47 000c 0FC4     		stmia	r4!, {r0, r1, r2, r3}
  48 000e 3368     		ldr	r3, [r6]
  49 0010 2370     		strb	r3, [r4]
  50              	.LVL2:
 401:Generated_Source\PSoC5/USB_std.c ****         uint8 i;
 402:Generated_Source\PSoC5/USB_std.c ****         uint8 j = 0u;
 403:Generated_Source\PSoC5/USB_std.c ****         uint8 uniqueId[8u];
 404:Generated_Source\PSoC5/USB_std.c **** 
 405:Generated_Source\PSoC5/USB_std.c ****         if (NULL != descr)
  51              		.loc 1 405 0
ARM GAS  C:\Users\Revanth\AppData\Local\Temp\cctCFyeS.s 			page 9


  52 0012 35B3     		cbz	r5, .L1
 406:Generated_Source\PSoC5/USB_std.c ****         {
 407:Generated_Source\PSoC5/USB_std.c ****             /* Initialize descriptor header. */
 408:Generated_Source\PSoC5/USB_std.c ****             descr[0u] = USB_IDSN_DESCR_LENGTH;
  53              		.loc 1 408 0
  54 0014 2223     		movs	r3, #34
  55 0016 2B70     		strb	r3, [r5]
 409:Generated_Source\PSoC5/USB_std.c ****             descr[1u] = USB_DESCR_STRING;
  56              		.loc 1 409 0
  57 0018 0323     		movs	r3, #3
  58 001a 6B70     		strb	r3, [r5, #1]
 410:Generated_Source\PSoC5/USB_std.c ****             
 411:Generated_Source\PSoC5/USB_std.c ****             /* Unique ID size is 8 bytes. */
 412:Generated_Source\PSoC5/USB_std.c ****             CyGetUniqueId((uint32 *) uniqueId);
  59              		.loc 1 412 0
  60 001c 01A8     		add	r0, sp, #4
  61 001e FFF7FEFF 		bl	CyGetUniqueId
  62              	.LVL3:
 402:Generated_Source\PSoC5/USB_std.c ****         uint8 uniqueId[8u];
  63              		.loc 1 402 0
  64 0022 0024     		movs	r4, #0
 413:Generated_Source\PSoC5/USB_std.c **** 
 414:Generated_Source\PSoC5/USB_std.c ****             /* Fill descriptor with unique device ID. */
 415:Generated_Source\PSoC5/USB_std.c ****             for (i = 2u; i < USB_IDSN_DESCR_LENGTH; i += 4u)
  65              		.loc 1 415 0
  66 0024 0223     		movs	r3, #2
  67 0026 1AE0     		b	.L3
  68              	.LVL4:
  69              	.L4:
 416:Generated_Source\PSoC5/USB_std.c ****             {
 417:Generated_Source\PSoC5/USB_std.c ****                 descr[i]      = (uint8) hex[(uniqueId[j] >> 4u)];
  70              		.loc 1 417 0 discriminator 3
  71 0028 08AA     		add	r2, sp, #32
  72 002a 2244     		add	r2, r2, r4
  73 002c 12F81C2C 		ldrb	r2, [r2, #-28]	@ zero_extendqisi2
  74 0030 08A9     		add	r1, sp, #32
  75 0032 01EB1211 		add	r1, r1, r2, lsr #4
  76 0036 11F8141C 		ldrb	r1, [r1, #-20]	@ zero_extendqisi2
  77 003a E954     		strb	r1, [r5, r3]
 418:Generated_Source\PSoC5/USB_std.c ****                 descr[i + 1u] = 0u;
  78              		.loc 1 418 0 discriminator 3
  79 003c 581C     		adds	r0, r3, #1
  80 003e 0021     		movs	r1, #0
  81 0040 2954     		strb	r1, [r5, r0]
 419:Generated_Source\PSoC5/USB_std.c ****                 descr[i + 2u] = (uint8) hex[(uniqueId[j] & 0x0Fu)];
  82              		.loc 1 419 0 discriminator 3
  83 0042 981C     		adds	r0, r3, #2
  84 0044 02F00F02 		and	r2, r2, #15
  85 0048 08AE     		add	r6, sp, #32
  86 004a 3244     		add	r2, r2, r6
  87 004c 12F8142C 		ldrb	r2, [r2, #-20]	@ zero_extendqisi2
  88 0050 2A54     		strb	r2, [r5, r0]
 420:Generated_Source\PSoC5/USB_std.c ****                 descr[i + 3u] = 0u;
  89              		.loc 1 420 0 discriminator 3
  90 0052 DA1C     		adds	r2, r3, #3
  91 0054 A954     		strb	r1, [r5, r2]
 421:Generated_Source\PSoC5/USB_std.c ****                 ++j;
ARM GAS  C:\Users\Revanth\AppData\Local\Temp\cctCFyeS.s 			page 10


  92              		.loc 1 421 0 discriminator 3
  93 0056 0134     		adds	r4, r4, #1
  94              	.LVL5:
  95 0058 E4B2     		uxtb	r4, r4
  96              	.LVL6:
 415:Generated_Source\PSoC5/USB_std.c ****             {
  97              		.loc 1 415 0 discriminator 3
  98 005a 0433     		adds	r3, r3, #4
  99              	.LVL7:
 100 005c DBB2     		uxtb	r3, r3
 101              	.LVL8:
 102              	.L3:
 415:Generated_Source\PSoC5/USB_std.c ****             {
 103              		.loc 1 415 0 is_stmt 0 discriminator 1
 104 005e 212B     		cmp	r3, #33
 105 0060 E2D9     		bls	.L4
 106              	.LVL9:
 107              	.L1:
 422:Generated_Source\PSoC5/USB_std.c ****             }
 423:Generated_Source\PSoC5/USB_std.c ****         }
 424:Generated_Source\PSoC5/USB_std.c ****     }
 108              		.loc 1 424 0 is_stmt 1
 109 0062 08B0     		add	sp, sp, #32
 110              		.cfi_def_cfa_offset 16
 111              		@ sp needed
 112 0064 70BD     		pop	{r4, r5, r6, pc}
 113              	.LVL10:
 114              	.L7:
 115 0066 00BF     		.align	2
 116              	.L6:
 117 0068 00000000 		.word	.LC0
 118              		.cfi_endproc
 119              	.LFE1:
 120              		.size	USB_ReadDieID, .-USB_ReadDieID
 121              		.section	.text.USB_ConfigReg,"ax",%progbits
 122              		.align	2
 123              		.global	USB_ConfigReg
 124              		.thumb
 125              		.thumb_func
 126              		.type	USB_ConfigReg, %function
 127              	USB_ConfigReg:
 128              	.LFB2:
 425:Generated_Source\PSoC5/USB_std.c **** #endif /* (USB_ENABLE_IDSN_STRING) */
 426:Generated_Source\PSoC5/USB_std.c **** 
 427:Generated_Source\PSoC5/USB_std.c **** 
 428:Generated_Source\PSoC5/USB_std.c **** /*******************************************************************************
 429:Generated_Source\PSoC5/USB_std.c **** * Function Name: USB_ConfigReg
 430:Generated_Source\PSoC5/USB_std.c **** ****************************************************************************//**
 431:Generated_Source\PSoC5/USB_std.c **** *
 432:Generated_Source\PSoC5/USB_std.c **** *  This routine configures hardware registers from the variables.
 433:Generated_Source\PSoC5/USB_std.c **** *  It is called from USB_Config() function and from RestoreConfig
 434:Generated_Source\PSoC5/USB_std.c **** *  after Wakeup.
 435:Generated_Source\PSoC5/USB_std.c **** *
 436:Generated_Source\PSoC5/USB_std.c **** *******************************************************************************/
 437:Generated_Source\PSoC5/USB_std.c **** void USB_ConfigReg(void) 
 438:Generated_Source\PSoC5/USB_std.c **** {
 129              		.loc 1 438 0
ARM GAS  C:\Users\Revanth\AppData\Local\Temp\cctCFyeS.s 			page 11


 130              		.cfi_startproc
 131              		@ args = 0, pretend = 0, frame = 0
 132              		@ frame_needed = 0, uses_anonymous_args = 0
 133              		@ link register save eliminated.
 134 0000 10B4     		push	{r4}
 135              		.cfi_def_cfa_offset 4
 136              		.cfi_offset 4, -4
 137              	.LVL11:
 439:Generated_Source\PSoC5/USB_std.c ****     uint8 ep;
 440:Generated_Source\PSoC5/USB_std.c **** 
 441:Generated_Source\PSoC5/USB_std.c **** #if (USB_EP_MANAGEMENT_DMA_AUTO)
 442:Generated_Source\PSoC5/USB_std.c ****     uint8 epType = 0u;
 443:Generated_Source\PSoC5/USB_std.c **** #endif /* (USB_EP_MANAGEMENT_DMA_AUTO) */
 444:Generated_Source\PSoC5/USB_std.c **** 
 445:Generated_Source\PSoC5/USB_std.c ****     /* Go thought all endpoints and set hardware configuration */
 446:Generated_Source\PSoC5/USB_std.c ****     for (ep = USB_EP1; ep < USB_MAX_EP; ++ep)
 138              		.loc 1 446 0
 139 0002 0123     		movs	r3, #1
 140 0004 3EE0     		b	.L9
 141              	.LVL12:
 142              	.L13:
 447:Generated_Source\PSoC5/USB_std.c ****     {
 448:Generated_Source\PSoC5/USB_std.c ****         USB_ARB_EP_BASE.arbEp[ep].epCfg = USB_ARB_EPX_CFG_DEFAULT;
 143              		.loc 1 448 0
 144 0006 1946     		mov	r1, r3
 145 0008 1A01     		lsls	r2, r3, #4
 146 000a 0C24     		movs	r4, #12
 147 000c 2148     		ldr	r0, .L15
 148 000e 8454     		strb	r4, [r0, r2]
 449:Generated_Source\PSoC5/USB_std.c ****         
 450:Generated_Source\PSoC5/USB_std.c ****     #if (USB_EP_MANAGEMENT_DMA)
 451:Generated_Source\PSoC5/USB_std.c ****         /* Enable arbiter endpoint interrupt sources */
 452:Generated_Source\PSoC5/USB_std.c ****         USB_ARB_EP_BASE.arbEp[ep].epIntEn = USB_ARB_EPX_INT_MASK;
 453:Generated_Source\PSoC5/USB_std.c ****     #endif /* (USB_EP_MANAGEMENT_DMA) */
 454:Generated_Source\PSoC5/USB_std.c ****     
 455:Generated_Source\PSoC5/USB_std.c ****         if (USB_EP[ep].epMode != USB_MODE_DISABLE)
 149              		.loc 1 455 0
 150 0010 03EB4300 		add	r0, r3, r3, lsl #1
 151 0014 8200     		lsls	r2, r0, #2
 152 0016 2048     		ldr	r0, .L15+4
 153 0018 0244     		add	r2, r2, r0
 154 001a 5279     		ldrb	r2, [r2, #5]	@ zero_extendqisi2
 155 001c 12F0FF0F 		tst	r2, #255
 156 0020 13D0     		beq	.L10
 456:Generated_Source\PSoC5/USB_std.c ****         {
 457:Generated_Source\PSoC5/USB_std.c ****             if (0u != (USB_EP[ep].addr & USB_DIR_IN))
 157              		.loc 1 457 0
 158 0022 03EB4300 		add	r0, r3, r3, lsl #1
 159 0026 8200     		lsls	r2, r0, #2
 160 0028 1B48     		ldr	r0, .L15+4
 161 002a 0244     		add	r2, r2, r0
 162 002c 1279     		ldrb	r2, [r2, #4]	@ zero_extendqisi2
 163 002e 12F0800F 		tst	r2, #128
 164 0032 04D0     		beq	.L11
 458:Generated_Source\PSoC5/USB_std.c ****             {
 459:Generated_Source\PSoC5/USB_std.c ****                 USB_SIE_EP_BASE.sieEp[ep].epCr0 = USB_MODE_NAK_IN;
 165              		.loc 1 459 0
ARM GAS  C:\Users\Revanth\AppData\Local\Temp\cctCFyeS.s 			page 12


 166 0034 1801     		lsls	r0, r3, #4
 167 0036 194A     		ldr	r2, .L15+8
 168 0038 0244     		add	r2, r2, r0
 169 003a 9470     		strb	r4, [r2, #2]
 170 003c 0AE0     		b	.L12
 171              	.L11:
 460:Generated_Source\PSoC5/USB_std.c ****                 
 461:Generated_Source\PSoC5/USB_std.c ****             #if (USB_EP_MANAGEMENT_DMA_AUTO && CY_PSOC4)
 462:Generated_Source\PSoC5/USB_std.c ****                 /* Clear DMA_TERMIN for IN endpoint. */
 463:Generated_Source\PSoC5/USB_std.c ****                 USB_ARB_EP_BASE.arbEp[ep].epIntEn &= (uint32) ~USB_ARB_EPX_INT_DMA_TERMIN;
 464:Generated_Source\PSoC5/USB_std.c ****             #endif /* (USB_EP_MANAGEMENT_DMA_AUTO && CY_PSOC4) */
 465:Generated_Source\PSoC5/USB_std.c ****             }
 466:Generated_Source\PSoC5/USB_std.c ****             else
 467:Generated_Source\PSoC5/USB_std.c ****             {
 468:Generated_Source\PSoC5/USB_std.c ****                 USB_SIE_EP_BASE.sieEp[ep].epCr0 = USB_MODE_NAK_OUT;
 172              		.loc 1 468 0
 173 003e 1801     		lsls	r0, r3, #4
 174 0040 164A     		ldr	r2, .L15+8
 175 0042 0244     		add	r2, r2, r0
 176 0044 0820     		movs	r0, #8
 177 0046 9070     		strb	r0, [r2, #2]
 178 0048 04E0     		b	.L12
 179              	.L10:
 469:Generated_Source\PSoC5/USB_std.c **** 
 470:Generated_Source\PSoC5/USB_std.c ****             #if (USB_EP_MANAGEMENT_DMA_AUTO)
 471:Generated_Source\PSoC5/USB_std.c ****                 /* (CY_PSOC4): DMA_TERMIN for OUT endpoint is set above. */
 472:Generated_Source\PSoC5/USB_std.c ****                 
 473:Generated_Source\PSoC5/USB_std.c ****                 /* Prepare endpoint type mask. */
 474:Generated_Source\PSoC5/USB_std.c ****                 epType |= (uint8) (0x01u << (ep - USB_EP1));
 475:Generated_Source\PSoC5/USB_std.c ****             #endif /* (USB_EP_MANAGEMENT_DMA_AUTO) */
 476:Generated_Source\PSoC5/USB_std.c ****             }
 477:Generated_Source\PSoC5/USB_std.c ****         }
 478:Generated_Source\PSoC5/USB_std.c ****         else
 479:Generated_Source\PSoC5/USB_std.c ****         {
 480:Generated_Source\PSoC5/USB_std.c ****             USB_SIE_EP_BASE.sieEp[ep].epCr0 = USB_MODE_STALL_DATA_EP;
 180              		.loc 1 480 0
 181 004a 1801     		lsls	r0, r3, #4
 182 004c 134A     		ldr	r2, .L15+8
 183 004e 0244     		add	r2, r2, r0
 184 0050 8020     		movs	r0, #128
 185 0052 9070     		strb	r0, [r2, #2]
 186              	.L12:
 481:Generated_Source\PSoC5/USB_std.c ****         }
 482:Generated_Source\PSoC5/USB_std.c ****         
 483:Generated_Source\PSoC5/USB_std.c ****     #if (!USB_EP_MANAGEMENT_DMA_AUTO)
 484:Generated_Source\PSoC5/USB_std.c ****         #if (CY_PSOC4)
 485:Generated_Source\PSoC5/USB_std.c ****             USB_ARB_EP16_BASE.arbEp[ep].rwRa16  = (uint32) USB_EP[ep].buffOffset;
 486:Generated_Source\PSoC5/USB_std.c ****             USB_ARB_EP16_BASE.arbEp[ep].rwWa16  = (uint32) USB_EP[ep].buffOffset;
 487:Generated_Source\PSoC5/USB_std.c ****         #else
 488:Generated_Source\PSoC5/USB_std.c ****             USB_ARB_EP_BASE.arbEp[ep].rwRa    = LO8(USB_EP[ep].buffOffset);
 187              		.loc 1 488 0 discriminator 2
 188 0054 4800     		lsls	r0, r1, #1
 189 0056 0844     		add	r0, r0, r1
 190 0058 8200     		lsls	r2, r0, #2
 191 005a 0F48     		ldr	r0, .L15+4
 192 005c 0244     		add	r2, r2, r0
 193 005e D488     		ldrh	r4, [r2, #6]
ARM GAS  C:\Users\Revanth\AppData\Local\Temp\cctCFyeS.s 			page 13


 194 0060 E4B2     		uxtb	r4, r4
 195 0062 0801     		lsls	r0, r1, #4
 196 0064 0B49     		ldr	r1, .L15
 197 0066 0144     		add	r1, r1, r0
 198 0068 8C71     		strb	r4, [r1, #6]
 489:Generated_Source\PSoC5/USB_std.c ****             USB_ARB_EP_BASE.arbEp[ep].rwRaMsb = HI8(USB_EP[ep].buffOffset);
 199              		.loc 1 489 0 discriminator 2
 200 006a D088     		ldrh	r0, [r2, #6]
 201 006c C0F30720 		ubfx	r0, r0, #8, #8
 202 0070 C871     		strb	r0, [r1, #7]
 490:Generated_Source\PSoC5/USB_std.c ****             USB_ARB_EP_BASE.arbEp[ep].rwWa    = LO8(USB_EP[ep].buffOffset);
 203              		.loc 1 490 0 discriminator 2
 204 0072 D088     		ldrh	r0, [r2, #6]
 205 0074 C0B2     		uxtb	r0, r0
 206 0076 0871     		strb	r0, [r1, #4]
 491:Generated_Source\PSoC5/USB_std.c ****             USB_ARB_EP_BASE.arbEp[ep].rwWaMsb = HI8(USB_EP[ep].buffOffset);
 207              		.loc 1 491 0 discriminator 2
 208 0078 D288     		ldrh	r2, [r2, #6]
 209 007a C2F30722 		ubfx	r2, r2, #8, #8
 210 007e 4A71     		strb	r2, [r1, #5]
 446:Generated_Source\PSoC5/USB_std.c ****     {
 211              		.loc 1 446 0 discriminator 2
 212 0080 0133     		adds	r3, r3, #1
 213              	.LVL13:
 214 0082 DBB2     		uxtb	r3, r3
 215              	.LVL14:
 216              	.L9:
 446:Generated_Source\PSoC5/USB_std.c ****     {
 217              		.loc 1 446 0 is_stmt 0 discriminator 1
 218 0084 082B     		cmp	r3, #8
 219 0086 BED9     		bls	.L13
 492:Generated_Source\PSoC5/USB_std.c ****         #endif /* (CY_PSOC4) */
 493:Generated_Source\PSoC5/USB_std.c ****     #endif /* (!USB_EP_MANAGEMENT_DMA_AUTO) */
 494:Generated_Source\PSoC5/USB_std.c ****     }
 495:Generated_Source\PSoC5/USB_std.c **** 
 496:Generated_Source\PSoC5/USB_std.c **** #if (USB_EP_MANAGEMENT_DMA_AUTO)
 497:Generated_Source\PSoC5/USB_std.c ****      /* BUF_SIZE depend on DMA_THRESS value:0x55-32 bytes  0x44-16 bytes 0x33-8 bytes 0x22-4 bytes 
 498:Generated_Source\PSoC5/USB_std.c ****     USB_BUF_SIZE_REG = USB_DMA_BUF_SIZE;
 499:Generated_Source\PSoC5/USB_std.c **** 
 500:Generated_Source\PSoC5/USB_std.c ****     /* Configure DMA burst threshold */
 501:Generated_Source\PSoC5/USB_std.c **** #if (CY_PSOC4)
 502:Generated_Source\PSoC5/USB_std.c ****     USB_DMA_THRES16_REG   = USB_DMA_BYTES_PER_BURST;
 503:Generated_Source\PSoC5/USB_std.c **** #else
 504:Generated_Source\PSoC5/USB_std.c ****     USB_DMA_THRES_REG     = USB_DMA_BYTES_PER_BURST;
 505:Generated_Source\PSoC5/USB_std.c ****     USB_DMA_THRES_MSB_REG = 0u;
 506:Generated_Source\PSoC5/USB_std.c **** #endif /* (CY_PSOC4) */
 507:Generated_Source\PSoC5/USB_std.c ****     USB_EP_ACTIVE_REG = USB_DEFAULT_ARB_INT_EN;
 508:Generated_Source\PSoC5/USB_std.c ****     USB_EP_TYPE_REG   = epType;
 509:Generated_Source\PSoC5/USB_std.c ****     
 510:Generated_Source\PSoC5/USB_std.c ****     /* Cfg_cmp bit set to 1 once configuration is complete. */
 511:Generated_Source\PSoC5/USB_std.c ****     /* Lock arbiter configtuation */
 512:Generated_Source\PSoC5/USB_std.c ****     USB_ARB_CFG_REG |= (uint8)  USB_ARB_CFG_CFG_CMP;
 513:Generated_Source\PSoC5/USB_std.c ****     /* Cfg_cmp bit set to 0 during configuration of PFSUSB Registers. */
 514:Generated_Source\PSoC5/USB_std.c ****     USB_ARB_CFG_REG &= (uint8) ~USB_ARB_CFG_CFG_CMP;
 515:Generated_Source\PSoC5/USB_std.c **** 
 516:Generated_Source\PSoC5/USB_std.c **** #endif /* (USB_EP_MANAGEMENT_DMA_AUTO) */
 517:Generated_Source\PSoC5/USB_std.c **** 
ARM GAS  C:\Users\Revanth\AppData\Local\Temp\cctCFyeS.s 			page 14


 518:Generated_Source\PSoC5/USB_std.c ****     /* Enable interrupt SIE interurpt source from EP0-EP1 */
 519:Generated_Source\PSoC5/USB_std.c ****     USB_SIE_EP_INT_EN_REG = (uint8) USB_DEFAULT_SIE_EP_INT_EN;
 220              		.loc 1 519 0 is_stmt 1
 221 0088 FF22     		movs	r2, #255
 222 008a 054B     		ldr	r3, .L15+12
 223              	.LVL15:
 224 008c 1A70     		strb	r2, [r3]
 520:Generated_Source\PSoC5/USB_std.c **** }
 225              		.loc 1 520 0
 226 008e 10BC     		pop	{r4}
 227              		.cfi_restore 4
 228              		.cfi_def_cfa_offset 0
 229 0090 7047     		bx	lr
 230              	.L16:
 231 0092 00BF     		.align	2
 232              	.L15:
 233 0094 70600040 		.word	1073766512
 234 0098 00000000 		.word	USB_EP
 235 009c FC5F0040 		.word	1073766396
 236 00a0 0A600040 		.word	1073766410
 237              		.cfi_endproc
 238              	.LFE2:
 239              		.size	USB_ConfigReg, .-USB_ConfigReg
 240              		.section	.text.USB_EpStateInit,"ax",%progbits
 241              		.align	2
 242              		.global	USB_EpStateInit
 243              		.thumb
 244              		.thumb_func
 245              		.type	USB_EpStateInit, %function
 246              	USB_EpStateInit:
 247              	.LFB3:
 521:Generated_Source\PSoC5/USB_std.c **** 
 522:Generated_Source\PSoC5/USB_std.c **** 
 523:Generated_Source\PSoC5/USB_std.c **** /*******************************************************************************
 524:Generated_Source\PSoC5/USB_std.c **** * Function Name: USB_EpStateInit
 525:Generated_Source\PSoC5/USB_std.c **** ****************************************************************************//**
 526:Generated_Source\PSoC5/USB_std.c **** *
 527:Generated_Source\PSoC5/USB_std.c **** *  This routine initialize state of Data end points based of its type: 
 528:Generated_Source\PSoC5/USB_std.c **** *   IN  - USB_IN_BUFFER_EMPTY (USB_EVENT_PENDING)
 529:Generated_Source\PSoC5/USB_std.c **** *   OUT - USB_OUT_BUFFER_EMPTY (USB_NO_EVENT_PENDING)
 530:Generated_Source\PSoC5/USB_std.c **** *
 531:Generated_Source\PSoC5/USB_std.c **** *******************************************************************************/
 532:Generated_Source\PSoC5/USB_std.c **** void USB_EpStateInit(void) 
 533:Generated_Source\PSoC5/USB_std.c **** {
 248              		.loc 1 533 0
 249              		.cfi_startproc
 250              		@ args = 0, pretend = 0, frame = 0
 251              		@ frame_needed = 0, uses_anonymous_args = 0
 252              		@ link register save eliminated.
 253              	.LVL16:
 534:Generated_Source\PSoC5/USB_std.c ****     uint8 i;
 535:Generated_Source\PSoC5/USB_std.c **** 
 536:Generated_Source\PSoC5/USB_std.c ****     for (i = USB_EP1; i < USB_MAX_EP; i++)
 254              		.loc 1 536 0
 255 0000 0123     		movs	r3, #1
 256 0002 19E0     		b	.L18
 257              	.LVL17:
ARM GAS  C:\Users\Revanth\AppData\Local\Temp\cctCFyeS.s 			page 15


 258              	.L21:
 537:Generated_Source\PSoC5/USB_std.c ****     { 
 538:Generated_Source\PSoC5/USB_std.c ****         if (0u != (USB_EP[i].addr & USB_DIR_IN))
 259              		.loc 1 538 0
 260 0004 03EB4301 		add	r1, r3, r3, lsl #1
 261 0008 8A00     		lsls	r2, r1, #2
 262 000a 0D49     		ldr	r1, .L22
 263 000c 0A44     		add	r2, r2, r1
 264 000e 1279     		ldrb	r2, [r2, #4]	@ zero_extendqisi2
 265 0010 12F0800F 		tst	r2, #128
 266 0014 07D0     		beq	.L19
 539:Generated_Source\PSoC5/USB_std.c ****         {
 540:Generated_Source\PSoC5/USB_std.c ****             /* IN Endpoint */
 541:Generated_Source\PSoC5/USB_std.c ****             USB_EP[i].apiEpState = USB_EVENT_PENDING;
 267              		.loc 1 541 0
 268 0016 03EB4301 		add	r1, r3, r3, lsl #1
 269 001a 8A00     		lsls	r2, r1, #2
 270 001c 0849     		ldr	r1, .L22
 271 001e 0A44     		add	r2, r2, r1
 272 0020 0121     		movs	r1, #1
 273 0022 5170     		strb	r1, [r2, #1]
 274 0024 06E0     		b	.L20
 275              	.L19:
 542:Generated_Source\PSoC5/USB_std.c ****         }
 543:Generated_Source\PSoC5/USB_std.c ****         else
 544:Generated_Source\PSoC5/USB_std.c ****         {
 545:Generated_Source\PSoC5/USB_std.c ****             /* OUT Endpoint */
 546:Generated_Source\PSoC5/USB_std.c ****             USB_EP[i].apiEpState = USB_NO_EVENT_PENDING;
 276              		.loc 1 546 0
 277 0026 03EB4301 		add	r1, r3, r3, lsl #1
 278 002a 8A00     		lsls	r2, r1, #2
 279 002c 0449     		ldr	r1, .L22
 280 002e 0A44     		add	r2, r2, r1
 281 0030 0021     		movs	r1, #0
 282 0032 5170     		strb	r1, [r2, #1]
 283              	.L20:
 536:Generated_Source\PSoC5/USB_std.c ****     { 
 284              		.loc 1 536 0 discriminator 2
 285 0034 0133     		adds	r3, r3, #1
 286              	.LVL18:
 287 0036 DBB2     		uxtb	r3, r3
 288              	.LVL19:
 289              	.L18:
 536:Generated_Source\PSoC5/USB_std.c ****     { 
 290              		.loc 1 536 0 is_stmt 0 discriminator 1
 291 0038 082B     		cmp	r3, #8
 292 003a E3D9     		bls	.L21
 547:Generated_Source\PSoC5/USB_std.c ****         }
 548:Generated_Source\PSoC5/USB_std.c ****     }
 549:Generated_Source\PSoC5/USB_std.c ****                     
 550:Generated_Source\PSoC5/USB_std.c **** }
 293              		.loc 1 550 0 is_stmt 1
 294 003c 7047     		bx	lr
 295              	.L23:
 296 003e 00BF     		.align	2
 297              	.L22:
 298 0040 00000000 		.word	USB_EP
ARM GAS  C:\Users\Revanth\AppData\Local\Temp\cctCFyeS.s 			page 16


 299              		.cfi_endproc
 300              	.LFE3:
 301              		.size	USB_EpStateInit, .-USB_EpStateInit
 302              		.section	.text.USB_GetConfigTablePtr,"ax",%progbits
 303              		.align	2
 304              		.global	USB_GetConfigTablePtr
 305              		.thumb
 306              		.thumb_func
 307              		.type	USB_GetConfigTablePtr, %function
 308              	USB_GetConfigTablePtr:
 309              	.LFB6:
 551:Generated_Source\PSoC5/USB_std.c **** 
 552:Generated_Source\PSoC5/USB_std.c **** 
 553:Generated_Source\PSoC5/USB_std.c **** /*******************************************************************************
 554:Generated_Source\PSoC5/USB_std.c **** * Function Name: USB_Config
 555:Generated_Source\PSoC5/USB_std.c **** ****************************************************************************//**
 556:Generated_Source\PSoC5/USB_std.c **** *
 557:Generated_Source\PSoC5/USB_std.c **** *  This routine configures endpoints for the entire configuration by scanning
 558:Generated_Source\PSoC5/USB_std.c **** *  the configuration descriptor.
 559:Generated_Source\PSoC5/USB_std.c **** *
 560:Generated_Source\PSoC5/USB_std.c **** *  \param clearAltSetting: It configures the bAlternateSetting 0 for each interface.
 561:Generated_Source\PSoC5/USB_std.c **** *
 562:Generated_Source\PSoC5/USB_std.c **** * USB_interfaceClass - Initialized class array for each interface.
 563:Generated_Source\PSoC5/USB_std.c **** *   It is used for handling Class specific requests depend on interface class.
 564:Generated_Source\PSoC5/USB_std.c **** *   Different classes in multiple Alternate settings does not supported.
 565:Generated_Source\PSoC5/USB_std.c **** *
 566:Generated_Source\PSoC5/USB_std.c **** * \reentrant
 567:Generated_Source\PSoC5/USB_std.c **** *  No.
 568:Generated_Source\PSoC5/USB_std.c **** *
 569:Generated_Source\PSoC5/USB_std.c **** *******************************************************************************/
 570:Generated_Source\PSoC5/USB_std.c **** void USB_Config(uint8 clearAltSetting) 
 571:Generated_Source\PSoC5/USB_std.c **** {
 572:Generated_Source\PSoC5/USB_std.c ****     uint8 ep;
 573:Generated_Source\PSoC5/USB_std.c ****     uint8 curEp;
 574:Generated_Source\PSoC5/USB_std.c ****     uint8 i;
 575:Generated_Source\PSoC5/USB_std.c ****     uint8 epType;
 576:Generated_Source\PSoC5/USB_std.c ****     const uint8 *pDescr;
 577:Generated_Source\PSoC5/USB_std.c ****     
 578:Generated_Source\PSoC5/USB_std.c ****     #if (!USB_EP_MANAGEMENT_DMA_AUTO)
 579:Generated_Source\PSoC5/USB_std.c ****         uint16 buffCount = 0u;
 580:Generated_Source\PSoC5/USB_std.c ****     #endif /* (!USB_EP_MANAGEMENT_DMA_AUTO) */
 581:Generated_Source\PSoC5/USB_std.c **** 
 582:Generated_Source\PSoC5/USB_std.c ****     const T_USB_LUT CYCODE *pTmp;
 583:Generated_Source\PSoC5/USB_std.c ****     const T_USB_EP_SETTINGS_BLOCK CYCODE *pEP;
 584:Generated_Source\PSoC5/USB_std.c **** 
 585:Generated_Source\PSoC5/USB_std.c ****     /* Clear endpoints settings */
 586:Generated_Source\PSoC5/USB_std.c ****     for (ep = 0u; ep < USB_MAX_EP; ++ep)
 587:Generated_Source\PSoC5/USB_std.c ****     {
 588:Generated_Source\PSoC5/USB_std.c ****         USB_EP[ep].attrib     = 0u;
 589:Generated_Source\PSoC5/USB_std.c ****         USB_EP[ep].hwEpState  = 0u;
 590:Generated_Source\PSoC5/USB_std.c ****         USB_EP[ep].epToggle   = 0u;
 591:Generated_Source\PSoC5/USB_std.c ****         USB_EP[ep].bufferSize = 0u;
 592:Generated_Source\PSoC5/USB_std.c ****         USB_EP[ep].interface  = 0u;
 593:Generated_Source\PSoC5/USB_std.c ****         USB_EP[ep].apiEpState = USB_NO_EVENT_PENDING;
 594:Generated_Source\PSoC5/USB_std.c ****         USB_EP[ep].epMode     = USB_MODE_DISABLE;   
 595:Generated_Source\PSoC5/USB_std.c ****     }
 596:Generated_Source\PSoC5/USB_std.c **** 
ARM GAS  C:\Users\Revanth\AppData\Local\Temp\cctCFyeS.s 			page 17


 597:Generated_Source\PSoC5/USB_std.c ****     /* Clear Alternate settings for all interfaces. */
 598:Generated_Source\PSoC5/USB_std.c ****     if (0u != clearAltSetting)
 599:Generated_Source\PSoC5/USB_std.c ****     {
 600:Generated_Source\PSoC5/USB_std.c ****         for (i = 0u; i < USB_MAX_INTERFACES_NUMBER; ++i)
 601:Generated_Source\PSoC5/USB_std.c ****         {
 602:Generated_Source\PSoC5/USB_std.c ****             USB_interfaceSetting[i]     = 0u;
 603:Generated_Source\PSoC5/USB_std.c ****             USB_interfaceSettingLast[i] = 0u;
 604:Generated_Source\PSoC5/USB_std.c ****         }
 605:Generated_Source\PSoC5/USB_std.c ****     }
 606:Generated_Source\PSoC5/USB_std.c **** 
 607:Generated_Source\PSoC5/USB_std.c ****     /* Init Endpoints and Device Status if configured */
 608:Generated_Source\PSoC5/USB_std.c ****     if (USB_configuration > 0u)
 609:Generated_Source\PSoC5/USB_std.c ****     {
 610:Generated_Source\PSoC5/USB_std.c ****         #if defined(USB_ENABLE_CDC_CLASS)
 611:Generated_Source\PSoC5/USB_std.c ****             uint8 cdcComNums = 0u;
 612:Generated_Source\PSoC5/USB_std.c ****         #endif  /* (USB_ENABLE_CDC_CLASS) */  
 613:Generated_Source\PSoC5/USB_std.c **** 
 614:Generated_Source\PSoC5/USB_std.c ****         pTmp = USB_GetConfigTablePtr(USB_configuration - 1u);
 615:Generated_Source\PSoC5/USB_std.c ****         
 616:Generated_Source\PSoC5/USB_std.c ****         /* Set Power status for current configuration */
 617:Generated_Source\PSoC5/USB_std.c ****         pDescr = (const uint8 *)pTmp->p_list;
 618:Generated_Source\PSoC5/USB_std.c ****         if ((pDescr[USB_CONFIG_DESCR_ATTRIB] & USB_CONFIG_DESCR_ATTRIB_SELF_POWERED) != 0u)
 619:Generated_Source\PSoC5/USB_std.c ****         {
 620:Generated_Source\PSoC5/USB_std.c ****             USB_deviceStatus |= (uint8)  USB_DEVICE_STATUS_SELF_POWERED;
 621:Generated_Source\PSoC5/USB_std.c ****         }
 622:Generated_Source\PSoC5/USB_std.c ****         else
 623:Generated_Source\PSoC5/USB_std.c ****         {
 624:Generated_Source\PSoC5/USB_std.c ****             USB_deviceStatus &= (uint8) ~USB_DEVICE_STATUS_SELF_POWERED;
 625:Generated_Source\PSoC5/USB_std.c ****         }
 626:Generated_Source\PSoC5/USB_std.c ****         
 627:Generated_Source\PSoC5/USB_std.c ****         /* Move to next element */
 628:Generated_Source\PSoC5/USB_std.c ****         pTmp = &pTmp[1u];
 629:Generated_Source\PSoC5/USB_std.c ****         ep = pTmp->c;  /* For this table, c is the number of endpoints configurations  */
 630:Generated_Source\PSoC5/USB_std.c **** 
 631:Generated_Source\PSoC5/USB_std.c ****         #if (USB_EP_MANAGEMENT_MANUAL && USB_EP_ALLOC_DYNAMIC)
 632:Generated_Source\PSoC5/USB_std.c ****             /* Configure for dynamic EP memory allocation */
 633:Generated_Source\PSoC5/USB_std.c ****             /* p_list points the endpoint setting table. */
 634:Generated_Source\PSoC5/USB_std.c ****             pEP = (T_USB_EP_SETTINGS_BLOCK *) pTmp->p_list;
 635:Generated_Source\PSoC5/USB_std.c ****             
 636:Generated_Source\PSoC5/USB_std.c ****             for (i = 0u; i < ep; i++)
 637:Generated_Source\PSoC5/USB_std.c ****             {     
 638:Generated_Source\PSoC5/USB_std.c ****                 /* Compare current Alternate setting with EP Alt */
 639:Generated_Source\PSoC5/USB_std.c ****                 if (USB_interfaceSetting[pEP->interface] == pEP->altSetting)
 640:Generated_Source\PSoC5/USB_std.c ****                 {                                                          
 641:Generated_Source\PSoC5/USB_std.c ****                     curEp  = pEP->addr & USB_DIR_UNUSED;
 642:Generated_Source\PSoC5/USB_std.c ****                     epType = pEP->attributes & USB_EP_TYPE_MASK;
 643:Generated_Source\PSoC5/USB_std.c ****                     
 644:Generated_Source\PSoC5/USB_std.c ****                     USB_EP[curEp].addr       = pEP->addr;
 645:Generated_Source\PSoC5/USB_std.c ****                     USB_EP[curEp].attrib     = pEP->attributes;
 646:Generated_Source\PSoC5/USB_std.c ****                     USB_EP[curEp].bufferSize = pEP->bufferSize;
 647:Generated_Source\PSoC5/USB_std.c **** 
 648:Generated_Source\PSoC5/USB_std.c ****                     if (0u != (pEP->addr & USB_DIR_IN))
 649:Generated_Source\PSoC5/USB_std.c ****                     {
 650:Generated_Source\PSoC5/USB_std.c ****                         /* IN Endpoint */
 651:Generated_Source\PSoC5/USB_std.c ****                         USB_EP[curEp].epMode     = USB_GET_ACTIVE_IN_EP_CR0_MODE(epType);
 652:Generated_Source\PSoC5/USB_std.c ****                         USB_EP[curEp].apiEpState = USB_EVENT_PENDING;
 653:Generated_Source\PSoC5/USB_std.c ****                     
ARM GAS  C:\Users\Revanth\AppData\Local\Temp\cctCFyeS.s 			page 18


 654:Generated_Source\PSoC5/USB_std.c ****                     #if (defined(USB_ENABLE_MIDI_STREAMING) && (USB_MIDI_IN_BUFF_SIZE > 0))
 655:Generated_Source\PSoC5/USB_std.c ****                         if ((pEP->bMisc == USB_CLASS_AUDIO) && (epType == USB_EP_TYPE_BULK))
 656:Generated_Source\PSoC5/USB_std.c ****                         {
 657:Generated_Source\PSoC5/USB_std.c ****                             USB_midi_in_ep = curEp;
 658:Generated_Source\PSoC5/USB_std.c ****                         }
 659:Generated_Source\PSoC5/USB_std.c ****                     #endif  /* (USB_ENABLE_MIDI_STREAMING) */
 660:Generated_Source\PSoC5/USB_std.c ****                     }
 661:Generated_Source\PSoC5/USB_std.c ****                     else
 662:Generated_Source\PSoC5/USB_std.c ****                     {
 663:Generated_Source\PSoC5/USB_std.c ****                         /* OUT Endpoint */
 664:Generated_Source\PSoC5/USB_std.c ****                         USB_EP[curEp].epMode     = USB_GET_ACTIVE_OUT_EP_CR0_MODE(epType);
 665:Generated_Source\PSoC5/USB_std.c ****                         USB_EP[curEp].apiEpState = USB_NO_EVENT_PENDING;
 666:Generated_Source\PSoC5/USB_std.c ****                         
 667:Generated_Source\PSoC5/USB_std.c ****                     #if (defined(USB_ENABLE_MIDI_STREAMING) && (USB_MIDI_OUT_BUFF_SIZE > 0))
 668:Generated_Source\PSoC5/USB_std.c ****                         if ((pEP->bMisc == USB_CLASS_AUDIO) && (epType == USB_EP_TYPE_BULK))
 669:Generated_Source\PSoC5/USB_std.c ****                         {
 670:Generated_Source\PSoC5/USB_std.c ****                             USB_midi_out_ep = curEp;
 671:Generated_Source\PSoC5/USB_std.c ****                         }
 672:Generated_Source\PSoC5/USB_std.c ****                     #endif  /* (USB_ENABLE_MIDI_STREAMING) */
 673:Generated_Source\PSoC5/USB_std.c ****                     }
 674:Generated_Source\PSoC5/USB_std.c **** 
 675:Generated_Source\PSoC5/USB_std.c ****                 #if(defined (USB_ENABLE_CDC_CLASS))
 676:Generated_Source\PSoC5/USB_std.c ****                     if((pEP->bMisc == USB_CLASS_CDC_DATA) ||(pEP->bMisc == USB_CLASS_CDC))
 677:Generated_Source\PSoC5/USB_std.c ****                     {
 678:Generated_Source\PSoC5/USB_std.c ****                         cdcComNums = USB_Cdc_EpInit(pEP, curEp, cdcComNums);
 679:Generated_Source\PSoC5/USB_std.c ****                     }
 680:Generated_Source\PSoC5/USB_std.c ****                 #endif  /* (USB_ENABLE_CDC_CLASS) */
 681:Generated_Source\PSoC5/USB_std.c ****                 }
 682:Generated_Source\PSoC5/USB_std.c ****                 
 683:Generated_Source\PSoC5/USB_std.c ****                 pEP = &pEP[1u];
 684:Generated_Source\PSoC5/USB_std.c ****             }
 685:Generated_Source\PSoC5/USB_std.c ****             
 686:Generated_Source\PSoC5/USB_std.c ****         #else
 687:Generated_Source\PSoC5/USB_std.c ****             for (i = USB_EP1; i < USB_MAX_EP; ++i)
 688:Generated_Source\PSoC5/USB_std.c ****             {
 689:Generated_Source\PSoC5/USB_std.c ****                 /* p_list points the endpoint setting table. */
 690:Generated_Source\PSoC5/USB_std.c ****                 pEP = (const T_USB_EP_SETTINGS_BLOCK CYCODE *) pTmp->p_list;
 691:Generated_Source\PSoC5/USB_std.c ****                 /* Find max length for each EP and select it (length could be different in differen
 692:Generated_Source\PSoC5/USB_std.c ****                 /* but other settings should be correct with regards to Interface alt Setting */
 693:Generated_Source\PSoC5/USB_std.c ****                 
 694:Generated_Source\PSoC5/USB_std.c ****                 for (curEp = 0u; curEp < ep; ++curEp)
 695:Generated_Source\PSoC5/USB_std.c ****                 {
 696:Generated_Source\PSoC5/USB_std.c ****                     if (i == (pEP->addr & USB_DIR_UNUSED))
 697:Generated_Source\PSoC5/USB_std.c ****                     {
 698:Generated_Source\PSoC5/USB_std.c ****                         /* Compare endpoint buffers size with current size to find greater. */
 699:Generated_Source\PSoC5/USB_std.c ****                         if (USB_EP[i].bufferSize < pEP->bufferSize)
 700:Generated_Source\PSoC5/USB_std.c ****                         {
 701:Generated_Source\PSoC5/USB_std.c ****                             USB_EP[i].bufferSize = pEP->bufferSize;
 702:Generated_Source\PSoC5/USB_std.c ****                         }
 703:Generated_Source\PSoC5/USB_std.c ****                         
 704:Generated_Source\PSoC5/USB_std.c ****                         /* Compare current Alternate setting with EP Alt */
 705:Generated_Source\PSoC5/USB_std.c ****                         if (USB_interfaceSetting[pEP->interface] == pEP->altSetting)
 706:Generated_Source\PSoC5/USB_std.c ****                         {                            
 707:Generated_Source\PSoC5/USB_std.c ****                             USB_EP[i].addr = pEP->addr;
 708:Generated_Source\PSoC5/USB_std.c ****                             USB_EP[i].attrib = pEP->attributes;
 709:Generated_Source\PSoC5/USB_std.c ****                             
 710:Generated_Source\PSoC5/USB_std.c ****                             epType = pEP->attributes & USB_EP_TYPE_MASK;
ARM GAS  C:\Users\Revanth\AppData\Local\Temp\cctCFyeS.s 			page 19


 711:Generated_Source\PSoC5/USB_std.c ****                             
 712:Generated_Source\PSoC5/USB_std.c ****                             if (0u != (pEP->addr & USB_DIR_IN))
 713:Generated_Source\PSoC5/USB_std.c ****                             {
 714:Generated_Source\PSoC5/USB_std.c ****                                 /* IN Endpoint */
 715:Generated_Source\PSoC5/USB_std.c ****                                 USB_EP[i].epMode     = USB_GET_ACTIVE_IN_EP_CR0_MODE(epType);
 716:Generated_Source\PSoC5/USB_std.c ****                                 USB_EP[i].apiEpState = USB_EVENT_PENDING;
 717:Generated_Source\PSoC5/USB_std.c ****                                 
 718:Generated_Source\PSoC5/USB_std.c ****                             #if (defined(USB_ENABLE_MIDI_STREAMING) && (USB_MIDI_IN_BUFF_SIZE > 0))
 719:Generated_Source\PSoC5/USB_std.c ****                                 if ((pEP->bMisc == USB_CLASS_AUDIO) && (epType == USB_EP_TYPE_BULK)
 720:Generated_Source\PSoC5/USB_std.c ****                                 {
 721:Generated_Source\PSoC5/USB_std.c ****                                     USB_midi_in_ep = i;
 722:Generated_Source\PSoC5/USB_std.c ****                                 }
 723:Generated_Source\PSoC5/USB_std.c ****                             #endif  /* (USB_ENABLE_MIDI_STREAMING) */
 724:Generated_Source\PSoC5/USB_std.c ****                             }
 725:Generated_Source\PSoC5/USB_std.c ****                             else
 726:Generated_Source\PSoC5/USB_std.c ****                             {
 727:Generated_Source\PSoC5/USB_std.c ****                                 /* OUT Endpoint */
 728:Generated_Source\PSoC5/USB_std.c ****                                 USB_EP[i].epMode     = USB_GET_ACTIVE_OUT_EP_CR0_MODE(epType);
 729:Generated_Source\PSoC5/USB_std.c ****                                 USB_EP[i].apiEpState = USB_NO_EVENT_PENDING;
 730:Generated_Source\PSoC5/USB_std.c ****                                 
 731:Generated_Source\PSoC5/USB_std.c ****                             #if (defined(USB_ENABLE_MIDI_STREAMING) && (USB_MIDI_OUT_BUFF_SIZE > 0)
 732:Generated_Source\PSoC5/USB_std.c ****                                 if ((pEP->bMisc == USB_CLASS_AUDIO) && (epType == USB_EP_TYPE_BULK)
 733:Generated_Source\PSoC5/USB_std.c ****                                 {
 734:Generated_Source\PSoC5/USB_std.c ****                                     USB_midi_out_ep = i;
 735:Generated_Source\PSoC5/USB_std.c ****                                 }
 736:Generated_Source\PSoC5/USB_std.c ****                             #endif  /* (USB_ENABLE_MIDI_STREAMING) */
 737:Generated_Source\PSoC5/USB_std.c ****                             }
 738:Generated_Source\PSoC5/USB_std.c **** 
 739:Generated_Source\PSoC5/USB_std.c ****                         #if (defined(USB_ENABLE_CDC_CLASS))
 740:Generated_Source\PSoC5/USB_std.c ****                             if((pEP->bMisc == USB_CLASS_CDC_DATA) ||(pEP->bMisc == USB_CLASS_CDC))
 741:Generated_Source\PSoC5/USB_std.c ****                             {
 742:Generated_Source\PSoC5/USB_std.c ****                                 cdcComNums = USB_Cdc_EpInit(pEP, i, cdcComNums);
 743:Generated_Source\PSoC5/USB_std.c ****                             }
 744:Generated_Source\PSoC5/USB_std.c ****                         #endif  /* (USB_ENABLE_CDC_CLASS) */
 745:Generated_Source\PSoC5/USB_std.c **** 
 746:Generated_Source\PSoC5/USB_std.c ****                             #if (USB_EP_MANAGEMENT_DMA_AUTO)
 747:Generated_Source\PSoC5/USB_std.c ****                                 break;  /* Use first EP setting in Auto memory management */
 748:Generated_Source\PSoC5/USB_std.c ****                             #endif /* (USB_EP_MANAGEMENT_DMA_AUTO) */
 749:Generated_Source\PSoC5/USB_std.c ****                         }
 750:Generated_Source\PSoC5/USB_std.c ****                     }
 751:Generated_Source\PSoC5/USB_std.c ****                     
 752:Generated_Source\PSoC5/USB_std.c ****                     pEP = &pEP[1u];
 753:Generated_Source\PSoC5/USB_std.c ****                 }
 754:Generated_Source\PSoC5/USB_std.c ****             }
 755:Generated_Source\PSoC5/USB_std.c ****         #endif /*  (USB_EP_MANAGEMENT_MANUAL && USB_EP_ALLOC_DYNAMIC) */
 756:Generated_Source\PSoC5/USB_std.c **** 
 757:Generated_Source\PSoC5/USB_std.c ****         /* Init class array for each interface and interface number for each EP.
 758:Generated_Source\PSoC5/USB_std.c ****         *  It is used for handling Class specific requests directed to either an
 759:Generated_Source\PSoC5/USB_std.c ****         *  interface or the endpoint.
 760:Generated_Source\PSoC5/USB_std.c ****         */
 761:Generated_Source\PSoC5/USB_std.c ****         /* p_list points the endpoint setting table. */
 762:Generated_Source\PSoC5/USB_std.c ****         pEP = (const T_USB_EP_SETTINGS_BLOCK CYCODE *) pTmp->p_list;
 763:Generated_Source\PSoC5/USB_std.c ****         for (i = 0u; i < ep; i++)
 764:Generated_Source\PSoC5/USB_std.c ****         {
 765:Generated_Source\PSoC5/USB_std.c ****             /* Configure interface number for each EP */
 766:Generated_Source\PSoC5/USB_std.c ****             USB_EP[pEP->addr & USB_DIR_UNUSED].interface = pEP->interface;
 767:Generated_Source\PSoC5/USB_std.c ****             pEP = &pEP[1u];
ARM GAS  C:\Users\Revanth\AppData\Local\Temp\cctCFyeS.s 			page 20


 768:Generated_Source\PSoC5/USB_std.c ****         }
 769:Generated_Source\PSoC5/USB_std.c ****         
 770:Generated_Source\PSoC5/USB_std.c ****         /* Init pointer on interface class table */
 771:Generated_Source\PSoC5/USB_std.c ****         USB_interfaceClass = USB_GetInterfaceClassTablePtr();
 772:Generated_Source\PSoC5/USB_std.c ****         
 773:Generated_Source\PSoC5/USB_std.c ****     /* Set the endpoint buffer addresses */
 774:Generated_Source\PSoC5/USB_std.c ****     #if (!USB_EP_MANAGEMENT_DMA_AUTO)
 775:Generated_Source\PSoC5/USB_std.c ****         buffCount = 0u;
 776:Generated_Source\PSoC5/USB_std.c ****         for (ep = USB_EP1; ep < USB_MAX_EP; ++ep)
 777:Generated_Source\PSoC5/USB_std.c ****         {
 778:Generated_Source\PSoC5/USB_std.c ****             USB_EP[ep].buffOffset = buffCount;        
 779:Generated_Source\PSoC5/USB_std.c ****             buffCount += USB_EP[ep].bufferSize;
 780:Generated_Source\PSoC5/USB_std.c ****             
 781:Generated_Source\PSoC5/USB_std.c ****         #if (USB_GEN_16BITS_EP_ACCESS)
 782:Generated_Source\PSoC5/USB_std.c ****             /* Align EP buffers to be event size to access 16-bits DR register. */
 783:Generated_Source\PSoC5/USB_std.c ****             buffCount += (0u != (buffCount & 0x01u)) ? 1u : 0u;
 784:Generated_Source\PSoC5/USB_std.c ****         #endif /* (USB_GEN_16BITS_EP_ACCESS) */            
 785:Generated_Source\PSoC5/USB_std.c ****         }
 786:Generated_Source\PSoC5/USB_std.c ****     #endif /* (!USB_EP_MANAGEMENT_DMA_AUTO) */
 787:Generated_Source\PSoC5/USB_std.c **** 
 788:Generated_Source\PSoC5/USB_std.c ****         /* Configure hardware registers */
 789:Generated_Source\PSoC5/USB_std.c ****         USB_ConfigReg();
 790:Generated_Source\PSoC5/USB_std.c ****     }
 791:Generated_Source\PSoC5/USB_std.c **** }
 792:Generated_Source\PSoC5/USB_std.c **** 
 793:Generated_Source\PSoC5/USB_std.c **** 
 794:Generated_Source\PSoC5/USB_std.c **** /*******************************************************************************
 795:Generated_Source\PSoC5/USB_std.c **** * Function Name: USB_ConfigAltChanged
 796:Generated_Source\PSoC5/USB_std.c **** ****************************************************************************//**
 797:Generated_Source\PSoC5/USB_std.c **** *
 798:Generated_Source\PSoC5/USB_std.c **** *  This routine update configuration for the required endpoints only.
 799:Generated_Source\PSoC5/USB_std.c **** *  It is called after SET_INTERFACE request when Static memory allocation used.
 800:Generated_Source\PSoC5/USB_std.c **** *
 801:Generated_Source\PSoC5/USB_std.c **** * \reentrant
 802:Generated_Source\PSoC5/USB_std.c **** *  No.
 803:Generated_Source\PSoC5/USB_std.c **** *
 804:Generated_Source\PSoC5/USB_std.c **** *******************************************************************************/
 805:Generated_Source\PSoC5/USB_std.c **** void USB_ConfigAltChanged(void) 
 806:Generated_Source\PSoC5/USB_std.c **** {
 807:Generated_Source\PSoC5/USB_std.c ****     uint8 ep;
 808:Generated_Source\PSoC5/USB_std.c ****     uint8 curEp;
 809:Generated_Source\PSoC5/USB_std.c ****     uint8 epType;
 810:Generated_Source\PSoC5/USB_std.c ****     uint8 i;
 811:Generated_Source\PSoC5/USB_std.c ****     uint8 interfaceNum;
 812:Generated_Source\PSoC5/USB_std.c **** 
 813:Generated_Source\PSoC5/USB_std.c ****     const T_USB_LUT CYCODE *pTmp;
 814:Generated_Source\PSoC5/USB_std.c ****     const T_USB_EP_SETTINGS_BLOCK CYCODE *pEP;
 815:Generated_Source\PSoC5/USB_std.c **** 
 816:Generated_Source\PSoC5/USB_std.c ****     /* Init Endpoints and Device Status if configured */
 817:Generated_Source\PSoC5/USB_std.c ****     if (USB_configuration > 0u)
 818:Generated_Source\PSoC5/USB_std.c ****     {
 819:Generated_Source\PSoC5/USB_std.c ****         /* Get number of endpoints configurations (ep). */
 820:Generated_Source\PSoC5/USB_std.c ****         pTmp = USB_GetConfigTablePtr(USB_configuration - 1u);
 821:Generated_Source\PSoC5/USB_std.c ****         pTmp = &pTmp[1u];
 822:Generated_Source\PSoC5/USB_std.c ****         ep = pTmp->c;
 823:Generated_Source\PSoC5/USB_std.c **** 
 824:Generated_Source\PSoC5/USB_std.c ****         /* Get pointer to endpoints setting table (pEP). */
ARM GAS  C:\Users\Revanth\AppData\Local\Temp\cctCFyeS.s 			page 21


 825:Generated_Source\PSoC5/USB_std.c ****         pEP = (const T_USB_EP_SETTINGS_BLOCK CYCODE *) pTmp->p_list;
 826:Generated_Source\PSoC5/USB_std.c ****         
 827:Generated_Source\PSoC5/USB_std.c ****         /* Look through all possible endpoint configurations. Find endpoints 
 828:Generated_Source\PSoC5/USB_std.c ****         * which belong to current interface and alternate settings for 
 829:Generated_Source\PSoC5/USB_std.c ****         * re-configuration.
 830:Generated_Source\PSoC5/USB_std.c ****         */
 831:Generated_Source\PSoC5/USB_std.c ****         interfaceNum = USB_interfaceNumber;
 832:Generated_Source\PSoC5/USB_std.c ****         for (i = 0u; i < ep; i++)
 833:Generated_Source\PSoC5/USB_std.c ****         {
 834:Generated_Source\PSoC5/USB_std.c ****             /* Find endpoints which belong to current interface and alternate settings. */
 835:Generated_Source\PSoC5/USB_std.c ****             if ((interfaceNum == pEP->interface) && 
 836:Generated_Source\PSoC5/USB_std.c ****                 (USB_interfaceSetting[interfaceNum] == pEP->altSetting))
 837:Generated_Source\PSoC5/USB_std.c ****             {
 838:Generated_Source\PSoC5/USB_std.c ****                 curEp  = ((uint8) pEP->addr & USB_DIR_UNUSED);
 839:Generated_Source\PSoC5/USB_std.c ****                 epType = ((uint8) pEP->attributes & USB_EP_TYPE_MASK);
 840:Generated_Source\PSoC5/USB_std.c ****                 
 841:Generated_Source\PSoC5/USB_std.c ****                 /* Change the SIE mode for the selected EP to NAK ALL */
 842:Generated_Source\PSoC5/USB_std.c ****                 USB_EP[curEp].epToggle   = 0u;
 843:Generated_Source\PSoC5/USB_std.c ****                 USB_EP[curEp].addr       = pEP->addr;
 844:Generated_Source\PSoC5/USB_std.c ****                 USB_EP[curEp].attrib     = pEP->attributes;
 845:Generated_Source\PSoC5/USB_std.c ****                 USB_EP[curEp].bufferSize = pEP->bufferSize;
 846:Generated_Source\PSoC5/USB_std.c **** 
 847:Generated_Source\PSoC5/USB_std.c ****                 if (0u != (pEP->addr & USB_DIR_IN))
 848:Generated_Source\PSoC5/USB_std.c ****                 {
 849:Generated_Source\PSoC5/USB_std.c ****                     /* IN Endpoint */
 850:Generated_Source\PSoC5/USB_std.c ****                     USB_EP[curEp].epMode     = USB_GET_ACTIVE_IN_EP_CR0_MODE(epType);
 851:Generated_Source\PSoC5/USB_std.c ****                     USB_EP[curEp].apiEpState = USB_EVENT_PENDING;
 852:Generated_Source\PSoC5/USB_std.c ****                 }
 853:Generated_Source\PSoC5/USB_std.c ****                 else
 854:Generated_Source\PSoC5/USB_std.c ****                 {
 855:Generated_Source\PSoC5/USB_std.c ****                     /* OUT Endpoint */
 856:Generated_Source\PSoC5/USB_std.c ****                     USB_EP[curEp].epMode     = USB_GET_ACTIVE_OUT_EP_CR0_MODE(epType);
 857:Generated_Source\PSoC5/USB_std.c ****                     USB_EP[curEp].apiEpState = USB_NO_EVENT_PENDING;
 858:Generated_Source\PSoC5/USB_std.c ****                 }
 859:Generated_Source\PSoC5/USB_std.c ****                 
 860:Generated_Source\PSoC5/USB_std.c ****                 /* Make SIE to NAK any endpoint requests */
 861:Generated_Source\PSoC5/USB_std.c ****                 USB_SIE_EP_BASE.sieEp[curEp].epCr0 = USB_MODE_NAK_IN_OUT;
 862:Generated_Source\PSoC5/USB_std.c **** 
 863:Generated_Source\PSoC5/USB_std.c ****             #if (USB_EP_MANAGEMENT_DMA_AUTO)
 864:Generated_Source\PSoC5/USB_std.c ****                 /* Clear IN data ready. */
 865:Generated_Source\PSoC5/USB_std.c ****                 USB_ARB_EP_BASE.arbEp[curEp].epCfg &= (uint8) ~USB_ARB_EPX_CFG_IN_DATA_RDY;
 866:Generated_Source\PSoC5/USB_std.c **** 
 867:Generated_Source\PSoC5/USB_std.c ****                 /* Select endpoint number of reconfiguration */
 868:Generated_Source\PSoC5/USB_std.c ****                 USB_DYN_RECONFIG_REG = (uint8) ((curEp - 1u) << USB_DYN_RECONFIG_EP_SHIFT);
 869:Generated_Source\PSoC5/USB_std.c ****                 
 870:Generated_Source\PSoC5/USB_std.c ****                 /* Request for dynamic re-configuration of endpoint. */
 871:Generated_Source\PSoC5/USB_std.c ****                 USB_DYN_RECONFIG_REG |= USB_DYN_RECONFIG_ENABLE;
 872:Generated_Source\PSoC5/USB_std.c ****                 
 873:Generated_Source\PSoC5/USB_std.c ****                 /* Wait until block is ready for re-configuration */
 874:Generated_Source\PSoC5/USB_std.c ****                 while (0u == (USB_DYN_RECONFIG_REG & USB_DYN_RECONFIG_RDY_STS))
 875:Generated_Source\PSoC5/USB_std.c ****                 {
 876:Generated_Source\PSoC5/USB_std.c ****                 }
 877:Generated_Source\PSoC5/USB_std.c ****                 
 878:Generated_Source\PSoC5/USB_std.c ****                 /* Once DYN_RECONFIG_RDY_STS bit is set, FW can change the EP configuration. */
 879:Generated_Source\PSoC5/USB_std.c ****                 /* Change EP Type with new direction */
 880:Generated_Source\PSoC5/USB_std.c ****                 if (0u != (pEP->addr & USB_DIR_IN))
 881:Generated_Source\PSoC5/USB_std.c ****                 {
ARM GAS  C:\Users\Revanth\AppData\Local\Temp\cctCFyeS.s 			page 22


 882:Generated_Source\PSoC5/USB_std.c ****                     /* Set endpoint type: 0 - IN and 1 - OUT. */
 883:Generated_Source\PSoC5/USB_std.c ****                     USB_EP_TYPE_REG &= (uint8) ~(uint8)((uint8) 0x01u << (curEp - 1u));
 884:Generated_Source\PSoC5/USB_std.c ****                     
 885:Generated_Source\PSoC5/USB_std.c ****                 #if (CY_PSOC4)
 886:Generated_Source\PSoC5/USB_std.c ****                     /* Clear DMA_TERMIN for IN endpoint */
 887:Generated_Source\PSoC5/USB_std.c ****                     USB_ARB_EP_BASE.arbEp[curEp].epIntEn &= (uint32) ~USB_ARB_EPX_INT_DMA_TERMIN;
 888:Generated_Source\PSoC5/USB_std.c ****                 #endif /* (CY_PSOC4) */
 889:Generated_Source\PSoC5/USB_std.c ****                 }
 890:Generated_Source\PSoC5/USB_std.c ****                 else
 891:Generated_Source\PSoC5/USB_std.c ****                 {
 892:Generated_Source\PSoC5/USB_std.c ****                     /* Set endpoint type: 0 - IN and 1- OUT. */
 893:Generated_Source\PSoC5/USB_std.c ****                     USB_EP_TYPE_REG |= (uint8) ((uint8) 0x01u << (curEp - 1u));
 894:Generated_Source\PSoC5/USB_std.c ****                     
 895:Generated_Source\PSoC5/USB_std.c ****                 #if (CY_PSOC4)
 896:Generated_Source\PSoC5/USB_std.c ****                     /* Set DMA_TERMIN for OUT endpoint */
 897:Generated_Source\PSoC5/USB_std.c ****                     USB_ARB_EP_BASE.arbEp[curEp].epIntEn |= (uint32) USB_ARB_EPX_INT_DMA_TERMIN;
 898:Generated_Source\PSoC5/USB_std.c ****                 #endif /* (CY_PSOC4) */
 899:Generated_Source\PSoC5/USB_std.c ****                 }
 900:Generated_Source\PSoC5/USB_std.c ****                 
 901:Generated_Source\PSoC5/USB_std.c ****                 /* Complete dynamic re-configuration: all endpoint related status and signals 
 902:Generated_Source\PSoC5/USB_std.c ****                 * are set into the default state.
 903:Generated_Source\PSoC5/USB_std.c ****                 */
 904:Generated_Source\PSoC5/USB_std.c ****                 USB_DYN_RECONFIG_REG &= (uint8) ~USB_DYN_RECONFIG_ENABLE;
 905:Generated_Source\PSoC5/USB_std.c **** 
 906:Generated_Source\PSoC5/USB_std.c ****             #else
 907:Generated_Source\PSoC5/USB_std.c ****                 USB_SIE_EP_BASE.sieEp[curEp].epCnt0 = HI8(USB_EP[curEp].bufferSize);
 908:Generated_Source\PSoC5/USB_std.c ****                 USB_SIE_EP_BASE.sieEp[curEp].epCnt1 = LO8(USB_EP[curEp].bufferSize);
 909:Generated_Source\PSoC5/USB_std.c ****                 
 910:Generated_Source\PSoC5/USB_std.c ****                 #if (CY_PSOC4)
 911:Generated_Source\PSoC5/USB_std.c ****                     USB_ARB_EP16_BASE.arbEp[curEp].rwRa16  = (uint32) USB_EP[curEp].buffOffset;
 912:Generated_Source\PSoC5/USB_std.c ****                     USB_ARB_EP16_BASE.arbEp[curEp].rwWa16  = (uint32) USB_EP[curEp].buffOffset;
 913:Generated_Source\PSoC5/USB_std.c ****                 #else
 914:Generated_Source\PSoC5/USB_std.c ****                     USB_ARB_EP_BASE.arbEp[curEp].rwRa    = LO8(USB_EP[curEp].buffOffset);
 915:Generated_Source\PSoC5/USB_std.c ****                     USB_ARB_EP_BASE.arbEp[curEp].rwRaMsb = HI8(USB_EP[curEp].buffOffset);
 916:Generated_Source\PSoC5/USB_std.c ****                     USB_ARB_EP_BASE.arbEp[curEp].rwWa    = LO8(USB_EP[curEp].buffOffset);
 917:Generated_Source\PSoC5/USB_std.c ****                     USB_ARB_EP_BASE.arbEp[curEp].rwWaMsb = HI8(USB_EP[curEp].buffOffset);
 918:Generated_Source\PSoC5/USB_std.c ****                 #endif /* (CY_PSOC4) */                
 919:Generated_Source\PSoC5/USB_std.c ****             #endif /* (USB_EP_MANAGEMENT_DMA_AUTO) */
 920:Generated_Source\PSoC5/USB_std.c ****             }
 921:Generated_Source\PSoC5/USB_std.c ****             
 922:Generated_Source\PSoC5/USB_std.c ****             pEP = &pEP[1u]; /* Get next EP element */
 923:Generated_Source\PSoC5/USB_std.c ****         }
 924:Generated_Source\PSoC5/USB_std.c ****         
 925:Generated_Source\PSoC5/USB_std.c ****         /* The main loop has to re-enable DMA and OUT endpoint */
 926:Generated_Source\PSoC5/USB_std.c ****     }
 927:Generated_Source\PSoC5/USB_std.c **** }
 928:Generated_Source\PSoC5/USB_std.c **** 
 929:Generated_Source\PSoC5/USB_std.c **** 
 930:Generated_Source\PSoC5/USB_std.c **** /*******************************************************************************
 931:Generated_Source\PSoC5/USB_std.c **** * Function Name: USB_GetConfigTablePtr
 932:Generated_Source\PSoC5/USB_std.c **** ****************************************************************************//**
 933:Generated_Source\PSoC5/USB_std.c **** *
 934:Generated_Source\PSoC5/USB_std.c **** *  This routine returns a pointer a configuration table entry
 935:Generated_Source\PSoC5/USB_std.c **** *
 936:Generated_Source\PSoC5/USB_std.c **** *  \param confIndex:  Configuration Index
 937:Generated_Source\PSoC5/USB_std.c **** *
 938:Generated_Source\PSoC5/USB_std.c **** * \return
ARM GAS  C:\Users\Revanth\AppData\Local\Temp\cctCFyeS.s 			page 23


 939:Generated_Source\PSoC5/USB_std.c **** *  Device Descriptor pointer or NULL when descriptor does not exist.
 940:Generated_Source\PSoC5/USB_std.c **** *
 941:Generated_Source\PSoC5/USB_std.c **** *******************************************************************************/
 942:Generated_Source\PSoC5/USB_std.c **** const T_USB_LUT CYCODE *USB_GetConfigTablePtr(uint8 confIndex)
 943:Generated_Source\PSoC5/USB_std.c ****                                                         
 944:Generated_Source\PSoC5/USB_std.c **** {
 310              		.loc 1 944 0
 311              		.cfi_startproc
 312              		@ args = 0, pretend = 0, frame = 0
 313              		@ frame_needed = 0, uses_anonymous_args = 0
 314              		@ link register save eliminated.
 315              	.LVL20:
 945:Generated_Source\PSoC5/USB_std.c ****     /* Device Table */
 946:Generated_Source\PSoC5/USB_std.c ****     const T_USB_LUT CYCODE *pTmp;
 947:Generated_Source\PSoC5/USB_std.c **** 
 948:Generated_Source\PSoC5/USB_std.c ****     pTmp = (const T_USB_LUT CYCODE *) USB_TABLE[USB_device].p_list;
 316              		.loc 1 948 0
 317 0000 074B     		ldr	r3, .L27
 318 0002 1A78     		ldrb	r2, [r3]	@ zero_extendqisi2
 319 0004 074B     		ldr	r3, .L27+4
 320 0006 03EBC203 		add	r3, r3, r2, lsl #3
 321 000a 5B68     		ldr	r3, [r3, #4]
 322              	.LVL21:
 949:Generated_Source\PSoC5/USB_std.c **** 
 950:Generated_Source\PSoC5/USB_std.c ****     /* The first entry points to the Device Descriptor,
 951:Generated_Source\PSoC5/USB_std.c ****     *  the second entry point to the BOS Descriptor
 952:Generated_Source\PSoC5/USB_std.c ****     *  the rest configuration entries.
 953:Generated_Source\PSoC5/USB_std.c ****     *  Set pointer to the first Configuration Descriptor
 954:Generated_Source\PSoC5/USB_std.c ****     */
 955:Generated_Source\PSoC5/USB_std.c ****     pTmp = &pTmp[2u];
 956:Generated_Source\PSoC5/USB_std.c ****     /* For this table, c is the number of configuration descriptors  */
 957:Generated_Source\PSoC5/USB_std.c ****     if(confIndex >= pTmp->c)   /* Verify that required configuration descriptor exists */
 323              		.loc 1 957 0
 324 000c 1A7C     		ldrb	r2, [r3, #16]	@ zero_extendqisi2
 325 000e 8242     		cmp	r2, r0
 326 0010 04D9     		bls	.L26
 958:Generated_Source\PSoC5/USB_std.c ****     {
 959:Generated_Source\PSoC5/USB_std.c ****         pTmp = (const T_USB_LUT CYCODE *) NULL;
 960:Generated_Source\PSoC5/USB_std.c ****     }
 961:Generated_Source\PSoC5/USB_std.c ****     else
 962:Generated_Source\PSoC5/USB_std.c ****     {
 963:Generated_Source\PSoC5/USB_std.c ****         pTmp = (const T_USB_LUT CYCODE *) pTmp[confIndex].p_list;
 327              		.loc 1 963 0
 328 0012 C000     		lsls	r0, r0, #3
 329              	.LVL22:
 330 0014 1030     		adds	r0, r0, #16
 331 0016 1844     		add	r0, r0, r3
 332 0018 4068     		ldr	r0, [r0, #4]
 333              	.LVL23:
 334 001a 7047     		bx	lr
 335              	.LVL24:
 336              	.L26:
 959:Generated_Source\PSoC5/USB_std.c ****     }
 337              		.loc 1 959 0
 338 001c 0020     		movs	r0, #0
 339              	.LVL25:
 964:Generated_Source\PSoC5/USB_std.c ****     }
ARM GAS  C:\Users\Revanth\AppData\Local\Temp\cctCFyeS.s 			page 24


 965:Generated_Source\PSoC5/USB_std.c **** 
 966:Generated_Source\PSoC5/USB_std.c ****     return (pTmp);
 967:Generated_Source\PSoC5/USB_std.c **** }
 340              		.loc 1 967 0
 341 001e 7047     		bx	lr
 342              	.L28:
 343              		.align	2
 344              	.L27:
 345 0020 00000000 		.word	USB_device
 346 0024 00000000 		.word	USB_TABLE
 347              		.cfi_endproc
 348              	.LFE6:
 349              		.size	USB_GetConfigTablePtr, .-USB_GetConfigTablePtr
 350              		.section	.text.USB_ConfigAltChanged,"ax",%progbits
 351              		.align	2
 352              		.global	USB_ConfigAltChanged
 353              		.thumb
 354              		.thumb_func
 355              		.type	USB_ConfigAltChanged, %function
 356              	USB_ConfigAltChanged:
 357              	.LFB5:
 806:Generated_Source\PSoC5/USB_std.c ****     uint8 ep;
 358              		.loc 1 806 0
 359              		.cfi_startproc
 360              		@ args = 0, pretend = 0, frame = 0
 361              		@ frame_needed = 0, uses_anonymous_args = 0
 362 0000 F8B5     		push	{r3, r4, r5, r6, r7, lr}
 363              		.cfi_def_cfa_offset 24
 364              		.cfi_offset 3, -24
 365              		.cfi_offset 4, -20
 366              		.cfi_offset 5, -16
 367              		.cfi_offset 6, -12
 368              		.cfi_offset 7, -8
 369              		.cfi_offset 14, -4
 817:Generated_Source\PSoC5/USB_std.c ****     {
 370              		.loc 1 817 0
 371 0002 404B     		ldr	r3, .L41
 372 0004 1B78     		ldrb	r3, [r3]	@ zero_extendqisi2
 373 0006 13F0FF0F 		tst	r3, #255
 374 000a 79D0     		beq	.L29
 820:Generated_Source\PSoC5/USB_std.c ****         pTmp = &pTmp[1u];
 375              		.loc 1 820 0
 376 000c 3D4B     		ldr	r3, .L41
 377 000e 1878     		ldrb	r0, [r3]	@ zero_extendqisi2
 378 0010 0138     		subs	r0, r0, #1
 379 0012 C0B2     		uxtb	r0, r0
 380 0014 FFF7FEFF 		bl	USB_GetConfigTablePtr
 381              	.LVL26:
 822:Generated_Source\PSoC5/USB_std.c **** 
 382              		.loc 1 822 0
 383 0018 047A     		ldrb	r4, [r0, #8]	@ zero_extendqisi2
 384              	.LVL27:
 825:Generated_Source\PSoC5/USB_std.c ****         
 385              		.loc 1 825 0
 386 001a C268     		ldr	r2, [r0, #12]
 387              	.LVL28:
 831:Generated_Source\PSoC5/USB_std.c ****         for (i = 0u; i < ep; i++)
ARM GAS  C:\Users\Revanth\AppData\Local\Temp\cctCFyeS.s 			page 25


 388              		.loc 1 831 0
 389 001c 3A4B     		ldr	r3, .L41+4
 390 001e 1878     		ldrb	r0, [r3]	@ zero_extendqisi2
 391              	.LVL29:
 392 0020 C0B2     		uxtb	r0, r0
 393              	.LVL30:
 832:Generated_Source\PSoC5/USB_std.c ****         {
 394              		.loc 1 832 0
 395 0022 0023     		movs	r3, #0
 396 0024 6AE0     		b	.L31
 397              	.LVL31:
 398              	.L37:
 835:Generated_Source\PSoC5/USB_std.c ****                 (USB_interfaceSetting[interfaceNum] == pEP->altSetting))
 399              		.loc 1 835 0
 400 0026 1178     		ldrb	r1, [r2]	@ zero_extendqisi2
 401 0028 8842     		cmp	r0, r1
 402 002a 64D1     		bne	.L32
 836:Generated_Source\PSoC5/USB_std.c ****             {
 403              		.loc 1 836 0 discriminator 1
 404 002c 3749     		ldr	r1, .L41+8
 405 002e 095C     		ldrb	r1, [r1, r0]	@ zero_extendqisi2
 406 0030 C9B2     		uxtb	r1, r1
 407 0032 5578     		ldrb	r5, [r2, #1]	@ zero_extendqisi2
 835:Generated_Source\PSoC5/USB_std.c ****                 (USB_interfaceSetting[interfaceNum] == pEP->altSetting))
 408              		.loc 1 835 0 discriminator 1
 409 0034 A942     		cmp	r1, r5
 410 0036 5ED1     		bne	.L32
 838:Generated_Source\PSoC5/USB_std.c ****                 epType = ((uint8) pEP->attributes & USB_EP_TYPE_MASK);
 411              		.loc 1 838 0
 412 0038 9178     		ldrb	r1, [r2, #2]	@ zero_extendqisi2
 413 003a 01F07F01 		and	r1, r1, #127
 414              	.LVL32:
 839:Generated_Source\PSoC5/USB_std.c ****                 
 415              		.loc 1 839 0
 416 003e D678     		ldrb	r6, [r2, #3]	@ zero_extendqisi2
 417 0040 06F00306 		and	r6, r6, #3
 418              	.LVL33:
 842:Generated_Source\PSoC5/USB_std.c ****                 USB_EP[curEp].addr       = pEP->addr;
 419              		.loc 1 842 0
 420 0044 DFF8C8E0 		ldr	lr, .L41+12
 421 0048 4D00     		lsls	r5, r1, #1
 422 004a 0D44     		add	r5, r5, r1
 423 004c AF00     		lsls	r7, r5, #2
 424 004e 0EEB0705 		add	r5, lr, r7
 425 0052 4FF0000C 		mov	ip, #0
 426 0056 85F803C0 		strb	ip, [r5, #3]
 843:Generated_Source\PSoC5/USB_std.c ****                 USB_EP[curEp].attrib     = pEP->attributes;
 427              		.loc 1 843 0
 428 005a 92F802C0 		ldrb	ip, [r2, #2]	@ zero_extendqisi2
 429 005e 85F804C0 		strb	ip, [r5, #4]
 844:Generated_Source\PSoC5/USB_std.c ****                 USB_EP[curEp].bufferSize = pEP->bufferSize;
 430              		.loc 1 844 0
 431 0062 92F803C0 		ldrb	ip, [r2, #3]	@ zero_extendqisi2
 432 0066 0EF807C0 		strb	ip, [lr, r7]
 845:Generated_Source\PSoC5/USB_std.c **** 
 433              		.loc 1 845 0
 434 006a 9788     		ldrh	r7, [r2, #4]
ARM GAS  C:\Users\Revanth\AppData\Local\Temp\cctCFyeS.s 			page 26


 435 006c 2F81     		strh	r7, [r5, #8]	@ movhi
 847:Generated_Source\PSoC5/USB_std.c ****                 {
 436              		.loc 1 847 0
 437 006e 92F90250 		ldrsb	r5, [r2, #2]
 438 0072 002D     		cmp	r5, #0
 439 0074 0DDA     		bge	.L33
 850:Generated_Source\PSoC5/USB_std.c ****                     USB_EP[curEp].apiEpState = USB_EVENT_PENDING;
 440              		.loc 1 850 0
 441 0076 012E     		cmp	r6, #1
 442 0078 01D1     		bne	.L38
 443 007a 0727     		movs	r7, #7
 444 007c 00E0     		b	.L34
 445              	.L38:
 446 007e 0D27     		movs	r7, #13
 447              	.L34:
 850:Generated_Source\PSoC5/USB_std.c ****                     USB_EP[curEp].apiEpState = USB_EVENT_PENDING;
 448              		.loc 1 850 0 is_stmt 0 discriminator 4
 449 0080 4E00     		lsls	r6, r1, #1
 450              	.LVL34:
 451 0082 0E44     		add	r6, r6, r1
 452 0084 B500     		lsls	r5, r6, #2
 453 0086 224E     		ldr	r6, .L41+12
 454 0088 3544     		add	r5, r5, r6
 455 008a 6F71     		strb	r7, [r5, #5]
 851:Generated_Source\PSoC5/USB_std.c ****                 }
 456              		.loc 1 851 0 is_stmt 1 discriminator 4
 457 008c 0126     		movs	r6, #1
 458 008e 6E70     		strb	r6, [r5, #1]
 459 0090 0CE0     		b	.L35
 460              	.LVL35:
 461              	.L33:
 856:Generated_Source\PSoC5/USB_std.c ****                     USB_EP[curEp].apiEpState = USB_NO_EVENT_PENDING;
 462              		.loc 1 856 0
 463 0092 012E     		cmp	r6, #1
 464 0094 01D1     		bne	.L39
 465 0096 0527     		movs	r7, #5
 466 0098 00E0     		b	.L36
 467              	.L39:
 468 009a 0927     		movs	r7, #9
 469              	.L36:
 856:Generated_Source\PSoC5/USB_std.c ****                     USB_EP[curEp].apiEpState = USB_NO_EVENT_PENDING;
 470              		.loc 1 856 0 is_stmt 0 discriminator 4
 471 009c 4E00     		lsls	r6, r1, #1
 472              	.LVL36:
 473 009e 0E44     		add	r6, r6, r1
 474 00a0 B500     		lsls	r5, r6, #2
 475 00a2 1B4E     		ldr	r6, .L41+12
 476 00a4 3544     		add	r5, r5, r6
 477 00a6 6F71     		strb	r7, [r5, #5]
 857:Generated_Source\PSoC5/USB_std.c ****                 }
 478              		.loc 1 857 0 is_stmt 1 discriminator 4
 479 00a8 0026     		movs	r6, #0
 480 00aa 6E70     		strb	r6, [r5, #1]
 481              	.L35:
 861:Generated_Source\PSoC5/USB_std.c **** 
 482              		.loc 1 861 0
 483 00ac DFF868E0 		ldr	lr, .L41+20
ARM GAS  C:\Users\Revanth\AppData\Local\Temp\cctCFyeS.s 			page 27


 484 00b0 0F01     		lsls	r7, r1, #4
 485 00b2 0EEB0706 		add	r6, lr, r7
 486 00b6 0125     		movs	r5, #1
 487 00b8 B570     		strb	r5, [r6, #2]
 907:Generated_Source\PSoC5/USB_std.c ****                 USB_SIE_EP_BASE.sieEp[curEp].epCnt1 = LO8(USB_EP[curEp].bufferSize);
 488              		.loc 1 907 0
 489 00ba 01FA05F5 		lsl	r5, r1, r5
 490 00be 2944     		add	r1, r1, r5
 491              	.LVL37:
 492 00c0 8D00     		lsls	r5, r1, #2
 493 00c2 1349     		ldr	r1, .L41+12
 494 00c4 2944     		add	r1, r1, r5
 495 00c6 0D89     		ldrh	r5, [r1, #8]
 496 00c8 C5F30725 		ubfx	r5, r5, #8, #8
 497 00cc 0EF80750 		strb	r5, [lr, r7]
 908:Generated_Source\PSoC5/USB_std.c ****                 
 498              		.loc 1 908 0
 499 00d0 0D89     		ldrh	r5, [r1, #8]
 500 00d2 EDB2     		uxtb	r5, r5
 501 00d4 7570     		strb	r5, [r6, #1]
 914:Generated_Source\PSoC5/USB_std.c ****                     USB_ARB_EP_BASE.arbEp[curEp].rwRaMsb = HI8(USB_EP[curEp].buffOffset);
 502              		.loc 1 914 0
 503 00d6 CE88     		ldrh	r6, [r1, #6]
 504 00d8 F6B2     		uxtb	r6, r6
 505 00da 0E4D     		ldr	r5, .L41+16
 506 00dc 3D44     		add	r5, r5, r7
 507 00de AE71     		strb	r6, [r5, #6]
 915:Generated_Source\PSoC5/USB_std.c ****                     USB_ARB_EP_BASE.arbEp[curEp].rwWa    = LO8(USB_EP[curEp].buffOffset);
 508              		.loc 1 915 0
 509 00e0 CE88     		ldrh	r6, [r1, #6]
 510 00e2 C6F30726 		ubfx	r6, r6, #8, #8
 511 00e6 EE71     		strb	r6, [r5, #7]
 916:Generated_Source\PSoC5/USB_std.c ****                     USB_ARB_EP_BASE.arbEp[curEp].rwWaMsb = HI8(USB_EP[curEp].buffOffset);
 512              		.loc 1 916 0
 513 00e8 CE88     		ldrh	r6, [r1, #6]
 514 00ea F6B2     		uxtb	r6, r6
 515 00ec 2E71     		strb	r6, [r5, #4]
 917:Generated_Source\PSoC5/USB_std.c ****                 #endif /* (CY_PSOC4) */                
 516              		.loc 1 917 0
 517 00ee C988     		ldrh	r1, [r1, #6]
 518 00f0 C1F30721 		ubfx	r1, r1, #8, #8
 519 00f4 6971     		strb	r1, [r5, #5]
 520              	.L32:
 922:Generated_Source\PSoC5/USB_std.c ****         }
 521              		.loc 1 922 0 discriminator 2
 522 00f6 0832     		adds	r2, r2, #8
 523              	.LVL38:
 832:Generated_Source\PSoC5/USB_std.c ****         {
 524              		.loc 1 832 0 discriminator 2
 525 00f8 0133     		adds	r3, r3, #1
 526              	.LVL39:
 527 00fa DBB2     		uxtb	r3, r3
 528              	.LVL40:
 529              	.L31:
 832:Generated_Source\PSoC5/USB_std.c ****         {
 530              		.loc 1 832 0 is_stmt 0 discriminator 1
 531 00fc A342     		cmp	r3, r4
ARM GAS  C:\Users\Revanth\AppData\Local\Temp\cctCFyeS.s 			page 28


 532 00fe 92D3     		bcc	.L37
 533              	.LVL41:
 534              	.L29:
 535 0100 F8BD     		pop	{r3, r4, r5, r6, r7, pc}
 536              	.L42:
 537 0102 00BF     		.align	2
 538              	.L41:
 539 0104 00000000 		.word	USB_configuration
 540 0108 00000000 		.word	USB_interfaceNumber
 541 010c 00000000 		.word	USB_interfaceSetting
 542 0110 00000000 		.word	USB_EP
 543 0114 70600040 		.word	1073766512
 544 0118 FC5F0040 		.word	1073766396
 545              		.cfi_endproc
 546              	.LFE5:
 547              		.size	USB_ConfigAltChanged, .-USB_ConfigAltChanged
 548              		.section	.text.USB_GetDeviceTablePtr,"ax",%progbits
 549              		.align	2
 550              		.global	USB_GetDeviceTablePtr
 551              		.thumb
 552              		.thumb_func
 553              		.type	USB_GetDeviceTablePtr, %function
 554              	USB_GetDeviceTablePtr:
 555              	.LFB7:
 968:Generated_Source\PSoC5/USB_std.c **** 
 969:Generated_Source\PSoC5/USB_std.c **** 
 970:Generated_Source\PSoC5/USB_std.c **** #if (USB_BOS_ENABLE)
 971:Generated_Source\PSoC5/USB_std.c ****     /*******************************************************************************
 972:Generated_Source\PSoC5/USB_std.c ****     * Function Name: USB_GetBOSPtr
 973:Generated_Source\PSoC5/USB_std.c ****     ****************************************************************************//**
 974:Generated_Source\PSoC5/USB_std.c ****     *
 975:Generated_Source\PSoC5/USB_std.c ****     *  This routine returns a pointer a BOS table entry
 976:Generated_Source\PSoC5/USB_std.c ****     *
 977:Generated_Source\PSoC5/USB_std.c ****     *  
 978:Generated_Source\PSoC5/USB_std.c ****     *
 979:Generated_Source\PSoC5/USB_std.c ****     * \return
 980:Generated_Source\PSoC5/USB_std.c ****     *  BOS Descriptor pointer or NULL when descriptor does not exist.
 981:Generated_Source\PSoC5/USB_std.c ****     *
 982:Generated_Source\PSoC5/USB_std.c ****     *******************************************************************************/
 983:Generated_Source\PSoC5/USB_std.c ****     const T_USB_LUT CYCODE *USB_GetBOSPtr(void)
 984:Generated_Source\PSoC5/USB_std.c ****                                                             
 985:Generated_Source\PSoC5/USB_std.c ****     {
 986:Generated_Source\PSoC5/USB_std.c ****         /* Device Table */
 987:Generated_Source\PSoC5/USB_std.c ****         const T_USB_LUT CYCODE *pTmp;
 988:Generated_Source\PSoC5/USB_std.c **** 
 989:Generated_Source\PSoC5/USB_std.c ****         pTmp = (const T_USB_LUT CYCODE *) USB_TABLE[USB_device].p_list;
 990:Generated_Source\PSoC5/USB_std.c **** 
 991:Generated_Source\PSoC5/USB_std.c ****         /* The first entry points to the Device Descriptor,
 992:Generated_Source\PSoC5/USB_std.c ****         *  the second entry points to the BOS Descriptor
 993:Generated_Source\PSoC5/USB_std.c ****         */
 994:Generated_Source\PSoC5/USB_std.c ****         pTmp = &pTmp[1u];
 995:Generated_Source\PSoC5/USB_std.c ****         pTmp = (const T_USB_LUT CYCODE *) pTmp->p_list;
 996:Generated_Source\PSoC5/USB_std.c ****         return (pTmp);
 997:Generated_Source\PSoC5/USB_std.c ****     }
 998:Generated_Source\PSoC5/USB_std.c **** #endif /* (USB_BOS_ENABLE) */
 999:Generated_Source\PSoC5/USB_std.c **** 
1000:Generated_Source\PSoC5/USB_std.c **** 
ARM GAS  C:\Users\Revanth\AppData\Local\Temp\cctCFyeS.s 			page 29


1001:Generated_Source\PSoC5/USB_std.c **** /*******************************************************************************
1002:Generated_Source\PSoC5/USB_std.c **** * Function Name: USB_GetDeviceTablePtr
1003:Generated_Source\PSoC5/USB_std.c **** ****************************************************************************//**
1004:Generated_Source\PSoC5/USB_std.c **** *
1005:Generated_Source\PSoC5/USB_std.c **** *  This routine returns a pointer to the Device table
1006:Generated_Source\PSoC5/USB_std.c **** *
1007:Generated_Source\PSoC5/USB_std.c **** * \return
1008:Generated_Source\PSoC5/USB_std.c **** *  Device Table pointer
1009:Generated_Source\PSoC5/USB_std.c **** *
1010:Generated_Source\PSoC5/USB_std.c **** *******************************************************************************/
1011:Generated_Source\PSoC5/USB_std.c **** const T_USB_LUT CYCODE *USB_GetDeviceTablePtr(void)
1012:Generated_Source\PSoC5/USB_std.c ****                                                             
1013:Generated_Source\PSoC5/USB_std.c **** {
 556              		.loc 1 1013 0 is_stmt 1
 557              		.cfi_startproc
 558              		@ args = 0, pretend = 0, frame = 0
 559              		@ frame_needed = 0, uses_anonymous_args = 0
 560              		@ link register save eliminated.
1014:Generated_Source\PSoC5/USB_std.c ****     /* Device Table */
1015:Generated_Source\PSoC5/USB_std.c ****     return( (const T_USB_LUT CYCODE *) USB_TABLE[USB_device].p_list );
 561              		.loc 1 1015 0
 562 0000 034B     		ldr	r3, .L44
 563 0002 1A78     		ldrb	r2, [r3]	@ zero_extendqisi2
 564 0004 034B     		ldr	r3, .L44+4
 565 0006 03EBC203 		add	r3, r3, r2, lsl #3
1016:Generated_Source\PSoC5/USB_std.c **** }
 566              		.loc 1 1016 0
 567 000a 5868     		ldr	r0, [r3, #4]
 568 000c 7047     		bx	lr
 569              	.L45:
 570 000e 00BF     		.align	2
 571              	.L44:
 572 0010 00000000 		.word	USB_device
 573 0014 00000000 		.word	USB_TABLE
 574              		.cfi_endproc
 575              	.LFE7:
 576              		.size	USB_GetDeviceTablePtr, .-USB_GetDeviceTablePtr
 577              		.section	.text.USB_GetInterfaceClassTablePtr,"ax",%progbits
 578              		.align	2
 579              		.global	USB_GetInterfaceClassTablePtr
 580              		.thumb
 581              		.thumb_func
 582              		.type	USB_GetInterfaceClassTablePtr, %function
 583              	USB_GetInterfaceClassTablePtr:
 584              	.LFB8:
1017:Generated_Source\PSoC5/USB_std.c **** 
1018:Generated_Source\PSoC5/USB_std.c **** 
1019:Generated_Source\PSoC5/USB_std.c **** /*******************************************************************************
1020:Generated_Source\PSoC5/USB_std.c **** * Function Name: USB_GetInterfaceClassTablePtr
1021:Generated_Source\PSoC5/USB_std.c **** ****************************************************************************//**
1022:Generated_Source\PSoC5/USB_std.c **** *
1023:Generated_Source\PSoC5/USB_std.c **** *  This routine returns Interface Class table pointer, which contains
1024:Generated_Source\PSoC5/USB_std.c **** *  the relation between interface number and interface class.
1025:Generated_Source\PSoC5/USB_std.c **** *
1026:Generated_Source\PSoC5/USB_std.c **** * \return
1027:Generated_Source\PSoC5/USB_std.c **** *  Interface Class table pointer.
1028:Generated_Source\PSoC5/USB_std.c **** *
ARM GAS  C:\Users\Revanth\AppData\Local\Temp\cctCFyeS.s 			page 30


1029:Generated_Source\PSoC5/USB_std.c **** *******************************************************************************/
1030:Generated_Source\PSoC5/USB_std.c **** const uint8 CYCODE *USB_GetInterfaceClassTablePtr(void)
1031:Generated_Source\PSoC5/USB_std.c ****                                                         
1032:Generated_Source\PSoC5/USB_std.c **** {
 585              		.loc 1 1032 0
 586              		.cfi_startproc
 587              		@ args = 0, pretend = 0, frame = 0
 588              		@ frame_needed = 0, uses_anonymous_args = 0
 589 0000 08B5     		push	{r3, lr}
 590              		.cfi_def_cfa_offset 8
 591              		.cfi_offset 3, -8
 592              		.cfi_offset 14, -4
1033:Generated_Source\PSoC5/USB_std.c ****     const T_USB_LUT CYCODE *pTmp;
1034:Generated_Source\PSoC5/USB_std.c ****     const uint8 CYCODE *pInterfaceClass;
1035:Generated_Source\PSoC5/USB_std.c ****     uint8 currentInterfacesNum;
1036:Generated_Source\PSoC5/USB_std.c **** 
1037:Generated_Source\PSoC5/USB_std.c ****     pTmp = USB_GetConfigTablePtr(USB_configuration - 1u);
 593              		.loc 1 1037 0
 594 0002 084B     		ldr	r3, .L50
 595 0004 1878     		ldrb	r0, [r3]	@ zero_extendqisi2
 596 0006 0138     		subs	r0, r0, #1
 597 0008 C0B2     		uxtb	r0, r0
 598 000a FFF7FEFF 		bl	USB_GetConfigTablePtr
 599              	.LVL42:
1038:Generated_Source\PSoC5/USB_std.c ****     if (pTmp != NULL)
 600              		.loc 1 1038 0
 601 000e 30B1     		cbz	r0, .L48
1039:Generated_Source\PSoC5/USB_std.c ****     {
1040:Generated_Source\PSoC5/USB_std.c ****         currentInterfacesNum  = ((const uint8 *) pTmp->p_list)[USB_CONFIG_DESCR_NUM_INTERFACES];
 602              		.loc 1 1040 0
 603 0010 4268     		ldr	r2, [r0, #4]
 604 0012 1279     		ldrb	r2, [r2, #4]	@ zero_extendqisi2
 605              	.LVL43:
1041:Generated_Source\PSoC5/USB_std.c ****         /* Third entry in the LUT starts the Interface Table pointers */
1042:Generated_Source\PSoC5/USB_std.c ****         /* The INTERFACE_CLASS table is located after all interfaces */
1043:Generated_Source\PSoC5/USB_std.c ****         pTmp = &pTmp[currentInterfacesNum + 2u];
 606              		.loc 1 1043 0
 607 0014 0232     		adds	r2, r2, #2
 608              	.LVL44:
 609 0016 00EBC203 		add	r3, r0, r2, lsl #3
 610              	.LVL45:
1044:Generated_Source\PSoC5/USB_std.c ****         pInterfaceClass = (const uint8 CYCODE *) pTmp->p_list;
 611              		.loc 1 1044 0
 612 001a 5868     		ldr	r0, [r3, #4]
 613              	.LVL46:
 614 001c 08BD     		pop	{r3, pc}
 615              	.LVL47:
 616              	.L48:
1045:Generated_Source\PSoC5/USB_std.c ****     }
1046:Generated_Source\PSoC5/USB_std.c ****     else
1047:Generated_Source\PSoC5/USB_std.c ****     {
1048:Generated_Source\PSoC5/USB_std.c ****         pInterfaceClass = (const uint8 CYCODE *) NULL;
 617              		.loc 1 1048 0
 618 001e 0020     		movs	r0, #0
 619              	.LVL48:
1049:Generated_Source\PSoC5/USB_std.c ****     }
1050:Generated_Source\PSoC5/USB_std.c **** 
ARM GAS  C:\Users\Revanth\AppData\Local\Temp\cctCFyeS.s 			page 31


1051:Generated_Source\PSoC5/USB_std.c ****     return (pInterfaceClass);
1052:Generated_Source\PSoC5/USB_std.c **** }
 620              		.loc 1 1052 0
 621 0020 08BD     		pop	{r3, pc}
 622              	.L51:
 623 0022 00BF     		.align	2
 624              	.L50:
 625 0024 00000000 		.word	USB_configuration
 626              		.cfi_endproc
 627              	.LFE8:
 628              		.size	USB_GetInterfaceClassTablePtr, .-USB_GetInterfaceClassTablePtr
 629              		.section	.text.USB_Config,"ax",%progbits
 630              		.align	2
 631              		.global	USB_Config
 632              		.thumb
 633              		.thumb_func
 634              		.type	USB_Config, %function
 635              	USB_Config:
 636              	.LFB4:
 571:Generated_Source\PSoC5/USB_std.c ****     uint8 ep;
 637              		.loc 1 571 0
 638              		.cfi_startproc
 639              		@ args = 0, pretend = 0, frame = 0
 640              		@ frame_needed = 0, uses_anonymous_args = 0
 641              	.LVL49:
 642 0000 2DE9F047 		push	{r4, r5, r6, r7, r8, r9, r10, lr}
 643              		.cfi_def_cfa_offset 32
 644              		.cfi_offset 4, -32
 645              		.cfi_offset 5, -28
 646              		.cfi_offset 6, -24
 647              		.cfi_offset 7, -20
 648              		.cfi_offset 8, -16
 649              		.cfi_offset 9, -12
 650              		.cfi_offset 10, -8
 651              		.cfi_offset 14, -4
 652              	.LVL50:
 586:Generated_Source\PSoC5/USB_std.c ****     {
 653              		.loc 1 586 0
 654 0004 0023     		movs	r3, #0
 655 0006 10E0     		b	.L53
 656              	.LVL51:
 657              	.L54:
 588:Generated_Source\PSoC5/USB_std.c ****         USB_EP[ep].hwEpState  = 0u;
 658              		.loc 1 588 0 discriminator 3
 659 0008 724D     		ldr	r5, .L80
 660 000a 5900     		lsls	r1, r3, #1
 661 000c CA18     		adds	r2, r1, r3
 662 000e 9600     		lsls	r6, r2, #2
 663 0010 AC19     		adds	r4, r5, r6
 664 0012 0022     		movs	r2, #0
 665 0014 AA55     		strb	r2, [r5, r6]
 589:Generated_Source\PSoC5/USB_std.c ****         USB_EP[ep].epToggle   = 0u;
 666              		.loc 1 589 0 discriminator 3
 667 0016 A270     		strb	r2, [r4, #2]
 590:Generated_Source\PSoC5/USB_std.c ****         USB_EP[ep].bufferSize = 0u;
 668              		.loc 1 590 0 discriminator 3
 669 0018 E270     		strb	r2, [r4, #3]
ARM GAS  C:\Users\Revanth\AppData\Local\Temp\cctCFyeS.s 			page 32


 591:Generated_Source\PSoC5/USB_std.c ****         USB_EP[ep].interface  = 0u;
 670              		.loc 1 591 0 discriminator 3
 671 001a 2281     		strh	r2, [r4, #8]	@ movhi
 592:Generated_Source\PSoC5/USB_std.c ****         USB_EP[ep].apiEpState = USB_NO_EVENT_PENDING;
 672              		.loc 1 592 0 discriminator 3
 673 001c A272     		strb	r2, [r4, #10]
 593:Generated_Source\PSoC5/USB_std.c ****         USB_EP[ep].epMode     = USB_MODE_DISABLE;   
 674              		.loc 1 593 0 discriminator 3
 675 001e 6270     		strb	r2, [r4, #1]
 594:Generated_Source\PSoC5/USB_std.c ****     }
 676              		.loc 1 594 0 discriminator 3
 677 0020 3446     		mov	r4, r6
 678 0022 2C44     		add	r4, r4, r5
 679 0024 6271     		strb	r2, [r4, #5]
 586:Generated_Source\PSoC5/USB_std.c ****     {
 680              		.loc 1 586 0 discriminator 3
 681 0026 0133     		adds	r3, r3, #1
 682              	.LVL52:
 683 0028 DBB2     		uxtb	r3, r3
 684              	.LVL53:
 685              	.L53:
 586:Generated_Source\PSoC5/USB_std.c ****     {
 686              		.loc 1 586 0 is_stmt 0 discriminator 1
 687 002a 082B     		cmp	r3, #8
 688 002c ECD9     		bls	.L54
 598:Generated_Source\PSoC5/USB_std.c ****     {
 689              		.loc 1 598 0 is_stmt 1
 690 002e 40B9     		cbnz	r0, .L76
 691 0030 0AE0     		b	.L56
 692              	.LVL54:
 693              	.L57:
 602:Generated_Source\PSoC5/USB_std.c ****             USB_interfaceSettingLast[i] = 0u;
 694              		.loc 1 602 0 discriminator 3
 695 0032 0022     		movs	r2, #0
 696 0034 6849     		ldr	r1, .L80+4
 697 0036 CA54     		strb	r2, [r1, r3]
 603:Generated_Source\PSoC5/USB_std.c ****         }
 698              		.loc 1 603 0 discriminator 3
 699 0038 6849     		ldr	r1, .L80+8
 700 003a CA54     		strb	r2, [r1, r3]
 600:Generated_Source\PSoC5/USB_std.c ****         {
 701              		.loc 1 600 0 discriminator 3
 702 003c 0133     		adds	r3, r3, #1
 703              	.LVL55:
 704 003e DBB2     		uxtb	r3, r3
 705              	.LVL56:
 706 0040 00E0     		b	.L55
 707              	.LVL57:
 708              	.L76:
 709 0042 0023     		movs	r3, #0
 710              	.LVL58:
 711              	.L55:
 600:Generated_Source\PSoC5/USB_std.c ****         {
 712              		.loc 1 600 0 is_stmt 0 discriminator 1
 713 0044 012B     		cmp	r3, #1
 714 0046 F4D9     		bls	.L57
 715              	.LVL59:
ARM GAS  C:\Users\Revanth\AppData\Local\Temp\cctCFyeS.s 			page 33


 716              	.L56:
 608:Generated_Source\PSoC5/USB_std.c ****     {
 717              		.loc 1 608 0 is_stmt 1
 718 0048 654B     		ldr	r3, .L80+12
 719 004a 1B78     		ldrb	r3, [r3]	@ zero_extendqisi2
 720 004c 13F0FF0F 		tst	r3, #255
 721 0050 00F0BD80 		beq	.L52
 722              	.LVL60:
 723              	.LBB2:
 614:Generated_Source\PSoC5/USB_std.c ****         
 724              		.loc 1 614 0
 725 0054 624B     		ldr	r3, .L80+12
 726 0056 1878     		ldrb	r0, [r3]	@ zero_extendqisi2
 727              	.LVL61:
 728 0058 0138     		subs	r0, r0, #1
 729 005a C0B2     		uxtb	r0, r0
 730 005c FFF7FEFF 		bl	USB_GetConfigTablePtr
 731              	.LVL62:
 732 0060 8046     		mov	r8, r0
 733              	.LVL63:
 617:Generated_Source\PSoC5/USB_std.c ****         if ((pDescr[USB_CONFIG_DESCR_ATTRIB] & USB_CONFIG_DESCR_ATTRIB_SELF_POWERED) != 0u)
 734              		.loc 1 617 0
 735 0062 4368     		ldr	r3, [r0, #4]
 736              	.LVL64:
 618:Generated_Source\PSoC5/USB_std.c ****         {
 737              		.loc 1 618 0
 738 0064 DB79     		ldrb	r3, [r3, #7]	@ zero_extendqisi2
 739              	.LVL65:
 740 0066 13F0400F 		tst	r3, #64
 741 006a 05D0     		beq	.L59
 620:Generated_Source\PSoC5/USB_std.c ****         }
 742              		.loc 1 620 0
 743 006c 5D4A     		ldr	r2, .L80+16
 744 006e 1378     		ldrb	r3, [r2]	@ zero_extendqisi2
 745 0070 43F00103 		orr	r3, r3, #1
 746 0074 1370     		strb	r3, [r2]
 747 0076 04E0     		b	.L60
 748              	.L59:
 624:Generated_Source\PSoC5/USB_std.c ****         }
 749              		.loc 1 624 0
 750 0078 5A4A     		ldr	r2, .L80+16
 751 007a 1378     		ldrb	r3, [r2]	@ zero_extendqisi2
 752 007c 03F0FE03 		and	r3, r3, #254
 753 0080 1370     		strb	r3, [r2]
 754              	.L60:
 755              	.LVL66:
 629:Generated_Source\PSoC5/USB_std.c **** 
 756              		.loc 1 629 0
 757 0082 98F80870 		ldrb	r7, [r8, #8]	@ zero_extendqisi2
 758              	.LVL67:
 611:Generated_Source\PSoC5/USB_std.c ****         #endif  /* (USB_ENABLE_CDC_CLASS) */  
 759              		.loc 1 611 0
 760 0086 4FF0000A 		mov	r10, #0
 687:Generated_Source\PSoC5/USB_std.c ****             {
 761              		.loc 1 687 0
 762 008a 0126     		movs	r6, #1
 763 008c 6FE0     		b	.L61
ARM GAS  C:\Users\Revanth\AppData\Local\Temp\cctCFyeS.s 			page 34


 764              	.LVL68:
 765              	.L71:
 690:Generated_Source\PSoC5/USB_std.c ****                 /* Find max length for each EP and select it (length could be different in differen
 766              		.loc 1 690 0
 767 008e D8F80C50 		ldr	r5, [r8, #12]
 768              	.LVL69:
 694:Generated_Source\PSoC5/USB_std.c ****                 {
 769              		.loc 1 694 0
 770 0092 0024     		movs	r4, #0
 771 0094 67E0     		b	.L62
 772              	.LVL70:
 773              	.L70:
 696:Generated_Source\PSoC5/USB_std.c ****                     {
 774              		.loc 1 696 0
 775 0096 AB78     		ldrb	r3, [r5, #2]	@ zero_extendqisi2
 776 0098 03F07F03 		and	r3, r3, #127
 777 009c 9E42     		cmp	r6, r3
 778 009e 5FD1     		bne	.L63
 699:Generated_Source\PSoC5/USB_std.c ****                         {
 779              		.loc 1 699 0
 780 00a0 3146     		mov	r1, r6
 781 00a2 06EB4600 		add	r0, r6, r6, lsl #1
 782 00a6 8300     		lsls	r3, r0, #2
 783 00a8 4A48     		ldr	r0, .L80
 784 00aa 0344     		add	r3, r3, r0
 785 00ac 1B89     		ldrh	r3, [r3, #8]
 786 00ae 9BB2     		uxth	r3, r3
 787 00b0 A888     		ldrh	r0, [r5, #4]
 788 00b2 8342     		cmp	r3, r0
 789 00b4 06D2     		bcs	.L64
 701:Generated_Source\PSoC5/USB_std.c ****                         }
 790              		.loc 1 701 0
 791 00b6 06EB460E 		add	lr, r6, r6, lsl #1
 792 00ba 4FEA8E03 		lsl	r3, lr, #2
 793 00be 454A     		ldr	r2, .L80
 794 00c0 1344     		add	r3, r3, r2
 795 00c2 1881     		strh	r0, [r3, #8]	@ movhi
 796              	.L64:
 705:Generated_Source\PSoC5/USB_std.c ****                         {                            
 797              		.loc 1 705 0
 798 00c4 2B78     		ldrb	r3, [r5]	@ zero_extendqisi2
 799 00c6 4448     		ldr	r0, .L80+4
 800 00c8 C35C     		ldrb	r3, [r0, r3]	@ zero_extendqisi2
 801 00ca DBB2     		uxtb	r3, r3
 802 00cc 6878     		ldrb	r0, [r5, #1]	@ zero_extendqisi2
 803 00ce 8342     		cmp	r3, r0
 804 00d0 46D1     		bne	.L63
 707:Generated_Source\PSoC5/USB_std.c ****                             USB_EP[i].attrib = pEP->attributes;
 805              		.loc 1 707 0
 806 00d2 95F802C0 		ldrb	ip, [r5, #2]	@ zero_extendqisi2
 807 00d6 DFF8FCE0 		ldr	lr, .L80
 808 00da 4B00     		lsls	r3, r1, #1
 809 00dc 0B44     		add	r3, r3, r1
 810 00de 9800     		lsls	r0, r3, #2
 811 00e0 0EEB0003 		add	r3, lr, r0
 812 00e4 83F804C0 		strb	ip, [r3, #4]
 708:Generated_Source\PSoC5/USB_std.c ****                             
ARM GAS  C:\Users\Revanth\AppData\Local\Temp\cctCFyeS.s 			page 35


 813              		.loc 1 708 0
 814 00e8 EB78     		ldrb	r3, [r5, #3]	@ zero_extendqisi2
 815 00ea 0EF80030 		strb	r3, [lr, r0]
 710:Generated_Source\PSoC5/USB_std.c ****                             
 816              		.loc 1 710 0
 817 00ee EB78     		ldrb	r3, [r5, #3]	@ zero_extendqisi2
 818 00f0 03F00303 		and	r3, r3, #3
 819              	.LVL71:
 712:Generated_Source\PSoC5/USB_std.c ****                             {
 820              		.loc 1 712 0
 821 00f4 95F90200 		ldrsb	r0, [r5, #2]
 822 00f8 0028     		cmp	r0, #0
 823 00fa 13DA     		bge	.L65
 715:Generated_Source\PSoC5/USB_std.c ****                                 USB_EP[i].apiEpState = USB_EVENT_PENDING;
 824              		.loc 1 715 0
 825 00fc 012B     		cmp	r3, #1
 826 00fe 02D1     		bne	.L77
 827 0100 4FF00709 		mov	r9, #7
 828 0104 01E0     		b	.L66
 829              	.L77:
 830 0106 4FF00D09 		mov	r9, #13
 831              	.L66:
 715:Generated_Source\PSoC5/USB_std.c ****                                 USB_EP[i].apiEpState = USB_EVENT_PENDING;
 832              		.loc 1 715 0 is_stmt 0 discriminator 4
 833 010a DFF8C8E0 		ldr	lr, .L80
 834 010e 4B00     		lsls	r3, r1, #1
 835              	.LVL72:
 836 0110 03EB010C 		add	ip, r3, r1
 837 0114 4FEA8C00 		lsl	r0, ip, #2
 838 0118 7044     		add	r0, r0, lr
 839 011a 80F80590 		strb	r9, [r0, #5]
 840              	.LVL73:
 716:Generated_Source\PSoC5/USB_std.c ****                                 
 841              		.loc 1 716 0 is_stmt 1 discriminator 4
 842 011e 0121     		movs	r1, #1
 843 0120 4170     		strb	r1, [r0, #1]
 844 0122 12E0     		b	.L67
 845              	.LVL74:
 846              	.L65:
 728:Generated_Source\PSoC5/USB_std.c ****                                 USB_EP[i].apiEpState = USB_NO_EVENT_PENDING;
 847              		.loc 1 728 0
 848 0124 012B     		cmp	r3, #1
 849 0126 02D1     		bne	.L78
 850 0128 4FF00509 		mov	r9, #5
 851 012c 01E0     		b	.L68
 852              	.L78:
 853 012e 4FF00909 		mov	r9, #9
 854              	.L68:
 728:Generated_Source\PSoC5/USB_std.c ****                                 USB_EP[i].apiEpState = USB_NO_EVENT_PENDING;
 855              		.loc 1 728 0 is_stmt 0 discriminator 4
 856 0132 DFF8A0E0 		ldr	lr, .L80
 857 0136 4B00     		lsls	r3, r1, #1
 858              	.LVL75:
 859 0138 03EB010C 		add	ip, r3, r1
 860 013c 4FEA8C00 		lsl	r0, ip, #2
 861 0140 7044     		add	r0, r0, lr
 862 0142 80F80590 		strb	r9, [r0, #5]
ARM GAS  C:\Users\Revanth\AppData\Local\Temp\cctCFyeS.s 			page 36


 863              	.LVL76:
 729:Generated_Source\PSoC5/USB_std.c ****                                 
 864              		.loc 1 729 0 is_stmt 1 discriminator 4
 865 0146 0021     		movs	r1, #0
 866 0148 4170     		strb	r1, [r0, #1]
 867              	.L67:
 740:Generated_Source\PSoC5/USB_std.c ****                             {
 868              		.loc 1 740 0
 869 014a AB79     		ldrb	r3, [r5, #6]	@ zero_extendqisi2
 870 014c 0A2B     		cmp	r3, #10
 871 014e 01D0     		beq	.L69
 740:Generated_Source\PSoC5/USB_std.c ****                             {
 872              		.loc 1 740 0 is_stmt 0 discriminator 1
 873 0150 022B     		cmp	r3, #2
 874 0152 05D1     		bne	.L63
 875              	.L69:
 742:Generated_Source\PSoC5/USB_std.c ****                             }
 876              		.loc 1 742 0 is_stmt 1
 877 0154 5246     		mov	r2, r10
 878 0156 3146     		mov	r1, r6
 879 0158 2846     		mov	r0, r5
 880 015a FFF7FEFF 		bl	USB_Cdc_EpInit
 881              	.LVL77:
 882 015e 8246     		mov	r10, r0
 883              	.LVL78:
 884              	.L63:
 752:Generated_Source\PSoC5/USB_std.c ****                 }
 885              		.loc 1 752 0 discriminator 2
 886 0160 0835     		adds	r5, r5, #8
 887              	.LVL79:
 694:Generated_Source\PSoC5/USB_std.c ****                 {
 888              		.loc 1 694 0 discriminator 2
 889 0162 0134     		adds	r4, r4, #1
 890              	.LVL80:
 891 0164 E4B2     		uxtb	r4, r4
 892              	.LVL81:
 893              	.L62:
 694:Generated_Source\PSoC5/USB_std.c ****                 {
 894              		.loc 1 694 0 is_stmt 0 discriminator 1
 895 0166 BC42     		cmp	r4, r7
 896 0168 95D3     		bcc	.L70
 687:Generated_Source\PSoC5/USB_std.c ****             {
 897              		.loc 1 687 0 is_stmt 1 discriminator 2
 898 016a 0136     		adds	r6, r6, #1
 899              	.LVL82:
 900 016c F6B2     		uxtb	r6, r6
 901              	.LVL83:
 902              	.L61:
 687:Generated_Source\PSoC5/USB_std.c ****             {
 903              		.loc 1 687 0 is_stmt 0 discriminator 1
 904 016e 082E     		cmp	r6, #8
 905 0170 8DD9     		bls	.L71
 762:Generated_Source\PSoC5/USB_std.c ****         for (i = 0u; i < ep; i++)
 906              		.loc 1 762 0 is_stmt 1
 907 0172 D8F80C00 		ldr	r0, [r8, #12]
 908              	.LVL84:
 763:Generated_Source\PSoC5/USB_std.c ****         {
ARM GAS  C:\Users\Revanth\AppData\Local\Temp\cctCFyeS.s 			page 37


 909              		.loc 1 763 0
 910 0176 0022     		movs	r2, #0
 911 0178 0CE0     		b	.L72
 912              	.LVL85:
 913              	.L73:
 766:Generated_Source\PSoC5/USB_std.c ****             pEP = &pEP[1u];
 914              		.loc 1 766 0 discriminator 3
 915 017a 8378     		ldrb	r3, [r0, #2]	@ zero_extendqisi2
 916 017c 03F07F03 		and	r3, r3, #127
 917 0180 10F8084B 		ldrb	r4, [r0], #8	@ zero_extendqisi2
 918              	.LVL86:
 919 0184 03EB4303 		add	r3, r3, r3, lsl #1
 920 0188 9900     		lsls	r1, r3, #2
 921 018a 124B     		ldr	r3, .L80
 922 018c 1944     		add	r1, r1, r3
 923 018e 8C72     		strb	r4, [r1, #10]
 924              	.LVL87:
 763:Generated_Source\PSoC5/USB_std.c ****         {
 925              		.loc 1 763 0 discriminator 3
 926 0190 0132     		adds	r2, r2, #1
 927              	.LVL88:
 928 0192 D2B2     		uxtb	r2, r2
 929              	.LVL89:
 930              	.L72:
 763:Generated_Source\PSoC5/USB_std.c ****         {
 931              		.loc 1 763 0 is_stmt 0 discriminator 1
 932 0194 BA42     		cmp	r2, r7
 933 0196 F0D3     		bcc	.L73
 771:Generated_Source\PSoC5/USB_std.c ****         
 934              		.loc 1 771 0 is_stmt 1
 935 0198 FFF7FEFF 		bl	USB_GetInterfaceClassTablePtr
 936              	.LVL90:
 937 019c 124B     		ldr	r3, .L80+20
 938 019e 1860     		str	r0, [r3]
 939              	.LVL91:
 775:Generated_Source\PSoC5/USB_std.c ****         for (ep = USB_EP1; ep < USB_MAX_EP; ++ep)
 940              		.loc 1 775 0
 941 01a0 0023     		movs	r3, #0
 776:Generated_Source\PSoC5/USB_std.c ****         {
 942              		.loc 1 776 0
 943 01a2 0121     		movs	r1, #1
 944 01a4 0FE0     		b	.L74
 945              	.LVL92:
 946              	.L75:
 778:Generated_Source\PSoC5/USB_std.c ****             buffCount += USB_EP[ep].bufferSize;
 947              		.loc 1 778 0 discriminator 3
 948 01a6 0B4D     		ldr	r5, .L80
 949 01a8 4A00     		lsls	r2, r1, #1
 950 01aa 5018     		adds	r0, r2, r1
 951 01ac 8400     		lsls	r4, r0, #2
 952 01ae 2C44     		add	r4, r4, r5
 953 01b0 E380     		strh	r3, [r4, #6]	@ movhi
 779:Generated_Source\PSoC5/USB_std.c ****             
 954              		.loc 1 779 0 discriminator 3
 955 01b2 2289     		ldrh	r2, [r4, #8]
 956 01b4 92B2     		uxth	r2, r2
 957 01b6 1344     		add	r3, r3, r2
ARM GAS  C:\Users\Revanth\AppData\Local\Temp\cctCFyeS.s 			page 38


 958              	.LVL93:
 959 01b8 9BB2     		uxth	r3, r3
 960              	.LVL94:
 783:Generated_Source\PSoC5/USB_std.c ****         #endif /* (USB_GEN_16BITS_EP_ACCESS) */            
 961              		.loc 1 783 0 discriminator 3
 962 01ba 03F00102 		and	r2, r3, #1
 963 01be 1344     		add	r3, r3, r2
 964              	.LVL95:
 965 01c0 9BB2     		uxth	r3, r3
 966              	.LVL96:
 776:Generated_Source\PSoC5/USB_std.c ****         {
 967              		.loc 1 776 0 discriminator 3
 968 01c2 0131     		adds	r1, r1, #1
 969              	.LVL97:
 970 01c4 C9B2     		uxtb	r1, r1
 971              	.LVL98:
 972              	.L74:
 776:Generated_Source\PSoC5/USB_std.c ****         {
 973              		.loc 1 776 0 is_stmt 0 discriminator 1
 974 01c6 0829     		cmp	r1, #8
 975 01c8 EDD9     		bls	.L75
 789:Generated_Source\PSoC5/USB_std.c ****     }
 976              		.loc 1 789 0 is_stmt 1
 977 01ca FFF7FEFF 		bl	USB_ConfigReg
 978              	.LVL99:
 979              	.L52:
 980 01ce BDE8F087 		pop	{r4, r5, r6, r7, r8, r9, r10, pc}
 981              	.L81:
 982 01d2 00BF     		.align	2
 983              	.L80:
 984 01d4 00000000 		.word	USB_EP
 985 01d8 00000000 		.word	USB_interfaceSetting
 986 01dc 00000000 		.word	USB_interfaceSettingLast
 987 01e0 00000000 		.word	USB_configuration
 988 01e4 00000000 		.word	USB_deviceStatus
 989 01e8 00000000 		.word	USB_interfaceClass
 990              	.LBE2:
 991              		.cfi_endproc
 992              	.LFE4:
 993              		.size	USB_Config, .-USB_Config
 994              		.section	.text.USB_TerminateEP,"ax",%progbits
 995              		.align	2
 996              		.global	USB_TerminateEP
 997              		.thumb
 998              		.thumb_func
 999              		.type	USB_TerminateEP, %function
 1000              	USB_TerminateEP:
 1001              	.LFB9:
1053:Generated_Source\PSoC5/USB_std.c **** 
1054:Generated_Source\PSoC5/USB_std.c **** 
1055:Generated_Source\PSoC5/USB_std.c **** /*******************************************************************************
1056:Generated_Source\PSoC5/USB_std.c **** * Function Name: USB_TerminateEP
1057:Generated_Source\PSoC5/USB_std.c **** ****************************************************************************//**
1058:Generated_Source\PSoC5/USB_std.c **** *
1059:Generated_Source\PSoC5/USB_std.c **** *  This function terminates the specified USBFS endpoint.
1060:Generated_Source\PSoC5/USB_std.c **** *  This function should be used before endpoint reconfiguration.
1061:Generated_Source\PSoC5/USB_std.c **** *
ARM GAS  C:\Users\Revanth\AppData\Local\Temp\cctCFyeS.s 			page 39


1062:Generated_Source\PSoC5/USB_std.c **** *  \param ep Contains the data endpoint number.
1063:Generated_Source\PSoC5/USB_std.c **** *
1064:Generated_Source\PSoC5/USB_std.c **** *  \reentrant
1065:Generated_Source\PSoC5/USB_std.c **** *  No.
1066:Generated_Source\PSoC5/USB_std.c **** *
1067:Generated_Source\PSoC5/USB_std.c **** * \sideeffect
1068:Generated_Source\PSoC5/USB_std.c **** * 
1069:Generated_Source\PSoC5/USB_std.c **** * The device responds with a NAK for any transactions on the selected endpoint.
1070:Generated_Source\PSoC5/USB_std.c **** *   
1071:Generated_Source\PSoC5/USB_std.c **** *******************************************************************************/
1072:Generated_Source\PSoC5/USB_std.c **** void USB_TerminateEP(uint8 epNumber) 
1073:Generated_Source\PSoC5/USB_std.c **** {
 1002              		.loc 1 1073 0
 1003              		.cfi_startproc
 1004              		@ args = 0, pretend = 0, frame = 0
 1005              		@ frame_needed = 0, uses_anonymous_args = 0
 1006              		@ link register save eliminated.
 1007              	.LVL100:
1074:Generated_Source\PSoC5/USB_std.c ****     /* Get endpoint number */
1075:Generated_Source\PSoC5/USB_std.c ****     epNumber &= USB_DIR_UNUSED;
 1008              		.loc 1 1075 0
 1009 0000 00F07F00 		and	r0, r0, #127
 1010              	.LVL101:
1076:Generated_Source\PSoC5/USB_std.c **** 
1077:Generated_Source\PSoC5/USB_std.c ****     if ((epNumber > USB_EP0) && (epNumber < USB_MAX_EP))
 1011              		.loc 1 1077 0
 1012 0004 431E     		subs	r3, r0, #1
 1013 0006 DBB2     		uxtb	r3, r3
 1014 0008 072B     		cmp	r3, #7
 1015 000a 19D8     		bhi	.L82
1078:Generated_Source\PSoC5/USB_std.c ****     {
1079:Generated_Source\PSoC5/USB_std.c ****         /* Set the endpoint Halt */
1080:Generated_Source\PSoC5/USB_std.c ****         USB_EP[epNumber].hwEpState |= USB_ENDPOINT_STATUS_HALT;
 1016              		.loc 1 1080 0
 1017 000c 4200     		lsls	r2, r0, #1
 1018 000e 0244     		add	r2, r2, r0
 1019 0010 9300     		lsls	r3, r2, #2
 1020 0012 0C4A     		ldr	r2, .L85
 1021 0014 1344     		add	r3, r3, r2
 1022 0016 9A78     		ldrb	r2, [r3, #2]	@ zero_extendqisi2
 1023 0018 42F00102 		orr	r2, r2, #1
 1024 001c 9A70     		strb	r2, [r3, #2]
1081:Generated_Source\PSoC5/USB_std.c **** 
1082:Generated_Source\PSoC5/USB_std.c ****         /* Clear the data toggle */
1083:Generated_Source\PSoC5/USB_std.c ****         USB_EP[epNumber].epToggle = 0u;
 1025              		.loc 1 1083 0
 1026 001e 0022     		movs	r2, #0
 1027 0020 DA70     		strb	r2, [r3, #3]
1084:Generated_Source\PSoC5/USB_std.c ****         USB_EP[epNumber].apiEpState = USB_NO_EVENT_ALLOWED;
 1028              		.loc 1 1084 0
 1029 0022 0222     		movs	r2, #2
 1030 0024 5A70     		strb	r2, [r3, #1]
1085:Generated_Source\PSoC5/USB_std.c **** 
1086:Generated_Source\PSoC5/USB_std.c ****         if ((USB_EP[epNumber].addr & USB_DIR_IN) != 0u)
 1031              		.loc 1 1086 0
 1032 0026 1B79     		ldrb	r3, [r3, #4]	@ zero_extendqisi2
 1033 0028 13F0800F 		tst	r3, #128
ARM GAS  C:\Users\Revanth\AppData\Local\Temp\cctCFyeS.s 			page 40


 1034 002c 04D0     		beq	.L84
1087:Generated_Source\PSoC5/USB_std.c ****         {   
1088:Generated_Source\PSoC5/USB_std.c ****             /* IN Endpoint */
1089:Generated_Source\PSoC5/USB_std.c ****             USB_SIE_EP_BASE.sieEp[epNumber].epCr0 = USB_MODE_NAK_IN;
 1035              		.loc 1 1089 0
 1036 002e 0001     		lsls	r0, r0, #4
 1037              	.LVL102:
 1038 0030 054B     		ldr	r3, .L85+4
 1039 0032 0C22     		movs	r2, #12
 1040 0034 1A54     		strb	r2, [r3, r0]
 1041 0036 7047     		bx	lr
 1042              	.LVL103:
 1043              	.L84:
1090:Generated_Source\PSoC5/USB_std.c ****         }
1091:Generated_Source\PSoC5/USB_std.c ****         else
1092:Generated_Source\PSoC5/USB_std.c ****         {
1093:Generated_Source\PSoC5/USB_std.c ****             /* OUT Endpoint */
1094:Generated_Source\PSoC5/USB_std.c ****             USB_SIE_EP_BASE.sieEp[epNumber].epCr0 = USB_MODE_NAK_OUT;
 1044              		.loc 1 1094 0
 1045 0038 0001     		lsls	r0, r0, #4
 1046              	.LVL104:
 1047 003a 034B     		ldr	r3, .L85+4
 1048 003c 0822     		movs	r2, #8
 1049 003e 1A54     		strb	r2, [r3, r0]
 1050              	.L82:
 1051 0040 7047     		bx	lr
 1052              	.L86:
 1053 0042 00BF     		.align	2
 1054              	.L85:
 1055 0044 00000000 		.word	USB_EP
 1056 0048 FE5F0040 		.word	1073766398
 1057              		.cfi_endproc
 1058              	.LFE9:
 1059              		.size	USB_TerminateEP, .-USB_TerminateEP
 1060              		.section	.text.USB_SetEndpointHalt,"ax",%progbits
 1061              		.align	2
 1062              		.global	USB_SetEndpointHalt
 1063              		.thumb
 1064              		.thumb_func
 1065              		.type	USB_SetEndpointHalt, %function
 1066              	USB_SetEndpointHalt:
 1067              	.LFB10:
1095:Generated_Source\PSoC5/USB_std.c ****         }
1096:Generated_Source\PSoC5/USB_std.c ****     }
1097:Generated_Source\PSoC5/USB_std.c **** }
1098:Generated_Source\PSoC5/USB_std.c **** 
1099:Generated_Source\PSoC5/USB_std.c **** 
1100:Generated_Source\PSoC5/USB_std.c **** /*******************************************************************************
1101:Generated_Source\PSoC5/USB_std.c **** * Function Name: USB_SetEndpointHalt
1102:Generated_Source\PSoC5/USB_std.c **** ****************************************************************************//**
1103:Generated_Source\PSoC5/USB_std.c **** *
1104:Generated_Source\PSoC5/USB_std.c **** *  This routine handles set endpoint halt.
1105:Generated_Source\PSoC5/USB_std.c **** *
1106:Generated_Source\PSoC5/USB_std.c **** * \return
1107:Generated_Source\PSoC5/USB_std.c **** *  requestHandled.
1108:Generated_Source\PSoC5/USB_std.c **** *
1109:Generated_Source\PSoC5/USB_std.c **** * \reentrant
ARM GAS  C:\Users\Revanth\AppData\Local\Temp\cctCFyeS.s 			page 41


1110:Generated_Source\PSoC5/USB_std.c **** *  No.
1111:Generated_Source\PSoC5/USB_std.c **** *
1112:Generated_Source\PSoC5/USB_std.c **** *******************************************************************************/
1113:Generated_Source\PSoC5/USB_std.c **** uint8 USB_SetEndpointHalt(void) 
1114:Generated_Source\PSoC5/USB_std.c **** {
 1068              		.loc 1 1114 0
 1069              		.cfi_startproc
 1070              		@ args = 0, pretend = 0, frame = 0
 1071              		@ frame_needed = 0, uses_anonymous_args = 0
 1072 0000 08B5     		push	{r3, lr}
 1073              		.cfi_def_cfa_offset 8
 1074              		.cfi_offset 3, -8
 1075              		.cfi_offset 14, -4
 1076              	.LVL105:
1115:Generated_Source\PSoC5/USB_std.c ****     uint8 requestHandled = USB_FALSE;
1116:Generated_Source\PSoC5/USB_std.c ****     uint8 ep;
1117:Generated_Source\PSoC5/USB_std.c ****     
1118:Generated_Source\PSoC5/USB_std.c ****     /* Set endpoint halt */
1119:Generated_Source\PSoC5/USB_std.c ****     ep = USB_wIndexLoReg & USB_DIR_UNUSED;
 1077              		.loc 1 1119 0
 1078 0002 154B     		ldr	r3, .L93
 1079 0004 1B79     		ldrb	r3, [r3, #4]	@ zero_extendqisi2
 1080 0006 03F07F03 		and	r3, r3, #127
 1081              	.LVL106:
1120:Generated_Source\PSoC5/USB_std.c **** 
1121:Generated_Source\PSoC5/USB_std.c ****     if ((ep > USB_EP0) && (ep < USB_MAX_EP))
 1082              		.loc 1 1121 0
 1083 000a 5A1E     		subs	r2, r3, #1
 1084 000c D2B2     		uxtb	r2, r2
 1085 000e 072A     		cmp	r2, #7
 1086 0010 20D8     		bhi	.L91
1122:Generated_Source\PSoC5/USB_std.c ****     {
1123:Generated_Source\PSoC5/USB_std.c ****         /* Set the endpoint Halt */
1124:Generated_Source\PSoC5/USB_std.c ****         USB_EP[ep].hwEpState |= (USB_ENDPOINT_STATUS_HALT);
 1087              		.loc 1 1124 0
 1088 0012 5900     		lsls	r1, r3, #1
 1089 0014 1944     		add	r1, r1, r3
 1090 0016 8A00     		lsls	r2, r1, #2
 1091 0018 1049     		ldr	r1, .L93+4
 1092 001a 0A44     		add	r2, r2, r1
 1093 001c 9178     		ldrb	r1, [r2, #2]	@ zero_extendqisi2
 1094 001e 41F00101 		orr	r1, r1, #1
 1095 0022 9170     		strb	r1, [r2, #2]
1125:Generated_Source\PSoC5/USB_std.c **** 
1126:Generated_Source\PSoC5/USB_std.c ****         /* Clear the data toggle */
1127:Generated_Source\PSoC5/USB_std.c ****         USB_EP[ep].epToggle = 0u;
 1096              		.loc 1 1127 0
 1097 0024 0021     		movs	r1, #0
 1098 0026 D170     		strb	r1, [r2, #3]
1128:Generated_Source\PSoC5/USB_std.c ****         USB_EP[ep].apiEpState |= USB_NO_EVENT_ALLOWED;
 1099              		.loc 1 1128 0
 1100 0028 5178     		ldrb	r1, [r2, #1]	@ zero_extendqisi2
 1101 002a 41F00201 		orr	r1, r1, #2
 1102 002e 5170     		strb	r1, [r2, #1]
1129:Generated_Source\PSoC5/USB_std.c **** 
1130:Generated_Source\PSoC5/USB_std.c ****         if ((USB_EP[ep].addr & USB_DIR_IN) != 0u)
 1103              		.loc 1 1130 0
ARM GAS  C:\Users\Revanth\AppData\Local\Temp\cctCFyeS.s 			page 42


 1104 0030 1279     		ldrb	r2, [r2, #4]	@ zero_extendqisi2
 1105 0032 12F0800F 		tst	r2, #128
 1106 0036 05D0     		beq	.L89
1131:Generated_Source\PSoC5/USB_std.c ****         {
1132:Generated_Source\PSoC5/USB_std.c ****             /* IN Endpoint */
1133:Generated_Source\PSoC5/USB_std.c ****             USB_SIE_EP_BASE.sieEp[ep].epCr0 = (USB_MODE_STALL_DATA_EP | 
 1107              		.loc 1 1133 0
 1108 0038 1B01     		lsls	r3, r3, #4
 1109              	.LVL107:
 1110 003a 094A     		ldr	r2, .L93+8
 1111 003c 1A44     		add	r2, r2, r3
 1112 003e 8D23     		movs	r3, #141
 1113 0040 9370     		strb	r3, [r2, #2]
 1114 0042 04E0     		b	.L90
 1115              	.LVL108:
 1116              	.L89:
1134:Generated_Source\PSoC5/USB_std.c ****                                                             USB_MODE_ACK_IN);
1135:Generated_Source\PSoC5/USB_std.c ****         }
1136:Generated_Source\PSoC5/USB_std.c ****         else
1137:Generated_Source\PSoC5/USB_std.c ****         {
1138:Generated_Source\PSoC5/USB_std.c ****             /* OUT Endpoint */
1139:Generated_Source\PSoC5/USB_std.c ****             USB_SIE_EP_BASE.sieEp[ep].epCr0 = (USB_MODE_STALL_DATA_EP | 
 1117              		.loc 1 1139 0
 1118 0044 1B01     		lsls	r3, r3, #4
 1119              	.LVL109:
 1120 0046 064A     		ldr	r2, .L93+8
 1121 0048 1A44     		add	r2, r2, r3
 1122 004a 8923     		movs	r3, #137
 1123 004c 9370     		strb	r3, [r2, #2]
 1124              	.L90:
1140:Generated_Source\PSoC5/USB_std.c ****                                                             USB_MODE_ACK_OUT);
1141:Generated_Source\PSoC5/USB_std.c ****         }
1142:Generated_Source\PSoC5/USB_std.c ****         requestHandled = USB_InitNoDataControlTransfer();
 1125              		.loc 1 1142 0
 1126 004e FFF7FEFF 		bl	USB_InitNoDataControlTransfer
 1127              	.LVL110:
 1128 0052 08BD     		pop	{r3, pc}
 1129              	.LVL111:
 1130              	.L91:
1115:Generated_Source\PSoC5/USB_std.c ****     uint8 ep;
 1131              		.loc 1 1115 0
 1132 0054 0020     		movs	r0, #0
 1133              	.LVL112:
1143:Generated_Source\PSoC5/USB_std.c ****     }
1144:Generated_Source\PSoC5/USB_std.c **** 
1145:Generated_Source\PSoC5/USB_std.c ****     return (requestHandled);
1146:Generated_Source\PSoC5/USB_std.c **** }
 1134              		.loc 1 1146 0
 1135 0056 08BD     		pop	{r3, pc}
 1136              	.LVL113:
 1137              	.L94:
 1138              		.align	2
 1139              	.L93:
 1140 0058 00600040 		.word	1073766400
 1141 005c 00000000 		.word	USB_EP
 1142 0060 FC5F0040 		.word	1073766396
 1143              		.cfi_endproc
ARM GAS  C:\Users\Revanth\AppData\Local\Temp\cctCFyeS.s 			page 43


 1144              	.LFE10:
 1145              		.size	USB_SetEndpointHalt, .-USB_SetEndpointHalt
 1146              		.section	.text.USB_ClearEndpointHalt,"ax",%progbits
 1147              		.align	2
 1148              		.global	USB_ClearEndpointHalt
 1149              		.thumb
 1150              		.thumb_func
 1151              		.type	USB_ClearEndpointHalt, %function
 1152              	USB_ClearEndpointHalt:
 1153              	.LFB11:
1147:Generated_Source\PSoC5/USB_std.c **** 
1148:Generated_Source\PSoC5/USB_std.c **** 
1149:Generated_Source\PSoC5/USB_std.c **** /*******************************************************************************
1150:Generated_Source\PSoC5/USB_std.c **** * Function Name: USB_ClearEndpointHalt
1151:Generated_Source\PSoC5/USB_std.c **** ****************************************************************************//**
1152:Generated_Source\PSoC5/USB_std.c **** *
1153:Generated_Source\PSoC5/USB_std.c **** *  This routine handles clear endpoint halt.
1154:Generated_Source\PSoC5/USB_std.c **** *
1155:Generated_Source\PSoC5/USB_std.c **** * \return
1156:Generated_Source\PSoC5/USB_std.c **** *  requestHandled.
1157:Generated_Source\PSoC5/USB_std.c **** *
1158:Generated_Source\PSoC5/USB_std.c **** * \reentrant
1159:Generated_Source\PSoC5/USB_std.c **** *  No.
1160:Generated_Source\PSoC5/USB_std.c **** *
1161:Generated_Source\PSoC5/USB_std.c **** *******************************************************************************/
1162:Generated_Source\PSoC5/USB_std.c **** uint8 USB_ClearEndpointHalt(void) 
1163:Generated_Source\PSoC5/USB_std.c **** {
 1154              		.loc 1 1163 0
 1155              		.cfi_startproc
 1156              		@ args = 0, pretend = 0, frame = 0
 1157              		@ frame_needed = 0, uses_anonymous_args = 0
 1158              	.LVL114:
1164:Generated_Source\PSoC5/USB_std.c ****     uint8 requestHandled = USB_FALSE;
1165:Generated_Source\PSoC5/USB_std.c ****     uint8 ep;
1166:Generated_Source\PSoC5/USB_std.c **** 
1167:Generated_Source\PSoC5/USB_std.c ****     /* Clear endpoint halt */
1168:Generated_Source\PSoC5/USB_std.c ****     ep = USB_wIndexLoReg & USB_DIR_UNUSED;
 1159              		.loc 1 1168 0
 1160 0000 274B     		ldr	r3, .L104
 1161 0002 1B79     		ldrb	r3, [r3, #4]	@ zero_extendqisi2
 1162 0004 03F07F03 		and	r3, r3, #127
 1163              	.LVL115:
1169:Generated_Source\PSoC5/USB_std.c **** 
1170:Generated_Source\PSoC5/USB_std.c ****     if ((ep > USB_EP0) && (ep < USB_MAX_EP))
 1164              		.loc 1 1170 0
 1165 0008 5A1E     		subs	r2, r3, #1
 1166 000a D2B2     		uxtb	r2, r2
 1167 000c 072A     		cmp	r2, #7
 1168 000e 44D8     		bhi	.L101
1163:Generated_Source\PSoC5/USB_std.c ****     uint8 requestHandled = USB_FALSE;
 1169              		.loc 1 1163 0
 1170 0010 10B5     		push	{r4, lr}
 1171              		.cfi_def_cfa_offset 8
 1172              		.cfi_offset 4, -8
 1173              		.cfi_offset 14, -4
1171:Generated_Source\PSoC5/USB_std.c ****     {
1172:Generated_Source\PSoC5/USB_std.c ****         /* Clear the endpoint Halt */
ARM GAS  C:\Users\Revanth\AppData\Local\Temp\cctCFyeS.s 			page 44


1173:Generated_Source\PSoC5/USB_std.c ****         USB_EP[ep].hwEpState &= (uint8) ~USB_ENDPOINT_STATUS_HALT;
 1174              		.loc 1 1173 0
 1175 0012 5900     		lsls	r1, r3, #1
 1176 0014 1944     		add	r1, r1, r3
 1177 0016 8A00     		lsls	r2, r1, #2
 1178 0018 2249     		ldr	r1, .L104+4
 1179 001a 0A44     		add	r2, r2, r1
 1180 001c 9178     		ldrb	r1, [r2, #2]	@ zero_extendqisi2
 1181 001e 01F0FE01 		and	r1, r1, #254
 1182 0022 9170     		strb	r1, [r2, #2]
1174:Generated_Source\PSoC5/USB_std.c **** 
1175:Generated_Source\PSoC5/USB_std.c ****         /* Clear the data toggle */
1176:Generated_Source\PSoC5/USB_std.c ****         USB_EP[ep].epToggle = 0u;
 1183              		.loc 1 1176 0
 1184 0024 0021     		movs	r1, #0
 1185 0026 D170     		strb	r1, [r2, #3]
1177:Generated_Source\PSoC5/USB_std.c ****         
1178:Generated_Source\PSoC5/USB_std.c ****         /* Clear toggle bit for already armed packet */
1179:Generated_Source\PSoC5/USB_std.c ****         USB_SIE_EP_BASE.sieEp[ep].epCnt0 &= (uint8) ~(uint8)USB_EPX_CNT_DATA_TOGGLE;
 1186              		.loc 1 1179 0
 1187 0028 1F4C     		ldr	r4, .L104+8
 1188 002a 1801     		lsls	r0, r3, #4
 1189 002c 215C     		ldrb	r1, [r4, r0]	@ zero_extendqisi2
 1190 002e 01F07F01 		and	r1, r1, #127
 1191 0032 2154     		strb	r1, [r4, r0]
1180:Generated_Source\PSoC5/USB_std.c ****         
1181:Generated_Source\PSoC5/USB_std.c ****         /* Return API State as it was defined before */
1182:Generated_Source\PSoC5/USB_std.c ****         USB_EP[ep].apiEpState &= (uint8) ~USB_NO_EVENT_ALLOWED;
 1192              		.loc 1 1182 0
 1193 0034 5178     		ldrb	r1, [r2, #1]	@ zero_extendqisi2
 1194 0036 01F0FD01 		and	r1, r1, #253
 1195 003a 5170     		strb	r1, [r2, #1]
1183:Generated_Source\PSoC5/USB_std.c **** 
1184:Generated_Source\PSoC5/USB_std.c ****         if ((USB_EP[ep].addr & USB_DIR_IN) != 0u)
 1196              		.loc 1 1184 0
 1197 003c 1279     		ldrb	r2, [r2, #4]	@ zero_extendqisi2
 1198 003e 12F0800F 		tst	r2, #128
 1199 0042 13D0     		beq	.L97
1185:Generated_Source\PSoC5/USB_std.c ****         {
1186:Generated_Source\PSoC5/USB_std.c ****             /* IN Endpoint */
1187:Generated_Source\PSoC5/USB_std.c ****             if(USB_EP[ep].apiEpState == USB_IN_BUFFER_EMPTY)
 1200              		.loc 1 1187 0
 1201 0044 03EB4301 		add	r1, r3, r3, lsl #1
 1202 0048 8A00     		lsls	r2, r1, #2
 1203 004a 1649     		ldr	r1, .L104+4
 1204 004c 0A44     		add	r2, r2, r1
 1205 004e 5278     		ldrb	r2, [r2, #1]	@ zero_extendqisi2
 1206 0050 D2B2     		uxtb	r2, r2
 1207 0052 012A     		cmp	r2, #1
 1208 0054 04D1     		bne	.L98
1188:Generated_Source\PSoC5/USB_std.c ****             {       
1189:Generated_Source\PSoC5/USB_std.c ****                 /* Wait for next packet from application */
1190:Generated_Source\PSoC5/USB_std.c ****                 USB_SIE_EP_BASE.sieEp[ep].epCr0 = USB_MODE_NAK_IN;
 1209              		.loc 1 1190 0
 1210 0056 2246     		mov	r2, r4
 1211 0058 0244     		add	r2, r2, r0
 1212 005a 0C23     		movs	r3, #12
ARM GAS  C:\Users\Revanth\AppData\Local\Temp\cctCFyeS.s 			page 45


 1213              	.LVL116:
 1214 005c 9370     		strb	r3, [r2, #2]
 1215 005e 19E0     		b	.L99
 1216              	.LVL117:
 1217              	.L98:
1191:Generated_Source\PSoC5/USB_std.c ****             }
1192:Generated_Source\PSoC5/USB_std.c ****             else    /* Continue armed transfer */
1193:Generated_Source\PSoC5/USB_std.c ****             {
1194:Generated_Source\PSoC5/USB_std.c ****                 USB_SIE_EP_BASE.sieEp[ep].epCr0 = USB_MODE_ACK_IN;
 1218              		.loc 1 1194 0
 1219 0060 1B01     		lsls	r3, r3, #4
 1220              	.LVL118:
 1221 0062 114A     		ldr	r2, .L104+8
 1222 0064 1A44     		add	r2, r2, r3
 1223 0066 0D23     		movs	r3, #13
 1224 0068 9370     		strb	r3, [r2, #2]
 1225 006a 13E0     		b	.L99
 1226              	.LVL119:
 1227              	.L97:
1195:Generated_Source\PSoC5/USB_std.c ****             }
1196:Generated_Source\PSoC5/USB_std.c ****         }
1197:Generated_Source\PSoC5/USB_std.c ****         else
1198:Generated_Source\PSoC5/USB_std.c ****         {
1199:Generated_Source\PSoC5/USB_std.c ****             /* OUT Endpoint */
1200:Generated_Source\PSoC5/USB_std.c ****             if (USB_EP[ep].apiEpState == USB_OUT_BUFFER_FULL)
 1228              		.loc 1 1200 0
 1229 006c 03EB4301 		add	r1, r3, r3, lsl #1
 1230 0070 8A00     		lsls	r2, r1, #2
 1231 0072 0C49     		ldr	r1, .L104+4
 1232 0074 0A44     		add	r2, r2, r1
 1233 0076 5278     		ldrb	r2, [r2, #1]	@ zero_extendqisi2
 1234 0078 D2B2     		uxtb	r2, r2
 1235 007a 012A     		cmp	r2, #1
 1236 007c 05D1     		bne	.L100
1201:Generated_Source\PSoC5/USB_std.c ****             {       
1202:Generated_Source\PSoC5/USB_std.c ****                 /* Allow application to read full buffer */
1203:Generated_Source\PSoC5/USB_std.c ****                 USB_SIE_EP_BASE.sieEp[ep].epCr0 = USB_MODE_NAK_OUT;
 1237              		.loc 1 1203 0
 1238 007e 1B01     		lsls	r3, r3, #4
 1239              	.LVL120:
 1240 0080 094A     		ldr	r2, .L104+8
 1241 0082 1A44     		add	r2, r2, r3
 1242 0084 0823     		movs	r3, #8
 1243 0086 9370     		strb	r3, [r2, #2]
 1244 0088 04E0     		b	.L99
 1245              	.LVL121:
 1246              	.L100:
1204:Generated_Source\PSoC5/USB_std.c ****             }
1205:Generated_Source\PSoC5/USB_std.c ****             else    /* Mark endpoint as empty, so it will be reloaded */
1206:Generated_Source\PSoC5/USB_std.c ****             {
1207:Generated_Source\PSoC5/USB_std.c ****                 USB_SIE_EP_BASE.sieEp[ep].epCr0 = USB_MODE_ACK_OUT;
 1247              		.loc 1 1207 0
 1248 008a 1B01     		lsls	r3, r3, #4
 1249              	.LVL122:
 1250 008c 064A     		ldr	r2, .L104+8
 1251 008e 1A44     		add	r2, r2, r3
 1252 0090 0923     		movs	r3, #9
ARM GAS  C:\Users\Revanth\AppData\Local\Temp\cctCFyeS.s 			page 46


 1253 0092 9370     		strb	r3, [r2, #2]
 1254              	.L99:
1208:Generated_Source\PSoC5/USB_std.c ****             }
1209:Generated_Source\PSoC5/USB_std.c ****         }
1210:Generated_Source\PSoC5/USB_std.c ****         
1211:Generated_Source\PSoC5/USB_std.c ****         requestHandled = USB_InitNoDataControlTransfer();
 1255              		.loc 1 1211 0
 1256 0094 FFF7FEFF 		bl	USB_InitNoDataControlTransfer
 1257              	.LVL123:
 1258 0098 10BD     		pop	{r4, pc}
 1259              	.LVL124:
 1260              	.L101:
 1261              		.cfi_def_cfa_offset 0
 1262              		.cfi_restore 4
 1263              		.cfi_restore 14
1164:Generated_Source\PSoC5/USB_std.c ****     uint8 ep;
 1264              		.loc 1 1164 0
 1265 009a 0020     		movs	r0, #0
 1266 009c 7047     		bx	lr
 1267              	.L105:
 1268 009e 00BF     		.align	2
 1269              	.L104:
 1270 00a0 00600040 		.word	1073766400
 1271 00a4 00000000 		.word	USB_EP
 1272 00a8 FC5F0040 		.word	1073766396
 1273              		.cfi_endproc
 1274              	.LFE11:
 1275              		.size	USB_ClearEndpointHalt, .-USB_ClearEndpointHalt
 1276              		.section	.text.USB_ValidateAlternateSetting,"ax",%progbits
 1277              		.align	2
 1278              		.global	USB_ValidateAlternateSetting
 1279              		.thumb
 1280              		.thumb_func
 1281              		.type	USB_ValidateAlternateSetting, %function
 1282              	USB_ValidateAlternateSetting:
 1283              	.LFB12:
1212:Generated_Source\PSoC5/USB_std.c ****     }
1213:Generated_Source\PSoC5/USB_std.c **** 
1214:Generated_Source\PSoC5/USB_std.c ****     return(requestHandled);
1215:Generated_Source\PSoC5/USB_std.c **** }
1216:Generated_Source\PSoC5/USB_std.c **** 
1217:Generated_Source\PSoC5/USB_std.c **** 
1218:Generated_Source\PSoC5/USB_std.c **** /*******************************************************************************
1219:Generated_Source\PSoC5/USB_std.c **** * Function Name: USB_ValidateAlternateSetting
1220:Generated_Source\PSoC5/USB_std.c **** ****************************************************************************//**
1221:Generated_Source\PSoC5/USB_std.c **** *
1222:Generated_Source\PSoC5/USB_std.c **** *  Validates (and records) a SET INTERFACE request.
1223:Generated_Source\PSoC5/USB_std.c **** *
1224:Generated_Source\PSoC5/USB_std.c **** * \return
1225:Generated_Source\PSoC5/USB_std.c **** *  requestHandled.
1226:Generated_Source\PSoC5/USB_std.c **** *
1227:Generated_Source\PSoC5/USB_std.c **** * \reentrant
1228:Generated_Source\PSoC5/USB_std.c **** *  No.
1229:Generated_Source\PSoC5/USB_std.c **** *
1230:Generated_Source\PSoC5/USB_std.c **** *******************************************************************************/
1231:Generated_Source\PSoC5/USB_std.c **** uint8 USB_ValidateAlternateSetting(void) 
1232:Generated_Source\PSoC5/USB_std.c **** {
ARM GAS  C:\Users\Revanth\AppData\Local\Temp\cctCFyeS.s 			page 47


 1284              		.loc 1 1232 0
 1285              		.cfi_startproc
 1286              		@ args = 0, pretend = 0, frame = 0
 1287              		@ frame_needed = 0, uses_anonymous_args = 0
 1288 0000 10B5     		push	{r4, lr}
 1289              		.cfi_def_cfa_offset 8
 1290              		.cfi_offset 4, -8
 1291              		.cfi_offset 14, -4
 1292              	.LVL125:
1233:Generated_Source\PSoC5/USB_std.c ****     uint8 requestHandled = USB_FALSE;
1234:Generated_Source\PSoC5/USB_std.c ****     
1235:Generated_Source\PSoC5/USB_std.c ****     uint8 interfaceNum;
1236:Generated_Source\PSoC5/USB_std.c ****     uint8 curInterfacesNum;
1237:Generated_Source\PSoC5/USB_std.c ****     const T_USB_LUT CYCODE *pTmp;
1238:Generated_Source\PSoC5/USB_std.c ****     
1239:Generated_Source\PSoC5/USB_std.c ****     /* Get interface number from the request. */
1240:Generated_Source\PSoC5/USB_std.c ****     interfaceNum = (uint8) USB_wIndexLoReg;
 1293              		.loc 1 1240 0
 1294 0002 0E4B     		ldr	r3, .L111
 1295 0004 1C79     		ldrb	r4, [r3, #4]	@ zero_extendqisi2
 1296 0006 E4B2     		uxtb	r4, r4
 1297              	.LVL126:
1241:Generated_Source\PSoC5/USB_std.c ****     
1242:Generated_Source\PSoC5/USB_std.c ****     /* Get number of interfaces for current configuration. */
1243:Generated_Source\PSoC5/USB_std.c ****     pTmp = USB_GetConfigTablePtr(USB_configuration - 1u);
 1298              		.loc 1 1243 0
 1299 0008 0D4B     		ldr	r3, .L111+4
 1300 000a 1878     		ldrb	r0, [r3]	@ zero_extendqisi2
 1301 000c 0138     		subs	r0, r0, #1
 1302 000e C0B2     		uxtb	r0, r0
 1303 0010 FFF7FEFF 		bl	USB_GetConfigTablePtr
 1304              	.LVL127:
1244:Generated_Source\PSoC5/USB_std.c ****     curInterfacesNum  = ((const uint8 *) pTmp->p_list)[USB_CONFIG_DESCR_NUM_INTERFACES];
 1305              		.loc 1 1244 0
 1306 0014 4368     		ldr	r3, [r0, #4]
 1307 0016 1B79     		ldrb	r3, [r3, #4]	@ zero_extendqisi2
 1308              	.LVL128:
1245:Generated_Source\PSoC5/USB_std.c **** 
1246:Generated_Source\PSoC5/USB_std.c ****     /* Validate that interface number is within range. */
1247:Generated_Source\PSoC5/USB_std.c ****     if ((interfaceNum <= curInterfacesNum) || (interfaceNum <= USB_MAX_INTERFACES_NUMBER))
 1309              		.loc 1 1247 0
 1310 0018 9C42     		cmp	r4, r3
 1311 001a 01D9     		bls	.L107
 1312              		.loc 1 1247 0 is_stmt 0 discriminator 1
 1313 001c 022C     		cmp	r4, #2
 1314 001e 0AD8     		bhi	.L109
 1315              	.L107:
1248:Generated_Source\PSoC5/USB_std.c ****     {
1249:Generated_Source\PSoC5/USB_std.c ****         /* Save current and new alternate settings (come with request) to make 
1250:Generated_Source\PSoC5/USB_std.c ****         * desicion about following endpoint re-configuration.
1251:Generated_Source\PSoC5/USB_std.c ****         */
1252:Generated_Source\PSoC5/USB_std.c ****         USB_interfaceSettingLast[interfaceNum] = USB_interfaceSetting[interfaceNum];
 1316              		.loc 1 1252 0 is_stmt 1
 1317 0020 084A     		ldr	r2, .L111+8
 1318 0022 135D     		ldrb	r3, [r2, r4]	@ zero_extendqisi2
 1319              	.LVL129:
 1320 0024 DBB2     		uxtb	r3, r3
ARM GAS  C:\Users\Revanth\AppData\Local\Temp\cctCFyeS.s 			page 48


 1321 0026 0849     		ldr	r1, .L111+12
 1322 0028 0B55     		strb	r3, [r1, r4]
1253:Generated_Source\PSoC5/USB_std.c ****         USB_interfaceSetting[interfaceNum]     = (uint8) USB_wValueLoReg;
 1323              		.loc 1 1253 0
 1324 002a 044B     		ldr	r3, .L111
 1325 002c 9B78     		ldrb	r3, [r3, #2]	@ zero_extendqisi2
 1326 002e DBB2     		uxtb	r3, r3
 1327 0030 1355     		strb	r3, [r2, r4]
 1328              	.LVL130:
1254:Generated_Source\PSoC5/USB_std.c ****         
1255:Generated_Source\PSoC5/USB_std.c ****         requestHandled = USB_TRUE;
 1329              		.loc 1 1255 0
 1330 0032 0120     		movs	r0, #1
 1331              	.LVL131:
 1332 0034 10BD     		pop	{r4, pc}
 1333              	.LVL132:
 1334              	.L109:
1233:Generated_Source\PSoC5/USB_std.c ****     
 1335              		.loc 1 1233 0
 1336 0036 0020     		movs	r0, #0
 1337              	.LVL133:
1256:Generated_Source\PSoC5/USB_std.c ****     }
1257:Generated_Source\PSoC5/USB_std.c **** 
1258:Generated_Source\PSoC5/USB_std.c ****     return (requestHandled);
1259:Generated_Source\PSoC5/USB_std.c **** }
 1338              		.loc 1 1259 0
 1339 0038 10BD     		pop	{r4, pc}
 1340              	.LVL134:
 1341              	.L112:
 1342 003a 00BF     		.align	2
 1343              	.L111:
 1344 003c 00600040 		.word	1073766400
 1345 0040 00000000 		.word	USB_configuration
 1346 0044 00000000 		.word	USB_interfaceSetting
 1347 0048 00000000 		.word	USB_interfaceSettingLast
 1348              		.cfi_endproc
 1349              	.LFE12:
 1350              		.size	USB_ValidateAlternateSetting, .-USB_ValidateAlternateSetting
 1351              		.section	.text.USB_HandleStandardRqst,"ax",%progbits
 1352              		.align	2
 1353              		.global	USB_HandleStandardRqst
 1354              		.thumb
 1355              		.thumb_func
 1356              		.type	USB_HandleStandardRqst, %function
 1357              	USB_HandleStandardRqst:
 1358              	.LFB0:
  85:Generated_Source\PSoC5/USB_std.c ****     uint8 requestHandled = USB_FALSE;
 1359              		.loc 1 85 0
 1360              		.cfi_startproc
 1361              		@ args = 0, pretend = 0, frame = 0
 1362              		@ frame_needed = 0, uses_anonymous_args = 0
 1363 0000 10B5     		push	{r4, lr}
 1364              		.cfi_def_cfa_offset 8
 1365              		.cfi_offset 4, -8
 1366              		.cfi_offset 14, -4
 1367              	.LVL135:
  89:Generated_Source\PSoC5/USB_std.c **** 
ARM GAS  C:\Users\Revanth\AppData\Local\Temp\cctCFyeS.s 			page 49


 1368              		.loc 1 89 0
 1369 0002 964B     		ldr	r3, .L170
 1370 0004 1B78     		ldrb	r3, [r3]	@ zero_extendqisi2
 1371 0006 DBB2     		uxtb	r3, r3
 1372              	.LVL136:
 102:Generated_Source\PSoC5/USB_std.c **** 
 1373              		.loc 1 102 0
 1374 0008 0021     		movs	r1, #0
 1375 000a 954A     		ldr	r2, .L170+4
 1376 000c 1180     		strh	r1, [r2]	@ movhi
 104:Generated_Source\PSoC5/USB_std.c ****     {
 1377              		.loc 1 104 0
 1378 000e 13F0800F 		tst	r3, #128
 1379 0012 00F0B380 		beq	.L114
 107:Generated_Source\PSoC5/USB_std.c ****         {
 1380              		.loc 1 107 0
 1381 0016 914A     		ldr	r2, .L170
 1382 0018 5278     		ldrb	r2, [r2, #1]	@ zero_extendqisi2
 1383 001a D2B2     		uxtb	r2, r2
 1384 001c 0A2A     		cmp	r2, #10
 1385 001e 00F27981 		bhi	.L148
 1386 0022 DFE812F0 		tbh	[pc, r2, lsl #1]
 1387              	.L117:
 1388 0026 6F00     		.2byte	(.L116-.L117)/2
 1389 0028 7701     		.2byte	(.L148-.L117)/2
 1390 002a 7701     		.2byte	(.L148-.L117)/2
 1391 002c 7701     		.2byte	(.L148-.L117)/2
 1392 002e 7701     		.2byte	(.L148-.L117)/2
 1393 0030 7701     		.2byte	(.L148-.L117)/2
 1394 0032 0B00     		.2byte	(.L118-.L117)/2
 1395 0034 7701     		.2byte	(.L148-.L117)/2
 1396 0036 9800     		.2byte	(.L119-.L117)/2
 1397 0038 7701     		.2byte	(.L148-.L117)/2
 1398 003a A000     		.2byte	(.L120-.L117)/2
 1399              		.p2align 1
 1400              	.L118:
 110:Generated_Source\PSoC5/USB_std.c ****                 {
 1401              		.loc 1 110 0
 1402 003c 874B     		ldr	r3, .L170
 1403              	.LVL137:
 1404 003e DB78     		ldrb	r3, [r3, #3]	@ zero_extendqisi2
 1405 0040 DBB2     		uxtb	r3, r3
 1406 0042 012B     		cmp	r3, #1
 1407 0044 09D1     		bne	.L121
 112:Generated_Source\PSoC5/USB_std.c ****                     USB_currentTD.pData = (volatile uint8 *)pTmp->p_list;
 1408              		.loc 1 112 0
 1409 0046 FFF7FEFF 		bl	USB_GetDeviceTablePtr
 1410              	.LVL138:
 113:Generated_Source\PSoC5/USB_std.c ****                     USB_currentTD.count = USB_DEVICE_DESCR_LENGTH;
 1411              		.loc 1 113 0
 1412 004a 4268     		ldr	r2, [r0, #4]
 1413 004c 844B     		ldr	r3, .L170+4
 1414 004e 5A60     		str	r2, [r3, #4]
 114:Generated_Source\PSoC5/USB_std.c ****                     
 1415              		.loc 1 114 0
 1416 0050 1222     		movs	r2, #18
 1417 0052 1A80     		strh	r2, [r3]	@ movhi
ARM GAS  C:\Users\Revanth\AppData\Local\Temp\cctCFyeS.s 			page 50


 116:Generated_Source\PSoC5/USB_std.c ****                 }
 1418              		.loc 1 116 0
 1419 0054 FFF7FEFF 		bl	USB_InitControlRead
 1420              	.LVL139:
 1421 0058 10BD     		pop	{r4, pc}
 1422              	.LVL140:
 1423              	.L121:
 118:Generated_Source\PSoC5/USB_std.c ****                 {
 1424              		.loc 1 118 0
 1425 005a 804B     		ldr	r3, .L170
 1426 005c DB78     		ldrb	r3, [r3, #3]	@ zero_extendqisi2
 1427 005e DBB2     		uxtb	r3, r3
 1428 0060 022B     		cmp	r3, #2
 1429 0062 13D1     		bne	.L122
 120:Generated_Source\PSoC5/USB_std.c ****                     
 1430              		.loc 1 120 0
 1431 0064 7D4B     		ldr	r3, .L170
 1432 0066 9878     		ldrb	r0, [r3, #2]	@ zero_extendqisi2
 1433 0068 FFF7FEFF 		bl	USB_GetConfigTablePtr
 1434              	.LVL141:
 123:Generated_Source\PSoC5/USB_std.c ****                     {
 1435              		.loc 1 123 0
 1436 006c 0028     		cmp	r0, #0
 1437 006e 00F05381 		beq	.L149
 125:Generated_Source\PSoC5/USB_std.c ****                         USB_currentTD.count = (uint16)((uint16)(USB_currentTD.pData)[USB_CONFIG_DES
 1438              		.loc 1 125 0
 1439 0072 4268     		ldr	r2, [r0, #4]
 1440 0074 7A4B     		ldr	r3, .L170+4
 1441 0076 5A60     		str	r2, [r3, #4]
 126:Generated_Source\PSoC5/USB_std.c ****                                                                             (USB_currentTD.pData)[U
 1442              		.loc 1 126 0
 1443 0078 5A68     		ldr	r2, [r3, #4]
 1444 007a D178     		ldrb	r1, [r2, #3]	@ zero_extendqisi2
 127:Generated_Source\PSoC5/USB_std.c ****                         requestHandled  = USB_InitControlRead();
 1445              		.loc 1 127 0
 1446 007c 5A68     		ldr	r2, [r3, #4]
 1447 007e 9278     		ldrb	r2, [r2, #2]	@ zero_extendqisi2
 126:Generated_Source\PSoC5/USB_std.c ****                                                                             (USB_currentTD.pData)[U
 1448              		.loc 1 126 0
 1449 0080 42EA0122 		orr	r2, r2, r1, lsl #8
 1450 0084 1A80     		strh	r2, [r3]	@ movhi
 128:Generated_Source\PSoC5/USB_std.c ****                     }
 1451              		.loc 1 128 0
 1452 0086 FFF7FEFF 		bl	USB_InitControlRead
 1453              	.LVL142:
 1454 008a 10BD     		pop	{r4, pc}
 1455              	.LVL143:
 1456              	.L122:
 149:Generated_Source\PSoC5/USB_std.c ****                 {
 1457              		.loc 1 149 0
 1458 008c 734B     		ldr	r3, .L170
 1459 008e DB78     		ldrb	r3, [r3, #3]	@ zero_extendqisi2
 1460 0090 DBB2     		uxtb	r3, r3
 1461 0092 032B     		cmp	r3, #3
 1462 0094 05D0     		beq	.L150
 1463 0096 32E0     		b	.L165
 1464              	.LVL144:
ARM GAS  C:\Users\Revanth\AppData\Local\Temp\cctCFyeS.s 			page 51


 1465              	.L126:
 159:Generated_Source\PSoC5/USB_std.c ****                         /* Move to next string descriptor */
 1466              		.loc 1 159 0
 1467 0098 0A78     		ldrb	r2, [r1]	@ zero_extendqisi2
 1468              	.LVL145:
 161:Generated_Source\PSoC5/USB_std.c ****                         nStr++;
 1469              		.loc 1 161 0
 1470 009a 1144     		add	r1, r1, r2
 1471              	.LVL146:
 162:Generated_Source\PSoC5/USB_std.c ****                     }
 1472              		.loc 1 162 0
 1473 009c 0133     		adds	r3, r3, #1
 1474              	.LVL147:
 1475 009e DBB2     		uxtb	r3, r3
 1476              	.LVL148:
 1477 00a0 01E0     		b	.L123
 1478              	.LVL149:
 1479              	.L150:
 1480 00a2 0023     		movs	r3, #0
 1481 00a4 6F49     		ldr	r1, .L170+8
 1482              	.LVL150:
 1483              	.L123:
 156:Generated_Source\PSoC5/USB_std.c ****                     {
 1484              		.loc 1 156 0
 1485 00a6 6D4A     		ldr	r2, .L170
 1486 00a8 9278     		ldrb	r2, [r2, #2]	@ zero_extendqisi2
 1487 00aa D2B2     		uxtb	r2, r2
 1488 00ac 9342     		cmp	r3, r2
 1489 00ae 03D2     		bcs	.L125
 156:Generated_Source\PSoC5/USB_std.c ****                     {
 1490              		.loc 1 156 0 is_stmt 0 discriminator 1
 1491 00b0 0A78     		ldrb	r2, [r1]	@ zero_extendqisi2
 1492 00b2 12F0FF0F 		tst	r2, #255
 1493 00b6 EFD1     		bne	.L126
 1494              	.L125:
 168:Generated_Source\PSoC5/USB_std.c ****                     {
 1495              		.loc 1 168 0 is_stmt 1
 1496 00b8 684B     		ldr	r3, .L170
 1497              	.LVL151:
 1498 00ba 9B78     		ldrb	r3, [r3, #2]	@ zero_extendqisi2
 1499 00bc DBB2     		uxtb	r3, r3
 1500 00be EE2B     		cmp	r3, #238
 1501 00c0 00D1     		bne	.L127
 170:Generated_Source\PSoC5/USB_std.c ****                     }
 1502              		.loc 1 170 0
 1503 00c2 6949     		ldr	r1, .L170+12
 1504              	.LVL152:
 1505              	.L127:
 176:Generated_Source\PSoC5/USB_std.c ****                         (USB_wValueLoReg == USB_DEVICE0_DESCR[USB_DEVICE_DESCR_SN_SHIFT]))
 1506              		.loc 1 176 0
 1507 00c4 654B     		ldr	r3, .L170
 1508 00c6 9B78     		ldrb	r3, [r3, #2]	@ zero_extendqisi2
 1509 00c8 13F0FF0F 		tst	r3, #255
 1510 00cc 0BD0     		beq	.L128
 177:Generated_Source\PSoC5/USB_std.c ****                     {
 1511              		.loc 1 177 0 discriminator 1
 1512 00ce 634B     		ldr	r3, .L170
ARM GAS  C:\Users\Revanth\AppData\Local\Temp\cctCFyeS.s 			page 52


 1513 00d0 9B78     		ldrb	r3, [r3, #2]	@ zero_extendqisi2
 1514 00d2 DBB2     		uxtb	r3, r3
 1515 00d4 654A     		ldr	r2, .L170+16
 1516 00d6 127C     		ldrb	r2, [r2, #16]	@ zero_extendqisi2
 176:Generated_Source\PSoC5/USB_std.c ****                         (USB_wValueLoReg == USB_DEVICE0_DESCR[USB_DEVICE_DESCR_SN_SHIFT]))
 1517              		.loc 1 176 0 discriminator 1
 1518 00d8 9342     		cmp	r3, r2
 1519 00da 04D1     		bne	.L128
 181:Generated_Source\PSoC5/USB_std.c ****                         pStr = USB_idSerialNumberStringDescriptor;
 1520              		.loc 1 181 0
 1521 00dc 644C     		ldr	r4, .L170+20
 1522 00de 2046     		mov	r0, r4
 1523 00e0 FFF7FEFF 		bl	USB_ReadDieID
 1524              	.LVL153:
 182:Generated_Source\PSoC5/USB_std.c ****                     #elif defined(USB_ENABLE_FWSN_STRING)
 1525              		.loc 1 182 0
 1526 00e4 2146     		mov	r1, r4
 1527              	.LVL154:
 1528              	.L128:
 199:Generated_Source\PSoC5/USB_std.c ****                     {
 1529              		.loc 1 199 0
 1530 00e6 0B78     		ldrb	r3, [r1]	@ zero_extendqisi2
 1531 00e8 13F0FF0F 		tst	r3, #255
 1532 00ec 00F01681 		beq	.L152
 201:Generated_Source\PSoC5/USB_std.c ****                         USB_currentTD.pData = pStr;
 1533              		.loc 1 201 0
 1534 00f0 0B78     		ldrb	r3, [r1]	@ zero_extendqisi2
 1535 00f2 5B4A     		ldr	r2, .L170+4
 1536 00f4 1380     		strh	r3, [r2]	@ movhi
 202:Generated_Source\PSoC5/USB_std.c ****                         requestHandled  = USB_InitControlRead();
 1537              		.loc 1 202 0
 1538 00f6 5160     		str	r1, [r2, #4]
 203:Generated_Source\PSoC5/USB_std.c ****                     }
 1539              		.loc 1 203 0
 1540 00f8 FFF7FEFF 		bl	USB_InitControlRead
 1541              	.LVL155:
 1542 00fc 10BD     		pop	{r4, pc}
 1543              	.LVL156:
 1544              	.L165:
 209:Generated_Source\PSoC5/USB_std.c ****                 }
 1545              		.loc 1 209 0
 1546 00fe FFF7FEFF 		bl	USB_DispatchClassRqst
 1547              	.LVL157:
 1548 0102 10BD     		pop	{r4, pc}
 1549              	.LVL158:
 1550              	.L116:
 214:Generated_Source\PSoC5/USB_std.c ****                 {
 1551              		.loc 1 214 0
 1552 0104 13F00303 		ands	r3, r3, #3
 1553              	.LVL159:
 1554 0108 17D0     		beq	.L129
 1555 010a 022B     		cmp	r3, #2
 1556 010c 40F00881 		bne	.L166
 217:Generated_Source\PSoC5/USB_std.c ****                         USB_tBuffer[0u]     = USB_EP[USB_wIndexLoReg & USB_DIR_UNUSED].hwEpState;
 1557              		.loc 1 217 0
 1558 0110 5349     		ldr	r1, .L170+4
 1559 0112 0B80     		strh	r3, [r1]	@ movhi
ARM GAS  C:\Users\Revanth\AppData\Local\Temp\cctCFyeS.s 			page 53


 218:Generated_Source\PSoC5/USB_std.c ****                         USB_tBuffer[1u]     = 0u;
 1560              		.loc 1 218 0
 1561 0114 514B     		ldr	r3, .L170
 1562 0116 1B79     		ldrb	r3, [r3, #4]	@ zero_extendqisi2
 1563 0118 03F07F03 		and	r3, r3, #127
 1564 011c 03EB4303 		add	r3, r3, r3, lsl #1
 1565 0120 9A00     		lsls	r2, r3, #2
 1566 0122 544B     		ldr	r3, .L170+24
 1567 0124 1A44     		add	r2, r2, r3
 1568 0126 9278     		ldrb	r2, [r2, #2]	@ zero_extendqisi2
 1569 0128 D2B2     		uxtb	r2, r2
 1570 012a 534B     		ldr	r3, .L170+28
 1571 012c 1A70     		strb	r2, [r3]
 219:Generated_Source\PSoC5/USB_std.c ****                         USB_currentTD.pData = &USB_tBuffer[0u];
 1572              		.loc 1 219 0
 1573 012e 0022     		movs	r2, #0
 1574 0130 5A70     		strb	r2, [r3, #1]
 220:Generated_Source\PSoC5/USB_std.c ****                         
 1575              		.loc 1 220 0
 1576 0132 4B60     		str	r3, [r1, #4]
 222:Generated_Source\PSoC5/USB_std.c ****                         break;
 1577              		.loc 1 222 0
 1578 0134 FFF7FEFF 		bl	USB_InitControlRead
 1579              	.LVL160:
 223:Generated_Source\PSoC5/USB_std.c ****                     case USB_RQST_RCPT_DEV:
 1580              		.loc 1 223 0
 1581 0138 10BD     		pop	{r4, pc}
 1582              	.LVL161:
 1583              	.L129:
 225:Generated_Source\PSoC5/USB_std.c ****                         USB_tBuffer[0u]     = USB_deviceStatus;
 1584              		.loc 1 225 0
 1585 013a 4949     		ldr	r1, .L170+4
 1586 013c 0223     		movs	r3, #2
 1587 013e 0B80     		strh	r3, [r1]	@ movhi
 226:Generated_Source\PSoC5/USB_std.c ****                         USB_tBuffer[1u]     = 0u;
 1588              		.loc 1 226 0
 1589 0140 4E4B     		ldr	r3, .L170+32
 1590 0142 1A78     		ldrb	r2, [r3]	@ zero_extendqisi2
 1591 0144 D2B2     		uxtb	r2, r2
 1592 0146 4C4B     		ldr	r3, .L170+28
 1593 0148 1A70     		strb	r2, [r3]
 227:Generated_Source\PSoC5/USB_std.c ****                         USB_currentTD.pData = &USB_tBuffer[0u];
 1594              		.loc 1 227 0
 1595 014a 0022     		movs	r2, #0
 1596 014c 5A70     		strb	r2, [r3, #1]
 228:Generated_Source\PSoC5/USB_std.c ****                         
 1597              		.loc 1 228 0
 1598 014e 4B60     		str	r3, [r1, #4]
 230:Generated_Source\PSoC5/USB_std.c ****                         break;
 1599              		.loc 1 230 0
 1600 0150 FFF7FEFF 		bl	USB_InitControlRead
 1601              	.LVL162:
 231:Generated_Source\PSoC5/USB_std.c ****                     default:    /* requestHandled is initialized as FALSE by default */
 1602              		.loc 1 231 0
 1603 0154 10BD     		pop	{r4, pc}
 1604              	.LVL163:
 1605              	.L119:
ARM GAS  C:\Users\Revanth\AppData\Local\Temp\cctCFyeS.s 			page 54


 238:Generated_Source\PSoC5/USB_std.c ****                 USB_currentTD.pData = (volatile uint8 *) &USB_configuration;
 1606              		.loc 1 238 0
 1607 0156 424B     		ldr	r3, .L170+4
 1608              	.LVL164:
 1609 0158 0122     		movs	r2, #1
 1610 015a 1A80     		strh	r2, [r3]	@ movhi
 239:Generated_Source\PSoC5/USB_std.c ****                 requestHandled  = USB_InitControlRead();
 1611              		.loc 1 239 0
 1612 015c 484A     		ldr	r2, .L170+36
 1613 015e 5A60     		str	r2, [r3, #4]
 240:Generated_Source\PSoC5/USB_std.c ****                 break;
 1614              		.loc 1 240 0
 1615 0160 FFF7FEFF 		bl	USB_InitControlRead
 1616              	.LVL165:
 241:Generated_Source\PSoC5/USB_std.c ****                 
 1617              		.loc 1 241 0
 1618 0164 10BD     		pop	{r4, pc}
 1619              	.LVL166:
 1620              	.L120:
 244:Generated_Source\PSoC5/USB_std.c ****                 USB_currentTD.pData = (volatile uint8 *) &USB_interfaceSetting[USB_wIndexLoReg];
 1621              		.loc 1 244 0
 1622 0166 3E4A     		ldr	r2, .L170+4
 1623 0168 0123     		movs	r3, #1
 1624              	.LVL167:
 1625 016a 1380     		strh	r3, [r2]	@ movhi
 245:Generated_Source\PSoC5/USB_std.c ****                 requestHandled  = USB_InitControlRead();
 1626              		.loc 1 245 0
 1627 016c 3B4B     		ldr	r3, .L170
 1628 016e 1B79     		ldrb	r3, [r3, #4]	@ zero_extendqisi2
 1629 0170 4449     		ldr	r1, .L170+40
 1630 0172 0B44     		add	r3, r3, r1
 1631 0174 5360     		str	r3, [r2, #4]
 246:Generated_Source\PSoC5/USB_std.c ****                 break;
 1632              		.loc 1 246 0
 1633 0176 FFF7FEFF 		bl	USB_InitControlRead
 1634              	.LVL168:
 247:Generated_Source\PSoC5/USB_std.c ****                 
 1635              		.loc 1 247 0
 1636 017a 10BD     		pop	{r4, pc}
 1637              	.LVL169:
 1638              	.L114:
 256:Generated_Source\PSoC5/USB_std.c ****         {
 1639              		.loc 1 256 0
 1640 017c 374A     		ldr	r2, .L170
 1641 017e 5278     		ldrb	r2, [r2, #1]	@ zero_extendqisi2
 1642 0180 013A     		subs	r2, r2, #1
 1643 0182 0A2A     		cmp	r2, #10
 1644 0184 00F2CE80 		bhi	.L154
 1645 0188 DFE812F0 		tbh	[pc, r2, lsl #1]
 1646              	.L132:
 1647 018c 4C00     		.2byte	(.L131-.L132)/2
 1648 018e CC00     		.2byte	(.L154-.L132)/2
 1649 0190 9700     		.2byte	(.L133-.L132)/2
 1650 0192 CC00     		.2byte	(.L154-.L132)/2
 1651 0194 0B00     		.2byte	(.L134-.L132)/2
 1652 0196 CC00     		.2byte	(.L154-.L132)/2
 1653 0198 CC00     		.2byte	(.L154-.L132)/2
ARM GAS  C:\Users\Revanth\AppData\Local\Temp\cctCFyeS.s 			page 55


 1654 019a CC00     		.2byte	(.L154-.L132)/2
 1655 019c 1300     		.2byte	(.L135-.L132)/2
 1656 019e CC00     		.2byte	(.L154-.L132)/2
 1657 01a0 3000     		.2byte	(.L136-.L132)/2
 1658              		.p2align 1
 1659              	.L134:
 260:Generated_Source\PSoC5/USB_std.c ****                 requestHandled = USB_InitNoDataControlTransfer();
 1660              		.loc 1 260 0
 1661 01a2 2E4B     		ldr	r3, .L170
 1662              	.LVL170:
 1663 01a4 9B78     		ldrb	r3, [r3, #2]	@ zero_extendqisi2
 1664 01a6 DBB2     		uxtb	r3, r3
 1665 01a8 374A     		ldr	r2, .L170+44
 1666 01aa 1370     		strb	r3, [r2]
 261:Generated_Source\PSoC5/USB_std.c ****                 break;
 1667              		.loc 1 261 0
 1668 01ac FFF7FEFF 		bl	USB_InitNoDataControlTransfer
 1669              	.LVL171:
 262:Generated_Source\PSoC5/USB_std.c ****                 
 1670              		.loc 1 262 0
 1671 01b0 10BD     		pop	{r4, pc}
 1672              	.LVL172:
 1673              	.L135:
 265:Generated_Source\PSoC5/USB_std.c ****                 
 1674              		.loc 1 265 0
 1675 01b2 2A4B     		ldr	r3, .L170
 1676              	.LVL173:
 1677 01b4 9B78     		ldrb	r3, [r3, #2]	@ zero_extendqisi2
 1678              	.LVL174:
 268:Generated_Source\PSoC5/USB_std.c ****                 {
 1679              		.loc 1 268 0
 1680 01b6 03F0FF04 		and	r4, r3, #255
 1681 01ba 1BB1     		cbz	r3, .L137
 270:Generated_Source\PSoC5/USB_std.c ****                 }
 1682              		.loc 1 270 0
 1683 01bc 601E     		subs	r0, r4, #1
 1684 01be C0B2     		uxtb	r0, r0
 1685 01c0 FFF7FEFF 		bl	USB_GetConfigTablePtr
 1686              	.LVL175:
 1687              	.L137:
 274:Generated_Source\PSoC5/USB_std.c ****                 {
 1688              		.loc 1 274 0
 1689 01c4 04B1     		cbz	r4, .L138
 274:Generated_Source\PSoC5/USB_std.c ****                 {
 1690              		.loc 1 274 0 is_stmt 0 discriminator 1
 1691 01c6 10B9     		cbnz	r0, .L139
 1692              	.L138:
 274:Generated_Source\PSoC5/USB_std.c ****                 {
 1693              		.loc 1 274 0 discriminator 3
 1694 01c8 002C     		cmp	r4, #0
 1695 01ca 40F0AD80 		bne	.L155
 1696              	.L139:
 277:Generated_Source\PSoC5/USB_std.c ****                     {
 1697              		.loc 1 277 0 is_stmt 1
 1698 01ce 2C4B     		ldr	r3, .L170+36
 1699 01d0 1B78     		ldrb	r3, [r3]	@ zero_extendqisi2
 1700 01d2 DBB2     		uxtb	r3, r3
ARM GAS  C:\Users\Revanth\AppData\Local\Temp\cctCFyeS.s 			page 56


 1701 01d4 9C42     		cmp	r4, r3
 1702 01d6 06D0     		beq	.L140
 279:Generated_Source\PSoC5/USB_std.c ****                         USB_configurationChanged = USB_TRUE;
 1703              		.loc 1 279 0
 1704 01d8 294B     		ldr	r3, .L170+36
 1705 01da 1C70     		strb	r4, [r3]
 280:Generated_Source\PSoC5/USB_std.c ****                         USB_Config(USB_TRUE);
 1706              		.loc 1 280 0
 1707 01dc 0120     		movs	r0, #1
 1708              	.LVL176:
 1709 01de 2B4B     		ldr	r3, .L170+48
 1710 01e0 1870     		strb	r0, [r3]
 281:Generated_Source\PSoC5/USB_std.c ****                     }
 1711              		.loc 1 281 0
 1712 01e2 FFF7FEFF 		bl	USB_Config
 1713              	.LVL177:
 1714              	.L140:
 283:Generated_Source\PSoC5/USB_std.c ****                 }
 1715              		.loc 1 283 0
 1716 01e6 FFF7FEFF 		bl	USB_InitNoDataControlTransfer
 1717              	.LVL178:
 1718 01ea 10BD     		pop	{r4, pc}
 1719              	.LVL179:
 1720              	.L136:
 288:Generated_Source\PSoC5/USB_std.c ****                 {
 1721              		.loc 1 288 0
 1722 01ec FFF7FEFF 		bl	USB_ValidateAlternateSetting
 1723              	.LVL180:
 1724 01f0 0028     		cmp	r0, #0
 1725 01f2 00F09B80 		beq	.L156
 291:Generated_Source\PSoC5/USB_std.c ****                     USB_interfaceNumber = (uint8) USB_wIndexLoReg;
 1726              		.loc 1 291 0
 1727 01f6 194A     		ldr	r2, .L170
 1728 01f8 1379     		ldrb	r3, [r2, #4]	@ zero_extendqisi2
 1729 01fa DBB2     		uxtb	r3, r3
 1730              	.LVL181:
 292:Generated_Source\PSoC5/USB_std.c ****                      
 1731              		.loc 1 292 0
 1732 01fc 1279     		ldrb	r2, [r2, #4]	@ zero_extendqisi2
 1733 01fe D2B2     		uxtb	r2, r2
 1734 0200 2349     		ldr	r1, .L170+52
 1735 0202 0A70     		strb	r2, [r1]
 295:Generated_Source\PSoC5/USB_std.c ****                     {
 1736              		.loc 1 295 0
 1737 0204 234A     		ldr	r2, .L170+56
 1738 0206 D25C     		ldrb	r2, [r2, r3]	@ zero_extendqisi2
 1739 0208 D2B2     		uxtb	r2, r2
 1740 020a 1E49     		ldr	r1, .L170+40
 1741 020c CB5C     		ldrb	r3, [r1, r3]	@ zero_extendqisi2
 1742              	.LVL182:
 1743 020e DBB2     		uxtb	r3, r3
 1744 0210 9A42     		cmp	r2, r3
 1745 0212 04D0     		beq	.L141
 297:Generated_Source\PSoC5/USB_std.c ****                     
 1746              		.loc 1 297 0
 1747 0214 0122     		movs	r2, #1
 1748 0216 1D4B     		ldr	r3, .L170+48
ARM GAS  C:\Users\Revanth\AppData\Local\Temp\cctCFyeS.s 			page 57


 1749 0218 1A70     		strb	r2, [r3]
 303:Generated_Source\PSoC5/USB_std.c ****                     #endif /* (USB_EP_MANAGEMENT_MANUAL && USB_EP_ALLOC_DYNAMIC) */
 1750              		.loc 1 303 0
 1751 021a FFF7FEFF 		bl	USB_ConfigAltChanged
 1752              	.LVL183:
 1753              	.L141:
 307:Generated_Source\PSoC5/USB_std.c ****                 }
 1754              		.loc 1 307 0
 1755 021e FFF7FEFF 		bl	USB_InitNoDataControlTransfer
 1756              	.LVL184:
 1757 0222 10BD     		pop	{r4, pc}
 1758              	.LVL185:
 1759              	.L131:
 312:Generated_Source\PSoC5/USB_std.c ****                 {
 1760              		.loc 1 312 0
 1761 0224 03F00303 		and	r3, r3, #3
 1762              	.LVL186:
 1763 0228 012B     		cmp	r3, #1
 1764 022a 35D0     		beq	.L142
 1765 022c 4BB1     		cbz	r3, .L143
 1766 022e 022B     		cmp	r3, #2
 1767 0230 7ED1     		bne	.L167
 315:Generated_Source\PSoC5/USB_std.c ****                         {
 1768              		.loc 1 315 0
 1769 0232 0A4B     		ldr	r3, .L170
 1770 0234 9B78     		ldrb	r3, [r3, #2]	@ zero_extendqisi2
 1771 0236 13F0FF0F 		tst	r3, #255
 1772 023a 7BD1     		bne	.L158
 317:Generated_Source\PSoC5/USB_std.c ****                         }
 1773              		.loc 1 317 0
 1774 023c FFF7FEFF 		bl	USB_ClearEndpointHalt
 1775              	.LVL187:
 1776 0240 10BD     		pop	{r4, pc}
 1777              	.LVL188:
 1778              	.L143:
 322:Generated_Source\PSoC5/USB_std.c ****                         {
 1779              		.loc 1 322 0
 1780 0242 064B     		ldr	r3, .L170
 1781 0244 9B78     		ldrb	r3, [r3, #2]	@ zero_extendqisi2
 1782 0246 DBB2     		uxtb	r3, r3
 1783 0248 012B     		cmp	r3, #1
 1784 024a 75D1     		bne	.L159
 324:Generated_Source\PSoC5/USB_std.c ****                             requestHandled = USB_InitNoDataControlTransfer();
 1785              		.loc 1 324 0
 1786 024c 0B4A     		ldr	r2, .L170+32
 1787 024e 1378     		ldrb	r3, [r2]	@ zero_extendqisi2
 1788 0250 03F0FD03 		and	r3, r3, #253
 1789 0254 1370     		strb	r3, [r2]
 325:Generated_Source\PSoC5/USB_std.c ****                         }
 1790              		.loc 1 325 0
 1791 0256 FFF7FEFF 		bl	USB_InitNoDataControlTransfer
 1792              	.LVL189:
 1793 025a 10BD     		pop	{r4, pc}
 1794              	.L171:
 1795              		.align	2
 1796              	.L170:
 1797 025c 00600040 		.word	1073766400
ARM GAS  C:\Users\Revanth\AppData\Local\Temp\cctCFyeS.s 			page 58


 1798 0260 00000000 		.word	USB_currentTD
 1799 0264 00000000 		.word	USB_STRING_DESCRIPTORS
 1800 0268 00000000 		.word	USB_MSOS_DESCRIPTOR
 1801 026c 00000000 		.word	USB_DEVICE0_DESCR
 1802 0270 00000000 		.word	USB_idSerialNumberStringDescriptor
 1803 0274 00000000 		.word	USB_EP
 1804 0278 00000000 		.word	.LANCHOR0
 1805 027c 00000000 		.word	USB_deviceStatus
 1806 0280 00000000 		.word	USB_configuration
 1807 0284 00000000 		.word	USB_interfaceSetting
 1808 0288 00000000 		.word	USB_deviceAddress
 1809 028c 00000000 		.word	USB_configurationChanged
 1810 0290 00000000 		.word	USB_interfaceNumber
 1811 0294 00000000 		.word	USB_interfaceSettingLast
 1812              	.LVL190:
 1813              	.L142:
 330:Generated_Source\PSoC5/USB_std.c ****                         {
 1814              		.loc 1 330 0
 1815 0298 2D4B     		ldr	r3, .L172
 1816 029a 1B79     		ldrb	r3, [r3, #4]	@ zero_extendqisi2
 1817 029c DBB2     		uxtb	r3, r3
 1818 029e 012B     		cmp	r3, #1
 1819 02a0 4CD8     		bhi	.L160
 332:Generated_Source\PSoC5/USB_std.c ****                             requestHandled = USB_InitNoDataControlTransfer();
 1820              		.loc 1 332 0
 1821 02a2 2B4B     		ldr	r3, .L172
 1822 02a4 9878     		ldrb	r0, [r3, #2]	@ zero_extendqisi2
 1823 02a6 1B79     		ldrb	r3, [r3, #4]	@ zero_extendqisi2
 1824 02a8 DBB2     		uxtb	r3, r3
 1825 02aa 2A49     		ldr	r1, .L172+4
 1826 02ac CA5C     		ldrb	r2, [r1, r3]	@ zero_extendqisi2
 1827 02ae 22EA0002 		bic	r2, r2, r0
 1828 02b2 CA54     		strb	r2, [r1, r3]
 333:Generated_Source\PSoC5/USB_std.c ****                         }
 1829              		.loc 1 333 0
 1830 02b4 FFF7FEFF 		bl	USB_InitNoDataControlTransfer
 1831              	.LVL191:
 1832 02b8 10BD     		pop	{r4, pc}
 1833              	.LVL192:
 1834              	.L133:
 342:Generated_Source\PSoC5/USB_std.c ****                 {
 1835              		.loc 1 342 0
 1836 02ba 03F00303 		and	r3, r3, #3
 1837              	.LVL193:
 1838 02be 012B     		cmp	r3, #1
 1839 02c0 17D0     		beq	.L145
 1840 02c2 4BB1     		cbz	r3, .L146
 1841 02c4 022B     		cmp	r3, #2
 1842 02c6 3BD1     		bne	.L168
 345:Generated_Source\PSoC5/USB_std.c ****                         {
 1843              		.loc 1 345 0
 1844 02c8 214B     		ldr	r3, .L172
 1845 02ca 9B78     		ldrb	r3, [r3, #2]	@ zero_extendqisi2
 1846 02cc 13F0FF0F 		tst	r3, #255
 1847 02d0 38D1     		bne	.L162
 347:Generated_Source\PSoC5/USB_std.c ****                         }
 1848              		.loc 1 347 0
ARM GAS  C:\Users\Revanth\AppData\Local\Temp\cctCFyeS.s 			page 59


 1849 02d2 FFF7FEFF 		bl	USB_SetEndpointHalt
 1850              	.LVL194:
 1851 02d6 10BD     		pop	{r4, pc}
 1852              	.LVL195:
 1853              	.L146:
 353:Generated_Source\PSoC5/USB_std.c ****                         {
 1854              		.loc 1 353 0
 1855 02d8 1D4B     		ldr	r3, .L172
 1856 02da 9B78     		ldrb	r3, [r3, #2]	@ zero_extendqisi2
 1857 02dc DBB2     		uxtb	r3, r3
 1858 02de 012B     		cmp	r3, #1
 1859 02e0 32D1     		bne	.L163
 355:Generated_Source\PSoC5/USB_std.c ****                             requestHandled = USB_InitNoDataControlTransfer();
 1860              		.loc 1 355 0
 1861 02e2 1D4A     		ldr	r2, .L172+8
 1862 02e4 1378     		ldrb	r3, [r2]	@ zero_extendqisi2
 1863 02e6 43F00203 		orr	r3, r3, #2
 1864 02ea 1370     		strb	r3, [r2]
 356:Generated_Source\PSoC5/USB_std.c ****                         }
 1865              		.loc 1 356 0
 1866 02ec FFF7FEFF 		bl	USB_InitNoDataControlTransfer
 1867              	.LVL196:
 1868 02f0 10BD     		pop	{r4, pc}
 1869              	.LVL197:
 1870              	.L145:
 362:Generated_Source\PSoC5/USB_std.c ****                         {
 1871              		.loc 1 362 0
 1872 02f2 174B     		ldr	r3, .L172
 1873 02f4 1B79     		ldrb	r3, [r3, #4]	@ zero_extendqisi2
 1874 02f6 DBB2     		uxtb	r3, r3
 1875 02f8 012B     		cmp	r3, #1
 1876 02fa 27D8     		bhi	.L164
 364:Generated_Source\PSoC5/USB_std.c ****                             requestHandled = USB_InitNoDataControlTransfer();
 1877              		.loc 1 364 0
 1878 02fc 144B     		ldr	r3, .L172
 1879 02fe 9878     		ldrb	r0, [r3, #2]	@ zero_extendqisi2
 1880 0300 1B79     		ldrb	r3, [r3, #4]	@ zero_extendqisi2
 1881 0302 DBB2     		uxtb	r3, r3
 1882 0304 1349     		ldr	r1, .L172+4
 1883 0306 CA5C     		ldrb	r2, [r1, r3]	@ zero_extendqisi2
 1884 0308 22EA0002 		bic	r2, r2, r0
 1885 030c CA54     		strb	r2, [r1, r3]
 365:Generated_Source\PSoC5/USB_std.c ****                         }
 1886              		.loc 1 365 0
 1887 030e FFF7FEFF 		bl	USB_InitNoDataControlTransfer
 1888              	.LVL198:
 1889 0312 10BD     		pop	{r4, pc}
 1890              	.LVL199:
 1891              	.L148:
  86:Generated_Source\PSoC5/USB_std.c ****     uint8 interfaceNumber;
 1892              		.loc 1 86 0
 1893 0314 0020     		movs	r0, #0
 1894 0316 10BD     		pop	{r4, pc}
 1895              	.LVL200:
 1896              	.L149:
 1897 0318 0020     		movs	r0, #0
 1898              	.LVL201:
ARM GAS  C:\Users\Revanth\AppData\Local\Temp\cctCFyeS.s 			page 60


 1899 031a 10BD     		pop	{r4, pc}
 1900              	.LVL202:
 1901              	.L152:
 1902 031c 0020     		movs	r0, #0
 1903 031e 10BD     		pop	{r4, pc}
 1904              	.LVL203:
 1905              	.L166:
 1906 0320 0020     		movs	r0, #0
 1907 0322 10BD     		pop	{r4, pc}
 1908              	.LVL204:
 1909              	.L154:
 1910 0324 0020     		movs	r0, #0
 1911 0326 10BD     		pop	{r4, pc}
 1912              	.LVL205:
 1913              	.L155:
 1914 0328 0020     		movs	r0, #0
 1915              	.LVL206:
 1916 032a 10BD     		pop	{r4, pc}
 1917              	.L156:
 1918 032c 0020     		movs	r0, #0
 1919 032e 10BD     		pop	{r4, pc}
 1920              	.L167:
 1921 0330 0020     		movs	r0, #0
 1922 0332 10BD     		pop	{r4, pc}
 1923              	.L158:
 1924 0334 0020     		movs	r0, #0
 1925 0336 10BD     		pop	{r4, pc}
 1926              	.L159:
 1927 0338 0020     		movs	r0, #0
 1928 033a 10BD     		pop	{r4, pc}
 1929              	.L160:
 1930 033c 0020     		movs	r0, #0
 1931 033e 10BD     		pop	{r4, pc}
 1932              	.L168:
 1933 0340 0020     		movs	r0, #0
 1934 0342 10BD     		pop	{r4, pc}
 1935              	.L162:
 1936 0344 0020     		movs	r0, #0
 1937 0346 10BD     		pop	{r4, pc}
 1938              	.L163:
 1939 0348 0020     		movs	r0, #0
 1940 034a 10BD     		pop	{r4, pc}
 1941              	.L164:
 1942 034c 0020     		movs	r0, #0
 1943              	.LVL207:
 380:Generated_Source\PSoC5/USB_std.c **** 
 1944              		.loc 1 380 0
 1945 034e 10BD     		pop	{r4, pc}
 1946              	.L173:
 1947              		.align	2
 1948              	.L172:
 1949 0350 00600040 		.word	1073766400
 1950 0354 00000000 		.word	USB_interfaceStatus
 1951 0358 00000000 		.word	USB_deviceStatus
 1952              		.cfi_endproc
 1953              	.LFE0:
 1954              		.size	USB_HandleStandardRqst, .-USB_HandleStandardRqst
ARM GAS  C:\Users\Revanth\AppData\Local\Temp\cctCFyeS.s 			page 61


 1955              		.section	.rodata.str1.4,"aMS",%progbits,1
 1956              		.align	2
 1957              	.LC0:
 1958 0000 30313233 		.ascii	"0123456789ABCDEF\000"
 1958      34353637 
 1958      38394142 
 1958      43444546 
 1958      00
 1959              		.bss
 1960              		.align	2
 1961              		.set	.LANCHOR0,. + 0
 1962              		.type	USB_tBuffer.5262, %object
 1963              		.size	USB_tBuffer.5262, 2
 1964              	USB_tBuffer.5262:
 1965 0000 0000     		.space	2
 1966              		.text
 1967              	.Letext0:
 1968              		.file 2 "Generated_Source\\PSoC5\\cytypes.h"
 1969              		.file 3 "Generated_Source\\PSoC5\\USB.h"
 1970              		.file 4 "Generated_Source\\PSoC5\\USB_pvt.h"
 1971              		.file 5 "Generated_Source\\PSoC5\\CyLib.h"