ARM GAS  C:\Users\Revanth\AppData\Local\Temp\cctCFyeS.s 			page 1


   1              		.syntax unified
   2              		.cpu cortex-m3
   3              		.fpu softvfp
   4              		.eabi_attribute 20, 1
   5              		.eabi_attribute 21, 1
   6              		.eabi_attribute 23, 3
   7              		.eabi_attribute 24, 1
   8              		.eabi_attribute 25, 1
   9              		.eabi_attribute 26, 1
  10              		.eabi_attribute 30, 1
  11              		.eabi_attribute 34, 1
  12              		.eabi_attribute 18, 4
  13              		.thumb
  14              		.syntax unified
  15              		.file	"USB_std.c"
  16              		.text
  17              	.Ltext0:
  18              		.cfi_sections	.debug_frame
  19              		.section	.text.USB_ReadDieID,"ax",%progbits
  20              		.align	2
  21              		.global	USB_ReadDieID
  22              		.thumb
  23              		.thumb_func
  24              		.type	USB_ReadDieID, %function
  25              	USB_ReadDieID:
  26              	.LFB1:
  27              		.file 1 "Generated_Source\\PSoC5\\USB_std.c"
   1:Generated_Source\PSoC5/USB_std.c **** /***************************************************************************//**
   2:Generated_Source\PSoC5/USB_std.c **** * \file USB_std.c
   3:Generated_Source\PSoC5/USB_std.c **** * \version 3.20
   4:Generated_Source\PSoC5/USB_std.c **** *
   5:Generated_Source\PSoC5/USB_std.c **** * \brief
   6:Generated_Source\PSoC5/USB_std.c **** *  This file contains the USB Standard request handler.
   7:Generated_Source\PSoC5/USB_std.c **** *
   8:Generated_Source\PSoC5/USB_std.c **** ********************************************************************************
   9:Generated_Source\PSoC5/USB_std.c **** * \copyright
  10:Generated_Source\PSoC5/USB_std.c **** * Copyright 2008-2016, Cypress Semiconductor Corporation.  All rights reserved.
  11:Generated_Source\PSoC5/USB_std.c **** * You may use this file only in accordance with the license, terms, conditions,
  12:Generated_Source\PSoC5/USB_std.c **** * disclaimers, and limitations in the end user license agreement accompanying
  13:Generated_Source\PSoC5/USB_std.c **** * the software package with which this file was provided.
  14:Generated_Source\PSoC5/USB_std.c **** *******************************************************************************/
  15:Generated_Source\PSoC5/USB_std.c **** 
  16:Generated_Source\PSoC5/USB_std.c **** #include "USB_pvt.h"
  17:Generated_Source\PSoC5/USB_std.c **** 
  18:Generated_Source\PSoC5/USB_std.c **** /***************************************
  19:Generated_Source\PSoC5/USB_std.c **** *   Static data allocation
  20:Generated_Source\PSoC5/USB_std.c **** ***************************************/
  21:Generated_Source\PSoC5/USB_std.c **** 
  22:Generated_Source\PSoC5/USB_std.c **** #if defined(USB_ENABLE_FWSN_STRING)
  23:Generated_Source\PSoC5/USB_std.c ****     static volatile uint8* USB_fwSerialNumberStringDescriptor;
  24:Generated_Source\PSoC5/USB_std.c ****     static volatile uint8  USB_snStringConfirm = USB_FALSE;
  25:Generated_Source\PSoC5/USB_std.c **** #endif  /* (USB_ENABLE_FWSN_STRING) */
  26:Generated_Source\PSoC5/USB_std.c **** 
  27:Generated_Source\PSoC5/USB_std.c **** #if defined(USB_ENABLE_FWSN_STRING)
  28:Generated_Source\PSoC5/USB_std.c ****     /***************************************************************************
  29:Generated_Source\PSoC5/USB_std.c ****     * Function Name: USB_SerialNumString
  30:Generated_Source\PSoC5/USB_std.c ****     ************************************************************************//**
ARM GAS  C:\Users\Revanth\AppData\Local\Temp\cctCFyeS.s 			page 2


  31:Generated_Source\PSoC5/USB_std.c ****     *
  32:Generated_Source\PSoC5/USB_std.c ****     *  This function is available only when the User Call Back option in the 
  33:Generated_Source\PSoC5/USB_std.c ****     *  Serial Number String descriptor properties is selected. Application 
  34:Generated_Source\PSoC5/USB_std.c ****     *  firmware can provide the source of the USB device serial number string 
  35:Generated_Source\PSoC5/USB_std.c ****     *  descriptor during run time. The default string is used if the application 
  36:Generated_Source\PSoC5/USB_std.c ****     *  firmware does not use this function or sets the wrong string descriptor.
  37:Generated_Source\PSoC5/USB_std.c ****     *
  38:Generated_Source\PSoC5/USB_std.c ****     *  \param snString:  Pointer to the user-defined string descriptor. The 
  39:Generated_Source\PSoC5/USB_std.c ****     *  string descriptor should meet the Universal Serial Bus Specification 
  40:Generated_Source\PSoC5/USB_std.c ****     *  revision 2.0 chapter 9.6.7
  41:Generated_Source\PSoC5/USB_std.c ****     *  Offset|Size|Value|Description
  42:Generated_Source\PSoC5/USB_std.c ****     *  ------|----|------|---------------------------------
  43:Generated_Source\PSoC5/USB_std.c ****     *  0     |1   |N     |Size of this descriptor in bytes
  44:Generated_Source\PSoC5/USB_std.c ****     *  1     |1   |0x03  |STRING Descriptor Type
  45:Generated_Source\PSoC5/USB_std.c ****     *  2     |N-2 |Number|UNICODE encoded string
  46:Generated_Source\PSoC5/USB_std.c ****     *  
  47:Generated_Source\PSoC5/USB_std.c ****     * *For example:* uint8 snString[16]={0x0E,0x03,'F',0,'W',0,'S',0,'N',0,'0',0,'1',0};
  48:Generated_Source\PSoC5/USB_std.c ****     *
  49:Generated_Source\PSoC5/USB_std.c ****     * \reentrant
  50:Generated_Source\PSoC5/USB_std.c ****     *  No.
  51:Generated_Source\PSoC5/USB_std.c ****     *
  52:Generated_Source\PSoC5/USB_std.c ****     ***************************************************************************/
  53:Generated_Source\PSoC5/USB_std.c ****     void  USB_SerialNumString(uint8 snString[]) 
  54:Generated_Source\PSoC5/USB_std.c ****     {
  55:Generated_Source\PSoC5/USB_std.c ****         USB_snStringConfirm = USB_FALSE;
  56:Generated_Source\PSoC5/USB_std.c ****         
  57:Generated_Source\PSoC5/USB_std.c ****         if (snString != NULL)
  58:Generated_Source\PSoC5/USB_std.c ****         {
  59:Generated_Source\PSoC5/USB_std.c ****             /* Check descriptor validation */
  60:Generated_Source\PSoC5/USB_std.c ****             if ((snString[0u] > 1u) && (snString[1u] == USB_DESCR_STRING))
  61:Generated_Source\PSoC5/USB_std.c ****             {
  62:Generated_Source\PSoC5/USB_std.c ****                 USB_fwSerialNumberStringDescriptor = snString;
  63:Generated_Source\PSoC5/USB_std.c ****                 USB_snStringConfirm = USB_TRUE;
  64:Generated_Source\PSoC5/USB_std.c ****             }
  65:Generated_Source\PSoC5/USB_std.c ****         }
  66:Generated_Source\PSoC5/USB_std.c ****     }
  67:Generated_Source\PSoC5/USB_std.c **** #endif  /* USB_ENABLE_FWSN_STRING */
  68:Generated_Source\PSoC5/USB_std.c **** 
  69:Generated_Source\PSoC5/USB_std.c **** 
  70:Generated_Source\PSoC5/USB_std.c **** /*******************************************************************************
  71:Generated_Source\PSoC5/USB_std.c **** * Function Name: USB_HandleStandardRqst
  72:Generated_Source\PSoC5/USB_std.c **** ****************************************************************************//**
  73:Generated_Source\PSoC5/USB_std.c **** *
  74:Generated_Source\PSoC5/USB_std.c **** *  This Routine dispatches standard requests
  75:Generated_Source\PSoC5/USB_std.c **** *
  76:Generated_Source\PSoC5/USB_std.c **** *
  77:Generated_Source\PSoC5/USB_std.c **** * \return
  78:Generated_Source\PSoC5/USB_std.c **** *  TRUE if request handled.
  79:Generated_Source\PSoC5/USB_std.c **** *
  80:Generated_Source\PSoC5/USB_std.c **** * \reentrant
  81:Generated_Source\PSoC5/USB_std.c **** *  No.
  82:Generated_Source\PSoC5/USB_std.c **** *
  83:Generated_Source\PSoC5/USB_std.c **** *******************************************************************************/
  84:Generated_Source\PSoC5/USB_std.c **** uint8 USB_HandleStandardRqst(void) 
  85:Generated_Source\PSoC5/USB_std.c **** {
  86:Generated_Source\PSoC5/USB_std.c ****     uint8 requestHandled = USB_FALSE;
  87:Generated_Source\PSoC5/USB_std.c ****     uint8 interfaceNumber;
ARM GAS  C:\Users\Revanth\AppData\Local\Temp\cctCFyeS.s 			page 3


  88:Generated_Source\PSoC5/USB_std.c ****     uint8 configurationN;
  89:Generated_Source\PSoC5/USB_std.c ****     uint8 bmRequestType = USB_bmRequestTypeReg;
  90:Generated_Source\PSoC5/USB_std.c **** 
  91:Generated_Source\PSoC5/USB_std.c **** #if defined(USB_ENABLE_STRINGS)
  92:Generated_Source\PSoC5/USB_std.c ****     volatile uint8 *pStr = 0u;
  93:Generated_Source\PSoC5/USB_std.c ****     #if defined(USB_ENABLE_DESCRIPTOR_STRINGS)
  94:Generated_Source\PSoC5/USB_std.c ****         uint8 nStr;
  95:Generated_Source\PSoC5/USB_std.c ****         uint8 descrLength;
  96:Generated_Source\PSoC5/USB_std.c ****     #endif /* (USB_ENABLE_DESCRIPTOR_STRINGS) */
  97:Generated_Source\PSoC5/USB_std.c **** #endif /* (USB_ENABLE_STRINGS) */
  98:Generated_Source\PSoC5/USB_std.c ****     
  99:Generated_Source\PSoC5/USB_std.c ****     static volatile uint8 USB_tBuffer[USB_STATUS_LENGTH_MAX];
 100:Generated_Source\PSoC5/USB_std.c ****     const T_USB_LUT CYCODE *pTmp;
 101:Generated_Source\PSoC5/USB_std.c **** 
 102:Generated_Source\PSoC5/USB_std.c ****     USB_currentTD.count = 0u;
 103:Generated_Source\PSoC5/USB_std.c **** 
 104:Generated_Source\PSoC5/USB_std.c ****     if (USB_RQST_DIR_D2H == (bmRequestType & USB_RQST_DIR_MASK))
 105:Generated_Source\PSoC5/USB_std.c ****     {
 106:Generated_Source\PSoC5/USB_std.c ****         /* Control Read */
 107:Generated_Source\PSoC5/USB_std.c ****         switch (USB_bRequestReg)
 108:Generated_Source\PSoC5/USB_std.c ****         {
 109:Generated_Source\PSoC5/USB_std.c ****             case USB_GET_DESCRIPTOR:
 110:Generated_Source\PSoC5/USB_std.c ****                 if (USB_DESCR_DEVICE ==USB_wValueHiReg)
 111:Generated_Source\PSoC5/USB_std.c ****                 {
 112:Generated_Source\PSoC5/USB_std.c ****                     pTmp = USB_GetDeviceTablePtr();
 113:Generated_Source\PSoC5/USB_std.c ****                     USB_currentTD.pData = (volatile uint8 *)pTmp->p_list;
 114:Generated_Source\PSoC5/USB_std.c ****                     USB_currentTD.count = USB_DEVICE_DESCR_LENGTH;
 115:Generated_Source\PSoC5/USB_std.c ****                     
 116:Generated_Source\PSoC5/USB_std.c ****                     requestHandled  = USB_InitControlRead();
 117:Generated_Source\PSoC5/USB_std.c ****                 }
 118:Generated_Source\PSoC5/USB_std.c ****                 else if (USB_DESCR_CONFIG == USB_wValueHiReg)
 119:Generated_Source\PSoC5/USB_std.c ****                 {
 120:Generated_Source\PSoC5/USB_std.c ****                     pTmp = USB_GetConfigTablePtr((uint8) USB_wValueLoReg);
 121:Generated_Source\PSoC5/USB_std.c ****                     
 122:Generated_Source\PSoC5/USB_std.c ****                     /* Verify that requested descriptor exists */
 123:Generated_Source\PSoC5/USB_std.c ****                     if (pTmp != NULL)
 124:Generated_Source\PSoC5/USB_std.c ****                     {
 125:Generated_Source\PSoC5/USB_std.c ****                         USB_currentTD.pData = (volatile uint8 *)pTmp->p_list;
 126:Generated_Source\PSoC5/USB_std.c ****                         USB_currentTD.count = (uint16)((uint16)(USB_currentTD.pData)[USB_CONFIG_DES
 127:Generated_Source\PSoC5/USB_std.c ****                                                                             (USB_currentTD.pData)[U
 128:Generated_Source\PSoC5/USB_std.c ****                         requestHandled  = USB_InitControlRead();
 129:Generated_Source\PSoC5/USB_std.c ****                     }
 130:Generated_Source\PSoC5/USB_std.c ****                 }
 131:Generated_Source\PSoC5/USB_std.c ****                 
 132:Generated_Source\PSoC5/USB_std.c ****             #if(USB_BOS_ENABLE)
 133:Generated_Source\PSoC5/USB_std.c ****                 else if (USB_DESCR_BOS == USB_wValueHiReg)
 134:Generated_Source\PSoC5/USB_std.c ****                 {
 135:Generated_Source\PSoC5/USB_std.c ****                     pTmp = USB_GetBOSPtr();
 136:Generated_Source\PSoC5/USB_std.c ****                     
 137:Generated_Source\PSoC5/USB_std.c ****                     /* Verify that requested descriptor exists */
 138:Generated_Source\PSoC5/USB_std.c ****                     if (pTmp != NULL)
 139:Generated_Source\PSoC5/USB_std.c ****                     {
 140:Generated_Source\PSoC5/USB_std.c ****                         USB_currentTD.pData = (volatile uint8 *)pTmp;
 141:Generated_Source\PSoC5/USB_std.c ****                         USB_currentTD.count = ((uint16)((uint16)(USB_currentTD.pData)[USB_BOS_DESCR
 142:Generated_Source\PSoC5/USB_std.c ****                                                                              (USB_currentTD.pData)[
 143:Generated_Source\PSoC5/USB_std.c ****                         requestHandled  = USB_InitControlRead();
 144:Generated_Source\PSoC5/USB_std.c ****                     }
ARM GAS  C:\Users\Revanth\AppData\Local\Temp\cctCFyeS.s 			page 4


 145:Generated_Source\PSoC5/USB_std.c ****                 }
 146:Generated_Source\PSoC5/USB_std.c ****             #endif /*(USB_BOS_ENABLE)*/
 147:Generated_Source\PSoC5/USB_std.c ****             
 148:Generated_Source\PSoC5/USB_std.c ****             #if defined(USB_ENABLE_STRINGS)
 149:Generated_Source\PSoC5/USB_std.c ****                 else if (USB_DESCR_STRING == USB_wValueHiReg)
 150:Generated_Source\PSoC5/USB_std.c ****                 {
 151:Generated_Source\PSoC5/USB_std.c ****                 /* Descriptor Strings */
 152:Generated_Source\PSoC5/USB_std.c ****                 #if defined(USB_ENABLE_DESCRIPTOR_STRINGS)
 153:Generated_Source\PSoC5/USB_std.c ****                     nStr = 0u;
 154:Generated_Source\PSoC5/USB_std.c ****                     pStr = (volatile uint8 *) &USB_STRING_DESCRIPTORS[0u];
 155:Generated_Source\PSoC5/USB_std.c ****                     
 156:Generated_Source\PSoC5/USB_std.c ****                     while ((USB_wValueLoReg > nStr) && (*pStr != 0u))
 157:Generated_Source\PSoC5/USB_std.c ****                     {
 158:Generated_Source\PSoC5/USB_std.c ****                         /* Read descriptor length from 1st byte */
 159:Generated_Source\PSoC5/USB_std.c ****                         descrLength = *pStr;
 160:Generated_Source\PSoC5/USB_std.c ****                         /* Move to next string descriptor */
 161:Generated_Source\PSoC5/USB_std.c ****                         pStr = &pStr[descrLength];
 162:Generated_Source\PSoC5/USB_std.c ****                         nStr++;
 163:Generated_Source\PSoC5/USB_std.c ****                     }
 164:Generated_Source\PSoC5/USB_std.c ****                 #endif /* (USB_ENABLE_DESCRIPTOR_STRINGS) */
 165:Generated_Source\PSoC5/USB_std.c ****                 
 166:Generated_Source\PSoC5/USB_std.c ****                 /* Microsoft OS String */
 167:Generated_Source\PSoC5/USB_std.c ****                 #if defined(USB_ENABLE_MSOS_STRING)
 168:Generated_Source\PSoC5/USB_std.c ****                     if (USB_STRING_MSOS == USB_wValueLoReg)
 169:Generated_Source\PSoC5/USB_std.c ****                     {
 170:Generated_Source\PSoC5/USB_std.c ****                         pStr = (volatile uint8 *)& USB_MSOS_DESCRIPTOR[0u];
 171:Generated_Source\PSoC5/USB_std.c ****                     }
 172:Generated_Source\PSoC5/USB_std.c ****                 #endif /* (USB_ENABLE_MSOS_STRING) */
 173:Generated_Source\PSoC5/USB_std.c ****                 
 174:Generated_Source\PSoC5/USB_std.c ****                 /* SN string */
 175:Generated_Source\PSoC5/USB_std.c ****                 #if defined(USB_ENABLE_SN_STRING)
 176:Generated_Source\PSoC5/USB_std.c ****                     if ((USB_wValueLoReg != 0u) && 
 177:Generated_Source\PSoC5/USB_std.c ****                         (USB_wValueLoReg == USB_DEVICE0_DESCR[USB_DEVICE_DESCR_SN_SHIFT]))
 178:Generated_Source\PSoC5/USB_std.c ****                     {
 179:Generated_Source\PSoC5/USB_std.c ****                     #if defined(USB_ENABLE_IDSN_STRING)
 180:Generated_Source\PSoC5/USB_std.c ****                         /* Read DIE ID and generate string descriptor in RAM */
 181:Generated_Source\PSoC5/USB_std.c ****                         USB_ReadDieID(USB_idSerialNumberStringDescriptor);
 182:Generated_Source\PSoC5/USB_std.c ****                         pStr = USB_idSerialNumberStringDescriptor;
 183:Generated_Source\PSoC5/USB_std.c ****                     #elif defined(USB_ENABLE_FWSN_STRING)
 184:Generated_Source\PSoC5/USB_std.c ****                         
 185:Generated_Source\PSoC5/USB_std.c ****                         if(USB_snStringConfirm != USB_FALSE)
 186:Generated_Source\PSoC5/USB_std.c ****                         {
 187:Generated_Source\PSoC5/USB_std.c ****                             pStr = USB_fwSerialNumberStringDescriptor;
 188:Generated_Source\PSoC5/USB_std.c ****                         }
 189:Generated_Source\PSoC5/USB_std.c ****                         else
 190:Generated_Source\PSoC5/USB_std.c ****                         {
 191:Generated_Source\PSoC5/USB_std.c ****                             pStr = (volatile uint8 *)&USB_SN_STRING_DESCRIPTOR[0u];
 192:Generated_Source\PSoC5/USB_std.c ****                         }
 193:Generated_Source\PSoC5/USB_std.c ****                     #else
 194:Generated_Source\PSoC5/USB_std.c ****                         pStr = (volatile uint8 *)&USB_SN_STRING_DESCRIPTOR[0u];
 195:Generated_Source\PSoC5/USB_std.c ****                     #endif  /* (USB_ENABLE_IDSN_STRING) */
 196:Generated_Source\PSoC5/USB_std.c ****                     }
 197:Generated_Source\PSoC5/USB_std.c ****                 #endif /* (USB_ENABLE_SN_STRING) */
 198:Generated_Source\PSoC5/USB_std.c ****                 
 199:Generated_Source\PSoC5/USB_std.c ****                     if (*pStr != 0u)
 200:Generated_Source\PSoC5/USB_std.c ****                     {
 201:Generated_Source\PSoC5/USB_std.c ****                         USB_currentTD.count = *pStr;
ARM GAS  C:\Users\Revanth\AppData\Local\Temp\cctCFyeS.s 			page 5


 202:Generated_Source\PSoC5/USB_std.c ****                         USB_currentTD.pData = pStr;
 203:Generated_Source\PSoC5/USB_std.c ****                         requestHandled  = USB_InitControlRead();
 204:Generated_Source\PSoC5/USB_std.c ****                     }
 205:Generated_Source\PSoC5/USB_std.c ****                 }
 206:Generated_Source\PSoC5/USB_std.c ****             #endif /*  USB_ENABLE_STRINGS */
 207:Generated_Source\PSoC5/USB_std.c ****                 else
 208:Generated_Source\PSoC5/USB_std.c ****                 {
 209:Generated_Source\PSoC5/USB_std.c ****                     requestHandled = USB_DispatchClassRqst();
 210:Generated_Source\PSoC5/USB_std.c ****                 }
 211:Generated_Source\PSoC5/USB_std.c ****                 break;
 212:Generated_Source\PSoC5/USB_std.c ****                 
 213:Generated_Source\PSoC5/USB_std.c ****             case USB_GET_STATUS:
 214:Generated_Source\PSoC5/USB_std.c ****                 switch (bmRequestType & USB_RQST_RCPT_MASK)
 215:Generated_Source\PSoC5/USB_std.c ****                 {
 216:Generated_Source\PSoC5/USB_std.c ****                     case USB_RQST_RCPT_EP:
 217:Generated_Source\PSoC5/USB_std.c ****                         USB_currentTD.count = USB_EP_STATUS_LENGTH;
 218:Generated_Source\PSoC5/USB_std.c ****                         USB_tBuffer[0u]     = USB_EP[USB_wIndexLoReg & USB_DIR_UNUSED].hwEpState;
 219:Generated_Source\PSoC5/USB_std.c ****                         USB_tBuffer[1u]     = 0u;
 220:Generated_Source\PSoC5/USB_std.c ****                         USB_currentTD.pData = &USB_tBuffer[0u];
 221:Generated_Source\PSoC5/USB_std.c ****                         
 222:Generated_Source\PSoC5/USB_std.c ****                         requestHandled  = USB_InitControlRead();
 223:Generated_Source\PSoC5/USB_std.c ****                         break;
 224:Generated_Source\PSoC5/USB_std.c ****                     case USB_RQST_RCPT_DEV:
 225:Generated_Source\PSoC5/USB_std.c ****                         USB_currentTD.count = USB_DEVICE_STATUS_LENGTH;
 226:Generated_Source\PSoC5/USB_std.c ****                         USB_tBuffer[0u]     = USB_deviceStatus;
 227:Generated_Source\PSoC5/USB_std.c ****                         USB_tBuffer[1u]     = 0u;
 228:Generated_Source\PSoC5/USB_std.c ****                         USB_currentTD.pData = &USB_tBuffer[0u];
 229:Generated_Source\PSoC5/USB_std.c ****                         
 230:Generated_Source\PSoC5/USB_std.c ****                         requestHandled  = USB_InitControlRead();
 231:Generated_Source\PSoC5/USB_std.c ****                         break;
 232:Generated_Source\PSoC5/USB_std.c ****                     default:    /* requestHandled is initialized as FALSE by default */
 233:Generated_Source\PSoC5/USB_std.c ****                         break;
 234:Generated_Source\PSoC5/USB_std.c ****                 }
 235:Generated_Source\PSoC5/USB_std.c ****                 break;
 236:Generated_Source\PSoC5/USB_std.c ****                 
 237:Generated_Source\PSoC5/USB_std.c ****             case USB_GET_CONFIGURATION:
 238:Generated_Source\PSoC5/USB_std.c ****                 USB_currentTD.count = 1u;
 239:Generated_Source\PSoC5/USB_std.c ****                 USB_currentTD.pData = (volatile uint8 *) &USB_configuration;
 240:Generated_Source\PSoC5/USB_std.c ****                 requestHandled  = USB_InitControlRead();
 241:Generated_Source\PSoC5/USB_std.c ****                 break;
 242:Generated_Source\PSoC5/USB_std.c ****                 
 243:Generated_Source\PSoC5/USB_std.c ****             case USB_GET_INTERFACE:
 244:Generated_Source\PSoC5/USB_std.c ****                 USB_currentTD.count = 1u;
 245:Generated_Source\PSoC5/USB_std.c ****                 USB_currentTD.pData = (volatile uint8 *) &USB_interfaceSetting[USB_wIndexLoReg];
 246:Generated_Source\PSoC5/USB_std.c ****                 requestHandled  = USB_InitControlRead();
 247:Generated_Source\PSoC5/USB_std.c ****                 break;
 248:Generated_Source\PSoC5/USB_std.c ****                 
 249:Generated_Source\PSoC5/USB_std.c ****             default: /* requestHandled is initialized as FALSE by default */
 250:Generated_Source\PSoC5/USB_std.c ****                 break;
 251:Generated_Source\PSoC5/USB_std.c ****         }
 252:Generated_Source\PSoC5/USB_std.c ****     }
 253:Generated_Source\PSoC5/USB_std.c ****     else
 254:Generated_Source\PSoC5/USB_std.c ****     {
 255:Generated_Source\PSoC5/USB_std.c ****         /* Control Write */
 256:Generated_Source\PSoC5/USB_std.c ****         switch (USB_bRequestReg)
 257:Generated_Source\PSoC5/USB_std.c ****         {
 258:Generated_Source\PSoC5/USB_std.c ****             case USB_SET_ADDRESS:
ARM GAS  C:\Users\Revanth\AppData\Local\Temp\cctCFyeS.s 			page 6


 259:Generated_Source\PSoC5/USB_std.c ****                 /* Store address to be set in USB_NoDataControlStatusStage(). */
 260:Generated_Source\PSoC5/USB_std.c ****                 USB_deviceAddress = (uint8) USB_wValueLoReg;
 261:Generated_Source\PSoC5/USB_std.c ****                 requestHandled = USB_InitNoDataControlTransfer();
 262:Generated_Source\PSoC5/USB_std.c ****                 break;
 263:Generated_Source\PSoC5/USB_std.c ****                 
 264:Generated_Source\PSoC5/USB_std.c ****             case USB_SET_CONFIGURATION:
 265:Generated_Source\PSoC5/USB_std.c ****                 configurationN = USB_wValueLoReg;
 266:Generated_Source\PSoC5/USB_std.c ****                 
 267:Generated_Source\PSoC5/USB_std.c ****                 /* Verify that configuration descriptor exists */
 268:Generated_Source\PSoC5/USB_std.c ****                 if(configurationN > 0u)
 269:Generated_Source\PSoC5/USB_std.c ****                 {
 270:Generated_Source\PSoC5/USB_std.c ****                     pTmp = USB_GetConfigTablePtr((uint8) configurationN - 1u);
 271:Generated_Source\PSoC5/USB_std.c ****                 }
 272:Generated_Source\PSoC5/USB_std.c ****                 
 273:Generated_Source\PSoC5/USB_std.c ****                 /* Responds with a Request Error when configuration number is invalid */
 274:Generated_Source\PSoC5/USB_std.c ****                 if (((configurationN > 0u) && (pTmp != NULL)) || (configurationN == 0u))
 275:Generated_Source\PSoC5/USB_std.c ****                 {
 276:Generated_Source\PSoC5/USB_std.c ****                     /* Set new configuration if it has been changed */
 277:Generated_Source\PSoC5/USB_std.c ****                     if(configurationN != USB_configuration)
 278:Generated_Source\PSoC5/USB_std.c ****                     {
 279:Generated_Source\PSoC5/USB_std.c ****                         USB_configuration = (uint8) configurationN;
 280:Generated_Source\PSoC5/USB_std.c ****                         USB_configurationChanged = USB_TRUE;
 281:Generated_Source\PSoC5/USB_std.c ****                         USB_Config(USB_TRUE);
 282:Generated_Source\PSoC5/USB_std.c ****                     }
 283:Generated_Source\PSoC5/USB_std.c ****                     requestHandled = USB_InitNoDataControlTransfer();
 284:Generated_Source\PSoC5/USB_std.c ****                 }
 285:Generated_Source\PSoC5/USB_std.c ****                 break;
 286:Generated_Source\PSoC5/USB_std.c ****                 
 287:Generated_Source\PSoC5/USB_std.c ****             case USB_SET_INTERFACE:
 288:Generated_Source\PSoC5/USB_std.c ****                 if (0u != USB_ValidateAlternateSetting())
 289:Generated_Source\PSoC5/USB_std.c ****                 {
 290:Generated_Source\PSoC5/USB_std.c ****                     /* Get interface number from the request. */
 291:Generated_Source\PSoC5/USB_std.c ****                     interfaceNumber = USB_wIndexLoReg;
 292:Generated_Source\PSoC5/USB_std.c ****                     USB_interfaceNumber = (uint8) USB_wIndexLoReg;
 293:Generated_Source\PSoC5/USB_std.c ****                      
 294:Generated_Source\PSoC5/USB_std.c ****                     /* Check if alternate settings is changed for interface. */
 295:Generated_Source\PSoC5/USB_std.c ****                     if (USB_interfaceSettingLast[interfaceNumber] != USB_interfaceSetting[interface
 296:Generated_Source\PSoC5/USB_std.c ****                     {
 297:Generated_Source\PSoC5/USB_std.c ****                         USB_configurationChanged = USB_TRUE;
 298:Generated_Source\PSoC5/USB_std.c ****                     
 299:Generated_Source\PSoC5/USB_std.c ****                         /* Change alternate setting for the endpoints. */
 300:Generated_Source\PSoC5/USB_std.c ****                     #if (USB_EP_MANAGEMENT_MANUAL && USB_EP_ALLOC_DYNAMIC)
 301:Generated_Source\PSoC5/USB_std.c ****                         USB_Config(USB_FALSE);
 302:Generated_Source\PSoC5/USB_std.c ****                     #else
 303:Generated_Source\PSoC5/USB_std.c ****                         USB_ConfigAltChanged();
 304:Generated_Source\PSoC5/USB_std.c ****                     #endif /* (USB_EP_MANAGEMENT_MANUAL && USB_EP_ALLOC_DYNAMIC) */
 305:Generated_Source\PSoC5/USB_std.c ****                     }
 306:Generated_Source\PSoC5/USB_std.c ****                     
 307:Generated_Source\PSoC5/USB_std.c ****                     requestHandled = USB_InitNoDataControlTransfer();
 308:Generated_Source\PSoC5/USB_std.c ****                 }
 309:Generated_Source\PSoC5/USB_std.c ****                 break;
 310:Generated_Source\PSoC5/USB_std.c ****                 
 311:Generated_Source\PSoC5/USB_std.c ****             case USB_CLEAR_FEATURE:
 312:Generated_Source\PSoC5/USB_std.c ****                 switch (bmRequestType & USB_RQST_RCPT_MASK)
 313:Generated_Source\PSoC5/USB_std.c ****                 {
 314:Generated_Source\PSoC5/USB_std.c ****                     case USB_RQST_RCPT_EP:
 315:Generated_Source\PSoC5/USB_std.c ****                         if (USB_wValueLoReg == USB_ENDPOINT_HALT)
ARM GAS  C:\Users\Revanth\AppData\Local\Temp\cctCFyeS.s 			page 7


 316:Generated_Source\PSoC5/USB_std.c ****                         {
 317:Generated_Source\PSoC5/USB_std.c ****                             requestHandled = USB_ClearEndpointHalt();
 318:Generated_Source\PSoC5/USB_std.c ****                         }
 319:Generated_Source\PSoC5/USB_std.c ****                         break;
 320:Generated_Source\PSoC5/USB_std.c ****                     case USB_RQST_RCPT_DEV:
 321:Generated_Source\PSoC5/USB_std.c ****                         /* Clear device REMOTE_WAKEUP */
 322:Generated_Source\PSoC5/USB_std.c ****                         if (USB_wValueLoReg == USB_DEVICE_REMOTE_WAKEUP)
 323:Generated_Source\PSoC5/USB_std.c ****                         {
 324:Generated_Source\PSoC5/USB_std.c ****                             USB_deviceStatus &= (uint8)~USB_DEVICE_STATUS_REMOTE_WAKEUP;
 325:Generated_Source\PSoC5/USB_std.c ****                             requestHandled = USB_InitNoDataControlTransfer();
 326:Generated_Source\PSoC5/USB_std.c ****                         }
 327:Generated_Source\PSoC5/USB_std.c ****                         break;
 328:Generated_Source\PSoC5/USB_std.c ****                     case USB_RQST_RCPT_IFC:
 329:Generated_Source\PSoC5/USB_std.c ****                         /* Validate interfaceNumber */
 330:Generated_Source\PSoC5/USB_std.c ****                         if (USB_wIndexLoReg < USB_MAX_INTERFACES_NUMBER)
 331:Generated_Source\PSoC5/USB_std.c ****                         {
 332:Generated_Source\PSoC5/USB_std.c ****                             USB_interfaceStatus[USB_wIndexLoReg] &= (uint8) ~USB_wValueLoReg;
 333:Generated_Source\PSoC5/USB_std.c ****                             requestHandled = USB_InitNoDataControlTransfer();
 334:Generated_Source\PSoC5/USB_std.c ****                         }
 335:Generated_Source\PSoC5/USB_std.c ****                         break;
 336:Generated_Source\PSoC5/USB_std.c ****                     default:    /* requestHandled is initialized as FALSE by default */
 337:Generated_Source\PSoC5/USB_std.c ****                         break;
 338:Generated_Source\PSoC5/USB_std.c ****                 }
 339:Generated_Source\PSoC5/USB_std.c ****                 break;
 340:Generated_Source\PSoC5/USB_std.c ****                 
 341:Generated_Source\PSoC5/USB_std.c ****             case USB_SET_FEATURE:
 342:Generated_Source\PSoC5/USB_std.c ****                 switch (bmRequestType & USB_RQST_RCPT_MASK)
 343:Generated_Source\PSoC5/USB_std.c ****                 {
 344:Generated_Source\PSoC5/USB_std.c ****                     case USB_RQST_RCPT_EP:
 345:Generated_Source\PSoC5/USB_std.c ****                         if (USB_wValueLoReg == USB_ENDPOINT_HALT)
 346:Generated_Source\PSoC5/USB_std.c ****                         {
 347:Generated_Source\PSoC5/USB_std.c ****                             requestHandled = USB_SetEndpointHalt();
 348:Generated_Source\PSoC5/USB_std.c ****                         }
 349:Generated_Source\PSoC5/USB_std.c ****                         break;
 350:Generated_Source\PSoC5/USB_std.c ****                         
 351:Generated_Source\PSoC5/USB_std.c ****                     case USB_RQST_RCPT_DEV:
 352:Generated_Source\PSoC5/USB_std.c ****                         /* Set device REMOTE_WAKEUP */
 353:Generated_Source\PSoC5/USB_std.c ****                         if (USB_wValueLoReg == USB_DEVICE_REMOTE_WAKEUP)
 354:Generated_Source\PSoC5/USB_std.c ****                         {
 355:Generated_Source\PSoC5/USB_std.c ****                             USB_deviceStatus |= USB_DEVICE_STATUS_REMOTE_WAKEUP;
 356:Generated_Source\PSoC5/USB_std.c ****                             requestHandled = USB_InitNoDataControlTransfer();
 357:Generated_Source\PSoC5/USB_std.c ****                         }
 358:Generated_Source\PSoC5/USB_std.c ****                         break;
 359:Generated_Source\PSoC5/USB_std.c ****                         
 360:Generated_Source\PSoC5/USB_std.c ****                     case USB_RQST_RCPT_IFC:
 361:Generated_Source\PSoC5/USB_std.c ****                         /* Validate interfaceNumber */
 362:Generated_Source\PSoC5/USB_std.c ****                         if (USB_wIndexLoReg < USB_MAX_INTERFACES_NUMBER)
 363:Generated_Source\PSoC5/USB_std.c ****                         {
 364:Generated_Source\PSoC5/USB_std.c ****                             USB_interfaceStatus[USB_wIndexLoReg] &= (uint8) ~USB_wValueLoReg;
 365:Generated_Source\PSoC5/USB_std.c ****                             requestHandled = USB_InitNoDataControlTransfer();
 366:Generated_Source\PSoC5/USB_std.c ****                         }
 367:Generated_Source\PSoC5/USB_std.c ****                         break;
 368:Generated_Source\PSoC5/USB_std.c ****                     
 369:Generated_Source\PSoC5/USB_std.c ****                     default:    /* requestHandled is initialized as FALSE by default */
 370:Generated_Source\PSoC5/USB_std.c ****                         break;
 371:Generated_Source\PSoC5/USB_std.c ****                 }
 372:Generated_Source\PSoC5/USB_std.c ****                 break;
ARM GAS  C:\Users\Revanth\AppData\Local\Temp\cctCFyeS.s 			page 8


 373:Generated_Source\PSoC5/USB_std.c ****                 
 374:Generated_Source\PSoC5/USB_std.c ****             default:    /* requestHandled is initialized as FALSE by default */
 375:Generated_Source\PSoC5/USB_std.c ****                 break;
 376:Generated_Source\PSoC5/USB_std.c ****         }
 377:Generated_Source\PSoC5/USB_std.c ****     }
 378:Generated_Source\PSoC5/USB_std.c ****     
 379:Generated_Source\PSoC5/USB_std.c ****     return (requestHandled);
 380:Generated_Source\PSoC5/USB_std.c **** }
 381:Generated_Source\PSoC5/USB_std.c **** 
 382:Generated_Source\PSoC5/USB_std.c **** 
 383:Generated_Source\PSoC5/USB_std.c **** #if defined(USB_ENABLE_IDSN_STRING)
 384:Generated_Source\PSoC5/USB_std.c ****     /***************************************************************************
 385:Generated_Source\PSoC5/USB_std.c ****     * Function Name: USB_ReadDieID
 386:Generated_Source\PSoC5/USB_std.c ****     ************************************************************************//**
 387:Generated_Source\PSoC5/USB_std.c ****     *
 388:Generated_Source\PSoC5/USB_std.c ****     *  This routine read Die ID and generate Serial Number string descriptor.
 389:Generated_Source\PSoC5/USB_std.c ****     *
 390:Generated_Source\PSoC5/USB_std.c ****     *  \param descr:  pointer on string descriptor. This string size has to be equal or
 391:Generated_Source\PSoC5/USB_std.c ****     *          greater than USB_IDSN_DESCR_LENGTH.
 392:Generated_Source\PSoC5/USB_std.c ****     *
 393:Generated_Source\PSoC5/USB_std.c ****     *
 394:Generated_Source\PSoC5/USB_std.c ****     * \reentrant
 395:Generated_Source\PSoC5/USB_std.c ****     *  No.
 396:Generated_Source\PSoC5/USB_std.c ****     *
 397:Generated_Source\PSoC5/USB_std.c ****     ***************************************************************************/
 398:Generated_Source\PSoC5/USB_std.c ****     void USB_ReadDieID(uint8 descr[]) 
 399:Generated_Source\PSoC5/USB_std.c ****     {
  28              		.loc 1 399 0
  29              		.cfi_startproc
  30              		@ args = 0, pretend = 0, frame = 32
  31              		@ frame_needed = 0, uses_anonymous_args = 0
  32              	.LVL0:
  33 0000 70B5     		push	{r4, r5, r6, lr}
  34              		.cfi_def_cfa_offset 16
  35              		.cfi_offset 4, -16
  36              		.cfi_offset 5, -12
  37              		.cfi_offset 6, -8
  38              		.cfi_offset 14, -4
  39 0002 88B0     		sub	sp, sp, #32
  40              		.cfi_def_cfa_offset 48
  41 0004 0546     		mov	r5, r0
 400:Generated_Source\PSoC5/USB_std.c ****         const char8 CYCODE hex[] = "0123456789ABCDEF";
  42              		.loc 1 400 0
  43 0006 03AC     		add	r4, sp, #12
  44 0008 174E     		ldr	r6, .L6
  45 000a 0FCE     		ldmia	r6!, {r0, r1, r2, r3}
  46              	.LVL1:
  47 000c 0FC4     		stmia	r4!, {r0, r1, r2, r3}
  48 000e 3368     		ldr	r3, [r6]
  49 0010 2370     		strb	r3, [r4]
  50              	.LVL2:
 401:Generated_Source\PSoC5/USB_std.c ****         uint8 i;
 402:Generated_Source\PSoC5/USB_std.c ****         uint8 j = 0u;
 403:Generated_Source\PSoC5/USB_std.c ****         uint8 uniqueId[8u];
 404:Generated_Source\PSoC5/USB_std.c **** 
 405:Generated_Source\PSoC5/USB_std.c ****         if (NULL != descr)
  51              		.loc 1 405 0
ARM GAS  C:\Users\Revanth\AppData\Local\Temp\cctCFyeS.s 			page 9


  52 0012 35B3     		cbz	r5, .L1
 406:Generated_Source\PSoC5/USB_std.c ****         {
 407:Generated_Source\PSoC5/USB_std.c ****             /* Initialize descriptor header. */
 408:Generated_Source\PSoC5/USB_std.c ****             descr[0u] = USB_IDSN_DESCR_LENGTH;
  53              		.loc 1 408 0
  54 0014 2223     		movs	r3, #34
  55 0016 2B70     		strb	r3, [r5]
 409:Generated_Source\PSoC5/USB_std.c ****             descr[1u] = USB_DESCR_STRING;
  56              		.loc 1 409 0
  57 0018 0323     		movs	r3, #3
  58 001a 6B70     		strb	r3, [r5, #1]
 410:Generated_Source\PSoC5/USB_std.c ****             
 411:Generated_Source\PSoC5/USB_std.c ****             /* Unique ID size is 8 bytes. */
 412:Generated_Source\PSoC5/USB_std.c ****             CyGetUniqueId((uint32 *) uniqueId);
  59              		.loc 1 412 0
  60 001c 01A8     		add	r0, sp, #4
  61 001e FFF7FEFF 		bl	CyGetUniqueId
  62              	.LVL3:
 402:Generated_Source\PSoC5/USB_std.c ****         uint8 uniqueId[8u];
  63              		.loc 1 402 0
  64 0022 0024     		movs	r4, #0
 413:Generated_Source\PSoC5/USB_std.c **** 
 414:Generated_Source\PSoC5/USB_std.c ****             /* Fill descriptor with unique device ID. */
 415:Generated_Source\PSoC5/USB_std.c ****             for (i = 2u; i < USB_IDSN_DESCR_LENGTH; i += 4u)
  65              		.loc 1 415 0
  66 0024 0223     		movs	r3, #2
  67 0026 1AE0     		b	.L3
  68              	.LVL4:
  69              	.L4:
 416:Generated_Source\PSoC5/USB_std.c ****             {
 417:Generated_Source\PSoC5/USB_std.c ****                 descr[i]      = (uint8) hex[(uniqueId[j] >> 4u)];
  70              		.loc 1 417 0 discriminator 3
  71 0028 08AA     		add	r2, sp, #32
  72 002a 2244     		add	r2, r2, r4
  73 002c 12F81C2C 		ldrb	r2, [r2, #-28]	@ zero_extendqisi2
  74 0030 08A9     		add	r1, sp, #32
  75 0032 01EB1211 		add	r1, r1, r2, lsr #4
  76 0036 11F8141C 		ldrb	r1, [r1, #-20]	@ zero_extendqisi2
  77 003a E954     		strb	r1, [r5, r3]
 418:Generated_Source\PSoC5/USB_std.c ****                 descr[i + 1u] = 0u;
  78              		.loc 1 418 0 discriminator 3
  79 003c 581C     		adds	r0, r3, #1
  80 003e 0021     		movs	r1, #0
  81 0040 2954     		strb	r1, [r5, r0]
 419:Generated_Source\PSoC5/USB_std.c ****                 descr[i + 2u] = (uint8) hex[(uniqueId[j] & 0x0Fu)];
  82              		.loc 1 419 0 discriminator 3
  83 0042 981C     		adds	r0, r3, #2
  84 0044 02F00F02 		and	r2, r2, #15
  85 0048 08AE     		add	r6, sp, #32
  86 004a 3244     		add	r2, r2, r6
  87 004c 12F8142C 		ldrb	r2, [r2, #-20]	@ zero_extendqisi2
  88 0050 2A54     		strb	r2, [r5, r0]
 420:Generated_Source\PSoC5/USB_std.c ****                 descr[i + 3u] = 0u;
  89              		.loc 1 420 0 discriminator 3
  90 0052 DA1C     		adds	r2, r3, #3
  91 0054 A954     		strb	r1, [r5, r2]
 421:Generated_Source\PSoC5/USB_std.c ****                 ++j;
ARM GAS  C:\Users\Revanth\AppData\Local\Temp\cctCFyeS.s 			page 10


  92              		.loc 1 421 0 discriminator 3
  93 0056 0134     		adds	r4, r4, #1
  94              	.LVL5:
  95 0058 E4B2     		uxtb	r4, r4
  96              	.LVL6:
 415:Generated_Source\PSoC5/USB_std.c ****             {
  97              		.loc 1 415 0 discriminator 3
  98 005a 0433     		adds	r3, r3, #4
  99              	.LVL7:
 100 005c DBB2     		uxtb	r3, r3
 101              	.LVL8:
 102              	.L3:
 415:Generated_Source\PSoC5/USB_std.c ****             {
 103              		.loc 1 415 0 is_stmt 0 discriminator 1
 104 005e 212B     		cmp	r3, #33
 105 0060 E2D9     		bls	.L4
 106              	.LVL9:
 107              	.L1:
 422:Generated_Source\PSoC5/USB_std.c ****             }
 423:Generated_Source\PSoC5/USB_std.c ****         }
 424:Generated_Source\PSoC5/USB_std.c ****     }
 108              		.loc 1 424 0 is_stmt 1
 109 0062 08B0     		add	sp, sp, #32
 110              		.cfi_def_cfa_offset 16
 111              		@ sp needed
 112 0064 70BD     		pop	{r4, r5, r6, pc}
 113              	.LVL10:
 114              	.L7:
 115 0066 00BF     		.align	2
 116              	.L6:
 117 0068 00000000 		.word	.LC0
 118              		.cfi_endproc
 119              	.LFE1:
 120              		.size	USB_ReadDieID, .-USB_ReadDieID
 121              		.section	.text.USB_ConfigReg,"ax",%progbits
 122              		.align	2
 123              		.global	USB_ConfigReg
 124              		.thumb
 125              		.thumb_func
 126              		.type	USB_ConfigReg, %function
 127              	USB_ConfigReg:
 128              	.LFB2:
 425:Generated_Source\PSoC5/USB_std.c **** #endif /* (USB_ENABLE_IDSN_STRING) */
 426:Generated_Source\PSoC5/USB_std.c **** 
 427:Generated_Source\PSoC5/USB_std.c **** 
 428:Generated_Source\PSoC5/USB_std.c **** /*******************************************************************************
 429:Generated_Source\PSoC5/USB_std.c **** * Function Name: USB_ConfigReg
 430:Generated_Source\PSoC5/USB_std.c **** ****************************************************************************//**
 431:Generated_Source\PSoC5/USB_std.c **** *
 432:Generated_Source\PSoC5/USB_std.c **** *  This routine configures hardware registers from the variables.
 433:Generated_Source\PSoC5/USB_std.c **** *  It is called from USB_Config() function and from RestoreConfig
 434:Generated_Source\PSoC5/USB_std.c **** *  after Wakeup.
 435:Generated_Source\PSoC5/USB_std.c **** *
 436:Generated_Source\PSoC5/USB_std.c **** *******************************************************************************/
 437:Generated_Source\PSoC5/USB_std.c **** void USB_ConfigReg(void) 
 438:Generated_Source\PSoC5/USB_std.c **** {
 129              		.loc 1 438 0
ARM GAS  C:\Users\Revanth\AppData\Local\Temp\cctCFyeS.s 			page 11


 130              		.cfi_startproc
 131              		@ args = 0, pretend = 0, frame = 0
 132              		@ frame_needed = 0, uses_anonymous_args = 0
 133              		@ link register save eliminated.
 134 0000 10B4     		push	{r4}
 135              		.cfi_def_cfa_offset 4
 136              		.cfi_offset 4, -4
 137              	.LVL11:
 439:Generated_Source\PSoC5/USB_std.c ****     uint8 ep;
 440:Generated_Source\PSoC5/USB_std.c **** 
 441:Generated_Source\PSoC5/USB_std.c **** #if (USB_EP_MANAGEMENT_DMA_AUTO)
 442:Generated_Source\PSoC5/USB_std.c ****     uint8 epType = 0u;
 443:Generated_Source\PSoC5/USB_std.c **** #endif /* (USB_EP_MANAGEMENT_DMA_AUTO) */
 444:Generated_Source\PSoC5/USB_std.c **** 
 445:Generated_Source\PSoC5/USB_std.c ****     /* Go thought all endpoints and set hardware configuration */
 446:Generated_Source\PSoC5/USB_std.c ****     for (ep = USB_EP1; ep < USB_MAX_EP; ++ep)
 138              		.loc 1 446 0
 139 0002 0123     		movs	r3, #1
 140 0004 3EE0     		b	.L9
 141              	.LVL12:
 142              	.L13:
 447:Generated_Source\PSoC5/USB_std.c ****     {
 448:Generated_Source\PSoC5/USB_std.c ****         USB_ARB_EP_BASE.arbEp[ep].epCfg = USB_ARB_EPX_CFG_DEFAULT;
 143              		.loc 1 448 0
 144 0006 1946     		mov	r1, r3
 145 0008 1A01     		lsls	r2, r3, #4
 146 000a 0C24     		movs	r4, #12
 147 000c 2148     		ldr	r0, .L15
 148 000e 8454     		strb	r4, [r0, r2]
 449:Generated_Source\PSoC5/USB_std.c ****         
 450:Generated_Source\PSoC5/USB_std.c ****     #if (USB_EP_MANAGEMENT_DMA)
 451:Generated_Source\PSoC5/USB_std.c ****         /* Enable arbiter endpoint interrupt sources */
 452:Generated_Source\PSoC5/USB_std.c ****         USB_ARB_EP_BASE.arbEp[ep].epIntEn = USB_ARB_EPX_INT_MASK;
 453:Generated_Source\PSoC5/USB_std.c ****     #endif /* (USB_EP_MANAGEMENT_DMA) */
 454:Generated_Source\PSoC5/USB_std.c ****     
 455:Generated_Source\PSoC5/USB_std.c ****         if (USB_EP[ep].epMode != USB_MODE_DISABLE)
 149              		.loc 1 455 0
 150 0010 03EB4300 		add	r0, r3, r3, lsl #1
 151 0014 8200     		lsls	r2, r0, #2
 152 0016 2048     		ldr	r0, .L15+4
 153 0018 0244     		add	r2, r2, r0
 154 001a 5279     		ldrb	r2, [r2, #5]	@ zero_extendqisi2
 155 001c 12F0FF0F 		tst	r2, #255
 156 0020 13D0     		beq	.L10
 456:Generated_Source\PSoC5/USB_std.c ****         {
 457:Generated_Source\PSoC5/USB_std.c ****             if (0u != (USB_EP[ep].addr & USB_DIR_IN))
 157              		.loc 1 457 0
 158 0022 03EB4300 		add	r0, r3, r3, lsl #1
 159 0026 8200     		lsls	r2, r0, #2
 160 0028 1B48     		ldr	r0, .L15+4
 161 002a 0244     		add	r2, r2, r0
 162 002c 1279     		ldrb	r2, [r2, #4]	@ zero_extendqisi2
 163 002e 12F0800F 		tst	r2, #128
 164 0032 04D0     		beq	.L11
 458:Generated_Source\PSoC5/USB_std.c ****             {
 459:Generated_Source\PSoC5/USB_std.c ****                 USB_SIE_EP_BASE.sieEp[ep].epCr0 = USB_MODE_NAK_IN;
 165              		.loc 1 459 0
ARM GAS  C:\Users\Revanth\AppData\Local\Temp\cctCFyeS.s 			page 12


 166 0034 1801     		lsls	r0, r3, #4
 167 0036 194A     		ldr	r2, .L15+8
 168 0038 0244     		add	r2, r2, r0
 169 003a 9470     		strb	r4, [r2, #2]
 170 003c 0AE0     		b	.L12
 171              	.L11:
 460:Generated_Source\PSoC5/USB_std.c ****                 
 461:Generated_Source\PSoC5/USB_std.c ****             #if (USB_EP_MANAGEMENT_DMA_AUTO && CY_PSOC4)
 462:Generated_Source\PSoC5/USB_std.c ****                 /* Clear DMA_TERMIN for IN endpoint. */
 463:Generated_Source\PSoC5/USB_std.c ****                 USB_ARB_EP_BASE.arbEp[ep].epIntEn &= (uint32) ~USB_ARB_EPX_INT_DMA_TERMIN;
 464:Generated_Source\PSoC5/USB_std.c ****             #endif /* (USB_EP_MANAGEMENT_DMA_AUTO && CY_PSOC4) */
 465:Generated_Source\PSoC5/USB_std.c ****             }
 466:Generated_Source\PSoC5/USB_std.c ****             else
 467:Generated_Source\PSoC5/USB_std.c ****             {
 468:Generated_Source\PSoC5/USB_std.c ****                 USB_SIE_EP_BASE.sieEp[ep].epCr0 = USB_MODE_NAK_OUT;
 172              		.loc 1 468 0
 173 003e 1801     		lsls	r0, r3, #4
 174 0040 164A     		ldr	r2, .L15+8
 175 0042 0244     		add	r2, r2, r0
 176 0044 0820     		movs	r0, #8
 177 0046 9070     		strb	r0, [r2, #2]
 178 0048 04E0     		b	.L12
 179              	.L10:
 469:Generated_Source\PSoC5/USB_std.c **** 
 470:Generated_Source\PSoC5/USB_std.c ****             #if (USB_EP_MANAGEMENT_DMA_AUTO)
 471:Generated_Source\PSoC5/USB_std.c ****                 /* (CY_PSOC4): DMA_TERMIN for OUT endpoint is set above. */
 472:Generated_Source\PSoC5/USB_std.c ****                 
 473:Generated_Source\PSoC5/USB_std.c ****                 /* Prepare endpoint type mask. */
 474:Generated_Source\PSoC5/USB_std.c ****                 epType |= (uint8) (0x01u << (ep - USB_EP1));
 475:Generated_Source\PSoC5/USB_std.c ****             #endif /* (USB_EP_MANAGEMENT_DMA_AUTO) */
 476:Generated_Source\PSoC5/USB_std.c ****             }
 477:Generated_Source\PSoC5/USB_std.c ****         }
 478:Generated_Source\PSoC5/USB_std.c ****         else
 479:Generated_Source\PSoC5/USB_std.c ****         {
 480:Generated_Source\PSoC5/USB_std.c ****             USB_SIE_EP_BASE.sieEp[ep].epCr0 = USB_MODE_STALL_DATA_EP;
 180              		.loc 1 480 0
 181 004a 1801     		lsls	r0, r3, #4
 182 004c 134A     		ldr	r2, .L15+8
 183 004e 0244     		add	r2, r2, r0
 184 0050 8020     		movs	r0, #128
 185 0052 9070     		strb	r0, [r2, #2]
 186              	.L12:
 481:Generated_Source\PSoC5/USB_std.c ****         }
 482:Generated_Source\PSoC5/USB_std.c ****         
 483:Generated_Source\PSoC5/USB_std.c ****     #if (!USB_EP_MANAGEMENT_DMA_AUTO)
 484:Generated_Source\PSoC5/USB_std.c ****         #if (CY_PSOC4)
 485:Generated_Source\PSoC5/USB_std.c ****             USB_ARB_EP16_BASE.arbEp[ep].rwRa16  = (uint32) USB_EP[ep].buffOffset;
 486:Generated_Source\PSoC5/USB_std.c ****             USB_ARB_EP16_BASE.arbEp[ep].rwWa16  = (uint32) USB_EP[ep].buffOffset;
 487:Generated_Source\PSoC5/USB_std.c ****         #else
 488:Generated_Source\PSoC5/USB_std.c ****             USB_ARB_EP_BASE.arbEp[ep].rwRa    = LO8(USB_EP[ep].buffOffset);
 187              		.loc 1 488 0 discriminator 2
 188 0054 4800     		lsls	r0, r1, #1
 189 0056 0844     		add	r0, r0, r1
 190 0058 8200     		lsls	r2, r0, #2
 191 005a 0F48     		ldr	r0, .L15+4
 192 005c 0244     		add	r2, r2, r0
 193 005e D488     		ldrh	r4, [r2, #6]
ARM GAS  C:\Users\Revanth\AppData\Local\Temp\cctCFyeS.s 			page 13


 194 0060 E4B2     		uxtb	r4, r4
 195 0062 0801     		lsls	r0, r1, #4
 196 0064 0B49     		ldr	r1, .L15
 197 0066 0144     		add	r1, r1, r0
 198 0068 8C71     		strb	r4, [r1, #6]
 489:Generated_Source\PSoC5/USB_std.c ****             USB_ARB_EP_BASE.arbEp[ep].rwRaMsb = HI8(USB_EP[ep].buffOffset);
 199              		.loc 1 489 0 discriminator 2
 200 006a D088     		ldrh	r0, [r2, #6]
 201 006c C0F30720 		ubfx	r0, r0, #8, #8
 202 0070 C871     		strb	r0, [r1, #7]
 490:Generated_Source\PSoC5/USB_std.c ****             USB_ARB_EP_BASE.arbEp[ep].rwWa    = LO8(USB_EP[ep].buffOffset);
 203              		.loc 1 490 0 discriminator 2
 204 0072 D088     		ldrh	r0, [r2, #6]
 205 0074 C0B2     		uxtb	r0, r0
 206 0076 0871     		strb	r0, [r1, #4]
 491:Generated_Source\PSoC5/USB_std.c ****             USB_ARB_EP_BASE.arbEp[ep].rwWaMsb = HI8(USB_EP[ep].buffOffset);
 207              		.loc 1 491 0 discriminator 2
 208 0078 D288     		ldrh	r2, [r2, #6]
 209 007a C2F30722 		ubfx	r2, r2, #8, #8
 210 007e 4A71     		strb	r2, [r1, #5]
 446:Generated_Source\PSoC5/USB_std.c ****     {
 211              		.loc 1 446 0 discriminator 2
 212 0080 0133     		adds	r3, r3, #1
 213              	.LVL13:
 214 0082 DBB2     		uxtb	r3, r3
 215              	.LVL14:
 216              	.L9:
 446:Generated_Source\PSoC5/USB_std.c ****     {
 217              		.loc 1 446 0 is_stmt 0 discriminator 1
 218 0084 082B     		cmp	r3, #8
 219 0086 BED9     		bls	.L13
 492:Generated_Source\PSoC5/USB_std.c ****         #endif /* (CY_PSOC4) */
 493:Generated_Source\PSoC5/USB_std.c ****     #endif /* (!USB_EP_MANAGEMENT_DMA_AUTO) */
 494:Generated_Source\PSoC5/USB_std.c ****     }
 495:Generated_Source\PSoC5/USB_std.c **** 
 496:Generated_Source\PSoC5/USB_std.c **** #if (USB_EP_MANAGEMENT_DMA_AUTO)
 497:Generated_Source\PSoC5/USB_std.c ****      /* BUF_SIZE depend on DMA_THRESS value:0x55-32 bytes  0x44-16 bytes 0x33-8 bytes 0x22-4 bytes 
 498:Generated_Source\PSoC5/USB_std.c ****     USB_BUF_SIZE_REG = USB_DMA_BUF_SIZE;
 499:Generated_Source\PSoC5/USB_std.c **** 
 500:Generated_Source\PSoC5/USB_std.c ****     /* Configure DMA burst threshold */
 501:Generated_Source\PSoC5/USB_std.c **** #if (CY_PSOC4)
 502:Generated_Source\PSoC5/USB_std.c ****     USB_DMA_THRES16_REG   = USB_DMA_BYTES_PER_BURST;
 503:Generated_Source\PSoC5/USB_std.c **** #else
 504:Generated_Source\PSoC5/USB_std.c ****     USB_DMA_THRES_REG     = USB_DMA_BYTES_PER_BURST;
 505:Generated_Source\PSoC5/USB_std.c ****     USB_DMA_THRES_MSB_REG = 0u;
 506:Generated_Source\PSoC5/USB_std.c **** #endif /* (CY_PSOC4) */
 507:Generated_Source\PSoC5/USB_std.c ****     USB_EP_ACTIVE_REG = USB_DEFAULT_ARB_INT_EN;
 508:Generated_Source\PSoC5/USB_std.c ****     USB_EP_TYPE_REG   = epType;
 509:Generated_Source\PSoC5/USB_std.c ****     
 510:Generated_Source\PSoC5/USB_std.c ****     /* Cfg_cmp bit set to 1 once configuration is complete. */
 511:Generated_Source\PSoC5/USB_std.c ****     /* Lock arbiter configtuation */
 512:Generated_Source\PSoC5/USB_std.c ****     USB_ARB_CFG_REG |= (uint8)  USB_ARB_CFG_CFG_CMP;
 513:Generated_Source\PSoC5/USB_std.c ****     /* Cfg_cmp bit set to 0 during configuration of PFSUSB Registers. */
 514:Generated_Source\PSoC5/USB_std.c ****     USB_ARB_CFG_REG &= (uint8) ~USB_ARB_CFG_CFG_CMP;
 515:Generated_Source\PSoC5/USB_std.c **** 
 516:Generated_Source\PSoC5/USB_std.c **** #endif /* (USB_EP_MANAGEMENT_DMA_AUTO) */
 517:Generated_Source\PSoC5/USB_std.c **** 
ARM GAS  C:\Users\Revanth\AppData\Local\Temp\cctCFyeS.s 			page 14


 518:Generated_Source\PSoC5/USB_std.c ****     /* Enable interrupt SIE interurpt source from EP0-EP1 */
 519:Generated_Source\PSoC5/USB_std.c ****     USB_SIE_EP_INT_EN_REG = (uint8) USB_DEFAULT_SIE_EP_INT_EN;
 220              		.loc 1 519 0 is_stmt 1
 221 0088 FF22     		movs	r2, #255
 222 008a 054B     		ldr	r3, .L15+12
 223              	.LVL15:
 224 008c 1A70     		strb	r2, [r3]
 520:Generated_Source\PSoC5/USB_std.c **** }
 225              		.loc 1 520 0
 226 008e 10BC     		pop	{r4}
 227              		.cfi_restore 4
 228              		.cfi_def_cfa_offset 0
 229 0090 7047     		bx	lr
 230              	.L16:
 231 0092 00BF     		.align	2
 232              	.L15:
 233 0094 70600040 		.word	1073766512
 234 0098 00000000 		.word	USB_EP
 235 009c FC5F0040 		.word	1073766396
 236 00a0 0A600040 		.word	1073766410
 237              		.cfi_endproc
 238              	.LFE2:
 239              		.size	USB_ConfigReg, .-USB_ConfigReg
 240              		.section	.text.USB_EpStateInit,"ax",%progbits
 241              		.align	2
 242              		.global	USB_EpStateInit
 243              		.thumb
 244              		.thumb_func
 245              		.type	USB_EpStateInit, %function
 246              	USB_EpStateInit:
 247              	.LFB3:
 521:Generated_Source\PSoC5/USB_std.c **** 
 522:Generated_Source\PSoC5/USB_std.c **** 
 523:Generated_Source\PSoC5/USB_std.c **** /*******************************************************************************
 524:Generated_Source\PSoC5/USB_std.c **** * Function Name: USB_EpStateInit
 525:Generated_Source\PSoC5/USB_std.c **** ****************************************************************************//**
 526:Generated_Source\PSoC5/USB_std.c **** *
 527:Generated_Source\PSoC5/USB_std.c **** *  This routine initialize state of Data end points based of its type: 
 528:Generated_Source\PSoC5/USB_std.c **** *   IN  - USB_IN_BUFFER_EMPTY (USB_EVENT_PENDING)
 529:Generated_Source\PSoC5/USB_std.c **** *   OUT - USB_OUT_BUFFER_EMPTY (USB_NO_EVENT_PENDING)
 530:Generated_Source\PSoC5/USB_std.c **** *
 531:Generated_Source\PSoC5/USB_std.c **** *******************************************************************************/
 532:Generated_Source\PSoC5/USB_std.c **** void USB_EpStateInit(void) 
 533:Generated_Source\PSoC5/USB_std.c **** {
 248              		.loc 1 533 0
 249              		.cfi_startproc
 250              		@ args = 0, pretend = 0, frame = 0
 251              		@ frame_needed = 0, uses_anonymous_args = 0
 252              		@ link register save eliminated.
 253              	.LVL16:
 534:Generated_Source\PSoC5/USB_std.c ****     uint8 i;
 535:Generated_Source\PSoC5/USB_std.c **** 
 536:Generated_Source\PSoC5/USB_std.c ****     for (i = USB_EP1; i < USB_MAX_EP; i++)
 254              		.loc 1 536 0
 255 0000 0123     		movs	r3, #1
 256 0002 19E0     		b	.L18
 257              	.LVL17:
ARM GAS  C:\Users\Revanth\AppData\Local\Temp\cctCFyeS.s 			page 15


 258              	.L21:
 537:Generated_Source\PSoC5/USB_std.c ****     { 
 538:Generated_Source\PSoC5/USB_std.c ****         if (0u != (USB_EP[i].addr & USB_DIR_IN))
 259              		.loc 1 538 0
 260 0004 03EB4301 		add	r1, r3, r3, lsl #1
 261 0008 8A00     		lsls	r2, r1, #2
 262 000a 0D49     		ldr	r1, .L22
 263 000c 0A44     		add	r2, r2, r1
 264 000e 1279     		ldrb	r2, [r2, #4]	@ zero_extendqisi2
 265 0010 12F0800F 		tst	r2, #128
 266 0014 07D0     		beq	.L19
 539:Generated_Source\PSoC5/USB_std.c ****         {
 540:Generated_Source\PSoC5/USB_std.c ****             /* IN Endpoint */
 541:Generated_Source\PSoC5/USB_std.c ****             USB_EP[i].apiEpState = USB_EVENT_PENDING;
 267              		.loc 1 541 0
 268 0016 03EB4301 		add	r1, r3, r3, lsl #1
 269 001a 8A00     		lsls	r2, r1, #2
 270 001c 0849     		ldr	r1, .L22
 271 001e 0A44     		add	r2, r2, r1
 272 0020 0121     		movs	r1, #1
 273 0022 5170     		strb	r1, [r2, #1]
 274 0024 06E0     		b	.L20
 275              	.L19:
 542:Generated_Source\PSoC5/USB_std.c ****         }
 543:Generated_Source\PSoC5/USB_std.c ****         else
 544:Generated_Source\PSoC5/USB_std.c ****         {
 545:Generated_Source\PSoC5/USB_std.c ****             /* OUT Endpoint */
 546:Generated_Source\PSoC5/USB_std.c ****             USB_EP[i].apiEpState = USB_NO_EVENT_PENDING;
 276              		.loc 1 546 0
 277 0026 03EB4301 		add	r1, r3, r3, lsl #1
 278 002a 8A00     		lsls	r2, r1, #2
 279 002c 0449     		ldr	r1, .L22
 280 002e 0A44     		add	r2, r2, r1
 281 0030 0021     		movs	r1, #0
 282 0032 5170     		strb	r1, [r2, #1]
 283              	.L20:
 536:Generated_Source\PSoC5/USB_std.c ****     { 
 284              		.loc 1 536 0 discriminator 2
 285 0034 0133     		adds	r3, r3, #1
 286              	.LVL18:
 287 0036 DBB2     		uxtb	r3, r3
 288              	.LVL19:
 289              	.L18:
 536:Generated_Source\PSoC5/USB_std.c ****     { 
 290              		.loc 1 536 0 is_stmt 0 discriminator 1
 291 0038 082B     		cmp	r3, #8
 292 003a E3D9     		bls	.L21
 547:Generated_Source\PSoC5/USB_std.c ****         }
 548:Generated_Source\PSoC5/USB_std.c ****     }
 549:Generated_Source\PSoC5/USB_std.c ****                     
 550:Generated_Source\PSoC5/USB_std.c **** }
 293              		.loc 1 550 0 is_stmt 1
 294 003c 7047     		bx	lr
 295              	.L23:
 296 003e 00BF     		.align	2
 297              	.L22:
 298 0040 00000000 		.word	USB_EP
ARM GAS  C:\Users\Revanth\AppData\Local\Temp\cctCFyeS.s 			page 16


 299              		.cfi_endproc
 300              	.LFE3:
 301              		.size	USB_EpStateInit, .-USB_EpStateInit
 302              		.section	.text.USB_GetConfigTablePtr,"ax",%progbits
 303              		.align	2
 304              		.global	USB_GetConfigTablePtr
 305              		.thumb
 306              		.thumb_func
 307              		.type	USB_GetConfigTablePtr, %function
 308              	USB_GetConfigTablePtr:
 309              	.LFB6:
 551:Generated_Source\PSoC5/USB_std.c **** 
 552:Generated_Source\PSoC5/USB_std.c **** 
 553:Generated_Source\PSoC5/USB_std.c **** /*******************************************************************************
 554:Generated_Source\PSoC5/USB_std.c **** * Function Name: USB_Config
 555:Generated_Source\PSoC5/USB_std.c **** ****************************************************************************//**
 556:Generated_Source\PSoC5/USB_std.c **** *
 557:Generated_Source\PSoC5/USB_std.c **** *  This routine configures endpoints for the entire configuration by scanning
 558:Generated_Source\PSoC5/USB_std.c **** *  the configuration descriptor.
 559:Generated_Source\PSoC5/USB_std.c **** *
 560:Generated_Source\PSoC5/USB_std.c **** *  \param clearAltSetting: It configures the bAlternateSetting 0 for each interface.
 561:Generated_Source\PSoC5/USB_std.c **** *
 562:Generated_Source\PSoC5/USB_std.c **** * USB_interfaceClass - Initialized class array for each interface.
 563:Generated_Source\PSoC5/USB_std.c **** *   It is used for handling Class specific requests depend on interface class.
 564:Generated_Source\PSoC5/USB_std.c **** *   Different classes in multiple Alternate settings does not supported.
 565:Generated_Source\PSoC5/USB_std.c **** *
 566:Generated_Source\PSoC5/USB_std.c **** * \reentrant
 567:Generated_Source\PSoC5/USB_std.c **** *  No.
 568:Generated_Source\PSoC5/USB_std.c **** *
 569:Generated_Source\PSoC5/USB_std.c **** *******************************************************************************/
 570:Generated_Source\PSoC5/USB_std.c **** void USB_Config(uint8 clearAltSetting) 
 571:Generated_Source\PSoC5/USB_std.c **** {
 572:Generated_Source\PSoC5/USB_std.c ****     uint8 ep;
 573:Generated_Source\PSoC5/USB_std.c ****     uint8 curEp;
 574:Generated_Source\PSoC5/USB_std.c ****     uint8 i;
 575:Generated_Source\PSoC5/USB_std.c ****     uint8 epType;
 576:Generated_Source\PSoC5/USB_std.c ****     const uint8 *pDescr;
 577:Generated_Source\PSoC5/USB_std.c ****     
 578:Generated_Source\PSoC5/USB_std.c ****     #if (!USB_EP_MANAGEMENT_DMA_AUTO)
 579:Generated_Source\PSoC5/USB_std.c ****         uint16 buffCount = 0u;
 580:Generated_Source\PSoC5/USB_std.c ****     #endif /* (!USB_EP_MANAGEMENT_DMA_AUTO) */
 581:Generated_Source\PSoC5/USB_std.c **** 
 582:Generated_Source\PSoC5/USB_std.c ****     const T_USB_LUT CYCODE *pTmp;
 583:Generated_Source\PSoC5/USB_std.c ****     const T_USB_EP_SETTINGS_BLOCK CYCODE *pEP;
 584:Generated_Source\PSoC5/USB_std.c **** 
 585:Generated_Source\PSoC5/USB_std.c ****     /* Clear endpoints settings */
 586:Generated_Source\PSoC5/USB_std.c ****     for (ep = 0u; ep < USB_MAX_EP; ++ep)
 587:Generated_Source\PSoC5/USB_std.c ****     {
 588:Generated_Source\PSoC5/USB_std.c ****         USB_EP[ep].attrib     = 0u;
 589:Generated_Source\PSoC5/USB_std.c ****         USB_EP[ep].hwEpState  = 0u;
 590:Generated_Source\PSoC5/USB_std.c ****         USB_EP[ep].epToggle   = 0u;
 591:Generated_Source\PSoC5/USB_std.c ****         USB_EP[ep].bufferSize = 0u;
 592:Generated_Source\PSoC5/USB_std.c ****         USB_EP[ep].interface  = 0u;
 593:Generated_Source\PSoC5/USB_std.c ****         USB_EP[ep].apiEpState = USB_NO_EVENT_PENDING;
 594:Generated_Source\PSoC5/USB_std.c ****         USB_EP[ep].epMode     = USB_MODE_DISABLE;   
 595:Generated_Source\PSoC5/USB_std.c ****     }
 596:Generated_Source\PSoC5/USB_std.c **** 
ARM GAS  C:\Users\Revanth\AppData\Local\Temp\cctCFyeS.s 			page 17


 597:Generated_Source\PSoC5/USB_std.c ****     /* Clear Alternate settings for all interfaces. */
 598:Generated_Source\PSoC5/USB_std.c ****     if (0u != clearAltSetting)
 599:Generated_Source\PSoC5/USB_std.c ****     {
 600:Generated_Source\PSoC5/USB_std.c ****         for (i = 0u; i < USB_MAX_INTERFACES_NUMBER; ++i)
 601:Generated_Source\PSoC5/USB_std.c ****         {
 602:Generated_Source\PSoC5/USB_std.c ****             USB_interfaceSetting[i]     = 0u;
 603:Generated_Source\PSoC5/USB_std.c ****             USB_interfaceSettingLast[i] = 0u;
 604:Generated_Source\PSoC5/USB_std.c ****         }
 605:Generated_Source\PSoC5/USB_std.c ****     }
 606:Generated_Source\PSoC5/USB_std.c **** 
 607:Generated_Source\PSoC5/USB_std.c ****     /* Init Endpoints and Device Status if configured */
 608:Generated_Source\PSoC5/USB_std.c ****     if (USB_configuration > 0u)
 609:Generated_Source\PSoC5/USB_std.c ****     {
 610:Generated_Source\PSoC5/USB_std.c ****         #if defined(USB_ENABLE_CDC_CLASS)
 611:Generated_Source\PSoC5/USB_std.c ****             uint8 cdcComNums = 0u;
 612:Generated_Source\PSoC5/USB_std.c ****         #endif  /* (USB_ENABLE_CDC_CLASS) */  
 613:Generated_Source\PSoC5/USB_std.c **** 
 614:Generated_Source\PSoC5/USB_std.c ****         pTmp = USB_GetConfigTablePtr(USB_configuration - 1u);
 615:Generated_Source\PSoC5/USB_std.c ****         
 616:Generated_Source\PSoC5/USB_std.c ****         /* Set Power status for current configuration */
 617:Generated_Source\PSoC5/USB_std.c ****         pDescr = (const uint8 *)pTmp->p_list;
 618:Generated_Source\PSoC5/USB_std.c ****         if ((pDescr[USB_CONFIG_DESCR_ATTRIB] & USB_CONFIG_DESCR_ATTRIB_SELF_POWERED) != 0u)
 619:Generated_Source\PSoC5/USB_std.c ****         {
 620:Generated_Source\PSoC5/USB_std.c ****             USB_deviceStatus |= (uint8)  USB_DEVICE_STATUS_SELF_POWERED;
 621:Generated_Source\PSoC5/USB_std.c ****         }
 622:Generated_Source\PSoC5/USB_std.c ****         else
 623:Generated_Source\PSoC5/USB_std.c ****         {
 624:Generated_Source\PSoC5/USB_std.c ****             USB_deviceStatus &= (uint8) ~USB_DEVICE_STATUS_SELF_POWERED;
 625:Generated_Source\PSoC5/USB_std.c ****         }
 626:Generated_Source\PSoC5/USB_std.c ****         
 627:Generated_Source\PSoC5/USB_std.c ****         /* Move to next element */
 628:Generated_Source\PSoC5/USB_std.c ****         pTmp = &pTmp[1u];
 629:Generated_Source\PSoC5/USB_std.c ****         ep = pTmp->c;  /* For this table, c is the number of endpoints configurations  */
 630:Generated_Source\PSoC5/USB_std.c **** 
 631:Generated_Source\PSoC5/USB_std.c ****         #if (USB_EP_MANAGEMENT_MANUAL && USB_EP_ALLOC_DYNAMIC)
 632:Generated_Source\PSoC5/USB_std.c ****             /* Configure for dynamic EP memory allocation */
 633:Generated_Source\PSoC5/USB_std.c ****             /* p_list points the endpoint setting table. */
 634:Generated_Source\PSoC5/USB_std.c ****             pEP = (T_USB_EP_SETTINGS_BLOCK *) pTmp->p_list;
 635:Generated_Source\PSoC5/USB_std.c ****             
 636:Generated_Source\PSoC5/USB_std.c ****             for (i = 0u; i < ep; i++)
 637:Generated_Source\PSoC5/USB_std.c ****             {     
 638:Generated_Source\PSoC5/USB_std.c ****                 /* Compare current Alternate setting with EP Alt */
 639:Generated_Source\PSoC5/USB_std.c ****                 if (USB_interfaceSetting[pEP->interface] == pEP->altSetting)
 640:Generated_Source\PSoC5/USB_std.c ****                 {                                                          
 641:Generated_Source\PSoC5/USB_std.c ****                     curEp  = pEP->addr & USB_DIR_UNUSED;
 642:Generated_Source\PSoC5/USB_std.c ****                     epType = pEP->attributes & USB_EP_TYPE_MASK;
 643:Generated_Source\PSoC5/USB_std.c ****                     
 644:Generated_Source\PSoC5/USB_std.c ****                     USB_EP[curEp].addr       = pEP->addr;
 645:Generated_Source\PSoC5/USB_std.c ****                     USB_EP[curEp].attrib     = pEP->attributes;
 646:Generated_Source\PSoC5/USB_std.c ****                     USB_EP[curEp].bufferSize = pEP->bufferSize;
 647:Generated_Source\PSoC5/USB_std.c **** 
 648:Generated_Source\PSoC5/USB_std.c ****                     if (0u != (pEP->addr & USB_DIR_IN))
 649:Generated_Source\PSoC5/USB_std.c ****                     {
 650:Generated_Source\PSoC5/USB_std.c ****                         /* IN Endpoint */
 651:Generated_Source\PSoC5/USB_std.c ****                         USB_EP[curEp].epMode     = USB_GET_ACTIVE_IN_EP_CR0_MODE(epType);
 652:Generated_Source\PSoC5/USB_std.c ****                         USB_EP[curEp].apiEpState = USB_EVENT_PENDING;
 653:Generated_Source\PSoC5/USB_std.c ****                     
ARM GAS  C:\Users\Revanth\AppData\Local\Temp\cctCFyeS.s 			page 18


 654:Generated_Source\PSoC5/USB_std.c ****                     #if (defined(USB_ENABLE_MIDI_STREAMING) && (USB_MIDI_IN_BUFF_SIZE > 0))
 655:Generated_Source\PSoC5/USB_std.c ****                         if ((pEP->bMisc == USB_CLASS_AUDIO) && (epType == USB_EP_TYPE_BULK))
 656:Generated_Source\PSoC5/USB_std.c ****                         {
 657:Generated_Source\PSoC5/USB_std.c ****                             USB_midi_in_ep = curEp;
 658:Generated_Source\PSoC5/USB_std.c ****                         }
 659:Generated_Source\PSoC5/USB_std.c ****                     #endif  /* (USB_ENABLE_MIDI_STREAMING) */
 660:Generated_Source\PSoC5/USB_std.c ****                     }
 661:Generated_Source\PSoC5/USB_std.c ****                     else
 662:Generated_Source\PSoC5/USB_std.c ****                     {
 663:Generated_Source\PSoC5/USB_std.c ****                         /* OUT Endpoint */
 664:Generated_Source\PSoC5/USB_std.c ****                         USB_EP[curEp].epMode     = USB_GET_ACTIVE_OUT_EP_CR0_MODE(epType);
 665:Generated_Source\PSoC5/USB_std.c ****                         USB_EP[curEp].apiEpState = USB_NO_EVENT_PENDING;
 666:Generated_Source\PSoC5/USB_std.c ****                         
 667:Generated_Source\PSoC5/USB_std.c ****                     #if (defined(USB_ENABLE_MIDI_STREAMING) && (USB_MIDI_OUT_BUFF_SIZE > 0))
 668:Generated_Source\PSoC5/USB_std.c ****                         if ((pEP->bMisc == USB_CLASS_AUDIO) && (epType == USB_EP_TYPE_BULK))
 669:Generated_Source\PSoC5/USB_std.c ****                         {
 670:Generated_Source\PSoC5/USB_std.c ****                             USB_midi_out_ep = curEp;
 671:Generated_Source\PSoC5/USB_std.c ****                         }
 672:Generated_Source\PSoC5/USB_std.c ****                     #endif  /* (USB_ENABLE_MIDI_STREAMING) */
 673:Generated_Source\PSoC5/USB_std.c ****                     }
 674:Generated_Source\PSoC5/USB_std.c **** 
 675:Generated_Source\PSoC5/USB_std.c ****                 #if(defined (USB_ENABLE_CDC_CLASS))
 676:Generated_Source\PSoC5/USB_std.c ****                     if((pEP->bMisc == USB_CLASS_CDC_DATA) ||(pEP->bMisc == USB_CLASS_CDC))
 677:Generated_Source\PSoC5/USB_std.c ****                     {
 678:Generated_Source\PSoC5/USB_std.c ****                         cdcComNums = USB_Cdc_EpInit(pEP, curEp, cdcComNums);
 679:Generated_Source\PSoC5/USB_std.c ****                     }
 680:Generated_Source\PSoC5/USB_std.c ****                 #endif  /* (USB_ENABLE_CDC_CLASS) */
 681:Generated_Source\PSoC5/USB_std.c ****                 }
 682:Generated_Source\PSoC5/USB_std.c ****                 
 683:Generated_Source\PSoC5/USB_std.c ****                 pEP = &pEP[1u];
 684:Generated_Source\PSoC5/USB_std.c ****             }
 685:Generated_Source\PSoC5/USB_std.c ****             
 686:Generated_Source\PSoC5/USB_std.c ****         #else
 687:Generated_Source\PSoC5/USB_std.c ****             for (i = USB_EP1; i < USB_MAX_EP; ++i)
 688:Generated_Source\PSoC5/USB_std.c ****             {
 689:Generated_Source\PSoC5/USB_std.c ****                 /* p_list points the endpoint setting table. */
 690:Generated_Source\PSoC5/USB_std.c ****                 pEP = (const T_USB_EP_SETTINGS_BLOCK CYCODE *) pTmp->p_list;
 691:Generated_Source\PSoC5/USB_std.c ****                 /* Find max length for each EP and select it (length could be different in differen
 692:Generated_Source\PSoC5/USB_std.c ****                 /* but other settings should be correct with regards to Interface alt Setting */
 693:Generated_Source\PSoC5/USB_std.c ****                 
 694:Generated_Source\PSoC5/USB_std.c ****                 for (curEp = 0u; curEp < ep; ++curEp)
 695:Generated_Source\PSoC5/USB_std.c ****                 {
 696:Generated_Source\PSoC5/USB_std.c ****                     if (i == (pEP->addr & USB_DIR_UNUSED))
 697:Generated_Source\PSoC5/USB_std.c ****                     {
 698:Generated_Source\PSoC5/USB_std.c ****                         /* Compare endpoint buffers size with current size to find greater. */
 699:Generated_Source\PSoC5/USB_std.c ****                         if (USB_EP[i].bufferSize < pEP->bufferSize)
 700:Generated_Source\PSoC5/USB_std.c ****                         {
 701:Generated_Source\PSoC5/USB_std.c ****                             USB_EP[i].bufferSize = pEP->bufferSize;
 702:Generated_Source\PSoC5/USB_std.c ****                         }
 703:Generated_Source\PSoC5/USB_std.c ****                         
 704:Generated_Source\PSoC5/USB_std.c ****                         /* Compare current Alternate setting with EP Alt */
 705:Generated_Source\PSoC5/USB_std.c ****                         if (USB_interfaceSetting[pEP->interface] == pEP->altSetting)
 706:Generated_Source\PSoC5/USB_std.c ****                         {                            
 707:Generated_Source\PSoC5/USB_std.c ****                             USB_EP[i].addr = pEP->addr;
 708:Generated_Source\PSoC5/USB_std.c ****                             USB_EP[i].attrib = pEP->attributes;
 709:Generated_Source\PSoC5/USB_std.c ****                             
 710:Generated_Source\PSoC5/USB_std.c ****                             epType = pEP->attributes & USB_EP_TYPE_MASK;
ARM GAS  C:\Users\Revanth\AppData\Local\Temp\cctCFyeS.s 			page 19


 711:Generated_Source\PSoC5/USB_std.c ****                             
 712:Generated_Source\PSoC5/USB_std.c ****                             if (0u != (pEP->addr & USB_DIR_IN))
 713:Generated_Source\PSoC5/USB_std.c ****                             {
 714:Generated_Source\PSoC5/USB_std.c ****                                 /* IN Endpoint */
 715:Generated_Source\PSoC5/USB_std.c ****                                 USB_EP[i].epMode     = USB_GET_ACTIVE_IN_EP_CR0_MODE(epType);
 716:Generated_Source\PSoC5/USB_std.c ****                                 USB_EP[i].apiEpState = USB_EVENT_PENDING;
 717:Generated_Source\PSoC5/USB_std.c ****                                 
 718:Generated_Source\PSoC5/USB_std.c ****                             #if (defined(USB_ENABLE_MIDI_STREAMING) && (USB_MIDI_IN_BUFF_SIZE > 0))
 719:Generated_Source\PSoC5/USB_std.c ****                                 if ((pEP->bMisc == USB_CLASS_AUDIO) && (epType == USB_EP_TYPE_BULK)
 720:Generated_Source\PSoC5/USB_std.c ****                                 {
 721:Generated_Source\PSoC5/USB_std.c ****                                     USB_midi_in_ep = i;
 722:Generated_Source\PSoC5/USB_std.c ****                                 }
 723:Generated_Source\PSoC5/USB_std.c ****                             #endif  /* (USB_ENABLE_MIDI_STREAMING) */
 724:Generated_Source\PSoC5/USB_std.c ****                             }
 725:Generated_Source\PSoC5/USB_std.c ****                             else
 726:Generated_Source\PSoC5/USB_std.c ****                             {
 727:Generated_Source\PSoC5/USB_std.c ****                                 /* OUT Endpoint */
 728:Generated_Source\PSoC5/USB_std.c ****                                 USB_EP[i].epMode     = USB_GET_ACTIVE_OUT_EP_CR0_MODE(epType);
 729:Generated_Source\PSoC5/USB_std.c ****                                 USB_EP[i].apiEpState = USB_NO_EVENT_PENDING;
 730:Generated_Source\PSoC5/USB_std.c ****                                 
 731:Generated_Source\PSoC5/USB_std.c ****                             #if (defined(USB_ENABLE_MIDI_STREAMING) && (USB_MIDI_OUT_BUFF_SIZE > 0)
 732:Generated_Source\PSoC5/USB_std.c ****                                 if ((pEP->bMisc == USB_CLASS_AUDIO) && (epType == USB_EP_TYPE_BULK)
 733:Generated_Source\PSoC5/USB_std.c ****                                 {
 734:Generated_Source\PSoC5/USB_std.c ****                                     USB_midi_out_ep = i;
 735:Generated_Source\PSoC5/USB_std.c ****                                 }
 736:Generated_Source\PSoC5/USB_std.c ****                             #endif  /* (USB_ENABLE_MIDI_STREAMING) */
 737:Generated_Source\PSoC5/USB_std.c ****                             }
 738:Generated_Source\PSoC5/USB_std.c **** 
 739:Generated_Source\PSoC5/USB_std.c ****                         #if (defined(USB_ENABLE_CDC_CLASS))
 740:Generated_Source\PSoC5/USB_std.c ****                             if((pEP->bMisc == USB_CLASS_CDC_DATA) ||(pEP->bMisc == USB_CLASS_CDC))
 741:Generated_Source\PSoC5/USB_std.c ****                             {
 742:Generated_Source\PSoC5/USB_std.c ****                                 cdcComNums = USB_Cdc_EpInit(pEP, i, cdcComNums);
 743:Generated_Source\PSoC5/USB_std.c ****                             }
 744:Generated_Source\PSoC5/USB_std.c ****                         #endif  /* (USB_ENABLE_CDC_CLASS) */
 745:Generated_Source\PSoC5/USB_std.c **** 
 746:Generated_Source\PSoC5/USB_std.c ****                             #if (USB_EP_MANAGEMENT_DMA_AUTO)
 747:Generated_Source\PSoC5/USB_std.c ****                                 break;  /* Use first EP setting in Auto memory management */
 748:Generated_Source\PSoC5/USB_std.c ****                             #endif /* (USB_EP_MANAGEMENT_DMA_AUTO) */
 749:Generated_Source\PSoC5/USB_std.c ****                         }
 750:Generated_Source\PSoC5/USB_std.c ****                     }
 751:Generated_Source\PSoC5/USB_std.c ****                     
 752:Generated_Source\PSoC5/USB_std.c ****                     pEP = &pEP[1u];
 753:Generated_Source\PSoC5/USB_std.c ****                 }
 754:Generated_Source\PSoC5/USB_std.c ****             }
 755:Generated_Source\PSoC5/USB_std.c ****         #endif /*  (USB_EP_MANAGEMENT_MANUAL && USB_EP_ALLOC_DYNAMIC) */
 756:Generated_Source\PSoC5/USB_std.c **** 
 757:Generated_Source\PSoC5/USB_std.c ****         /* Init class array for each interface and interface number for each EP.
 758:Generated_Source\PSoC5/USB_std.c ****         *  It is used for handling Class specific requests directed to either an
 759:Generated_Source\PSoC5/USB_std.c ****         *  interface or the endpoint.
 760:Generated_Source\PSoC5/USB_std.c ****         */
 761:Generated_Source\PSoC5/USB_std.c ****         /* p_list points the endpoint setting table. */
 762:Generated_Source\PSoC5/USB_std.c ****         pEP = (const T_USB_EP_SETTINGS_BLOCK CYCODE *) pTmp->p_list;
 763:Generated_Source\PSoC5/USB_std.c ****         for (i = 0u; i < ep; i++)
 764:Generated_Source\PSoC5/USB_std.c ****         {
 765:Generated_Source\PSoC5/USB_std.c ****             /* Configure interface number for each EP */
 766:Generated_Source\PSoC5/USB_std.c ****             USB_EP[pEP->addr & USB_DIR_UNUSED].interface = pEP->interface;
 767:Generated_Source\PSoC5/USB_std.c ****             pEP = &pEP[1u];
ARM GAS  C:\Users\Revanth\AppData\Local\Temp\cctCFyeS.s 			page 20


 768:Generated_Source\PSoC5/USB_std.c ****         }
 769:Generated_Source\PSoC5/USB_std.c ****         
 770:Generated_Source\PSoC5/USB_std.c ****         /* Init pointer on interface class table */
 771:Generated_Source\PSoC5/USB_std.c ****         USB_interfaceClass = USB_GetInterfaceClassTablePtr();
 772:Generated_Source\PSoC5/USB_std.c ****         
 773:Generated_Source\PSoC5/USB_std.c ****     /* Set the endpoint buffer addresses */
 774:Generated_Source\PSoC5/USB_std.c ****     #if (!USB_EP_MANAGEMENT_DMA_AUTO)
 775:Generated_Source\PSoC5/USB_std.c ****         buffCount = 0u;
 776:Generated_Source\PSoC5/USB_std.c ****         for (ep = USB_EP1; ep < USB_MAX_EP; ++ep)
 777:Generated_Source\PSoC5/USB_std.c ****         {
 778:Generated_Source\PSoC5/USB_std.c ****             USB_EP[ep].buffOffset = buffCount;        
 779:Generated_Source\PSoC5/USB_std.c ****             buffCount += USB_EP[ep].bufferSize;
 780:Generated_Source\PSoC5/USB_std.c ****             
 781:Generated_Source\PSoC5/USB_std.c ****         #if (USB_GEN_16BITS_EP_ACCESS)
 782:Generated_Source\PSoC5/USB_std.c ****             /* Align EP buffers to be event size to access 16-bits DR register. */
 783:Generated_Source\PSoC5/USB_std.c ****             buffCount += (0u != (buffCount & 0x01u)) ? 1u : 0u;
 784:Generated_Source\PSoC5/USB_std.c ****         #endif /* (USB_GEN_16BITS_EP_ACCESS) */            
 785:Generated_Source\PSoC5/USB_std.c ****         }
 786:Generated_Source\PSoC5/USB_std.c ****     #endif /* (!USB_EP_MANAGEMENT_DMA_AUTO) */
 787:Generated_Source\PSoC5/USB_std.c **** 
 788:Generated_Source\PSoC5/USB_std.c ****         /* Configure hardware registers */
 789:Generated_Source\PSoC5/USB_std.c ****         USB_ConfigReg();
 790:Generated_Source\PSoC5/USB_std.c ****     }
 791:Generated_Source\PSoC5/USB_std.c **** }
 792:Generated_Source\PSoC5/USB_std.c **** 
 793:Generated_Source\PSoC5/USB_std.c **** 
 794:Generated_Source\PSoC5/USB_std.c **** /*******************************************************************************
 795:Generated_Source\PSoC5/USB_std.c **** * Function Name: USB_ConfigAltChanged
 796:Generated_Source\PSoC5/USB_std.c **** ****************************************************************************//**
 797:Generated_Source\PSoC5/USB_std.c **** *
 798:Generated_Source\PSoC5/USB_std.c **** *  This routine update configuration for the required endpoints only.
 799:Generated_Source\PSoC5/USB_std.c **** *  It is called after SET_INTERFACE request when Static memory allocation used.
 800:Generated_Source\PSoC5/USB_std.c **** *
 801:Generated_Source\PSoC5/USB_std.c **** * \reentrant
 802:Generated_Source\PSoC5/USB_std.c **** *  No.
 803:Generated_Source\PSoC5/USB_std.c **** *
 804:Generated_Source\PSoC5/USB_std.c **** *******************************************************************************/
 805:Generated_Source\PSoC5/USB_std.c **** void USB_ConfigAltChanged(void) 
 806:Generated_Source\PSoC5/USB_std.c **** {
 807:Generated_Source\PSoC5/USB_std.c ****     uint8 ep;
 808:Generated_Source\PSoC5/USB_std.c ****     uint8 curEp;
 809:Generated_Source\PSoC5/USB_std.c ****     uint8 epType;
 810:Generated_Source\PSoC5/USB_std.c ****     uint8 i;
 811:Generated_Source\PSoC5/USB_std.c ****     uint8 interfaceNum;
 812:Generated_Source\PSoC5/USB_std.c **** 
 813:Generated_Source\PSoC5/USB_std.c ****     const T_USB_LUT CYCODE *pTmp;
 814:Generated_Source\PSoC5/USB_std.c ****     const T_USB_EP_SETTINGS_BLOCK CYCODE *pEP;
 815:Generated_Source\PSoC5/USB_std.c **** 
 816:Generated_Source\PSoC5/USB_std.c ****     /* Init Endpoints and Device Status if configured */
 817:Generated_Source\PSoC5/USB_std.c ****     if (USB_configuration > 0u)
 818:Generated_Source\PSoC5/USB_std.c ****     {
 819:Generated_Source\PSoC5/USB_std.c ****         /* Get number of endpoints configurations (ep). */
 820:Generated_Source\PSoC5/USB_std.c ****         pTmp = USB_GetConfigTablePtr(USB_configuration - 1u);
 821:Generated_Source\PSoC5/USB_std.c ****         pTmp = &pTmp[1u];
 822:Generated_Source\PSoC5/USB_std.c ****         ep = pTmp->c;
 823:Generated_Source\PSoC5/USB_std.c **** 
 824:Generated_Source\PSoC5/USB_std.c ****         /* Get pointer to endpoints setting table (pEP). */
ARM GAS  C:\Users\Revanth\AppData\Local\Temp\cctCFyeS.s 			page 21


 825:Generated_Source\PSoC5/USB_std.c ****         pEP = (const T_USB_EP_SETTINGS_BLOCK CYCODE *) pTmp->p_list;
 826:Generated_Source\PSoC5/USB_std.c ****         
 827:Generated_Source\PSoC5/USB_std.c ****         /* Look through all possible endpoint configurations. Find endpoints 
 828:Generated_Source\PSoC5/USB_std.c ****         * which belong to current interface and alternate settings for 
 829:Generated_Source\PSoC5/USB_std.c ****         * re-configuration.
 830:Generated_Source\PSoC5/USB_std.c ****         */
 831:Generated_Source\PSoC5/USB_std.c ****         interfaceNum = USB_interfaceNumber;
 832:Generated_Source\PSoC5/USB_std.c ****         for (i = 0u; i < ep; i++)
 833:Generated_Source\PSoC5/USB_std.c ****         {
 834:Generated_Source\PSoC5/USB_std.c ****             /* Find endpoints which belong to current interface and alternate settings. */
 835:Generated_Source\PSoC5/USB_std.c ****             if ((interfaceNum == pEP->interface) && 
 836:Generated_Source\PSoC5/USB_std.c ****                 (USB_interfaceSetting[interfaceNum] == pEP->altSetting))
 837:Generated_Source\PSoC5/USB_std.c ****             {
 838:Generated_Source\PSoC5/USB_std.c ****                 curEp  = ((uint8) pEP->addr & USB_DIR_UNUSED);
 839:Generated_Source\PSoC5/USB_std.c ****                 epType = ((uint8) pEP->attributes & USB_EP_TYPE_MASK);
 840:Generated_Source\PSoC5/USB_std.c ****                 
 841:Generated_Source\PSoC5/USB_std.c ****                 /* Change the SIE mode for the selected EP to NAK ALL */
 842:Generated_Source\PSoC5/USB_std.c ****                 USB_EP[curEp].epToggle   = 0u;
 843:Generated_Source\PSoC5/USB_std.c ****                 USB_EP[curEp].addr       = pEP->addr;
 844:Generated_Source\PSoC5/USB_std.c ****                 USB_EP[curEp].attrib     = pEP->attributes;
 845:Generated_Source\PSoC5/USB_std.c ****                 USB_EP[curEp].bufferSize = pEP->bufferSize;
 846:Generated_Source\PSoC5/USB_std.c **** 
 847:Generated_Source\PSoC5/USB_std.c ****                 if (0u != (pEP->addr & USB_DIR_IN))
 848:Generated_Source\PSoC5/USB_std.c ****                 {
 849:Generated_Source\PSoC5/USB_std.c ****                     /* IN Endpoint */
 850:Generated_Source\PSoC5/USB_std.c ****                     USB_EP[curEp].epMode     = USB_GET_ACTIVE_IN_EP_CR0_MODE(epType);
 851:Generated_Source\PSoC5/USB_std.c ****                     USB_EP[curEp].apiEpState = USB_EVENT_PENDING;
 852:Generated_Source\PSoC5/USB_std.c ****                 }
 853:Generated_Source\PSoC5/USB_std.c ****                 else
 854:Generated_Source\PSoC5/USB_std.c ****                 {
 855:Generated_Source\PSoC5/USB_std.c ****                     /* OUT Endpoint */
 856:Generated_Source\PSoC5/USB_std.c ****                     USB_EP[curEp].epMode     = USB_GET_ACTIVE_OUT_EP_CR0_MODE(epType);
 857:Generated_Source\PSoC5/USB_std.c ****                     USB_EP[curEp].apiEpState = USB_NO_EVENT_PENDING;
 858:Generated_Source\PSoC5/USB_std.c ****                 }
 859:Generated_Source\PSoC5/USB_std.c ****                 
 860:Generated_Source\PSoC5/USB_std.c ****                 /* Make SIE to NAK any endpoint requests */
 861:Generated_Source\PSoC5/USB_std.c ****                 USB_SIE_EP_BASE.sieEp[curEp].epCr0 = USB_MODE_NAK_IN_OUT;
 862:Generated_Source\PSoC5/USB_std.c **** 
 863:Generated_Source\PSoC5/USB_std.c ****             #if (USB_EP_MANAGEMENT_DMA_AUTO)
 864:Generated_Source\PSoC5/USB_std.c ****                 /* Clear IN data ready. */
 865:Generated_Source\PSoC5/USB_std.c ****                 USB_ARB_EP_BASE.arbEp[curEp].epCfg &= (uint8) ~USB_ARB_EPX_CFG_IN_DATA_RDY;
 866:Generated_Source\PSoC5/USB_std.c **** 
 867:Generated_Source\PSoC5/USB_std.c ****                 /* Select endpoint number of reconfiguration */
 868:Generated_Source\PSoC5/USB_std.c ****                 USB_DYN_RECONFIG_REG = (uint8) ((curEp - 1u) << USB_DYN_RECONFIG_EP_SHIFT);
 869:Generated_Source\PSoC5/USB_std.c ****                 
 870:Generated_Source\PSoC5/USB_std.c ****                 /* Request for dynamic re-configuration of endpoint. */
 871:Generated_Source\PSoC5/USB_std.c ****                 USB_DYN_RECONFIG_REG |= USB_DYN_RECONFIG_ENABLE;
 872:Generated_Source\PSoC5/USB_std.c ****                 
 873:Generated_Source\PSoC5/USB_std.c ****                 /* Wait until block is ready for re-configuration */
 874:Generated_Source\PSoC5/USB_std.c ****                 while (0u == (USB_DYN_RECONFIG_REG & USB_DYN_RECONFIG_RDY_STS))
 875:Generated_Source\PSoC5/USB_std.c ****                 {
 876:Generated_Source\PSoC5/USB_std.c ****                 }
 877:Generated_Source\PSoC5/USB_std.c ****                 
 878:Generated_Source\PSoC5/USB_std.c ****                 /* Once DYN_RECONFIG_RDY_STS bit is set, FW can change the EP configuration. */
 879:Generated_Source\PSoC5/USB_std.c ****                 /* Change EP Type with new direction */
 880:Generated_Source\PSoC5/USB_std.c ****                 if (0u != (pEP->addr & USB_DIR_IN))
 881:Generated_Source\PSoC5/USB_std.c ****                 {
ARM GAS  C:\Users\Revanth\AppData\Local\Temp\cctCFyeS.s 			page 22


 882:Generated_Source\PSoC5/USB_std.c ****                     /* Set endpoint type: 0 - IN and 1 - OUT. */
 883:Generated_Source\PSoC5/USB_std.c ****                     USB_EP_TYPE_REG &= (uint8) ~(uint8)((uint8) 0x01u << (curEp - 1u));
 884:Generated_Source\PSoC5/USB_std.c ****                     
 885:Generated_Source\PSoC5/USB_std.c ****                 #if (CY_PSOC4)
 886:Generated_Source\PSoC5/USB_std.c ****                     /* Clear DMA_TERMIN for IN endpoint */
 887:Generated_Source\PSoC5/USB_std.c ****                     USB_ARB_EP_BASE.arbEp[curEp].epIntEn &= (uint32) ~USB_ARB_EPX_INT_DMA_TERMIN;
 888:Generated_Source\PSoC5/USB_std.c ****                 #endif /* (CY_PSOC4) */
 889:Generated_Source\PSoC5/USB_std.c ****                 }
 890:Generated_Source\PSoC5/USB_std.c ****                 else
 891:Generated_Source\PSoC5/USB_std.c ****                 {
 892:Generated_Source\PSoC5/USB_std.c ****                     /* Set endpoint type: 0 - IN and 1- OUT. */
 893:Generated_Source\PSoC5/USB_std.c ****                     USB_EP_TYPE_REG |= (uint8) ((uint8) 0x01u << (curEp - 1u));
 894:Generated_Source\PSoC5/USB_std.c ****                     
 895:Generated_Source\PSoC5/USB_std.c ****                 #if (CY_PSOC4)
 896:Generated_Source\PSoC5/USB_std.c ****                     /* Set DMA_TERMIN for OUT endpoint */
 897:Generated_Source\PSoC5/USB_std.c ****                     USB_ARB_EP_BASE.arbEp[curEp].epIntEn |= (uint32) USB_ARB_EPX_INT_DMA_TERMIN;
 898:Generated_Source\PSoC5/USB_std.c ****                 #endif /* (CY_PSOC4) */
 899:Generated_Source\PSoC5/USB_std.c ****                 }
 900:Generated_Source\PSoC5/USB_std.c ****                 
 901:Generated_Source\PSoC5/USB_std.c ****                 /* Complete dynamic re-configuration: all endpoint related status and signals 
 902:Generated_Source\PSoC5/USB_std.c ****                 * are set into the default state.
 903:Generated_Source\PSoC5/USB_std.c ****                 */
 904:Generated_Source\PSoC5/USB_std.c ****                 USB_DYN_RECONFIG_REG &= (uint8) ~USB_DYN_RECONFIG_ENABLE;
 905:Generated_Source\PSoC5/USB_std.c **** 
 906:Generated_Source\PSoC5/USB_std.c ****             #else
 907:Generated_Source\PSoC5/USB_std.c ****                 USB_SIE_EP_BASE.sieEp[curEp].epCnt0 = HI8(USB_EP[curEp].bufferSize);
 908:Generated_Source\PSoC5/USB_std.c ****                 USB_SIE_EP_BASE.sieEp[curEp].epCnt1 = LO8(USB_EP[curEp].bufferSize);
 909:Generated_Source\PSoC5/USB_std.c ****                 
 910:Generated_Source\PSoC5/USB_std.c ****                 #if (CY_PSOC4)
 911:Generated_Source\PSoC5/USB_std.c ****                     USB_ARB_EP16_BASE.arbEp[curEp].rwRa16  = (uint32) USB_EP[curEp].buffOffset;
 912:Generated_Source\PSoC5/USB_std.c ****                     USB_ARB_EP16_BASE.arbEp[curEp].rwWa16  = (uint32) USB_EP[curEp].buffOffset;
 913:Generated_Source\PSoC5/USB_std.c ****                 #else
 914:Generated_Source\PSoC5/USB_std.c ****                     USB_ARB_EP_BASE.arbEp[curEp].rwRa    = LO8(USB_EP[curEp].buffOffset);
 915:Generated_Source\PSoC5/USB_std.c ****                     USB_ARB_EP_BASE.arbEp[curEp].rwRaMsb = HI8(USB_EP[curEp].buffOffset);
 916:Generated_Source\PSoC5/USB_std.c ****                     USB_ARB_EP_BASE.arbEp[curEp].rwWa    = LO8(USB_EP[curEp].buffOffset);
 917:Generated_Source\PSoC5/USB_std.c ****                     USB_ARB_EP_BASE.arbEp[curEp].rwWaMsb = HI8(USB_EP[curEp].buffOffset);
 918:Generated_Source\PSoC5/USB_std.c ****                 #endif /* (CY_PSOC4) */                
 919:Generated_Source\PSoC5/USB_std.c ****             #endif /* (USB_EP_MANAGEMENT_DMA_AUTO) */
 920:Generated_Source\PSoC5/USB_std.c ****             }
 921:Generated_Source\PSoC5/USB_std.c ****             
 922:Generated_Source\PSoC5/USB_std.c ****             pEP = &pEP[1u]; /* Get next EP element */
 923:Generated_Source\PSoC5/USB_std.c ****         }
 924:Generated_Source\PSoC5/USB_std.c ****         
 925:Generated_Source\PSoC5/USB_std.c ****         /* The main loop has to re-enable DMA and OUT endpoint */
 926:Generated_Source\PSoC5/USB_std.c ****     }
 927:Generated_Source\PSoC5/USB_std.c **** }
 928:Generated_Source\PSoC5/USB_std.c **** 
 929:Generated_Source\PSoC5/USB_std.c **** 
 930:Generated_Source\PSoC5/USB_std.c **** /*******************************************************************************
 931:Generated_Source\PSoC5/USB_std.c **** * Function Name: USB_GetConfigTablePtr
 932:Generated_Source\PSoC5/USB_std.c **** ****************************************************************************//**
 933:Generated_Source\PSoC5/USB_std.c **** *
 934:Generated_Source\PSoC5/USB_std.c **** *  This routine returns a pointer a configuration table entry
 935:Generated_Source\PSoC5/USB_std.c **** *
 936:Generated_Source\PSoC5/USB_std.c **** *  \param confIndex:  Configuration Index
 937:Generated_Source\PSoC5/USB_std.c **** *
 938:Generated_Source\PSoC5/USB_std.c **** * \return
ARM GAS  C:\Users\Revanth\AppData\Local\Temp\cctCFyeS.s 			page 23


 939:Generated_Source\PSoC5/USB_std.c **** *  Device Descriptor pointer or NULL when descriptor does not exist.
 940:Generated_Source\PSoC5/USB_std.c **** *
 941:Generated_Source\PSoC5/USB_std.c **** *******************************************************************************/
 942:Generated_Source\PSoC5/USB_std.c **** const T_USB_LUT CYCODE *USB_GetConfigTablePtr(uint8 confIndex)
 943:Generated_Source\PSoC5/USB_std.c ****                                                         
 944:Generated_Source\PSoC5/USB_std.c **** {
 310              		.loc 1 944 0
 311              		.cfi_startproc
 312              		@ args = 0, pretend = 0, frame = 0
 313              		@ frame_needed = 0, uses_anonymous_args = 0
 314              		@ link register save eliminated.
 315              	.LVL20:
 945:Generated_Source\PSoC5/USB_std.c ****     /* Device Table */
 946:Generated_Source\PSoC5/USB_std.c ****     const T_USB_LUT CYCODE *pTmp;
 947:Generated_Source\PSoC5/USB_std.c **** 
 948:Generated_Source\PSoC5/USB_std.c ****     pTmp = (const T_USB_LUT CYCODE *) USB_TABLE[USB_device].p_list;
 316              		.loc 1 948 0
 317 0000 074B     		ldr	r3, .L27
 318 0002 1A78     		ldrb	r2, [r3]	@ zero_extendqisi2
 319 0004 074B     		ldr	r3, .L27+4
 320 0006 03EBC203 		add	r3, r3, r2, lsl #3
 321 000a 5B68     		ldr	r3, [r3, #4]
 322              	.LVL21:
 949:Generated_Source\PSoC5/USB_std.c **** 
 950:Generated_Source\PSoC5/USB_std.c ****     /* The first entry points to the Device Descriptor,
 951:Generated_Source\PSoC5/USB_std.c ****     *  the second entry point to the BOS Descriptor
 952:Generated_Source\PSoC5/USB_std.c ****     *  the rest configuration entries.
 953:Generated_Source\PSoC5/USB_std.c ****     *  Set pointer to the first Configuration Descriptor
 954:Generated_Source\PSoC5/USB_std.c ****     */
 955:Generated_Source\PSoC5/USB_std.c ****     pTmp = &pTmp[2u];
 956:Generated_Source\PSoC5/USB_std.c ****     /* For this table, c is the number of configuration descriptors  */
 957:Generated_Source\PSoC5/USB_std.c ****     if(confIndex >= pTmp->c)   /* Verify that required configuration descriptor exists */
 323              		.loc 1 957 0
 324 000c 1A7C     		ldrb	r2, [r3, #16]	@ zero_extendqisi2
 325 000e 8242     		cmp	r2, r0
 326 0010 04D9     		bls	.L26
 958:Generated_Source\PSoC5/USB_std.c ****     {
 959:Generated_Source\PSoC5/USB_std.c ****         pTmp = (const T_USB_LUT CYCODE *) NULL;
 960:Generated_Source\PSoC5/USB_std.c ****     }
 961:Generated_Source\PSoC5/USB_std.c ****     else
 962:Generated_Source\PSoC5/USB_std.c ****     {
 963:Generated_Source\PSoC5/USB_std.c ****         pTmp = (const T_USB_LUT CYCODE *) pTmp[confIndex].p_list;
 327              		.loc 1 963 0
 328 0012 C000     		lsls	r0, r0, #3
 329              	.LVL22:
 330 0014 1030     		adds	r0, r0, #16
 331 0016 1844     		add	r0, r0, r3
 332 0018 4068     		ldr	r0, [r0, #4]
 333              	.LVL23:
 334 001a 7047     		bx	lr
 335              	.LVL24:
 336              	.L26:
 959:Generated_Source\PSoC5/USB_std.c ****     }
 337              		.loc 1 959 0
 338 001c 0020     		movs	r0, #0
 339              	.LVL25:
 964:Generated_Source\PSoC5/USB_std.c ****     }
ARM GAS  C:\Users\Revanth\AppData\Local\Temp\cctCFyeS.s 			page 24


 965:Generated_Source\PSoC5/USB_std.c **** 
 966:Generated_Source\PSoC5/USB_std.c ****     return (pTmp);
 967:Generated_Source\PSoC5/USB_std.c **** }
 340              		.loc 1 967 0
 341 001e 7047     		bx	lr
 342              	.L28:
 343              		.align	2
 344              	.L27:
 345 0020 00000000 		.word	USB_device
 346 0024 00000000 		.word	USB_TABLE
 347              		.cfi_endproc
 348              	.LFE6:
 349              		.size	USB_GetConfigTablePtr, .-USB_GetConfigTablePtr
 350              		.section	.text.USB_ConfigAltChanged,"ax",%progbits
 351              		.align	2
 352              		.global	USB_ConfigAltChanged
 353              		.thumb
 354              		.thumb_func
 355              		.type	USB_ConfigAltChanged, %function
 356              	USB_ConfigAltChanged:
 357              	.LFB5:
 806:Generated_Source\PSoC5/USB_std.c ****     uint8 ep;
 358              		.loc 1 806 0
 359              		.cfi_startproc
 360              		@ args = 0, pretend = 0, frame = 0
 361              		@ frame_needed = 0, uses_anonymous_args = 0
 362 0000 F8B5     		push	{r3, r4, r5, r6, r7, lr}
 363              		.cfi_def_cfa_offset 24
 364              		.cfi_offset 3, -24
 365              		.cfi_offset 4, -20
 366              		.cfi_offset 5, -16
 367              		.cfi_offset 6, -12
 368              		.cfi_offset 7, -8
 369              		.cfi_offset 14, -4
 817:Generated_Source\PSoC5/USB_std.c ****     {
 370              		.loc 1 817 0
 371 0002 404B     		ldr	r3, .L41
 372 0004 1B78     		ldrb	r3, [r3]	@ zero_extendqisi2
 373 0006 13F0FF0F 		tst	r3, #255
 374 000a 79D0     		beq	.L29
 820:Generated_Source\PSoC5/USB_std.c ****         pTmp = &pTmp[1u];
 375              		.loc 1 820 0
 376 000c 3D4B     		ldr	r3, .L41
 377 000e 1878     		ldrb	r0, [r3]	@ zero_extendqisi2
 378 0010 0138     		subs	r0, r0, #1
 379 0012 C0B2     		uxtb	r0, r0
 380 0014 FFF7FEFF 		bl	USB_GetConfigTablePtr
 381              	.LVL26:
 822:Generated_Source\PSoC5/USB_std.c **** 
 382              		.loc 1 822 0
 383 0018 047A     		ldrb	r4, [r0, #8]	@ zero_extendqisi2
 384              	.LVL27:
 825:Generated_Source\PSoC5/USB_std.c ****         
 385              		.loc 1 825 0
 386 001a C268     		ldr	r2, [r0, #12]
 387              	.LVL28:
 831:Generated_Source\PSoC5/USB_std.c ****         for (i = 0u; i < ep; i++)
ARM GAS  C:\Users\Revanth\AppData\Local\Temp\cctCFyeS.s 			page 25


 388              		.loc 1 831 0
 389 001c 3A4B     		ldr	r3, .L41+4
 390 001e 1878     		ldrb	r0, [r3]	@ zero_extendqisi2
 391              	.LVL29:
 392 0020 C0B2     		uxtb	r0, r0
 393              	.LVL30:
 832:Generated_Source\PSoC5/USB_std.c ****         {
 394              		.loc 1 832 0
 395 0022 0023     		movs	r3, #0
 396 0024 6AE0     		b	.L31
 397              	.LVL31:
 398              	.L37:
 835:Generated_Source\PSoC5/USB_std.c ****                 (USB_interfaceSetting[interfaceNum] == pEP->altSetting))
 399              		.loc 1 835 0
 400 0026 1178     		ldrb	r1, [r2]	@ zero_extendqisi2
 401 0028 8842     		cmp	r0, r1
 402 002a 64D1     		bne	.L32
 836:Generated_Source\PSoC5/USB_std.c ****             {
 403              		.loc 1 836 0 discriminator 1
 404 002c 3749     		ldr	r1, .L41+8
 405 002e 095C     		ldrb	r1, [r1, r0]	@ zero_extendqisi2
 406 0030 C9B2     		uxtb	r1, r1
 407 0032 5578     		ldrb	r5, [r2, #1]	@ zero_extendqisi2
 835:Generated_Source\PSoC5/USB_std.c ****                 (USB_interfaceSetting[interfaceNum] == pEP->altSetting))
 408              		.loc 1 835 0 discriminator 1
 409 0034 A942     		cmp	r1, r5
 410 0036 5ED1     		bne	.L32
 838:Generated_Source\PSoC5/USB_std.c ****                 epType = ((uint8) pEP->attributes & USB_EP_TYPE_MASK);
 411              		.loc 1 838 0
 412 0038 9178     		ldrb	r1, [r2, #2]	@ zero_extendqisi2
 413 003a 01F07F01 		and	r1, r1, #127
 414              	.LVL32:
 839:Generated_Source\PSoC5/USB_std.c ****                 
 415              		.loc 1 839 0
 416 003e D678     		ldrb	r6, [r2, #3]	@ zero_extendqisi2
 417 0040 06F00306 		and	r6, r6, #3
 418              	.LVL33:
 842:Generated_Source\PSoC5/USB_std.c ****                 USB_EP[curEp].addr       = pEP->addr;
 419              		.loc 1 842 0
 420 0044 DFF8C8E0 		ldr	lr, .L41+12
 421 0048 4D00     		lsls	r5, r1, #1
 422 004a 0D44     		add	r5, r5, r1
 423 004c AF00     		lsls	r7, r5, #2
 424 004e 0EEB0705 		add	r5, lr, r7
 425 0052 4FF0000C 		mov	ip, #0
 426 0056 85F803C0 		strb	ip, [r5, #3]
 843:Generated_Source\PSoC5/USB_std.c ****                 USB_EP[curEp].attrib     = pEP->attributes;
 427              		.loc 1 843 0
 428 005a 92F802C0 		ldrb	ip, [r2, #2]	@ zero_extendqisi2
 429 005e 85F804C0 		strb	ip, [r5, #4]
 844:Generated_Source\PSoC5/USB_std.c ****                 USB_EP[curEp].bufferSize = pEP->bufferSize;
 430              		.loc 1 844 0
 431 0062 92F803C0 		ldrb	ip, [r2, #3]	@ zero_extendqisi2
 432 0066 0EF807C0 		strb	ip, [lr, r7]
 845:Generated_Source\PSoC5/USB_std.c **** 
 433              		.loc 1 845 0
 434 006a 9788     		ldrh	r7, [r2, #4]
ARM GAS  C:\Users\Revanth\AppData\Local\Temp\cctCFyeS.s 			page 26


 435 006c 2F81     		strh	r7, [r5, #8]	@ movhi
 847:Generated_Source\PSoC5/USB_std.c ****                 {
 436              		.loc 1 847 0
 437 006e 92F90250 		ldrsb	r5, [r2, #2]
 438 0072 002D     		cmp	r5, #0
 439 0074 0DDA     		bge	.L33
 850:Generated_Source\PSoC5/USB_std.c ****                     USB_EP[curEp].apiEpState = USB_EVENT_PENDING;
 440              		.loc 1 850 0
 441 0076 012E     		cmp	r6, #1
 442 0078 01D1     		bne	.L38
 443 007a 0727     		movs	r7, #7
 444 007c 00E0     		b	.L34
 445              	.L38:
 446 007e 0D27     		movs	r7, #13
 447              	.L34:
 850:Generated_Source\PSoC5/USB_std.c ****                     USB_EP[curEp].apiEpState = USB_EVENT_PENDING;
 448              		.loc 1 850 0 is_stmt 0 discriminator 4
 449 0080 4E00     		lsls	r6, r1, #1
 450              	.LVL34:
 451 0082 0E44     		add	r6, r6, r1
 452 0084 B500     		lsls	r5, r6, #2
 453 0086 224E     		ldr	r6, .L41+12
 454 0088 3544     		add	r5, r5, r6
 455 008a 6F71     		strb	r7, [r5, #5]
 851:Generated_Source\PSoC5/USB_std.c ****                 }
 456              		.loc 1 851 0 is_stmt 1 discriminator 4
 457 008c 0126     		movs	r6, #1
 458 008e 6E70     		strb	r6, [r5, #1]
 459 0090 0CE0     		b	.L35
 460              	.LVL35:
 461              	.L33:
 856:Generated_Source\PSoC5/USB_std.c ****                     USB_EP[curEp].apiEpState = USB_NO_EVENT_PENDING;
 462              		.loc 1 856 0
 463 0092 012E     		cmp	r6, #1
 464 0094 01D1     		bne	.L39
 465 0096 0527     		movs	r7, #5
 466 0098 00E0     		b	.L36
 467              	.L39:
 468 009a 0927     		movs	r7, #9
 469              	.L36:
 856:Generated_Source\PSoC5/USB_std.c ****                     USB_EP[curEp].apiEpState = USB_NO_EVENT_PENDING;
 470              		.loc 1 856 0 is_stmt 0 discriminator 4
 471 009c 4E00     		lsls	r6, r1, #1
 472              	.LVL36:
 473 009e 0E44     		add	r6, r6, r1
 474 00a0 B500     		lsls	r5, r6, #2
 475 00a2 1B4E     		ldr	r6, .L41+12
 476 00a4 3544     		add	r5, r5, r6
 477 00a6 6F71     		strb	r7, [r5, #5]
 857:Generated_Source\PSoC5/USB_std.c ****                 }
 478              		.loc 1 857 0 is_stmt 1 discriminator 4
 479 00a8 0026     		movs	r6, #0
 480 00aa 6E70     		strb	r6, [r5, #1]
 481              	.L35:
 861:Generated_Source\PSoC5/USB_std.c **** 
 482              		.loc 1 861 0
 483 00ac DFF868E0 		ldr	lr, .L41+20
ARM GAS  C:\Users\Revanth\AppData\Local\Temp\cctCFyeS.s 			page 27


 484 00b0 0F01     		lsls	r7, r1, #4
 485 00b2 0EEB0706 		add	r6, lr, r7
 486 00b6 0125     		movs	r5, #1
 487 00b8 B570     		strb	r5, [r6, #2]
 907:Generated_Source\PSoC5/USB_std.c ****                 USB_SIE_EP_BASE.sieEp[curEp].epCnt1 = LO8(USB_EP[curEp].bufferSize);
 488              		.loc 1 907 0
 489 00ba 01FA05F5 		lsl	r5, r1, r5
 490 00be 2944     		add	r1, r1, r5
 491              	.LVL37:
 492 00c0 8D00     		lsls	r5, r1, #2
 493 00c2 1349     		ldr	r1, .L41+12
 494 00c4 2944     		add	r1, r1, r5
 495 00c6 0D89     		ldrh	r5, [r1, #8]
 496 00c8 C5F30725 		ubfx	r5, r5, #8, #8
 497 00cc 0EF80750 		strb	r5, [lr, r7]
 908:Generated_Source\PSoC5/USB_std.c ****                 
 498              		.loc 1 908 0
 499 00d0 0D89     		ldrh	r5, [r1, #8]
 500 00d2 EDB2     		uxtb	r5, r5
 501 00d4 7570     		strb	r5, [r6, #1]
 914:Generated_Source\PSoC5/USB_std.c ****                     USB_ARB_EP_BASE.arbEp[curEp].rwRaMsb = HI8(USB_EP[curEp].buffOffset);
 502              		.loc 1 914 0
 503 00d6 CE88     		ldrh	r6, [r1, #6]
 504 00d8 F6B2     		uxtb	r6, r6
 505 00da 0E4D     		ldr	r5, .L41+16
 506 00dc 3D44     		add	r5, r5, r7
 507 00de AE71     		strb	r6, [r5, #6]
 915:Generated_Source\PSoC5/USB_std.c ****                     USB_ARB_EP_BASE.arbEp[curEp].rwWa    = LO8(USB_EP[curEp].buffOffset);
 508              		.loc 1 915 0
 509 00e0 CE88     		ldrh	r6, [r1, #6]
 510 00e2 C6F30726 		ubfx	r6, r6, #8, #8
 511 00e6 EE71     		strb	r6, [r5, #7]
 916:Generated_Source\PSoC5/USB_std.c ****                     USB_ARB_EP_BASE.arbEp[curEp].rwWaMsb = HI8(USB_EP[curEp].buffOffset);
 512              		.loc 1 916 0
 513 00e8 CE88     		ldrh	r6, [r1, #6]
 514 00ea F6B2     		uxtb	r6, r6
 515 00ec 2E71     		strb	r6, [r5, #4]
 917:Generated_Source\PSoC5/USB_std.c ****                 #endif /* (CY_PSOC4) */                
 516              		.loc 1 917 0
 517 00ee C988     		ldrh	r1, [r1, #6]
 518 00f0 C1F30721 		ubfx	r1, r1, #8, #8
 519 00f4 6971     		strb	r1, [r5, #5]
 520              	.L32:
 922:Generated_Source\PSoC5/USB_std.c ****         }
 521              		.loc 1 922 0 discriminator 2
 522 00f6 0832     		adds	r2, r2, #8
 523              	.LVL38:
 832:Generated_Source\PSoC5/USB_std.c ****         {
 524              		.loc 1 832 0 discriminator 2
 525 00f8 0133     		adds	r3, r3, #1
 526              	.LVL39:
 527 00fa DBB2     		uxtb	r3, r3
 528              	.LVL40:
 529              	.L31:
 832:Generated_Source\PSoC5/USB_std.c ****         {
 530              		.loc 1 832 0 is_stmt 0 discriminator 1
 531 00fc A342     		cmp	r3, r4
ARM GAS  C:\Users\Revanth\AppData\Local\Temp\cctCFyeS.s 			page 28


 532 00fe 92D3     		bcc	.L37
 533              	.LVL41:
 534              	.L29:
 535 0100 F8BD     		pop	{r3, r4, r5, r6, r7, pc}
 536              	.L42:
 537 0102 00BF     		.align	2
 538              	.L41:
 539 0104 00000000 		.word	USB_configuration
 540 0108 00000000 		.word	USB_interfaceNumber
 541 010c 00000000 		.word	USB_interfaceSetting
 542 0110 00000000 		.word	USB_EP
 543 0114 70600040 		.word	1073766512
 544 0118 FC5F0040 		.word	1073766396
 545              		.cfi_endproc
 546              	.LFE5:
 547              		.size	USB_ConfigAltChanged, .-USB_ConfigAltChanged
 548              		.section	.text.USB_GetDeviceTablePtr,"ax",%progbits
 549              		.align	2
 550              		.global	USB_GetDeviceTablePtr
 551              		.thumb
 552              		.thumb_func
 553              		.type	USB_GetDeviceTablePtr, %function
 554              	USB_GetDeviceTablePtr:
 555              	.LFB7:
 968:Generated_Source\PSoC5/USB_std.c **** 
 969:Generated_Source\PSoC5/USB_std.c **** 
 970:Generated_Source\PSoC5/USB_std.c **** #if (USB_BOS_ENABLE)
 971:Generated_Source\PSoC5/USB_std.c ****     /*******************************************************************************
 972:Generated_Source\PSoC5/USB_std.c ****     * Function Name: USB_GetBOSPtr
 973:Generated_Source\PSoC5/USB_std.c ****     ****************************************************************************//**
 974:Generated_Source\PSoC5/USB_std.c ****     *
 975:Generated_Source\PSoC5/USB_std.c ****     *  This routine returns a pointer a BOS table entry
 976:Generated_Source\PSoC5/USB_std.c ****     *
 977:Generated_Source\PSoC5/USB_std.c ****     *  
 978:Generated_Source\PSoC5/USB_std.c ****     *
 979:Generated_Source\PSoC5/USB_std.c ****     * \return
 980:Generated_Source\PSoC5/USB_std.c ****     *  BOS Descriptor pointer or NULL when descriptor does not exist.
 981:Generated_Source\PSoC5/USB_std.c ****     *
 982:Generated_Source\PSoC5/USB_std.c ****     *******************************************************************************/
 983:Generated_Source\PSoC5/USB_std.c ****     const T_USB_LUT CYCODE *USB_GetBOSPtr(void)
 984:Generated_Source\PSoC5/USB_std.c ****                                                             
 985:Generated_Source\PSoC5/USB_std.c ****     {
 986:Generated_Source\PSoC5/USB_std.c ****         /* Device Table */
 987:Generated_Source\PSoC5/USB_std.c ****         const T_USB_LUT CYCODE *pTmp;
 988:Generated_Source\PSoC5/USB_std.c **** 
 989:Generated_Source\PSoC5/USB_std.c ****         pTmp = (const T_USB_LUT CYCODE *) USB_TABLE[USB_device].p_list;
 990:Generated_Source\PSoC5/USB_std.c **** 
 991:Generated_Source\PSoC5/USB_std.c ****         /* The first entry points to the Device Descriptor,
 992:Generated_Source\PSoC5/USB_std.c ****         *  the second entry points to the BOS Descriptor
 993:Generated_Source\PSoC5/USB_std.c ****         */
 994:Generated_Source\PSoC5/USB_std.c ****         pTmp = &pTmp[1u];
 995:Generated_Source\PSoC5/USB_std.c ****         pTmp = (const T_USB_LUT CYCODE *) pTmp->p_list;
 996:Generated_Source\PSoC5/USB_std.c ****         return (pTmp);
 997:Generated_Source\PSoC5/USB_std.c ****     }
 998:Generated_Source\PSoC5/USB_std.c **** #endif /* (USB_BOS_ENABLE) */
 999:Generated_Source\PSoC5/USB_std.c **** 
1000:Generated_Source\PSoC5/USB_std.c **** 
ARM GAS  C:\Users\Revanth\AppData\Local\Temp\cctCFyeS.s 			page 29


1001:Generated_Source\PSoC5/USB_std.c **** /*******************************************************************************
1002:Generated_Source\PSoC5/USB_std.c **** * Function Name: USB_GetDeviceTablePtr
1003:Generated_Source\PSoC5/USB_std.c **** ****************************************************************************//**
1004:Generated_Source\PSoC5/USB_std.c **** *
1005:Generated_Source\PSoC5/USB_std.c **** *  This routine returns a pointer to the Device table
1006:Generated_Source\PSoC5/USB_std.c **** *
1007:Generated_Source\PSoC5/USB_std.c **** * \return
1008:Generated_Source\PSoC5/USB_std.c **** *  Device Table pointer
1009:Generated_Source\PSoC5/USB_std.c **** *
1010:Generated_Source\PSoC5/USB_std.c **** *******************************************************************************/
1011:Generated_Source\PSoC5/USB_std.c **** const T_USB_LUT CYCODE *USB_GetDeviceTablePtr(void)
1012:Generated_Source\PSoC5/USB_std.c ****                                                             
1013:Generated_Source\PSoC5/USB_std.c **** {
 556              		.loc 1 1013 0 is_stmt 1
 557              		.cfi_startproc
 558              		@ args = 0, pretend = 0, frame = 0
 559              		@ frame_needed = 0, uses_anonymous_args = 0
 560              		@ link register save eliminated.
1014:Generated_Source\PSoC5/USB_std.c ****     /* Device Table */
1015:Generated_Source\PSoC5/USB_std.c ****     return( (const T_USB_LUT CYCODE *) USB_TABLE[USB_device].p_list );
 561              		.loc 1 1015 0
 562 0000 034B     		ldr	r3, .L44
 563 0002 1A78     		ldrb	r2, [r3]	@ zero_extendqisi2
 564 0004 034B     		ldr	r3, .L44+4
 565 0006 03EBC203 		add	r3, r3, r2, lsl #3
1016:Generated_Source\PSoC5/USB_std.c **** }
 566              		.loc 1 1016 0
 567 000a 5868     		ldr	r0, [r3, #4]
 568 000c 7047     		bx	lr
 569              	.L45:
 570 000e 00BF     		.align	2
 571              	.L44:
 572 0010 00000000 		.word	USB_device
 573 0014 00000000 		.word	USB_TABLE
 574              		.cfi_endproc
 575              	.LFE7:
 576              		.size	USB_GetDeviceTablePtr, .-USB_GetDeviceTablePtr
 577              		.section	.text.USB_GetInterfaceClassTablePtr,"ax",%progbits
 578              		.align	2
 579              		.global	USB_GetInterfaceClassTablePtr
 580              		.thumb
 581              		.thumb_func
 582              		.type	USB_GetInterfaceClassTablePtr, %function
 583              	USB_GetInterfaceClassTablePtr:
 584              	.LFB8:
1017:Generated_Source\PSoC5/USB_std.c **** 
1018:Generated_Source\PSoC5/USB_std.c **** 
1019:Generated_Source\PSoC5/USB_std.c **** /*******************************************************************************
1020:Generated_Source\PSoC5/USB_std.c **** * Function Name: USB_GetInterfaceClassTablePtr
1021:Generated_Source\PSoC5/USB_std.c **** ****************************************************************************//**
1022:Generated_Source\PSoC5/USB_std.c **** *
1023:Generated_Source\PSoC5/USB_std.c **** *  This routine returns Interface Class table pointer, which contains
1024:Generated_Source\PSoC5/USB_std.c **** *  the relation between interface number and interface class.
1025:Generated_Source\PSoC5/USB_std.c **** *
1026:Generated_Source\PSoC5/USB_std.c **** * \return
1027:Generated_Source\PSoC5/USB_std.c **** *  Interface Class table pointer.
1028:Generated_Source\PSoC5/USB_std.c **** *
ARM GAS  C:\Users\Revanth\AppData\Local\Temp\cctCFyeS.s 			page 30


1029:Generated_Source\PSoC5/USB_std.c **** *******************************************************************************/
1030:Generated_Source\PSoC5/USB_std.c **** const uint8 CYCODE *USB_GetInterfaceClassTablePtr(void)
1031:Generated_Source\PSoC5/USB_std.c ****                                                         
1032:Generated_Source\PSoC5/USB_std.c **** {
 585              		.loc 1 1032 0
 586              		.cfi_startproc
 587              		@ args = 0, pretend = 0, frame = 0
 588              		@ frame_needed = 0, uses_anonymous_args = 0
 589 0000 08B5     		push	{r3, lr}
 590              		.cfi_def_cfa_offset 8
 591              		.cfi_offset 3, -8
 592              		.cfi_offset 14, -4
1033:Generated_Source\PSoC5/USB_std.c ****     const T_USB_LUT CYCODE *pTmp;
1034:Generated_Source\PSoC5/USB_std.c ****     const uint8 CYCODE *pInterfaceClass;
1035:Generated_Source\PSoC5/USB_std.c ****     uint8 currentInterfacesNum;
1036:Generated_Source\PSoC5/USB_std.c **** 
1037:Generated_Source\PSoC5/USB_std.c ****     pTmp = USB_GetConfigTablePtr(USB_configuration - 1u);
 593              		.loc 1 1037 0
 594 0002 084B     		ldr	r3, .L50
 595 0004 1878     		ldrb	r0, [r3]	@ zero_extendqisi2
 596 0006 0138     		subs	r0, r0, #1
 597 0008 C0B2     		uxtb	r0, r0
 598 000a FFF7FEFF 		bl	USB_GetConfigTablePtr
 599              	.LVL42:
1038:Generated_Source\PSoC5/USB_std.c ****     if (pTmp != NULL)
 600              		.loc 1 1038 0
 601 000e 30B1     		cbz	r0, .L48
1039:Generated_Source\PSoC5/USB_std.c ****     {
1040:Generated_Source\PSoC5/USB_std.c ****         currentInterfacesNum  = ((const uint8 *) pTmp->p_list)[USB_CONFIG_DESCR_NUM_INTERFACES];
 602              		.loc 1 1040 0
 603 0010 4268     		ldr	r2, [r0, #4]
 604 0012 1279     		ldrb	r2, [r2, #4]	@ zero_extendqisi2
 605              	.LVL43:
1041:Generated_Source\PSoC5/USB_std.c ****         /* Third entry in the LUT starts the Interface Table pointers */
1042:Generated_Source\PSoC5/USB_std.c ****         /* The INTERFACE_CLASS table is located after all interfaces */
1043:Generated_Source\PSoC5/USB_std.c ****         pTmp = &pTmp[currentInterfacesNum + 2u];
 606              		.loc 1 1043 0
 607 0014 0232     		adds	r2, r2, #2
 608              	.LVL44:
 609 0016 00EBC203 		add	r3, r0, r2, lsl #3
 610              	.LVL45:
1044:Generated_Source\PSoC5/USB_std.c ****         pInterfaceClass = (const uint8 CYCODE *) pTmp->p_list;
 611              		.loc 1 1044 0
 612 001a 5868     		ldr	r0, [r3, #4]
 613              	.LVL46:
 614 001c 08BD     		pop	{r3, pc}
 615              	.LVL47:
 616              	.L48:
1045:Generated_Source\PSoC5/USB_std.c ****     }
1046:Generated_Source\PSoC5/USB_std.c ****     else
1047:Generated_Source\PSoC5/USB_std.c ****     {
1048:Generated_Source\PSoC5/USB_std.c ****         pInterfaceClass = (const uint8 CYCODE *) NULL;
 617              		.loc 1 1048 0
 618 001e 0020     		movs	r0, #0
 619              	.LVL48:
1049:Generated_Source\PSoC5/USB_std.c ****     }
1050:Generated_Source\PSoC5/USB_std.c **** 
ARM GAS  C:\Users\Revanth\AppData\Local\Temp\cctCFyeS.s 			page 31


1051:Generated_Source\PSoC5/USB_std.c ****     return (pInterfaceClass);
1052:Generated_Source\PSoC5/USB_std.c **** }
 620              		.loc 1 1052 0
 621 0020 08BD     		pop	{r3, pc}
 622              	.L51:
 623 0022 00BF     		.align	2
 624              	.L50:
 625 0024 00000000 		.word	USB_configuration
 626              		.cfi_endproc
 627              	.LFE8:
 628              		.size	USB_GetInterfaceClassTablePtr, .-USB_GetInterfaceClassTablePtr
 629              		.section	.text.USB_Config,"ax",%progbits
 630              		.align	2
 631              		.global	USB_Config
 632              		.thumb
 633              		.thumb_func
 634              		.type	USB_Config, %function
 635              	USB_Config:
 636              	.LFB4:
 571:Generated_Source\PSoC5/USB_std.c ****     uint8 ep;
 637              		.loc 1 571 0
 638              		.cfi_startproc
 639              		@ args = 0, pretend = 0, frame = 0
 640              		@ frame_needed = 0, uses_anonymous_args = 0
 641              	.LVL49:
 642 0000 2DE9F047 		push	{r4, r5, r6, r7, r8, r9, r10, lr}
 643              		.cfi_def_cfa_offset 32
 644              		.cfi_offset 4, -32
 645              		.cfi_offset 5, -28
 646              		.cfi_offset 6, -24
 647              		.cfi_offset 7, -20
 648              		.cfi_offset 8, -16
 649              		.cfi_offset 9, -12
 650              		.cfi_offset 10, -8
 651              		.cfi_offset 14, -4
 652              	.LVL50:
 586:Generated_Source\PSoC5/USB_std.c ****     {
 653              		.loc 1 586 0
 654 0004 0023     		movs	r3, #0
 655 0006 10E0     		b	.L53
 656              	.LVL51:
 657              	.L54:
 588:Generated_Source\PSoC5/USB_std.c ****         USB_EP[ep].hwEpState  = 0u;
 658              		.loc 1 588 0 discriminator 3
 659 0008 724D     		ldr	r5, .L80
 660 000a 5900     		lsls	r1, r3, #1
 661 000c CA18     		adds	r2, r1, r3
 662 000e 9600     		lsls	r6, r2, #2
 663 0010 AC19     		adds	r4, r5, r6
 664 0012 0022     		movs	r2, #0
 665 0014 AA55     		strb	r2, [r5, r6]
 589:Generated_Source\PSoC5/USB_std.c ****         USB_EP[ep].epToggle   = 0u;
 666              		.loc 1 589 0 discriminator 3
 667 0016 A270     		strb	r2, [r4, #2]
 590:Generated_Source\PSoC5/USB_std.c ****         USB_EP[ep].bufferSize = 0u;
 668              		.loc 1 590 0 discriminator 3
 669 0018 E270     		strb	r2, [r4, #3]
ARM GAS  C:\Users\Revanth\AppData\Local\Temp\cctCFyeS.s 			page 32


 591:Generated_Source\PSoC5/USB_std.c ****         USB_EP[ep].interface  = 0u;
 670              		.loc 1 591 0 discriminator 3
 671 001a 2281     		strh	r2, [r4, #8]	@ movhi
 592:Generated_Source\PSoC5/USB_std.c ****         USB_EP[ep].apiEpState = USB_NO_EVENT_PENDING;
 672              		.loc 1 592 0 discriminator 3
 673 001c A272     		strb	r2, [r4, #10]
 593:Generated_Source\PSoC5/USB_std.c ****         USB_EP[ep].epMode     = USB_MODE_DISABLE;   
 674              		.loc 1 593 0 discriminator 3
 675 001e 6270     		strb	r2, [r4, #1]
 594:Generated_Source\PSoC5/USB_std.c ****     }
 676              		.loc 1 594 0 discriminator 3
 677 0020 3446     		mov	r4, r6
 678 0022 2C44     		add	r4, r4, r5
 679 0024 6271     		strb	r2, [r4, #5]
 586:Generated_Source\PSoC5/USB_std.c ****     {
 680              		.loc 1 586 0 discriminator 3
 681 0026 0133     		adds	r3, r3, #1
 682              	.LVL52:
 683 0028 DBB2     		uxtb	r3, r3
 684              	.LVL53:
 685              	.L53:
 586:Generated_Source\PSoC5/USB_std.c ****     {
 686              		.loc 1 586 0 is_stmt 0 discriminator 1
 687 002a 082B     		cmp	r3, #8
 688 002c ECD9     		bls	.L54
 598:Generated_Source\PSoC5/USB_std.c ****     {
 689              		.loc 1 598 0 is_stmt 1
 690 002e 40B9     		cbnz	r0, .L76
 691 0030 0AE0     		b	.L56
 692              	.LVL54:
 693              	.L57:
 602:Generated_Source\PSoC5/USB_std.c ****             USB_interfaceSettingLast[i] = 0u;
 694              		.loc 1 602 0 discriminator 3
 695 0032 0022     		movs	r2, #0
 696 0034 6849     		ldr	r1, .L80+4
 697 0036 CA54     		strb	r2, [r1, r3]
 603:Generated_Source\PSoC5/USB_std.c ****         }
 698              		.loc 1 603 0 discriminator 3
 699 0038 6849     		ldr	r1, .L80+8
 700 003a CA54     		strb	r2, [r1, r3]
 600:Generated_Source\PSoC5/USB_std.c ****         {
 701              		.loc 1 600 0 discriminator 3
 702 003c 0133     		adds	r3, r3, #1
 703              	.LVL55:
 704 003e DBB2     		uxtb	r3, r3
 705              	.LVL56:
 706 0040 00E0     		b	.L55
 707              	.LVL57:
 708              	.L76:
 709 0042 0023     		movs	r3, #0
 710              	.LVL58:
 711              	.L55:
 600:Generated_Source\PSoC5/USB_std.c ****         {
 712              		.loc 1 600 0 is_stmt 0 discriminator 1
 713 0044 012B     		cmp	r3, #1
 714 0046 F4D9     		bls	.L57
 715              	.LVL59:
ARM GAS  C:\Users\Revanth\AppData\Local\Temp\cctCFyeS.s 			page 33


 716              	.L56:
 608:Generated_Source\PSoC5/USB_std.c ****     {
 717              		.loc 1 608 0 is_stmt 1
 718 0048 654B     		ldr	r3, .L80+12
 719 004a 1B78     		ldrb	r3, [r3]	@ zero_extendqisi2
 720 004c 13F0FF0F 		tst	r3, #255
 721 0050 00F0BD80 		beq	.L52
 722              	.LVL60:
 723              	.LBB2:
 614:Generated_Source\PSoC5/USB_std.c ****         
 724              		.loc 1 614 0
 725 0054 624B     		ldr	r3, .L80+12
 726 0056 1878     		ldrb	r0, [r3]	@ zero_extendqisi2
 727              	.LVL61:
 728 0058 0138     		subs	r0, r0, #1
 729 005a C0B2     		uxtb	r0, r0
 730 005c FFF7FEFF 		bl	USB_GetConfigTablePtr
 731              	.LVL62:
 732 0060 8046     		mov	r8, r0
 733              	.LVL63:
 617:Generated_Source\PSoC5/USB_std.c ****         if ((pDescr[USB_CONFIG_DESCR_ATTRIB] & USB_CONFIG_DESCR_ATTRIB_SELF_POWERED) != 0u)
 734              		.loc 1 617 0
 735 0062 4368     		ldr	r3, [r0, #4]
 736              	.LVL64:
 618:Generated_Source\PSoC5/USB_std.c ****         {
 737              		.loc 1 618 0
 738 0064 DB79     		ldrb	r3, [r3, #7]	@ zero_extendqisi2
 739              	.LVL65:
 740 0066 13F0400F 		tst	r3, #64
 741 006a 05D0     		beq	.L59
 620:Generated_Source\PSoC5/USB_std.c ****         }
 742              		.loc 1 620 0
 743 006c 5D4A     		ldr	r2, .L80+16
 744 006e 1378     		ldrb	r3, [r2]	@ zero_extendqisi2
 745 0070 43F00103 		orr	r3, r3, #1
 746 0074 1370     		strb	r3, [r2]
 747 0076 04E0     		b	.L60
 748              	.L59:
 624:Generated_Source\PSoC5/USB_std.c ****         }
 749              		.loc 1 624 0
 750 0078 5A4A     		ldr	r2, .L80+16
 751 007a 1378     		ldrb	r3, [r2]	@ zero_extendqisi2
 752 007c 03F0FE03 		and	r3, r3, #254
 753 0080 1370     		strb	r3, [r2]
 754              	.L60:
 755              	.LVL66:
 629:Generated_Source\PSoC5/USB_std.c **** 
 756              		.loc 1 629 0
 757 0082 98F80870 		ldrb	r7, [r8, #8]	@ zero_extendqisi2
 758              	.LVL67:
 611:Generated_Source\PSoC5/USB_std.c ****         #endif  /* (USB_ENABLE_CDC_CLASS) */  
 759              		.loc 1 611 0
 760 0086 4FF0000A 		mov	r10, #0
 687:Generated_Source\PSoC5/USB_std.c ****             {
 761              		.loc 1 687 0
 762 008a 0126     		movs	r6, #1
 763 008c 6FE0     		b	.L61
ARM GAS  C:\Users\Revanth\AppData\Local\Temp\cctCFyeS.s 			page 34


 764              	.LVL68:
 765              	.L71:
 690:Generated_Source\PSoC5/USB_std.c ****                 /* Find max length for each EP and select it (length could be different in differen
 766              		.loc 1 690 0
 767 008e D8F80C50 		ldr	r5, [r8, #12]
 768              	.LVL69:
 694:Generated_Source\PSoC5/USB_std.c ****                 {
 769              		.loc 1 694 0
 770 0092 0024     		movs	r4, #0
 771 0094 67E0     		b	.L62
 772              	.LVL70:
 773              	.L70:
 696:Generated_Source\PSoC5/USB_std.c ****                     {
 774              		.loc 1 696 0
 775 0096 AB78     		ldrb	r3, [r5, #2]	@ zero_extendqisi2
 776 0098 03F07F03 		and	r3, r3, #127
 777 009c 9E42     		cmp	r6, r3
 778 009e 5FD1     		bne	.L63
 699:Generated_Source\PSoC5/USB_std.c ****                         {
 779              		.loc 1 699 0
 780 00a0 3146     		mov	r1, r6
 781 00a2 06EB4600 		add	r0, r6, r6, lsl #1
 782 00a6 8300     		lsls	r3, r0, #2
 783 00a8 4A48     		ldr	r0, .L80
 784 00aa 0344     		add	r3, r3, r0
 785 00ac 1B89     		ldrh	r3, [r3, #8]
 786 00ae 9BB2     		uxth	r3, r3
 787 00b0 A888     		ldrh	r0, [r5, #4]
 788 00b2 8342     		cmp	r3, r0
 789 00b4 06D2     		bcs	.L64
 701:Generated_Source\PSoC5/USB_std.c ****                         }
 790              		.loc 1 701 0
 791 00b6 06EB460E 		add	lr, r6, r6, lsl #1
 792 00ba 4FEA8E03 		lsl	r3, lr, #2
 793 00be 454A     		ldr	r2, .L80
 794 00c0 1344     		add	r3, r3, r2
 795 00c2 1881     		strh	r0, [r3, #8]	@ movhi
 796              	.L64:
 705:Generated_Source\PSoC5/USB_std.c ****                         {                            
 797              		.loc 1 705 0
 798 00c4 2B78     		ldrb	r3, [r5]	@ zero_extendqisi2
 799 00c6 4448     		ldr	r0, .L80+4
 800 00c8 C35C     		ldrb	r3, [r0, r3]	@ zero_extendqisi2
 801 00ca DBB2     		uxtb	r3, r3
 802 00cc 6878     		ldrb	r0, [r5, #1]	@ zero_extendqisi2
 803 00ce 8342     		cmp	r3, r0
 804 00d0 46D1     		bne	.L63
 707:Generated_Source\PSoC5/USB_std.c ****                             USB_EP[i].attrib = pEP->attributes;
 805              		.loc 1 707 0
 806 00d2 95F802C0 		ldrb	ip, [r5, #2]	@ zero_extendqisi2
 807 00d6 DFF8FCE0 		ldr	lr, .L80
 808 00da 4B00     		lsls	r3, r1, #1
 809 00dc 0B44     		add	r3, r3, r1
 810 00de 9800     		lsls	r0, r3, #2
 811 00e0 0EEB0003 		add	r3, lr, r0
 812 00e4 83F804C0 		strb	ip, [r3, #4]
 708:Generated_Source\PSoC5/USB_std.c ****                             
ARM GAS  C:\Users\Revanth\AppData\Local\Temp\cctCFyeS.s 			page 35


 813              		.loc 1 708 0
 814 00e8 EB78     		ldrb	r3, [r5, #3]	@ zero_extendqisi2
 815 00ea 0EF80030 		strb	r3, [lr, r0]
 710:Generated_Source\PSoC5/USB_std.c ****                             
 816              		.loc 1 710 0
 817 00ee EB78     		ldrb	r3, [r5, #3]	@ zero_extendqisi2
 818 00f0 03F00303 		and	r3, r3, #3
 819              	.LVL71:
 712:Generated_Source\PSoC5/USB_std.c ****                             {
 820              		.loc 1 712 0
 821 00f4 95F90200 		ldrsb	r0, [r5, #2]
 822 00f8 0028     		cmp	r0, #0
 823 00fa 13DA     		bge	.L65
 715:Generated_Source\PSoC5/USB_std.c ****                                 USB_EP[i].apiEpState = USB_EVENT_PENDING;
 824              		.loc 1 715 0
 825 00fc 012B     		cmp	r3, #1
 826 00fe 02D1     		bne	.L77
 827 0100 4FF00709 		mov	r9, #7
 828 0104 01E0     		b	.L66
 829              	.L77:
 830 0106 4FF00D09 		mov	r9, #13
 831              	.L66:
 715:Generated_Source\PSoC5/USB_std.c ****                                 USB_EP[i].apiEpState = USB_EVENT_PENDING;
 832              		.loc 1 715 0 is_stmt 0 discriminator 4
 833 010a DFF8C8E0 		ldr	lr, .L80
 834 010e 4B00     		lsls	r3, r1, #1
 835              	.LVL72:
 836 0110 03EB010C 		add	ip, r3, r1
 837 0114 4FEA8C00 		lsl	r0, ip, #2
 838 0118 7044     		add	r0, r0, lr
 839 011a 80F80590 		strb	r9, [r0, #5]
 840              	.LVL73:
 716:Generated_Source\PSoC5/USB_std.c ****                                 
 841              		.loc 1 716 0 is_stmt 1 discriminator 4
 842 011e 0121     		movs	r1, #1
 843 0120 4170     		strb	r1, [r0, #1]
 844 0122 12E0     		b	.L67
 845              	.LVL74:
 846              	.L65:
 728:Generated_Source\PSoC5/USB_std.c ****                                 USB_EP[i].apiEpState = USB_NO_EVENT_PENDING;
 847              		.loc 1 728 0
 848 0124 012B     		cmp	r3, #1
 849 0126 02D1     		bne	.L78
 850 0128 4FF00509 		mov	r9, #5
 851 012c 01E0     		b	.L68
 852              	.L78:
 853 012e 4FF00909 		mov	r9, #9
 854              	.L68:
 728:Generated_Source\PSoC5/USB_std.c ****                                 USB_EP[i].apiEpState = USB_NO_EVENT_PENDING;
 855              		.loc 1 728 0 is_stmt 0 discriminator 4
 856 0132 DFF8A0E0 		ldr	lr, .L80
 857 0136 4B00     		lsls	r3, r1, #1
 858              	.LVL75:
 859 0138 03EB010C 		add	ip, r3, r1
 860 013c 4FEA8C00 		lsl	r0, ip, #2
 861 0140 7044     		add	r0, r0, lr
 862 0142 80F80590 		strb	r9, [r0, #5]
ARM GAS  C:\Users\Revanth\AppData\Local\Temp\cctCFyeS.s 			page 36


 863              	.LVL76:
 729:Generated_Source\PSoC5/USB_std.c ****                                 
 864              		.loc 1 729 0 is_stmt 1 discriminator 4
 865 0146 0021     		movs	r1, #0
 866 0148 4170     		strb	r1, [r0, #1]
 867              	.L67:
 740:Generated_Source\PSoC5/USB_std.c ****                             {
 868              		.loc 1 740 0
 869 014a AB79     		ldrb	r3, [r5, #6]	@ zero_extendqisi2
 870 014c 0A2B     		cmp	r3, #10
 871 014e 01D0     		beq	.L69
 740:Generated_Source\PSoC5/USB_std.c ****                             {
 872              		.loc 1 740 0 is_stmt 0 discriminator 1
 873 0150 022B     		cmp	r3, #2
 874 0152 05D1     		bne	.L63
 875              	.L69:
 742:Generated_Source\PSoC5/USB_std.c ****                             }
 876              		.loc 1 742 0 is_stmt 1
 877 0154 5246     		mov	r2, r10
 878 0156 3146     		mov	r1, r6
 879 0158 2846     		mov	r0, r5
 880 015a FFF7FEFF 		bl	USB_Cdc_EpInit
 881              	.LVL77:
 882 015e 8246     		mov	r10, r0
 883              	.LVL78:
 884              	.L63:
 752:Generated_Source\PSoC5/USB_std.c ****                 }
 885              		.loc 1 752 0 discriminator 2
 886 0160 0835     		adds	r5, r5, #8
 887              	.LVL79:
 694:Generated_Source\PSoC5/USB_std.c ****                 {
 888              		.loc 1 694 0 discriminator 2
 889 0162 0134     		adds	r4, r4, #1
 890              	.LVL80:
 891 0164 E4B2     		uxtb	r4, r4
 892              	.LVL81:
 893              	.L62:
 694:Generated_Source\PSoC5/USB_std.c ****                 {
 894              		.loc 1 694 0 is_stmt 0 discriminator 1
 895 0166 BC42     		cmp	r4, r7
 896 0168 95D3     		bcc	.L70
 687:Generated_Source\PSoC5/USB_std.c ****             {
 897              		.loc 1 687 0 is_stmt 1 discriminator 2
 898 016a 0136     		adds	r6, r6, #1
 899              	.LVL82:
 900 016c F6B2     		uxtb	r6, r6
 901              	.LVL83:
 902              	.L61:
 687:Generated_Source\PSoC5/USB_std.c ****             {
 903              		.loc 1 687 0 is_stmt 0 discriminator 1
 904 016e 082E     		cmp	r6, #8
 905 0170 8DD9     		bls	.L71
 762:Generated_Source\PSoC5/USB_std.c ****         for (i = 0u; i < ep; i++)
 906              		.loc 1 762 0 is_stmt 1
 907 0172 D8F80C00 		ldr	r0, [r8, #12]
 908              	.LVL84:
 763:Generated_Source\PSoC5/USB_std.c ****         {
ARM GAS  C:\Users\Revanth\AppData\Local\Temp\cctCFyeS.s 			page 37


 909              		.loc 1 763 0
 910 0176 0022     		movs	r2, #0
 911 0178 0CE0     		b	.L72
 912              	.LVL85:
 913              	.L73:
 766:Generated_Source\PSoC5/USB_std.c ****             pEP = &pEP[1u];
 914              		.loc 1 766 0 discriminator 3
 915 017a 8378     		ldrb	r3, [r0, #2]	@ zero_extendqisi2
 916 017c 03F07F03 		and	r3, r3, #127
 917 0180 10F8084B 		ldrb	r4, [r0], #8	@ zero_extendqisi2
 918              	.LVL86:
 919 0184 03EB4303 		add	r3, r3, r3, lsl #1
 920 0188 9900     		lsls	r1, r3, #2
 921 018a 124B     		ldr	r3, .L80
 922 018c 1944     		add	r1, r1, r3
 923 018e 8C72     		strb	r4, [r1, #10]
 924              	.LVL87:
 763:Generated_Source\PSoC5/USB_std.c ****         {
 925              		.loc 1 763 0 discriminator 3
 926 0190 0132     		adds	r2, r2, #1
 927              	.LVL88:
 928 0192 D2B2     		uxtb	r2, r2
 929              	.LVL89:
 930              	.L72:
 763:Generated_Source\PSoC5/USB_std.c ****         {
 931              		.loc 1 763 0 is_stmt 0 discriminator 1
 932 0194 BA42     		cmp	r2, r7
 933 0196 F0D3     		bcc	.L73
 771:Generated_Source\PSoC5/USB_std.c ****         
 934              		.loc 1 771 0 is_stmt 1
 935 0198 FFF7FEFF 		bl	USB_GetInterfaceClassTablePtr
 936              	.LVL90:
 937 019c 124B     		ldr	r3, .L80+20
 938 019e 1860     		str	r0, [r3]
 939              	.LVL91:
 775:Generated_Source\PSoC5/USB_std.c ****         for (ep = USB_EP1; ep < USB_MAX_EP; ++ep)
 940              		.loc 1 775 0
 941 01a0 0023     		movs	r3, #0
 776:Generated_Source\PSoC5/USB_std.c ****         {
 942              		.loc 1 776 0
 943 01a2 0121     		movs	r1, #1
 944 01a4 0FE0     		b	.L74
 945              	.LVL92:
 946              	.L75:
 778:Generated_Source\PSoC5/USB_std.c ****             buffCount += USB_EP[ep].bufferSize;
 947              		.loc 1 778 0 discriminator 3
 948 01a6 0B4D     		ldr	r5, .L80
 949 01a8 4A00     		lsls	r2, r1, #1
 950 01aa 5018     		adds	r0, r2, r1
 951 01ac 8400     		lsls	r4, r0, #2
 952 01ae 2C44     		add	r4, r4, r5
 953 01b0 E380     		strh	r3, [r4, #6]	@ movhi
 779:Generated_Source\PSoC5/USB_std.c ****             
 954              		.loc 1 779 0 discriminator 3
 955 01b2 2289     		ldrh	r2, [r4, #8]
 956 01b4 92B2     		uxth	r2, r2
 957 01b6 1344     		add	r3, r3, r2
ARM GAS  C:\Users\Revanth\AppData\Local\Temp\cctCFyeS.s 			page 38


 958              	.LVL93:
 959 01b8 9BB2     		uxth	r3, r3
 960              	.LVL94:
 783:Generated_Source\PSoC5/USB_std.c ****         #endif /* (USB_GEN_16BITS_EP_ACCESS) */            
 961              		.loc 1 783 0 discriminator 3
 962 01ba 03F00102 		and	r2, r3, #1
 963 01be 1344     		add	r3, r3, r2
 964              	.LVL95:
 965 01c0 9BB2     		uxth	r3, r3
 966              	.LVL96:
 776:Generated_Source\PSoC5/USB_std.c ****         {
 967              		.loc 1 776 0 discriminator 3
 968 01c2 0131     		adds	r1, r1, #1
 969              	.LVL97:
 970 01c4 C9B2     		uxtb	r1, r1
 971              	.LVL98:
 972              	.L74:
 776:Generated_Source\PSoC5/USB_std.c ****         {
 973              		.loc 1 776 0 is_stmt 0 discriminator 1
 974 01c6 0829     		cmp	r1, #8
 975 01c8 EDD9     		bls	.L75
 789:Generated_Source\PSoC5/USB_std.c ****     }
 976              		.loc 1 789 0 is_stmt 1
 977 01ca FFF7FEFF 		bl	USB_ConfigReg
 978              	.LVL99:
 979              	.L52:
 980 01ce BDE8F087 		pop	{r4, r5, r6, r7, r8, r9, r10, pc}
 981              	.L81:
 982 01d2 00BF     		.align	2
 983              	.L80:
 984 01d4 00000000 		.word	USB_EP
 985 01d8 00000000 		.word	USB_interfaceSetting
 986 01dc 00000000 		.word	USB_interfaceSettingLast
 987 01e0 00000000 		.word	USB_configuration
 988 01e4 00000000 		.word	USB_deviceStatus
 989 01e8 00000000 		.word	USB_interfaceClass
 990              	.LBE2:
 991              		.cfi_endproc
 992              	.LFE4:
 993              		.size	USB_Config, .-USB_Config
 994              		.section	.text.USB_TerminateEP,"ax",%progbits
 995              		.align	2
 996              		.global	USB_TerminateEP
 997              		.thumb
 998              		.thumb_func
 999              		.type	USB_TerminateEP, %function
 1000              	USB_TerminateEP:
 1001              	.LFB9:
1053:Generated_Source\PSoC5/USB_std.c **** 
1054:Generated_Source\PSoC5/USB_std.c **** 
1055:Generated_Source\PSoC5/USB_std.c **** /*******************************************************************************
1056:Generated_Source\PSoC5/USB_std.c **** * Function Name: USB_TerminateEP
1057:Generated_Source\PSoC5/USB_std.c **** ****************************************************************************//**
1058:Generated_Source\PSoC5/USB_std.c **** *
1059:Generated_Source\PSoC5/USB_std.c **** *  This function terminates the specified USBFS endpoint.
1060:Generated_Source\PSoC5/USB_std.c **** *  This function should be used before endpoint reconfiguration.
1061:Generated_Source\PSoC5/USB_std.c **** *
ARM GAS  C:\Users\Revanth\AppData\Local\Temp\cctCFyeS.s 			page 39


1062:Generated_Source\PSoC5/USB_std.c **** *  \param ep Contains the data endpoint number.
1063:Generated_Source\PSoC5/USB_std.c **** *
1064:Generated_Source\PSoC5/USB_std.c **** *  \reentrant
1065:Generated_Source\PSoC5/USB_std.c **** *  No.
1066:Generated_Source\PSoC5/USB_std.c **** *
1067:Generated_Source\PSoC5/USB_std.c **** * \sideeffect
1068:Generated_Source\PSoC5/USB_std.c **** * 
1069:Generated_Source\PSoC5/USB_std.c **** * The device responds with a NAK for any transactions on the selected endpoint.
1070:Generated_Source\PSoC5/USB_std.c **** *   
1071:Generated_Source\PSoC5/USB_std.c **** *******************************************************************************/
1072:Generated_Source\PSoC5/USB_std.c **** void USB_TerminateEP(uint8 epNumber) 
1073:Generated_Source\PSoC5/USB_std.c **** {
 1002              		.loc 1 1073 0
 1003              		.cfi_startproc
 1004              		@ args = 0, pretend = 0, frame = 0
 1005              		@ frame_needed = 0, uses_anonymous_args = 0
 1006              		@ link register save eliminated.
 1007              	.LVL100:
1074:Generated_Source\PSoC5/USB_std.c ****     /* Get endpoint number */
1075:Generated_Source\PSoC5/USB_std.c ****     epNumber &= USB_DIR_UNUSED;
 1008              		.loc 1 1075 0
 1009 0000 00F07F00 		and	r0, r0, #127
 1010              	.LVL101:
1076:Generated_Source\PSoC5/USB_std.c **** 
1077:Generated_Source\PSoC5/USB_std.c ****     if ((epNumber > USB_EP0) && (epNumber < USB_MAX_EP))
 1011              		.loc 1 1077 0
 1012 0004 431E     		subs	r3, r0, #1
 1013 0006 DBB2     		uxtb	r3, r3
 1014 0008 072B     		cmp	r3, #7
 1015 000a 19D8     		bhi	.L82
1078:Generated_Source\PSoC5/USB_std.c ****     {
1079:Generated_Source\PSoC5/USB_std.c ****         /* Set the endpoint Halt */
1080:Generated_Source\PSoC5/USB_std.c ****         USB_EP[epNumber].hwEpState |= USB_ENDPOINT_STATUS_HALT;
 1016              		.loc 1 1080 0
 1017 000c 4200     		lsls	r2, r0, #1
 1018 000e 0244     		add	r2, r2, r0
 1019 0010 9300     		lsls	r3, r2, #2
 1020 0012 0C4A     		ldr	r2, .L85
 1021 0014 1344     		add	r3, r3, r2
 1022 0016 9A78     		ldrb	r2, [r3, #2]	@ zero_extendqisi2
 1023 0018 42F00102 		orr	r2, r2, #1
 1024 001c 9A70     		strb	r2, [r3, #2]
1081:Generated_Source\PSoC5/USB_std.c **** 
1082:Generated_Source\PSoC5/USB_std.c ****         /* Clear the data toggle */
1083:Generated_Source\PSoC5/USB_std.c ****         USB_EP[epNumber].epToggle = 0u;
 1025              		.loc 1 1083 0
 1026 001e 0022     		movs	r2, #0
 1027 0020 DA70     		strb	r2, [r3, #3]
1084:Generated_Source\PSoC5/USB_std.c ****         USB_EP[epNumber].apiEpState = USB_NO_EVENT_ALLOWED;
 1028              		.loc 1 1084 0
 1029 0022 0222     		movs	r2, #2
 1030 0024 5A70     		strb	r2, [r3, #1]
1085:Generated_Source\PSoC5/USB_std.c **** 
1086:Generated_Source\PSoC5/USB_std.c ****         if ((USB_EP[epNumber].addr & USB_DIR_IN) != 0u)
 1031              		.loc 1 1086 0
 1032 0026 1B79     		ldrb	r3, [r3, #4]	@ zero_extendqisi2
 1033 0028 13F0800F 		tst	r3, #128
ARM GAS  C:\Users\Revanth\AppData\Local\Temp\cctCFyeS.s 			page 40


 1034 002c 04D0     		beq	.L84
1087:Generated_Source\PSoC5/USB_std.c ****         {   
1088:Generated_Source\PSoC5/USB_std.c ****             /* IN Endpoint */
1089:Generated_Source\PSoC5/USB_std.c ****             USB_SIE_EP_BASE.sieEp[epNumber].epCr0 = USB_MODE_NAK_IN;
 1035              		.loc 1 1089 0
 1036 002e 0001     		lsls	r0, r0, #4
 1037              	.LVL102:
 1038 0030 054B     		ldr	r3, .L85+4
 1039 0032 0C22     		movs	r2, #12
 1040 0034 1A54     		strb	r2, [r3, r0]
 1041 0036 7047     		bx	lr
 1042              	.LVL103:
 1043              	.L84:
1090:Generated_Source\PSoC5/USB_std.c ****         }
1091:Generated_Source\PSoC5/USB_std.c ****         else
1092:Generated_Source\PSoC5/USB_std.c ****         {
1093:Generated_Source\PSoC5/USB_std.c ****             /* OUT Endpoint */
1094:Generated_Source\PSoC5/USB_std.c ****             USB_SIE_EP_BASE.sieEp[epNumber].epCr0 = USB_MODE_NAK_OUT;
 1044              		.loc 1 1094 0
 1045 0038 0001     		lsls	r0, r0, #4
 1046              	.LVL104:
 1047 003a 034B     		ldr	r3, .L85+4
 1048 003c 0822     		movs	r2, #8
 1049 003e 1A54     		strb	r2, [r3, r0]
 1050              	.L82:
 1051 0040 7047     		bx	lr
 1052              	.L86:
 1053 0042 00BF     		.align	2
 1054              	.L85:
 1055 0044 00000000 		.word	USB_EP
 1056 0048 FE5F0040 		.word	1073766398
 1057              		.cfi_endproc
 1058              	.LFE9:
 1059              		.size	USB_TerminateEP, .-USB_TerminateEP
 1060              		.section	.text.USB_SetEndpointHalt,"ax",%progbits
 1061              		.align	2
 1062              		.global	USB_SetEndpointHalt
 1063              		.thumb
 1064              		.thumb_func
 1065              		.type	USB_SetEndpointHalt, %function
 1066              	USB_SetEndpointHalt:
 1067              	.LFB10:
1095:Generated_Source\PSoC5/USB_std.c ****         }
1096:Generated_Source\PSoC5/USB_std.c ****     }
1097:Generated_Source\PSoC5/USB_std.c **** }
1098:Generated_Source\PSoC5/USB_std.c **** 
1099:Generated_Source\PSoC5/USB_std.c **** 
1100:Generated_Source\PSoC5/USB_std.c **** /*******************************************************************************
1101:Generated_Source\PSoC5/USB_std.c **** * Function Name: USB_SetEndpointHalt
1102:Generated_Source\PSoC5/USB_std.c **** ****************************************************************************//**
1103:Generated_Source\PSoC5/USB_std.c **** *
1104:Generated_Source\PSoC5/USB_std.c **** *  This routine handles set endpoint halt.
1105:Generated_Source\PSoC5/USB_std.c **** *
1106:Generated_Source\PSoC5/USB_std.c **** * \return
1107:Generated_Source\PSoC5/USB_std.c **** *  requestHandled.
1108:Generated_Source\PSoC5/USB_std.c **** *
1109:Generated_Source\PSoC5/USB_std.c **** * \reentrant
ARM GAS  C:\Users\Revanth\AppData\Local\Temp\cctCFyeS.s 			page 41


1110:Generated_Source\PSoC5/USB_std.c **** *  No.
1111:Generated_Source\PSoC5/USB_std.c **** *
1112:Generated_Source\PSoC5/USB_std.c **** *******************************************************************************/
1113:Generated_Source\PSoC5/USB_std.c **** uint8 USB_SetEndpointHalt(void) 
1114:Generated_Source\PSoC5/USB_std.c **** {
 1068              		.loc 1 1114 0
 1069              		.cfi_startproc
 1070              		@ args = 0, pretend = 0, frame = 0
 1071              		@ frame_needed = 0, uses_anonymous_args = 0
 1072 0000 08B5     		push	{r3, lr}
 1073              		.cfi_def_cfa_offset 8
 1074              		.cfi_offset 3, -8
 1075              		.cfi_offset 14, -4
 1076              	.LVL105:
1115:Generated_Source\PSoC5/USB_std.c ****     uint8 requestHandled = USB_FALSE;
1116:Generated_Source\PSoC5/USB_std.c ****     uint8 ep;
1117:Generated_Source\PSoC5/USB_std.c ****     
1118:Generated_Source\PSoC5/USB_std.c ****     /* Set endpoint halt */
1119:Generated_Source\PSoC5/USB_std.c ****     ep = USB_wIndexLoReg & USB_DIR_UNUSED;
 1077              		.loc 1 1119 0
 1078 0002 154B     		ldr	r3, .L93
 1079 0004 1B79     		ldrb	r3, [r3, #4]	@ zero_extendqisi2
 1080 0006 03F07F03 		and	r3, r3, #127
 1081              	.LVL106:
1120:Generated_Source\PSoC5/USB_std.c **** 
1121:Generated_Source\PSoC5/USB_std.c ****     if ((ep > USB_EP0) && (ep < USB_MAX_EP))
 1082              		.loc 1 1121 0
 1083 000a 5A1E     		subs	r2, r3, #1
 1084 000c D2B2     		uxtb	r2, r2
 1085 000e 072A     		cmp	r2, #7
 1086 0010 20D8     		bhi	.L91
1122:Generated_Source\PSoC5/USB_std.c ****     {
1123:Generated_Source\PSoC5/USB_std.c ****         /* Set the endpoint Halt */
1124:Generated_Source\PSoC5/USB_std.c ****         USB_EP[ep].hwEpState |= (USB_ENDPOINT_STATUS_HALT);
 1087              		.loc 1 1124 0
 1088 0012 5900     		lsls	r1, r3, #1
 1089 0014 1944     		add	r1, r1, r3
 1090 0016 8A00     		lsls	r2, r1, #2
 1091 0018 1049     		ldr	r1, .L93+4
 1092 001a 0A44     		add	r2, r2, r1
 1093 001c 9178     		ldrb	r1, [r2, #2]	@ zero_extendqisi2
 1094 001e 41F00101 		orr	r1, r1, #1
 1095 0022 9170     		strb	r1, [r2, #2]
1125:Generated_Source\PSoC5/USB_std.c **** 
1126:Generated_Source\PSoC5/USB_std.c ****         /* Clear the data toggle */
1127:Generated_Source\PSoC5/USB_std.c ****         USB_EP[ep].epToggle = 0u;
 1096              		.loc 1 1127 0
 1097 0024 0021     		movs	r1, #0
 1098 0026 D170     		strb	r1, [r2, #3]
1128:Generated_Source\PSoC5/USB_std.c ****         USB_EP[ep].apiEpState |= USB_NO_EVENT_ALLOWED;
 1099              		.loc 1 1128 0
 1100 0028 5178     		ldrb	r1, [r2, #1]	@ zero_extendqisi2
 1101 002a 41F00201 		orr	r1, r1, #2
 1102 002e 5170     		strb	r1, [r2, #1]
1129:Generated_Source\PSoC5/USB_std.c **** 
1130:Generated_Source\PSoC5/USB_std.c ****         if ((USB_EP[ep].addr & USB_DIR_IN) != 0u)
 1103              		.loc 1 1130 0
ARM GAS  C:\Users\Revanth\AppData\Local\Temp\cctCFyeS.s 			page 42


 1104 0030 1279     		ldrb	r2, [r2, #4]	@ zero_extendqisi2
 1105 0032 12F0800F 		tst	r2, #128
 1106 0036 05D0     		beq	.L89
1131:Generated_Source\PSoC5/USB_std.c ****         {
1132:Generated_Source\PSoC5/USB_std.c ****             /* IN Endpoint */
1133:Generated_Source\PSoC5/USB_std.c ****             USB_SIE_EP_BASE.sieEp[ep].epCr0 = (USB_MODE_STALL_DATA_EP | 
 1107              		.loc 1 1133 0
 1108 0038 1B01     		lsls	r3, r3, #4
 1109              	.LVL107:
 1110 003a 094A     		ldr	r2, .L93+8
 1111 003c 1A44     		add	r2, r2, r3
 1112 003e 8D23     		movs	r3, #141
 1113 0040 9370     		strb	r3, [r2, #2]
 1114 0042 04E0     		b	.L90
 1115              	.LVL108:
 1116              	.L89:
1134:Generated_Source\PSoC5/USB_std.c ****                                                             USB_MODE_ACK_IN);
1135:Generated_Source\PSoC5/USB_std.c ****         }
1136:Generated_Source\PSoC5/USB_std.c ****         else
1137:Generated_Source\PSoC5/USB_std.c ****         {
1138:Generated_Source\PSoC5/USB_std.c ****             /* OUT Endpoint */
1139:Generated_Source\PSoC5/USB_std.c ****             USB_SIE_EP_BASE.sieEp[ep].epCr0 = (USB_MODE_STALL_DATA_EP | 
 1117              		.loc 1 1139 0
 1118 0044 1B01     		lsls	r3, r3, #4
 1119              	.LVL109:
 1120 0046 064A     		ldr	r2, .L93+8
 1121 0048 1A44     		add	r2, r2, r3
 1122 004a 8923     		movs	r3, #137
 1123 004c 9370     		strb	r3, [r2, #2]
 1124              	.L90:
1140:Generated_Source\PSoC5/USB_std.c ****                                                             USB_MODE_ACK_OUT);
1141:Generated_Source\PSoC5/USB_std.c ****         }
1142:Generated_Source\PSoC5/USB_std.c ****         requestHandled = USB_InitNoDataControlTransfer();
 1125              		.loc 1 1142 0
 1126 004e FFF7FEFF 		bl	USB_InitNoDataControlTransfer
 1127              	.LVL110:
 1128 0052 08BD     		pop	{r3, pc}
 1129              	.LVL111:
 1130              	.L91:
1115:Generated_Source\PSoC5/USB_std.c ****     uint8 ep;
 1131              		.loc 1 1115 0
 1132 0054 0020     		movs	r0, #0
 1133              	.LVL112:
1143:Generated_Source\PSoC5/USB_std.c ****     }
1144:Generated_Source\PSoC5/USB_std.c **** 
1145:Generated_Source\PSoC5/USB_std.c ****     return (requestHandled);
1146:Generated_Source\PSoC5/USB_std.c **** }
 1134              		.loc 1 1146 0
 1135 0056 08BD     		pop	{r3, pc}
 1136              	.LVL113:
 1137              	.L94:
 1138              		.align	2
 1139              	.L93:
 1140 0058 00600040 		.word	1073766400
 1141 005c 00000000 		.word	USB_EP
 1142 0060 FC5F0040 		.word	1073766396
 1143              		.cfi_endproc
ARM GAS  C:\Users\Revanth\AppData\Local\Temp\cctCFyeS.s 			page 43


 1144              	.LFE10:
 1145              		.size	USB_SetEndpointHalt, .-USB_SetEndpointHalt
 1146              		.section	.text.USB_ClearEndpointHalt,"ax",%progbits
 1147              		.align	2
 1148              		.global	USB_ClearEndpointHalt
 1149              		.thumb
 1150              		.thumb_func
 1151              		.type	USB_ClearEndpointHalt, %function
 1152              	USB_ClearEndpointHalt:
 1153              	.LFB11:
1147:Generated_Source\PSoC5/USB_std.c **** 
1148:Generated_Source\PSoC5/USB_std.c **** 
1149:Generated_Source\PSoC5/USB_std.c **** /*******************************************************************************
1150:Generated_Source\PSoC5/USB_std.c **** * Function Name: USB_ClearEndpointHalt
1151:Generated_Source\PSoC5/USB_std.c **** ****************************************************************************//**
1152:Generated_Source\PSoC5/USB_std.c **** *
1153:Generated_Source\PSoC5/USB_std.c **** *  This routine handles clear endpoint halt.
1154:Generated_Source\PSoC5/USB_std.c **** *
1155:Generated_Source\PSoC5/USB_std.c **** * \return
1156:Generated_Source\PSoC5/USB_std.c **** *  requestHandled.
1157:Generated_Source\PSoC5/USB_std.c **** *
1158:Generated_Source\PSoC5/USB_std.c **** * \reentrant
1159:Generated_Source\PSoC5/USB_std.c **** *  No.
1160:Generated_Source\PSoC5/USB_std.c **** *
1161:Generated_Source\PSoC5/USB_std.c **** *******************************************************************************/
1162:Generated_Source\PSoC5/USB_std.c **** uint8 USB_ClearEndpointHalt(void) 
1163:Generated_Source\PSoC5/USB_std.c **** {
 1154              		.loc 1 1163 0
 1155              		.cfi_startproc
 1156              		@ args = 0, pretend = 0, frame = 0
 1157              		@ frame_needed = 0, uses_anonymous_args = 0
 1158              	.LVL114:
1164:Generated_Source\PSoC5/USB_std.c ****     uint8 requestHandled = USB_FALSE;
1165:Generated_Source\PSoC5/USB_std.c ****     uint8 ep;
1166:Generated_Source\PSoC5/USB_std.c **** 
1167:Generated_Source\PSoC5/USB_std.c ****     /* Clear endpoint halt */
1168:Generated_Source\PSoC5/USB_std.c ****     ep = USB_wIndexLoReg & USB_DIR_UNUSED;
 1159              		.loc 1 1168 0
 1160 0000 274B     		ldr	r3, .L104
 1161 0002 1B79     		ldrb	r3, [r3, #4]	@ zero_extendqisi2
 1162 0004 03F07F03 		and	r3, r3, #127
 1163              	.LVL115:
1169:Generated_Source\PSoC5/USB_std.c **** 
1170:Generated_Source\PSoC5/USB_std.c ****     if ((ep > USB_EP0) && (ep < USB_MAX_EP))
 1164              		.loc 1 1170 0
 1165 0008 5A1E     		subs	r2, r3, #1
 1166 000a D2B2     		uxtb	r2, r2
 1167 000c 072A     		cmp	r2, #7
 1168 000e 44D8     		bhi	.L101
1163:Generated_Source\PSoC5/USB_std.c ****     uint8 requestHandled = USB_FALSE;
 1169              		.loc 1 1163 0
 1170 0010 10B5     		push	{r4, lr}
 1171              		.cfi_def_cfa_offset 8
 1172              		.cfi_offset 4, -8
 1173              		.cfi_offset 14, -4
1171:Generated_Source\PSoC5/USB_std.c ****     {
1172:Generated_Source\PSoC5/USB_std.c ****         /* Clear the endpoint Halt */
ARM GAS  C:\Users\Revanth\AppData\Local\Temp\cctCFyeS.s 			page 44


1173:Generated_Source\PSoC5/USB_std.c ****         USB_EP[ep].hwEpState &= (uint8) ~USB_ENDPOINT_STATUS_HALT;
 1174              		.loc 1 1173 0
 1175 0012 5900     		lsls	r1, r3, #1
 1176 0014 1944     		add	r1, r1, r3
 1177 0016 8A00     		lsls	r2, r1, #2
 1178 0018 2249     		ldr	r1, .L104+4
 1179 001a 0A44     		add	r2, r2, r1
 1180 001c 9178     		ldrb	r1, [r2, #2]	@ zero_extendqisi2
 1181 001e 01F0FE01 		and	r1, r1, #254
 1182 0022 9170     		strb	r1, [r2, #2]
1174:Generated_Source\PSoC5/USB_std.c **** 
1175:Generated_Source\PSoC5/USB_std.c ****         /* Clear the data toggle */
1176:Generated_Source\PSoC5/USB_std.c ****         USB_EP[ep].epToggle = 0u;
 1183              		.loc 1 1176 0
 1184 0024 0021     		movs	r1, #0
 1185 0026 D170     		strb	r1, [r2, #3]
1177:Generated_Source\PSoC5/USB_std.c ****         
1178:Generated_Source\PSoC5/USB_std.c ****         /* Clear toggle bit for already armed packet */
1179:Generated_Source\PSoC5/USB_std.c ****         USB_SIE_EP_BASE.sieEp[ep].epCnt0 &= (uint8) ~(uint8)USB_EPX_CNT_DATA_TOGGLE;
 1186              		.loc 1 1179 0
 1187 0028 1F4C     		ldr	r4, .L104+8
 1188 002a 1801     		lsls	r0, r3, #4
 1189 002c 215C     		ldrb	r1, [r4, r0]	@ zero_extendqisi2
 1190 002e 01F07F01 		and	r1, r1, #127
 1191 0032 2154     		strb	r1, [r4, r0]
1180:Generated_Source\PSoC5/USB_std.c ****         
1181:Generated_Source\PSoC5/USB_std.c ****         /* Return API State as it was defined before */
1182:Generated_Source\PSoC5/USB_std.c ****         USB_EP[ep].apiEpState &= (uint8) ~USB_NO_EVENT_ALLOWED;
 1192              		.loc 1 1182 0
 1193 0034 5178     		ldrb	r1, [r2, #1]	@ zero_extendqisi2
 1194 0036 01F0FD01 		and	r1, r1, #253
 1195 003a 5170     		strb	r1, [r2, #1]
1183:Generated_Source\PSoC5/USB_std.c **** 
1184:Generated_Source\PSoC5/USB_std.c ****         if ((USB_EP[ep].addr & USB_DIR_IN) != 0u)
 1196              		.loc 1 1184 0
 1197 003c 1279     		ldrb	r2, [r2, #4]	@ zero_extendqisi2
 1198 003e 12F0800F 		tst	r2, #128
 1199 0042 13D0     		beq	.L97
1185:Generated_Source\PSoC5/USB_std.c ****         {
1186:Generated_Source\PSoC5/USB_std.c ****             /* IN Endpoint */
1187:Generated_Source\PSoC5/USB_std.c ****             if(USB_EP[ep].apiEpState == USB_IN_BUFFER_EMPTY)
 1200              		.loc 1 1187 0
 1201 0044 03EB4301 		add	r1, r3, r3, lsl #1
 1202 0048 8A00     		lsls	r2, r1, #2
 1203 004a 1649     		ldr	r1, .L104+4
 1204 004c 0A44     		add	r2, r2, r1
 1205 004e 5278     		ldrb	r2, [r2, #1]	@ zero_extendqisi2
 1206 0050 D2B2     		uxtb	r2, r2
 1207 0052 012A     		cmp	r2, #1
 1208 0054 04D1     		bne	.L98
1188:Generated_Source\PSoC5/USB_std.c ****             {       
1189:Generated_Source\PSoC5/USB_std.c ****                 /* Wait for next packet from application */
1190:Generated_Source\PSoC5/USB_std.c ****                 USB_SIE_EP_BASE.sieEp[ep].epCr0 = USB_MODE_NAK_IN;
 1209              		.loc 1 1190 0
 1210 0056 2246     		mov	r2, r4
 1211 0058 0244     		add	r2, r2, r0
 1212 005a 0C23     		movs	r3, #12
ARM GAS  C:\Users\Revanth\AppData\Local\Temp\cctCFyeS.s 			page 45


 1213              	.LVL116:
 1214 005c 9370     		strb	r3, [r2, #2]
 1215 005e 19E0     		b	.L99
 1216              	.LVL117:
 1217              	.L98:
1191:Generated_Source\PSoC5/USB_std.c ****             }
1192:Generated_Source\PSoC5/USB_std.c ****             else    /* Continue armed transfer */
1193:Generated_Source\PSoC5/USB_std.c ****             {
1194:Generated_Source\PSoC5/USB_std.c ****                 USB_SIE_EP_BASE.sieEp[ep].epCr0 = USB_MODE_ACK_IN;
 1218              		.loc 1 1194 0
 1219 0060 1B01     		lsls	r3, r3, #4
 1220              	.LVL118:
 1221 0062 114A     		ldr	r2, .L104+8
 1222 0064 1A44     		add	r2, r2, r3
 1223 0066 0D23     		movs	r3, #13
 1224 0068 9370     		strb	r3, [r2, #2]
 1225 006a 13E0     		b	.L99
 1226              	.LVL119:
 1227              	.L97:
1195:Generated_Source\PSoC5/USB_std.c ****             }
1196:Generated_Source\PSoC5/USB_std.c ****         }
1197:Generated_Source\PSoC5/USB_std.c ****         else
1198:Generated_Source\PSoC5/USB_std.c ****         {
1199:Generated_Source\PSoC5/USB_std.c ****             /* OUT Endpoint */
1200:Generated_Source\PSoC5/USB_std.c ****             if (USB_EP[ep].apiEpState == USB_OUT_BUFFER_FULL)
 1228              		.loc 1 1200 0
 1229 006c 03EB4301 		add	r1, r3, r3, lsl #1
 1230 0070 8A00     		lsls	r2, r1, #2
 1231 0072 0C49     		ldr	r1, .L104+4
 1232 0074 0A44     		add	r2, r2, r1
 1233 0076 5278     		ldrb	r2, [r2, #1]	@ zero_extendqisi2
 1234 0078 D2B2     		uxtb	r2, r2
 1235 007a 012A     		cmp	r2, #1
 1236 007c 05D1     		bne	.L100
1201:Generated_Source\PSoC5/USB_std.c ****             {       
1202:Generated_Source\PSoC5/USB_std.c ****                 /* Allow application to read full buffer */
1203:Generated_Source\PSoC5/USB_std.c ****                 USB_SIE_EP_BASE.sieEp[ep].epCr0 = USB_MODE_NAK_OUT;
 1237              		.loc 1 1203 0
 1238 007e 1B01     		lsls	r3, r3, #4
 1239              	.LVL120:
 1240 0080 094A     		ldr	r2, .L104+8
 1241 0082 1A44     		add	r2, r2, r3
 1242 0084 0823     		movs	r3, #8
 1243 0086 9370     		strb	r3, [r2, #2]
 1244 0088 04E0     		b	.L99
 1245              	.LVL121:
 1246              	.L100:
1204:Generated_Source\PSoC5/USB_std.c ****             }
1205:Generated_Source\PSoC5/USB_std.c ****             else    /* Mark endpoint as empty, so it will be reloaded */
1206:Generated_Source\PSoC5/USB_std.c ****             {
1207:Generated_Source\PSoC5/USB_std.c ****                 USB_SIE_EP_BASE.sieEp[ep].epCr0 = USB_MODE_ACK_OUT;
 1247              		.loc 1 1207 0
 1248 008a 1B01     		lsls	r3, r3, #4
 1249              	.LVL122:
 1250 008c 064A     		ldr	r2, .L104+8
 1251 008e 1A44     		add	r2, r2, r3
 1252 0090 0923     		movs	r3, #9
ARM GAS  C:\Users\Revanth\AppData\Local\Temp\cctCFyeS.s 			page 46


 1253 0092 9370     		strb	r3, [r2, #2]
 1254              	.L99:
1208:Generated_Source\PSoC5/USB_std.c ****             }
1209:Generated_Source\PSoC5/USB_std.c ****         }
1210:Generated_Source\PSoC5/USB_std.c ****         
1211:Generated_Source\PSoC5/USB_std.c ****         requestHandled = USB_InitNoDataControlTransfer();
 1255              		.loc 1 1211 0
 1256 0094 FFF7FEFF 		bl	USB_InitNoDataControlTransfer
 1257              	.LVL123:
 1258 0098 10BD     		pop	{r4, pc}
 1259              	.LVL124:
 1260              	.L101:
 1261              		.cfi_def_cfa_offset 0
 1262              		.cfi_restore 4
 1263              		.cfi_restore 14
1164:Generated_Source\PSoC5/USB_std.c ****     uint8 ep;
 1264              		.loc 1 1164 0
 1265 009a 0020     		movs	r0, #0
 1266 009c 7047     		bx	lr
 1267              	.L105:
 1268 009e 00BF     		.align	2
 1269              	.L104:
 1270 00a0 00600040 		.word	1073766400
 1271 00a4 00000000 		.word	USB_EP
 1272 00a8 FC5F0040 		.word	1073766396
 1273              		.cfi_endproc
 1274              	.LFE11:
 1275              		.size	USB_ClearEndpointHalt, .-USB_ClearEndpointHalt
 1276              		.section	.text.USB_ValidateAlternateSetting,"ax",%progbits
 1277              		.align	2
 1278              		.global	USB_ValidateAlternateSetting
 1279              		.thumb
 1280              		.thumb_func
 1281              		.type	USB_ValidateAlternateSetting, %function
 1282              	USB_ValidateAlternateSetting:
 1283              	.LFB12:
1212:Generated_Source\PSoC5/USB_std.c ****     }
1213:Generated_Source\PSoC5/USB_std.c **** 
1214:Generated_Source\PSoC5/USB_std.c ****     return(requestHandled);
1215:Generated_Source\PSoC5/USB_std.c **** }
1216:Generated_Source\PSoC5/USB_std.c **** 
1217:Generated_Source\PSoC5/USB_std.c **** 
1218:Generated_Source\PSoC5/USB_std.c **** /*******************************************************************************
1219:Generated_Source\PSoC5/USB_std.c **** * Function Name: USB_ValidateAlternateSetting
1220:Generated_Source\PSoC5/USB_std.c **** ****************************************************************************//**
1221:Generated_Source\PSoC5/USB_std.c **** *
1222:Generated_Source\PSoC5/USB_std.c **** *  Validates (and records) a SET INTERFACE request.
1223:Generated_Source\PSoC5/USB_std.c **** *
1224:Generated_Source\PSoC5/USB_std.c **** * \return
1225:Generated_Source\PSoC5/USB_std.c **** *  requestHandled.
1226:Generated_Source\PSoC5/USB_std.c **** *
1227:Generated_Source\PSoC5/USB_std.c **** * \reentrant
1228:Generated_Source\PSoC5/USB_std.c **** *  No.
1229:Generated_Source\PSoC5/USB_std.c **** *
1230:Generated_Source\PSoC5/USB_std.c **** *******************************************************************************/
1231:Generated_Source\PSoC5/USB_std.c **** uint8 USB_ValidateAlternateSetting(void) 
1232:Generated_Source\PSoC5/USB_std.c **** {
ARM GAS  C:\Users\Revanth\AppData\Local\Temp\cctCFyeS.s 			page 47


 1284              		.loc 1 1232 0
 1285              		.cfi_startproc
 1286              		@ args = 0, pretend = 0, frame = 0
 1287              		@ frame_needed = 0, uses_anonymous_args = 0
 1288 0000 10B5     		push	{r4, lr}
 1289              		.cfi_def_cfa_offset 8
 1290              		.cfi_offset 4, -8
 1291              		.cfi_offset 14, -4
 1292              	.LVL125:
1233:Generated_Source\PSoC5/USB_std.c ****     uint8 requestHandled = USB_FALSE;
1234:Generated_Source\PSoC5/USB_std.c ****     
1235:Generated_Source\PSoC5/USB_std.c ****     uint8 interfaceNum;
1236:Generated_Source\PSoC5/USB_std.c ****     uint8 curInterfacesNum;
1237:Generated_Source\PSoC5/USB_std.c ****     const T_USB_LUT CYCODE *pTmp;
1238:Generated_Source\PSoC5/USB_std.c ****     
1239:Generated_Source\PSoC5/USB_std.c ****     /* Get interface number from the request. */
1240:Generated_Source\PSoC5/USB_std.c ****     interfaceNum = (uint8) USB_wIndexLoReg;
 1293              		.loc 1 1240 0
 1294 0002 0E4B     		ldr	r3, .L111
 1295 0004 1C79     		ldrb	r4, [r3, #4]	@ zero_extendqisi2
 1296 0006 E4B2     		uxtb	r4, r4
 1297              	.LVL126:
1241:Generated_Source\PSoC5/USB_std.c ****     
1242:Generated_Source\PSoC5/USB_std.c ****     /* Get number of interfaces for current configuration. */
1243:Generated_Source\PSoC5/USB_std.c ****     pTmp = USB_GetConfigTablePtr(USB_configuration - 1u);
 1298              		.loc 1 1243 0
 1299 0008 0D4B     		ldr	r3, .L111+4
 1300 000a 1878     		ldrb	r0, [r3]	@ zero_extendqisi2
 1301 000c 0138     		subs	r0, r0, #1
 1302 000e C0B2     		uxtb	r0, r0
 1303 0010 FFF7FEFF 		bl	USB_GetConfigTablePtr
 1304              	.LVL127:
1244:Generated_Source\PSoC5/USB_std.c ****     curInterfacesNum  = ((const uint8 *) pTmp->p_list)[USB_CONFIG_DESCR_NUM_INTERFACES];
 1305              		.loc 1 1244 0
 1306 0014 4368     		ldr	r3, [r0, #4]
 1307 0016 1B79     		ldrb	r3, [r3, #4]	@ zero_extendqisi2
 1308              	.LVL128:
1245:Generated_Source\PSoC5/USB_std.c **** 
1246:Generated_Source\PSoC5/USB_std.c ****     /* Validate that interface number is within range. */
1247:Generated_Source\PSoC5/USB_std.c ****     if ((interfaceNum <= curInterfacesNum) || (interfaceNum <= USB_MAX_INTERFACES_NUMBER))
 1309              		.loc 1 1247 0
 1310 0018 9C42     		cmp	r4, r3
 1311 001a 01D9     		bls	.L107
 1312              		.loc 1 1247 0 is_stmt 0 discriminator 1
 1313 001c 022C     		cmp	r4, #2
 1314 001e 0AD8     		bhi	.L109
 1315              	.L107:
1248:Generated_Source\PSoC5/USB_std.c ****     {
1249:Generated_Source\PSoC5/USB_std.c ****         /* Save current and new alternate settings (come with request) to make 
1250:Generated_Source\PSoC5/USB_std.c ****         * desicion about following endpoint re-configuration.
1251:Generated_Source\PSoC5/USB_std.c ****         */
1252:Generated_Source\PSoC5/USB_std.c ****         USB_interfaceSettingLast[interfaceNum] = USB_interfaceSetting[interfaceNum];
 1316              		.loc 1 1252 0 is_stmt 1
 1317 0020 084A     		ldr	r2, .L111+8
 1318 0022 135D     		ldrb	r3, [r2, r4]	@ zero_extendqisi2
 1319              	.LVL129:
 1320 0024 DBB2     		uxtb	r3, r3
ARM GAS  C:\Users\Revanth\AppData\Local\Temp\cctCFyeS.s 			page 48


 1321 0026 0849     		ldr	r1, .L111+12
 1322 0028 0B55     		strb	r3, [r1, r4]
1253:Generated_Source\PSoC5/USB_std.c ****         USB_interfaceSetting[interfaceNum]     = (uint8) USB_wValueLoReg;
 1323              		.loc 1 1253 0
 1324 002a 044B     		ldr	r3, .L111
 1325 002c 9B78     		ldrb	r3, [r3, #2]	@ zero_extendqisi2
 1326 002e DBB2     		uxtb	r3, r3
 1327 0030 1355     		strb	r3, [r2, r4]
 1328              	.LVL130:
1254:Generated_Source\PSoC5/USB_std.c ****         
1255:Generated_Source\PSoC5/USB_std.c ****         requestHandled = USB_TRUE;
 1329              		.loc 1 1255 0
 1330 0032 0120     		movs	r0, #1
 1331              	.LVL131:
 1332 0034 10BD     		pop	{r4, pc}
 1333              	.LVL132:
 1334              	.L109:
1233:Generated_Source\PSoC5/USB_std.c ****     
 1335              		.loc 1 1233 0
 1336 0036 0020     		movs	r0, #0
 1337              	.LVL133:
1256:Generated_Source\PSoC5/USB_std.c ****     }
1257:Generated_Source\PSoC5/USB_std.c **** 
1258:Generated_Source\PSoC5/USB_std.c ****     return (requestHandled);
1259:Generated_Source\PSoC5/USB_std.c **** }
 1338              		.loc 1 1259 0
 1339 0038 10BD     		pop	{r4, pc}
 1340              	.LVL134:
 1341              	.L112:
 1342 003a 00BF     		.align	2
 1343              	.L111:
 1344 003c 00600040 		.word	1073766400
 1345 0040 00000000 		.word	USB_configuration
 1346 0044 00000000 		.word	USB_interfaceSetting
 1347 0048 00000000 		.word	USB_interfaceSettingLast
 1348              		.cfi_endproc
 1349              	.LFE12:
 1350              		.size	USB_ValidateAlternateSetting, .-USB_ValidateAlternateSetting
 1351              		.section	.text.USB_HandleStandardRqst,"ax",%progbits
 1352              		.align	2
 1353              		.global	USB_HandleStandardRqst
 1354              		.thumb
 1355              		.thumb_func
 1356              		.type	USB_HandleStandardRqst, %function
 1357              	USB_HandleStandardRqst:
 1358              	.LFB0:
  85:Generated_Source\PSoC5/USB_std.c ****     uint8 requestHandled = USB_FALSE;
 1359              		.loc 1 85 0
 1360              		.cfi_startproc
 1361              		@ args = 0, pretend = 0, frame = 0
 1362              		@ frame_needed = 0, uses_anonymous_args = 0
 1363 0000 10B5     		push	{r4, lr}
 1364              		.cfi_def_cfa_offset 8
 1365              		.cfi_offset 4, -8
 1366              		.cfi_offset 14, -4
 1367              	.LVL135:
  89:Generated_Source\PSoC5/USB_std.c **** 
ARM GAS  C:\Users\Revanth\AppData\Local\Temp\cctCFyeS.s 			page 49


 1368              		.loc 1 89 0
 1369 0002 964B     		ldr	r3, .L170
 1370 0004 1B78     		ldrb	r3, [r3]	@ zero_extendqisi2
 1371 0006 DBB2     		uxtb	r3, r3
 1372              	.LVL136:
 102:Generated_Source\PSoC5/USB_std.c **** 
 1373              		.loc 1 102 0
 1374 0008 0021     		movs	r1, #0
 1375 000a 954A     		ldr	r2, .L170+4
 1376 000c 1180     		strh	r1, [r2]	@ movhi
 104:Generated_Source\PSoC5/USB_std.c ****     {
 1377              		.loc 1 104 0
 1378 000e 13F0800F 		tst	r3, #128
 1379 0012 00F0B380 		beq	.L114
 107:Generated_Source\PSoC5/USB_std.c ****         {
 1380              		.loc 1 107 0
 1381 0016 914A     		ldr	r2, .L170
 1382 0018 5278     		ldrb	r2, [r2, #1]	@ zero_extendqisi2
 1383 001a D2B2     		uxtb	r2, r2
 1384 001c 0A2A     		cmp	r2, #10
 1385 001e 00F27981 		bhi	.L148
 1386 0022 DFE812F0 		tbh	[pc, r2, lsl #1]
 1387              	.L117:
 1388 0026 6F00     		.2byte	(.L116-.L117)/2
 1389 0028 7701     		.2byte	(.L148-.L117)/2
 1390 002a 7701     		.2byte	(.L148-.L117)/2
 1391 002c 7701     		.2byte	(.L148-.L117)/2
 1392 002e 7701     		.2byte	(.L148-.L117)/2
 1393 0030 7701     		.2byte	(.L148-.L117)/2
 1394 0032 0B00     		.2byte	(.L118-.L117)/2
 1395 0034 7701     		.2byte	(.L148-.L117)/2
 1396 0036 9800     		.2byte	(.L119-.L117)/2
 1397 0038 7701     		.2byte	(.L148-.L117)/2
 1398 003a A000     		.2byte	(.L120-.L117)/2
 1399              		.p2align 1
 1400              	.L118:
 110:Generated_Source\PSoC5/USB_std.c ****                 {
 1401              		.loc 1 110 0
 1402 003c 874B     		ldr	r3, .L170
 1403              	.LVL137:
 1404 003e DB78     		ldrb	r3, [r3, #3]	@ zero_extendqisi2
 1405 0040 DBB2     		uxtb	r3, r3
 1406 0042 012B     		cmp	r3, #1
 1407 0044 09D1     		bne	.L121
 112:Generated_Source\PSoC5/USB_std.c ****                     USB_currentTD.pData = (volatile uint8 *)pTmp->p_list;
 1408              		.loc 1 112 0
 1409 0046 FFF7FEFF 		bl	USB_GetDeviceTablePtr
 1410              	.LVL138:
 113:Generated_Source\PSoC5/USB_std.c ****                     USB_currentTD.count = USB_DEVICE_DESCR_LENGTH;
 1411              		.loc 1 113 0
 1412 004a 4268     		ldr	r2, [r0, #4]
 1413 004c 844B     		ldr	r3, .L170+4
 1414 004e 5A60     		str	r2, [r3, #4]
 114:Generated_Source\PSoC5/USB_std.c ****                     
 1415              		.loc 1 114 0
 1416 0050 1222     		movs	r2, #18
 1417 0052 1A80     		strh	r2, [r3]	@ movhi
ARM GAS  C:\Users\Revanth\AppData\Local\Temp\cctCFyeS.s 			page 50


 116:Generated_Source\PSoC5/USB_std.c ****                 }
 1418              		.loc 1 116 0
 1419 0054 FFF7FEFF 		bl	USB_InitControlRead
 1420              	.LVL139:
 1421 0058 10BD     		pop	{r4, pc}
 1422              	.LVL140:
 1423              	.L121:
 118:Generated_Source\PSoC5/USB_std.c ****                 {
 1424              		.loc 1 118 0
 1425 005a 804B     		ldr	r3, .L170
 1426 005c DB78     		ldrb	r3, [r3, #3]	@ zero_extendqisi2
 1427 005e DBB2     		uxtb	r3, r3
 1428 0060 022B     		cmp	r3, #2
 1429 0062 13D1     		bne	.L122
 120:Generated_Source\PSoC5/USB_std.c ****                     
 1430              		.loc 1 120 0
 1431 0064 7D4B     		ldr	r3, .L170
 1432 0066 9878     		ldrb	r0, [r3, #2]	@ zero_extendqisi2
 1433 0068 FFF7FEFF 		bl	USB_GetConfigTablePtr
 1434              	.LVL141:
 123:Generated_Source\PSoC5/USB_std.c ****                     {
 1435              		.loc 1 123 0
 1436 006c 0028     		cmp	r0, #0
 1437 006e 00F05381 		beq	.L149
 125:Generated_Source\PSoC5/USB_std.c ****                         USB_currentTD.count = (uint16)((uint16)(USB_currentTD.pData)[USB_CONFIG_DES
 1438              		.loc 1 125 0
 1439 0072 4268     		ldr	r2, [r0, #4]
 1440 0074 7A4B     		ldr	r3, .L170+4
 1441 0076 5A60     		str	r2, [r3, #4]
 126:Generated_Source\PSoC5/USB_std.c ****                                                                             (USB_currentTD.pData)[U
 1442              		.loc 1 126 0
 1443 0078 5A68     		ldr	r2, [r3, #4]
 1444 007a D178     		ldrb	r1, [r2, #3]	@ zero_extendqisi2
 127:Generated_Source\PSoC5/USB_std.c ****                         requestHandled  = USB_InitControlRead();
 1445              		.loc 1 127 0
 1446 007c 5A68     		ldr	r2, [r3, #4]
 1447 007e 9278     		ldrb	r2, [r2, #2]	@ zero_extendqisi2
 126:Generated_Source\PSoC5/USB_std.c ****                                                                             (USB_currentTD.pData)[U
 1448              		.loc 1 126 0
 1449 0080 42EA0122 		orr	r2, r2, r1, lsl #8
 1450 0084 1A80     		strh	r2, [r3]	@ movhi
 128:Generated_Source\PSoC5/USB_std.c ****                     }
 1451              		.loc 1 128 0
 1452 0086 FFF7FEFF 		bl	USB_InitControlRead
 1453              	.LVL142:
 1454 008a 10BD     		pop	{r4, pc}
 1455              	.LVL143:
 1456              	.L122:
 149:Generated_Source\PSoC5/USB_std.c ****                 {
 1457              		.loc 1 149 0
 1458 008c 734B     		ldr	r3, .L170
 1459 008e DB78     		ldrb	r3, [r3, #3]	@ zero_extendqisi2
 1460 0090 DBB2     		uxtb	r3, r3
 1461 0092 032B     		cmp	r3, #3
 1462 0094 05D0     		beq	.L150
 1463 0096 32E0     		b	.L165
 1464              	.LVL144:
ARM GAS  C:\Users\Revanth\AppData\Local\Temp\cctCFyeS.s 			page 51


 1465              	.L126:
 159:Generated_Source\PSoC5/USB_std.c ****                         /* Move to next string descriptor */
 1466              		.loc 1 159 0
 1467 0098 0A78     		ldrb	r2, [r1]	@ zero_extendqisi2
 1468              	.LVL145:
 161:Generated_Source\PSoC5/USB_std.c ****                         nStr++;
 1469              		.loc 1 161 0
 1470 009a 1144     		add	r1, r1, r2
 1471              	.LVL146:
 162:Generated_Source\PSoC5/USB_std.c ****                     }
 1472              		.loc 1 162 0
 1473 009c 0133     		adds	r3, r3, #1
 1474              	.LVL147:
 1475 009e DBB2     		uxtb	r3, r3
 1476              	.LVL148:
 1477 00a0 01E0     		b	.L123
 1478              	.LVL149:
 1479              	.L150:
 1480 00a2 0023     		movs	r3, #0
 1481 00a4 6F49     		ldr	r1, .L170+8
 1482              	.LVL150:
 1483              	.L123:
 156:Generated_Source\PSoC5/USB_std.c ****                     {
 1484              		.loc 1 156 0
 1485 00a6 6D4A     		ldr	r2, .L170
 1486 00a8 9278     		ldrb	r2, [r2, #2]	@ zero_extendqisi2
 1487 00aa D2B2     		uxtb	r2, r2
 1488 00ac 9342     		cmp	r3, r2
 1489 00ae 03D2     		bcs	.L125
 156:Generated_Source\PSoC5/USB_std.c ****                     {
 1490              		.loc 1 156 0 is_stmt 0 discriminator 1
 1491 00b0 0A78     		ldrb	r2, [r1]	@ zero_extendqisi2
 1492 00b2 12F0FF0F 		tst	r2, #255
 1493 00b6 EFD1     		bne	.L126
 1494              	.L125:
 168:Generated_Source\PSoC5/USB_std.c ****                     {
 1495              		.loc 1 168 0 is_stmt 1
 1496 00b8 684B     		ldr	r3, .L170
 1497              	.LVL151:
 1498 00ba 9B78     		ldrb	r3, [r3, #2]	@ zero_extendqisi2
 1499 00bc DBB2     		uxtb	r3, r3
 1500 00be EE2B     		cmp	r3, #238
 1501 00c0 00D1     		bne	.L127
 170:Generated_Source\PSoC5/USB_std.c ****                     }
 1502              		.loc 1 170 0
 1503 00c2 6949     		ldr	r1, .L170+12
 1504              	.LVL152:
 1505              	.L127:
 176:Generated_Source\PSoC5/USB_std.c ****                         (USB_wValueLoReg == USB_DEVICE0_DESCR[USB_DEVICE_DESCR_SN_SHIFT]))
 1506              		.loc 1 176 0
 1507 00c4 654B     		ldr	r3, .L170
 1508 00c6 9B78     		ldrb	r3, [r3, #2]	@ zero_extendqisi2
 1509 00c8 13F0FF0F 		tst	r3, #255
 1510 00cc 0BD0     		beq	.L128
 177:Generated_Source\PSoC5/USB_std.c ****                     {
 1511              		.loc 1 177 0 discriminator 1
 1512 00ce 634B     		ldr	r3, .L170
ARM GAS  C:\Users\Revanth\AppData\Local\Temp\cctCFyeS.s 			page 52


 1513 00d0 9B78     		ldrb	r3, [r3, #2]	@ zero_extendqisi2
 1514 00d2 DBB2     		uxtb	r3, r3
 1515 00d4 654A     		ldr	r2, .L170+16
 1516 00d6 127C     		ldrb	r2, [r2, #16]	@ zero_extendqisi2
 176:Generated_Source\PSoC5/USB_std.c ****                         (USB_wValueLoReg == USB_DEVICE0_DESCR[USB_DEVICE_DESCR_SN_SHIFT]))
 1517              		.loc 1 176 0 discriminator 1
 1518 00d8 9342     		cmp	r3, r2
 1519 00da 04D1     		bne	.L128
 181:Generated_Source\PSoC5/USB_std.c ****                         pStr = USB_idSerialNumberStringDescriptor;
 1520              		.loc 1 181 0
 1521 00dc 644C     		ldr	r4, .L170+20
 1522 00de 2046     		mov	r0, r4
 1523 00e0 FFF7FEFF 		bl	USB_ReadDieID
 1524              	.LVL153:
 182:Generated_Source\PSoC5/USB_std.c ****                     #elif defined(USB_ENABLE_FWSN_STRING)
 1525              		.loc 1 182 0
 1526 00e4 2146     		mov	r1, r4
 1527              	.LVL154:
 1528              	.L128:
 199:Generated_Source\PSoC5/USB_std.c ****                     {
 1529              		.loc 1 199 0
 1530 00e6 0B78     		ldrb	r3, [r1]	@ zero_extendqisi2
 1531 00e8 13F0FF0F 		tst	r3, #255
 1532 00ec 00F01681 		beq	.L152
 201:Generated_Source\PSoC5/USB_std.c ****                         USB_currentTD.pData = pStr;
 1533              		.loc 1 201 0
 1534 00f0 0B78     		ldrb	r3, [r1]	@ zero_extendqisi2
 1535 00f2 5B4A     		ldr	r2, .L170+4
 1536 00f4 1380     		strh	r3, [r2]	@ movhi
 202:Generated_Source\PSoC5/USB_std.c ****                         requestHandled  = USB_InitControlRead();
 1537              		.loc 1 202 0
 1538 00f6 5160     		str	r1, [r2, #4]
 203:Generated_Source\PSoC5/USB_std.c ****                     }
 1539              		.loc 1 203 0
 1540 00f8 FFF7FEFF 		bl	USB_InitControlRead
 1541              	.LVL155:
 1542 00fc 10BD     		pop	{r4, pc}
 1543              	.LVL156:
 1544              	.L165:
 209:Generated_Source\PSoC5/USB_std.c ****                 }
 1545              		.loc 1 209 0
 1546 00fe FFF7FEFF 		bl	USB_DispatchClassRqst
 1547              	.LVL157:
 1548 0102 10BD     		pop	{r4, pc}
 1549              	.LVL158:
 1550              	.L116:
 214:Generated_Source\PSoC5/USB_std.c ****                 {
 1551              		.loc 1 214 0
 1552 0104 13F00303 		ands	r3, r3, #3
 1553              	.LVL159:
 1554 0108 17D0     		beq	.L129
 1555 010a 022B     		cmp	r3, #2
 1556 010c 40F00881 		bne	.L166
 217:Generated_Source\PSoC5/USB_std.c ****                         USB_tBuffer[0u]     = USB_EP[USB_wIndexLoReg & USB_DIR_UNUSED].hwEpState;
 1557              		.loc 1 217 0
 1558 0110 5349     		ldr	r1, .L170+4
 1559 0112 0B80     		strh	r3, [r1]	@ movhi
ARM GAS  C:\Users\Revanth\AppData\Local\Temp\cctCFyeS.s 			page 53


 218:Generated_Source\PSoC5/USB_std.c ****                         USB_tBuffer[1u]     = 0u;
 1560              		.loc 1 218 0
 1561 0114 514B     		ldr	r3, .L170
 1562 0116 1B79     		ldrb	r3, [r3, #4]	@ zero_extendqisi2
 1563 0118 03F07F03 		and	r3, r3, #127
 1564 011c 03EB4303 		add	r3, r3, r3, lsl #1
 1565 0120 9A00     		lsls	r2, r3, #2
 1566 0122 544B     		ldr	r3, .L170+24
 1567 0124 1A44     		add	r2, r2, r3
 1568 0126 9278     		ldrb	r2, [r2, #2]	@ zero_extendqisi2
 1569 0128 D2B2     		uxtb	r2, r2
 1570 012a 534B     		ldr	r3, .L170+28
 1571 012c 1A70     		strb	r2, [r3]
 219:Generated_Source\PSoC5/USB_std.c ****                         USB_currentTD.pData = &USB_tBuffer[0u];
 1572              		.loc 1 219 0
 1573 012e 0022     		movs	r2, #0
 1574 0130 5A70     		strb	r2, [r3, #1]
 220:Generated_Source\PSoC5/USB_std.c ****                         
 1575              		.loc 1 220 0
 1576 0132 4B60     		str	r3, [r1, #4]
 222:Generated_Source\PSoC5/USB_std.c ****                         break;
 1577              		.loc 1 222 0
 1578 0134 FFF7FEFF 		bl	USB_InitControlRead
 1579              	.LVL160:
 223:Generated_Source\PSoC5/USB_std.c ****                     case USB_RQST_RCPT_DEV:
 1580              		.loc 1 223 0
 1581 0138 10BD     		pop	{r4, pc}
 1582              	.LVL161:
 1583              	.L129:
 225:Generated_Source\PSoC5/USB_std.c ****                         USB_tBuffer[0u]     = USB_deviceStatus;
 1584              		.loc 1 225 0
 1585 013a 4949     		ldr	r1, .L170+4
 1586 013c 0223     		movs	r3, #2
 1587 013e 0B80     		strh	r3, [r1]	@ movhi
 226:Generated_Source\PSoC5/USB_std.c ****                         USB_tBuffer[1u]     = 0u;
 1588              		.loc 1 226 0
 1589 0140 4E4B     		ldr	r3, .L170+32
 1590 0142 1A78     		ldrb	r2, [r3]	@ zero_extendqisi2
 1591 0144 D2B2     		uxtb	r2, r2
 1592 0146 4C4B     		ldr	r3, .L170+28
 1593 0148 1A70     		strb	r2, [r3]
 227:Generated_Source\PSoC5/USB_std.c ****                         USB_currentTD.pData = &USB_tBuffer[0u];
 1594              		.loc 1 227 0
 1595 014a 0022     		movs	r2, #0
 1596 014c 5A70     		strb	r2, [r3, #1]
 228:Generated_Source\PSoC5/USB_std.c ****                         
 1597              		.loc 1 228 0
 1598 014e 4B60     		str	r3, [r1, #4]
 230:Generated_Source\PSoC5/USB_std.c ****                         break;
 1599              		.loc 1 230 0
 1600 0150 FFF7FEFF 		bl	USB_InitControlRead
 1601              	.LVL162:
 231:Generated_Source\PSoC5/USB_std.c ****                     default:    /* requestHandled is initialized as FALSE by default */
 1602              		.loc 1 231 0
 1603 0154 10BD     		pop	{r4, pc}
 1604              	.LVL163:
 1605              	.L119:
ARM GAS  C:\Users\Revanth\AppData\Local\Temp\cctCFyeS.s 			page 54


 238:Generated_Source\PSoC5/USB_std.c ****                 USB_currentTD.pData = (volatile uint8 *) &USB_configuration;
 1606              		.loc 1 238 0
 1607 0156 424B     		ldr	r3, .L170+4
 1608              	.LVL164:
 1609 0158 0122     		movs	r2, #1
 1610 015a 1A80     		strh	r2, [r3]	@ movhi
 239:Generated_Source\PSoC5/USB_std.c ****                 requestHandled  = USB_InitControlRead();
 1611              		.loc 1 239 0
 1612 015c 484A     		ldr	r2, .L170+36
 1613 015e 5A60     		str	r2, [r3, #4]
 240:Generated_Source\PSoC5/USB_std.c ****                 break;
 1614              		.loc 1 240 0
 1615 0160 FFF7FEFF 		bl	USB_InitControlRead
 1616              	.LVL165:
 241:Generated_Source\PSoC5/USB_std.c ****                 
 1617              		.loc 1 241 0
 1618 0164 10BD     		pop	{r4, pc}
 1619              	.LVL166:
 1620              	.L120:
 244:Generated_Source\PSoC5/USB_std.c ****                 USB_currentTD.pData = (volatile uint8 *) &USB_interfaceSetting[USB_wIndexLoReg];
 1621              		.loc 1 244 0
 1622 0166 3E4A     		ldr	r2, .L170+4
 1623 0168 0123     		movs	r3, #1
 1624              	.LVL167:
 1625 016a 1380     		strh	r3, [r2]	@ movhi
 245:Generated_Source\PSoC5/USB_std.c ****                 requestHandled  = USB_InitControlRead();
 1626              		.loc 1 245 0
 1627 016c 3B4B     		ldr	r3, .L170
 1628 016e 1B79     		ldrb	r3, [r3, #4]	@ zero_extendqisi2
 1629 0170 4449     		ldr	r1, .L170+40
 1630 0172 0B44     		add	r3, r3, r1
 1631 0174 5360     		str	r3, [r2, #4]
 246:Generated_Source\PSoC5/USB_std.c ****                 break;
 1632              		.loc 1 246 0
 1633 0176 FFF7FEFF 		bl	USB_InitControlRead
 1634              	.LVL168:
 247:Generated_Source\PSoC5/USB_std.c ****                 
 1635              		.loc 1 247 0
 1636 017a 10BD     		pop	{r4, pc}
 1637              	.LVL169:
 1638              	.L114:
 256:Generated_Source\PSoC5/USB_std.c ****         {
 1639              		.loc 1 256 0
 1640 017c 374A     		ldr	r2, .L170
 1641 017e 5278     		ldrb	r2, [r2, #1]	@ zero_extendqisi2
 1642 0180 013A     		subs	r2, r2, #1
 1643 0182 0A2A     		cmp	r2, #10
 1644 0184 00F2CE80 		bhi	.L154
 1645 0188 DFE812F0 		tbh	[pc, r2, lsl #1]
 1646              	.L132:
 1647 018c 4C00     		.2byte	(.L131-.L132)/2
 1648 018e CC00     		.2byte	(.L154-.L132)/2
 1649 0190 9700     		.2byte	(.L133-.L132)/2
 1650 0192 CC00     		.2byte	(.L154-.L132)/2
 1651 0194 0B00     		.2byte	(.L134-.L132)/2
 1652 0196 CC00     		.2byte	(.L154-.L132)/2
 1653 0198 CC00     		.2byte	(.L154-.L132)/2
ARM GAS  C:\Users\Revanth\AppData\Local\Temp\cctCFyeS.s 			page 55


 1654 019a CC00     		.2byte	(.L154-.L132)/2
 1655 019c 1300     		.2byte	(.L135-.L132)/2
 1656 019e CC00     		.2byte	(.L154-.L132)/2
 1657 01a0 3000     		.2byte	(.L136-.L132)/2
 1658              		.p2align 1
 1659              	.L134:
 260:Generated_Source\PSoC5/USB_std.c ****                 requestHandled = USB_InitNoDataControlTransfer();
 1660              		.loc 1 260 0
 1661 01a2 2E4B     		ldr	r3, .L170
 1662              	.LVL170:
 1663 01a4 9B78     		ldrb	r3, [r3, #2]	@ zero_extendqisi2
 1664 01a6 DBB2     		uxtb	r3, r3
 1665 01a8 374A     		ldr	r2, .L170+44
 1666 01aa 1370     		strb	r3, [r2]
 261:Generated_Source\PSoC5/USB_std.c ****                 break;
 1667              		.loc 1 261 0
 1668 01ac FFF7FEFF 		bl	USB_InitNoDataControlTransfer
 1669              	.LVL171:
 262:Generated_Source\PSoC5/USB_std.c ****                 
 1670              		.loc 1 262 0
 1671 01b0 10BD     		pop	{r4, pc}
 1672              	.LVL172:
 1673              	.L135:
 265:Generated_Source\PSoC5/USB_std.c ****                 
 1674              		.loc 1 265 0
 1675 01b2 2A4B     		ldr	r3, .L170
 1676              	.LVL173:
 1677 01b4 9B78     		ldrb	r3, [r3, #2]	@ zero_extendqisi2
 1678              	.LVL174:
 268:Generated_Source\PSoC5/USB_std.c ****                 {
 1679              		.loc 1 268 0
 1680 01b6 03F0FF04 		and	r4, r3, #255
 1681 01ba 1BB1     		cbz	r3, .L137
 270:Generated_Source\PSoC5/USB_std.c ****                 }
 1682              		.loc 1 270 0
 1683 01bc 601E     		subs	r0, r4, #1
 1684 01be C0B2     		uxtb	r0, r0
 1685 01c0 FFF7FEFF 		bl	USB_GetConfigTablePtr
 1686              	.LVL175:
 1687              	.L137:
 274:Generated_Source\PSoC5/USB_std.c ****                 {
 1688              		.loc 1 274 0
 1689 01c4 04B1     		cbz	r4, .L138
 274:Generated_Source\PSoC5/USB_std.c ****                 {
 1690              		.loc 1 274 0 is_stmt 0 discriminator 1
 1691 01c6 10B9     		cbnz	r0, .L139
 1692              	.L138:
 274:Generated_Source\PSoC5/USB_std.c ****                 {
 1693              		.loc 1 274 0 discriminator 3
 1694 01c8 002C     		cmp	r4, #0
 1695 01ca 40F0AD80 		bne	.L155
 1696              	.L139:
 277:Generated_Source\PSoC5/USB_std.c ****                     {
 1697              		.loc 1 277 0 is_stmt 1
 1698 01ce 2C4B     		ldr	r3, .L170+36
 1699 01d0 1B78     		ldrb	r3, [r3]	@ zero_extendqisi2
 1700 01d2 DBB2     		uxtb	r3, r3
ARM GAS  C:\Users\Revanth\AppData\Local\Temp\cctCFyeS.s 			page 56


 1701 01d4 9C42     		cmp	r4, r3
 1702 01d6 06D0     		beq	.L140
 279:Generated_Source\PSoC5/USB_std.c ****                         USB_configurationChanged = USB_TRUE;
 1703              		.loc 1 279 0
 1704 01d8 294B     		ldr	r3, .L170+36
 1705 01da 1C70     		strb	r4, [r3]
 280:Generated_Source\PSoC5/USB_std.c ****                         USB_Config(USB_TRUE);
 1706              		.loc 1 280 0
 1707 01dc 0120     		movs	r0, #1
 1708              	.LVL176:
 1709 01de 2B4B     		ldr	r3, .L170+48
 1710 01e0 1870     		strb	r0, [r3]
 281:Generated_Source\PSoC5/USB_std.c ****                     }
 1711              		.loc 1 281 0
 1712 01e2 FFF7FEFF 		bl	USB_Config
 1713              	.LVL177:
 1714              	.L140:
 283:Generated_Source\PSoC5/USB_std.c ****                 }
 1715              		.loc 1 283 0
 1716 01e6 FFF7FEFF 		bl	USB_InitNoDataControlTransfer
 1717              	.LVL178:
 1718 01ea 10BD     		pop	{r4, pc}
 1719              	.LVL179:
 1720              	.L136:
 288:Generated_Source\PSoC5/USB_std.c ****                 {
 1721              		.loc 1 288 0
 1722 01ec FFF7FEFF 		bl	USB_ValidateAlternateSetting
 1723              	.LVL180:
 1724 01f0 0028     		cmp	r0, #0
 1725 01f2 00F09B80 		beq	.L156
 291:Generated_Source\PSoC5/USB_std.c ****                     USB_interfaceNumber = (uint8) USB_wIndexLoReg;
 1726              		.loc 1 291 0
 1727 01f6 194A     		ldr	r2, .L170
 1728 01f8 1379     		ldrb	r3, [r2, #4]	@ zero_extendqisi2
 1729 01fa DBB2     		uxtb	r3, r3
 1730              	.LVL181:
 292:Generated_Source\PSoC5/USB_std.c ****                      
 1731              		.loc 1 292 0
 1732 01fc 1279     		ldrb	r2, [r2, #4]	@ zero_extendqisi2
 1733 01fe D2B2     		uxtb	r2, r2
 1734 0200 2349     		ldr	r1, .L170+52
 1735 0202 0A70     		strb	r2, [r1]
 295:Generated_Source\PSoC5/USB_std.c ****                     {
 1736              		.loc 1 295 0
 1737 0204 234A     		ldr	r2, .L170+56
 1738 0206 D25C     		ldrb	r2, [r2, r3]	@ zero_extendqisi2
 1739 0208 D2B2     		uxtb	r2, r2
 1740 020a 1E49     		ldr	r1, .L170+40
 1741 020c CB5C     		ldrb	r3, [r1, r3]	@ zero_extendqisi2
 1742              	.LVL182:
 1743 020e DBB2     		uxtb	r3, r3
 1744 0210 9A42     		cmp	r2, r3
 1745 0212 04D0     		beq	.L141
 297:Generated_Source\PSoC5/USB_std.c ****                     
 1746              		.loc 1 297 0
 1747 0214 0122     		movs	r2, #1
 1748 0216 1D4B     		ldr	r3, .L170+48
ARM GAS  C:\Users\Revanth\AppData\Local\Temp\cctCFyeS.s 			page 57


 1749 0218 1A70     		strb	r2, [r3]
 303:Generated_Source\PSoC5/USB_std.c ****                     #endif /* (USB_EP_MANAGEMENT_MANUAL && USB_EP_ALLOC_DYNAMIC) */
 1750              		.loc 1 303 0
 1751 021a FFF7FEFF 		bl	USB_ConfigAltChanged
 1752              	.LVL183:
 1753              	.L141:
 307:Generated_Source\PSoC5/USB_std.c ****                 }
 1754              		.loc 1 307 0
 1755 021e FFF7FEFF 		bl	USB_InitNoDataControlTransfer
 1756              	.LVL184:
 1757 0222 10BD     		pop	{r4, pc}
 1758              	.LVL185:
 1759              	.L131:
 312:Generated_Source\PSoC5/USB_std.c ****                 {
 1760              		.loc 1 312 0
 1761 0224 03F00303 		and	r3, r3, #3
 1762              	.LVL186:
 1763 0228 012B     		cmp	r3, #1
 1764 022a 35D0     		beq	.L142
 1765 022c 4BB1     		cbz	r3, .L143
 1766 022e 022B     		cmp	r3, #2
 1767 0230 7ED1     		bne	.L167
 315:Generated_Source\PSoC5/USB_std.c ****                         {
 1768              		.loc 1 315 0
 1769 0232 0A4B     		ldr	r3, .L170
 1770 0234 9B78     		ldrb	r3, [r3, #2]	@ zero_extendqisi2
 1771 0236 13F0FF0F 		tst	r3, #255
 1772 023a 7BD1     		bne	.L158
 317:Generated_Source\PSoC5/USB_std.c ****                         }
 1773              		.loc 1 317 0
 1774 023c FFF7FEFF 		bl	USB_ClearEndpointHalt
 1775              	.LVL187:
 1776 0240 10BD     		pop	{r4, pc}
 1777              	.LVL188:
 1778              	.L143:
 322:Generated_Source\PSoC5/USB_std.c ****                         {
 1779              		.loc 1 322 0
 1780 0242 064B     		ldr	r3, .L170
 1781 0244 9B78     		ldrb	r3, [r3, #2]	@ zero_extendqisi2
 1782 0246 DBB2     		uxtb	r3, r3
 1783 0248 012B     		cmp	r3, #1
 1784 024a 75D1     		bne	.L159
 324:Generated_Source\PSoC5/USB_std.c ****                             requestHandled = USB_InitNoDataControlTransfer();
 1785              		.loc 1 324 0
 1786 024c 0B4A     		ldr	r2, .L170+32
 1787 024e 1378     		ldrb	r3, [r2]	@ zero_extendqisi2
 1788 0250 03F0FD03 		and	r3, r3, #253
 1789 0254 1370     		strb	r3, [r2]
 325:Generated_Source\PSoC5/USB_std.c ****                         }
 1790              		.loc 1 325 0
 1791 0256 FFF7FEFF 		bl	USB_InitNoDataControlTransfer
 1792              	.LVL189:
 1793 025a 10BD     		pop	{r4, pc}
 1794              	.L171:
 1795              		.align	2
 1796              	.L170:
 1797 025c 00600040 		.word	1073766400
ARM GAS  C:\Users\Revanth\AppData\Local\Temp\cctCFyeS.s 			page 58


 1798 0260 00000000 		.word	USB_currentTD
 1799 0264 00000000 		.word	USB_STRING_DESCRIPTORS
 1800 0268 00000000 		.word	USB_MSOS_DESCRIPTOR
 1801 026c 00000000 		.word	USB_DEVICE0_DESCR
 1802 0270 00000000 		.word	USB_idSerialNumberStringDescriptor
 1803 0274 00000000 		.word	USB_EP
 1804 0278 00000000 		.word	.LANCHOR0
 1805 027c 00000000 		.word	USB_deviceStatus
 1806 0280 00000000 		.word	USB_configuration
 1807 0284 00000000 		.word	USB_interfaceSetting
 1808 0288 00000000 		.word	USB_deviceAddress
 1809 028c 00000000 		.word	USB_configurationChanged
 1810 0290 00000000 		.word	USB_interfaceNumber
 1811 0294 00000000 		.word	USB_interfaceSettingLast
 1812              	.LVL190:
 1813              	.L142:
 330:Generated_Source\PSoC5/USB_std.c ****                         {
 1814              		.loc 1 330 0
 1815 0298 2D4B     		ldr	r3, .L172
 1816 029a 1B79     		ldrb	r3, [r3, #4]	@ zero_extendqisi2
 1817 029c DBB2     		uxtb	r3, r3
 1818 029e 012B     		cmp	r3, #1
 1819 02a0 4CD8     		bhi	.L160
 332:Generated_Source\PSoC5/USB_std.c ****                             requestHandled = USB_InitNoDataControlTransfer();
 1820              		.loc 1 332 0
 1821 02a2 2B4B     		ldr	r3, .L172
 1822 02a4 9878     		ldrb	r0, [r3, #2]	@ zero_extendqisi2
 1823 02a6 1B79     		ldrb	r3, [r3, #4]	@ zero_extendqisi2
 1824 02a8 DBB2     		uxtb	r3, r3
 1825 02aa 2A49     		ldr	r1, .L172+4
 1826 02ac CA5C     		ldrb	r2, [r1, r3]	@ zero_extendqisi2
 1827 02ae 22EA0002 		bic	r2, r2, r0
 1828 02b2 CA54     		strb	r2, [r1, r3]
 333:Generated_Source\PSoC5/USB_std.c ****                         }
 1829              		.loc 1 333 0
 1830 02b4 FFF7FEFF 		bl	USB_InitNoDataControlTransfer
 1831              	.LVL191:
 1832 02b8 10BD     		pop	{r4, pc}
 1833              	.LVL192:
 1834              	.L133:
 342:Generated_Source\PSoC5/USB_std.c ****                 {
 1835              		.loc 1 342 0
 1836 02ba 03F00303 		and	r3, r3, #3
 1837              	.LVL193:
 1838 02be 012B     		cmp	r3, #1
 1839 02c0 17D0     		beq	.L145
 1840 02c2 4BB1     		cbz	r3, .L146
 1841 02c4 022B     		cmp	r3, #2
 1842 02c6 3BD1     		bne	.L168
 345:Generated_Source\PSoC5/USB_std.c ****                         {
 1843              		.loc 1 345 0
 1844 02c8 214B     		ldr	r3, .L172
 1845 02ca 9B78     		ldrb	r3, [r3, #2]	@ zero_extendqisi2
 1846 02cc 13F0FF0F 		tst	r3, #255
 1847 02d0 38D1     		bne	.L162
 347:Generated_Source\PSoC5/USB_std.c ****                         }
 1848              		.loc 1 347 0
ARM GAS  C:\Users\Revanth\AppData\Local\Temp\cctCFyeS.s 			page 59


 1849 02d2 FFF7FEFF 		bl	USB_SetEndpointHalt
 1850              	.LVL194:
 1851 02d6 10BD     		pop	{r4, pc}
 1852              	.LVL195:
 1853              	.L146:
 353:Generated_Source\PSoC5/USB_std.c ****                         {
 1854              		.loc 1 353 0
 1855 02d8 1D4B     		ldr	r3, .L172
 1856 02da 9B78     		ldrb	r3, [r3, #2]	@ zero_extendqisi2
 1857 02dc DBB2     		uxtb	r3, r3
 1858 02de 012B     		cmp	r3, #1
 1859 02e0 32D1     		bne	.L163
 355:Generated_Source\PSoC5/USB_std.c ****                             requestHandled = USB_InitNoDataControlTransfer();
 1860              		.loc 1 355 0
 1861 02e2 1D4A     		ldr	r2, .L172+8
 1862 02e4 1378     		ldrb	r3, [r2]	@ zero_extendqisi2
 1863 02e6 43F00203 		orr	r3, r3, #2
 1864 02ea 1370     		strb	r3, [r2]
 356:Generated_Source\PSoC5/USB_std.c ****                         }
 1865              		.loc 1 356 0
 1866 02ec FFF7FEFF 		bl	USB_InitNoDataControlTransfer
 1867              	.LVL196:
 1868 02f0 10BD     		pop	{r4, pc}
 1869              	.LVL197:
 1870              	.L145:
 362:Generated_Source\PSoC5/USB_std.c ****                         {
 1871              		.loc 1 362 0
 1872 02f2 174B     		ldr	r3, .L172
 1873 02f4 1B79     		ldrb	r3, [r3, #4]	@ zero_extendqisi2
 1874 02f6 DBB2     		uxtb	r3, r3
 1875 02f8 012B     		cmp	r3, #1
 1876 02fa 27D8     		bhi	.L164
 364:Generated_Source\PSoC5/USB_std.c ****                             requestHandled = USB_InitNoDataControlTransfer();
 1877              		.loc 1 364 0
 1878 02fc 144B     		ldr	r3, .L172
 1879 02fe 9878     		ldrb	r0, [r3, #2]	@ zero_extendqisi2
 1880 0300 1B79     		ldrb	r3, [r3, #4]	@ zero_extendqisi2
 1881 0302 DBB2     		uxtb	r3, r3
 1882 0304 1349     		ldr	r1, .L172+4
 1883 0306 CA5C     		ldrb	r2, [r1, r3]	@ zero_extendqisi2
 1884 0308 22EA0002 		bic	r2, r2, r0
 1885 030c CA54     		strb	r2, [r1, r3]
 365:Generated_Source\PSoC5/USB_std.c ****                         }
 1886              		.loc 1 365 0
 1887 030e FFF7FEFF 		bl	USB_InitNoDataControlTransfer
 1888              	.LVL198:
 1889 0312 10BD     		pop	{r4, pc}
 1890              	.LVL199:
 1891              	.L148:
  86:Generated_Source\PSoC5/USB_std.c ****     uint8 interfaceNumber;
 1892              		.loc 1 86 0
 1893 0314 0020     		movs	r0, #0
 1894 0316 10BD     		pop	{r4, pc}
 1895              	.LVL200:
 1896              	.L149:
 1897 0318 0020     		movs	r0, #0
 1898              	.LVL201:
ARM GAS  C:\Users\Revanth\AppData\Local\Temp\cctCFyeS.s 			page 60


 1899 031a 10BD     		pop	{r4, pc}
 1900              	.LVL202:
 1901              	.L152:
 1902 031c 0020     		movs	r0, #0
 1903 031e 10BD     		pop	{r4, pc}
 1904              	.LVL203:
 1905              	.L166:
 1906 0320 0020     		movs	r0, #0
 1907 0322 10BD     		pop	{r4, pc}
 1908              	.LVL204:
 1909              	.L154:
 1910 0324 0020     		movs	r0, #0
 1911 0326 10BD     		pop	{r4, pc}
 1912              	.LVL205:
 1913              	.L155:
 1914 0328 0020     		movs	r0, #0
 1915              	.LVL206:
 1916 032a 10BD     		pop	{r4, pc}
 1917              	.L156:
 1918 032c 0020     		movs	r0, #0
 1919 032e 10BD     		pop	{r4, pc}
 1920              	.L167:
 1921 0330 0020     		movs	r0, #0
 1922 0332 10BD     		pop	{r4, pc}
 1923              	.L158:
 1924 0334 0020     		movs	r0, #0
 1925 0336 10BD     		pop	{r4, pc}
 1926              	.L159:
 1927 0338 0020     		movs	r0, #0
 1928 033a 10BD     		pop	{r4, pc}
 1929              	.L160:
 1930 033c 0020     		movs	r0, #0
 1931 033e 10BD     		pop	{r4, pc}
 1932              	.L168:
 1933 0340 0020     		movs	r0, #0
 1934 0342 10BD     		pop	{r4, pc}
 1935              	.L162:
 1936 0344 0020     		movs	r0, #0
 1937 0346 10BD     		pop	{r4, pc}
 1938              	.L163:
 1939 0348 0020     		movs	r0, #0
 1940 034a 10BD     		pop	{r4, pc}
 1941              	.L164:
 1942 034c 0020     		movs	r0, #0
 1943              	.LVL207:
 380:Generated_Source\PSoC5/USB_std.c **** 
 1944              		.loc 1 380 0
 1945 034e 10BD     		pop	{r4, pc}
 1946              	.L173:
 1947              		.align	2
 1948              	.L172:
 1949 0350 00600040 		.word	1073766400
 1950 0354 00000000 		.word	USB_interfaceStatus
 1951 0358 00000000 		.word	USB_deviceStatus
 1952              		.cfi_endproc
 1953              	.LFE0:
 1954              		.size	USB_HandleStandardRqst, .-USB_HandleStandardRqst
ARM GAS  C:\Users\Revanth\AppData\Local\Temp\cctCFyeS.s 			page 61


 1955              		.section	.rodata.str1.4,"aMS",%progbits,1
 1956              		.align	2
 1957              	.LC0:
 1958 0000 30313233 		.ascii	"0123456789ABCDEF\000"
 1958      34353637 
 1958      38394142 
 1958      43444546 
 1958      00
 1959              		.bss
 1960              		.align	2
 1961              		.set	.LANCHOR0,. + 0
 1962              		.type	USB_tBuffer.5262, %object
 1963              		.size	USB_tBuffer.5262, 2
 1964              	USB_tBuffer.5262:
 1965 0000 0000     		.space	2
 1966              		.text
 1967              	.Letext0:
 1968              		.file 2 "Generated_Source\\PSoC5\\cytypes.h"
 1969              		.file 3 "Generated_Source\\PSoC5\\USB.h"
 1970              		.file 4 "Generated_Source\\PSoC5\\USB_pvt.h"
 1971              		.file 5 "Generated_Source\\PSoC5\\CyLib.h"
 1972              		.section	.debug_info,"",%progbits
 1973              	.Ldebug_info0:
 1974 0000 320B0000 		.4byte	0xb32
 1975 0004 0400     		.2byte	0x4
 1976 0006 00000000 		.4byte	.Ldebug_abbrev0
 1977 000a 04       		.byte	0x4
 1978 000b 01       		.uleb128 0x1
 1979 000c 94010000 		.4byte	.LASF119
 1980 0010 0C       		.byte	0xc
 1981 0011 F9040000 		.4byte	.LASF120
 1982 0015 C5030000 		.4byte	.LASF121
 1983 0019 00000000 		.4byte	.Ldebug_ranges0+0
 1984 001d 00000000 		.4byte	0
 1985 0021 00000000 		.4byte	.Ldebug_line0
 1986 0025 02       		.uleb128 0x2
 1987 0026 01       		.byte	0x1
 1988 0027 06       		.byte	0x6
 1989 0028 59060000 		.4byte	.LASF0
 1990 002c 02       		.uleb128 0x2
 1991 002d 01       		.byte	0x1
 1992 002e 08       		.byte	0x8
 1993 002f 9C050000 		.4byte	.LASF1
 1994 0033 02       		.uleb128 0x2
 1995 0034 02       		.byte	0x2
 1996 0035 05       		.byte	0x5
 1997 0036 CA040000 		.4byte	.LASF2
 1998 003a 02       		.uleb128 0x2
 1999 003b 02       		.byte	0x2
 2000 003c 07       		.byte	0x7
 2001 003d 6F060000 		.4byte	.LASF3
 2002 0041 02       		.uleb128 0x2
 2003 0042 04       		.byte	0x4
 2004 0043 05       		.byte	0x5
 2005 0044 DB040000 		.4byte	.LASF4
 2006 0048 02       		.uleb128 0x2
 2007 0049 04       		.byte	0x4
ARM GAS  C:\Users\Revanth\AppData\Local\Temp\cctCFyeS.s 			page 62


 2008 004a 07       		.byte	0x7
 2009 004b 52050000 		.4byte	.LASF5
 2010 004f 02       		.uleb128 0x2
 2011 0050 08       		.byte	0x8
 2012 0051 05       		.byte	0x5
 2013 0052 76030000 		.4byte	.LASF6
 2014 0056 02       		.uleb128 0x2
 2015 0057 08       		.byte	0x8
 2016 0058 07       		.byte	0x7
 2017 0059 17010000 		.4byte	.LASF7
 2018 005d 03       		.uleb128 0x3
 2019 005e 04       		.byte	0x4
 2020 005f 05       		.byte	0x5
 2021 0060 696E7400 		.ascii	"int\000"
 2022 0064 02       		.uleb128 0x2
 2023 0065 04       		.byte	0x4
 2024 0066 07       		.byte	0x7
 2025 0067 6D000000 		.4byte	.LASF8
 2026 006b 04       		.uleb128 0x4
 2027 006c 94060000 		.4byte	.LASF9
 2028 0070 02       		.byte	0x2
 2029 0071 E401     		.2byte	0x1e4
 2030 0073 2C000000 		.4byte	0x2c
 2031 0077 04       		.uleb128 0x4
 2032 0078 0E030000 		.4byte	.LASF10
 2033 007c 02       		.byte	0x2
 2034 007d E501     		.2byte	0x1e5
 2035 007f 3A000000 		.4byte	0x3a
 2036 0083 04       		.uleb128 0x4
 2037 0084 32040000 		.4byte	.LASF11
 2038 0088 02       		.byte	0x2
 2039 0089 E601     		.2byte	0x1e6
 2040 008b 48000000 		.4byte	0x48
 2041 008f 02       		.uleb128 0x2
 2042 0090 04       		.byte	0x4
 2043 0091 04       		.byte	0x4
 2044 0092 06010000 		.4byte	.LASF12
 2045 0096 02       		.uleb128 0x2
 2046 0097 08       		.byte	0x8
 2047 0098 04       		.byte	0x4
 2048 0099 9A060000 		.4byte	.LASF13
 2049 009d 04       		.uleb128 0x4
 2050 009e 30030000 		.4byte	.LASF14
 2051 00a2 02       		.byte	0x2
 2052 00a3 F501     		.2byte	0x1f5
 2053 00a5 A9000000 		.4byte	0xa9
 2054 00a9 02       		.uleb128 0x2
 2055 00aa 01       		.byte	0x1
 2056 00ab 08       		.byte	0x8
 2057 00ac 03030000 		.4byte	.LASF15
 2058 00b0 04       		.uleb128 0x4
 2059 00b1 AA000000 		.4byte	.LASF16
 2060 00b5 02       		.byte	0x2
 2061 00b6 8E02     		.2byte	0x28e
 2062 00b8 BC000000 		.4byte	0xbc
 2063 00bc 05       		.uleb128 0x5
 2064 00bd 6B000000 		.4byte	0x6b
ARM GAS  C:\Users\Revanth\AppData\Local\Temp\cctCFyeS.s 			page 63


 2065 00c1 02       		.uleb128 0x2
 2066 00c2 08       		.byte	0x8
 2067 00c3 04       		.byte	0x4
 2068 00c4 87040000 		.4byte	.LASF17
 2069 00c8 02       		.uleb128 0x2
 2070 00c9 04       		.byte	0x4
 2071 00ca 07       		.byte	0x7
 2072 00cb 49050000 		.4byte	.LASF18
 2073 00cf 06       		.uleb128 0x6
 2074 00d0 0C       		.byte	0xc
 2075 00d1 03       		.byte	0x3
 2076 00d2 91       		.byte	0x91
 2077 00d3 44010000 		.4byte	0x144
 2078 00d7 07       		.uleb128 0x7
 2079 00d8 CA060000 		.4byte	.LASF19
 2080 00dc 03       		.byte	0x3
 2081 00dd 93       		.byte	0x93
 2082 00de 6B000000 		.4byte	0x6b
 2083 00e2 00       		.byte	0
 2084 00e3 07       		.uleb128 0x7
 2085 00e4 D1060000 		.4byte	.LASF20
 2086 00e8 03       		.byte	0x3
 2087 00e9 94       		.byte	0x94
 2088 00ea 6B000000 		.4byte	0x6b
 2089 00ee 01       		.byte	0x1
 2090 00ef 07       		.uleb128 0x7
 2091 00f0 09040000 		.4byte	.LASF21
 2092 00f4 03       		.byte	0x3
 2093 00f5 95       		.byte	0x95
 2094 00f6 6B000000 		.4byte	0x6b
 2095 00fa 02       		.byte	0x2
 2096 00fb 07       		.uleb128 0x7
 2097 00fc F8000000 		.4byte	.LASF22
 2098 0100 03       		.byte	0x3
 2099 0101 96       		.byte	0x96
 2100 0102 6B000000 		.4byte	0x6b
 2101 0106 03       		.byte	0x3
 2102 0107 07       		.uleb128 0x7
 2103 0108 16060000 		.4byte	.LASF23
 2104 010c 03       		.byte	0x3
 2105 010d 97       		.byte	0x97
 2106 010e 6B000000 		.4byte	0x6b
 2107 0112 04       		.byte	0x4
 2108 0113 07       		.uleb128 0x7
 2109 0114 D4040000 		.4byte	.LASF24
 2110 0118 03       		.byte	0x3
 2111 0119 98       		.byte	0x98
 2112 011a 6B000000 		.4byte	0x6b
 2113 011e 05       		.byte	0x5
 2114 011f 07       		.uleb128 0x7
 2115 0120 36030000 		.4byte	.LASF25
 2116 0124 03       		.byte	0x3
 2117 0125 99       		.byte	0x99
 2118 0126 77000000 		.4byte	0x77
 2119 012a 06       		.byte	0x6
 2120 012b 07       		.uleb128 0x7
 2121 012c 33000000 		.4byte	.LASF26
ARM GAS  C:\Users\Revanth\AppData\Local\Temp\cctCFyeS.s 			page 64


 2122 0130 03       		.byte	0x3
 2123 0131 9A       		.byte	0x9a
 2124 0132 77000000 		.4byte	0x77
 2125 0136 08       		.byte	0x8
 2126 0137 07       		.uleb128 0x7
 2127 0138 53000000 		.4byte	.LASF27
 2128 013c 03       		.byte	0x3
 2129 013d 9B       		.byte	0x9b
 2130 013e 6B000000 		.4byte	0x6b
 2131 0142 0A       		.byte	0xa
 2132 0143 00       		.byte	0
 2133 0144 08       		.uleb128 0x8
 2134 0145 57020000 		.4byte	.LASF28
 2135 0149 03       		.byte	0x3
 2136 014a 9C       		.byte	0x9c
 2137 014b CF000000 		.4byte	0xcf
 2138 014f 06       		.uleb128 0x6
 2139 0150 08       		.byte	0x8
 2140 0151 03       		.byte	0x3
 2141 0152 9E       		.byte	0x9e
 2142 0153 A0010000 		.4byte	0x1a0
 2143 0157 07       		.uleb128 0x7
 2144 0158 53000000 		.4byte	.LASF27
 2145 015c 03       		.byte	0x3
 2146 015d A0       		.byte	0xa0
 2147 015e 6B000000 		.4byte	0x6b
 2148 0162 00       		.byte	0
 2149 0163 07       		.uleb128 0x7
 2150 0164 ED000000 		.4byte	.LASF29
 2151 0168 03       		.byte	0x3
 2152 0169 A1       		.byte	0xa1
 2153 016a 6B000000 		.4byte	0x6b
 2154 016e 01       		.byte	0x1
 2155 016f 07       		.uleb128 0x7
 2156 0170 16060000 		.4byte	.LASF23
 2157 0174 03       		.byte	0x3
 2158 0175 A2       		.byte	0xa2
 2159 0176 6B000000 		.4byte	0x6b
 2160 017a 02       		.byte	0x2
 2161 017b 07       		.uleb128 0x7
 2162 017c 00060000 		.4byte	.LASF30
 2163 0180 03       		.byte	0x3
 2164 0181 A3       		.byte	0xa3
 2165 0182 6B000000 		.4byte	0x6b
 2166 0186 03       		.byte	0x3
 2167 0187 07       		.uleb128 0x7
 2168 0188 33000000 		.4byte	.LASF26
 2169 018c 03       		.byte	0x3
 2170 018d A4       		.byte	0xa4
 2171 018e 77000000 		.4byte	0x77
 2172 0192 04       		.byte	0x4
 2173 0193 07       		.uleb128 0x7
 2174 0194 95030000 		.4byte	.LASF31
 2175 0198 03       		.byte	0x3
 2176 0199 A5       		.byte	0xa5
 2177 019a 6B000000 		.4byte	0x6b
 2178 019e 06       		.byte	0x6
ARM GAS  C:\Users\Revanth\AppData\Local\Temp\cctCFyeS.s 			page 65


 2179 019f 00       		.byte	0
 2180 01a0 08       		.uleb128 0x8
 2181 01a1 D4050000 		.4byte	.LASF32
 2182 01a5 03       		.byte	0x3
 2183 01a6 A6       		.byte	0xa6
 2184 01a7 4F010000 		.4byte	0x14f
 2185 01ab 06       		.uleb128 0x6
 2186 01ac 04       		.byte	0x4
 2187 01ad 03       		.byte	0x3
 2188 01ae A8       		.byte	0xa8
 2189 01af CC010000 		.4byte	0x1cc
 2190 01b3 07       		.uleb128 0x7
 2191 01b4 29030000 		.4byte	.LASF33
 2192 01b8 03       		.byte	0x3
 2193 01b9 AA       		.byte	0xaa
 2194 01ba 6B000000 		.4byte	0x6b
 2195 01be 00       		.byte	0
 2196 01bf 07       		.uleb128 0x7
 2197 01c0 E4040000 		.4byte	.LASF34
 2198 01c4 03       		.byte	0x3
 2199 01c5 AB       		.byte	0xab
 2200 01c6 77000000 		.4byte	0x77
 2201 01ca 02       		.byte	0x2
 2202 01cb 00       		.byte	0
 2203 01cc 08       		.uleb128 0x8
 2204 01cd FA060000 		.4byte	.LASF35
 2205 01d1 03       		.byte	0x3
 2206 01d2 AC       		.byte	0xac
 2207 01d3 AB010000 		.4byte	0x1ab
 2208 01d7 06       		.uleb128 0x6
 2209 01d8 0C       		.byte	0xc
 2210 01d9 03       		.byte	0x3
 2211 01da AE       		.byte	0xae
 2212 01db 04020000 		.4byte	0x204
 2213 01df 07       		.uleb128 0x7
 2214 01e0 0C010000 		.4byte	.LASF36
 2215 01e4 03       		.byte	0x3
 2216 01e5 B0       		.byte	0xb0
 2217 01e6 77000000 		.4byte	0x77
 2218 01ea 00       		.byte	0
 2219 01eb 07       		.uleb128 0x7
 2220 01ec 6A020000 		.4byte	.LASF37
 2221 01f0 03       		.byte	0x3
 2222 01f1 B1       		.byte	0xb1
 2223 01f2 04020000 		.4byte	0x204
 2224 01f6 04       		.byte	0x4
 2225 01f7 07       		.uleb128 0x7
 2226 01f8 B8020000 		.4byte	.LASF38
 2227 01fc 03       		.byte	0x3
 2228 01fd B2       		.byte	0xb2
 2229 01fe 0A020000 		.4byte	0x20a
 2230 0202 08       		.byte	0x8
 2231 0203 00       		.byte	0
 2232 0204 09       		.uleb128 0x9
 2233 0205 04       		.byte	0x4
 2234 0206 BC000000 		.4byte	0xbc
 2235 020a 09       		.uleb128 0x9
ARM GAS  C:\Users\Revanth\AppData\Local\Temp\cctCFyeS.s 			page 66


 2236 020b 04       		.byte	0x4
 2237 020c CC010000 		.4byte	0x1cc
 2238 0210 08       		.uleb128 0x8
 2239 0211 8B050000 		.4byte	.LASF39
 2240 0215 03       		.byte	0x3
 2241 0216 B3       		.byte	0xb3
 2242 0217 D7010000 		.4byte	0x1d7
 2243 021b 06       		.uleb128 0x6
 2244 021c 08       		.byte	0x8
 2245 021d 03       		.byte	0x3
 2246 021e B5       		.byte	0xb5
 2247 021f 3A020000 		.4byte	0x23a
 2248 0223 0A       		.uleb128 0xa
 2249 0224 6300     		.ascii	"c\000"
 2250 0226 03       		.byte	0x3
 2251 0227 B7       		.byte	0xb7
 2252 0228 6B000000 		.4byte	0x6b
 2253 022c 00       		.byte	0
 2254 022d 07       		.uleb128 0x7
 2255 022e 84050000 		.4byte	.LASF40
 2256 0232 03       		.byte	0x3
 2257 0233 B8       		.byte	0xb8
 2258 0234 3A020000 		.4byte	0x23a
 2259 0238 04       		.byte	0x4
 2260 0239 00       		.byte	0
 2261 023a 09       		.uleb128 0x9
 2262 023b 04       		.byte	0x4
 2263 023c 40020000 		.4byte	0x240
 2264 0240 0B       		.uleb128 0xb
 2265 0241 08       		.uleb128 0x8
 2266 0242 65060000 		.4byte	.LASF41
 2267 0246 03       		.byte	0x3
 2268 0247 B9       		.byte	0xb9
 2269 0248 1B020000 		.4byte	0x21b
 2270 024c 06       		.uleb128 0x6
 2271 024d 08       		.byte	0x8
 2272 024e 03       		.byte	0x3
 2273 024f C9       		.byte	0xc9
 2274 0250 61020000 		.4byte	0x261
 2275 0254 07       		.uleb128 0x7
 2276 0255 12070000 		.4byte	.LASF42
 2277 0259 03       		.byte	0x3
 2278 025a CB       		.byte	0xcb
 2279 025b 61020000 		.4byte	0x261
 2280 025f 00       		.byte	0
 2281 0260 00       		.byte	0
 2282 0261 0C       		.uleb128 0xc
 2283 0262 6B000000 		.4byte	0x6b
 2284 0266 71020000 		.4byte	0x271
 2285 026a 0D       		.uleb128 0xd
 2286 026b C8000000 		.4byte	0xc8
 2287 026f 07       		.byte	0x7
 2288 0270 00       		.byte	0
 2289 0271 08       		.uleb128 0x8
 2290 0272 D9000000 		.4byte	.LASF43
 2291 0276 03       		.byte	0x3
 2292 0277 CC       		.byte	0xcc
ARM GAS  C:\Users\Revanth\AppData\Local\Temp\cctCFyeS.s 			page 67


 2293 0278 4C020000 		.4byte	0x24c
 2294 027c 06       		.uleb128 0x6
 2295 027d 10       		.byte	0x10
 2296 027e 03       		.byte	0x3
 2297 027f D8       		.byte	0xd8
 2298 0280 B5020000 		.4byte	0x2b5
 2299 0284 07       		.uleb128 0x7
 2300 0285 9B030000 		.4byte	.LASF44
 2301 0289 03       		.byte	0x3
 2302 028a DA       		.byte	0xda
 2303 028b 6B000000 		.4byte	0x6b
 2304 028f 00       		.byte	0
 2305 0290 07       		.uleb128 0x7
 2306 0291 A2030000 		.4byte	.LASF45
 2307 0295 03       		.byte	0x3
 2308 0296 DB       		.byte	0xdb
 2309 0297 6B000000 		.4byte	0x6b
 2310 029b 01       		.byte	0x1
 2311 029c 07       		.uleb128 0x7
 2312 029d 41030000 		.4byte	.LASF46
 2313 02a1 03       		.byte	0x3
 2314 02a2 DC       		.byte	0xdc
 2315 02a3 6B000000 		.4byte	0x6b
 2316 02a7 02       		.byte	0x2
 2317 02a8 0A       		.uleb128 0xa
 2318 02a9 67617000 		.ascii	"gap\000"
 2319 02ad 03       		.byte	0x3
 2320 02ae DD       		.byte	0xdd
 2321 02af B5020000 		.4byte	0x2b5
 2322 02b3 03       		.byte	0x3
 2323 02b4 00       		.byte	0
 2324 02b5 0C       		.uleb128 0xc
 2325 02b6 6B000000 		.4byte	0x6b
 2326 02ba C5020000 		.4byte	0x2c5
 2327 02be 0D       		.uleb128 0xd
 2328 02bf C8000000 		.4byte	0xc8
 2329 02c3 0C       		.byte	0xc
 2330 02c4 00       		.byte	0
 2331 02c5 08       		.uleb128 0x8
 2332 02c6 82010000 		.4byte	.LASF47
 2333 02ca 03       		.byte	0x3
 2334 02cb DE       		.byte	0xde
 2335 02cc 7C020000 		.4byte	0x27c
 2336 02d0 06       		.uleb128 0x6
 2337 02d1 10       		.byte	0x10
 2338 02d2 03       		.byte	0x3
 2339 02d3 EA       		.byte	0xea
 2340 02d4 51030000 		.4byte	0x351
 2341 02d8 07       		.uleb128 0x7
 2342 02d9 F3040000 		.4byte	.LASF48
 2343 02dd 03       		.byte	0x3
 2344 02de EC       		.byte	0xec
 2345 02df 6B000000 		.4byte	0x6b
 2346 02e3 00       		.byte	0
 2347 02e4 07       		.uleb128 0x7
 2348 02e5 30020000 		.4byte	.LASF49
 2349 02e9 03       		.byte	0x3
ARM GAS  C:\Users\Revanth\AppData\Local\Temp\cctCFyeS.s 			page 68


 2350 02ea ED       		.byte	0xed
 2351 02eb 6B000000 		.4byte	0x6b
 2352 02ef 01       		.byte	0x1
 2353 02f0 07       		.uleb128 0x7
 2354 02f1 7F050000 		.4byte	.LASF50
 2355 02f5 03       		.byte	0x3
 2356 02f6 EE       		.byte	0xee
 2357 02f7 6B000000 		.4byte	0x6b
 2358 02fb 02       		.byte	0x2
 2359 02fc 07       		.uleb128 0x7
 2360 02fd 8B060000 		.4byte	.LASF51
 2361 0301 03       		.byte	0x3
 2362 0302 EF       		.byte	0xef
 2363 0303 6B000000 		.4byte	0x6b
 2364 0307 03       		.byte	0x3
 2365 0308 07       		.uleb128 0x7
 2366 0309 12010000 		.4byte	.LASF52
 2367 030d 03       		.byte	0x3
 2368 030e F0       		.byte	0xf0
 2369 030f 6B000000 		.4byte	0x6b
 2370 0313 04       		.byte	0x4
 2371 0314 07       		.uleb128 0x7
 2372 0315 94050000 		.4byte	.LASF53
 2373 0319 03       		.byte	0x3
 2374 031a F1       		.byte	0xf1
 2375 031b 6B000000 		.4byte	0x6b
 2376 031f 05       		.byte	0x5
 2377 0320 07       		.uleb128 0x7
 2378 0321 54060000 		.4byte	.LASF54
 2379 0325 03       		.byte	0x3
 2380 0326 F2       		.byte	0xf2
 2381 0327 6B000000 		.4byte	0x6b
 2382 032b 06       		.byte	0x6
 2383 032c 07       		.uleb128 0x7
 2384 032d EB040000 		.4byte	.LASF55
 2385 0331 03       		.byte	0x3
 2386 0332 F3       		.byte	0xf3
 2387 0333 6B000000 		.4byte	0x6b
 2388 0337 07       		.byte	0x7
 2389 0338 07       		.uleb128 0x7
 2390 0339 00000000 		.4byte	.LASF56
 2391 033d 03       		.byte	0x3
 2392 033e F4       		.byte	0xf4
 2393 033f 6B000000 		.4byte	0x6b
 2394 0343 08       		.byte	0x8
 2395 0344 0A       		.uleb128 0xa
 2396 0345 67617000 		.ascii	"gap\000"
 2397 0349 03       		.byte	0x3
 2398 034a F5       		.byte	0xf5
 2399 034b 51030000 		.4byte	0x351
 2400 034f 09       		.byte	0x9
 2401 0350 00       		.byte	0
 2402 0351 0C       		.uleb128 0xc
 2403 0352 6B000000 		.4byte	0x6b
 2404 0356 61030000 		.4byte	0x361
 2405 035a 0D       		.uleb128 0xd
 2406 035b C8000000 		.4byte	0xc8
ARM GAS  C:\Users\Revanth\AppData\Local\Temp\cctCFyeS.s 			page 69


 2407 035f 06       		.byte	0x6
 2408 0360 00       		.byte	0
 2409 0361 08       		.uleb128 0x8
 2410 0362 98000000 		.4byte	.LASF57
 2411 0366 03       		.byte	0x3
 2412 0367 F6       		.byte	0xf6
 2413 0368 D0020000 		.4byte	0x2d0
 2414 036c 0E       		.uleb128 0xe
 2415 036d 90       		.byte	0x90
 2416 036e 03       		.byte	0x3
 2417 036f 1201     		.2byte	0x112
 2418 0371 83030000 		.4byte	0x383
 2419 0375 0F       		.uleb128 0xf
 2420 0376 4D000000 		.4byte	.LASF58
 2421 037a 03       		.byte	0x3
 2422 037b 1401     		.2byte	0x114
 2423 037d 83030000 		.4byte	0x383
 2424 0381 00       		.byte	0
 2425 0382 00       		.byte	0
 2426 0383 0C       		.uleb128 0xc
 2427 0384 C5020000 		.4byte	0x2c5
 2428 0388 93030000 		.4byte	0x393
 2429 038c 0D       		.uleb128 0xd
 2430 038d C8000000 		.4byte	0xc8
 2431 0391 08       		.byte	0x8
 2432 0392 00       		.byte	0
 2433 0393 04       		.uleb128 0x4
 2434 0394 B2030000 		.4byte	.LASF59
 2435 0398 03       		.byte	0x3
 2436 0399 1501     		.2byte	0x115
 2437 039b 6C030000 		.4byte	0x36c
 2438 039f 0E       		.uleb128 0xe
 2439 03a0 90       		.byte	0x90
 2440 03a1 03       		.byte	0x3
 2441 03a2 1801     		.2byte	0x118
 2442 03a4 B6030000 		.4byte	0x3b6
 2443 03a8 0F       		.uleb128 0xf
 2444 03a9 08030000 		.4byte	.LASF60
 2445 03ad 03       		.byte	0x3
 2446 03ae 1A01     		.2byte	0x11a
 2447 03b0 B6030000 		.4byte	0x3b6
 2448 03b4 00       		.byte	0
 2449 03b5 00       		.byte	0
 2450 03b6 0C       		.uleb128 0xc
 2451 03b7 61030000 		.4byte	0x361
 2452 03bb C6030000 		.4byte	0x3c6
 2453 03bf 0D       		.uleb128 0xd
 2454 03c0 C8000000 		.4byte	0xc8
 2455 03c4 08       		.byte	0x8
 2456 03c5 00       		.byte	0
 2457 03c6 04       		.uleb128 0x4
 2458 03c7 44010000 		.4byte	.LASF61
 2459 03cb 03       		.byte	0x3
 2460 03cc 1B01     		.2byte	0x11b
 2461 03ce 9F030000 		.4byte	0x39f
 2462 03d2 10       		.uleb128 0x10
 2463 03d3 57010000 		.4byte	.LASF63
ARM GAS  C:\Users\Revanth\AppData\Local\Temp\cctCFyeS.s 			page 70


 2464 03d7 01       		.byte	0x1
 2465 03d8 8E01     		.2byte	0x18e
 2466 03da 00000000 		.4byte	.LFB1
 2467 03de 6C000000 		.4byte	.LFE1-.LFB1
 2468 03e2 01       		.uleb128 0x1
 2469 03e3 9C       		.byte	0x9c
 2470 03e4 43040000 		.4byte	0x443
 2471 03e8 11       		.uleb128 0x11
 2472 03e9 6B040000 		.4byte	.LASF66
 2473 03ed 01       		.byte	0x1
 2474 03ee 8E01     		.2byte	0x18e
 2475 03f0 43040000 		.4byte	0x443
 2476 03f4 00000000 		.4byte	.LLST0
 2477 03f8 12       		.uleb128 0x12
 2478 03f9 68657800 		.ascii	"hex\000"
 2479 03fd 01       		.byte	0x1
 2480 03fe 9001     		.2byte	0x190
 2481 0400 5E040000 		.4byte	0x45e
 2482 0404 02       		.uleb128 0x2
 2483 0405 91       		.byte	0x91
 2484 0406 5C       		.sleb128 -36
 2485 0407 13       		.uleb128 0x13
 2486 0408 6900     		.ascii	"i\000"
 2487 040a 01       		.byte	0x1
 2488 040b 9101     		.2byte	0x191
 2489 040d 6B000000 		.4byte	0x6b
 2490 0411 2C000000 		.4byte	.LLST1
 2491 0415 13       		.uleb128 0x13
 2492 0416 6A00     		.ascii	"j\000"
 2493 0418 01       		.byte	0x1
 2494 0419 9201     		.2byte	0x192
 2495 041b 6B000000 		.4byte	0x6b
 2496 041f 56000000 		.4byte	.LLST2
 2497 0423 14       		.uleb128 0x14
 2498 0424 82060000 		.4byte	.LASF62
 2499 0428 01       		.byte	0x1
 2500 0429 9301     		.2byte	0x193
 2501 042b 61020000 		.4byte	0x261
 2502 042f 02       		.uleb128 0x2
 2503 0430 91       		.byte	0x91
 2504 0431 54       		.sleb128 -44
 2505 0432 15       		.uleb128 0x15
 2506 0433 22000000 		.4byte	.LVL3
 2507 0437 FC0A0000 		.4byte	0xafc
 2508 043b 16       		.uleb128 0x16
 2509 043c 01       		.uleb128 0x1
 2510 043d 50       		.byte	0x50
 2511 043e 02       		.uleb128 0x2
 2512 043f 91       		.byte	0x91
 2513 0440 54       		.sleb128 -44
 2514 0441 00       		.byte	0
 2515 0442 00       		.byte	0
 2516 0443 09       		.uleb128 0x9
 2517 0444 04       		.byte	0x4
 2518 0445 6B000000 		.4byte	0x6b
 2519 0449 0C       		.uleb128 0xc
 2520 044a 59040000 		.4byte	0x459
ARM GAS  C:\Users\Revanth\AppData\Local\Temp\cctCFyeS.s 			page 71


 2521 044e 59040000 		.4byte	0x459
 2522 0452 0D       		.uleb128 0xd
 2523 0453 C8000000 		.4byte	0xc8
 2524 0457 10       		.byte	0x10
 2525 0458 00       		.byte	0
 2526 0459 17       		.uleb128 0x17
 2527 045a 9D000000 		.4byte	0x9d
 2528 045e 17       		.uleb128 0x17
 2529 045f 49040000 		.4byte	0x449
 2530 0463 10       		.uleb128 0x10
 2531 0464 22020000 		.4byte	.LASF64
 2532 0468 01       		.byte	0x1
 2533 0469 B501     		.2byte	0x1b5
 2534 046b 00000000 		.4byte	.LFB2
 2535 046f A4000000 		.4byte	.LFE2-.LFB2
 2536 0473 01       		.uleb128 0x1
 2537 0474 9C       		.byte	0x9c
 2538 0475 89040000 		.4byte	0x489
 2539 0479 13       		.uleb128 0x13
 2540 047a 657000   		.ascii	"ep\000"
 2541 047d 01       		.byte	0x1
 2542 047e B701     		.2byte	0x1b7
 2543 0480 6B000000 		.4byte	0x6b
 2544 0484 80000000 		.4byte	.LLST3
 2545 0488 00       		.byte	0
 2546 0489 10       		.uleb128 0x10
 2547 048a 6F050000 		.4byte	.LASF65
 2548 048e 01       		.byte	0x1
 2549 048f 1402     		.2byte	0x214
 2550 0491 00000000 		.4byte	.LFB3
 2551 0495 44000000 		.4byte	.LFE3-.LFB3
 2552 0499 01       		.uleb128 0x1
 2553 049a 9C       		.byte	0x9c
 2554 049b AE040000 		.4byte	0x4ae
 2555 049f 13       		.uleb128 0x13
 2556 04a0 6900     		.ascii	"i\000"
 2557 04a2 01       		.byte	0x1
 2558 04a3 1602     		.2byte	0x216
 2559 04a5 6B000000 		.4byte	0x6b
 2560 04a9 AA000000 		.4byte	.LLST4
 2561 04ad 00       		.byte	0
 2562 04ae 18       		.uleb128 0x18
 2563 04af 2E010000 		.4byte	.LASF73
 2564 04b3 01       		.byte	0x1
 2565 04b4 AE03     		.2byte	0x3ae
 2566 04b6 E9040000 		.4byte	0x4e9
 2567 04ba 00000000 		.4byte	.LFB6
 2568 04be 28000000 		.4byte	.LFE6-.LFB6
 2569 04c2 01       		.uleb128 0x1
 2570 04c3 9C       		.byte	0x9c
 2571 04c4 E9040000 		.4byte	0x4e9
 2572 04c8 11       		.uleb128 0x11
 2573 04c9 38020000 		.4byte	.LASF67
 2574 04cd 01       		.byte	0x1
 2575 04ce AE03     		.2byte	0x3ae
 2576 04d0 6B000000 		.4byte	0x6b
 2577 04d4 D4000000 		.4byte	.LLST5
ARM GAS  C:\Users\Revanth\AppData\Local\Temp\cctCFyeS.s 			page 72


 2578 04d8 19       		.uleb128 0x19
 2579 04d9 1A050000 		.4byte	.LASF68
 2580 04dd 01       		.byte	0x1
 2581 04de B203     		.2byte	0x3b2
 2582 04e0 E9040000 		.4byte	0x4e9
 2583 04e4 0E010000 		.4byte	.LLST6
 2584 04e8 00       		.byte	0
 2585 04e9 09       		.uleb128 0x9
 2586 04ea 04       		.byte	0x4
 2587 04eb EF040000 		.4byte	0x4ef
 2588 04ef 17       		.uleb128 0x17
 2589 04f0 41020000 		.4byte	0x241
 2590 04f4 10       		.uleb128 0x10
 2591 04f5 1E000000 		.4byte	.LASF69
 2592 04f9 01       		.byte	0x1
 2593 04fa 2503     		.2byte	0x325
 2594 04fc 00000000 		.4byte	.LFB5
 2595 0500 1C010000 		.4byte	.LFE5-.LFB5
 2596 0504 01       		.uleb128 0x1
 2597 0505 9C       		.byte	0x9c
 2598 0506 81050000 		.4byte	0x581
 2599 050a 13       		.uleb128 0x13
 2600 050b 657000   		.ascii	"ep\000"
 2601 050e 01       		.byte	0x1
 2602 050f 2703     		.2byte	0x327
 2603 0511 6B000000 		.4byte	0x6b
 2604 0515 46010000 		.4byte	.LLST7
 2605 0519 19       		.uleb128 0x19
 2606 051a 64050000 		.4byte	.LASF70
 2607 051e 01       		.byte	0x1
 2608 051f 2803     		.2byte	0x328
 2609 0521 6B000000 		.4byte	0x6b
 2610 0525 59010000 		.4byte	.LLST8
 2611 0529 19       		.uleb128 0x19
 2612 052a 47030000 		.4byte	.LASF71
 2613 052e 01       		.byte	0x1
 2614 052f 2903     		.2byte	0x329
 2615 0531 6B000000 		.4byte	0x6b
 2616 0535 6C010000 		.4byte	.LLST9
 2617 0539 13       		.uleb128 0x13
 2618 053a 6900     		.ascii	"i\000"
 2619 053c 01       		.byte	0x1
 2620 053d 2A03     		.2byte	0x32a
 2621 053f 6B000000 		.4byte	0x6b
 2622 0543 8A010000 		.4byte	.LLST10
 2623 0547 19       		.uleb128 0x19
 2624 0548 AC060000 		.4byte	.LASF72
 2625 054c 01       		.byte	0x1
 2626 054d 2B03     		.2byte	0x32b
 2627 054f 6B000000 		.4byte	0x6b
 2628 0553 B4010000 		.4byte	.LLST11
 2629 0557 19       		.uleb128 0x19
 2630 0558 1A050000 		.4byte	.LASF68
 2631 055c 01       		.byte	0x1
 2632 055d 2D03     		.2byte	0x32d
 2633 055f E9040000 		.4byte	0x4e9
 2634 0563 C7010000 		.4byte	.LLST12
ARM GAS  C:\Users\Revanth\AppData\Local\Temp\cctCFyeS.s 			page 73


 2635 0567 13       		.uleb128 0x13
 2636 0568 70455000 		.ascii	"pEP\000"
 2637 056c 01       		.byte	0x1
 2638 056d 2E03     		.2byte	0x32e
 2639 056f 81050000 		.4byte	0x581
 2640 0573 DC010000 		.4byte	.LLST13
 2641 0577 1A       		.uleb128 0x1a
 2642 0578 18000000 		.4byte	.LVL26
 2643 057c AE040000 		.4byte	0x4ae
 2644 0580 00       		.byte	0
 2645 0581 09       		.uleb128 0x9
 2646 0582 04       		.byte	0x4
 2647 0583 87050000 		.4byte	0x587
 2648 0587 17       		.uleb128 0x17
 2649 0588 A0010000 		.4byte	0x1a0
 2650 058c 1B       		.uleb128 0x1b
 2651 058d 71040000 		.4byte	.LASF122
 2652 0591 01       		.byte	0x1
 2653 0592 F303     		.2byte	0x3f3
 2654 0594 E9040000 		.4byte	0x4e9
 2655 0598 00000000 		.4byte	.LFB7
 2656 059c 18000000 		.4byte	.LFE7-.LFB7
 2657 05a0 01       		.uleb128 0x1
 2658 05a1 9C       		.byte	0x9c
 2659 05a2 18       		.uleb128 0x18
 2660 05a3 DC060000 		.4byte	.LASF74
 2661 05a7 01       		.byte	0x1
 2662 05a8 0604     		.2byte	0x406
 2663 05aa F6050000 		.4byte	0x5f6
 2664 05ae 00000000 		.4byte	.LFB8
 2665 05b2 28000000 		.4byte	.LFE8-.LFB8
 2666 05b6 01       		.uleb128 0x1
 2667 05b7 9C       		.byte	0x9c
 2668 05b8 F6050000 		.4byte	0x5f6
 2669 05bc 19       		.uleb128 0x19
 2670 05bd 1A050000 		.4byte	.LASF68
 2671 05c1 01       		.byte	0x1
 2672 05c2 0904     		.2byte	0x409
 2673 05c4 E9040000 		.4byte	0x4e9
 2674 05c8 EF010000 		.4byte	.LLST14
 2675 05cc 19       		.uleb128 0x19
 2676 05cd 39040000 		.4byte	.LASF75
 2677 05d1 01       		.byte	0x1
 2678 05d2 0A04     		.2byte	0x40a
 2679 05d4 F6050000 		.4byte	0x5f6
 2680 05d8 18020000 		.4byte	.LLST15
 2681 05dc 19       		.uleb128 0x19
 2682 05dd 42020000 		.4byte	.LASF76
 2683 05e1 01       		.byte	0x1
 2684 05e2 0B04     		.2byte	0x40b
 2685 05e4 6B000000 		.4byte	0x6b
 2686 05e8 36020000 		.4byte	.LLST16
 2687 05ec 1A       		.uleb128 0x1a
 2688 05ed 0E000000 		.4byte	.LVL42
 2689 05f1 AE040000 		.4byte	0x4ae
 2690 05f5 00       		.byte	0
 2691 05f6 09       		.uleb128 0x9
ARM GAS  C:\Users\Revanth\AppData\Local\Temp\cctCFyeS.s 			page 74


 2692 05f7 04       		.byte	0x4
 2693 05f8 FC050000 		.4byte	0x5fc
 2694 05fc 17       		.uleb128 0x17
 2695 05fd 6B000000 		.4byte	0x6b
 2696 0601 10       		.uleb128 0x10
 2697 0602 A1060000 		.4byte	.LASF77
 2698 0606 01       		.byte	0x1
 2699 0607 3A02     		.2byte	0x23a
 2700 0609 00000000 		.4byte	.LFB4
 2701 060d EC010000 		.4byte	.LFE4-.LFB4
 2702 0611 01       		.uleb128 0x1
 2703 0612 9C       		.byte	0x9c
 2704 0613 FA060000 		.4byte	0x6fa
 2705 0617 11       		.uleb128 0x11
 2706 0618 C4050000 		.4byte	.LASF78
 2707 061c 01       		.byte	0x1
 2708 061d 3A02     		.2byte	0x23a
 2709 061f 6B000000 		.4byte	0x6b
 2710 0623 56020000 		.4byte	.LLST17
 2711 0627 13       		.uleb128 0x13
 2712 0628 657000   		.ascii	"ep\000"
 2713 062b 01       		.byte	0x1
 2714 062c 3C02     		.2byte	0x23c
 2715 062e 6B000000 		.4byte	0x6b
 2716 0632 77020000 		.4byte	.LLST18
 2717 0636 19       		.uleb128 0x19
 2718 0637 64050000 		.4byte	.LASF70
 2719 063b 01       		.byte	0x1
 2720 063c 3D02     		.2byte	0x23d
 2721 063e 6B000000 		.4byte	0x6b
 2722 0642 D9020000 		.4byte	.LLST19
 2723 0646 13       		.uleb128 0x13
 2724 0647 6900     		.ascii	"i\000"
 2725 0649 01       		.byte	0x1
 2726 064a 3E02     		.2byte	0x23e
 2727 064c 6B000000 		.4byte	0x6b
 2728 0650 03030000 		.4byte	.LLST20
 2729 0654 19       		.uleb128 0x19
 2730 0655 47030000 		.4byte	.LASF71
 2731 0659 01       		.byte	0x1
 2732 065a 3F02     		.2byte	0x23f
 2733 065c 6B000000 		.4byte	0x6b
 2734 0660 70030000 		.4byte	.LLST21
 2735 0664 19       		.uleb128 0x19
 2736 0665 AF000000 		.4byte	.LASF79
 2737 0669 01       		.byte	0x1
 2738 066a 4002     		.2byte	0x240
 2739 066c F6050000 		.4byte	0x5f6
 2740 0670 B0030000 		.4byte	.LLST22
 2741 0674 19       		.uleb128 0x19
 2742 0675 93040000 		.4byte	.LASF80
 2743 0679 01       		.byte	0x1
 2744 067a 4302     		.2byte	0x243
 2745 067c 77000000 		.4byte	0x77
 2746 0680 CF030000 		.4byte	.LLST23
 2747 0684 19       		.uleb128 0x19
 2748 0685 1A050000 		.4byte	.LASF68
ARM GAS  C:\Users\Revanth\AppData\Local\Temp\cctCFyeS.s 			page 75


 2749 0689 01       		.byte	0x1
 2750 068a 4602     		.2byte	0x246
 2751 068c E9040000 		.4byte	0x4e9
 2752 0690 10040000 		.4byte	.LLST24
 2753 0694 13       		.uleb128 0x13
 2754 0695 70455000 		.ascii	"pEP\000"
 2755 0699 01       		.byte	0x1
 2756 069a 4702     		.2byte	0x247
 2757 069c 81050000 		.4byte	0x581
 2758 06a0 3D040000 		.4byte	.LLST25
 2759 06a4 1C       		.uleb128 0x1c
 2760 06a5 54000000 		.4byte	.LBB2
 2761 06a9 98010000 		.4byte	.LBE2-.LBB2
 2762 06ad 19       		.uleb128 0x19
 2763 06ae 27040000 		.4byte	.LASF81
 2764 06b2 01       		.byte	0x1
 2765 06b3 6302     		.2byte	0x263
 2766 06b5 6B000000 		.4byte	0x6b
 2767 06b9 73040000 		.4byte	.LLST26
 2768 06bd 1A       		.uleb128 0x1a
 2769 06be 60000000 		.4byte	.LVL62
 2770 06c2 AE040000 		.4byte	0x4ae
 2771 06c6 1D       		.uleb128 0x1d
 2772 06c7 5E010000 		.4byte	.LVL77
 2773 06cb 070B0000 		.4byte	0xb07
 2774 06cf E6060000 		.4byte	0x6e6
 2775 06d3 16       		.uleb128 0x16
 2776 06d4 01       		.uleb128 0x1
 2777 06d5 50       		.byte	0x50
 2778 06d6 02       		.uleb128 0x2
 2779 06d7 75       		.byte	0x75
 2780 06d8 00       		.sleb128 0
 2781 06d9 16       		.uleb128 0x16
 2782 06da 01       		.uleb128 0x1
 2783 06db 51       		.byte	0x51
 2784 06dc 02       		.uleb128 0x2
 2785 06dd 76       		.byte	0x76
 2786 06de 00       		.sleb128 0
 2787 06df 16       		.uleb128 0x16
 2788 06e0 01       		.uleb128 0x1
 2789 06e1 52       		.byte	0x52
 2790 06e2 02       		.uleb128 0x2
 2791 06e3 7A       		.byte	0x7a
 2792 06e4 00       		.sleb128 0
 2793 06e5 00       		.byte	0
 2794 06e6 1A       		.uleb128 0x1a
 2795 06e7 9C010000 		.4byte	.LVL90
 2796 06eb A2050000 		.4byte	0x5a2
 2797 06ef 1A       		.uleb128 0x1a
 2798 06f0 CE010000 		.4byte	.LVL99
 2799 06f4 63040000 		.4byte	0x463
 2800 06f8 00       		.byte	0
 2801 06f9 00       		.byte	0
 2802 06fa 10       		.uleb128 0x10
 2803 06fb 5D000000 		.4byte	.LASF82
 2804 06ff 01       		.byte	0x1
 2805 0700 3004     		.2byte	0x430
ARM GAS  C:\Users\Revanth\AppData\Local\Temp\cctCFyeS.s 			page 76


 2806 0702 00000000 		.4byte	.LFB9
 2807 0706 4C000000 		.4byte	.LFE9-.LFB9
 2808 070a 01       		.uleb128 0x1
 2809 070b 9C       		.byte	0x9c
 2810 070c 21070000 		.4byte	0x721
 2811 0710 11       		.uleb128 0x11
 2812 0711 A9030000 		.4byte	.LASF83
 2813 0715 01       		.byte	0x1
 2814 0716 3004     		.2byte	0x430
 2815 0718 6B000000 		.4byte	0x6b
 2816 071c 92040000 		.4byte	.LLST27
 2817 0720 00       		.byte	0
 2818 0721 18       		.uleb128 0x18
 2819 0722 13040000 		.4byte	.LASF84
 2820 0726 01       		.byte	0x1
 2821 0727 5904     		.2byte	0x459
 2822 0729 6B000000 		.4byte	0x6b
 2823 072d 00000000 		.4byte	.LFB10
 2824 0731 64000000 		.4byte	.LFE10-.LFB10
 2825 0735 01       		.uleb128 0x1
 2826 0736 9C       		.byte	0x9c
 2827 0737 64070000 		.4byte	0x764
 2828 073b 19       		.uleb128 0x19
 2829 073c 67030000 		.4byte	.LASF85
 2830 0740 01       		.byte	0x1
 2831 0741 5B04     		.2byte	0x45b
 2832 0743 6B000000 		.4byte	0x6b
 2833 0747 BB040000 		.4byte	.LLST28
 2834 074b 13       		.uleb128 0x13
 2835 074c 657000   		.ascii	"ep\000"
 2836 074f 01       		.byte	0x1
 2837 0750 5C04     		.2byte	0x45c
 2838 0752 6B000000 		.4byte	0x6b
 2839 0756 F1040000 		.4byte	.LLST29
 2840 075a 1A       		.uleb128 0x1a
 2841 075b 52000000 		.4byte	.LVL110
 2842 075f 130B0000 		.4byte	0xb13
 2843 0763 00       		.byte	0
 2844 0764 18       		.uleb128 0x18
 2845 0765 9D040000 		.4byte	.LASF86
 2846 0769 01       		.byte	0x1
 2847 076a 8A04     		.2byte	0x48a
 2848 076c 6B000000 		.4byte	0x6b
 2849 0770 00000000 		.4byte	.LFB11
 2850 0774 AC000000 		.4byte	.LFE11-.LFB11
 2851 0778 01       		.uleb128 0x1
 2852 0779 9C       		.byte	0x9c
 2853 077a A7070000 		.4byte	0x7a7
 2854 077e 19       		.uleb128 0x19
 2855 077f 67030000 		.4byte	.LASF85
 2856 0783 01       		.byte	0x1
 2857 0784 8C04     		.2byte	0x48c
 2858 0786 6B000000 		.4byte	0x6b
 2859 078a 1A050000 		.4byte	.LLST30
 2860 078e 13       		.uleb128 0x13
 2861 078f 657000   		.ascii	"ep\000"
 2862 0792 01       		.byte	0x1
ARM GAS  C:\Users\Revanth\AppData\Local\Temp\cctCFyeS.s 			page 77


 2863 0793 8D04     		.2byte	0x48d
 2864 0795 6B000000 		.4byte	0x6b
 2865 0799 45050000 		.4byte	.LLST31
 2866 079d 1A       		.uleb128 0x1a
 2867 079e 98000000 		.4byte	.LVL123
 2868 07a2 130B0000 		.4byte	0xb13
 2869 07a6 00       		.byte	0
 2870 07a7 18       		.uleb128 0x18
 2871 07a8 65010000 		.4byte	.LASF87
 2872 07ac 01       		.byte	0x1
 2873 07ad CF04     		.2byte	0x4cf
 2874 07af 6B000000 		.4byte	0x6b
 2875 07b3 00000000 		.4byte	.LFB12
 2876 07b7 4C000000 		.4byte	.LFE12-.LFB12
 2877 07bb 01       		.uleb128 0x1
 2878 07bc 9C       		.byte	0x9c
 2879 07bd 0B080000 		.4byte	0x80b
 2880 07c1 19       		.uleb128 0x19
 2881 07c2 67030000 		.4byte	.LASF85
 2882 07c6 01       		.byte	0x1
 2883 07c7 D104     		.2byte	0x4d1
 2884 07c9 6B000000 		.4byte	0x6b
 2885 07cd 84050000 		.4byte	.LLST32
 2886 07d1 19       		.uleb128 0x19
 2887 07d2 AC060000 		.4byte	.LASF72
 2888 07d6 01       		.byte	0x1
 2889 07d7 D304     		.2byte	0x4d3
 2890 07d9 6B000000 		.4byte	0x6b
 2891 07dd BB050000 		.4byte	.LLST33
 2892 07e1 19       		.uleb128 0x19
 2893 07e2 B9060000 		.4byte	.LASF88
 2894 07e6 01       		.byte	0x1
 2895 07e7 D404     		.2byte	0x4d4
 2896 07e9 6B000000 		.4byte	0x6b
 2897 07ed CE050000 		.4byte	.LLST34
 2898 07f1 19       		.uleb128 0x19
 2899 07f2 1A050000 		.4byte	.LASF68
 2900 07f6 01       		.byte	0x1
 2901 07f7 D504     		.2byte	0x4d5
 2902 07f9 E9040000 		.4byte	0x4e9
 2903 07fd FB050000 		.4byte	.LLST35
 2904 0801 1A       		.uleb128 0x1a
 2905 0802 14000000 		.4byte	.LVL127
 2906 0806 AE040000 		.4byte	0x4ae
 2907 080a 00       		.byte	0
 2908 080b 1E       		.uleb128 0x1e
 2909 080c C2000000 		.4byte	.LASF89
 2910 0810 01       		.byte	0x1
 2911 0811 54       		.byte	0x54
 2912 0812 6B000000 		.4byte	0x6b
 2913 0816 00000000 		.4byte	.LFB0
 2914 081a 5C030000 		.4byte	.LFE0-.LFB0
 2915 081e 01       		.uleb128 0x1
 2916 081f 9C       		.byte	0x9c
 2917 0820 A6090000 		.4byte	0x9a6
 2918 0824 1F       		.uleb128 0x1f
 2919 0825 67030000 		.4byte	.LASF85
ARM GAS  C:\Users\Revanth\AppData\Local\Temp\cctCFyeS.s 			page 78


 2920 0829 01       		.byte	0x1
 2921 082a 56       		.byte	0x56
 2922 082b 6B000000 		.4byte	0x6b
 2923 082f 19060000 		.4byte	.LLST36
 2924 0833 1F       		.uleb128 0x1f
 2925 0834 7A000000 		.4byte	.LASF90
 2926 0838 01       		.byte	0x1
 2927 0839 57       		.byte	0x57
 2928 083a 6B000000 		.4byte	0x6b
 2929 083e BF070000 		.4byte	.LLST37
 2930 0842 1F       		.uleb128 0x1f
 2931 0843 3E000000 		.4byte	.LASF91
 2932 0847 01       		.byte	0x1
 2933 0848 58       		.byte	0x58
 2934 0849 6B000000 		.4byte	0x6b
 2935 084d D2070000 		.4byte	.LLST38
 2936 0851 1F       		.uleb128 0x1f
 2937 0852 8A000000 		.4byte	.LASF92
 2938 0856 01       		.byte	0x1
 2939 0857 59       		.byte	0x59
 2940 0858 6B000000 		.4byte	0x6b
 2941 085c E5070000 		.4byte	.LLST39
 2942 0860 1F       		.uleb128 0x1f
 2943 0861 01010000 		.4byte	.LASF93
 2944 0865 01       		.byte	0x1
 2945 0866 5C       		.byte	0x5c
 2946 0867 04020000 		.4byte	0x204
 2947 086b 66080000 		.4byte	.LLST40
 2948 086f 1F       		.uleb128 0x1f
 2949 0870 6A050000 		.4byte	.LASF94
 2950 0874 01       		.byte	0x1
 2951 0875 5E       		.byte	0x5e
 2952 0876 6B000000 		.4byte	0x6b
 2953 087a CA080000 		.4byte	.LLST41
 2954 087e 1F       		.uleb128 0x1f
 2955 087f B8050000 		.4byte	.LASF95
 2956 0883 01       		.byte	0x1
 2957 0884 5F       		.byte	0x5f
 2958 0885 6B000000 		.4byte	0x6b
 2959 0889 F3080000 		.4byte	.LLST42
 2960 088d 20       		.uleb128 0x20
 2961 088e B6000000 		.4byte	.LASF96
 2962 0892 01       		.byte	0x1
 2963 0893 63       		.byte	0x63
 2964 0894 B6090000 		.4byte	0x9b6
 2965 0898 05       		.uleb128 0x5
 2966 0899 03       		.byte	0x3
 2967 089a 00000000 		.4byte	USB_tBuffer.5262
 2968 089e 1F       		.uleb128 0x1f
 2969 089f 1A050000 		.4byte	.LASF68
 2970 08a3 01       		.byte	0x1
 2971 08a4 64       		.byte	0x64
 2972 08a5 E9040000 		.4byte	0x4e9
 2973 08a9 06090000 		.4byte	.LLST43
 2974 08ad 1A       		.uleb128 0x1a
 2975 08ae 4A000000 		.4byte	.LVL138
 2976 08b2 8C050000 		.4byte	0x58c
ARM GAS  C:\Users\Revanth\AppData\Local\Temp\cctCFyeS.s 			page 79


 2977 08b6 1A       		.uleb128 0x1a
 2978 08b7 58000000 		.4byte	.LVL139
 2979 08bb 1E0B0000 		.4byte	0xb1e
 2980 08bf 1A       		.uleb128 0x1a
 2981 08c0 6C000000 		.4byte	.LVL141
 2982 08c4 AE040000 		.4byte	0x4ae
 2983 08c8 1A       		.uleb128 0x1a
 2984 08c9 8A000000 		.4byte	.LVL142
 2985 08cd 1E0B0000 		.4byte	0xb1e
 2986 08d1 1D       		.uleb128 0x1d
 2987 08d2 E4000000 		.4byte	.LVL153
 2988 08d6 D2030000 		.4byte	0x3d2
 2989 08da E5080000 		.4byte	0x8e5
 2990 08de 16       		.uleb128 0x16
 2991 08df 01       		.uleb128 0x1
 2992 08e0 50       		.byte	0x50
 2993 08e1 02       		.uleb128 0x2
 2994 08e2 74       		.byte	0x74
 2995 08e3 00       		.sleb128 0
 2996 08e4 00       		.byte	0
 2997 08e5 1A       		.uleb128 0x1a
 2998 08e6 FC000000 		.4byte	.LVL155
 2999 08ea 1E0B0000 		.4byte	0xb1e
 3000 08ee 1A       		.uleb128 0x1a
 3001 08ef 02010000 		.4byte	.LVL157
 3002 08f3 290B0000 		.4byte	0xb29
 3003 08f7 1A       		.uleb128 0x1a
 3004 08f8 38010000 		.4byte	.LVL160
 3005 08fc 1E0B0000 		.4byte	0xb1e
 3006 0900 1A       		.uleb128 0x1a
 3007 0901 54010000 		.4byte	.LVL162
 3008 0905 1E0B0000 		.4byte	0xb1e
 3009 0909 1A       		.uleb128 0x1a
 3010 090a 64010000 		.4byte	.LVL165
 3011 090e 1E0B0000 		.4byte	0xb1e
 3012 0912 1A       		.uleb128 0x1a
 3013 0913 7A010000 		.4byte	.LVL168
 3014 0917 1E0B0000 		.4byte	0xb1e
 3015 091b 1A       		.uleb128 0x1a
 3016 091c B0010000 		.4byte	.LVL171
 3017 0920 130B0000 		.4byte	0xb13
 3018 0924 1D       		.uleb128 0x1d
 3019 0925 C4010000 		.4byte	.LVL175
 3020 0929 AE040000 		.4byte	0x4ae
 3021 092d 38090000 		.4byte	0x938
 3022 0931 16       		.uleb128 0x16
 3023 0932 01       		.uleb128 0x1
 3024 0933 50       		.byte	0x50
 3025 0934 02       		.uleb128 0x2
 3026 0935 74       		.byte	0x74
 3027 0936 7F       		.sleb128 -1
 3028 0937 00       		.byte	0
 3029 0938 1D       		.uleb128 0x1d
 3030 0939 E6010000 		.4byte	.LVL177
 3031 093d 01060000 		.4byte	0x601
 3032 0941 4B090000 		.4byte	0x94b
 3033 0945 16       		.uleb128 0x16
ARM GAS  C:\Users\Revanth\AppData\Local\Temp\cctCFyeS.s 			page 80


 3034 0946 01       		.uleb128 0x1
 3035 0947 50       		.byte	0x50
 3036 0948 01       		.uleb128 0x1
 3037 0949 31       		.byte	0x31
 3038 094a 00       		.byte	0
 3039 094b 1A       		.uleb128 0x1a
 3040 094c EA010000 		.4byte	.LVL178
 3041 0950 130B0000 		.4byte	0xb13
 3042 0954 1A       		.uleb128 0x1a
 3043 0955 F0010000 		.4byte	.LVL180
 3044 0959 A7070000 		.4byte	0x7a7
 3045 095d 1A       		.uleb128 0x1a
 3046 095e 1E020000 		.4byte	.LVL183
 3047 0962 F4040000 		.4byte	0x4f4
 3048 0966 1A       		.uleb128 0x1a
 3049 0967 22020000 		.4byte	.LVL184
 3050 096b 130B0000 		.4byte	0xb13
 3051 096f 1A       		.uleb128 0x1a
 3052 0970 40020000 		.4byte	.LVL187
 3053 0974 64070000 		.4byte	0x764
 3054 0978 1A       		.uleb128 0x1a
 3055 0979 5A020000 		.4byte	.LVL189
 3056 097d 130B0000 		.4byte	0xb13
 3057 0981 1A       		.uleb128 0x1a
 3058 0982 B8020000 		.4byte	.LVL191
 3059 0986 130B0000 		.4byte	0xb13
 3060 098a 1A       		.uleb128 0x1a
 3061 098b D6020000 		.4byte	.LVL194
 3062 098f 21070000 		.4byte	0x721
 3063 0993 1A       		.uleb128 0x1a
 3064 0994 F0020000 		.4byte	.LVL196
 3065 0998 130B0000 		.4byte	0xb13
 3066 099c 1A       		.uleb128 0x1a
 3067 099d 12030000 		.4byte	.LVL198
 3068 09a1 130B0000 		.4byte	0xb13
 3069 09a5 00       		.byte	0
 3070 09a6 0C       		.uleb128 0xc
 3071 09a7 BC000000 		.4byte	0xbc
 3072 09ab B6090000 		.4byte	0x9b6
 3073 09af 0D       		.uleb128 0xd
 3074 09b0 C8000000 		.4byte	0xc8
 3075 09b4 01       		.byte	0x1
 3076 09b5 00       		.byte	0
 3077 09b6 05       		.uleb128 0x5
 3078 09b7 A6090000 		.4byte	0x9a6
 3079 09bb 21       		.uleb128 0x21
 3080 09bc 0B060000 		.4byte	.LASF97
 3081 09c0 03       		.byte	0x3
 3082 09c1 D602     		.2byte	0x2d6
 3083 09c3 BC000000 		.4byte	0xbc
 3084 09c7 21       		.uleb128 0x21
 3085 09c8 30060000 		.4byte	.LASF98
 3086 09cc 03       		.byte	0x3
 3087 09cd D802     		.2byte	0x2d8
 3088 09cf BC000000 		.4byte	0xbc
 3089 09d3 21       		.uleb128 0x21
 3090 09d4 4E030000 		.4byte	.LASF99
ARM GAS  C:\Users\Revanth\AppData\Local\Temp\cctCFyeS.s 			page 81


 3091 09d8 03       		.byte	0x3
 3092 09d9 D902     		.2byte	0x2d9
 3093 09db BC000000 		.4byte	0xbc
 3094 09df 21       		.uleb128 0x21
 3095 09e0 84030000 		.4byte	.LASF100
 3096 09e4 03       		.byte	0x3
 3097 09e5 DA02     		.2byte	0x2da
 3098 09e7 BC000000 		.4byte	0xbc
 3099 09eb 0C       		.uleb128 0xc
 3100 09ec FC050000 		.4byte	0x5fc
 3101 09f0 FB090000 		.4byte	0x9fb
 3102 09f4 0D       		.uleb128 0xd
 3103 09f5 C8000000 		.4byte	0xc8
 3104 09f9 11       		.byte	0x11
 3105 09fa 00       		.byte	0
 3106 09fb 22       		.uleb128 0x22
 3107 09fc E3020000 		.4byte	.LASF101
 3108 0a00 04       		.byte	0x4
 3109 0a01 61       		.byte	0x61
 3110 0a02 060A0000 		.4byte	0xa06
 3111 0a06 17       		.uleb128 0x17
 3112 0a07 EB090000 		.4byte	0x9eb
 3113 0a0b 0C       		.uleb128 0xc
 3114 0a0c EF040000 		.4byte	0x4ef
 3115 0a10 1B0A0000 		.4byte	0xa1b
 3116 0a14 0D       		.uleb128 0xd
 3117 0a15 C8000000 		.4byte	0xc8
 3118 0a19 00       		.byte	0
 3119 0a1a 00       		.byte	0
 3120 0a1b 22       		.uleb128 0x22
 3121 0a1c AE020000 		.4byte	.LASF102
 3122 0a20 04       		.byte	0x4
 3123 0a21 67       		.byte	0x67
 3124 0a22 260A0000 		.4byte	0xa26
 3125 0a26 17       		.uleb128 0x17
 3126 0a27 0B0A0000 		.4byte	0xa0b
 3127 0a2b 0C       		.uleb128 0xc
 3128 0a2c FC050000 		.4byte	0x5fc
 3129 0a30 3B0A0000 		.4byte	0xa3b
 3130 0a34 0D       		.uleb128 0xd
 3131 0a35 C8000000 		.4byte	0xc8
 3132 0a39 E6       		.byte	0xe6
 3133 0a3a 00       		.byte	0
 3134 0a3b 22       		.uleb128 0x22
 3135 0a3c B3040000 		.4byte	.LASF103
 3136 0a40 04       		.byte	0x4
 3137 0a41 69       		.byte	0x69
 3138 0a42 460A0000 		.4byte	0xa46
 3139 0a46 17       		.uleb128 0x17
 3140 0a47 2B0A0000 		.4byte	0xa2b
 3141 0a4b 22       		.uleb128 0x22
 3142 0a4c 35050000 		.4byte	.LASF104
 3143 0a50 04       		.byte	0x4
 3144 0a51 6D       		.byte	0x6d
 3145 0a52 560A0000 		.4byte	0xa56
 3146 0a56 17       		.uleb128 0x17
 3147 0a57 EB090000 		.4byte	0x9eb
ARM GAS  C:\Users\Revanth\AppData\Local\Temp\cctCFyeS.s 			page 82


 3148 0a5b 0C       		.uleb128 0xc
 3149 0a5c 6B000000 		.4byte	0x6b
 3150 0a60 6B0A0000 		.4byte	0xa6b
 3151 0a64 0D       		.uleb128 0xd
 3152 0a65 C8000000 		.4byte	0xc8
 3153 0a69 21       		.byte	0x21
 3154 0a6a 00       		.byte	0
 3155 0a6b 22       		.uleb128 0x22
 3156 0a6c 70020000 		.4byte	.LASF105
 3157 0a70 04       		.byte	0x4
 3158 0a71 70       		.byte	0x70
 3159 0a72 5B0A0000 		.4byte	0xa5b
 3160 0a76 22       		.uleb128 0x22
 3161 0a77 EC050000 		.4byte	.LASF106
 3162 0a7b 04       		.byte	0x4
 3163 0a7c 73       		.byte	0x73
 3164 0a7d BC000000 		.4byte	0xbc
 3165 0a81 22       		.uleb128 0x22
 3166 0a82 1B060000 		.4byte	.LASF107
 3167 0a86 04       		.byte	0x4
 3168 0a87 74       		.byte	0x74
 3169 0a88 8C0A0000 		.4byte	0xa8c
 3170 0a8c 05       		.uleb128 0x5
 3171 0a8d A6090000 		.4byte	0x9a6
 3172 0a91 22       		.uleb128 0x22
 3173 0a92 05000000 		.4byte	.LASF108
 3174 0a96 04       		.byte	0x4
 3175 0a97 75       		.byte	0x75
 3176 0a98 9C0A0000 		.4byte	0xa9c
 3177 0a9c 05       		.uleb128 0x5
 3178 0a9d A6090000 		.4byte	0x9a6
 3179 0aa1 22       		.uleb128 0x22
 3180 0aa2 42060000 		.4byte	.LASF109
 3181 0aa6 04       		.byte	0x4
 3182 0aa7 76       		.byte	0x76
 3183 0aa8 BC000000 		.4byte	0xbc
 3184 0aac 22       		.uleb128 0x22
 3185 0aad 15030000 		.4byte	.LASF110
 3186 0ab1 04       		.byte	0x4
 3187 0ab2 77       		.byte	0x77
 3188 0ab3 B70A0000 		.4byte	0xab7
 3189 0ab7 05       		.uleb128 0x5
 3190 0ab8 A6090000 		.4byte	0x9a6
 3191 0abc 22       		.uleb128 0x22
 3192 0abd 58040000 		.4byte	.LASF111
 3193 0ac1 04       		.byte	0x4
 3194 0ac2 78       		.byte	0x78
 3195 0ac3 F6050000 		.4byte	0x5f6
 3196 0ac7 0C       		.uleb128 0xc
 3197 0ac8 D70A0000 		.4byte	0xad7
 3198 0acc D70A0000 		.4byte	0xad7
 3199 0ad0 0D       		.uleb128 0xd
 3200 0ad1 C8000000 		.4byte	0xc8
 3201 0ad5 08       		.byte	0x8
 3202 0ad6 00       		.byte	0
 3203 0ad7 05       		.uleb128 0x5
 3204 0ad8 44010000 		.4byte	0x144
ARM GAS  C:\Users\Revanth\AppData\Local\Temp\cctCFyeS.s 			page 83


 3205 0adc 22       		.uleb128 0x22
 3206 0add 93020000 		.4byte	.LASF112
 3207 0ae1 04       		.byte	0x4
 3208 0ae2 7A       		.byte	0x7a
 3209 0ae3 E70A0000 		.4byte	0xae7
 3210 0ae7 05       		.uleb128 0x5
 3211 0ae8 C70A0000 		.4byte	0xac7
 3212 0aec 22       		.uleb128 0x22
 3213 0aed F5020000 		.4byte	.LASF113
 3214 0af1 04       		.byte	0x4
 3215 0af2 7B       		.byte	0x7b
 3216 0af3 F70A0000 		.4byte	0xaf7
 3217 0af7 05       		.uleb128 0x5
 3218 0af8 10020000 		.4byte	0x210
 3219 0afc 23       		.uleb128 0x23
 3220 0afd AA050000 		.4byte	.LASF114
 3221 0b01 AA050000 		.4byte	.LASF114
 3222 0b05 05       		.byte	0x5
 3223 0b06 BE       		.byte	0xbe
 3224 0b07 24       		.uleb128 0x24
 3225 0b08 49040000 		.4byte	.LASF115
 3226 0b0c 49040000 		.4byte	.LASF115
 3227 0b10 04       		.byte	0x4
 3228 0b11 7D01     		.2byte	0x17d
 3229 0b13 23       		.uleb128 0x23
 3230 0b14 C5020000 		.4byte	.LASF116
 3231 0b18 C5020000 		.4byte	.LASF116
 3232 0b1c 04       		.byte	0x4
 3233 0b1d B4       		.byte	0xb4
 3234 0b1e 23       		.uleb128 0x23
 3235 0b1f 9A020000 		.4byte	.LASF117
 3236 0b23 9A020000 		.4byte	.LASF117
 3237 0b27 04       		.byte	0x4
 3238 0b28 AA       		.byte	0xaa
 3239 0b29 24       		.uleb128 0x24
 3240 0b2a 1F050000 		.4byte	.LASF118
 3241 0b2e 1F050000 		.4byte	.LASF118
 3242 0b32 04       		.byte	0x4
 3243 0b33 5001     		.2byte	0x150
 3244 0b35 00       		.byte	0
 3245              		.section	.debug_abbrev,"",%progbits
 3246              	.Ldebug_abbrev0:
 3247 0000 01       		.uleb128 0x1
 3248 0001 11       		.uleb128 0x11
 3249 0002 01       		.byte	0x1
 3250 0003 25       		.uleb128 0x25
 3251 0004 0E       		.uleb128 0xe
 3252 0005 13       		.uleb128 0x13
 3253 0006 0B       		.uleb128 0xb
 3254 0007 03       		.uleb128 0x3
 3255 0008 0E       		.uleb128 0xe
 3256 0009 1B       		.uleb128 0x1b
 3257 000a 0E       		.uleb128 0xe
 3258 000b 55       		.uleb128 0x55
 3259 000c 17       		.uleb128 0x17
 3260 000d 11       		.uleb128 0x11
 3261 000e 01       		.uleb128 0x1
ARM GAS  C:\Users\Revanth\AppData\Local\Temp\cctCFyeS.s 			page 84


 3262 000f 10       		.uleb128 0x10
 3263 0010 17       		.uleb128 0x17
 3264 0011 00       		.byte	0
 3265 0012 00       		.byte	0
 3266 0013 02       		.uleb128 0x2
 3267 0014 24       		.uleb128 0x24
 3268 0015 00       		.byte	0
 3269 0016 0B       		.uleb128 0xb
 3270 0017 0B       		.uleb128 0xb
 3271 0018 3E       		.uleb128 0x3e
 3272 0019 0B       		.uleb128 0xb
 3273 001a 03       		.uleb128 0x3
 3274 001b 0E       		.uleb128 0xe
 3275 001c 00       		.byte	0
 3276 001d 00       		.byte	0
 3277 001e 03       		.uleb128 0x3
 3278 001f 24       		.uleb128 0x24
 3279 0020 00       		.byte	0
 3280 0021 0B       		.uleb128 0xb
 3281 0022 0B       		.uleb128 0xb
 3282 0023 3E       		.uleb128 0x3e
 3283 0024 0B       		.uleb128 0xb
 3284 0025 03       		.uleb128 0x3
 3285 0026 08       		.uleb128 0x8
 3286 0027 00       		.byte	0
 3287 0028 00       		.byte	0
 3288 0029 04       		.uleb128 0x4
 3289 002a 16       		.uleb128 0x16
 3290 002b 00       		.byte	0
 3291 002c 03       		.uleb128 0x3
 3292 002d 0E       		.uleb128 0xe
 3293 002e 3A       		.uleb128 0x3a
 3294 002f 0B       		.uleb128 0xb
 3295 0030 3B       		.uleb128 0x3b
 3296 0031 05       		.uleb128 0x5
 3297 0032 49       		.uleb128 0x49
 3298 0033 13       		.uleb128 0x13
 3299 0034 00       		.byte	0
 3300 0035 00       		.byte	0
 3301 0036 05       		.uleb128 0x5
 3302 0037 35       		.uleb128 0x35
 3303 0038 00       		.byte	0
 3304 0039 49       		.uleb128 0x49
 3305 003a 13       		.uleb128 0x13
 3306 003b 00       		.byte	0
 3307 003c 00       		.byte	0
 3308 003d 06       		.uleb128 0x6
 3309 003e 13       		.uleb128 0x13
 3310 003f 01       		.byte	0x1
 3311 0040 0B       		.uleb128 0xb
 3312 0041 0B       		.uleb128 0xb
 3313 0042 3A       		.uleb128 0x3a
 3314 0043 0B       		.uleb128 0xb
 3315 0044 3B       		.uleb128 0x3b
 3316 0045 0B       		.uleb128 0xb
 3317 0046 01       		.uleb128 0x1
 3318 0047 13       		.uleb128 0x13
ARM GAS  C:\Users\Revanth\AppData\Local\Temp\cctCFyeS.s 			page 85


 3319 0048 00       		.byte	0
 3320 0049 00       		.byte	0
 3321 004a 07       		.uleb128 0x7
 3322 004b 0D       		.uleb128 0xd
 3323 004c 00       		.byte	0
 3324 004d 03       		.uleb128 0x3
 3325 004e 0E       		.uleb128 0xe
 3326 004f 3A       		.uleb128 0x3a
 3327 0050 0B       		.uleb128 0xb
 3328 0051 3B       		.uleb128 0x3b
 3329 0052 0B       		.uleb128 0xb
 3330 0053 49       		.uleb128 0x49
 3331 0054 13       		.uleb128 0x13
 3332 0055 38       		.uleb128 0x38
 3333 0056 0B       		.uleb128 0xb
 3334 0057 00       		.byte	0
 3335 0058 00       		.byte	0
 3336 0059 08       		.uleb128 0x8
 3337 005a 16       		.uleb128 0x16
 3338 005b 00       		.byte	0
 3339 005c 03       		.uleb128 0x3
 3340 005d 0E       		.uleb128 0xe
 3341 005e 3A       		.uleb128 0x3a
 3342 005f 0B       		.uleb128 0xb
 3343 0060 3B       		.uleb128 0x3b
 3344 0061 0B       		.uleb128 0xb
 3345 0062 49       		.uleb128 0x49
 3346 0063 13       		.uleb128 0x13
 3347 0064 00       		.byte	0
 3348 0065 00       		.byte	0
 3349 0066 09       		.uleb128 0x9
 3350 0067 0F       		.uleb128 0xf
 3351 0068 00       		.byte	0
 3352 0069 0B       		.uleb128 0xb
 3353 006a 0B       		.uleb128 0xb
 3354 006b 49       		.uleb128 0x49
 3355 006c 13       		.uleb128 0x13
 3356 006d 00       		.byte	0
 3357 006e 00       		.byte	0
 3358 006f 0A       		.uleb128 0xa
 3359 0070 0D       		.uleb128 0xd
 3360 0071 00       		.byte	0
 3361 0072 03       		.uleb128 0x3
 3362 0073 08       		.uleb128 0x8
 3363 0074 3A       		.uleb128 0x3a
 3364 0075 0B       		.uleb128 0xb
 3365 0076 3B       		.uleb128 0x3b
 3366 0077 0B       		.uleb128 0xb
 3367 0078 49       		.uleb128 0x49
 3368 0079 13       		.uleb128 0x13
 3369 007a 38       		.uleb128 0x38
 3370 007b 0B       		.uleb128 0xb
 3371 007c 00       		.byte	0
 3372 007d 00       		.byte	0
 3373 007e 0B       		.uleb128 0xb
 3374 007f 26       		.uleb128 0x26
 3375 0080 00       		.byte	0
ARM GAS  C:\Users\Revanth\AppData\Local\Temp\cctCFyeS.s 			page 86


 3376 0081 00       		.byte	0
 3377 0082 00       		.byte	0
 3378 0083 0C       		.uleb128 0xc
 3379 0084 01       		.uleb128 0x1
 3380 0085 01       		.byte	0x1
 3381 0086 49       		.uleb128 0x49
 3382 0087 13       		.uleb128 0x13
 3383 0088 01       		.uleb128 0x1
 3384 0089 13       		.uleb128 0x13
 3385 008a 00       		.byte	0
 3386 008b 00       		.byte	0
 3387 008c 0D       		.uleb128 0xd
 3388 008d 21       		.uleb128 0x21
 3389 008e 00       		.byte	0
 3390 008f 49       		.uleb128 0x49
 3391 0090 13       		.uleb128 0x13
 3392 0091 2F       		.uleb128 0x2f
 3393 0092 0B       		.uleb128 0xb
 3394 0093 00       		.byte	0
 3395 0094 00       		.byte	0
 3396 0095 0E       		.uleb128 0xe
 3397 0096 13       		.uleb128 0x13
 3398 0097 01       		.byte	0x1
 3399 0098 0B       		.uleb128 0xb
 3400 0099 0B       		.uleb128 0xb
 3401 009a 3A       		.uleb128 0x3a
 3402 009b 0B       		.uleb128 0xb
 3403 009c 3B       		.uleb128 0x3b
 3404 009d 05       		.uleb128 0x5
 3405 009e 01       		.uleb128 0x1
 3406 009f 13       		.uleb128 0x13
 3407 00a0 00       		.byte	0
 3408 00a1 00       		.byte	0
 3409 00a2 0F       		.uleb128 0xf
 3410 00a3 0D       		.uleb128 0xd
 3411 00a4 00       		.byte	0
 3412 00a5 03       		.uleb128 0x3
 3413 00a6 0E       		.uleb128 0xe
 3414 00a7 3A       		.uleb128 0x3a
 3415 00a8 0B       		.uleb128 0xb
 3416 00a9 3B       		.uleb128 0x3b
 3417 00aa 05       		.uleb128 0x5
 3418 00ab 49       		.uleb128 0x49
 3419 00ac 13       		.uleb128 0x13
 3420 00ad 38       		.uleb128 0x38
 3421 00ae 0B       		.uleb128 0xb
 3422 00af 00       		.byte	0
 3423 00b0 00       		.byte	0
 3424 00b1 10       		.uleb128 0x10
 3425 00b2 2E       		.uleb128 0x2e
 3426 00b3 01       		.byte	0x1
 3427 00b4 3F       		.uleb128 0x3f
 3428 00b5 19       		.uleb128 0x19
 3429 00b6 03       		.uleb128 0x3
 3430 00b7 0E       		.uleb128 0xe
 3431 00b8 3A       		.uleb128 0x3a
 3432 00b9 0B       		.uleb128 0xb
ARM GAS  C:\Users\Revanth\AppData\Local\Temp\cctCFyeS.s 			page 87


 3433 00ba 3B       		.uleb128 0x3b
 3434 00bb 05       		.uleb128 0x5
 3435 00bc 27       		.uleb128 0x27
 3436 00bd 19       		.uleb128 0x19
 3437 00be 11       		.uleb128 0x11
 3438 00bf 01       		.uleb128 0x1
 3439 00c0 12       		.uleb128 0x12
 3440 00c1 06       		.uleb128 0x6
 3441 00c2 40       		.uleb128 0x40
 3442 00c3 18       		.uleb128 0x18
 3443 00c4 9742     		.uleb128 0x2117
 3444 00c6 19       		.uleb128 0x19
 3445 00c7 01       		.uleb128 0x1
 3446 00c8 13       		.uleb128 0x13
 3447 00c9 00       		.byte	0
 3448 00ca 00       		.byte	0
 3449 00cb 11       		.uleb128 0x11
 3450 00cc 05       		.uleb128 0x5
 3451 00cd 00       		.byte	0
 3452 00ce 03       		.uleb128 0x3
 3453 00cf 0E       		.uleb128 0xe
 3454 00d0 3A       		.uleb128 0x3a
 3455 00d1 0B       		.uleb128 0xb
 3456 00d2 3B       		.uleb128 0x3b
 3457 00d3 05       		.uleb128 0x5
 3458 00d4 49       		.uleb128 0x49
 3459 00d5 13       		.uleb128 0x13
 3460 00d6 02       		.uleb128 0x2
 3461 00d7 17       		.uleb128 0x17
 3462 00d8 00       		.byte	0
 3463 00d9 00       		.byte	0
 3464 00da 12       		.uleb128 0x12
 3465 00db 34       		.uleb128 0x34
 3466 00dc 00       		.byte	0
 3467 00dd 03       		.uleb128 0x3
 3468 00de 08       		.uleb128 0x8
 3469 00df 3A       		.uleb128 0x3a
 3470 00e0 0B       		.uleb128 0xb
 3471 00e1 3B       		.uleb128 0x3b
 3472 00e2 05       		.uleb128 0x5
 3473 00e3 49       		.uleb128 0x49
 3474 00e4 13       		.uleb128 0x13
 3475 00e5 02       		.uleb128 0x2
 3476 00e6 18       		.uleb128 0x18
 3477 00e7 00       		.byte	0
 3478 00e8 00       		.byte	0
 3479 00e9 13       		.uleb128 0x13
 3480 00ea 34       		.uleb128 0x34
 3481 00eb 00       		.byte	0
 3482 00ec 03       		.uleb128 0x3
 3483 00ed 08       		.uleb128 0x8
 3484 00ee 3A       		.uleb128 0x3a
 3485 00ef 0B       		.uleb128 0xb
 3486 00f0 3B       		.uleb128 0x3b
 3487 00f1 05       		.uleb128 0x5
 3488 00f2 49       		.uleb128 0x49
 3489 00f3 13       		.uleb128 0x13
ARM GAS  C:\Users\Revanth\AppData\Local\Temp\cctCFyeS.s 			page 88


 3490 00f4 02       		.uleb128 0x2
 3491 00f5 17       		.uleb128 0x17
 3492 00f6 00       		.byte	0
 3493 00f7 00       		.byte	0
 3494 00f8 14       		.uleb128 0x14
 3495 00f9 34       		.uleb128 0x34
 3496 00fa 00       		.byte	0
 3497 00fb 03       		.uleb128 0x3
 3498 00fc 0E       		.uleb128 0xe
 3499 00fd 3A       		.uleb128 0x3a
 3500 00fe 0B       		.uleb128 0xb
 3501 00ff 3B       		.uleb128 0x3b
 3502 0100 05       		.uleb128 0x5
 3503 0101 49       		.uleb128 0x49
 3504 0102 13       		.uleb128 0x13
 3505 0103 02       		.uleb128 0x2
 3506 0104 18       		.uleb128 0x18
 3507 0105 00       		.byte	0
 3508 0106 00       		.byte	0
 3509 0107 15       		.uleb128 0x15
 3510 0108 898201   		.uleb128 0x4109
 3511 010b 01       		.byte	0x1
 3512 010c 11       		.uleb128 0x11
 3513 010d 01       		.uleb128 0x1
 3514 010e 31       		.uleb128 0x31
 3515 010f 13       		.uleb128 0x13
 3516 0110 00       		.byte	0
 3517 0111 00       		.byte	0
 3518 0112 16       		.uleb128 0x16
 3519 0113 8A8201   		.uleb128 0x410a
 3520 0116 00       		.byte	0
 3521 0117 02       		.uleb128 0x2
 3522 0118 18       		.uleb128 0x18
 3523 0119 9142     		.uleb128 0x2111
 3524 011b 18       		.uleb128 0x18
 3525 011c 00       		.byte	0
 3526 011d 00       		.byte	0
 3527 011e 17       		.uleb128 0x17
 3528 011f 26       		.uleb128 0x26
 3529 0120 00       		.byte	0
 3530 0121 49       		.uleb128 0x49
 3531 0122 13       		.uleb128 0x13
 3532 0123 00       		.byte	0
 3533 0124 00       		.byte	0
 3534 0125 18       		.uleb128 0x18
 3535 0126 2E       		.uleb128 0x2e
 3536 0127 01       		.byte	0x1
 3537 0128 3F       		.uleb128 0x3f
 3538 0129 19       		.uleb128 0x19
 3539 012a 03       		.uleb128 0x3
 3540 012b 0E       		.uleb128 0xe
 3541 012c 3A       		.uleb128 0x3a
 3542 012d 0B       		.uleb128 0xb
 3543 012e 3B       		.uleb128 0x3b
 3544 012f 05       		.uleb128 0x5
 3545 0130 27       		.uleb128 0x27
 3546 0131 19       		.uleb128 0x19
ARM GAS  C:\Users\Revanth\AppData\Local\Temp\cctCFyeS.s 			page 89


 3547 0132 49       		.uleb128 0x49
 3548 0133 13       		.uleb128 0x13
 3549 0134 11       		.uleb128 0x11
 3550 0135 01       		.uleb128 0x1
 3551 0136 12       		.uleb128 0x12
 3552 0137 06       		.uleb128 0x6
 3553 0138 40       		.uleb128 0x40
 3554 0139 18       		.uleb128 0x18
 3555 013a 9742     		.uleb128 0x2117
 3556 013c 19       		.uleb128 0x19
 3557 013d 01       		.uleb128 0x1
 3558 013e 13       		.uleb128 0x13
 3559 013f 00       		.byte	0
 3560 0140 00       		.byte	0
 3561 0141 19       		.uleb128 0x19
 3562 0142 34       		.uleb128 0x34
 3563 0143 00       		.byte	0
 3564 0144 03       		.uleb128 0x3
 3565 0145 0E       		.uleb128 0xe
 3566 0146 3A       		.uleb128 0x3a
 3567 0147 0B       		.uleb128 0xb
 3568 0148 3B       		.uleb128 0x3b
 3569 0149 05       		.uleb128 0x5
 3570 014a 49       		.uleb128 0x49
 3571 014b 13       		.uleb128 0x13
 3572 014c 02       		.uleb128 0x2
 3573 014d 17       		.uleb128 0x17
 3574 014e 00       		.byte	0
 3575 014f 00       		.byte	0
 3576 0150 1A       		.uleb128 0x1a
 3577 0151 898201   		.uleb128 0x4109
 3578 0154 00       		.byte	0
 3579 0155 11       		.uleb128 0x11
 3580 0156 01       		.uleb128 0x1
 3581 0157 31       		.uleb128 0x31
 3582 0158 13       		.uleb128 0x13
 3583 0159 00       		.byte	0
 3584 015a 00       		.byte	0
 3585 015b 1B       		.uleb128 0x1b
 3586 015c 2E       		.uleb128 0x2e
 3587 015d 00       		.byte	0
 3588 015e 3F       		.uleb128 0x3f
 3589 015f 19       		.uleb128 0x19
 3590 0160 03       		.uleb128 0x3
 3591 0161 0E       		.uleb128 0xe
 3592 0162 3A       		.uleb128 0x3a
 3593 0163 0B       		.uleb128 0xb
 3594 0164 3B       		.uleb128 0x3b
 3595 0165 05       		.uleb128 0x5
 3596 0166 27       		.uleb128 0x27
 3597 0167 19       		.uleb128 0x19
 3598 0168 49       		.uleb128 0x49
 3599 0169 13       		.uleb128 0x13
 3600 016a 11       		.uleb128 0x11
 3601 016b 01       		.uleb128 0x1
 3602 016c 12       		.uleb128 0x12
 3603 016d 06       		.uleb128 0x6
ARM GAS  C:\Users\Revanth\AppData\Local\Temp\cctCFyeS.s 			page 90


 3604 016e 40       		.uleb128 0x40
 3605 016f 18       		.uleb128 0x18
 3606 0170 9742     		.uleb128 0x2117
 3607 0172 19       		.uleb128 0x19
 3608 0173 00       		.byte	0
 3609 0174 00       		.byte	0
 3610 0175 1C       		.uleb128 0x1c
 3611 0176 0B       		.uleb128 0xb
 3612 0177 01       		.byte	0x1
 3613 0178 11       		.uleb128 0x11
 3614 0179 01       		.uleb128 0x1
 3615 017a 12       		.uleb128 0x12
 3616 017b 06       		.uleb128 0x6
 3617 017c 00       		.byte	0
 3618 017d 00       		.byte	0
 3619 017e 1D       		.uleb128 0x1d
 3620 017f 898201   		.uleb128 0x4109
 3621 0182 01       		.byte	0x1
 3622 0183 11       		.uleb128 0x11
 3623 0184 01       		.uleb128 0x1
 3624 0185 31       		.uleb128 0x31
 3625 0186 13       		.uleb128 0x13
 3626 0187 01       		.uleb128 0x1
 3627 0188 13       		.uleb128 0x13
 3628 0189 00       		.byte	0
 3629 018a 00       		.byte	0
 3630 018b 1E       		.uleb128 0x1e
 3631 018c 2E       		.uleb128 0x2e
 3632 018d 01       		.byte	0x1
 3633 018e 3F       		.uleb128 0x3f
 3634 018f 19       		.uleb128 0x19
 3635 0190 03       		.uleb128 0x3
 3636 0191 0E       		.uleb128 0xe
 3637 0192 3A       		.uleb128 0x3a
 3638 0193 0B       		.uleb128 0xb
 3639 0194 3B       		.uleb128 0x3b
 3640 0195 0B       		.uleb128 0xb
 3641 0196 27       		.uleb128 0x27
 3642 0197 19       		.uleb128 0x19
 3643 0198 49       		.uleb128 0x49
 3644 0199 13       		.uleb128 0x13
 3645 019a 11       		.uleb128 0x11
 3646 019b 01       		.uleb128 0x1
 3647 019c 12       		.uleb128 0x12
 3648 019d 06       		.uleb128 0x6
 3649 019e 40       		.uleb128 0x40
 3650 019f 18       		.uleb128 0x18
 3651 01a0 9742     		.uleb128 0x2117
 3652 01a2 19       		.uleb128 0x19
 3653 01a3 01       		.uleb128 0x1
 3654 01a4 13       		.uleb128 0x13
 3655 01a5 00       		.byte	0
 3656 01a6 00       		.byte	0
 3657 01a7 1F       		.uleb128 0x1f
 3658 01a8 34       		.uleb128 0x34
 3659 01a9 00       		.byte	0
 3660 01aa 03       		.uleb128 0x3
ARM GAS  C:\Users\Revanth\AppData\Local\Temp\cctCFyeS.s 			page 91


 3661 01ab 0E       		.uleb128 0xe
 3662 01ac 3A       		.uleb128 0x3a
 3663 01ad 0B       		.uleb128 0xb
 3664 01ae 3B       		.uleb128 0x3b
 3665 01af 0B       		.uleb128 0xb
 3666 01b0 49       		.uleb128 0x49
 3667 01b1 13       		.uleb128 0x13
 3668 01b2 02       		.uleb128 0x2
 3669 01b3 17       		.uleb128 0x17
 3670 01b4 00       		.byte	0
 3671 01b5 00       		.byte	0
 3672 01b6 20       		.uleb128 0x20
 3673 01b7 34       		.uleb128 0x34
 3674 01b8 00       		.byte	0
 3675 01b9 03       		.uleb128 0x3
 3676 01ba 0E       		.uleb128 0xe
 3677 01bb 3A       		.uleb128 0x3a
 3678 01bc 0B       		.uleb128 0xb
 3679 01bd 3B       		.uleb128 0x3b
 3680 01be 0B       		.uleb128 0xb
 3681 01bf 49       		.uleb128 0x49
 3682 01c0 13       		.uleb128 0x13
 3683 01c1 02       		.uleb128 0x2
 3684 01c2 18       		.uleb128 0x18
 3685 01c3 00       		.byte	0
 3686 01c4 00       		.byte	0
 3687 01c5 21       		.uleb128 0x21
 3688 01c6 34       		.uleb128 0x34
 3689 01c7 00       		.byte	0
 3690 01c8 03       		.uleb128 0x3
 3691 01c9 0E       		.uleb128 0xe
 3692 01ca 3A       		.uleb128 0x3a
 3693 01cb 0B       		.uleb128 0xb
 3694 01cc 3B       		.uleb128 0x3b
 3695 01cd 05       		.uleb128 0x5
 3696 01ce 49       		.uleb128 0x49
 3697 01cf 13       		.uleb128 0x13
 3698 01d0 3F       		.uleb128 0x3f
 3699 01d1 19       		.uleb128 0x19
 3700 01d2 3C       		.uleb128 0x3c
 3701 01d3 19       		.uleb128 0x19
 3702 01d4 00       		.byte	0
 3703 01d5 00       		.byte	0
 3704 01d6 22       		.uleb128 0x22
 3705 01d7 34       		.uleb128 0x34
 3706 01d8 00       		.byte	0
 3707 01d9 03       		.uleb128 0x3
 3708 01da 0E       		.uleb128 0xe
 3709 01db 3A       		.uleb128 0x3a
 3710 01dc 0B       		.uleb128 0xb
 3711 01dd 3B       		.uleb128 0x3b
 3712 01de 0B       		.uleb128 0xb
 3713 01df 49       		.uleb128 0x49
 3714 01e0 13       		.uleb128 0x13
 3715 01e1 3F       		.uleb128 0x3f
 3716 01e2 19       		.uleb128 0x19
 3717 01e3 3C       		.uleb128 0x3c
ARM GAS  C:\Users\Revanth\AppData\Local\Temp\cctCFyeS.s 			page 92


 3718 01e4 19       		.uleb128 0x19
 3719 01e5 00       		.byte	0
 3720 01e6 00       		.byte	0
 3721 01e7 23       		.uleb128 0x23
 3722 01e8 2E       		.uleb128 0x2e
 3723 01e9 00       		.byte	0
 3724 01ea 3F       		.uleb128 0x3f
 3725 01eb 19       		.uleb128 0x19
 3726 01ec 3C       		.uleb128 0x3c
 3727 01ed 19       		.uleb128 0x19
 3728 01ee 6E       		.uleb128 0x6e
 3729 01ef 0E       		.uleb128 0xe
 3730 01f0 03       		.uleb128 0x3
 3731 01f1 0E       		.uleb128 0xe
 3732 01f2 3A       		.uleb128 0x3a
 3733 01f3 0B       		.uleb128 0xb
 3734 01f4 3B       		.uleb128 0x3b
 3735 01f5 0B       		.uleb128 0xb
 3736 01f6 00       		.byte	0
 3737 01f7 00       		.byte	0
 3738 01f8 24       		.uleb128 0x24
 3739 01f9 2E       		.uleb128 0x2e
 3740 01fa 00       		.byte	0
 3741 01fb 3F       		.uleb128 0x3f
 3742 01fc 19       		.uleb128 0x19
 3743 01fd 3C       		.uleb128 0x3c
 3744 01fe 19       		.uleb128 0x19
 3745 01ff 6E       		.uleb128 0x6e
 3746 0200 0E       		.uleb128 0xe
 3747 0201 03       		.uleb128 0x3
 3748 0202 0E       		.uleb128 0xe
 3749 0203 3A       		.uleb128 0x3a
 3750 0204 0B       		.uleb128 0xb
 3751 0205 3B       		.uleb128 0x3b
 3752 0206 05       		.uleb128 0x5
 3753 0207 00       		.byte	0
 3754 0208 00       		.byte	0
 3755 0209 00       		.byte	0
 3756              		.section	.debug_loc,"",%progbits
 3757              	.Ldebug_loc0:
 3758              	.LLST0:
 3759 0000 00000000 		.4byte	.LVL0
 3760 0004 0C000000 		.4byte	.LVL1
 3761 0008 0100     		.2byte	0x1
 3762 000a 50       		.byte	0x50
 3763 000b 0C000000 		.4byte	.LVL1
 3764 000f 66000000 		.4byte	.LVL10
 3765 0013 0100     		.2byte	0x1
 3766 0015 55       		.byte	0x55
 3767 0016 66000000 		.4byte	.LVL10
 3768 001a 6C000000 		.4byte	.LFE1
 3769 001e 0400     		.2byte	0x4
 3770 0020 F3       		.byte	0xf3
 3771 0021 01       		.uleb128 0x1
 3772 0022 50       		.byte	0x50
 3773 0023 9F       		.byte	0x9f
 3774 0024 00000000 		.4byte	0
ARM GAS  C:\Users\Revanth\AppData\Local\Temp\cctCFyeS.s 			page 93


 3775 0028 00000000 		.4byte	0
 3776              	.LLST1:
 3777 002c 22000000 		.4byte	.LVL3
 3778 0030 28000000 		.4byte	.LVL4
 3779 0034 0200     		.2byte	0x2
 3780 0036 32       		.byte	0x32
 3781 0037 9F       		.byte	0x9f
 3782 0038 28000000 		.4byte	.LVL4
 3783 003c 5C000000 		.4byte	.LVL7
 3784 0040 0100     		.2byte	0x1
 3785 0042 53       		.byte	0x53
 3786 0043 5E000000 		.4byte	.LVL8
 3787 0047 62000000 		.4byte	.LVL9
 3788 004b 0100     		.2byte	0x1
 3789 004d 53       		.byte	0x53
 3790 004e 00000000 		.4byte	0
 3791 0052 00000000 		.4byte	0
 3792              	.LLST2:
 3793 0056 12000000 		.4byte	.LVL2
 3794 005a 28000000 		.4byte	.LVL4
 3795 005e 0200     		.2byte	0x2
 3796 0060 30       		.byte	0x30
 3797 0061 9F       		.byte	0x9f
 3798 0062 28000000 		.4byte	.LVL4
 3799 0066 58000000 		.4byte	.LVL5
 3800 006a 0100     		.2byte	0x1
 3801 006c 54       		.byte	0x54
 3802 006d 5A000000 		.4byte	.LVL6
 3803 0071 62000000 		.4byte	.LVL9
 3804 0075 0100     		.2byte	0x1
 3805 0077 54       		.byte	0x54
 3806 0078 00000000 		.4byte	0
 3807 007c 00000000 		.4byte	0
 3808              	.LLST3:
 3809 0080 02000000 		.4byte	.LVL11
 3810 0084 06000000 		.4byte	.LVL12
 3811 0088 0200     		.2byte	0x2
 3812 008a 31       		.byte	0x31
 3813 008b 9F       		.byte	0x9f
 3814 008c 06000000 		.4byte	.LVL12
 3815 0090 82000000 		.4byte	.LVL13
 3816 0094 0100     		.2byte	0x1
 3817 0096 53       		.byte	0x53
 3818 0097 84000000 		.4byte	.LVL14
 3819 009b 8C000000 		.4byte	.LVL15
 3820 009f 0100     		.2byte	0x1
 3821 00a1 53       		.byte	0x53
 3822 00a2 00000000 		.4byte	0
 3823 00a6 00000000 		.4byte	0
 3824              	.LLST4:
 3825 00aa 00000000 		.4byte	.LVL16
 3826 00ae 04000000 		.4byte	.LVL17
 3827 00b2 0200     		.2byte	0x2
 3828 00b4 31       		.byte	0x31
 3829 00b5 9F       		.byte	0x9f
 3830 00b6 04000000 		.4byte	.LVL17
 3831 00ba 36000000 		.4byte	.LVL18
ARM GAS  C:\Users\Revanth\AppData\Local\Temp\cctCFyeS.s 			page 94


 3832 00be 0100     		.2byte	0x1
 3833 00c0 53       		.byte	0x53
 3834 00c1 38000000 		.4byte	.LVL19
 3835 00c5 44000000 		.4byte	.LFE3
 3836 00c9 0100     		.2byte	0x1
 3837 00cb 53       		.byte	0x53
 3838 00cc 00000000 		.4byte	0
 3839 00d0 00000000 		.4byte	0
 3840              	.LLST5:
 3841 00d4 00000000 		.4byte	.LVL20
 3842 00d8 14000000 		.4byte	.LVL22
 3843 00dc 0100     		.2byte	0x1
 3844 00de 50       		.byte	0x50
 3845 00df 14000000 		.4byte	.LVL22
 3846 00e3 1C000000 		.4byte	.LVL24
 3847 00e7 0400     		.2byte	0x4
 3848 00e9 F3       		.byte	0xf3
 3849 00ea 01       		.uleb128 0x1
 3850 00eb 50       		.byte	0x50
 3851 00ec 9F       		.byte	0x9f
 3852 00ed 1C000000 		.4byte	.LVL24
 3853 00f1 1E000000 		.4byte	.LVL25
 3854 00f5 0100     		.2byte	0x1
 3855 00f7 50       		.byte	0x50
 3856 00f8 1E000000 		.4byte	.LVL25
 3857 00fc 28000000 		.4byte	.LFE6
 3858 0100 0400     		.2byte	0x4
 3859 0102 F3       		.byte	0xf3
 3860 0103 01       		.uleb128 0x1
 3861 0104 50       		.byte	0x50
 3862 0105 9F       		.byte	0x9f
 3863 0106 00000000 		.4byte	0
 3864 010a 00000000 		.4byte	0
 3865              	.LLST6:
 3866 010e 0C000000 		.4byte	.LVL21
 3867 0112 1A000000 		.4byte	.LVL23
 3868 0116 0300     		.2byte	0x3
 3869 0118 73       		.byte	0x73
 3870 0119 10       		.sleb128 16
 3871 011a 9F       		.byte	0x9f
 3872 011b 1A000000 		.4byte	.LVL23
 3873 011f 1C000000 		.4byte	.LVL24
 3874 0123 0100     		.2byte	0x1
 3875 0125 50       		.byte	0x50
 3876 0126 1C000000 		.4byte	.LVL24
 3877 012a 1E000000 		.4byte	.LVL25
 3878 012e 0300     		.2byte	0x3
 3879 0130 73       		.byte	0x73
 3880 0131 10       		.sleb128 16
 3881 0132 9F       		.byte	0x9f
 3882 0133 1E000000 		.4byte	.LVL25
 3883 0137 28000000 		.4byte	.LFE6
 3884 013b 0100     		.2byte	0x1
 3885 013d 50       		.byte	0x50
 3886 013e 00000000 		.4byte	0
 3887 0142 00000000 		.4byte	0
 3888              	.LLST7:
ARM GAS  C:\Users\Revanth\AppData\Local\Temp\cctCFyeS.s 			page 95


 3889 0146 1A000000 		.4byte	.LVL27
 3890 014a 00010000 		.4byte	.LVL41
 3891 014e 0100     		.2byte	0x1
 3892 0150 54       		.byte	0x54
 3893 0151 00000000 		.4byte	0
 3894 0155 00000000 		.4byte	0
 3895              	.LLST8:
 3896 0159 3E000000 		.4byte	.LVL32
 3897 015d C0000000 		.4byte	.LVL37
 3898 0161 0100     		.2byte	0x1
 3899 0163 51       		.byte	0x51
 3900 0164 00000000 		.4byte	0
 3901 0168 00000000 		.4byte	0
 3902              	.LLST9:
 3903 016c 44000000 		.4byte	.LVL33
 3904 0170 82000000 		.4byte	.LVL34
 3905 0174 0100     		.2byte	0x1
 3906 0176 56       		.byte	0x56
 3907 0177 92000000 		.4byte	.LVL35
 3908 017b 9E000000 		.4byte	.LVL36
 3909 017f 0100     		.2byte	0x1
 3910 0181 56       		.byte	0x56
 3911 0182 00000000 		.4byte	0
 3912 0186 00000000 		.4byte	0
 3913              	.LLST10:
 3914 018a 22000000 		.4byte	.LVL30
 3915 018e 26000000 		.4byte	.LVL31
 3916 0192 0200     		.2byte	0x2
 3917 0194 30       		.byte	0x30
 3918 0195 9F       		.byte	0x9f
 3919 0196 26000000 		.4byte	.LVL31
 3920 019a FA000000 		.4byte	.LVL39
 3921 019e 0100     		.2byte	0x1
 3922 01a0 53       		.byte	0x53
 3923 01a1 FC000000 		.4byte	.LVL40
 3924 01a5 00010000 		.4byte	.LVL41
 3925 01a9 0100     		.2byte	0x1
 3926 01ab 53       		.byte	0x53
 3927 01ac 00000000 		.4byte	0
 3928 01b0 00000000 		.4byte	0
 3929              	.LLST11:
 3930 01b4 22000000 		.4byte	.LVL30
 3931 01b8 00010000 		.4byte	.LVL41
 3932 01bc 0100     		.2byte	0x1
 3933 01be 50       		.byte	0x50
 3934 01bf 00000000 		.4byte	0
 3935 01c3 00000000 		.4byte	0
 3936              	.LLST12:
 3937 01c7 18000000 		.4byte	.LVL26
 3938 01cb 20000000 		.4byte	.LVL29
 3939 01cf 0300     		.2byte	0x3
 3940 01d1 70       		.byte	0x70
 3941 01d2 08       		.sleb128 8
 3942 01d3 9F       		.byte	0x9f
 3943 01d4 00000000 		.4byte	0
 3944 01d8 00000000 		.4byte	0
 3945              	.LLST13:
ARM GAS  C:\Users\Revanth\AppData\Local\Temp\cctCFyeS.s 			page 96


 3946 01dc 1C000000 		.4byte	.LVL28
 3947 01e0 00010000 		.4byte	.LVL41
 3948 01e4 0100     		.2byte	0x1
 3949 01e6 52       		.byte	0x52
 3950 01e7 00000000 		.4byte	0
 3951 01eb 00000000 		.4byte	0
 3952              	.LLST14:
 3953 01ef 0E000000 		.4byte	.LVL42
 3954 01f3 1A000000 		.4byte	.LVL45
 3955 01f7 0100     		.2byte	0x1
 3956 01f9 50       		.byte	0x50
 3957 01fa 1A000000 		.4byte	.LVL45
 3958 01fe 1E000000 		.4byte	.LVL47
 3959 0202 0100     		.2byte	0x1
 3960 0204 53       		.byte	0x53
 3961 0205 1E000000 		.4byte	.LVL47
 3962 0209 20000000 		.4byte	.LVL48
 3963 020d 0100     		.2byte	0x1
 3964 020f 50       		.byte	0x50
 3965 0210 00000000 		.4byte	0
 3966 0214 00000000 		.4byte	0
 3967              	.LLST15:
 3968 0218 1C000000 		.4byte	.LVL46
 3969 021c 1E000000 		.4byte	.LVL47
 3970 0220 0100     		.2byte	0x1
 3971 0222 50       		.byte	0x50
 3972 0223 20000000 		.4byte	.LVL48
 3973 0227 28000000 		.4byte	.LFE8
 3974 022b 0100     		.2byte	0x1
 3975 022d 50       		.byte	0x50
 3976 022e 00000000 		.4byte	0
 3977 0232 00000000 		.4byte	0
 3978              	.LLST16:
 3979 0236 14000000 		.4byte	.LVL43
 3980 023a 16000000 		.4byte	.LVL44
 3981 023e 0100     		.2byte	0x1
 3982 0240 52       		.byte	0x52
 3983 0241 16000000 		.4byte	.LVL44
 3984 0245 1E000000 		.4byte	.LVL47
 3985 0249 0300     		.2byte	0x3
 3986 024b 72       		.byte	0x72
 3987 024c 7E       		.sleb128 -2
 3988 024d 9F       		.byte	0x9f
 3989 024e 00000000 		.4byte	0
 3990 0252 00000000 		.4byte	0
 3991              	.LLST17:
 3992 0256 00000000 		.4byte	.LVL49
 3993 025a 58000000 		.4byte	.LVL61
 3994 025e 0100     		.2byte	0x1
 3995 0260 50       		.byte	0x50
 3996 0261 58000000 		.4byte	.LVL61
 3997 0265 EC010000 		.4byte	.LFE4
 3998 0269 0400     		.2byte	0x4
 3999 026b F3       		.byte	0xf3
 4000 026c 01       		.uleb128 0x1
 4001 026d 50       		.byte	0x50
 4002 026e 9F       		.byte	0x9f
ARM GAS  C:\Users\Revanth\AppData\Local\Temp\cctCFyeS.s 			page 97


 4003 026f 00000000 		.4byte	0
 4004 0273 00000000 		.4byte	0
 4005              	.LLST18:
 4006 0277 04000000 		.4byte	.LVL50
 4007 027b 08000000 		.4byte	.LVL51
 4008 027f 0200     		.2byte	0x2
 4009 0281 30       		.byte	0x30
 4010 0282 9F       		.byte	0x9f
 4011 0283 08000000 		.4byte	.LVL51
 4012 0287 28000000 		.4byte	.LVL52
 4013 028b 0100     		.2byte	0x1
 4014 028d 53       		.byte	0x53
 4015 028e 2A000000 		.4byte	.LVL53
 4016 0292 32000000 		.4byte	.LVL54
 4017 0296 0100     		.2byte	0x1
 4018 0298 53       		.byte	0x53
 4019 0299 42000000 		.4byte	.LVL57
 4020 029d 44000000 		.4byte	.LVL58
 4021 02a1 0100     		.2byte	0x1
 4022 02a3 53       		.byte	0x53
 4023 02a4 86000000 		.4byte	.LVL67
 4024 02a8 A0010000 		.4byte	.LVL91
 4025 02ac 0100     		.2byte	0x1
 4026 02ae 57       		.byte	0x57
 4027 02af A0010000 		.4byte	.LVL91
 4028 02b3 A6010000 		.4byte	.LVL92
 4029 02b7 0200     		.2byte	0x2
 4030 02b9 31       		.byte	0x31
 4031 02ba 9F       		.byte	0x9f
 4032 02bb A6010000 		.4byte	.LVL92
 4033 02bf C4010000 		.4byte	.LVL97
 4034 02c3 0100     		.2byte	0x1
 4035 02c5 51       		.byte	0x51
 4036 02c6 C6010000 		.4byte	.LVL98
 4037 02ca CD010000 		.4byte	.LVL99-1
 4038 02ce 0100     		.2byte	0x1
 4039 02d0 51       		.byte	0x51
 4040 02d1 00000000 		.4byte	0
 4041 02d5 00000000 		.4byte	0
 4042              	.LLST19:
 4043 02d9 92000000 		.4byte	.LVL69
 4044 02dd 96000000 		.4byte	.LVL70
 4045 02e1 0200     		.2byte	0x2
 4046 02e3 30       		.byte	0x30
 4047 02e4 9F       		.byte	0x9f
 4048 02e5 96000000 		.4byte	.LVL70
 4049 02e9 64010000 		.4byte	.LVL80
 4050 02ed 0100     		.2byte	0x1
 4051 02ef 54       		.byte	0x54
 4052 02f0 66010000 		.4byte	.LVL81
 4053 02f4 6E010000 		.4byte	.LVL83
 4054 02f8 0100     		.2byte	0x1
 4055 02fa 54       		.byte	0x54
 4056 02fb 00000000 		.4byte	0
 4057 02ff 00000000 		.4byte	0
 4058              	.LLST20:
 4059 0303 32000000 		.4byte	.LVL54
ARM GAS  C:\Users\Revanth\AppData\Local\Temp\cctCFyeS.s 			page 98


 4060 0307 3E000000 		.4byte	.LVL55
 4061 030b 0100     		.2byte	0x1
 4062 030d 53       		.byte	0x53
 4063 030e 40000000 		.4byte	.LVL56
 4064 0312 42000000 		.4byte	.LVL57
 4065 0316 0100     		.2byte	0x1
 4066 0318 53       		.byte	0x53
 4067 0319 44000000 		.4byte	.LVL58
 4068 031d 48000000 		.4byte	.LVL59
 4069 0321 0100     		.2byte	0x1
 4070 0323 53       		.byte	0x53
 4071 0324 86000000 		.4byte	.LVL67
 4072 0328 8E000000 		.4byte	.LVL68
 4073 032c 0200     		.2byte	0x2
 4074 032e 31       		.byte	0x31
 4075 032f 9F       		.byte	0x9f
 4076 0330 8E000000 		.4byte	.LVL68
 4077 0334 6C010000 		.4byte	.LVL82
 4078 0338 0100     		.2byte	0x1
 4079 033a 56       		.byte	0x56
 4080 033b 6E010000 		.4byte	.LVL83
 4081 033f 76010000 		.4byte	.LVL84
 4082 0343 0100     		.2byte	0x1
 4083 0345 56       		.byte	0x56
 4084 0346 76010000 		.4byte	.LVL84
 4085 034a 7A010000 		.4byte	.LVL85
 4086 034e 0200     		.2byte	0x2
 4087 0350 30       		.byte	0x30
 4088 0351 9F       		.byte	0x9f
 4089 0352 7A010000 		.4byte	.LVL85
 4090 0356 92010000 		.4byte	.LVL88
 4091 035a 0100     		.2byte	0x1
 4092 035c 52       		.byte	0x52
 4093 035d 94010000 		.4byte	.LVL89
 4094 0361 9B010000 		.4byte	.LVL90-1
 4095 0365 0100     		.2byte	0x1
 4096 0367 52       		.byte	0x52
 4097 0368 00000000 		.4byte	0
 4098 036c 00000000 		.4byte	0
 4099              	.LLST21:
 4100 0370 F4000000 		.4byte	.LVL71
 4101 0374 10010000 		.4byte	.LVL72
 4102 0378 0100     		.2byte	0x1
 4103 037a 53       		.byte	0x53
 4104 037b 10010000 		.4byte	.LVL72
 4105 037f 1E010000 		.4byte	.LVL73
 4106 0383 0700     		.2byte	0x7
 4107 0385 75       		.byte	0x75
 4108 0386 03       		.sleb128 3
 4109 0387 94       		.byte	0x94
 4110 0388 01       		.byte	0x1
 4111 0389 33       		.byte	0x33
 4112 038a 1A       		.byte	0x1a
 4113 038b 9F       		.byte	0x9f
 4114 038c 24010000 		.4byte	.LVL74
 4115 0390 38010000 		.4byte	.LVL75
 4116 0394 0100     		.2byte	0x1
ARM GAS  C:\Users\Revanth\AppData\Local\Temp\cctCFyeS.s 			page 99


 4117 0396 53       		.byte	0x53
 4118 0397 38010000 		.4byte	.LVL75
 4119 039b 46010000 		.4byte	.LVL76
 4120 039f 0700     		.2byte	0x7
 4121 03a1 75       		.byte	0x75
 4122 03a2 03       		.sleb128 3
 4123 03a3 94       		.byte	0x94
 4124 03a4 01       		.byte	0x1
 4125 03a5 33       		.byte	0x33
 4126 03a6 1A       		.byte	0x1a
 4127 03a7 9F       		.byte	0x9f
 4128 03a8 00000000 		.4byte	0
 4129 03ac 00000000 		.4byte	0
 4130              	.LLST22:
 4131 03b0 64000000 		.4byte	.LVL64
 4132 03b4 66000000 		.4byte	.LVL65
 4133 03b8 0100     		.2byte	0x1
 4134 03ba 53       		.byte	0x53
 4135 03bb 66000000 		.4byte	.LVL65
 4136 03bf 8E000000 		.4byte	.LVL68
 4137 03c3 0200     		.2byte	0x2
 4138 03c5 70       		.byte	0x70
 4139 03c6 04       		.sleb128 4
 4140 03c7 00000000 		.4byte	0
 4141 03cb 00000000 		.4byte	0
 4142              	.LLST23:
 4143 03cf 04000000 		.4byte	.LVL50
 4144 03d3 A6010000 		.4byte	.LVL92
 4145 03d7 0200     		.2byte	0x2
 4146 03d9 30       		.byte	0x30
 4147 03da 9F       		.byte	0x9f
 4148 03db A6010000 		.4byte	.LVL92
 4149 03df B8010000 		.4byte	.LVL93
 4150 03e3 0100     		.2byte	0x1
 4151 03e5 53       		.byte	0x53
 4152 03e6 B8010000 		.4byte	.LVL93
 4153 03ea BA010000 		.4byte	.LVL94
 4154 03ee 0200     		.2byte	0x2
 4155 03f0 74       		.byte	0x74
 4156 03f1 06       		.sleb128 6
 4157 03f2 BA010000 		.4byte	.LVL94
 4158 03f6 C0010000 		.4byte	.LVL95
 4159 03fa 0100     		.2byte	0x1
 4160 03fc 53       		.byte	0x53
 4161 03fd C2010000 		.4byte	.LVL96
 4162 0401 CD010000 		.4byte	.LVL99-1
 4163 0405 0100     		.2byte	0x1
 4164 0407 53       		.byte	0x53
 4165 0408 00000000 		.4byte	0
 4166 040c 00000000 		.4byte	0
 4167              	.LLST24:
 4168 0410 62000000 		.4byte	.LVL63
 4169 0414 82000000 		.4byte	.LVL66
 4170 0418 0100     		.2byte	0x1
 4171 041a 50       		.byte	0x50
 4172 041b 82000000 		.4byte	.LVL66
 4173 041f 8E000000 		.4byte	.LVL68
ARM GAS  C:\Users\Revanth\AppData\Local\Temp\cctCFyeS.s 			page 100


 4174 0423 0300     		.2byte	0x3
 4175 0425 70       		.byte	0x70
 4176 0426 08       		.sleb128 8
 4177 0427 9F       		.byte	0x9f
 4178 0428 8E000000 		.4byte	.LVL68
 4179 042c CE010000 		.4byte	.LVL99
 4180 0430 0300     		.2byte	0x3
 4181 0432 78       		.byte	0x78
 4182 0433 08       		.sleb128 8
 4183 0434 9F       		.byte	0x9f
 4184 0435 00000000 		.4byte	0
 4185 0439 00000000 		.4byte	0
 4186              	.LLST25:
 4187 043d 92000000 		.4byte	.LVL69
 4188 0441 6E010000 		.4byte	.LVL83
 4189 0445 0100     		.2byte	0x1
 4190 0447 55       		.byte	0x55
 4191 0448 76010000 		.4byte	.LVL84
 4192 044c 84010000 		.4byte	.LVL86
 4193 0450 0100     		.2byte	0x1
 4194 0452 50       		.byte	0x50
 4195 0453 84010000 		.4byte	.LVL86
 4196 0457 90010000 		.4byte	.LVL87
 4197 045b 0300     		.2byte	0x3
 4198 045d 70       		.byte	0x70
 4199 045e 78       		.sleb128 -8
 4200 045f 9F       		.byte	0x9f
 4201 0460 90010000 		.4byte	.LVL87
 4202 0464 9B010000 		.4byte	.LVL90-1
 4203 0468 0100     		.2byte	0x1
 4204 046a 50       		.byte	0x50
 4205 046b 00000000 		.4byte	0
 4206 046f 00000000 		.4byte	0
 4207              	.LLST26:
 4208 0473 54000000 		.4byte	.LVL60
 4209 0477 8E000000 		.4byte	.LVL68
 4210 047b 0200     		.2byte	0x2
 4211 047d 30       		.byte	0x30
 4212 047e 9F       		.byte	0x9f
 4213 047f 8E000000 		.4byte	.LVL68
 4214 0483 CE010000 		.4byte	.LVL99
 4215 0487 0100     		.2byte	0x1
 4216 0489 5A       		.byte	0x5a
 4217 048a 00000000 		.4byte	0
 4218 048e 00000000 		.4byte	0
 4219              	.LLST27:
 4220 0492 00000000 		.4byte	.LVL100
 4221 0496 04000000 		.4byte	.LVL101
 4222 049a 0100     		.2byte	0x1
 4223 049c 50       		.byte	0x50
 4224 049d 04000000 		.4byte	.LVL101
 4225 04a1 30000000 		.4byte	.LVL102
 4226 04a5 0100     		.2byte	0x1
 4227 04a7 50       		.byte	0x50
 4228 04a8 38000000 		.4byte	.LVL103
 4229 04ac 3A000000 		.4byte	.LVL104
 4230 04b0 0100     		.2byte	0x1
ARM GAS  C:\Users\Revanth\AppData\Local\Temp\cctCFyeS.s 			page 101


 4231 04b2 50       		.byte	0x50
 4232 04b3 00000000 		.4byte	0
 4233 04b7 00000000 		.4byte	0
 4234              	.LLST28:
 4235 04bb 02000000 		.4byte	.LVL105
 4236 04bf 52000000 		.4byte	.LVL110
 4237 04c3 0200     		.2byte	0x2
 4238 04c5 30       		.byte	0x30
 4239 04c6 9F       		.byte	0x9f
 4240 04c7 52000000 		.4byte	.LVL110
 4241 04cb 54000000 		.4byte	.LVL111
 4242 04cf 0100     		.2byte	0x1
 4243 04d1 50       		.byte	0x50
 4244 04d2 54000000 		.4byte	.LVL111
 4245 04d6 56000000 		.4byte	.LVL112
 4246 04da 0200     		.2byte	0x2
 4247 04dc 30       		.byte	0x30
 4248 04dd 9F       		.byte	0x9f
 4249 04de 56000000 		.4byte	.LVL112
 4250 04e2 64000000 		.4byte	.LFE10
 4251 04e6 0100     		.2byte	0x1
 4252 04e8 50       		.byte	0x50
 4253 04e9 00000000 		.4byte	0
 4254 04ed 00000000 		.4byte	0
 4255              	.LLST29:
 4256 04f1 0A000000 		.4byte	.LVL106
 4257 04f5 3A000000 		.4byte	.LVL107
 4258 04f9 0100     		.2byte	0x1
 4259 04fb 53       		.byte	0x53
 4260 04fc 44000000 		.4byte	.LVL108
 4261 0500 46000000 		.4byte	.LVL109
 4262 0504 0100     		.2byte	0x1
 4263 0506 53       		.byte	0x53
 4264 0507 54000000 		.4byte	.LVL111
 4265 050b 58000000 		.4byte	.LVL113
 4266 050f 0100     		.2byte	0x1
 4267 0511 53       		.byte	0x53
 4268 0512 00000000 		.4byte	0
 4269 0516 00000000 		.4byte	0
 4270              	.LLST30:
 4271 051a 00000000 		.4byte	.LVL114
 4272 051e 98000000 		.4byte	.LVL123
 4273 0522 0200     		.2byte	0x2
 4274 0524 30       		.byte	0x30
 4275 0525 9F       		.byte	0x9f
 4276 0526 98000000 		.4byte	.LVL123
 4277 052a 9A000000 		.4byte	.LVL124
 4278 052e 0100     		.2byte	0x1
 4279 0530 50       		.byte	0x50
 4280 0531 9A000000 		.4byte	.LVL124
 4281 0535 AC000000 		.4byte	.LFE11
 4282 0539 0200     		.2byte	0x2
 4283 053b 30       		.byte	0x30
 4284 053c 9F       		.byte	0x9f
 4285 053d 00000000 		.4byte	0
 4286 0541 00000000 		.4byte	0
 4287              	.LLST31:
ARM GAS  C:\Users\Revanth\AppData\Local\Temp\cctCFyeS.s 			page 102


 4288 0545 08000000 		.4byte	.LVL115
 4289 0549 5C000000 		.4byte	.LVL116
 4290 054d 0100     		.2byte	0x1
 4291 054f 53       		.byte	0x53
 4292 0550 60000000 		.4byte	.LVL117
 4293 0554 62000000 		.4byte	.LVL118
 4294 0558 0100     		.2byte	0x1
 4295 055a 53       		.byte	0x53
 4296 055b 6C000000 		.4byte	.LVL119
 4297 055f 80000000 		.4byte	.LVL120
 4298 0563 0100     		.2byte	0x1
 4299 0565 53       		.byte	0x53
 4300 0566 8A000000 		.4byte	.LVL121
 4301 056a 8C000000 		.4byte	.LVL122
 4302 056e 0100     		.2byte	0x1
 4303 0570 53       		.byte	0x53
 4304 0571 9A000000 		.4byte	.LVL124
 4305 0575 AC000000 		.4byte	.LFE11
 4306 0579 0100     		.2byte	0x1
 4307 057b 53       		.byte	0x53
 4308 057c 00000000 		.4byte	0
 4309 0580 00000000 		.4byte	0
 4310              	.LLST32:
 4311 0584 02000000 		.4byte	.LVL125
 4312 0588 32000000 		.4byte	.LVL130
 4313 058c 0200     		.2byte	0x2
 4314 058e 30       		.byte	0x30
 4315 058f 9F       		.byte	0x9f
 4316 0590 32000000 		.4byte	.LVL130
 4317 0594 36000000 		.4byte	.LVL132
 4318 0598 0200     		.2byte	0x2
 4319 059a 31       		.byte	0x31
 4320 059b 9F       		.byte	0x9f
 4321 059c 36000000 		.4byte	.LVL132
 4322 05a0 38000000 		.4byte	.LVL133
 4323 05a4 0200     		.2byte	0x2
 4324 05a6 30       		.byte	0x30
 4325 05a7 9F       		.byte	0x9f
 4326 05a8 38000000 		.4byte	.LVL133
 4327 05ac 4C000000 		.4byte	.LFE12
 4328 05b0 0100     		.2byte	0x1
 4329 05b2 50       		.byte	0x50
 4330 05b3 00000000 		.4byte	0
 4331 05b7 00000000 		.4byte	0
 4332              	.LLST33:
 4333 05bb 08000000 		.4byte	.LVL126
 4334 05bf 3A000000 		.4byte	.LVL134
 4335 05c3 0100     		.2byte	0x1
 4336 05c5 54       		.byte	0x54
 4337 05c6 00000000 		.4byte	0
 4338 05ca 00000000 		.4byte	0
 4339              	.LLST34:
 4340 05ce 18000000 		.4byte	.LVL128
 4341 05d2 24000000 		.4byte	.LVL129
 4342 05d6 0100     		.2byte	0x1
 4343 05d8 53       		.byte	0x53
 4344 05d9 24000000 		.4byte	.LVL129
ARM GAS  C:\Users\Revanth\AppData\Local\Temp\cctCFyeS.s 			page 103


 4345 05dd 34000000 		.4byte	.LVL131
 4346 05e1 0500     		.2byte	0x5
 4347 05e3 70       		.byte	0x70
 4348 05e4 04       		.sleb128 4
 4349 05e5 06       		.byte	0x6
 4350 05e6 23       		.byte	0x23
 4351 05e7 04       		.uleb128 0x4
 4352 05e8 36000000 		.4byte	.LVL132
 4353 05ec 4C000000 		.4byte	.LFE12
 4354 05f0 0100     		.2byte	0x1
 4355 05f2 53       		.byte	0x53
 4356 05f3 00000000 		.4byte	0
 4357 05f7 00000000 		.4byte	0
 4358              	.LLST35:
 4359 05fb 14000000 		.4byte	.LVL127
 4360 05ff 34000000 		.4byte	.LVL131
 4361 0603 0100     		.2byte	0x1
 4362 0605 50       		.byte	0x50
 4363 0606 36000000 		.4byte	.LVL132
 4364 060a 38000000 		.4byte	.LVL133
 4365 060e 0100     		.2byte	0x1
 4366 0610 50       		.byte	0x50
 4367 0611 00000000 		.4byte	0
 4368 0615 00000000 		.4byte	0
 4369              	.LLST36:
 4370 0619 02000000 		.4byte	.LVL135
 4371 061d 58000000 		.4byte	.LVL139
 4372 0621 0200     		.2byte	0x2
 4373 0623 30       		.byte	0x30
 4374 0624 9F       		.byte	0x9f
 4375 0625 58000000 		.4byte	.LVL139
 4376 0629 5A000000 		.4byte	.LVL140
 4377 062d 0100     		.2byte	0x1
 4378 062f 50       		.byte	0x50
 4379 0630 5A000000 		.4byte	.LVL140
 4380 0634 8A000000 		.4byte	.LVL142
 4381 0638 0200     		.2byte	0x2
 4382 063a 30       		.byte	0x30
 4383 063b 9F       		.byte	0x9f
 4384 063c 8A000000 		.4byte	.LVL142
 4385 0640 8C000000 		.4byte	.LVL143
 4386 0644 0100     		.2byte	0x1
 4387 0646 50       		.byte	0x50
 4388 0647 8C000000 		.4byte	.LVL143
 4389 064b FC000000 		.4byte	.LVL155
 4390 064f 0200     		.2byte	0x2
 4391 0651 30       		.byte	0x30
 4392 0652 9F       		.byte	0x9f
 4393 0653 FC000000 		.4byte	.LVL155
 4394 0657 FE000000 		.4byte	.LVL156
 4395 065b 0100     		.2byte	0x1
 4396 065d 50       		.byte	0x50
 4397 065e FE000000 		.4byte	.LVL156
 4398 0662 02010000 		.4byte	.LVL157
 4399 0666 0200     		.2byte	0x2
 4400 0668 30       		.byte	0x30
 4401 0669 9F       		.byte	0x9f
ARM GAS  C:\Users\Revanth\AppData\Local\Temp\cctCFyeS.s 			page 104


 4402 066a 02010000 		.4byte	.LVL157
 4403 066e 04010000 		.4byte	.LVL158
 4404 0672 0100     		.2byte	0x1
 4405 0674 50       		.byte	0x50
 4406 0675 04010000 		.4byte	.LVL158
 4407 0679 38010000 		.4byte	.LVL160
 4408 067d 0200     		.2byte	0x2
 4409 067f 30       		.byte	0x30
 4410 0680 9F       		.byte	0x9f
 4411 0681 38010000 		.4byte	.LVL160
 4412 0685 3A010000 		.4byte	.LVL161
 4413 0689 0100     		.2byte	0x1
 4414 068b 50       		.byte	0x50
 4415 068c 3A010000 		.4byte	.LVL161
 4416 0690 54010000 		.4byte	.LVL162
 4417 0694 0200     		.2byte	0x2
 4418 0696 30       		.byte	0x30
 4419 0697 9F       		.byte	0x9f
 4420 0698 54010000 		.4byte	.LVL162
 4421 069c 56010000 		.4byte	.LVL163
 4422 06a0 0100     		.2byte	0x1
 4423 06a2 50       		.byte	0x50
 4424 06a3 56010000 		.4byte	.LVL163
 4425 06a7 64010000 		.4byte	.LVL165
 4426 06ab 0200     		.2byte	0x2
 4427 06ad 30       		.byte	0x30
 4428 06ae 9F       		.byte	0x9f
 4429 06af 64010000 		.4byte	.LVL165
 4430 06b3 66010000 		.4byte	.LVL166
 4431 06b7 0100     		.2byte	0x1
 4432 06b9 50       		.byte	0x50
 4433 06ba 66010000 		.4byte	.LVL166
 4434 06be 7A010000 		.4byte	.LVL168
 4435 06c2 0200     		.2byte	0x2
 4436 06c4 30       		.byte	0x30
 4437 06c5 9F       		.byte	0x9f
 4438 06c6 7A010000 		.4byte	.LVL168
 4439 06ca 7C010000 		.4byte	.LVL169
 4440 06ce 0100     		.2byte	0x1
 4441 06d0 50       		.byte	0x50
 4442 06d1 7C010000 		.4byte	.LVL169
 4443 06d5 B0010000 		.4byte	.LVL171
 4444 06d9 0200     		.2byte	0x2
 4445 06db 30       		.byte	0x30
 4446 06dc 9F       		.byte	0x9f
 4447 06dd B0010000 		.4byte	.LVL171
 4448 06e1 B2010000 		.4byte	.LVL172
 4449 06e5 0100     		.2byte	0x1
 4450 06e7 50       		.byte	0x50
 4451 06e8 B2010000 		.4byte	.LVL172
 4452 06ec EA010000 		.4byte	.LVL178
 4453 06f0 0200     		.2byte	0x2
 4454 06f2 30       		.byte	0x30
 4455 06f3 9F       		.byte	0x9f
 4456 06f4 EA010000 		.4byte	.LVL178
 4457 06f8 EC010000 		.4byte	.LVL179
 4458 06fc 0100     		.2byte	0x1
ARM GAS  C:\Users\Revanth\AppData\Local\Temp\cctCFyeS.s 			page 105


 4459 06fe 50       		.byte	0x50
 4460 06ff EC010000 		.4byte	.LVL179
 4461 0703 22020000 		.4byte	.LVL184
 4462 0707 0200     		.2byte	0x2
 4463 0709 30       		.byte	0x30
 4464 070a 9F       		.byte	0x9f
 4465 070b 22020000 		.4byte	.LVL184
 4466 070f 24020000 		.4byte	.LVL185
 4467 0713 0100     		.2byte	0x1
 4468 0715 50       		.byte	0x50
 4469 0716 24020000 		.4byte	.LVL185
 4470 071a 40020000 		.4byte	.LVL187
 4471 071e 0200     		.2byte	0x2
 4472 0720 30       		.byte	0x30
 4473 0721 9F       		.byte	0x9f
 4474 0722 40020000 		.4byte	.LVL187
 4475 0726 42020000 		.4byte	.LVL188
 4476 072a 0100     		.2byte	0x1
 4477 072c 50       		.byte	0x50
 4478 072d 42020000 		.4byte	.LVL188
 4479 0731 5A020000 		.4byte	.LVL189
 4480 0735 0200     		.2byte	0x2
 4481 0737 30       		.byte	0x30
 4482 0738 9F       		.byte	0x9f
 4483 0739 5A020000 		.4byte	.LVL189
 4484 073d 98020000 		.4byte	.LVL190
 4485 0741 0100     		.2byte	0x1
 4486 0743 50       		.byte	0x50
 4487 0744 98020000 		.4byte	.LVL190
 4488 0748 B8020000 		.4byte	.LVL191
 4489 074c 0200     		.2byte	0x2
 4490 074e 30       		.byte	0x30
 4491 074f 9F       		.byte	0x9f
 4492 0750 B8020000 		.4byte	.LVL191
 4493 0754 BA020000 		.4byte	.LVL192
 4494 0758 0100     		.2byte	0x1
 4495 075a 50       		.byte	0x50
 4496 075b BA020000 		.4byte	.LVL192
 4497 075f D6020000 		.4byte	.LVL194
 4498 0763 0200     		.2byte	0x2
 4499 0765 30       		.byte	0x30
 4500 0766 9F       		.byte	0x9f
 4501 0767 D6020000 		.4byte	.LVL194
 4502 076b D8020000 		.4byte	.LVL195
 4503 076f 0100     		.2byte	0x1
 4504 0771 50       		.byte	0x50
 4505 0772 D8020000 		.4byte	.LVL195
 4506 0776 F0020000 		.4byte	.LVL196
 4507 077a 0200     		.2byte	0x2
 4508 077c 30       		.byte	0x30
 4509 077d 9F       		.byte	0x9f
 4510 077e F0020000 		.4byte	.LVL196
 4511 0782 F2020000 		.4byte	.LVL197
 4512 0786 0100     		.2byte	0x1
 4513 0788 50       		.byte	0x50
 4514 0789 F2020000 		.4byte	.LVL197
 4515 078d 12030000 		.4byte	.LVL198
ARM GAS  C:\Users\Revanth\AppData\Local\Temp\cctCFyeS.s 			page 106


 4516 0791 0200     		.2byte	0x2
 4517 0793 30       		.byte	0x30
 4518 0794 9F       		.byte	0x9f
 4519 0795 12030000 		.4byte	.LVL198
 4520 0799 14030000 		.4byte	.LVL199
 4521 079d 0100     		.2byte	0x1
 4522 079f 50       		.byte	0x50
 4523 07a0 14030000 		.4byte	.LVL199
 4524 07a4 4E030000 		.4byte	.LVL207
 4525 07a8 0200     		.2byte	0x2
 4526 07aa 30       		.byte	0x30
 4527 07ab 9F       		.byte	0x9f
 4528 07ac 4E030000 		.4byte	.LVL207
 4529 07b0 5C030000 		.4byte	.LFE0
 4530 07b4 0100     		.2byte	0x1
 4531 07b6 50       		.byte	0x50
 4532 07b7 00000000 		.4byte	0
 4533 07bb 00000000 		.4byte	0
 4534              	.LLST37:
 4535 07bf FC010000 		.4byte	.LVL181
 4536 07c3 0E020000 		.4byte	.LVL182
 4537 07c7 0100     		.2byte	0x1
 4538 07c9 53       		.byte	0x53
 4539 07ca 00000000 		.4byte	0
 4540 07ce 00000000 		.4byte	0
 4541              	.LLST38:
 4542 07d2 B6010000 		.4byte	.LVL174
 4543 07d6 C3010000 		.4byte	.LVL175-1
 4544 07da 0100     		.2byte	0x1
 4545 07dc 53       		.byte	0x53
 4546 07dd 00000000 		.4byte	0
 4547 07e1 00000000 		.4byte	0
 4548              	.LLST39:
 4549 07e5 08000000 		.4byte	.LVL136
 4550 07e9 3E000000 		.4byte	.LVL137
 4551 07ed 0100     		.2byte	0x1
 4552 07ef 53       		.byte	0x53
 4553 07f0 04010000 		.4byte	.LVL158
 4554 07f4 08010000 		.4byte	.LVL159
 4555 07f8 0100     		.2byte	0x1
 4556 07fa 53       		.byte	0x53
 4557 07fb 56010000 		.4byte	.LVL163
 4558 07ff 58010000 		.4byte	.LVL164
 4559 0803 0100     		.2byte	0x1
 4560 0805 53       		.byte	0x53
 4561 0806 66010000 		.4byte	.LVL166
 4562 080a 6A010000 		.4byte	.LVL167
 4563 080e 0100     		.2byte	0x1
 4564 0810 53       		.byte	0x53
 4565 0811 7C010000 		.4byte	.LVL169
 4566 0815 A4010000 		.4byte	.LVL170
 4567 0819 0100     		.2byte	0x1
 4568 081b 53       		.byte	0x53
 4569 081c B2010000 		.4byte	.LVL172
 4570 0820 B4010000 		.4byte	.LVL173
 4571 0824 0100     		.2byte	0x1
 4572 0826 53       		.byte	0x53
ARM GAS  C:\Users\Revanth\AppData\Local\Temp\cctCFyeS.s 			page 107


 4573 0827 EC010000 		.4byte	.LVL179
 4574 082b EF010000 		.4byte	.LVL180-1
 4575 082f 0100     		.2byte	0x1
 4576 0831 53       		.byte	0x53
 4577 0832 24020000 		.4byte	.LVL185
 4578 0836 28020000 		.4byte	.LVL186
 4579 083a 0100     		.2byte	0x1
 4580 083c 53       		.byte	0x53
 4581 083d BA020000 		.4byte	.LVL192
 4582 0841 BE020000 		.4byte	.LVL193
 4583 0845 0100     		.2byte	0x1
 4584 0847 53       		.byte	0x53
 4585 0848 14030000 		.4byte	.LVL199
 4586 084c 18030000 		.4byte	.LVL200
 4587 0850 0100     		.2byte	0x1
 4588 0852 53       		.byte	0x53
 4589 0853 24030000 		.4byte	.LVL204
 4590 0857 28030000 		.4byte	.LVL205
 4591 085b 0100     		.2byte	0x1
 4592 085d 53       		.byte	0x53
 4593 085e 00000000 		.4byte	0
 4594 0862 00000000 		.4byte	0
 4595              	.LLST40:
 4596 0866 08000000 		.4byte	.LVL136
 4597 086a 98000000 		.4byte	.LVL144
 4598 086e 0200     		.2byte	0x2
 4599 0870 30       		.byte	0x30
 4600 0871 9F       		.byte	0x9f
 4601 0872 98000000 		.4byte	.LVL144
 4602 0876 A2000000 		.4byte	.LVL149
 4603 087a 0100     		.2byte	0x1
 4604 087c 51       		.byte	0x51
 4605 087d A2000000 		.4byte	.LVL149
 4606 0881 A6000000 		.4byte	.LVL150
 4607 0885 0200     		.2byte	0x2
 4608 0887 30       		.byte	0x30
 4609 0888 9F       		.byte	0x9f
 4610 0889 A6000000 		.4byte	.LVL150
 4611 088d E3000000 		.4byte	.LVL153-1
 4612 0891 0100     		.2byte	0x1
 4613 0893 51       		.byte	0x51
 4614 0894 E6000000 		.4byte	.LVL154
 4615 0898 FB000000 		.4byte	.LVL155-1
 4616 089c 0100     		.2byte	0x1
 4617 089e 51       		.byte	0x51
 4618 089f FE000000 		.4byte	.LVL156
 4619 08a3 1C030000 		.4byte	.LVL202
 4620 08a7 0200     		.2byte	0x2
 4621 08a9 30       		.byte	0x30
 4622 08aa 9F       		.byte	0x9f
 4623 08ab 1C030000 		.4byte	.LVL202
 4624 08af 20030000 		.4byte	.LVL203
 4625 08b3 0100     		.2byte	0x1
 4626 08b5 51       		.byte	0x51
 4627 08b6 20030000 		.4byte	.LVL203
 4628 08ba 5C030000 		.4byte	.LFE0
 4629 08be 0200     		.2byte	0x2
ARM GAS  C:\Users\Revanth\AppData\Local\Temp\cctCFyeS.s 			page 108


 4630 08c0 30       		.byte	0x30
 4631 08c1 9F       		.byte	0x9f
 4632 08c2 00000000 		.4byte	0
 4633 08c6 00000000 		.4byte	0
 4634              	.LLST41:
 4635 08ca 98000000 		.4byte	.LVL144
 4636 08ce 9E000000 		.4byte	.LVL147
 4637 08d2 0100     		.2byte	0x1
 4638 08d4 53       		.byte	0x53
 4639 08d5 A0000000 		.4byte	.LVL148
 4640 08d9 A2000000 		.4byte	.LVL149
 4641 08dd 0100     		.2byte	0x1
 4642 08df 53       		.byte	0x53
 4643 08e0 A6000000 		.4byte	.LVL150
 4644 08e4 BA000000 		.4byte	.LVL151
 4645 08e8 0100     		.2byte	0x1
 4646 08ea 53       		.byte	0x53
 4647 08eb 00000000 		.4byte	0
 4648 08ef 00000000 		.4byte	0
 4649              	.LLST42:
 4650 08f3 9A000000 		.4byte	.LVL145
 4651 08f7 A2000000 		.4byte	.LVL149
 4652 08fb 0100     		.2byte	0x1
 4653 08fd 52       		.byte	0x52
 4654 08fe 00000000 		.4byte	0
 4655 0902 00000000 		.4byte	0
 4656              	.LLST43:
 4657 0906 4A000000 		.4byte	.LVL138
 4658 090a 57000000 		.4byte	.LVL139-1
 4659 090e 0100     		.2byte	0x1
 4660 0910 50       		.byte	0x50
 4661 0911 6C000000 		.4byte	.LVL141
 4662 0915 89000000 		.4byte	.LVL142-1
 4663 0919 0100     		.2byte	0x1
 4664 091b 50       		.byte	0x50
 4665 091c C4010000 		.4byte	.LVL175
 4666 0920 DE010000 		.4byte	.LVL176
 4667 0924 0100     		.2byte	0x1
 4668 0926 50       		.byte	0x50
 4669 0927 18030000 		.4byte	.LVL200
 4670 092b 1A030000 		.4byte	.LVL201
 4671 092f 0100     		.2byte	0x1
 4672 0931 50       		.byte	0x50
 4673 0932 28030000 		.4byte	.LVL205
 4674 0936 2A030000 		.4byte	.LVL206
 4675 093a 0100     		.2byte	0x1
 4676 093c 50       		.byte	0x50
 4677 093d 00000000 		.4byte	0
 4678 0941 00000000 		.4byte	0
 4679              		.section	.debug_aranges,"",%progbits
 4680 0000 7C000000 		.4byte	0x7c
 4681 0004 0200     		.2byte	0x2
 4682 0006 00000000 		.4byte	.Ldebug_info0
 4683 000a 04       		.byte	0x4
 4684 000b 00       		.byte	0
 4685 000c 0000     		.2byte	0
 4686 000e 0000     		.2byte	0
ARM GAS  C:\Users\Revanth\AppData\Local\Temp\cctCFyeS.s 			page 109


 4687 0010 00000000 		.4byte	.LFB1
 4688 0014 6C000000 		.4byte	.LFE1-.LFB1
 4689 0018 00000000 		.4byte	.LFB2
 4690 001c A4000000 		.4byte	.LFE2-.LFB2
 4691 0020 00000000 		.4byte	.LFB3
 4692 0024 44000000 		.4byte	.LFE3-.LFB3
 4693 0028 00000000 		.4byte	.LFB6
 4694 002c 28000000 		.4byte	.LFE6-.LFB6
 4695 0030 00000000 		.4byte	.LFB5
 4696 0034 1C010000 		.4byte	.LFE5-.LFB5
 4697 0038 00000000 		.4byte	.LFB7
 4698 003c 18000000 		.4byte	.LFE7-.LFB7
 4699 0040 00000000 		.4byte	.LFB8
 4700 0044 28000000 		.4byte	.LFE8-.LFB8
 4701 0048 00000000 		.4byte	.LFB4
 4702 004c EC010000 		.4byte	.LFE4-.LFB4
 4703 0050 00000000 		.4byte	.LFB9
 4704 0054 4C000000 		.4byte	.LFE9-.LFB9
 4705 0058 00000000 		.4byte	.LFB10
 4706 005c 64000000 		.4byte	.LFE10-.LFB10
 4707 0060 00000000 		.4byte	.LFB11
 4708 0064 AC000000 		.4byte	.LFE11-.LFB11
 4709 0068 00000000 		.4byte	.LFB12
 4710 006c 4C000000 		.4byte	.LFE12-.LFB12
 4711 0070 00000000 		.4byte	.LFB0
 4712 0074 5C030000 		.4byte	.LFE0-.LFB0
 4713 0078 00000000 		.4byte	0
 4714 007c 00000000 		.4byte	0
 4715              		.section	.debug_ranges,"",%progbits
 4716              	.Ldebug_ranges0:
 4717 0000 00000000 		.4byte	.LFB1
 4718 0004 6C000000 		.4byte	.LFE1
 4719 0008 00000000 		.4byte	.LFB2
 4720 000c A4000000 		.4byte	.LFE2
 4721 0010 00000000 		.4byte	.LFB3
 4722 0014 44000000 		.4byte	.LFE3
 4723 0018 00000000 		.4byte	.LFB6
 4724 001c 28000000 		.4byte	.LFE6
 4725 0020 00000000 		.4byte	.LFB5
 4726 0024 1C010000 		.4byte	.LFE5
 4727 0028 00000000 		.4byte	.LFB7
 4728 002c 18000000 		.4byte	.LFE7
 4729 0030 00000000 		.4byte	.LFB8
 4730 0034 28000000 		.4byte	.LFE8
 4731 0038 00000000 		.4byte	.LFB4
 4732 003c EC010000 		.4byte	.LFE4
 4733 0040 00000000 		.4byte	.LFB9
 4734 0044 4C000000 		.4byte	.LFE9
 4735 0048 00000000 		.4byte	.LFB10
 4736 004c 64000000 		.4byte	.LFE10
 4737 0050 00000000 		.4byte	.LFB11
 4738 0054 AC000000 		.4byte	.LFE11
 4739 0058 00000000 		.4byte	.LFB12
 4740 005c 4C000000 		.4byte	.LFE12
 4741 0060 00000000 		.4byte	.LFB0
 4742 0064 5C030000 		.4byte	.LFE0
 4743 0068 00000000 		.4byte	0
ARM GAS  C:\Users\Revanth\AppData\Local\Temp\cctCFyeS.s 			page 110


 4744 006c 00000000 		.4byte	0
 4745              		.section	.debug_line,"",%progbits
 4746              	.Ldebug_line0:
 4747 0000 D3030000 		.section	.debug_str,"MS",%progbits,1
 4747      02006500 
 4747      00000201 
 4747      FB0E0D00 
 4747      01010101 
 4748              	.LASF56:
 4749 0000 72774472 		.ascii	"rwDr\000"
 4749      00
 4750              	.LASF108:
 4751 0005 5553425F 		.ascii	"USB_interfaceSettingLast\000"
 4751      696E7465 
 4751      72666163 
 4751      65536574 
 4751      74696E67 
 4752              	.LASF69:
 4753 001e 5553425F 		.ascii	"USB_ConfigAltChanged\000"
 4753      436F6E66 
 4753      6967416C 
 4753      74436861 
 4753      6E676564 
 4754              	.LASF26:
 4755 0033 62756666 		.ascii	"bufferSize\000"
 4755      65725369 
 4755      7A6500
 4756              	.LASF91:
 4757 003e 636F6E66 		.ascii	"configurationN\000"
 4757      69677572 
 4757      6174696F 
 4757      6E4E00
 4758              	.LASF58:
 4759 004d 73696545 		.ascii	"sieEp\000"
 4759      7000
 4760              	.LASF27:
 4761 0053 696E7465 		.ascii	"interface\000"
 4761      72666163 
 4761      6500
 4762              	.LASF82:
 4763 005d 5553425F 		.ascii	"USB_TerminateEP\000"
 4763      5465726D 
 4763      696E6174 
 4763      65455000 
 4764              	.LASF8:
 4765 006d 756E7369 		.ascii	"unsigned int\000"
 4765      676E6564 
 4765      20696E74 
 4765      00
 4766              	.LASF90:
 4767 007a 696E7465 		.ascii	"interfaceNumber\000"
 4767      72666163 
 4767      654E756D 
 4767      62657200 
 4768              	.LASF92:
 4769 008a 626D5265 		.ascii	"bmRequestType\000"
 4769      71756573 
ARM GAS  C:\Users\Revanth\AppData\Local\Temp\cctCFyeS.s 			page 111


 4769      74547970 
 4769      6500
 4770              	.LASF57:
 4771 0098 5553425F 		.ascii	"USB_arb_ep_struct\000"
 4771      6172625F 
 4771      65705F73 
 4771      74727563 
 4771      7400
 4772              	.LASF16:
 4773 00aa 72656738 		.ascii	"reg8\000"
 4773      00
 4774              	.LASF79:
 4775 00af 70446573 		.ascii	"pDescr\000"
 4775      637200
 4776              	.LASF96:
 4777 00b6 5553425F 		.ascii	"USB_tBuffer\000"
 4777      74427566 
 4777      66657200 
 4778              	.LASF89:
 4779 00c2 5553425F 		.ascii	"USB_HandleStandardRqst\000"
 4779      48616E64 
 4779      6C655374 
 4779      616E6461 
 4779      72645271 
 4780              	.LASF43:
 4781 00d9 5553425F 		.ascii	"USB_ep0_data_struct\000"
 4781      6570305F 
 4781      64617461 
 4781      5F737472 
 4781      75637400 
 4782              	.LASF29:
 4783 00ed 616C7453 		.ascii	"altSetting\000"
 4783      65747469 
 4783      6E6700
 4784              	.LASF22:
 4785 00f8 6570546F 		.ascii	"epToggle\000"
 4785      67676C65 
 4785      00
 4786              	.LASF93:
 4787 0101 70537472 		.ascii	"pStr\000"
 4787      00
 4788              	.LASF12:
 4789 0106 666C6F61 		.ascii	"float\000"
 4789      7400
 4790              	.LASF36:
 4791 010c 636F756E 		.ascii	"count\000"
 4791      7400
 4792              	.LASF52:
 4793 0112 72775761 		.ascii	"rwWa\000"
 4793      00
 4794              	.LASF7:
 4795 0117 6C6F6E67 		.ascii	"long long unsigned int\000"
 4795      206C6F6E 
 4795      6720756E 
 4795      7369676E 
 4795      65642069 
 4796              	.LASF73:
ARM GAS  C:\Users\Revanth\AppData\Local\Temp\cctCFyeS.s 			page 112


 4797 012e 5553425F 		.ascii	"USB_GetConfigTablePtr\000"
 4797      47657443 
 4797      6F6E6669 
 4797      67546162 
 4797      6C655074 
 4798              	.LASF61:
 4799 0144 5553425F 		.ascii	"USB_arb_eps_struct\000"
 4799      6172625F 
 4799      6570735F 
 4799      73747275 
 4799      637400
 4800              	.LASF63:
 4801 0157 5553425F 		.ascii	"USB_ReadDieID\000"
 4801      52656164 
 4801      44696549 
 4801      4400
 4802              	.LASF87:
 4803 0165 5553425F 		.ascii	"USB_ValidateAlternateSetting\000"
 4803      56616C69 
 4803      64617465 
 4803      416C7465 
 4803      726E6174 
 4804              	.LASF47:
 4805 0182 5553425F 		.ascii	"USB_sie_ep_struct\000"
 4805      7369655F 
 4805      65705F73 
 4805      74727563 
 4805      7400
 4806              	.LASF119:
 4807 0194 474E5520 		.ascii	"GNU C11 5.4.1 20160609 (release) [ARM/embedded-5-br"
 4807      43313120 
 4807      352E342E 
 4807      31203230 
 4807      31363036 
 4808 01c7 616E6368 		.ascii	"anch revision 237715] -mcpu=cortex-m3 -mthumb -g -O"
 4808      20726576 
 4808      6973696F 
 4808      6E203233 
 4808      37373135 
 4809 01fa 67202D66 		.ascii	"g -ffunction-sections -ffat-lto-objects\000"
 4809      66756E63 
 4809      74696F6E 
 4809      2D736563 
 4809      74696F6E 
 4810              	.LASF64:
 4811 0222 5553425F 		.ascii	"USB_ConfigReg\000"
 4811      436F6E66 
 4811      69675265 
 4811      6700
 4812              	.LASF49:
 4813 0230 6570496E 		.ascii	"epIntEn\000"
 4813      74456E00 
 4814              	.LASF67:
 4815 0238 636F6E66 		.ascii	"confIndex\000"
 4815      496E6465 
 4815      7800
 4816              	.LASF76:
ARM GAS  C:\Users\Revanth\AppData\Local\Temp\cctCFyeS.s 			page 113


 4817 0242 63757272 		.ascii	"currentInterfacesNum\000"
 4817      656E7449 
 4817      6E746572 
 4817      66616365 
 4817      734E756D 
 4818              	.LASF28:
 4819 0257 545F5553 		.ascii	"T_USB_EP_CTL_BLOCK\000"
 4819      425F4550 
 4819      5F43544C 
 4819      5F424C4F 
 4819      434B00
 4820              	.LASF37:
 4821 026a 70446174 		.ascii	"pData\000"
 4821      6100
 4822              	.LASF105:
 4823 0270 5553425F 		.ascii	"USB_idSerialNumberStringDescriptor\000"
 4823      69645365 
 4823      7269616C 
 4823      4E756D62 
 4823      65725374 
 4824              	.LASF112:
 4825 0293 5553425F 		.ascii	"USB_EP\000"
 4825      455000
 4826              	.LASF117:
 4827 029a 5553425F 		.ascii	"USB_InitControlRead\000"
 4827      496E6974 
 4827      436F6E74 
 4827      726F6C52 
 4827      65616400 
 4828              	.LASF102:
 4829 02ae 5553425F 		.ascii	"USB_TABLE\000"
 4829      5441424C 
 4829      4500
 4830              	.LASF38:
 4831 02b8 70537461 		.ascii	"pStatusBlock\000"
 4831      74757342 
 4831      6C6F636B 
 4831      00
 4832              	.LASF116:
 4833 02c5 5553425F 		.ascii	"USB_InitNoDataControlTransfer\000"
 4833      496E6974 
 4833      4E6F4461 
 4833      7461436F 
 4833      6E74726F 
 4834              	.LASF101:
 4835 02e3 5553425F 		.ascii	"USB_DEVICE0_DESCR\000"
 4835      44455649 
 4835      4345305F 
 4835      44455343 
 4835      5200
 4836              	.LASF113:
 4837 02f5 5553425F 		.ascii	"USB_currentTD\000"
 4837      63757272 
 4837      656E7454 
 4837      4400
 4838              	.LASF15:
 4839 0303 63686172 		.ascii	"char\000"
ARM GAS  C:\Users\Revanth\AppData\Local\Temp\cctCFyeS.s 			page 114


 4839      00
 4840              	.LASF60:
 4841 0308 61726245 		.ascii	"arbEp\000"
 4841      7000
 4842              	.LASF10:
 4843 030e 75696E74 		.ascii	"uint16\000"
 4843      313600
 4844              	.LASF110:
 4845 0315 5553425F 		.ascii	"USB_interfaceStatus\000"
 4845      696E7465 
 4845      72666163 
 4845      65537461 
 4845      74757300 
 4846              	.LASF33:
 4847 0329 73746174 		.ascii	"status\000"
 4847      757300
 4848              	.LASF14:
 4849 0330 63686172 		.ascii	"char8\000"
 4849      3800
 4850              	.LASF25:
 4851 0336 62756666 		.ascii	"buffOffset\000"
 4851      4F666673 
 4851      657400
 4852              	.LASF46:
 4853 0341 65704372 		.ascii	"epCr0\000"
 4853      3000
 4854              	.LASF71:
 4855 0347 65705479 		.ascii	"epType\000"
 4855      706500
 4856              	.LASF99:
 4857 034e 5553425F 		.ascii	"USB_configurationChanged\000"
 4857      636F6E66 
 4857      69677572 
 4857      6174696F 
 4857      6E436861 
 4858              	.LASF85:
 4859 0367 72657175 		.ascii	"requestHandled\000"
 4859      65737448 
 4859      616E646C 
 4859      656400
 4860              	.LASF6:
 4861 0376 6C6F6E67 		.ascii	"long long int\000"
 4861      206C6F6E 
 4861      6720696E 
 4861      7400
 4862              	.LASF100:
 4863 0384 5553425F 		.ascii	"USB_deviceStatus\000"
 4863      64657669 
 4863      63655374 
 4863      61747573 
 4863      00
 4864              	.LASF31:
 4865 0395 624D6973 		.ascii	"bMisc\000"
 4865      6300
 4866              	.LASF44:
 4867 039b 6570436E 		.ascii	"epCnt0\000"
 4867      743000
ARM GAS  C:\Users\Revanth\AppData\Local\Temp\cctCFyeS.s 			page 115


 4868              	.LASF45:
 4869 03a2 6570436E 		.ascii	"epCnt1\000"
 4869      743100
 4870              	.LASF83:
 4871 03a9 65704E75 		.ascii	"epNumber\000"
 4871      6D626572 
 4871      00
 4872              	.LASF59:
 4873 03b2 5553425F 		.ascii	"USB_sie_eps_struct\000"
 4873      7369655F 
 4873      6570735F 
 4873      73747275 
 4873      637400
 4874              	.LASF121:
 4875 03c5 433A5C55 		.ascii	"C:\\Users\\Revanth\\Documents\\GitHub\\AS76_FFP\\AS"
 4875      73657273 
 4875      5C526576 
 4875      616E7468 
 4875      5C446F63 
 4876 03f2 37365F46 		.ascii	"76_FFP\\AS76_FFP6.cydsn\000"
 4876      46505C41 
 4876      5337365F 
 4876      46465036 
 4876      2E637964 
 4877              	.LASF21:
 4878 0409 68774570 		.ascii	"hwEpState\000"
 4878      53746174 
 4878      6500
 4879              	.LASF84:
 4880 0413 5553425F 		.ascii	"USB_SetEndpointHalt\000"
 4880      53657445 
 4880      6E64706F 
 4880      696E7448 
 4880      616C7400 
 4881              	.LASF81:
 4882 0427 63646343 		.ascii	"cdcComNums\000"
 4882      6F6D4E75 
 4882      6D7300
 4883              	.LASF11:
 4884 0432 75696E74 		.ascii	"uint32\000"
 4884      333200
 4885              	.LASF75:
 4886 0439 70496E74 		.ascii	"pInterfaceClass\000"
 4886      65726661 
 4886      6365436C 
 4886      61737300 
 4887              	.LASF115:
 4888 0449 5553425F 		.ascii	"USB_Cdc_EpInit\000"
 4888      4364635F 
 4888      4570496E 
 4888      697400
 4889              	.LASF111:
 4890 0458 5553425F 		.ascii	"USB_interfaceClass\000"
 4890      696E7465 
 4890      72666163 
 4890      65436C61 
 4890      737300
ARM GAS  C:\Users\Revanth\AppData\Local\Temp\cctCFyeS.s 			page 116


 4891              	.LASF66:
 4892 046b 64657363 		.ascii	"descr\000"
 4892      7200
 4893              	.LASF122:
 4894 0471 5553425F 		.ascii	"USB_GetDeviceTablePtr\000"
 4894      47657444 
 4894      65766963 
 4894      65546162 
 4894      6C655074 
 4895              	.LASF17:
 4896 0487 6C6F6E67 		.ascii	"long double\000"
 4896      20646F75 
 4896      626C6500 
 4897              	.LASF80:
 4898 0493 62756666 		.ascii	"buffCount\000"
 4898      436F756E 
 4898      7400
 4899              	.LASF86:
 4900 049d 5553425F 		.ascii	"USB_ClearEndpointHalt\000"
 4900      436C6561 
 4900      72456E64 
 4900      706F696E 
 4900      7448616C 
 4901              	.LASF103:
 4902 04b3 5553425F 		.ascii	"USB_STRING_DESCRIPTORS\000"
 4902      53545249 
 4902      4E475F44 
 4902      45534352 
 4902      4950544F 
 4903              	.LASF2:
 4904 04ca 73686F72 		.ascii	"short int\000"
 4904      7420696E 
 4904      7400
 4905              	.LASF24:
 4906 04d4 65704D6F 		.ascii	"epMode\000"
 4906      646500
 4907              	.LASF4:
 4908 04db 6C6F6E67 		.ascii	"long int\000"
 4908      20696E74 
 4908      00
 4909              	.LASF34:
 4910 04e4 6C656E67 		.ascii	"length\000"
 4910      746800
 4911              	.LASF55:
 4912 04eb 72775261 		.ascii	"rwRaMsb\000"
 4912      4D736200 
 4913              	.LASF48:
 4914 04f3 65704366 		.ascii	"epCfg\000"
 4914      6700
 4915              	.LASF120:
 4916 04f9 47656E65 		.ascii	"Generated_Source\\PSoC5\\USB_std.c\000"
 4916      72617465 
 4916      645F536F 
 4916      75726365 
 4916      5C50536F 
 4917              	.LASF68:
 4918 051a 70546D70 		.ascii	"pTmp\000"
ARM GAS  C:\Users\Revanth\AppData\Local\Temp\cctCFyeS.s 			page 117


 4918      00
 4919              	.LASF118:
 4920 051f 5553425F 		.ascii	"USB_DispatchClassRqst\000"
 4920      44697370 
 4920      61746368 
 4920      436C6173 
 4920      73527173 
 4921              	.LASF104:
 4922 0535 5553425F 		.ascii	"USB_MSOS_DESCRIPTOR\000"
 4922      4D534F53 
 4922      5F444553 
 4922      43524950 
 4922      544F5200 
 4923              	.LASF18:
 4924 0549 73697A65 		.ascii	"sizetype\000"
 4924      74797065 
 4924      00
 4925              	.LASF5:
 4926 0552 6C6F6E67 		.ascii	"long unsigned int\000"
 4926      20756E73 
 4926      69676E65 
 4926      6420696E 
 4926      7400
 4927              	.LASF70:
 4928 0564 63757245 		.ascii	"curEp\000"
 4928      7000
 4929              	.LASF94:
 4930 056a 6E537472 		.ascii	"nStr\000"
 4930      00
 4931              	.LASF65:
 4932 056f 5553425F 		.ascii	"USB_EpStateInit\000"
 4932      45705374 
 4932      61746549 
 4932      6E697400 
 4933              	.LASF50:
 4934 057f 65705372 		.ascii	"epSr\000"
 4934      00
 4935              	.LASF40:
 4936 0584 705F6C69 		.ascii	"p_list\000"
 4936      737400
 4937              	.LASF39:
 4938 058b 545F5553 		.ascii	"T_USB_TD\000"
 4938      425F5444 
 4938      00
 4939              	.LASF53:
 4940 0594 72775761 		.ascii	"rwWaMsb\000"
 4940      4D736200 
 4941              	.LASF1:
 4942 059c 756E7369 		.ascii	"unsigned char\000"
 4942      676E6564 
 4942      20636861 
 4942      7200
 4943              	.LASF114:
 4944 05aa 43794765 		.ascii	"CyGetUniqueId\000"
 4944      74556E69 
 4944      71756549 
 4944      6400
ARM GAS  C:\Users\Revanth\AppData\Local\Temp\cctCFyeS.s 			page 118


 4945              	.LASF95:
 4946 05b8 64657363 		.ascii	"descrLength\000"
 4946      724C656E 
 4946      67746800 
 4947              	.LASF78:
 4948 05c4 636C6561 		.ascii	"clearAltSetting\000"
 4948      72416C74 
 4948      53657474 
 4948      696E6700 
 4949              	.LASF32:
 4950 05d4 545F5553 		.ascii	"T_USB_EP_SETTINGS_BLOCK\000"
 4950      425F4550 
 4950      5F534554 
 4950      54494E47 
 4950      535F424C 
 4951              	.LASF106:
 4952 05ec 5553425F 		.ascii	"USB_interfaceNumber\000"
 4952      696E7465 
 4952      72666163 
 4952      654E756D 
 4952      62657200 
 4953              	.LASF30:
 4954 0600 61747472 		.ascii	"attributes\000"
 4954      69627574 
 4954      657300
 4955              	.LASF97:
 4956 060b 5553425F 		.ascii	"USB_device\000"
 4956      64657669 
 4956      636500
 4957              	.LASF23:
 4958 0616 61646472 		.ascii	"addr\000"
 4958      00
 4959              	.LASF107:
 4960 061b 5553425F 		.ascii	"USB_interfaceSetting\000"
 4960      696E7465 
 4960      72666163 
 4960      65536574 
 4960      74696E67 
 4961              	.LASF98:
 4962 0630 5553425F 		.ascii	"USB_configuration\000"
 4962      636F6E66 
 4962      69677572 
 4962      6174696F 
 4962      6E00
 4963              	.LASF109:
 4964 0642 5553425F 		.ascii	"USB_deviceAddress\000"
 4964      64657669 
 4964      63654164 
 4964      64726573 
 4964      7300
 4965              	.LASF54:
 4966 0654 72775261 		.ascii	"rwRa\000"
 4966      00
 4967              	.LASF0:
 4968 0659 7369676E 		.ascii	"signed char\000"
 4968      65642063 
 4968      68617200 
ARM GAS  C:\Users\Revanth\AppData\Local\Temp\cctCFyeS.s 			page 119


 4969              	.LASF41:
 4970 0665 545F5553 		.ascii	"T_USB_LUT\000"
 4970      425F4C55 
 4970      5400
 4971              	.LASF3:
 4972 066f 73686F72 		.ascii	"short unsigned int\000"
 4972      7420756E 
 4972      7369676E 
 4972      65642069 
 4972      6E7400
 4973              	.LASF62:
 4974 0682 756E6971 		.ascii	"uniqueId\000"
 4974      75654964 
 4974      00
 4975              	.LASF51:
 4976 068b 72657365 		.ascii	"reserved\000"
 4976      72766564 
 4976      00
 4977              	.LASF9:
 4978 0694 75696E74 		.ascii	"uint8\000"
 4978      3800
 4979              	.LASF13:
 4980 069a 646F7562 		.ascii	"double\000"
 4980      6C6500
 4981              	.LASF77:
 4982 06a1 5553425F 		.ascii	"USB_Config\000"
 4982      436F6E66 
 4982      696700
 4983              	.LASF72:
 4984 06ac 696E7465 		.ascii	"interfaceNum\000"
 4984      72666163 
 4984      654E756D 
 4984      00
 4985              	.LASF88:
 4986 06b9 63757249 		.ascii	"curInterfacesNum\000"
 4986      6E746572 
 4986      66616365 
 4986      734E756D 
 4986      00
 4987              	.LASF19:
 4988 06ca 61747472 		.ascii	"attrib\000"
 4988      696200
 4989              	.LASF20:
 4990 06d1 61706945 		.ascii	"apiEpState\000"
 4990      70537461 
 4990      746500
 4991              	.LASF74:
 4992 06dc 5553425F 		.ascii	"USB_GetInterfaceClassTablePtr\000"
 4992      47657449 
 4992      6E746572 
 4992      66616365 
 4992      436C6173 
 4993              	.LASF35:
 4994 06fa 545F5553 		.ascii	"T_USB_XFER_STATUS_BLOCK\000"
 4994      425F5846 
 4994      45525F53 
 4994      54415455 
ARM GAS  C:\Users\Revanth\AppData\Local\Temp\cctCFyeS.s 			page 120


 4994      535F424C 
 4995              	.LASF42:
 4996 0712 65704461 		.ascii	"epData\000"
 4996      746100
 4997              		.ident	"GCC: (GNU Tools for ARM Embedded Processors) 5.4.1 20160609 (release) [ARM/embedded-5-bran
