Archive member included to satisfy reference by file (symbol)

.\CortexM3\ARM_GCC_541\Debug\Half_Skeleton_V2_LED_ARRAY.a(Pin_CSMotorX.o)
                              .\CortexM3\ARM_GCC_541\Debug\AS76.o (Pin_CSMotorX_Write)
.\CortexM3\ARM_GCC_541\Debug\Half_Skeleton_V2_LED_ARRAY.a(Pin_CSMotorY.o)
                              .\CortexM3\ARM_GCC_541\Debug\AS76.o (Pin_CSMotorY_Write)
.\CortexM3\ARM_GCC_541\Debug\Half_Skeleton_V2_LED_ARRAY.a(Pin_CSMotorZ.o)
                              .\CortexM3\ARM_GCC_541\Debug\AS76.o (Pin_CSMotorZ_Write)
.\CortexM3\ARM_GCC_541\Debug\Half_Skeleton_V2_LED_ARRAY.a(SPIM.o)
                              .\CortexM3\ARM_GCC_541\Debug\AS76.o (SPIM_WriteTxData)
.\CortexM3\ARM_GCC_541\Debug\Half_Skeleton_V2_LED_ARRAY.a(SPIM_INT.o)
                              .\CortexM3\ARM_GCC_541\Debug\Half_Skeleton_V2_LED_ARRAY.a(SPIM.o) (SPIM_TX_ISR)
.\CortexM3\ARM_GCC_541\Debug\Half_Skeleton_V2_LED_ARRAY.a(CyLib.o)
                              .\CortexM3\ARM_GCC_541\Debug\Cm3Start.o (CyHalt)
.\CortexM3\ARM_GCC_541\Debug\Half_Skeleton_V2_LED_ARRAY.a(cyPm.o)
                              .\CortexM3\ARM_GCC_541\Debug\Half_Skeleton_V2_LED_ARRAY.a(CyLib.o) (CyPmReadStatus)
.\CortexM3\ARM_GCC_541\Debug\Half_Skeleton_V2_LED_ARRAY.a(USB.o)
                              .\CortexM3\ARM_GCC_541\Debug\AS76.o (USB_Start)
.\CortexM3\ARM_GCC_541\Debug\Half_Skeleton_V2_LED_ARRAY.a(USB_cdc.o)
                              .\CortexM3\ARM_GCC_541\Debug\AS76.o (USB_CDC_Init)
.\CortexM3\ARM_GCC_541\Debug\Half_Skeleton_V2_LED_ARRAY.a(USB_drv.o)
                              .\CortexM3\ARM_GCC_541\Debug\Half_Skeleton_V2_LED_ARRAY.a(USB.o) (USB_lastPacketSize)
.\CortexM3\ARM_GCC_541\Debug\Half_Skeleton_V2_LED_ARRAY.a(USB_episr.o)
                              .\CortexM3\ARM_GCC_541\Debug\Half_Skeleton_V2_LED_ARRAY.a(USB.o) (USB_EP_1_ISR)
.\CortexM3\ARM_GCC_541\Debug\Half_Skeleton_V2_LED_ARRAY.a(USB_hid.o)
                              .\CortexM3\ARM_GCC_541\Debug\Half_Skeleton_V2_LED_ARRAY.a(USB.o) (USB_hidProtocol)
.\CortexM3\ARM_GCC_541\Debug\Half_Skeleton_V2_LED_ARRAY.a(USB_pm.o)
                              .\CortexM3\ARM_GCC_541\Debug\Half_Skeleton_V2_LED_ARRAY.a(USB.o) (USB_DP_ISR)
.\CortexM3\ARM_GCC_541\Debug\Half_Skeleton_V2_LED_ARRAY.a(USB_std.o)
                              .\CortexM3\ARM_GCC_541\Debug\Half_Skeleton_V2_LED_ARRAY.a(USB_pm.o) (USB_ConfigReg)
.\CortexM3\ARM_GCC_541\Debug\Half_Skeleton_V2_LED_ARRAY.a(USB_vnd.o)
                              .\CortexM3\ARM_GCC_541\Debug\Half_Skeleton_V2_LED_ARRAY.a(USB_drv.o) (USB_HandleVendorRqst)
.\CortexM3\ARM_GCC_541\Debug\Half_Skeleton_V2_LED_ARRAY.a(USB_Dp.o)
                              .\CortexM3\ARM_GCC_541\Debug\Half_Skeleton_V2_LED_ARRAY.a(USB.o) (USB_Dp_ClearInterrupt)
.\CortexM3\ARM_GCC_541\Debug\Half_Skeleton_V2_LED_ARRAY.a(PWM_CondenserLED.o)
                              .\CortexM3\ARM_GCC_541\Debug\AS76.o (PWM_CondenserLED_WriteCompare)
.\CortexM3\ARM_GCC_541\Debug\Half_Skeleton_V2_LED_ARRAY.a(SPIM_IntClock.o)
                              .\CortexM3\ARM_GCC_541\Debug\Half_Skeleton_V2_LED_ARRAY.a(SPIM.o) (SPIM_IntClock_Start)
.\CortexM3\ARM_GCC_541\Debug\Half_Skeleton_V2_LED_ARRAY.a(QuadDec_X.o)
                              .\CortexM3\ARM_GCC_541\Debug\AS76.o (QuadDec_X_GetCounter)
.\CortexM3\ARM_GCC_541\Debug\Half_Skeleton_V2_LED_ARRAY.a(QuadDec_X_INT.o)
                              .\CortexM3\ARM_GCC_541\Debug\Half_Skeleton_V2_LED_ARRAY.a(QuadDec_X.o) (QuadDec_X_ISR)
.\CortexM3\ARM_GCC_541\Debug\Half_Skeleton_V2_LED_ARRAY.a(QuadDec_X_Cnt16.o)
                              .\CortexM3\ARM_GCC_541\Debug\Half_Skeleton_V2_LED_ARRAY.a(QuadDec_X.o) (QuadDec_X_Cnt16_Stop)
.\CortexM3\ARM_GCC_541\Debug\Half_Skeleton_V2_LED_ARRAY.a(UART_PCB_LOG.o)
                              .\CortexM3\ARM_GCC_541\Debug\main.o (UART_PCB_LOG_Start)
.\CortexM3\ARM_GCC_541\Debug\Half_Skeleton_V2_LED_ARRAY.a(UART_PCB_LOG_INT.o)
                              .\CortexM3\ARM_GCC_541\Debug\Half_Skeleton_V2_LED_ARRAY.a(UART_PCB_LOG.o) (UART_PCB_LOG_RXISR)
.\CortexM3\ARM_GCC_541\Debug\Half_Skeleton_V2_LED_ARRAY.a(UART_PCB_LOG_IntClock.o)
                              .\CortexM3\ARM_GCC_541\Debug\Half_Skeleton_V2_LED_ARRAY.a(UART_PCB_LOG.o) (UART_PCB_LOG_IntClock_Start)
.\CortexM3\ARM_GCC_541\Debug\Half_Skeleton_V2_LED_ARRAY.a(Pin_Backlight.o)
                              .\CortexM3\ARM_GCC_541\Debug\AS76.o (Pin_Backlight_Write)
.\CortexM3\ARM_GCC_541\Debug\Half_Skeleton_V2_LED_ARRAY.a(LED2.o)
                              .\CortexM3\ARM_GCC_541\Debug\main.o (LED2_Write)
.\CortexM3\ARM_GCC_541\Debug\Half_Skeleton_V2_LED_ARRAY.a(Pin_CSMotorO.o)
                              .\CortexM3\ARM_GCC_541\Debug\AS76.o (Pin_CSMotorO_Write)
.\CortexM3\ARM_GCC_541\Debug\Half_Skeleton_V2_LED_ARRAY.a(Pin_CSMotorT.o)
                              .\CortexM3\ARM_GCC_541\Debug\AS76.o (Pin_CSMotorT_Write)
.\CortexM3\ARM_GCC_541\Debug\Half_Skeleton_V2_LED_ARRAY.a(QuadDec_TZ.o)
                              .\CortexM3\ARM_GCC_541\Debug\AS76.o (QuadDec_TZ_GetCounter)
.\CortexM3\ARM_GCC_541\Debug\Half_Skeleton_V2_LED_ARRAY.a(QuadDec_TZ_INT.o)
                              .\CortexM3\ARM_GCC_541\Debug\Half_Skeleton_V2_LED_ARRAY.a(QuadDec_TZ.o) (QuadDec_TZ_ISR)
.\CortexM3\ARM_GCC_541\Debug\Half_Skeleton_V2_LED_ARRAY.a(PWM_Buzzer.o)
                              .\CortexM3\ARM_GCC_541\Debug\AS76.o (PWM_Buzzer_WriteCompare)
.\CortexM3\ARM_GCC_541\Debug\Half_Skeleton_V2_LED_ARRAY.a(QuadDec_Y.o)
                              .\CortexM3\ARM_GCC_541\Debug\AS76.o (QuadDec_Y_GetCounter)
.\CortexM3\ARM_GCC_541\Debug\Half_Skeleton_V2_LED_ARRAY.a(QuadDec_Y_INT.o)
                              .\CortexM3\ARM_GCC_541\Debug\Half_Skeleton_V2_LED_ARRAY.a(QuadDec_Y.o) (QuadDec_Y_ISR)
.\CortexM3\ARM_GCC_541\Debug\Half_Skeleton_V2_LED_ARRAY.a(PWM_BarcodeCondenser_LED.o)
                              .\CortexM3\ARM_GCC_541\Debug\AS76.o (PWM_BarcodeCondenser_LED_WriteCompare)
.\CortexM3\ARM_GCC_541\Debug\Half_Skeleton_V2_LED_ARRAY.a(LED3.o)
                              .\CortexM3\ARM_GCC_541\Debug\main.o (LED3_Write)
.\CortexM3\ARM_GCC_541\Debug\Half_Skeleton_V2_LED_ARRAY.a(Encoder_T_Z_Select.o)
                              .\CortexM3\ARM_GCC_541\Debug\AS76.o (Encoder_T_Z_Select_Write)
.\CortexM3\ARM_GCC_541\Debug\Half_Skeleton_V2_LED_ARRAY.a(TMC5160_MotorX_EN.o)
                              .\CortexM3\ARM_GCC_541\Debug\main.o (TMC5160_MotorX_EN_Write)
.\CortexM3\ARM_GCC_541\Debug\Half_Skeleton_V2_LED_ARRAY.a(TMC5160_MotorY_EN.o)
                              .\CortexM3\ARM_GCC_541\Debug\main.o (TMC5160_MotorY_EN_Write)
.\CortexM3\ARM_GCC_541\Debug\Half_Skeleton_V2_LED_ARRAY.a(TMC5160_MotorZ_EN.o)
                              .\CortexM3\ARM_GCC_541\Debug\main.o (TMC5160_MotorZ_EN_Write)
.\CortexM3\ARM_GCC_541\Debug\Half_Skeleton_V2_LED_ARRAY.a(TMC5160_MotorT_EN.o)
                              .\CortexM3\ARM_GCC_541\Debug\AS76.o (TMC5160_MotorT_EN_Write)
.\CortexM3\ARM_GCC_541\Debug\Half_Skeleton_V2_LED_ARRAY.a(TMC5160_MotorO_EN.o)
                              .\CortexM3\ARM_GCC_541\Debug\AS76.o (TMC5160_MotorO_EN_Write)
.\CortexM3\ARM_GCC_541\Debug\Half_Skeleton_V2_LED_ARRAY.a(QuadDec_TZ_Cnt16.o)
                              .\CortexM3\ARM_GCC_541\Debug\Half_Skeleton_V2_LED_ARRAY.a(QuadDec_TZ.o) (QuadDec_TZ_Cnt16_Stop)
.\CortexM3\ARM_GCC_541\Debug\Half_Skeleton_V2_LED_ARRAY.a(QuadDec_Y_Cnt16.o)
                              .\CortexM3\ARM_GCC_541\Debug\Half_Skeleton_V2_LED_ARRAY.a(QuadDec_Y.o) (QuadDec_Y_Cnt16_Stop)
.\CortexM3\ARM_GCC_541\Debug\Half_Skeleton_V2_LED_ARRAY.a(wait_timer.o)
                              .\CortexM3\ARM_GCC_541\Debug\AS76.o (wait_timer_Stop)
.\CortexM3\ARM_GCC_541\Debug\Half_Skeleton_V2_LED_ARRAY.a(wait_interrupt.o)
                              .\CortexM3\ARM_GCC_541\Debug\AS76.o (wait_interrupt_StartEx)
.\CortexM3\ARM_GCC_541\Debug\Half_Skeleton_V2_LED_ARRAY.a(X_MOT_INT.o)
                              .\CortexM3\ARM_GCC_541\Debug\AS76.o (X_MOT_INT_Read)
.\CortexM3\ARM_GCC_541\Debug\Half_Skeleton_V2_LED_ARRAY.a(Y_MOT_INT.o)
                              .\CortexM3\ARM_GCC_541\Debug\AS76.o (Y_MOT_INT_Read)
.\CortexM3\ARM_GCC_541\Debug\Half_Skeleton_V2_LED_ARRAY.a(Z_MOT_INT.o)
                              .\CortexM3\ARM_GCC_541\Debug\AS76.o (Z_MOT_INT_Read)
.\CortexM3\ARM_GCC_541\Debug\Half_Skeleton_V2_LED_ARRAY.a(Camera_Trigger.o)
                              .\CortexM3\ARM_GCC_541\Debug\AS76.o (Camera_Trigger_Write)
.\CortexM3\ARM_GCC_541\Debug\Half_Skeleton_V2_LED_ARRAY.a(Pin_SDI_RGB.o)
                              .\CortexM3\ARM_GCC_541\Debug\APA102.o (Pin_SDI_RGB_Write)
.\CortexM3\ARM_GCC_541\Debug\Half_Skeleton_V2_LED_ARRAY.a(Pin_Clock_RGB.o)
                              .\CortexM3\ARM_GCC_541\Debug\APA102.o (Pin_Clock_RGB_Write)
.\CortexM3\ARM_GCC_541\Debug\Half_Skeleton_V2_LED_ARRAY.a(Pin_MOSI_PCA9959.o)
                              .\CortexM3\ARM_GCC_541\Debug\PCA9959.o (Pin_MOSI_PCA9959_Write)
.\CortexM3\ARM_GCC_541\Debug\Half_Skeleton_V2_LED_ARRAY.a(Pin_SCK_PCA9959.o)
                              .\CortexM3\ARM_GCC_541\Debug\PCA9959.o (Pin_SCK_PCA9959_Write)
.\CortexM3\ARM_GCC_541\Debug\Half_Skeleton_V2_LED_ARRAY.a(Pin_SS_PCA9959.o)
                              .\CortexM3\ARM_GCC_541\Debug\PCA9959.o (Pin_SS_PCA9959_Write)
.\CortexM3\ARM_GCC_541\Debug\Half_Skeleton_V2_LED_ARRAY.a(Pin_OE_PCA9959_1.o)
                              .\CortexM3\ARM_GCC_541\Debug\PCA9959.o (Pin_OE_PCA9959_1_Write)
.\CortexM3\ARM_GCC_541\Debug\Half_Skeleton_V2_LED_ARRAY.a(Pin_OE_PCA9959_2.o)
                              .\CortexM3\ARM_GCC_541\Debug\PCA9959.o (Pin_OE_PCA9959_2_Write)
.\CortexM3\ARM_GCC_541\Debug\Half_Skeleton_V2_LED_ARRAY.a(Pin_OE_PCA9959_3.o)
                              .\CortexM3\ARM_GCC_541\Debug\PCA9959.o (Pin_OE_PCA9959_3_Write)
.\CortexM3\ARM_GCC_541\Debug\Half_Skeleton_V2_LED_ARRAY.a(Pin_OE_PCA9959_4.o)
                              .\CortexM3\ARM_GCC_541\Debug\PCA9959.o (Pin_OE_PCA9959_4_Write)
.\CortexM3\ARM_GCC_541\Debug\Half_Skeleton_V2_LED_ARRAY.a(Pin_RST_PCA9959.o)
                              .\CortexM3\ARM_GCC_541\Debug\PCA9959.o (Pin_RST_PCA9959_Write)
.\CortexM3\ARM_GCC_541\Debug\Half_Skeleton_V2_LED_ARRAY.a(CyBootAsmGnu.o)
                              .\CortexM3\ARM_GCC_541\Debug\cyfitter_cfg.o (CyDelayCycles)
.\CortexM3\ARM_GCC_541\Debug\Half_Skeleton_V2_LED_ARRAY.a(CyFlash.o)
                              .\CortexM3\ARM_GCC_541\Debug\Half_Skeleton_V2_LED_ARRAY.a(cyPm.o) (CyFlash_SetWaitCycles)
.\CortexM3\ARM_GCC_541\Debug\Half_Skeleton_V2_LED_ARRAY.a(CySpc.o)
                              .\CortexM3\ARM_GCC_541\Debug\Half_Skeleton_V2_LED_ARRAY.a(CyFlash.o) (CySpcStart)
.\CortexM3\ARM_GCC_541\Debug\Half_Skeleton_V2_LED_ARRAY.a(USB_cls.o)
                              .\CortexM3\ARM_GCC_541\Debug\Half_Skeleton_V2_LED_ARRAY.a(USB_drv.o) (USB_DispatchClassRqst)
.\CortexM3\ARM_GCC_541\Debug\Half_Skeleton_V2_LED_ARRAY.a(USB_descr.o)
                              .\CortexM3\ARM_GCC_541\Debug\Half_Skeleton_V2_LED_ARRAY.a(USB_std.o) (USB_idSerialNumberStringDescriptor)
c:/program files (x86)/cypress/psoc creator/4.4/psoc creator/import/gnu/arm/5.4.1/bin/../lib/gcc/arm-none-eabi/5.4.1/../../../../arm-none-eabi/lib/armv7-m\libm.a(lib_a-w_pow.o)
                              .\CortexM3\ARM_GCC_541\Debug\AS76.o (pow)
c:/program files (x86)/cypress/psoc creator/4.4/psoc creator/import/gnu/arm/5.4.1/bin/../lib/gcc/arm-none-eabi/5.4.1/../../../../arm-none-eabi/lib/armv7-m\libm.a(lib_a-e_pow.o)
                              c:/program files (x86)/cypress/psoc creator/4.4/psoc creator/import/gnu/arm/5.4.1/bin/../lib/gcc/arm-none-eabi/5.4.1/../../../../arm-none-eabi/lib/armv7-m\libm.a(lib_a-w_pow.o) (__ieee754_pow)
c:/program files (x86)/cypress/psoc creator/4.4/psoc creator/import/gnu/arm/5.4.1/bin/../lib/gcc/arm-none-eabi/5.4.1/../../../../arm-none-eabi/lib/armv7-m\libm.a(lib_a-e_sqrt.o)
                              c:/program files (x86)/cypress/psoc creator/4.4/psoc creator/import/gnu/arm/5.4.1/bin/../lib/gcc/arm-none-eabi/5.4.1/../../../../arm-none-eabi/lib/armv7-m\libm.a(lib_a-e_pow.o) (__ieee754_sqrt)
c:/program files (x86)/cypress/psoc creator/4.4/psoc creator/import/gnu/arm/5.4.1/bin/../lib/gcc/arm-none-eabi/5.4.1/../../../../arm-none-eabi/lib/armv7-m\libm.a(lib_a-s_fabs.o)
                              c:/program files (x86)/cypress/psoc creator/4.4/psoc creator/import/gnu/arm/5.4.1/bin/../lib/gcc/arm-none-eabi/5.4.1/../../../../arm-none-eabi/lib/armv7-m\libm.a(lib_a-e_pow.o) (fabs)
c:/program files (x86)/cypress/psoc creator/4.4/psoc creator/import/gnu/arm/5.4.1/bin/../lib/gcc/arm-none-eabi/5.4.1/../../../../arm-none-eabi/lib/armv7-m\libm.a(lib_a-s_finite.o)
                              c:/program files (x86)/cypress/psoc creator/4.4/psoc creator/import/gnu/arm/5.4.1/bin/../lib/gcc/arm-none-eabi/5.4.1/../../../../arm-none-eabi/lib/armv7-m\libm.a(lib_a-w_pow.o) (finite)
c:/program files (x86)/cypress/psoc creator/4.4/psoc creator/import/gnu/arm/5.4.1/bin/../lib/gcc/arm-none-eabi/5.4.1/../../../../arm-none-eabi/lib/armv7-m\libm.a(lib_a-s_lib_ver.o)
                              c:/program files (x86)/cypress/psoc creator/4.4/psoc creator/import/gnu/arm/5.4.1/bin/../lib/gcc/arm-none-eabi/5.4.1/../../../../arm-none-eabi/lib/armv7-m\libm.a(lib_a-w_pow.o) (__fdlib_version)
c:/program files (x86)/cypress/psoc creator/4.4/psoc creator/import/gnu/arm/5.4.1/bin/../lib/gcc/arm-none-eabi/5.4.1/../../../../arm-none-eabi/lib/armv7-m\libm.a(lib_a-s_matherr.o)
                              c:/program files (x86)/cypress/psoc creator/4.4/psoc creator/import/gnu/arm/5.4.1/bin/../lib/gcc/arm-none-eabi/5.4.1/../../../../arm-none-eabi/lib/armv7-m\libm.a(lib_a-w_pow.o) (matherr)
c:/program files (x86)/cypress/psoc creator/4.4/psoc creator/import/gnu/arm/5.4.1/bin/../lib/gcc/arm-none-eabi/5.4.1/../../../../arm-none-eabi/lib/armv7-m\libm.a(lib_a-s_nan.o)
                              c:/program files (x86)/cypress/psoc creator/4.4/psoc creator/import/gnu/arm/5.4.1/bin/../lib/gcc/arm-none-eabi/5.4.1/../../../../arm-none-eabi/lib/armv7-m\libm.a(lib_a-e_pow.o) (nan)
c:/program files (x86)/cypress/psoc creator/4.4/psoc creator/import/gnu/arm/5.4.1/bin/../lib/gcc/arm-none-eabi/5.4.1/../../../../arm-none-eabi/lib/armv7-m\libm.a(lib_a-s_rint.o)
                              c:/program files (x86)/cypress/psoc creator/4.4/psoc creator/import/gnu/arm/5.4.1/bin/../lib/gcc/arm-none-eabi/5.4.1/../../../../arm-none-eabi/lib/armv7-m\libm.a(lib_a-w_pow.o) (rint)
c:/program files (x86)/cypress/psoc creator/4.4/psoc creator/import/gnu/arm/5.4.1/bin/../lib/gcc/arm-none-eabi/5.4.1/../../../../arm-none-eabi/lib/armv7-m\libm.a(lib_a-s_scalbn.o)
                              c:/program files (x86)/cypress/psoc creator/4.4/psoc creator/import/gnu/arm/5.4.1/bin/../lib/gcc/arm-none-eabi/5.4.1/../../../../arm-none-eabi/lib/armv7-m\libm.a(lib_a-e_pow.o) (scalbn)
c:/program files (x86)/cypress/psoc creator/4.4/psoc creator/import/gnu/arm/5.4.1/bin/../lib/gcc/arm-none-eabi/5.4.1/../../../../arm-none-eabi/lib/armv7-m\libm.a(lib_a-s_copysign.o)
                              c:/program files (x86)/cypress/psoc creator/4.4/psoc creator/import/gnu/arm/5.4.1/bin/../lib/gcc/arm-none-eabi/5.4.1/../../../../arm-none-eabi/lib/armv7-m\libm.a(lib_a-s_scalbn.o) (copysign)
c:/program files (x86)/cypress/psoc creator/4.4/psoc creator/import/gnu/arm/5.4.1/bin/../lib/gcc/arm-none-eabi/5.4.1/armv7-m\libgcc.a(_arm_addsubdf3.o)
                              .\CortexM3\ARM_GCC_541\Debug\AS76.o (__aeabi_dsub)
c:/program files (x86)/cypress/psoc creator/4.4/psoc creator/import/gnu/arm/5.4.1/bin/../lib/gcc/arm-none-eabi/5.4.1/armv7-m\libgcc.a(_arm_muldivdf3.o)
                              .\CortexM3\ARM_GCC_541\Debug\AS76.o (__aeabi_dmul)
c:/program files (x86)/cypress/psoc creator/4.4/psoc creator/import/gnu/arm/5.4.1/bin/../lib/gcc/arm-none-eabi/5.4.1/armv7-m\libgcc.a(_arm_cmpdf2.o)
                              c:/program files (x86)/cypress/psoc creator/4.4/psoc creator/import/gnu/arm/5.4.1/bin/../lib/gcc/arm-none-eabi/5.4.1/../../../../arm-none-eabi/lib/armv7-m\libm.a(lib_a-w_pow.o) (__aeabi_dcmpeq)
c:/program files (x86)/cypress/psoc creator/4.4/psoc creator/import/gnu/arm/5.4.1/bin/../lib/gcc/arm-none-eabi/5.4.1/armv7-m\libgcc.a(_arm_unorddf2.o)
                              c:/program files (x86)/cypress/psoc creator/4.4/psoc creator/import/gnu/arm/5.4.1/bin/../lib/gcc/arm-none-eabi/5.4.1/../../../../arm-none-eabi/lib/armv7-m\libm.a(lib_a-w_pow.o) (__aeabi_dcmpun)
c:/program files (x86)/cypress/psoc creator/4.4/psoc creator/import/gnu/arm/5.4.1/bin/../lib/gcc/arm-none-eabi/5.4.1/armv7-m\libgcc.a(_arm_fixdfsi.o)
                              .\CortexM3\ARM_GCC_541\Debug\AS76.o (__aeabi_d2iz)
c:/program files (x86)/cypress/psoc creator/4.4/psoc creator/import/gnu/arm/5.4.1/bin/../lib/gcc/arm-none-eabi/5.4.1/armv7-m\libgcc.a(_arm_fixunsdfsi.o)
                              .\CortexM3\ARM_GCC_541\Debug\AS76.o (__aeabi_d2uiz)
c:/program files (x86)/cypress/psoc creator/4.4/psoc creator/import/gnu/arm/5.4.1/bin/../lib/gcc/arm-none-eabi/5.4.1/armv7-m\libgcc.a(_arm_truncdfsf2.o)
                              .\CortexM3\ARM_GCC_541\Debug\AS76.o (__aeabi_d2f)
c:/program files (x86)/cypress/psoc creator/4.4/psoc creator/import/gnu/arm/5.4.1/bin/../lib/gcc/arm-none-eabi/5.4.1/armv7-m\libgcc.a(_arm_addsubsf3.o)
                              .\CortexM3\ARM_GCC_541\Debug\AS76.o (__aeabi_fsub)
c:/program files (x86)/cypress/psoc creator/4.4/psoc creator/import/gnu/arm/5.4.1/bin/../lib/gcc/arm-none-eabi/5.4.1/armv7-m\libgcc.a(_arm_muldivsf3.o)
                              .\CortexM3\ARM_GCC_541\Debug\AS76.o (__aeabi_fmul)
c:/program files (x86)/cypress/psoc creator/4.4/psoc creator/import/gnu/arm/5.4.1/bin/../lib/gcc/arm-none-eabi/5.4.1/../../../../arm-none-eabi/lib/armv7-m\libg_nano.a(lib_a-errno.o)
                              .\CortexM3\ARM_GCC_541\Debug\Cm3Start.o (__errno)
c:/program files (x86)/cypress/psoc creator/4.4/psoc creator/import/gnu/arm/5.4.1/bin/../lib/gcc/arm-none-eabi/5.4.1/../../../../arm-none-eabi/lib/armv7-m\libg_nano.a(lib_a-exit.o)
                              c:/program files (x86)/cypress/psoc creator/4.4/psoc creator/import/gnu/arm/5.4.1/bin/../lib/gcc/arm-none-eabi/5.4.1/../../../../arm-none-eabi/lib/armv7-m/crt0.o (exit)
c:/program files (x86)/cypress/psoc creator/4.4/psoc creator/import/gnu/arm/5.4.1/bin/../lib/gcc/arm-none-eabi/5.4.1/../../../../arm-none-eabi/lib/armv7-m\libg_nano.a(lib_a-impure.o)
                              c:/program files (x86)/cypress/psoc creator/4.4/psoc creator/import/gnu/arm/5.4.1/bin/../lib/gcc/arm-none-eabi/5.4.1/../../../../arm-none-eabi/lib/armv7-m\libg_nano.a(lib_a-exit.o) (_global_impure_ptr)
c:/program files (x86)/cypress/psoc creator/4.4/psoc creator/import/gnu/arm/5.4.1/bin/../lib/gcc/arm-none-eabi/5.4.1/../../../../arm-none-eabi/lib/armv7-m\libg_nano.a(lib_a-init.o)
                              c:/program files (x86)/cypress/psoc creator/4.4/psoc creator/import/gnu/arm/5.4.1/bin/../lib/gcc/arm-none-eabi/5.4.1/../../../../arm-none-eabi/lib/armv7-m/crt0.o (__libc_init_array)
c:/program files (x86)/cypress/psoc creator/4.4/psoc creator/import/gnu/arm/5.4.1/bin/../lib/gcc/arm-none-eabi/5.4.1/../../../../arm-none-eabi/lib/armv7-m\libg_nano.a(lib_a-memcpy-stub.o)
                              .\CortexM3\ARM_GCC_541\Debug\cyfitter_cfg.o (memcpy)
c:/program files (x86)/cypress/psoc creator/4.4/psoc creator/import/gnu/arm/5.4.1/bin/../lib/gcc/arm-none-eabi/5.4.1/../../../../arm-none-eabi/lib/armv7-m\libg_nano.a(lib_a-memset.o)
                              c:/program files (x86)/cypress/psoc creator/4.4/psoc creator/import/gnu/arm/5.4.1/bin/../lib/gcc/arm-none-eabi/5.4.1/../../../../arm-none-eabi/lib/armv7-m/crt0.o (memset)
c:/program files (x86)/cypress/psoc creator/4.4/psoc creator/import/gnu/arm/5.4.1/bin/../lib/gcc/arm-none-eabi/5.4.1/../../../../arm-none-eabi/lib/armv7-m\libg_nano.a(lib_a-sprintf.o)
                              .\CortexM3\ARM_GCC_541\Debug\AS76.o (sprintf)
c:/program files (x86)/cypress/psoc creator/4.4/psoc creator/import/gnu/arm/5.4.1/bin/../lib/gcc/arm-none-eabi/5.4.1/../../../../arm-none-eabi/lib/armv7-m\libg_nano.a(lib_a-nano-svfprintf.o)
                              c:/program files (x86)/cypress/psoc creator/4.4/psoc creator/import/gnu/arm/5.4.1/bin/../lib/gcc/arm-none-eabi/5.4.1/../../../../arm-none-eabi/lib/armv7-m\libg_nano.a(lib_a-sprintf.o) (_svfprintf_r)
c:/program files (x86)/cypress/psoc creator/4.4/psoc creator/import/gnu/arm/5.4.1/bin/../lib/gcc/arm-none-eabi/5.4.1/../../../../arm-none-eabi/lib/armv7-m\libg_nano.a(lib_a-nano-vfprintf_i.o)
                              c:/program files (x86)/cypress/psoc creator/4.4/psoc creator/import/gnu/arm/5.4.1/bin/../lib/gcc/arm-none-eabi/5.4.1/../../../../arm-none-eabi/lib/armv7-m\libg_nano.a(lib_a-nano-svfprintf.o) (_printf_i)
c:/program files (x86)/cypress/psoc creator/4.4/psoc creator/import/gnu/arm/5.4.1/bin/../lib/gcc/arm-none-eabi/5.4.1/../../../../arm-none-eabi/lib/armv7-m\libg_nano.a(lib_a-memchr-stub.o)
                              c:/program files (x86)/cypress/psoc creator/4.4/psoc creator/import/gnu/arm/5.4.1/bin/../lib/gcc/arm-none-eabi/5.4.1/../../../../arm-none-eabi/lib/armv7-m\libg_nano.a(lib_a-nano-svfprintf.o) (memchr)
c:/program files (x86)/cypress/psoc creator/4.4/psoc creator/import/gnu/arm/5.4.1/bin/../lib/gcc/arm-none-eabi/5.4.1/../../../../arm-none-eabi/lib/armv7-m\libg_nano.a(lib_a-memmove.o)
                              c:/program files (x86)/cypress/psoc creator/4.4/psoc creator/import/gnu/arm/5.4.1/bin/../lib/gcc/arm-none-eabi/5.4.1/../../../../arm-none-eabi/lib/armv7-m\libg_nano.a(lib_a-nano-svfprintf.o) (memmove)
c:/program files (x86)/cypress/psoc creator/4.4/psoc creator/import/gnu/arm/5.4.1/bin/../lib/gcc/arm-none-eabi/5.4.1/../../../../arm-none-eabi/lib/armv7-m\libg_nano.a(lib_a-nano-freer.o)
                              c:/program files (x86)/cypress/psoc creator/4.4/psoc creator/import/gnu/arm/5.4.1/bin/../lib/gcc/arm-none-eabi/5.4.1/../../../../arm-none-eabi/lib/armv7-m\libg_nano.a(lib_a-nano-svfprintf.o) (_free_r)
c:/program files (x86)/cypress/psoc creator/4.4/psoc creator/import/gnu/arm/5.4.1/bin/../lib/gcc/arm-none-eabi/5.4.1/../../../../arm-none-eabi/lib/armv7-m\libg_nano.a(lib_a-nano-mallocr.o)
                              c:/program files (x86)/cypress/psoc creator/4.4/psoc creator/import/gnu/arm/5.4.1/bin/../lib/gcc/arm-none-eabi/5.4.1/../../../../arm-none-eabi/lib/armv7-m\libg_nano.a(lib_a-nano-svfprintf.o) (_malloc_r)
c:/program files (x86)/cypress/psoc creator/4.4/psoc creator/import/gnu/arm/5.4.1/bin/../lib/gcc/arm-none-eabi/5.4.1/../../../../arm-none-eabi/lib/armv7-m\libg_nano.a(lib_a-nano-reallocr.o)
                              c:/program files (x86)/cypress/psoc creator/4.4/psoc creator/import/gnu/arm/5.4.1/bin/../lib/gcc/arm-none-eabi/5.4.1/../../../../arm-none-eabi/lib/armv7-m\libg_nano.a(lib_a-nano-svfprintf.o) (_realloc_r)
c:/program files (x86)/cypress/psoc creator/4.4/psoc creator/import/gnu/arm/5.4.1/bin/../lib/gcc/arm-none-eabi/5.4.1/../../../../arm-none-eabi/lib/armv7-m\libg_nano.a(lib_a-sbrkr.o)
                              c:/program files (x86)/cypress/psoc creator/4.4/psoc creator/import/gnu/arm/5.4.1/bin/../lib/gcc/arm-none-eabi/5.4.1/../../../../arm-none-eabi/lib/armv7-m\libg_nano.a(lib_a-nano-mallocr.o) (_sbrk_r)
c:/program files (x86)/cypress/psoc creator/4.4/psoc creator/import/gnu/arm/5.4.1/bin/../lib/gcc/arm-none-eabi/5.4.1/../../../../arm-none-eabi/lib/armv7-m\libg_nano.a(lib_a-mlock.o)
                              c:/program files (x86)/cypress/psoc creator/4.4/psoc creator/import/gnu/arm/5.4.1/bin/../lib/gcc/arm-none-eabi/5.4.1/../../../../arm-none-eabi/lib/armv7-m\libg_nano.a(lib_a-nano-freer.o) (__malloc_lock)
c:/program files (x86)/cypress/psoc creator/4.4/psoc creator/import/gnu/arm/5.4.1/bin/../lib/gcc/arm-none-eabi/5.4.1/../../../../arm-none-eabi/lib/armv7-m\libg_nano.a(lib_a-nano-msizer.o)
                              c:/program files (x86)/cypress/psoc creator/4.4/psoc creator/import/gnu/arm/5.4.1/bin/../lib/gcc/arm-none-eabi/5.4.1/../../../../arm-none-eabi/lib/armv7-m\libg_nano.a(lib_a-nano-reallocr.o) (_malloc_usable_size_r)
c:/program files (x86)/cypress/psoc creator/4.4/psoc creator/import/gnu/arm/5.4.1/bin/../lib/gcc/arm-none-eabi/5.4.1/../../../../arm-none-eabi/lib/armv7-m\libg_nano.a(lib_a-reent.o)
                              c:/program files (x86)/cypress/psoc creator/4.4/psoc creator/import/gnu/arm/5.4.1/bin/../lib/gcc/arm-none-eabi/5.4.1/../../../../arm-none-eabi/lib/armv7-m\libg_nano.a(lib_a-sbrkr.o) (errno)

Allocating common symbols
Common symbol       size              file

USB_hidProtocol     0x2               .\CortexM3\ARM_GCC_541\Debug\Half_Skeleton_V2_LED_ARRAY.a(USB_hid.o)
USB_transferState   0x1               .\CortexM3\ARM_GCC_541\Debug\Half_Skeleton_V2_LED_ARRAY.a(USB_drv.o)
USB_interfaceNumber
                    0x1               .\CortexM3\ARM_GCC_541\Debug\Half_Skeleton_V2_LED_ARRAY.a(USB_drv.o)
USB_lastPacketSize  0x1               .\CortexM3\ARM_GCC_541\Debug\Half_Skeleton_V2_LED_ARRAY.a(USB_drv.o)
USB_interfaceClass  0x4               .\CortexM3\ARM_GCC_541\Debug\Half_Skeleton_V2_LED_ARRAY.a(USB_drv.o)
USB_interfaceSetting
                    0x2               .\CortexM3\ARM_GCC_541\Debug\Half_Skeleton_V2_LED_ARRAY.a(USB_drv.o)
errno               0x4               c:/program files (x86)/cypress/psoc creator/4.4/psoc creator/import/gnu/arm/5.4.1/bin/../lib/gcc/arm-none-eabi/5.4.1/../../../../arm-none-eabi/lib/armv7-m\libg_nano.a(lib_a-reent.o)
USB_ep0Mode         0x1               .\CortexM3\ARM_GCC_541\Debug\Half_Skeleton_V2_LED_ARRAY.a(USB_drv.o)
SPIM_rxBufferFull   0x1               .\CortexM3\ARM_GCC_541\Debug\Half_Skeleton_V2_LED_ARRAY.a(SPIM.o)
USB_device          0x1               .\CortexM3\ARM_GCC_541\Debug\Half_Skeleton_V2_LED_ARRAY.a(USB_drv.o)
USB_linesControlBitmap
                    0x4               .\CortexM3\ARM_GCC_541\Debug\Half_Skeleton_V2_LED_ARRAY.a(USB_cdc.o)
SPIM_txBuffer       0x5               .\CortexM3\ARM_GCC_541\Debug\Half_Skeleton_V2_LED_ARRAY.a(SPIM.o)
USB_deviceAddress   0x1               .\CortexM3\ARM_GCC_541\Debug\Half_Skeleton_V2_LED_ARRAY.a(USB_drv.o)
USB_ep0Toggle       0x1               .\CortexM3\ARM_GCC_541\Debug\Half_Skeleton_V2_LED_ARRAY.a(USB_drv.o)
SPIM_swStatusTx     0x1               .\CortexM3\ARM_GCC_541\Debug\Half_Skeleton_V2_LED_ARRAY.a(SPIM.o)
command             0x4               .\CortexM3\ARM_GCC_541\Debug\AS76.o
USB_cdcCommInInterruptEp
                    0x2               .\CortexM3\ARM_GCC_541\Debug\Half_Skeleton_V2_LED_ARRAY.a(USB_cdc.o)
USB_hidIdleRate     0x2               .\CortexM3\ARM_GCC_541\Debug\Half_Skeleton_V2_LED_ARRAY.a(USB_hid.o)
USB_interfaceSettingLast
                    0x2               .\CortexM3\ARM_GCC_541\Debug\Half_Skeleton_V2_LED_ARRAY.a(USB_drv.o)
USB_configurationChanged
                    0x1               .\CortexM3\ARM_GCC_541\Debug\Half_Skeleton_V2_LED_ARRAY.a(USB_drv.o)
SPIM_rxBuffer       0x6               .\CortexM3\ARM_GCC_541\Debug\Half_Skeleton_V2_LED_ARRAY.a(SPIM.o)
SPI_RGB_DATA        0x4               .\CortexM3\ARM_GCC_541\Debug\APA102.o
Is_Slide_On_Gripper
                    0x1               .\CortexM3\ARM_GCC_541\Debug\main.o
i                   0x1               .\CortexM3\ARM_GCC_541\Debug\APA102.o
USB_serialStateBitmap
                    0x4               .\CortexM3\ARM_GCC_541\Debug\Half_Skeleton_V2_LED_ARRAY.a(USB_cdc.o)
SPIM_txBufferFull   0x1               .\CortexM3\ARM_GCC_541\Debug\Half_Skeleton_V2_LED_ARRAY.a(SPIM.o)
G                   0x1               .\CortexM3\ARM_GCC_541\Debug\APA102.o
USB_interfaceStatus
                    0x2               .\CortexM3\ARM_GCC_541\Debug\Half_Skeleton_V2_LED_ARRAY.a(USB_drv.o)
USB_transferByteCount
                    0x2               .\CortexM3\ARM_GCC_541\Debug\Half_Skeleton_V2_LED_ARRAY.a(USB_drv.o)
USB_received        0x40              .\CortexM3\ARM_GCC_541\Debug\main.o
USB_cdcDataOutEp    0x2               .\CortexM3\ARM_GCC_541\Debug\Half_Skeleton_V2_LED_ARRAY.a(USB_cdc.o)
USB_configuration   0x1               .\CortexM3\ARM_GCC_541\Debug\Half_Skeleton_V2_LED_ARRAY.a(USB_drv.o)
SPIM_txBufferRead   0x1               .\CortexM3\ARM_GCC_541\Debug\Half_Skeleton_V2_LED_ARRAY.a(SPIM.o)
USB_idSerialNumberStringDescriptor
                    0x22              .\CortexM3\ARM_GCC_541\Debug\Half_Skeleton_V2_LED_ARRAY.a(USB_descr.o)
SPIM_rxBufferWrite  0x1               .\CortexM3\ARM_GCC_541\Debug\Half_Skeleton_V2_LED_ARRAY.a(SPIM.o)
USB_currentTD       0xc               .\CortexM3\ARM_GCC_541\Debug\Half_Skeleton_V2_LED_ARRAY.a(USB_drv.o)
USB_cdcDataInEp     0x2               .\CortexM3\ARM_GCC_541\Debug\Half_Skeleton_V2_LED_ARRAY.a(USB_cdc.o)
USB_ep0Count        0x1               .\CortexM3\ARM_GCC_541\Debug\Half_Skeleton_V2_LED_ARRAY.a(USB_drv.o)
count               0x2               .\CortexM3\ARM_GCC_541\Debug\main.o
USB_transmit        0x2f              .\CortexM3\ARM_GCC_541\Debug\main.o
R                   0x1               .\CortexM3\ARM_GCC_541\Debug\APA102.o
USB_deviceStatus    0x1               .\CortexM3\ARM_GCC_541\Debug\Half_Skeleton_V2_LED_ARRAY.a(USB_drv.o)
USB_linesChanged    0x2               .\CortexM3\ARM_GCC_541\Debug\Half_Skeleton_V2_LED_ARRAY.a(USB_cdc.o)
SPIM_txBufferWrite  0x1               .\CortexM3\ARM_GCC_541\Debug\Half_Skeleton_V2_LED_ARRAY.a(SPIM.o)
dieTemperature      0x2               .\CortexM3\ARM_GCC_541\Debug\Half_Skeleton_V2_LED_ARRAY.a(CyFlash.o)
USB_hidIdleTimer    0x2               .\CortexM3\ARM_GCC_541\Debug\Half_Skeleton_V2_LED_ARRAY.a(USB_hid.o)
UART_PCB_LOG_rxBuffer
                    0x40              .\CortexM3\ARM_GCC_541\Debug\Half_Skeleton_V2_LED_ARRAY.a(UART_PCB_LOG.o)
SPIM_rxBufferRead   0x1               .\CortexM3\ARM_GCC_541\Debug\Half_Skeleton_V2_LED_ARRAY.a(SPIM.o)
SPIM_swStatusRx     0x1               .\CortexM3\ARM_GCC_541\Debug\Half_Skeleton_V2_LED_ARRAY.a(SPIM.o)
USB_EP              0x6c              .\CortexM3\ARM_GCC_541\Debug\Half_Skeleton_V2_LED_ARRAY.a(USB_drv.o)

Discarded input sections

 .text          0x00000000        0x0 c:/program files (x86)/cypress/psoc creator/4.4/psoc creator/import/gnu/arm/5.4.1/bin/../lib/gcc/arm-none-eabi/5.4.1/armv7-m/crti.o
 .data          0x00000000        0x0 c:/program files (x86)/cypress/psoc creator/4.4/psoc creator/import/gnu/arm/5.4.1/bin/../lib/gcc/arm-none-eabi/5.4.1/armv7-m/crti.o
 .bss           0x00000000        0x0 c:/program files (x86)/cypress/psoc creator/4.4/psoc creator/import/gnu/arm/5.4.1/bin/../lib/gcc/arm-none-eabi/5.4.1/armv7-m/crti.o
 .data          0x00000000        0x4 c:/program files (x86)/cypress/psoc creator/4.4/psoc creator/import/gnu/arm/5.4.1/bin/../lib/gcc/arm-none-eabi/5.4.1/armv7-m/crtbegin.o
 .text          0x00000000       0x74 c:/program files (x86)/cypress/psoc creator/4.4/psoc creator/import/gnu/arm/5.4.1/bin/../lib/gcc/arm-none-eabi/5.4.1/../../../../arm-none-eabi/lib/armv7-m/crt0.o
 .data          0x00000000        0x0 c:/program files (x86)/cypress/psoc creator/4.4/psoc creator/import/gnu/arm/5.4.1/bin/../lib/gcc/arm-none-eabi/5.4.1/../../../../arm-none-eabi/lib/armv7-m/crt0.o
 .bss           0x00000000        0x0 c:/program files (x86)/cypress/psoc creator/4.4/psoc creator/import/gnu/arm/5.4.1/bin/../lib/gcc/arm-none-eabi/5.4.1/../../../../arm-none-eabi/lib/armv7-m/crt0.o
 .ARM.extab     0x00000000        0x0 c:/program files (x86)/cypress/psoc creator/4.4/psoc creator/import/gnu/arm/5.4.1/bin/../lib/gcc/arm-none-eabi/5.4.1/../../../../arm-none-eabi/lib/armv7-m/crt0.o
 .ARM.exidx     0x00000000        0x8 c:/program files (x86)/cypress/psoc creator/4.4/psoc creator/import/gnu/arm/5.4.1/bin/../lib/gcc/arm-none-eabi/5.4.1/../../../../arm-none-eabi/lib/armv7-m/crt0.o
 .text          0x00000000        0x0 .\CortexM3\ARM_GCC_541\Debug\main.o
 .bss           0x00000000        0x0 .\CortexM3\ARM_GCC_541\Debug\main.o
 .text          0x00000000        0x0 .\CortexM3\ARM_GCC_541\Debug\AS76.o
 .text.wait_interrupt_Handler1
                0x00000000       0x10 .\CortexM3\ARM_GCC_541\Debug\AS76.o
 .text.Set_Backlight_LED
                0x00000000        0x8 .\CortexM3\ARM_GCC_541\Debug\AS76.o
 .text.USB_Detect_Indication_Via_LED
                0x00000000        0x4 .\CortexM3\ARM_GCC_541\Debug\AS76.o
 .text.Clear_USB_RX_Buffer
                0x00000000       0x18 .\CortexM3\ARM_GCC_541\Debug\AS76.o
 .text.Clear_Pending_USB_Data
                0x00000000       0x18 .\CortexM3\ARM_GCC_541\Debug\AS76.o
 .text.Beep_Twice
                0x00000000       0x40 .\CortexM3\ARM_GCC_541\Debug\AS76.o
 .text.Long_Beep
                0x00000000       0x2c .\CortexM3\ARM_GCC_541\Debug\AS76.o
 .text.IsPositionReached
                0x00000000       0x3c .\CortexM3\ARM_GCC_541\Debug\AS76.o
 .text.update_max_accelaration
                0x00000000       0x10 .\CortexM3\ARM_GCC_541\Debug\AS76.o
 .text          0x00000000        0x0 .\CortexM3\ARM_GCC_541\Debug\APA102.o
 .data          0x00000000        0x4 .\CortexM3\ARM_GCC_541\Debug\APA102.o
 .text          0x00000000        0x0 .\CortexM3\ARM_GCC_541\Debug\PCA9959.o
 .text          0x00000000        0x0 .\CortexM3\ARM_GCC_541\Debug\cyfitter_cfg.o
 .data          0x00000000        0x0 .\CortexM3\ARM_GCC_541\Debug\cyfitter_cfg.o
 .bss           0x00000000        0x0 .\CortexM3\ARM_GCC_541\Debug\cyfitter_cfg.o
 .text.SetAnalogRoutingPumps
                0x00000000       0x10 .\CortexM3\ARM_GCC_541\Debug\cyfitter_cfg.o
 .text          0x00000000        0x0 .\CortexM3\ARM_GCC_541\Debug\cymetadata.o
 .data          0x00000000        0x0 .\CortexM3\ARM_GCC_541\Debug\cymetadata.o
 .bss           0x00000000        0x0 .\CortexM3\ARM_GCC_541\Debug\cymetadata.o
 .text          0x00000000        0x0 .\CortexM3\ARM_GCC_541\Debug\Cm3Start.o
 .bss           0x00000000        0x0 .\CortexM3\ARM_GCC_541\Debug\Cm3Start.o
 .text._exit    0x00000000        0xc .\CortexM3\ARM_GCC_541\Debug\Cm3Start.o
 .text          0x00000000        0x0 .\CortexM3\ARM_GCC_541\Debug\Half_Skeleton_V2_LED_ARRAY.a(Pin_CSMotorX.o)
 .data          0x00000000        0x0 .\CortexM3\ARM_GCC_541\Debug\Half_Skeleton_V2_LED_ARRAY.a(Pin_CSMotorX.o)
 .bss           0x00000000        0x0 .\CortexM3\ARM_GCC_541\Debug\Half_Skeleton_V2_LED_ARRAY.a(Pin_CSMotorX.o)
 .text.Pin_CSMotorX_SetDriveMode
                0x00000000       0x18 .\CortexM3\ARM_GCC_541\Debug\Half_Skeleton_V2_LED_ARRAY.a(Pin_CSMotorX.o)
 .text.Pin_CSMotorX_Read
                0x00000000       0x10 .\CortexM3\ARM_GCC_541\Debug\Half_Skeleton_V2_LED_ARRAY.a(Pin_CSMotorX.o)
 .text.Pin_CSMotorX_ReadDataReg
                0x00000000       0x10 .\CortexM3\ARM_GCC_541\Debug\Half_Skeleton_V2_LED_ARRAY.a(Pin_CSMotorX.o)
 .text          0x00000000        0x0 .\CortexM3\ARM_GCC_541\Debug\Half_Skeleton_V2_LED_ARRAY.a(Pin_CSMotorY.o)
 .data          0x00000000        0x0 .\CortexM3\ARM_GCC_541\Debug\Half_Skeleton_V2_LED_ARRAY.a(Pin_CSMotorY.o)
 .bss           0x00000000        0x0 .\CortexM3\ARM_GCC_541\Debug\Half_Skeleton_V2_LED_ARRAY.a(Pin_CSMotorY.o)
 .text.Pin_CSMotorY_SetDriveMode
                0x00000000       0x18 .\CortexM3\ARM_GCC_541\Debug\Half_Skeleton_V2_LED_ARRAY.a(Pin_CSMotorY.o)
 .text.Pin_CSMotorY_Read
                0x00000000       0x10 .\CortexM3\ARM_GCC_541\Debug\Half_Skeleton_V2_LED_ARRAY.a(Pin_CSMotorY.o)
 .text.Pin_CSMotorY_ReadDataReg
                0x00000000       0x10 .\CortexM3\ARM_GCC_541\Debug\Half_Skeleton_V2_LED_ARRAY.a(Pin_CSMotorY.o)
 .text          0x00000000        0x0 .\CortexM3\ARM_GCC_541\Debug\Half_Skeleton_V2_LED_ARRAY.a(Pin_CSMotorZ.o)
 .data          0x00000000        0x0 .\CortexM3\ARM_GCC_541\Debug\Half_Skeleton_V2_LED_ARRAY.a(Pin_CSMotorZ.o)
 .bss           0x00000000        0x0 .\CortexM3\ARM_GCC_541\Debug\Half_Skeleton_V2_LED_ARRAY.a(Pin_CSMotorZ.o)
 .text.Pin_CSMotorZ_SetDriveMode
                0x00000000       0x18 .\CortexM3\ARM_GCC_541\Debug\Half_Skeleton_V2_LED_ARRAY.a(Pin_CSMotorZ.o)
 .text.Pin_CSMotorZ_Read
                0x00000000       0x10 .\CortexM3\ARM_GCC_541\Debug\Half_Skeleton_V2_LED_ARRAY.a(Pin_CSMotorZ.o)
 .text.Pin_CSMotorZ_ReadDataReg
                0x00000000       0x10 .\CortexM3\ARM_GCC_541\Debug\Half_Skeleton_V2_LED_ARRAY.a(Pin_CSMotorZ.o)
 .text          0x00000000        0x0 .\CortexM3\ARM_GCC_541\Debug\Half_Skeleton_V2_LED_ARRAY.a(SPIM.o)
 .data          0x00000000        0x0 .\CortexM3\ARM_GCC_541\Debug\Half_Skeleton_V2_LED_ARRAY.a(SPIM.o)
 .text.SPIM_Stop
                0x00000000       0x30 .\CortexM3\ARM_GCC_541\Debug\Half_Skeleton_V2_LED_ARRAY.a(SPIM.o)
 .text.SPIM_SetTxInterruptMode
                0x00000000        0xc .\CortexM3\ARM_GCC_541\Debug\Half_Skeleton_V2_LED_ARRAY.a(SPIM.o)
 .text.SPIM_SetRxInterruptMode
                0x00000000        0xc .\CortexM3\ARM_GCC_541\Debug\Half_Skeleton_V2_LED_ARRAY.a(SPIM.o)
 .text.SPIM_GetRxBufferSize
                0x00000000       0x58 .\CortexM3\ARM_GCC_541\Debug\Half_Skeleton_V2_LED_ARRAY.a(SPIM.o)
 .text.SPIM_GetTxBufferSize
                0x00000000       0x58 .\CortexM3\ARM_GCC_541\Debug\Half_Skeleton_V2_LED_ARRAY.a(SPIM.o)
 .text.SPIM_ClearRxBuffer
                0x00000000       0x40 .\CortexM3\ARM_GCC_541\Debug\Half_Skeleton_V2_LED_ARRAY.a(SPIM.o)
 .text.SPIM_ClearTxBuffer
                0x00000000       0x54 .\CortexM3\ARM_GCC_541\Debug\Half_Skeleton_V2_LED_ARRAY.a(SPIM.o)
 .text.SPIM_PutArray
                0x00000000       0x20 .\CortexM3\ARM_GCC_541\Debug\Half_Skeleton_V2_LED_ARRAY.a(SPIM.o)
 .text.SPIM_EnableInt
                0x00000000        0xc .\CortexM3\ARM_GCC_541\Debug\Half_Skeleton_V2_LED_ARRAY.a(SPIM.o)
 .text.SPIM_DisableInt
                0x00000000        0xc .\CortexM3\ARM_GCC_541\Debug\Half_Skeleton_V2_LED_ARRAY.a(SPIM.o)
 .text.SPIM_SetInterruptMode
                0x00000000       0x14 .\CortexM3\ARM_GCC_541\Debug\Half_Skeleton_V2_LED_ARRAY.a(SPIM.o)
 .text.SPIM_ReadStatus
                0x00000000       0x48 .\CortexM3\ARM_GCC_541\Debug\Half_Skeleton_V2_LED_ARRAY.a(SPIM.o)
 .text          0x00000000        0x0 .\CortexM3\ARM_GCC_541\Debug\Half_Skeleton_V2_LED_ARRAY.a(SPIM_INT.o)
 .data          0x00000000        0x0 .\CortexM3\ARM_GCC_541\Debug\Half_Skeleton_V2_LED_ARRAY.a(SPIM_INT.o)
 .bss           0x00000000        0x0 .\CortexM3\ARM_GCC_541\Debug\Half_Skeleton_V2_LED_ARRAY.a(SPIM_INT.o)
 .text          0x00000000        0x0 .\CortexM3\ARM_GCC_541\Debug\Half_Skeleton_V2_LED_ARRAY.a(CyLib.o)
 .bss           0x00000000       0x1c .\CortexM3\ARM_GCC_541\Debug\Half_Skeleton_V2_LED_ARRAY.a(CyLib.o)
 .text.CyUSB_PowerOnCheck
                0x00000000       0x48 .\CortexM3\ARM_GCC_541\Debug\Half_Skeleton_V2_LED_ARRAY.a(CyLib.o)
 .text.CyBusClk_Internal_SetDivider
                0x00000000       0x48 .\CortexM3\ARM_GCC_541\Debug\Half_Skeleton_V2_LED_ARRAY.a(CyLib.o)
 .text.CyPLL_OUT_Stop
                0x00000000       0x10 .\CortexM3\ARM_GCC_541\Debug\Half_Skeleton_V2_LED_ARRAY.a(CyLib.o)
 .text.CyIMO_Stop
                0x00000000       0x1c .\CortexM3\ARM_GCC_541\Debug\Half_Skeleton_V2_LED_ARRAY.a(CyLib.o)
 .text.CyIMO_EnableDoubler
                0x00000000       0x10 .\CortexM3\ARM_GCC_541\Debug\Half_Skeleton_V2_LED_ARRAY.a(CyLib.o)
 .text.CyIMO_DisableDoubler
                0x00000000       0x10 .\CortexM3\ARM_GCC_541\Debug\Half_Skeleton_V2_LED_ARRAY.a(CyLib.o)
 .text.CyMasterClk_SetSource
                0x00000000       0x18 .\CortexM3\ARM_GCC_541\Debug\Half_Skeleton_V2_LED_ARRAY.a(CyLib.o)
 .text.CyMasterClk_SetDivider
                0x00000000        0xc .\CortexM3\ARM_GCC_541\Debug\Half_Skeleton_V2_LED_ARRAY.a(CyLib.o)
 .text.CyBusClk_SetDivider
                0x00000000       0x70 .\CortexM3\ARM_GCC_541\Debug\Half_Skeleton_V2_LED_ARRAY.a(CyLib.o)
 .text.CyUsbClk_SetSource
                0x00000000       0x18 .\CortexM3\ARM_GCC_541\Debug\Half_Skeleton_V2_LED_ARRAY.a(CyLib.o)
 .text.CyILO_Start1K
                0x00000000       0x10 .\CortexM3\ARM_GCC_541\Debug\Half_Skeleton_V2_LED_ARRAY.a(CyLib.o)
 .text.CyILO_Stop1K
                0x00000000       0x10 .\CortexM3\ARM_GCC_541\Debug\Half_Skeleton_V2_LED_ARRAY.a(CyLib.o)
 .text.CyILO_Start100K
                0x00000000       0x10 .\CortexM3\ARM_GCC_541\Debug\Half_Skeleton_V2_LED_ARRAY.a(CyLib.o)
 .text.CyILO_Stop100K
                0x00000000       0x10 .\CortexM3\ARM_GCC_541\Debug\Half_Skeleton_V2_LED_ARRAY.a(CyLib.o)
 .text.CyPLL_OUT_Start
                0x00000000       0x78 .\CortexM3\ARM_GCC_541\Debug\Half_Skeleton_V2_LED_ARRAY.a(CyLib.o)
 .text.CyIMO_Start
                0x00000000       0x60 .\CortexM3\ARM_GCC_541\Debug\Half_Skeleton_V2_LED_ARRAY.a(CyLib.o)
 .text.CyILO_Enable33K
                0x00000000       0x10 .\CortexM3\ARM_GCC_541\Debug\Half_Skeleton_V2_LED_ARRAY.a(CyLib.o)
 .text.CyILO_Disable33K
                0x00000000       0x10 .\CortexM3\ARM_GCC_541\Debug\Half_Skeleton_V2_LED_ARRAY.a(CyLib.o)
 .text.CyILO_SetSource
                0x00000000       0x18 .\CortexM3\ARM_GCC_541\Debug\Half_Skeleton_V2_LED_ARRAY.a(CyLib.o)
 .text.CyILO_SetPowerMode
                0x00000000       0x24 .\CortexM3\ARM_GCC_541\Debug\Half_Skeleton_V2_LED_ARRAY.a(CyLib.o)
 .text.CyXTAL_32KHZ_Stop
                0x00000000       0x30 .\CortexM3\ARM_GCC_541\Debug\Half_Skeleton_V2_LED_ARRAY.a(CyLib.o)
 .text.CyXTAL_32KHZ_ReadStatus
                0x00000000       0x10 .\CortexM3\ARM_GCC_541\Debug\Half_Skeleton_V2_LED_ARRAY.a(CyLib.o)
 .text.CyXTAL_Start
                0x00000000       0xac .\CortexM3\ARM_GCC_541\Debug\Half_Skeleton_V2_LED_ARRAY.a(CyLib.o)
 .text.CyXTAL_Stop
                0x00000000       0x10 .\CortexM3\ARM_GCC_541\Debug\Half_Skeleton_V2_LED_ARRAY.a(CyLib.o)
 .text.CyXTAL_EnableErrStatus
                0x00000000       0x10 .\CortexM3\ARM_GCC_541\Debug\Half_Skeleton_V2_LED_ARRAY.a(CyLib.o)
 .text.CyXTAL_DisableErrStatus
                0x00000000       0x10 .\CortexM3\ARM_GCC_541\Debug\Half_Skeleton_V2_LED_ARRAY.a(CyLib.o)
 .text.CyXTAL_ReadStatus
                0x00000000       0x18 .\CortexM3\ARM_GCC_541\Debug\Half_Skeleton_V2_LED_ARRAY.a(CyLib.o)
 .text.CyXTAL_EnableFaultRecovery
                0x00000000       0x10 .\CortexM3\ARM_GCC_541\Debug\Half_Skeleton_V2_LED_ARRAY.a(CyLib.o)
 .text.CyXTAL_DisableFaultRecovery
                0x00000000       0x10 .\CortexM3\ARM_GCC_541\Debug\Half_Skeleton_V2_LED_ARRAY.a(CyLib.o)
 .text.CyXTAL_SetStartup
                0x00000000       0x18 .\CortexM3\ARM_GCC_541\Debug\Half_Skeleton_V2_LED_ARRAY.a(CyLib.o)
 .text.CyXTAL_SetFbVoltage
                0x00000000       0x18 .\CortexM3\ARM_GCC_541\Debug\Half_Skeleton_V2_LED_ARRAY.a(CyLib.o)
 .text.CyXTAL_SetWdVoltage
                0x00000000       0x18 .\CortexM3\ARM_GCC_541\Debug\Half_Skeleton_V2_LED_ARRAY.a(CyLib.o)
 .text.CyPLL_OUT_SetPQ
                0x00000000       0x60 .\CortexM3\ARM_GCC_541\Debug\Half_Skeleton_V2_LED_ARRAY.a(CyLib.o)
 .text.CyPLL_OUT_SetSource
                0x00000000       0x34 .\CortexM3\ARM_GCC_541\Debug\Half_Skeleton_V2_LED_ARRAY.a(CyLib.o)
 .text.CyIMO_SetTrimValue
                0x00000000       0xcc .\CortexM3\ARM_GCC_541\Debug\Half_Skeleton_V2_LED_ARRAY.a(CyLib.o)
 .text.CyIMO_SetFreq
                0x00000000       0xf4 .\CortexM3\ARM_GCC_541\Debug\Half_Skeleton_V2_LED_ARRAY.a(CyLib.o)
 .text.CyIMO_SetSource
                0x00000000       0x58 .\CortexM3\ARM_GCC_541\Debug\Half_Skeleton_V2_LED_ARRAY.a(CyLib.o)
 .text.CyXTAL_32KHZ_SetPowerMode
                0x00000000       0x84 .\CortexM3\ARM_GCC_541\Debug\Half_Skeleton_V2_LED_ARRAY.a(CyLib.o)
 .text.CyXTAL_32KHZ_Start
                0x00000000       0x74 .\CortexM3\ARM_GCC_541\Debug\Half_Skeleton_V2_LED_ARRAY.a(CyLib.o)
 .text.CyDelayFreq
                0x00000000       0x4c .\CortexM3\ARM_GCC_541\Debug\Half_Skeleton_V2_LED_ARRAY.a(CyLib.o)
 .text.CyWdtStart
                0x00000000       0x40 .\CortexM3\ARM_GCC_541\Debug\Half_Skeleton_V2_LED_ARRAY.a(CyLib.o)
 .text.CyWdtClear
                0x00000000        0xc .\CortexM3\ARM_GCC_541\Debug\Half_Skeleton_V2_LED_ARRAY.a(CyLib.o)
 .text.CyVdStickyStatus
                0x00000000       0x2c .\CortexM3\ARM_GCC_541\Debug\Half_Skeleton_V2_LED_ARRAY.a(CyLib.o)
 .text.CyVdLvDigitEnable
                0x00000000       0x84 .\CortexM3\ARM_GCC_541\Debug\Half_Skeleton_V2_LED_ARRAY.a(CyLib.o)
 .text.CyVdLvAnalogEnable
                0x00000000       0x80 .\CortexM3\ARM_GCC_541\Debug\Half_Skeleton_V2_LED_ARRAY.a(CyLib.o)
 .text.CyVdLvDigitDisable
                0x00000000       0x30 .\CortexM3\ARM_GCC_541\Debug\Half_Skeleton_V2_LED_ARRAY.a(CyLib.o)
 .text.CyVdLvAnalogDisable
                0x00000000       0x28 .\CortexM3\ARM_GCC_541\Debug\Half_Skeleton_V2_LED_ARRAY.a(CyLib.o)
 .text.CyVdHvAnalogEnable
                0x00000000       0x54 .\CortexM3\ARM_GCC_541\Debug\Half_Skeleton_V2_LED_ARRAY.a(CyLib.o)
 .text.CyVdHvAnalogDisable
                0x00000000       0x20 .\CortexM3\ARM_GCC_541\Debug\Half_Skeleton_V2_LED_ARRAY.a(CyLib.o)
 .text.CyVdRealTimeStatus
                0x00000000       0x1c .\CortexM3\ARM_GCC_541\Debug\Half_Skeleton_V2_LED_ARRAY.a(CyLib.o)
 .text.CyDisableInts
                0x00000000       0x1c .\CortexM3\ARM_GCC_541\Debug\Half_Skeleton_V2_LED_ARRAY.a(CyLib.o)
 .text.CyEnableInts
                0x00000000       0x18 .\CortexM3\ARM_GCC_541\Debug\Half_Skeleton_V2_LED_ARRAY.a(CyLib.o)
 .text.CyFlushCache
                0x00000000       0x44 .\CortexM3\ARM_GCC_541\Debug\Half_Skeleton_V2_LED_ARRAY.a(CyLib.o)
 .text.CyIntSetSysVector
                0x00000000       0x28 .\CortexM3\ARM_GCC_541\Debug\Half_Skeleton_V2_LED_ARRAY.a(CyLib.o)
 .text.CyIntGetSysVector
                0x00000000       0x20 .\CortexM3\ARM_GCC_541\Debug\Half_Skeleton_V2_LED_ARRAY.a(CyLib.o)
 .text.CyIntGetVector
                0x00000000       0x24 .\CortexM3\ARM_GCC_541\Debug\Half_Skeleton_V2_LED_ARRAY.a(CyLib.o)
 .text.CyIntGetPriority
                0x00000000       0x20 .\CortexM3\ARM_GCC_541\Debug\Half_Skeleton_V2_LED_ARRAY.a(CyLib.o)
 .text.CyIntGetState
                0x00000000       0x24 .\CortexM3\ARM_GCC_541\Debug\Half_Skeleton_V2_LED_ARRAY.a(CyLib.o)
 .text.CySysTickStop
                0x00000000       0x10 .\CortexM3\ARM_GCC_541\Debug\Half_Skeleton_V2_LED_ARRAY.a(CyLib.o)
 .text.CySysTickEnableInterrupt
                0x00000000       0x10 .\CortexM3\ARM_GCC_541\Debug\Half_Skeleton_V2_LED_ARRAY.a(CyLib.o)
 .text.CySysTickEnable
                0x00000000       0x18 .\CortexM3\ARM_GCC_541\Debug\Half_Skeleton_V2_LED_ARRAY.a(CyLib.o)
 .text.CySysTickDisableInterrupt
                0x00000000       0x10 .\CortexM3\ARM_GCC_541\Debug\Half_Skeleton_V2_LED_ARRAY.a(CyLib.o)
 .text.CySysTickSetReload
                0x00000000       0x10 .\CortexM3\ARM_GCC_541\Debug\Half_Skeleton_V2_LED_ARRAY.a(CyLib.o)
 .text.CySysTickGetReload
                0x00000000       0x10 .\CortexM3\ARM_GCC_541\Debug\Half_Skeleton_V2_LED_ARRAY.a(CyLib.o)
 .text.CySysTickGetValue
                0x00000000       0x10 .\CortexM3\ARM_GCC_541\Debug\Half_Skeleton_V2_LED_ARRAY.a(CyLib.o)
 .text.CySysTickSetClockSource
                0x00000000       0x20 .\CortexM3\ARM_GCC_541\Debug\Half_Skeleton_V2_LED_ARRAY.a(CyLib.o)
 .text.CySysTickGetClockSource
                0x00000000       0x10 .\CortexM3\ARM_GCC_541\Debug\Half_Skeleton_V2_LED_ARRAY.a(CyLib.o)
 .text.CySysTickGetCountFlag
                0x00000000       0x10 .\CortexM3\ARM_GCC_541\Debug\Half_Skeleton_V2_LED_ARRAY.a(CyLib.o)
 .text.CySysTickServiceCallbacks
                0x00000000       0x28 .\CortexM3\ARM_GCC_541\Debug\Half_Skeleton_V2_LED_ARRAY.a(CyLib.o)
 .text.CySysTickClear
                0x00000000        0xc .\CortexM3\ARM_GCC_541\Debug\Half_Skeleton_V2_LED_ARRAY.a(CyLib.o)
 .text.CySysTickInit
                0x00000000       0x58 .\CortexM3\ARM_GCC_541\Debug\Half_Skeleton_V2_LED_ARRAY.a(CyLib.o)
 .text.CySysTickStart
                0x00000000       0x1c .\CortexM3\ARM_GCC_541\Debug\Half_Skeleton_V2_LED_ARRAY.a(CyLib.o)
 .text.CySysTickSetCallback
                0x00000000       0x10 .\CortexM3\ARM_GCC_541\Debug\Half_Skeleton_V2_LED_ARRAY.a(CyLib.o)
 .text.CySysTickGetCallback
                0x00000000       0x10 .\CortexM3\ARM_GCC_541\Debug\Half_Skeleton_V2_LED_ARRAY.a(CyLib.o)
 .text          0x00000000        0x0 .\CortexM3\ARM_GCC_541\Debug\Half_Skeleton_V2_LED_ARRAY.a(cyPm.o)
 .data          0x00000000        0x0 .\CortexM3\ARM_GCC_541\Debug\Half_Skeleton_V2_LED_ARRAY.a(cyPm.o)
 .bss           0x00000000       0x43 .\CortexM3\ARM_GCC_541\Debug\Half_Skeleton_V2_LED_ARRAY.a(cyPm.o)
 .text.CyPmHibSlpSaveSet
                0x00000000      0x1dc .\CortexM3\ARM_GCC_541\Debug\Half_Skeleton_V2_LED_ARRAY.a(cyPm.o)
 .text.CyPmHibSlpRestore
                0x00000000       0xd8 .\CortexM3\ARM_GCC_541\Debug\Half_Skeleton_V2_LED_ARRAY.a(cyPm.o)
 .text.CyPmHviLviSaveDisable
                0x00000000       0xa0 .\CortexM3\ARM_GCC_541\Debug\Half_Skeleton_V2_LED_ARRAY.a(cyPm.o)
 .text.CyPmHibSaveSet
                0x00000000       0x98 .\CortexM3\ARM_GCC_541\Debug\Half_Skeleton_V2_LED_ARRAY.a(cyPm.o)
 .text.CyPmHviLviRestore
                0x00000000       0x48 .\CortexM3\ARM_GCC_541\Debug\Half_Skeleton_V2_LED_ARRAY.a(cyPm.o)
 .text.CyPmHibRestore
                0x00000000       0x60 .\CortexM3\ARM_GCC_541\Debug\Half_Skeleton_V2_LED_ARRAY.a(cyPm.o)
 .text.CyPmSaveClocks
                0x00000000      0x218 .\CortexM3\ARM_GCC_541\Debug\Half_Skeleton_V2_LED_ARRAY.a(cyPm.o)
 .text.CyPmRestoreClocks
                0x00000000      0x24c .\CortexM3\ARM_GCC_541\Debug\Half_Skeleton_V2_LED_ARRAY.a(cyPm.o)
 .text.CyPmAltAct
                0x00000000       0x6c .\CortexM3\ARM_GCC_541\Debug\Half_Skeleton_V2_LED_ARRAY.a(cyPm.o)
 .text.CyPmSleep
                0x00000000       0xf4 .\CortexM3\ARM_GCC_541\Debug\Half_Skeleton_V2_LED_ARRAY.a(cyPm.o)
 .text.CyPmHibernateEx
                0x00000000       0xf4 .\CortexM3\ARM_GCC_541\Debug\Half_Skeleton_V2_LED_ARRAY.a(cyPm.o)
 .text.CyPmHibernate
                0x00000000        0xc .\CortexM3\ARM_GCC_541\Debug\Half_Skeleton_V2_LED_ARRAY.a(cyPm.o)
 .text.CyPmReadStatus
                0x00000000       0x30 .\CortexM3\ARM_GCC_541\Debug\Half_Skeleton_V2_LED_ARRAY.a(cyPm.o)
 .text.CyPmCtwSetInterval
                0x00000000       0x5c .\CortexM3\ARM_GCC_541\Debug\Half_Skeleton_V2_LED_ARRAY.a(cyPm.o)
 .text.CyPmOppsSet
                0x00000000       0x2c .\CortexM3\ARM_GCC_541\Debug\Half_Skeleton_V2_LED_ARRAY.a(cyPm.o)
 .text.CyPmFtwSetInterval
                0x00000000       0x5c .\CortexM3\ARM_GCC_541\Debug\Half_Skeleton_V2_LED_ARRAY.a(cyPm.o)
 .rodata        0x00000000        0xf .\CortexM3\ARM_GCC_541\Debug\Half_Skeleton_V2_LED_ARRAY.a(cyPm.o)
 .text          0x00000000        0x0 .\CortexM3\ARM_GCC_541\Debug\Half_Skeleton_V2_LED_ARRAY.a(USB.o)
 .data          0x00000000        0x0 .\CortexM3\ARM_GCC_541\Debug\Half_Skeleton_V2_LED_ARRAY.a(USB.o)
 .text.USB_Stop
                0x00000000       0xbc .\CortexM3\ARM_GCC_541\Debug\Half_Skeleton_V2_LED_ARRAY.a(USB.o)
 .text.USB_CheckActivity
                0x00000000       0x20 .\CortexM3\ARM_GCC_541\Debug\Half_Skeleton_V2_LED_ARRAY.a(USB.o)
 .text.USB_GetInterfaceSetting
                0x00000000        0xc .\CortexM3\ARM_GCC_541\Debug\Half_Skeleton_V2_LED_ARRAY.a(USB.o)
 .text.USB_DisableOutEP
                0x00000000       0x18 .\CortexM3\ARM_GCC_541\Debug\Half_Skeleton_V2_LED_ARRAY.a(USB.o)
 .text.USB_Force
                0x00000000        0xc .\CortexM3\ARM_GCC_541\Debug\Half_Skeleton_V2_LED_ARRAY.a(USB.o)
 .text.USB_GetEPAckState
                0x00000000       0x20 .\CortexM3\ARM_GCC_541\Debug\Half_Skeleton_V2_LED_ARRAY.a(USB.o)
 .text.USB_SetPowerStatus
                0x00000000       0x20 .\CortexM3\ARM_GCC_541\Debug\Half_Skeleton_V2_LED_ARRAY.a(USB.o)
 .text.USB_RWUEnabled
                0x00000000       0x18 .\CortexM3\ARM_GCC_541\Debug\Half_Skeleton_V2_LED_ARRAY.a(USB.o)
 .text.USB_GetDeviceAddress
                0x00000000       0x10 .\CortexM3\ARM_GCC_541\Debug\Half_Skeleton_V2_LED_ARRAY.a(USB.o)
 .text.USB_DisableSofInt
                0x00000000       0x10 .\CortexM3\ARM_GCC_541\Debug\Half_Skeleton_V2_LED_ARRAY.a(USB.o)
 .text          0x00000000        0x0 .\CortexM3\ARM_GCC_541\Debug\Half_Skeleton_V2_LED_ARRAY.a(USB_cdc.o)
 .text.USB_StrLen
                0x00000000       0x14 .\CortexM3\ARM_GCC_541\Debug\Half_Skeleton_V2_LED_ARRAY.a(USB_cdc.o)
 .text.USB_PutString
                0x00000000       0xa0 .\CortexM3\ARM_GCC_541\Debug\Half_Skeleton_V2_LED_ARRAY.a(USB_cdc.o)
 .text.USB_PutChar
                0x00000000       0x28 .\CortexM3\ARM_GCC_541\Debug\Half_Skeleton_V2_LED_ARRAY.a(USB_cdc.o)
 .text.USB_PutCRLF
                0x00000000       0x30 .\CortexM3\ARM_GCC_541\Debug\Half_Skeleton_V2_LED_ARRAY.a(USB_cdc.o)
 .text.USB_GetCount
                0x00000000       0x34 .\CortexM3\ARM_GCC_541\Debug\Half_Skeleton_V2_LED_ARRAY.a(USB_cdc.o)
 .text.USB_CDCIsReady
                0x00000000       0x18 .\CortexM3\ARM_GCC_541\Debug\Half_Skeleton_V2_LED_ARRAY.a(USB_cdc.o)
 .text.USB_GetData
                0x00000000       0x20 .\CortexM3\ARM_GCC_541\Debug\Half_Skeleton_V2_LED_ARRAY.a(USB_cdc.o)
 .text.USB_GetChar
                0x00000000       0x28 .\CortexM3\ARM_GCC_541\Debug\Half_Skeleton_V2_LED_ARRAY.a(USB_cdc.o)
 .text.USB_IsLineChanged
                0x00000000       0x38 .\CortexM3\ARM_GCC_541\Debug\Half_Skeleton_V2_LED_ARRAY.a(USB_cdc.o)
 .text.USB_GetDTERate
                0x00000000       0x30 .\CortexM3\ARM_GCC_541\Debug\Half_Skeleton_V2_LED_ARRAY.a(USB_cdc.o)
 .text.USB_GetCharFormat
                0x00000000       0x18 .\CortexM3\ARM_GCC_541\Debug\Half_Skeleton_V2_LED_ARRAY.a(USB_cdc.o)
 .text.USB_GetParityType
                0x00000000       0x18 .\CortexM3\ARM_GCC_541\Debug\Half_Skeleton_V2_LED_ARRAY.a(USB_cdc.o)
 .text.USB_GetDataBits
                0x00000000       0x18 .\CortexM3\ARM_GCC_541\Debug\Half_Skeleton_V2_LED_ARRAY.a(USB_cdc.o)
 .text.USB_GetLineControl
                0x00000000       0x18 .\CortexM3\ARM_GCC_541\Debug\Half_Skeleton_V2_LED_ARRAY.a(USB_cdc.o)
 .text.USB_SendSerialState
                0x00000000       0x64 .\CortexM3\ARM_GCC_541\Debug\Half_Skeleton_V2_LED_ARRAY.a(USB_cdc.o)
 .text.USB_GetSerialState
                0x00000000       0x18 .\CortexM3\ARM_GCC_541\Debug\Half_Skeleton_V2_LED_ARRAY.a(USB_cdc.o)
 .text.USB_NotificationIsReady
                0x00000000       0x24 .\CortexM3\ARM_GCC_541\Debug\Half_Skeleton_V2_LED_ARRAY.a(USB_cdc.o)
 .text.USB_SetComPort
                0x00000000       0x18 .\CortexM3\ARM_GCC_541\Debug\Half_Skeleton_V2_LED_ARRAY.a(USB_cdc.o)
 .text.USB_GetComPort
                0x00000000        0xc .\CortexM3\ARM_GCC_541\Debug\Half_Skeleton_V2_LED_ARRAY.a(USB_cdc.o)
 .rodata        0x00000000        0x2 .\CortexM3\ARM_GCC_541\Debug\Half_Skeleton_V2_LED_ARRAY.a(USB_cdc.o)
 .text          0x00000000        0x0 .\CortexM3\ARM_GCC_541\Debug\Half_Skeleton_V2_LED_ARRAY.a(USB_drv.o)
 .data          0x00000000        0x0 .\CortexM3\ARM_GCC_541\Debug\Half_Skeleton_V2_LED_ARRAY.a(USB_drv.o)
 .bss           0x00000000        0x0 .\CortexM3\ARM_GCC_541\Debug\Half_Skeleton_V2_LED_ARRAY.a(USB_drv.o)
 .text          0x00000000        0x0 .\CortexM3\ARM_GCC_541\Debug\Half_Skeleton_V2_LED_ARRAY.a(USB_episr.o)
 .data          0x00000000        0x0 .\CortexM3\ARM_GCC_541\Debug\Half_Skeleton_V2_LED_ARRAY.a(USB_episr.o)
 .bss           0x00000000        0x0 .\CortexM3\ARM_GCC_541\Debug\Half_Skeleton_V2_LED_ARRAY.a(USB_episr.o)
 .text          0x00000000        0x0 .\CortexM3\ARM_GCC_541\Debug\Half_Skeleton_V2_LED_ARRAY.a(USB_hid.o)
 .data          0x00000000        0x0 .\CortexM3\ARM_GCC_541\Debug\Half_Skeleton_V2_LED_ARRAY.a(USB_hid.o)
 .bss           0x00000000        0x0 .\CortexM3\ARM_GCC_541\Debug\Half_Skeleton_V2_LED_ARRAY.a(USB_hid.o)
 .text.USB_UpdateHIDTimer
                0x00000000       0x3c .\CortexM3\ARM_GCC_541\Debug\Half_Skeleton_V2_LED_ARRAY.a(USB_hid.o)
 .text.USB_GetProtocol
                0x00000000        0xc .\CortexM3\ARM_GCC_541\Debug\Half_Skeleton_V2_LED_ARRAY.a(USB_hid.o)
 .text          0x00000000        0x0 .\CortexM3\ARM_GCC_541\Debug\Half_Skeleton_V2_LED_ARRAY.a(USB_pm.o)
 .data          0x00000000        0x0 .\CortexM3\ARM_GCC_541\Debug\Half_Skeleton_V2_LED_ARRAY.a(USB_pm.o)
 .bss           0x00000000        0x2 .\CortexM3\ARM_GCC_541\Debug\Half_Skeleton_V2_LED_ARRAY.a(USB_pm.o)
 .text.USB_SaveConfig
                0x00000000        0x4 .\CortexM3\ARM_GCC_541\Debug\Half_Skeleton_V2_LED_ARRAY.a(USB_pm.o)
 .text.USB_RestoreConfig
                0x00000000       0x1c .\CortexM3\ARM_GCC_541\Debug\Half_Skeleton_V2_LED_ARRAY.a(USB_pm.o)
 .text.USB_Suspend
                0x00000000       0xc8 .\CortexM3\ARM_GCC_541\Debug\Half_Skeleton_V2_LED_ARRAY.a(USB_pm.o)
 .text.USB_Resume
                0x00000000       0xbc .\CortexM3\ARM_GCC_541\Debug\Half_Skeleton_V2_LED_ARRAY.a(USB_pm.o)
 .text          0x00000000        0x0 .\CortexM3\ARM_GCC_541\Debug\Half_Skeleton_V2_LED_ARRAY.a(USB_std.o)
 .data          0x00000000        0x0 .\CortexM3\ARM_GCC_541\Debug\Half_Skeleton_V2_LED_ARRAY.a(USB_std.o)
 .text.USB_EpStateInit
                0x00000000       0x44 .\CortexM3\ARM_GCC_541\Debug\Half_Skeleton_V2_LED_ARRAY.a(USB_std.o)
 .text.USB_TerminateEP
                0x00000000       0x4c .\CortexM3\ARM_GCC_541\Debug\Half_Skeleton_V2_LED_ARRAY.a(USB_std.o)
 .text          0x00000000        0x0 .\CortexM3\ARM_GCC_541\Debug\Half_Skeleton_V2_LED_ARRAY.a(USB_vnd.o)
 .data          0x00000000        0x0 .\CortexM3\ARM_GCC_541\Debug\Half_Skeleton_V2_LED_ARRAY.a(USB_vnd.o)
 .bss           0x00000000        0x0 .\CortexM3\ARM_GCC_541\Debug\Half_Skeleton_V2_LED_ARRAY.a(USB_vnd.o)
 .text          0x00000000        0x0 .\CortexM3\ARM_GCC_541\Debug\Half_Skeleton_V2_LED_ARRAY.a(USB_Dp.o)
 .data          0x00000000        0x0 .\CortexM3\ARM_GCC_541\Debug\Half_Skeleton_V2_LED_ARRAY.a(USB_Dp.o)
 .bss           0x00000000        0x0 .\CortexM3\ARM_GCC_541\Debug\Half_Skeleton_V2_LED_ARRAY.a(USB_Dp.o)
 .text.USB_Dp_Write
                0x00000000       0x18 .\CortexM3\ARM_GCC_541\Debug\Half_Skeleton_V2_LED_ARRAY.a(USB_Dp.o)
 .text.USB_Dp_SetDriveMode
                0x00000000       0x18 .\CortexM3\ARM_GCC_541\Debug\Half_Skeleton_V2_LED_ARRAY.a(USB_Dp.o)
 .text.USB_Dp_Read
                0x00000000       0x10 .\CortexM3\ARM_GCC_541\Debug\Half_Skeleton_V2_LED_ARRAY.a(USB_Dp.o)
 .text.USB_Dp_ReadDataReg
                0x00000000       0x10 .\CortexM3\ARM_GCC_541\Debug\Half_Skeleton_V2_LED_ARRAY.a(USB_Dp.o)
 .text.USB_Dp_SetInterruptMode
                0x00000000       0x14 .\CortexM3\ARM_GCC_541\Debug\Half_Skeleton_V2_LED_ARRAY.a(USB_Dp.o)
 .text          0x00000000        0x0 .\CortexM3\ARM_GCC_541\Debug\Half_Skeleton_V2_LED_ARRAY.a(PWM_CondenserLED.o)
 .data          0x00000000        0x0 .\CortexM3\ARM_GCC_541\Debug\Half_Skeleton_V2_LED_ARRAY.a(PWM_CondenserLED.o)
 .text.PWM_CondenserLED_Stop
                0x00000000       0x28 .\CortexM3\ARM_GCC_541\Debug\Half_Skeleton_V2_LED_ARRAY.a(PWM_CondenserLED.o)
 .text.PWM_CondenserLED_ReadStatusRegister
                0x00000000        0xc .\CortexM3\ARM_GCC_541\Debug\Half_Skeleton_V2_LED_ARRAY.a(PWM_CondenserLED.o)
 .text.PWM_CondenserLED_ReadControlRegister
                0x00000000        0xc .\CortexM3\ARM_GCC_541\Debug\Half_Skeleton_V2_LED_ARRAY.a(PWM_CondenserLED.o)
 .text.PWM_CondenserLED_WriteControlRegister
                0x00000000        0xc .\CortexM3\ARM_GCC_541\Debug\Half_Skeleton_V2_LED_ARRAY.a(PWM_CondenserLED.o)
 .text.PWM_CondenserLED_ReadCompare
                0x00000000        0xc .\CortexM3\ARM_GCC_541\Debug\Half_Skeleton_V2_LED_ARRAY.a(PWM_CondenserLED.o)
 .text.PWM_CondenserLED_ReadPeriod
                0x00000000        0xc .\CortexM3\ARM_GCC_541\Debug\Half_Skeleton_V2_LED_ARRAY.a(PWM_CondenserLED.o)
 .text          0x00000000        0x0 .\CortexM3\ARM_GCC_541\Debug\Half_Skeleton_V2_LED_ARRAY.a(SPIM_IntClock.o)
 .data          0x00000000        0x0 .\CortexM3\ARM_GCC_541\Debug\Half_Skeleton_V2_LED_ARRAY.a(SPIM_IntClock.o)
 .bss           0x00000000        0x0 .\CortexM3\ARM_GCC_541\Debug\Half_Skeleton_V2_LED_ARRAY.a(SPIM_IntClock.o)
 .text.SPIM_IntClock_Stop
                0x00000000       0x1c .\CortexM3\ARM_GCC_541\Debug\Half_Skeleton_V2_LED_ARRAY.a(SPIM_IntClock.o)
 .text.SPIM_IntClock_StopBlock
                0x00000000       0x6c .\CortexM3\ARM_GCC_541\Debug\Half_Skeleton_V2_LED_ARRAY.a(SPIM_IntClock.o)
 .text.SPIM_IntClock_StandbyPower
                0x00000000       0x20 .\CortexM3\ARM_GCC_541\Debug\Half_Skeleton_V2_LED_ARRAY.a(SPIM_IntClock.o)
 .text.SPIM_IntClock_GetDividerRegister
                0x00000000        0xc .\CortexM3\ARM_GCC_541\Debug\Half_Skeleton_V2_LED_ARRAY.a(SPIM_IntClock.o)
 .text.SPIM_IntClock_SetModeRegister
                0x00000000       0x14 .\CortexM3\ARM_GCC_541\Debug\Half_Skeleton_V2_LED_ARRAY.a(SPIM_IntClock.o)
 .text.SPIM_IntClock_ClearModeRegister
                0x00000000       0x18 .\CortexM3\ARM_GCC_541\Debug\Half_Skeleton_V2_LED_ARRAY.a(SPIM_IntClock.o)
 .text.SPIM_IntClock_GetModeRegister
                0x00000000       0x10 .\CortexM3\ARM_GCC_541\Debug\Half_Skeleton_V2_LED_ARRAY.a(SPIM_IntClock.o)
 .text.SPIM_IntClock_GetSourceRegister
                0x00000000       0x10 .\CortexM3\ARM_GCC_541\Debug\Half_Skeleton_V2_LED_ARRAY.a(SPIM_IntClock.o)
 .text.SPIM_IntClock_SetDividerRegister
                0x00000000       0xdc .\CortexM3\ARM_GCC_541\Debug\Half_Skeleton_V2_LED_ARRAY.a(SPIM_IntClock.o)
 .text.SPIM_IntClock_SetSourceRegister
                0x00000000       0x5c .\CortexM3\ARM_GCC_541\Debug\Half_Skeleton_V2_LED_ARRAY.a(SPIM_IntClock.o)
 .text          0x00000000        0x0 .\CortexM3\ARM_GCC_541\Debug\Half_Skeleton_V2_LED_ARRAY.a(QuadDec_X.o)
 .data          0x00000000        0x0 .\CortexM3\ARM_GCC_541\Debug\Half_Skeleton_V2_LED_ARRAY.a(QuadDec_X.o)
 .text.QuadDec_X_Stop
                0x00000000       0x28 .\CortexM3\ARM_GCC_541\Debug\Half_Skeleton_V2_LED_ARRAY.a(QuadDec_X.o)
 .text.QuadDec_X_GetInterruptMask
                0x00000000       0x10 .\CortexM3\ARM_GCC_541\Debug\Half_Skeleton_V2_LED_ARRAY.a(QuadDec_X.o)
 .text          0x00000000        0x0 .\CortexM3\ARM_GCC_541\Debug\Half_Skeleton_V2_LED_ARRAY.a(QuadDec_X_INT.o)
 .data          0x00000000        0x0 .\CortexM3\ARM_GCC_541\Debug\Half_Skeleton_V2_LED_ARRAY.a(QuadDec_X_INT.o)
 .text          0x00000000        0x0 .\CortexM3\ARM_GCC_541\Debug\Half_Skeleton_V2_LED_ARRAY.a(QuadDec_X_Cnt16.o)
 .data          0x00000000        0x0 .\CortexM3\ARM_GCC_541\Debug\Half_Skeleton_V2_LED_ARRAY.a(QuadDec_X_Cnt16.o)
 .text.QuadDec_X_Cnt16_Stop
                0x00000000       0x10 .\CortexM3\ARM_GCC_541\Debug\Half_Skeleton_V2_LED_ARRAY.a(QuadDec_X_Cnt16.o)
 .text.QuadDec_X_Cnt16_ReadControlRegister
                0x00000000        0xc .\CortexM3\ARM_GCC_541\Debug\Half_Skeleton_V2_LED_ARRAY.a(QuadDec_X_Cnt16.o)
 .text.QuadDec_X_Cnt16_WriteControlRegister
                0x00000000        0xc .\CortexM3\ARM_GCC_541\Debug\Half_Skeleton_V2_LED_ARRAY.a(QuadDec_X_Cnt16.o)
 .text.QuadDec_X_Cnt16_ReadPeriod
                0x00000000        0xc .\CortexM3\ARM_GCC_541\Debug\Half_Skeleton_V2_LED_ARRAY.a(QuadDec_X_Cnt16.o)
 .text.QuadDec_X_Cnt16_ReadCompare
                0x00000000        0xc .\CortexM3\ARM_GCC_541\Debug\Half_Skeleton_V2_LED_ARRAY.a(QuadDec_X_Cnt16.o)
 .text          0x00000000        0x0 .\CortexM3\ARM_GCC_541\Debug\Half_Skeleton_V2_LED_ARRAY.a(UART_PCB_LOG.o)
 .data          0x00000000        0x0 .\CortexM3\ARM_GCC_541\Debug\Half_Skeleton_V2_LED_ARRAY.a(UART_PCB_LOG.o)
 .text.UART_PCB_LOG_Stop
                0x00000000       0x48 .\CortexM3\ARM_GCC_541\Debug\Half_Skeleton_V2_LED_ARRAY.a(UART_PCB_LOG.o)
 .text.UART_PCB_LOG_ReadControlRegister
                0x00000000        0x4 .\CortexM3\ARM_GCC_541\Debug\Half_Skeleton_V2_LED_ARRAY.a(UART_PCB_LOG.o)
 .text.UART_PCB_LOG_WriteControlRegister
                0x00000000        0x4 .\CortexM3\ARM_GCC_541\Debug\Half_Skeleton_V2_LED_ARRAY.a(UART_PCB_LOG.o)
 .text.UART_PCB_LOG_SetRxInterruptMode
                0x00000000        0xc .\CortexM3\ARM_GCC_541\Debug\Half_Skeleton_V2_LED_ARRAY.a(UART_PCB_LOG.o)
 .text.UART_PCB_LOG_ReadRxData
                0x00000000       0x64 .\CortexM3\ARM_GCC_541\Debug\Half_Skeleton_V2_LED_ARRAY.a(UART_PCB_LOG.o)
 .text.UART_PCB_LOG_ReadRxStatus
                0x00000000       0x28 .\CortexM3\ARM_GCC_541\Debug\Half_Skeleton_V2_LED_ARRAY.a(UART_PCB_LOG.o)
 .text.UART_PCB_LOG_GetChar
                0x00000000       0x80 .\CortexM3\ARM_GCC_541\Debug\Half_Skeleton_V2_LED_ARRAY.a(UART_PCB_LOG.o)
 .text.UART_PCB_LOG_GetByte
                0x00000000       0x2c .\CortexM3\ARM_GCC_541\Debug\Half_Skeleton_V2_LED_ARRAY.a(UART_PCB_LOG.o)
 .text.UART_PCB_LOG_GetRxBufferSize
                0x00000000       0x60 .\CortexM3\ARM_GCC_541\Debug\Half_Skeleton_V2_LED_ARRAY.a(UART_PCB_LOG.o)
 .text.UART_PCB_LOG_ClearRxBuffer
                0x00000000       0x44 .\CortexM3\ARM_GCC_541\Debug\Half_Skeleton_V2_LED_ARRAY.a(UART_PCB_LOG.o)
 .text.UART_PCB_LOG_SetRxAddressMode
                0x00000000        0x4 .\CortexM3\ARM_GCC_541\Debug\Half_Skeleton_V2_LED_ARRAY.a(UART_PCB_LOG.o)
 .text.UART_PCB_LOG_SetRxAddress1
                0x00000000        0xc .\CortexM3\ARM_GCC_541\Debug\Half_Skeleton_V2_LED_ARRAY.a(UART_PCB_LOG.o)
 .text.UART_PCB_LOG_SetRxAddress2
                0x00000000        0xc .\CortexM3\ARM_GCC_541\Debug\Half_Skeleton_V2_LED_ARRAY.a(UART_PCB_LOG.o)
 .text.UART_PCB_LOG_SetTxInterruptMode
                0x00000000        0xc .\CortexM3\ARM_GCC_541\Debug\Half_Skeleton_V2_LED_ARRAY.a(UART_PCB_LOG.o)
 .text.UART_PCB_LOG_WriteTxData
                0x00000000       0x14 .\CortexM3\ARM_GCC_541\Debug\Half_Skeleton_V2_LED_ARRAY.a(UART_PCB_LOG.o)
 .text.UART_PCB_LOG_ReadTxStatus
                0x00000000        0xc .\CortexM3\ARM_GCC_541\Debug\Half_Skeleton_V2_LED_ARRAY.a(UART_PCB_LOG.o)
 .text.UART_PCB_LOG_PutArray
                0x00000000       0x28 .\CortexM3\ARM_GCC_541\Debug\Half_Skeleton_V2_LED_ARRAY.a(UART_PCB_LOG.o)
 .text.UART_PCB_LOG_PutCRLF
                0x00000000       0x20 .\CortexM3\ARM_GCC_541\Debug\Half_Skeleton_V2_LED_ARRAY.a(UART_PCB_LOG.o)
 .text.UART_PCB_LOG_GetTxBufferSize
                0x00000000       0x24 .\CortexM3\ARM_GCC_541\Debug\Half_Skeleton_V2_LED_ARRAY.a(UART_PCB_LOG.o)
 .text.UART_PCB_LOG_ClearTxBuffer
                0x00000000       0x24 .\CortexM3\ARM_GCC_541\Debug\Half_Skeleton_V2_LED_ARRAY.a(UART_PCB_LOG.o)
 .text.UART_PCB_LOG_SendBreak
                0x00000000       0x58 .\CortexM3\ARM_GCC_541\Debug\Half_Skeleton_V2_LED_ARRAY.a(UART_PCB_LOG.o)
 .text.UART_PCB_LOG_SetTxAddressMode
                0x00000000        0x4 .\CortexM3\ARM_GCC_541\Debug\Half_Skeleton_V2_LED_ARRAY.a(UART_PCB_LOG.o)
 .text          0x00000000        0x0 .\CortexM3\ARM_GCC_541\Debug\Half_Skeleton_V2_LED_ARRAY.a(UART_PCB_LOG_INT.o)
 .data          0x00000000        0x0 .\CortexM3\ARM_GCC_541\Debug\Half_Skeleton_V2_LED_ARRAY.a(UART_PCB_LOG_INT.o)
 .bss           0x00000000        0x0 .\CortexM3\ARM_GCC_541\Debug\Half_Skeleton_V2_LED_ARRAY.a(UART_PCB_LOG_INT.o)
 .text          0x00000000        0x0 .\CortexM3\ARM_GCC_541\Debug\Half_Skeleton_V2_LED_ARRAY.a(UART_PCB_LOG_IntClock.o)
 .data          0x00000000        0x0 .\CortexM3\ARM_GCC_541\Debug\Half_Skeleton_V2_LED_ARRAY.a(UART_PCB_LOG_IntClock.o)
 .bss           0x00000000        0x0 .\CortexM3\ARM_GCC_541\Debug\Half_Skeleton_V2_LED_ARRAY.a(UART_PCB_LOG_IntClock.o)
 .text.UART_PCB_LOG_IntClock_Stop
                0x00000000       0x1c .\CortexM3\ARM_GCC_541\Debug\Half_Skeleton_V2_LED_ARRAY.a(UART_PCB_LOG_IntClock.o)
 .text.UART_PCB_LOG_IntClock_StopBlock
                0x00000000       0x6c .\CortexM3\ARM_GCC_541\Debug\Half_Skeleton_V2_LED_ARRAY.a(UART_PCB_LOG_IntClock.o)
 .text.UART_PCB_LOG_IntClock_StandbyPower
                0x00000000       0x20 .\CortexM3\ARM_GCC_541\Debug\Half_Skeleton_V2_LED_ARRAY.a(UART_PCB_LOG_IntClock.o)
 .text.UART_PCB_LOG_IntClock_GetDividerRegister
                0x00000000        0xc .\CortexM3\ARM_GCC_541\Debug\Half_Skeleton_V2_LED_ARRAY.a(UART_PCB_LOG_IntClock.o)
 .text.UART_PCB_LOG_IntClock_SetModeRegister
                0x00000000       0x14 .\CortexM3\ARM_GCC_541\Debug\Half_Skeleton_V2_LED_ARRAY.a(UART_PCB_LOG_IntClock.o)
 .text.UART_PCB_LOG_IntClock_ClearModeRegister
                0x00000000       0x18 .\CortexM3\ARM_GCC_541\Debug\Half_Skeleton_V2_LED_ARRAY.a(UART_PCB_LOG_IntClock.o)
 .text.UART_PCB_LOG_IntClock_GetModeRegister
                0x00000000       0x10 .\CortexM3\ARM_GCC_541\Debug\Half_Skeleton_V2_LED_ARRAY.a(UART_PCB_LOG_IntClock.o)
 .text.UART_PCB_LOG_IntClock_GetSourceRegister
                0x00000000       0x10 .\CortexM3\ARM_GCC_541\Debug\Half_Skeleton_V2_LED_ARRAY.a(UART_PCB_LOG_IntClock.o)
 .text.UART_PCB_LOG_IntClock_SetDividerRegister
                0x00000000       0xdc .\CortexM3\ARM_GCC_541\Debug\Half_Skeleton_V2_LED_ARRAY.a(UART_PCB_LOG_IntClock.o)
 .text.UART_PCB_LOG_IntClock_SetSourceRegister
                0x00000000       0x5c .\CortexM3\ARM_GCC_541\Debug\Half_Skeleton_V2_LED_ARRAY.a(UART_PCB_LOG_IntClock.o)
 .text          0x00000000        0x0 .\CortexM3\ARM_GCC_541\Debug\Half_Skeleton_V2_LED_ARRAY.a(Pin_Backlight.o)
 .data          0x00000000        0x0 .\CortexM3\ARM_GCC_541\Debug\Half_Skeleton_V2_LED_ARRAY.a(Pin_Backlight.o)
 .bss           0x00000000        0x0 .\CortexM3\ARM_GCC_541\Debug\Half_Skeleton_V2_LED_ARRAY.a(Pin_Backlight.o)
 .text.Pin_Backlight_SetDriveMode
                0x00000000       0x18 .\CortexM3\ARM_GCC_541\Debug\Half_Skeleton_V2_LED_ARRAY.a(Pin_Backlight.o)
 .text.Pin_Backlight_Read
                0x00000000       0x10 .\CortexM3\ARM_GCC_541\Debug\Half_Skeleton_V2_LED_ARRAY.a(Pin_Backlight.o)
 .text.Pin_Backlight_ReadDataReg
                0x00000000       0x10 .\CortexM3\ARM_GCC_541\Debug\Half_Skeleton_V2_LED_ARRAY.a(Pin_Backlight.o)
 .text          0x00000000        0x0 .\CortexM3\ARM_GCC_541\Debug\Half_Skeleton_V2_LED_ARRAY.a(LED2.o)
 .data          0x00000000        0x0 .\CortexM3\ARM_GCC_541\Debug\Half_Skeleton_V2_LED_ARRAY.a(LED2.o)
 .bss           0x00000000        0x0 .\CortexM3\ARM_GCC_541\Debug\Half_Skeleton_V2_LED_ARRAY.a(LED2.o)
 .text.LED2_SetDriveMode
                0x00000000       0x18 .\CortexM3\ARM_GCC_541\Debug\Half_Skeleton_V2_LED_ARRAY.a(LED2.o)
 .text.LED2_Read
                0x00000000       0x10 .\CortexM3\ARM_GCC_541\Debug\Half_Skeleton_V2_LED_ARRAY.a(LED2.o)
 .text.LED2_ReadDataReg
                0x00000000       0x10 .\CortexM3\ARM_GCC_541\Debug\Half_Skeleton_V2_LED_ARRAY.a(LED2.o)
 .text          0x00000000        0x0 .\CortexM3\ARM_GCC_541\Debug\Half_Skeleton_V2_LED_ARRAY.a(Pin_CSMotorO.o)
 .data          0x00000000        0x0 .\CortexM3\ARM_GCC_541\Debug\Half_Skeleton_V2_LED_ARRAY.a(Pin_CSMotorO.o)
 .bss           0x00000000        0x0 .\CortexM3\ARM_GCC_541\Debug\Half_Skeleton_V2_LED_ARRAY.a(Pin_CSMotorO.o)
 .text.Pin_CSMotorO_SetDriveMode
                0x00000000       0x18 .\CortexM3\ARM_GCC_541\Debug\Half_Skeleton_V2_LED_ARRAY.a(Pin_CSMotorO.o)
 .text.Pin_CSMotorO_Read
                0x00000000       0x10 .\CortexM3\ARM_GCC_541\Debug\Half_Skeleton_V2_LED_ARRAY.a(Pin_CSMotorO.o)
 .text.Pin_CSMotorO_ReadDataReg
                0x00000000       0x10 .\CortexM3\ARM_GCC_541\Debug\Half_Skeleton_V2_LED_ARRAY.a(Pin_CSMotorO.o)
 .text          0x00000000        0x0 .\CortexM3\ARM_GCC_541\Debug\Half_Skeleton_V2_LED_ARRAY.a(Pin_CSMotorT.o)
 .data          0x00000000        0x0 .\CortexM3\ARM_GCC_541\Debug\Half_Skeleton_V2_LED_ARRAY.a(Pin_CSMotorT.o)
 .bss           0x00000000        0x0 .\CortexM3\ARM_GCC_541\Debug\Half_Skeleton_V2_LED_ARRAY.a(Pin_CSMotorT.o)
 .text.Pin_CSMotorT_SetDriveMode
                0x00000000       0x18 .\CortexM3\ARM_GCC_541\Debug\Half_Skeleton_V2_LED_ARRAY.a(Pin_CSMotorT.o)
 .text.Pin_CSMotorT_Read
                0x00000000       0x10 .\CortexM3\ARM_GCC_541\Debug\Half_Skeleton_V2_LED_ARRAY.a(Pin_CSMotorT.o)
 .text.Pin_CSMotorT_ReadDataReg
                0x00000000       0x10 .\CortexM3\ARM_GCC_541\Debug\Half_Skeleton_V2_LED_ARRAY.a(Pin_CSMotorT.o)
 .text          0x00000000        0x0 .\CortexM3\ARM_GCC_541\Debug\Half_Skeleton_V2_LED_ARRAY.a(QuadDec_TZ.o)
 .data          0x00000000        0x0 .\CortexM3\ARM_GCC_541\Debug\Half_Skeleton_V2_LED_ARRAY.a(QuadDec_TZ.o)
 .text.QuadDec_TZ_Stop
                0x00000000       0x28 .\CortexM3\ARM_GCC_541\Debug\Half_Skeleton_V2_LED_ARRAY.a(QuadDec_TZ.o)
 .text.QuadDec_TZ_GetInterruptMask
                0x00000000       0x10 .\CortexM3\ARM_GCC_541\Debug\Half_Skeleton_V2_LED_ARRAY.a(QuadDec_TZ.o)
 .text          0x00000000        0x0 .\CortexM3\ARM_GCC_541\Debug\Half_Skeleton_V2_LED_ARRAY.a(QuadDec_TZ_INT.o)
 .data          0x00000000        0x0 .\CortexM3\ARM_GCC_541\Debug\Half_Skeleton_V2_LED_ARRAY.a(QuadDec_TZ_INT.o)
 .text          0x00000000        0x0 .\CortexM3\ARM_GCC_541\Debug\Half_Skeleton_V2_LED_ARRAY.a(PWM_Buzzer.o)
 .data          0x00000000        0x0 .\CortexM3\ARM_GCC_541\Debug\Half_Skeleton_V2_LED_ARRAY.a(PWM_Buzzer.o)
 .text.PWM_Buzzer_Stop
                0x00000000       0x28 .\CortexM3\ARM_GCC_541\Debug\Half_Skeleton_V2_LED_ARRAY.a(PWM_Buzzer.o)
 .text.PWM_Buzzer_ReadStatusRegister
                0x00000000        0xc .\CortexM3\ARM_GCC_541\Debug\Half_Skeleton_V2_LED_ARRAY.a(PWM_Buzzer.o)
 .text.PWM_Buzzer_ReadControlRegister
                0x00000000        0xc .\CortexM3\ARM_GCC_541\Debug\Half_Skeleton_V2_LED_ARRAY.a(PWM_Buzzer.o)
 .text.PWM_Buzzer_WriteControlRegister
                0x00000000        0xc .\CortexM3\ARM_GCC_541\Debug\Half_Skeleton_V2_LED_ARRAY.a(PWM_Buzzer.o)
 .text.PWM_Buzzer_ReadCompare
                0x00000000        0xc .\CortexM3\ARM_GCC_541\Debug\Half_Skeleton_V2_LED_ARRAY.a(PWM_Buzzer.o)
 .text.PWM_Buzzer_ReadPeriod
                0x00000000        0xc .\CortexM3\ARM_GCC_541\Debug\Half_Skeleton_V2_LED_ARRAY.a(PWM_Buzzer.o)
 .text          0x00000000        0x0 .\CortexM3\ARM_GCC_541\Debug\Half_Skeleton_V2_LED_ARRAY.a(QuadDec_Y.o)
 .data          0x00000000        0x0 .\CortexM3\ARM_GCC_541\Debug\Half_Skeleton_V2_LED_ARRAY.a(QuadDec_Y.o)
 .text.QuadDec_Y_Stop
                0x00000000       0x28 .\CortexM3\ARM_GCC_541\Debug\Half_Skeleton_V2_LED_ARRAY.a(QuadDec_Y.o)
 .text.QuadDec_Y_GetInterruptMask
                0x00000000       0x10 .\CortexM3\ARM_GCC_541\Debug\Half_Skeleton_V2_LED_ARRAY.a(QuadDec_Y.o)
 .text          0x00000000        0x0 .\CortexM3\ARM_GCC_541\Debug\Half_Skeleton_V2_LED_ARRAY.a(QuadDec_Y_INT.o)
 .data          0x00000000        0x0 .\CortexM3\ARM_GCC_541\Debug\Half_Skeleton_V2_LED_ARRAY.a(QuadDec_Y_INT.o)
 .text          0x00000000        0x0 .\CortexM3\ARM_GCC_541\Debug\Half_Skeleton_V2_LED_ARRAY.a(PWM_BarcodeCondenser_LED.o)
 .data          0x00000000        0x0 .\CortexM3\ARM_GCC_541\Debug\Half_Skeleton_V2_LED_ARRAY.a(PWM_BarcodeCondenser_LED.o)
 .text.PWM_BarcodeCondenser_LED_Stop
                0x00000000       0x28 .\CortexM3\ARM_GCC_541\Debug\Half_Skeleton_V2_LED_ARRAY.a(PWM_BarcodeCondenser_LED.o)
 .text.PWM_BarcodeCondenser_LED_ReadStatusRegister
                0x00000000        0xc .\CortexM3\ARM_GCC_541\Debug\Half_Skeleton_V2_LED_ARRAY.a(PWM_BarcodeCondenser_LED.o)
 .text.PWM_BarcodeCondenser_LED_ReadControlRegister
                0x00000000        0xc .\CortexM3\ARM_GCC_541\Debug\Half_Skeleton_V2_LED_ARRAY.a(PWM_BarcodeCondenser_LED.o)
 .text.PWM_BarcodeCondenser_LED_WriteControlRegister
                0x00000000        0xc .\CortexM3\ARM_GCC_541\Debug\Half_Skeleton_V2_LED_ARRAY.a(PWM_BarcodeCondenser_LED.o)
 .text.PWM_BarcodeCondenser_LED_ReadCompare
                0x00000000        0xc .\CortexM3\ARM_GCC_541\Debug\Half_Skeleton_V2_LED_ARRAY.a(PWM_BarcodeCondenser_LED.o)
 .text.PWM_BarcodeCondenser_LED_ReadPeriod
                0x00000000        0xc .\CortexM3\ARM_GCC_541\Debug\Half_Skeleton_V2_LED_ARRAY.a(PWM_BarcodeCondenser_LED.o)
 .text          0x00000000        0x0 .\CortexM3\ARM_GCC_541\Debug\Half_Skeleton_V2_LED_ARRAY.a(LED3.o)
 .data          0x00000000        0x0 .\CortexM3\ARM_GCC_541\Debug\Half_Skeleton_V2_LED_ARRAY.a(LED3.o)
 .bss           0x00000000        0x0 .\CortexM3\ARM_GCC_541\Debug\Half_Skeleton_V2_LED_ARRAY.a(LED3.o)
 .text.LED3_SetDriveMode
                0x00000000       0x18 .\CortexM3\ARM_GCC_541\Debug\Half_Skeleton_V2_LED_ARRAY.a(LED3.o)
 .text.LED3_Read
                0x00000000        0xc .\CortexM3\ARM_GCC_541\Debug\Half_Skeleton_V2_LED_ARRAY.a(LED3.o)
 .text.LED3_ReadDataReg
                0x00000000        0xc .\CortexM3\ARM_GCC_541\Debug\Half_Skeleton_V2_LED_ARRAY.a(LED3.o)
 .text          0x00000000        0x0 .\CortexM3\ARM_GCC_541\Debug\Half_Skeleton_V2_LED_ARRAY.a(Encoder_T_Z_Select.o)
 .data          0x00000000        0x0 .\CortexM3\ARM_GCC_541\Debug\Half_Skeleton_V2_LED_ARRAY.a(Encoder_T_Z_Select.o)
 .bss           0x00000000        0x0 .\CortexM3\ARM_GCC_541\Debug\Half_Skeleton_V2_LED_ARRAY.a(Encoder_T_Z_Select.o)
 .text.Encoder_T_Z_Select_Read
                0x00000000        0xc .\CortexM3\ARM_GCC_541\Debug\Half_Skeleton_V2_LED_ARRAY.a(Encoder_T_Z_Select.o)
 .text          0x00000000        0x0 .\CortexM3\ARM_GCC_541\Debug\Half_Skeleton_V2_LED_ARRAY.a(TMC5160_MotorX_EN.o)
 .data          0x00000000        0x0 .\CortexM3\ARM_GCC_541\Debug\Half_Skeleton_V2_LED_ARRAY.a(TMC5160_MotorX_EN.o)
 .bss           0x00000000        0x0 .\CortexM3\ARM_GCC_541\Debug\Half_Skeleton_V2_LED_ARRAY.a(TMC5160_MotorX_EN.o)
 .text.TMC5160_MotorX_EN_SetDriveMode
                0x00000000       0x18 .\CortexM3\ARM_GCC_541\Debug\Half_Skeleton_V2_LED_ARRAY.a(TMC5160_MotorX_EN.o)
 .text.TMC5160_MotorX_EN_Read
                0x00000000       0x10 .\CortexM3\ARM_GCC_541\Debug\Half_Skeleton_V2_LED_ARRAY.a(TMC5160_MotorX_EN.o)
 .text.TMC5160_MotorX_EN_ReadDataReg
                0x00000000       0x10 .\CortexM3\ARM_GCC_541\Debug\Half_Skeleton_V2_LED_ARRAY.a(TMC5160_MotorX_EN.o)
 .text          0x00000000        0x0 .\CortexM3\ARM_GCC_541\Debug\Half_Skeleton_V2_LED_ARRAY.a(TMC5160_MotorY_EN.o)
 .data          0x00000000        0x0 .\CortexM3\ARM_GCC_541\Debug\Half_Skeleton_V2_LED_ARRAY.a(TMC5160_MotorY_EN.o)
 .bss           0x00000000        0x0 .\CortexM3\ARM_GCC_541\Debug\Half_Skeleton_V2_LED_ARRAY.a(TMC5160_MotorY_EN.o)
 .text.TMC5160_MotorY_EN_SetDriveMode
                0x00000000       0x18 .\CortexM3\ARM_GCC_541\Debug\Half_Skeleton_V2_LED_ARRAY.a(TMC5160_MotorY_EN.o)
 .text.TMC5160_MotorY_EN_Read
                0x00000000       0x10 .\CortexM3\ARM_GCC_541\Debug\Half_Skeleton_V2_LED_ARRAY.a(TMC5160_MotorY_EN.o)
 .text.TMC5160_MotorY_EN_ReadDataReg
                0x00000000       0x10 .\CortexM3\ARM_GCC_541\Debug\Half_Skeleton_V2_LED_ARRAY.a(TMC5160_MotorY_EN.o)
 .text          0x00000000        0x0 .\CortexM3\ARM_GCC_541\Debug\Half_Skeleton_V2_LED_ARRAY.a(TMC5160_MotorZ_EN.o)
 .data          0x00000000        0x0 .\CortexM3\ARM_GCC_541\Debug\Half_Skeleton_V2_LED_ARRAY.a(TMC5160_MotorZ_EN.o)
 .bss           0x00000000        0x0 .\CortexM3\ARM_GCC_541\Debug\Half_Skeleton_V2_LED_ARRAY.a(TMC5160_MotorZ_EN.o)
 .text.TMC5160_MotorZ_EN_SetDriveMode
                0x00000000       0x18 .\CortexM3\ARM_GCC_541\Debug\Half_Skeleton_V2_LED_ARRAY.a(TMC5160_MotorZ_EN.o)
 .text.TMC5160_MotorZ_EN_Read
                0x00000000       0x10 .\CortexM3\ARM_GCC_541\Debug\Half_Skeleton_V2_LED_ARRAY.a(TMC5160_MotorZ_EN.o)
 .text.TMC5160_MotorZ_EN_ReadDataReg
                0x00000000       0x10 .\CortexM3\ARM_GCC_541\Debug\Half_Skeleton_V2_LED_ARRAY.a(TMC5160_MotorZ_EN.o)
 .text          0x00000000        0x0 .\CortexM3\ARM_GCC_541\Debug\Half_Skeleton_V2_LED_ARRAY.a(TMC5160_MotorT_EN.o)
 .data          0x00000000        0x0 .\CortexM3\ARM_GCC_541\Debug\Half_Skeleton_V2_LED_ARRAY.a(TMC5160_MotorT_EN.o)
 .bss           0x00000000        0x0 .\CortexM3\ARM_GCC_541\Debug\Half_Skeleton_V2_LED_ARRAY.a(TMC5160_MotorT_EN.o)
 .text.TMC5160_MotorT_EN_SetDriveMode
                0x00000000       0x18 .\CortexM3\ARM_GCC_541\Debug\Half_Skeleton_V2_LED_ARRAY.a(TMC5160_MotorT_EN.o)
 .text.TMC5160_MotorT_EN_Read
                0x00000000       0x10 .\CortexM3\ARM_GCC_541\Debug\Half_Skeleton_V2_LED_ARRAY.a(TMC5160_MotorT_EN.o)
 .text.TMC5160_MotorT_EN_ReadDataReg
                0x00000000       0x10 .\CortexM3\ARM_GCC_541\Debug\Half_Skeleton_V2_LED_ARRAY.a(TMC5160_MotorT_EN.o)
 .text          0x00000000        0x0 .\CortexM3\ARM_GCC_541\Debug\Half_Skeleton_V2_LED_ARRAY.a(TMC5160_MotorO_EN.o)
 .data          0x00000000        0x0 .\CortexM3\ARM_GCC_541\Debug\Half_Skeleton_V2_LED_ARRAY.a(TMC5160_MotorO_EN.o)
 .bss           0x00000000        0x0 .\CortexM3\ARM_GCC_541\Debug\Half_Skeleton_V2_LED_ARRAY.a(TMC5160_MotorO_EN.o)
 .text.TMC5160_MotorO_EN_SetDriveMode
                0x00000000       0x18 .\CortexM3\ARM_GCC_541\Debug\Half_Skeleton_V2_LED_ARRAY.a(TMC5160_MotorO_EN.o)
 .text.TMC5160_MotorO_EN_Read
                0x00000000       0x10 .\CortexM3\ARM_GCC_541\Debug\Half_Skeleton_V2_LED_ARRAY.a(TMC5160_MotorO_EN.o)
 .text.TMC5160_MotorO_EN_ReadDataReg
                0x00000000       0x10 .\CortexM3\ARM_GCC_541\Debug\Half_Skeleton_V2_LED_ARRAY.a(TMC5160_MotorO_EN.o)
 .text          0x00000000        0x0 .\CortexM3\ARM_GCC_541\Debug\Half_Skeleton_V2_LED_ARRAY.a(QuadDec_TZ_Cnt16.o)
 .data          0x00000000        0x0 .\CortexM3\ARM_GCC_541\Debug\Half_Skeleton_V2_LED_ARRAY.a(QuadDec_TZ_Cnt16.o)
 .text.QuadDec_TZ_Cnt16_Stop
                0x00000000       0x10 .\CortexM3\ARM_GCC_541\Debug\Half_Skeleton_V2_LED_ARRAY.a(QuadDec_TZ_Cnt16.o)
 .text.QuadDec_TZ_Cnt16_ReadControlRegister
                0x00000000        0xc .\CortexM3\ARM_GCC_541\Debug\Half_Skeleton_V2_LED_ARRAY.a(QuadDec_TZ_Cnt16.o)
 .text.QuadDec_TZ_Cnt16_WriteControlRegister
                0x00000000        0xc .\CortexM3\ARM_GCC_541\Debug\Half_Skeleton_V2_LED_ARRAY.a(QuadDec_TZ_Cnt16.o)
 .text.QuadDec_TZ_Cnt16_ReadPeriod
                0x00000000        0xc .\CortexM3\ARM_GCC_541\Debug\Half_Skeleton_V2_LED_ARRAY.a(QuadDec_TZ_Cnt16.o)
 .text.QuadDec_TZ_Cnt16_ReadCompare
                0x00000000        0xc .\CortexM3\ARM_GCC_541\Debug\Half_Skeleton_V2_LED_ARRAY.a(QuadDec_TZ_Cnt16.o)
 .text          0x00000000        0x0 .\CortexM3\ARM_GCC_541\Debug\Half_Skeleton_V2_LED_ARRAY.a(QuadDec_Y_Cnt16.o)
 .data          0x00000000        0x0 .\CortexM3\ARM_GCC_541\Debug\Half_Skeleton_V2_LED_ARRAY.a(QuadDec_Y_Cnt16.o)
 .text.QuadDec_Y_Cnt16_Stop
                0x00000000       0x10 .\CortexM3\ARM_GCC_541\Debug\Half_Skeleton_V2_LED_ARRAY.a(QuadDec_Y_Cnt16.o)
 .text.QuadDec_Y_Cnt16_ReadControlRegister
                0x00000000        0xc .\CortexM3\ARM_GCC_541\Debug\Half_Skeleton_V2_LED_ARRAY.a(QuadDec_Y_Cnt16.o)
 .text.QuadDec_Y_Cnt16_WriteControlRegister
                0x00000000        0xc .\CortexM3\ARM_GCC_541\Debug\Half_Skeleton_V2_LED_ARRAY.a(QuadDec_Y_Cnt16.o)
 .text.QuadDec_Y_Cnt16_ReadPeriod
                0x00000000        0xc .\CortexM3\ARM_GCC_541\Debug\Half_Skeleton_V2_LED_ARRAY.a(QuadDec_Y_Cnt16.o)
 .text.QuadDec_Y_Cnt16_ReadCompare
                0x00000000        0xc .\CortexM3\ARM_GCC_541\Debug\Half_Skeleton_V2_LED_ARRAY.a(QuadDec_Y_Cnt16.o)
 .text          0x00000000        0x0 .\CortexM3\ARM_GCC_541\Debug\Half_Skeleton_V2_LED_ARRAY.a(wait_timer.o)
 .data          0x00000000        0x0 .\CortexM3\ARM_GCC_541\Debug\Half_Skeleton_V2_LED_ARRAY.a(wait_timer.o)
 .text.wait_timer_SoftwareCapture
                0x00000000        0xc .\CortexM3\ARM_GCC_541\Debug\Half_Skeleton_V2_LED_ARRAY.a(wait_timer.o)
 .text.wait_timer_ReadStatusRegister
                0x00000000        0xc .\CortexM3\ARM_GCC_541\Debug\Half_Skeleton_V2_LED_ARRAY.a(wait_timer.o)
 .text.wait_timer_ReadControlRegister
                0x00000000        0xc .\CortexM3\ARM_GCC_541\Debug\Half_Skeleton_V2_LED_ARRAY.a(wait_timer.o)
 .text.wait_timer_WriteControlRegister
                0x00000000        0xc .\CortexM3\ARM_GCC_541\Debug\Half_Skeleton_V2_LED_ARRAY.a(wait_timer.o)
 .text.wait_timer_ReadPeriod
                0x00000000        0xc .\CortexM3\ARM_GCC_541\Debug\Half_Skeleton_V2_LED_ARRAY.a(wait_timer.o)
 .text.wait_timer_ReadCapture
                0x00000000        0xc .\CortexM3\ARM_GCC_541\Debug\Half_Skeleton_V2_LED_ARRAY.a(wait_timer.o)
 .text.wait_timer_ReadCounter
                0x00000000       0x14 .\CortexM3\ARM_GCC_541\Debug\Half_Skeleton_V2_LED_ARRAY.a(wait_timer.o)
 .text          0x00000000        0x0 .\CortexM3\ARM_GCC_541\Debug\Half_Skeleton_V2_LED_ARRAY.a(wait_interrupt.o)
 .data          0x00000000        0x0 .\CortexM3\ARM_GCC_541\Debug\Half_Skeleton_V2_LED_ARRAY.a(wait_interrupt.o)
 .bss           0x00000000        0x0 .\CortexM3\ARM_GCC_541\Debug\Half_Skeleton_V2_LED_ARRAY.a(wait_interrupt.o)
 .text.wait_interrupt_Interrupt
                0x00000000        0x4 .\CortexM3\ARM_GCC_541\Debug\Half_Skeleton_V2_LED_ARRAY.a(wait_interrupt.o)
 .text.wait_interrupt_GetVector
                0x00000000        0xc .\CortexM3\ARM_GCC_541\Debug\Half_Skeleton_V2_LED_ARRAY.a(wait_interrupt.o)
 .text.wait_interrupt_GetPriority
                0x00000000        0xc .\CortexM3\ARM_GCC_541\Debug\Half_Skeleton_V2_LED_ARRAY.a(wait_interrupt.o)
 .text.wait_interrupt_GetState
                0x00000000       0x18 .\CortexM3\ARM_GCC_541\Debug\Half_Skeleton_V2_LED_ARRAY.a(wait_interrupt.o)
 .text.wait_interrupt_Start
                0x00000000       0x1c .\CortexM3\ARM_GCC_541\Debug\Half_Skeleton_V2_LED_ARRAY.a(wait_interrupt.o)
 .text.wait_interrupt_Stop
                0x00000000       0x14 .\CortexM3\ARM_GCC_541\Debug\Half_Skeleton_V2_LED_ARRAY.a(wait_interrupt.o)
 .text.wait_interrupt_SetPending
                0x00000000       0x10 .\CortexM3\ARM_GCC_541\Debug\Half_Skeleton_V2_LED_ARRAY.a(wait_interrupt.o)
 .text.wait_interrupt_ClearPending
                0x00000000       0x10 .\CortexM3\ARM_GCC_541\Debug\Half_Skeleton_V2_LED_ARRAY.a(wait_interrupt.o)
 .text          0x00000000        0x0 .\CortexM3\ARM_GCC_541\Debug\Half_Skeleton_V2_LED_ARRAY.a(X_MOT_INT.o)
 .data          0x00000000        0x0 .\CortexM3\ARM_GCC_541\Debug\Half_Skeleton_V2_LED_ARRAY.a(X_MOT_INT.o)
 .bss           0x00000000        0x0 .\CortexM3\ARM_GCC_541\Debug\Half_Skeleton_V2_LED_ARRAY.a(X_MOT_INT.o)
 .text.X_MOT_INT_Write
                0x00000000       0x18 .\CortexM3\ARM_GCC_541\Debug\Half_Skeleton_V2_LED_ARRAY.a(X_MOT_INT.o)
 .text.X_MOT_INT_SetDriveMode
                0x00000000       0x18 .\CortexM3\ARM_GCC_541\Debug\Half_Skeleton_V2_LED_ARRAY.a(X_MOT_INT.o)
 .text.X_MOT_INT_ReadDataReg
                0x00000000       0x10 .\CortexM3\ARM_GCC_541\Debug\Half_Skeleton_V2_LED_ARRAY.a(X_MOT_INT.o)
 .text          0x00000000        0x0 .\CortexM3\ARM_GCC_541\Debug\Half_Skeleton_V2_LED_ARRAY.a(Y_MOT_INT.o)
 .data          0x00000000        0x0 .\CortexM3\ARM_GCC_541\Debug\Half_Skeleton_V2_LED_ARRAY.a(Y_MOT_INT.o)
 .bss           0x00000000        0x0 .\CortexM3\ARM_GCC_541\Debug\Half_Skeleton_V2_LED_ARRAY.a(Y_MOT_INT.o)
 .text.Y_MOT_INT_Write
                0x00000000       0x18 .\CortexM3\ARM_GCC_541\Debug\Half_Skeleton_V2_LED_ARRAY.a(Y_MOT_INT.o)
 .text.Y_MOT_INT_SetDriveMode
                0x00000000       0x18 .\CortexM3\ARM_GCC_541\Debug\Half_Skeleton_V2_LED_ARRAY.a(Y_MOT_INT.o)
 .text.Y_MOT_INT_ReadDataReg
                0x00000000       0x10 .\CortexM3\ARM_GCC_541\Debug\Half_Skeleton_V2_LED_ARRAY.a(Y_MOT_INT.o)
 .text          0x00000000        0x0 .\CortexM3\ARM_GCC_541\Debug\Half_Skeleton_V2_LED_ARRAY.a(Z_MOT_INT.o)
 .data          0x00000000        0x0 .\CortexM3\ARM_GCC_541\Debug\Half_Skeleton_V2_LED_ARRAY.a(Z_MOT_INT.o)
 .bss           0x00000000        0x0 .\CortexM3\ARM_GCC_541\Debug\Half_Skeleton_V2_LED_ARRAY.a(Z_MOT_INT.o)
 .text.Z_MOT_INT_Write
                0x00000000       0x18 .\CortexM3\ARM_GCC_541\Debug\Half_Skeleton_V2_LED_ARRAY.a(Z_MOT_INT.o)
 .text.Z_MOT_INT_SetDriveMode
                0x00000000       0x18 .\CortexM3\ARM_GCC_541\Debug\Half_Skeleton_V2_LED_ARRAY.a(Z_MOT_INT.o)
 .text.Z_MOT_INT_ReadDataReg
                0x00000000       0x10 .\CortexM3\ARM_GCC_541\Debug\Half_Skeleton_V2_LED_ARRAY.a(Z_MOT_INT.o)
 .text          0x00000000        0x0 .\CortexM3\ARM_GCC_541\Debug\Half_Skeleton_V2_LED_ARRAY.a(Camera_Trigger.o)
 .data          0x00000000        0x0 .\CortexM3\ARM_GCC_541\Debug\Half_Skeleton_V2_LED_ARRAY.a(Camera_Trigger.o)
 .bss           0x00000000        0x0 .\CortexM3\ARM_GCC_541\Debug\Half_Skeleton_V2_LED_ARRAY.a(Camera_Trigger.o)
 .text.Camera_Trigger_SetDriveMode
                0x00000000       0x18 .\CortexM3\ARM_GCC_541\Debug\Half_Skeleton_V2_LED_ARRAY.a(Camera_Trigger.o)
 .text.Camera_Trigger_Read
                0x00000000       0x10 .\CortexM3\ARM_GCC_541\Debug\Half_Skeleton_V2_LED_ARRAY.a(Camera_Trigger.o)
 .text.Camera_Trigger_ReadDataReg
                0x00000000       0x10 .\CortexM3\ARM_GCC_541\Debug\Half_Skeleton_V2_LED_ARRAY.a(Camera_Trigger.o)
 .text          0x00000000        0x0 .\CortexM3\ARM_GCC_541\Debug\Half_Skeleton_V2_LED_ARRAY.a(Pin_SDI_RGB.o)
 .data          0x00000000        0x0 .\CortexM3\ARM_GCC_541\Debug\Half_Skeleton_V2_LED_ARRAY.a(Pin_SDI_RGB.o)
 .bss           0x00000000        0x0 .\CortexM3\ARM_GCC_541\Debug\Half_Skeleton_V2_LED_ARRAY.a(Pin_SDI_RGB.o)
 .text.Pin_SDI_RGB_SetDriveMode
                0x00000000       0x18 .\CortexM3\ARM_GCC_541\Debug\Half_Skeleton_V2_LED_ARRAY.a(Pin_SDI_RGB.o)
 .text.Pin_SDI_RGB_Read
                0x00000000       0x10 .\CortexM3\ARM_GCC_541\Debug\Half_Skeleton_V2_LED_ARRAY.a(Pin_SDI_RGB.o)
 .text.Pin_SDI_RGB_ReadDataReg
                0x00000000       0x10 .\CortexM3\ARM_GCC_541\Debug\Half_Skeleton_V2_LED_ARRAY.a(Pin_SDI_RGB.o)
 .text          0x00000000        0x0 .\CortexM3\ARM_GCC_541\Debug\Half_Skeleton_V2_LED_ARRAY.a(Pin_Clock_RGB.o)
 .data          0x00000000        0x0 .\CortexM3\ARM_GCC_541\Debug\Half_Skeleton_V2_LED_ARRAY.a(Pin_Clock_RGB.o)
 .bss           0x00000000        0x0 .\CortexM3\ARM_GCC_541\Debug\Half_Skeleton_V2_LED_ARRAY.a(Pin_Clock_RGB.o)
 .text.Pin_Clock_RGB_SetDriveMode
                0x00000000       0x18 .\CortexM3\ARM_GCC_541\Debug\Half_Skeleton_V2_LED_ARRAY.a(Pin_Clock_RGB.o)
 .text.Pin_Clock_RGB_Read
                0x00000000       0x10 .\CortexM3\ARM_GCC_541\Debug\Half_Skeleton_V2_LED_ARRAY.a(Pin_Clock_RGB.o)
 .text.Pin_Clock_RGB_ReadDataReg
                0x00000000       0x10 .\CortexM3\ARM_GCC_541\Debug\Half_Skeleton_V2_LED_ARRAY.a(Pin_Clock_RGB.o)
 .text          0x00000000        0x0 .\CortexM3\ARM_GCC_541\Debug\Half_Skeleton_V2_LED_ARRAY.a(Pin_MOSI_PCA9959.o)
 .data          0x00000000        0x0 .\CortexM3\ARM_GCC_541\Debug\Half_Skeleton_V2_LED_ARRAY.a(Pin_MOSI_PCA9959.o)
 .bss           0x00000000        0x0 .\CortexM3\ARM_GCC_541\Debug\Half_Skeleton_V2_LED_ARRAY.a(Pin_MOSI_PCA9959.o)
 .text.Pin_MOSI_PCA9959_SetDriveMode
                0x00000000       0x18 .\CortexM3\ARM_GCC_541\Debug\Half_Skeleton_V2_LED_ARRAY.a(Pin_MOSI_PCA9959.o)
 .text.Pin_MOSI_PCA9959_Read
                0x00000000       0x10 .\CortexM3\ARM_GCC_541\Debug\Half_Skeleton_V2_LED_ARRAY.a(Pin_MOSI_PCA9959.o)
 .text.Pin_MOSI_PCA9959_ReadDataReg
                0x00000000       0x10 .\CortexM3\ARM_GCC_541\Debug\Half_Skeleton_V2_LED_ARRAY.a(Pin_MOSI_PCA9959.o)
 .text          0x00000000        0x0 .\CortexM3\ARM_GCC_541\Debug\Half_Skeleton_V2_LED_ARRAY.a(Pin_SCK_PCA9959.o)
 .data          0x00000000        0x0 .\CortexM3\ARM_GCC_541\Debug\Half_Skeleton_V2_LED_ARRAY.a(Pin_SCK_PCA9959.o)
 .bss           0x00000000        0x0 .\CortexM3\ARM_GCC_541\Debug\Half_Skeleton_V2_LED_ARRAY.a(Pin_SCK_PCA9959.o)
 .text.Pin_SCK_PCA9959_SetDriveMode
                0x00000000       0x18 .\CortexM3\ARM_GCC_541\Debug\Half_Skeleton_V2_LED_ARRAY.a(Pin_SCK_PCA9959.o)
 .text.Pin_SCK_PCA9959_Read
                0x00000000        0xc .\CortexM3\ARM_GCC_541\Debug\Half_Skeleton_V2_LED_ARRAY.a(Pin_SCK_PCA9959.o)
 .text.Pin_SCK_PCA9959_ReadDataReg
                0x00000000        0xc .\CortexM3\ARM_GCC_541\Debug\Half_Skeleton_V2_LED_ARRAY.a(Pin_SCK_PCA9959.o)
 .text          0x00000000        0x0 .\CortexM3\ARM_GCC_541\Debug\Half_Skeleton_V2_LED_ARRAY.a(Pin_SS_PCA9959.o)
 .data          0x00000000        0x0 .\CortexM3\ARM_GCC_541\Debug\Half_Skeleton_V2_LED_ARRAY.a(Pin_SS_PCA9959.o)
 .bss           0x00000000        0x0 .\CortexM3\ARM_GCC_541\Debug\Half_Skeleton_V2_LED_ARRAY.a(Pin_SS_PCA9959.o)
 .text.Pin_SS_PCA9959_SetDriveMode
                0x00000000       0x18 .\CortexM3\ARM_GCC_541\Debug\Half_Skeleton_V2_LED_ARRAY.a(Pin_SS_PCA9959.o)
 .text.Pin_SS_PCA9959_Read
                0x00000000       0x10 .\CortexM3\ARM_GCC_541\Debug\Half_Skeleton_V2_LED_ARRAY.a(Pin_SS_PCA9959.o)
 .text.Pin_SS_PCA9959_ReadDataReg
                0x00000000       0x10 .\CortexM3\ARM_GCC_541\Debug\Half_Skeleton_V2_LED_ARRAY.a(Pin_SS_PCA9959.o)
 .text          0x00000000        0x0 .\CortexM3\ARM_GCC_541\Debug\Half_Skeleton_V2_LED_ARRAY.a(Pin_OE_PCA9959_1.o)
 .data          0x00000000        0x0 .\CortexM3\ARM_GCC_541\Debug\Half_Skeleton_V2_LED_ARRAY.a(Pin_OE_PCA9959_1.o)
 .bss           0x00000000        0x0 .\CortexM3\ARM_GCC_541\Debug\Half_Skeleton_V2_LED_ARRAY.a(Pin_OE_PCA9959_1.o)
 .text.Pin_OE_PCA9959_1_SetDriveMode
                0x00000000       0x18 .\CortexM3\ARM_GCC_541\Debug\Half_Skeleton_V2_LED_ARRAY.a(Pin_OE_PCA9959_1.o)
 .text.Pin_OE_PCA9959_1_Read
                0x00000000        0xc .\CortexM3\ARM_GCC_541\Debug\Half_Skeleton_V2_LED_ARRAY.a(Pin_OE_PCA9959_1.o)
 .text.Pin_OE_PCA9959_1_ReadDataReg
                0x00000000        0xc .\CortexM3\ARM_GCC_541\Debug\Half_Skeleton_V2_LED_ARRAY.a(Pin_OE_PCA9959_1.o)
 .text          0x00000000        0x0 .\CortexM3\ARM_GCC_541\Debug\Half_Skeleton_V2_LED_ARRAY.a(Pin_OE_PCA9959_2.o)
 .data          0x00000000        0x0 .\CortexM3\ARM_GCC_541\Debug\Half_Skeleton_V2_LED_ARRAY.a(Pin_OE_PCA9959_2.o)
 .bss           0x00000000        0x0 .\CortexM3\ARM_GCC_541\Debug\Half_Skeleton_V2_LED_ARRAY.a(Pin_OE_PCA9959_2.o)
 .text.Pin_OE_PCA9959_2_SetDriveMode
                0x00000000       0x18 .\CortexM3\ARM_GCC_541\Debug\Half_Skeleton_V2_LED_ARRAY.a(Pin_OE_PCA9959_2.o)
 .text.Pin_OE_PCA9959_2_Read
                0x00000000       0x10 .\CortexM3\ARM_GCC_541\Debug\Half_Skeleton_V2_LED_ARRAY.a(Pin_OE_PCA9959_2.o)
 .text.Pin_OE_PCA9959_2_ReadDataReg
                0x00000000       0x10 .\CortexM3\ARM_GCC_541\Debug\Half_Skeleton_V2_LED_ARRAY.a(Pin_OE_PCA9959_2.o)
 .text          0x00000000        0x0 .\CortexM3\ARM_GCC_541\Debug\Half_Skeleton_V2_LED_ARRAY.a(Pin_OE_PCA9959_3.o)
 .data          0x00000000        0x0 .\CortexM3\ARM_GCC_541\Debug\Half_Skeleton_V2_LED_ARRAY.a(Pin_OE_PCA9959_3.o)
 .bss           0x00000000        0x0 .\CortexM3\ARM_GCC_541\Debug\Half_Skeleton_V2_LED_ARRAY.a(Pin_OE_PCA9959_3.o)
 .text.Pin_OE_PCA9959_3_SetDriveMode
                0x00000000       0x18 .\CortexM3\ARM_GCC_541\Debug\Half_Skeleton_V2_LED_ARRAY.a(Pin_OE_PCA9959_3.o)
 .text.Pin_OE_PCA9959_3_Read
                0x00000000       0x10 .\CortexM3\ARM_GCC_541\Debug\Half_Skeleton_V2_LED_ARRAY.a(Pin_OE_PCA9959_3.o)
 .text.Pin_OE_PCA9959_3_ReadDataReg
                0x00000000       0x10 .\CortexM3\ARM_GCC_541\Debug\Half_Skeleton_V2_LED_ARRAY.a(Pin_OE_PCA9959_3.o)
 .text          0x00000000        0x0 .\CortexM3\ARM_GCC_541\Debug\Half_Skeleton_V2_LED_ARRAY.a(Pin_OE_PCA9959_4.o)
 .data          0x00000000        0x0 .\CortexM3\ARM_GCC_541\Debug\Half_Skeleton_V2_LED_ARRAY.a(Pin_OE_PCA9959_4.o)
 .bss           0x00000000        0x0 .\CortexM3\ARM_GCC_541\Debug\Half_Skeleton_V2_LED_ARRAY.a(Pin_OE_PCA9959_4.o)
 .text.Pin_OE_PCA9959_4_SetDriveMode
                0x00000000       0x18 .\CortexM3\ARM_GCC_541\Debug\Half_Skeleton_V2_LED_ARRAY.a(Pin_OE_PCA9959_4.o)
 .text.Pin_OE_PCA9959_4_Read
                0x00000000       0x10 .\CortexM3\ARM_GCC_541\Debug\Half_Skeleton_V2_LED_ARRAY.a(Pin_OE_PCA9959_4.o)
 .text.Pin_OE_PCA9959_4_ReadDataReg
                0x00000000       0x10 .\CortexM3\ARM_GCC_541\Debug\Half_Skeleton_V2_LED_ARRAY.a(Pin_OE_PCA9959_4.o)
 .text          0x00000000        0x0 .\CortexM3\ARM_GCC_541\Debug\Half_Skeleton_V2_LED_ARRAY.a(Pin_RST_PCA9959.o)
 .data          0x00000000        0x0 .\CortexM3\ARM_GCC_541\Debug\Half_Skeleton_V2_LED_ARRAY.a(Pin_RST_PCA9959.o)
 .bss           0x00000000        0x0 .\CortexM3\ARM_GCC_541\Debug\Half_Skeleton_V2_LED_ARRAY.a(Pin_RST_PCA9959.o)
 .text.Pin_RST_PCA9959_SetDriveMode
                0x00000000       0x18 .\CortexM3\ARM_GCC_541\Debug\Half_Skeleton_V2_LED_ARRAY.a(Pin_RST_PCA9959.o)
 .text.Pin_RST_PCA9959_Read
                0x00000000       0x10 .\CortexM3\ARM_GCC_541\Debug\Half_Skeleton_V2_LED_ARRAY.a(Pin_RST_PCA9959.o)
 .text.Pin_RST_PCA9959_ReadDataReg
                0x00000000       0x10 .\CortexM3\ARM_GCC_541\Debug\Half_Skeleton_V2_LED_ARRAY.a(Pin_RST_PCA9959.o)
 .data          0x00000000        0x0 .\CortexM3\ARM_GCC_541\Debug\Half_Skeleton_V2_LED_ARRAY.a(CyBootAsmGnu.o)
 .bss           0x00000000        0x0 .\CortexM3\ARM_GCC_541\Debug\Half_Skeleton_V2_LED_ARRAY.a(CyBootAsmGnu.o)
 .text          0x00000000        0x0 .\CortexM3\ARM_GCC_541\Debug\Half_Skeleton_V2_LED_ARRAY.a(CyFlash.o)
 .data          0x00000000        0x0 .\CortexM3\ARM_GCC_541\Debug\Half_Skeleton_V2_LED_ARRAY.a(CyFlash.o)
 .bss           0x00000000        0x0 .\CortexM3\ARM_GCC_541\Debug\Half_Skeleton_V2_LED_ARRAY.a(CyFlash.o)
 .text.CySetTempInt
                0x00000000       0x60 .\CortexM3\ARM_GCC_541\Debug\Half_Skeleton_V2_LED_ARRAY.a(CyFlash.o)
 .text.CyFlash_Start
                0x00000000       0x54 .\CortexM3\ARM_GCC_541\Debug\Half_Skeleton_V2_LED_ARRAY.a(CyFlash.o)
 .text.CyFlash_Stop
                0x00000000       0x24 .\CortexM3\ARM_GCC_541\Debug\Half_Skeleton_V2_LED_ARRAY.a(CyFlash.o)
 .text.CyFlash_EraseRow
                0x00000000       0x78 .\CortexM3\ARM_GCC_541\Debug\Half_Skeleton_V2_LED_ARRAY.a(CyFlash.o)
 .text.CyFlashGetSpcAlgorithm
                0x00000000       0x4c .\CortexM3\ARM_GCC_541\Debug\Half_Skeleton_V2_LED_ARRAY.a(CyFlash.o)
 .text.CySetTemp
                0x00000000       0x14 .\CortexM3\ARM_GCC_541\Debug\Half_Skeleton_V2_LED_ARRAY.a(CyFlash.o)
 .text.CySetFlashEEBuffer
                0x00000000        0xc .\CortexM3\ARM_GCC_541\Debug\Half_Skeleton_V2_LED_ARRAY.a(CyFlash.o)
 .text.CyWriteRowFull
                0x00000000       0xf8 .\CortexM3\ARM_GCC_541\Debug\Half_Skeleton_V2_LED_ARRAY.a(CyFlash.o)
 .text.CyWriteRowData
                0x00000000       0x14 .\CortexM3\ARM_GCC_541\Debug\Half_Skeleton_V2_LED_ARRAY.a(CyFlash.o)
 .text.CyFlash_SetWaitCycles
                0x00000000       0x7c .\CortexM3\ARM_GCC_541\Debug\Half_Skeleton_V2_LED_ARRAY.a(CyFlash.o)
 .text.CyEEPROM_Start
                0x00000000       0x54 .\CortexM3\ARM_GCC_541\Debug\Half_Skeleton_V2_LED_ARRAY.a(CyFlash.o)
 .text.CyEEPROM_Stop
                0x00000000       0x24 .\CortexM3\ARM_GCC_541\Debug\Half_Skeleton_V2_LED_ARRAY.a(CyFlash.o)
 .text.CyEEPROM_ReadReserve
                0x00000000       0x1c .\CortexM3\ARM_GCC_541\Debug\Half_Skeleton_V2_LED_ARRAY.a(CyFlash.o)
 .text.CyEEPROM_ReadRelease
                0x00000000       0x10 .\CortexM3\ARM_GCC_541\Debug\Half_Skeleton_V2_LED_ARRAY.a(CyFlash.o)
 COMMON         0x00000000        0x2 .\CortexM3\ARM_GCC_541\Debug\Half_Skeleton_V2_LED_ARRAY.a(CyFlash.o)
 .text          0x00000000        0x0 .\CortexM3\ARM_GCC_541\Debug\Half_Skeleton_V2_LED_ARRAY.a(CySpc.o)
 .data          0x00000000        0x0 .\CortexM3\ARM_GCC_541\Debug\Half_Skeleton_V2_LED_ARRAY.a(CySpc.o)
 .bss           0x00000000        0x8 .\CortexM3\ARM_GCC_541\Debug\Half_Skeleton_V2_LED_ARRAY.a(CySpc.o)
 .text.CySpcStart
                0x00000000       0x24 .\CortexM3\ARM_GCC_541\Debug\Half_Skeleton_V2_LED_ARRAY.a(CySpc.o)
 .text.CySpcStop
                0x00000000       0x24 .\CortexM3\ARM_GCC_541\Debug\Half_Skeleton_V2_LED_ARRAY.a(CySpc.o)
 .text.CySpcReadData
                0x00000000       0x34 .\CortexM3\ARM_GCC_541\Debug\Half_Skeleton_V2_LED_ARRAY.a(CySpc.o)
 .text.CySpcLoadMultiByte
                0x00000000       0x78 .\CortexM3\ARM_GCC_541\Debug\Half_Skeleton_V2_LED_ARRAY.a(CySpc.o)
 .text.CySpcLoadRow
                0x00000000       0x50 .\CortexM3\ARM_GCC_541\Debug\Half_Skeleton_V2_LED_ARRAY.a(CySpc.o)
 .text.CySpcLoadRowFull
                0x00000000       0x50 .\CortexM3\ARM_GCC_541\Debug\Half_Skeleton_V2_LED_ARRAY.a(CySpc.o)
 .text.CySpcWriteRow
                0x00000000       0x4c .\CortexM3\ARM_GCC_541\Debug\Half_Skeleton_V2_LED_ARRAY.a(CySpc.o)
 .text.CySpcEraseSector
                0x00000000       0x3c .\CortexM3\ARM_GCC_541\Debug\Half_Skeleton_V2_LED_ARRAY.a(CySpc.o)
 .text.CySpcEraseRow
                0x00000000       0x4c .\CortexM3\ARM_GCC_541\Debug\Half_Skeleton_V2_LED_ARRAY.a(CySpc.o)
 .text.CySpcGetTemp
                0x00000000       0x3c .\CortexM3\ARM_GCC_541\Debug\Half_Skeleton_V2_LED_ARRAY.a(CySpc.o)
 .text.CySpcLock
                0x00000000       0x4c .\CortexM3\ARM_GCC_541\Debug\Half_Skeleton_V2_LED_ARRAY.a(CySpc.o)
 .text.CySpcUnlock
                0x00000000       0x38 .\CortexM3\ARM_GCC_541\Debug\Half_Skeleton_V2_LED_ARRAY.a(CySpc.o)
 .text.CySpcGetAlgorithm
                0x00000000       0x28 .\CortexM3\ARM_GCC_541\Debug\Half_Skeleton_V2_LED_ARRAY.a(CySpc.o)
 .text          0x00000000        0x0 .\CortexM3\ARM_GCC_541\Debug\Half_Skeleton_V2_LED_ARRAY.a(USB_cls.o)
 .data          0x00000000        0x0 .\CortexM3\ARM_GCC_541\Debug\Half_Skeleton_V2_LED_ARRAY.a(USB_cls.o)
 .bss           0x00000000        0x0 .\CortexM3\ARM_GCC_541\Debug\Half_Skeleton_V2_LED_ARRAY.a(USB_cls.o)
 .text          0x00000000        0x0 .\CortexM3\ARM_GCC_541\Debug\Half_Skeleton_V2_LED_ARRAY.a(USB_descr.o)
 .data          0x00000000        0x0 .\CortexM3\ARM_GCC_541\Debug\Half_Skeleton_V2_LED_ARRAY.a(USB_descr.o)
 .bss           0x00000000        0x0 .\CortexM3\ARM_GCC_541\Debug\Half_Skeleton_V2_LED_ARRAY.a(USB_descr.o)
 .text          0x00000000        0x0 c:/program files (x86)/cypress/psoc creator/4.4/psoc creator/import/gnu/arm/5.4.1/bin/../lib/gcc/arm-none-eabi/5.4.1/../../../../arm-none-eabi/lib/armv7-m\libm.a(lib_a-w_pow.o)
 .data          0x00000000        0x0 c:/program files (x86)/cypress/psoc creator/4.4/psoc creator/import/gnu/arm/5.4.1/bin/../lib/gcc/arm-none-eabi/5.4.1/../../../../arm-none-eabi/lib/armv7-m\libm.a(lib_a-w_pow.o)
 .bss           0x00000000        0x0 c:/program files (x86)/cypress/psoc creator/4.4/psoc creator/import/gnu/arm/5.4.1/bin/../lib/gcc/arm-none-eabi/5.4.1/../../../../arm-none-eabi/lib/armv7-m\libm.a(lib_a-w_pow.o)
 .text          0x00000000        0x0 c:/program files (x86)/cypress/psoc creator/4.4/psoc creator/import/gnu/arm/5.4.1/bin/../lib/gcc/arm-none-eabi/5.4.1/../../../../arm-none-eabi/lib/armv7-m\libm.a(lib_a-e_pow.o)
 .data          0x00000000        0x0 c:/program files (x86)/cypress/psoc creator/4.4/psoc creator/import/gnu/arm/5.4.1/bin/../lib/gcc/arm-none-eabi/5.4.1/../../../../arm-none-eabi/lib/armv7-m\libm.a(lib_a-e_pow.o)
 .bss           0x00000000        0x0 c:/program files (x86)/cypress/psoc creator/4.4/psoc creator/import/gnu/arm/5.4.1/bin/../lib/gcc/arm-none-eabi/5.4.1/../../../../arm-none-eabi/lib/armv7-m\libm.a(lib_a-e_pow.o)
 .text          0x00000000        0x0 c:/program files (x86)/cypress/psoc creator/4.4/psoc creator/import/gnu/arm/5.4.1/bin/../lib/gcc/arm-none-eabi/5.4.1/../../../../arm-none-eabi/lib/armv7-m\libm.a(lib_a-e_sqrt.o)
 .data          0x00000000        0x0 c:/program files (x86)/cypress/psoc creator/4.4/psoc creator/import/gnu/arm/5.4.1/bin/../lib/gcc/arm-none-eabi/5.4.1/../../../../arm-none-eabi/lib/armv7-m\libm.a(lib_a-e_sqrt.o)
 .bss           0x00000000        0x0 c:/program files (x86)/cypress/psoc creator/4.4/psoc creator/import/gnu/arm/5.4.1/bin/../lib/gcc/arm-none-eabi/5.4.1/../../../../arm-none-eabi/lib/armv7-m\libm.a(lib_a-e_sqrt.o)
 .text          0x00000000        0x0 c:/program files (x86)/cypress/psoc creator/4.4/psoc creator/import/gnu/arm/5.4.1/bin/../lib/gcc/arm-none-eabi/5.4.1/../../../../arm-none-eabi/lib/armv7-m\libm.a(lib_a-s_fabs.o)
 .data          0x00000000        0x0 c:/program files (x86)/cypress/psoc creator/4.4/psoc creator/import/gnu/arm/5.4.1/bin/../lib/gcc/arm-none-eabi/5.4.1/../../../../arm-none-eabi/lib/armv7-m\libm.a(lib_a-s_fabs.o)
 .bss           0x00000000        0x0 c:/program files (x86)/cypress/psoc creator/4.4/psoc creator/import/gnu/arm/5.4.1/bin/../lib/gcc/arm-none-eabi/5.4.1/../../../../arm-none-eabi/lib/armv7-m\libm.a(lib_a-s_fabs.o)
 .text          0x00000000        0x0 c:/program files (x86)/cypress/psoc creator/4.4/psoc creator/import/gnu/arm/5.4.1/bin/../lib/gcc/arm-none-eabi/5.4.1/../../../../arm-none-eabi/lib/armv7-m\libm.a(lib_a-s_finite.o)
 .data          0x00000000        0x0 c:/program files (x86)/cypress/psoc creator/4.4/psoc creator/import/gnu/arm/5.4.1/bin/../lib/gcc/arm-none-eabi/5.4.1/../../../../arm-none-eabi/lib/armv7-m\libm.a(lib_a-s_finite.o)
 .bss           0x00000000        0x0 c:/program files (x86)/cypress/psoc creator/4.4/psoc creator/import/gnu/arm/5.4.1/bin/../lib/gcc/arm-none-eabi/5.4.1/../../../../arm-none-eabi/lib/armv7-m\libm.a(lib_a-s_finite.o)
 .text          0x00000000        0x0 c:/program files (x86)/cypress/psoc creator/4.4/psoc creator/import/gnu/arm/5.4.1/bin/../lib/gcc/arm-none-eabi/5.4.1/../../../../arm-none-eabi/lib/armv7-m\libm.a(lib_a-s_lib_ver.o)
 .data          0x00000000        0x0 c:/program files (x86)/cypress/psoc creator/4.4/psoc creator/import/gnu/arm/5.4.1/bin/../lib/gcc/arm-none-eabi/5.4.1/../../../../arm-none-eabi/lib/armv7-m\libm.a(lib_a-s_lib_ver.o)
 .bss           0x00000000        0x0 c:/program files (x86)/cypress/psoc creator/4.4/psoc creator/import/gnu/arm/5.4.1/bin/../lib/gcc/arm-none-eabi/5.4.1/../../../../arm-none-eabi/lib/armv7-m\libm.a(lib_a-s_lib_ver.o)
 .text          0x00000000        0x0 c:/program files (x86)/cypress/psoc creator/4.4/psoc creator/import/gnu/arm/5.4.1/bin/../lib/gcc/arm-none-eabi/5.4.1/../../../../arm-none-eabi/lib/armv7-m\libm.a(lib_a-s_matherr.o)
 .data          0x00000000        0x0 c:/program files (x86)/cypress/psoc creator/4.4/psoc creator/import/gnu/arm/5.4.1/bin/../lib/gcc/arm-none-eabi/5.4.1/../../../../arm-none-eabi/lib/armv7-m\libm.a(lib_a-s_matherr.o)
 .bss           0x00000000        0x0 c:/program files (x86)/cypress/psoc creator/4.4/psoc creator/import/gnu/arm/5.4.1/bin/../lib/gcc/arm-none-eabi/5.4.1/../../../../arm-none-eabi/lib/armv7-m\libm.a(lib_a-s_matherr.o)
 .text          0x00000000        0x0 c:/program files (x86)/cypress/psoc creator/4.4/psoc creator/import/gnu/arm/5.4.1/bin/../lib/gcc/arm-none-eabi/5.4.1/../../../../arm-none-eabi/lib/armv7-m\libm.a(lib_a-s_nan.o)
 .data          0x00000000        0x0 c:/program files (x86)/cypress/psoc creator/4.4/psoc creator/import/gnu/arm/5.4.1/bin/../lib/gcc/arm-none-eabi/5.4.1/../../../../arm-none-eabi/lib/armv7-m\libm.a(lib_a-s_nan.o)
 .bss           0x00000000        0x0 c:/program files (x86)/cypress/psoc creator/4.4/psoc creator/import/gnu/arm/5.4.1/bin/../lib/gcc/arm-none-eabi/5.4.1/../../../../arm-none-eabi/lib/armv7-m\libm.a(lib_a-s_nan.o)
 .text          0x00000000        0x0 c:/program files (x86)/cypress/psoc creator/4.4/psoc creator/import/gnu/arm/5.4.1/bin/../lib/gcc/arm-none-eabi/5.4.1/../../../../arm-none-eabi/lib/armv7-m\libm.a(lib_a-s_rint.o)
 .data          0x00000000        0x0 c:/program files (x86)/cypress/psoc creator/4.4/psoc creator/import/gnu/arm/5.4.1/bin/../lib/gcc/arm-none-eabi/5.4.1/../../../../arm-none-eabi/lib/armv7-m\libm.a(lib_a-s_rint.o)
 .bss           0x00000000        0x0 c:/program files (x86)/cypress/psoc creator/4.4/psoc creator/import/gnu/arm/5.4.1/bin/../lib/gcc/arm-none-eabi/5.4.1/../../../../arm-none-eabi/lib/armv7-m\libm.a(lib_a-s_rint.o)
 .text          0x00000000        0x0 c:/program files (x86)/cypress/psoc creator/4.4/psoc creator/import/gnu/arm/5.4.1/bin/../lib/gcc/arm-none-eabi/5.4.1/../../../../arm-none-eabi/lib/armv7-m\libm.a(lib_a-s_scalbn.o)
 .data          0x00000000        0x0 c:/program files (x86)/cypress/psoc creator/4.4/psoc creator/import/gnu/arm/5.4.1/bin/../lib/gcc/arm-none-eabi/5.4.1/../../../../arm-none-eabi/lib/armv7-m\libm.a(lib_a-s_scalbn.o)
 .bss           0x00000000        0x0 c:/program files (x86)/cypress/psoc creator/4.4/psoc creator/import/gnu/arm/5.4.1/bin/../lib/gcc/arm-none-eabi/5.4.1/../../../../arm-none-eabi/lib/armv7-m\libm.a(lib_a-s_scalbn.o)
 .text          0x00000000        0x0 c:/program files (x86)/cypress/psoc creator/4.4/psoc creator/import/gnu/arm/5.4.1/bin/../lib/gcc/arm-none-eabi/5.4.1/../../../../arm-none-eabi/lib/armv7-m\libm.a(lib_a-s_copysign.o)
 .data          0x00000000        0x0 c:/program files (x86)/cypress/psoc creator/4.4/psoc creator/import/gnu/arm/5.4.1/bin/../lib/gcc/arm-none-eabi/5.4.1/../../../../arm-none-eabi/lib/armv7-m\libm.a(lib_a-s_copysign.o)
 .bss           0x00000000        0x0 c:/program files (x86)/cypress/psoc creator/4.4/psoc creator/import/gnu/arm/5.4.1/bin/../lib/gcc/arm-none-eabi/5.4.1/../../../../arm-none-eabi/lib/armv7-m\libm.a(lib_a-s_copysign.o)
 .data          0x00000000        0x0 c:/program files (x86)/cypress/psoc creator/4.4/psoc creator/import/gnu/arm/5.4.1/bin/../lib/gcc/arm-none-eabi/5.4.1/armv7-m\libgcc.a(_arm_addsubdf3.o)
 .bss           0x00000000        0x0 c:/program files (x86)/cypress/psoc creator/4.4/psoc creator/import/gnu/arm/5.4.1/bin/../lib/gcc/arm-none-eabi/5.4.1/armv7-m\libgcc.a(_arm_addsubdf3.o)
 .data          0x00000000        0x0 c:/program files (x86)/cypress/psoc creator/4.4/psoc creator/import/gnu/arm/5.4.1/bin/../lib/gcc/arm-none-eabi/5.4.1/armv7-m\libgcc.a(_arm_muldivdf3.o)
 .bss           0x00000000        0x0 c:/program files (x86)/cypress/psoc creator/4.4/psoc creator/import/gnu/arm/5.4.1/bin/../lib/gcc/arm-none-eabi/5.4.1/armv7-m\libgcc.a(_arm_muldivdf3.o)
 .data          0x00000000        0x0 c:/program files (x86)/cypress/psoc creator/4.4/psoc creator/import/gnu/arm/5.4.1/bin/../lib/gcc/arm-none-eabi/5.4.1/armv7-m\libgcc.a(_arm_cmpdf2.o)
 .bss           0x00000000        0x0 c:/program files (x86)/cypress/psoc creator/4.4/psoc creator/import/gnu/arm/5.4.1/bin/../lib/gcc/arm-none-eabi/5.4.1/armv7-m\libgcc.a(_arm_cmpdf2.o)
 .data          0x00000000        0x0 c:/program files (x86)/cypress/psoc creator/4.4/psoc creator/import/gnu/arm/5.4.1/bin/../lib/gcc/arm-none-eabi/5.4.1/armv7-m\libgcc.a(_arm_unorddf2.o)
 .bss           0x00000000        0x0 c:/program files (x86)/cypress/psoc creator/4.4/psoc creator/import/gnu/arm/5.4.1/bin/../lib/gcc/arm-none-eabi/5.4.1/armv7-m\libgcc.a(_arm_unorddf2.o)
 .data          0x00000000        0x0 c:/program files (x86)/cypress/psoc creator/4.4/psoc creator/import/gnu/arm/5.4.1/bin/../lib/gcc/arm-none-eabi/5.4.1/armv7-m\libgcc.a(_arm_fixdfsi.o)
 .bss           0x00000000        0x0 c:/program files (x86)/cypress/psoc creator/4.4/psoc creator/import/gnu/arm/5.4.1/bin/../lib/gcc/arm-none-eabi/5.4.1/armv7-m\libgcc.a(_arm_fixdfsi.o)
 .data          0x00000000        0x0 c:/program files (x86)/cypress/psoc creator/4.4/psoc creator/import/gnu/arm/5.4.1/bin/../lib/gcc/arm-none-eabi/5.4.1/armv7-m\libgcc.a(_arm_fixunsdfsi.o)
 .bss           0x00000000        0x0 c:/program files (x86)/cypress/psoc creator/4.4/psoc creator/import/gnu/arm/5.4.1/bin/../lib/gcc/arm-none-eabi/5.4.1/armv7-m\libgcc.a(_arm_fixunsdfsi.o)
 .data          0x00000000        0x0 c:/program files (x86)/cypress/psoc creator/4.4/psoc creator/import/gnu/arm/5.4.1/bin/../lib/gcc/arm-none-eabi/5.4.1/armv7-m\libgcc.a(_arm_truncdfsf2.o)
 .bss           0x00000000        0x0 c:/program files (x86)/cypress/psoc creator/4.4/psoc creator/import/gnu/arm/5.4.1/bin/../lib/gcc/arm-none-eabi/5.4.1/armv7-m\libgcc.a(_arm_truncdfsf2.o)
 .data          0x00000000        0x0 c:/program files (x86)/cypress/psoc creator/4.4/psoc creator/import/gnu/arm/5.4.1/bin/../lib/gcc/arm-none-eabi/5.4.1/armv7-m\libgcc.a(_arm_addsubsf3.o)
 .bss           0x00000000        0x0 c:/program files (x86)/cypress/psoc creator/4.4/psoc creator/import/gnu/arm/5.4.1/bin/../lib/gcc/arm-none-eabi/5.4.1/armv7-m\libgcc.a(_arm_addsubsf3.o)
 .data          0x00000000        0x0 c:/program files (x86)/cypress/psoc creator/4.4/psoc creator/import/gnu/arm/5.4.1/bin/../lib/gcc/arm-none-eabi/5.4.1/armv7-m\libgcc.a(_arm_muldivsf3.o)
 .bss           0x00000000        0x0 c:/program files (x86)/cypress/psoc creator/4.4/psoc creator/import/gnu/arm/5.4.1/bin/../lib/gcc/arm-none-eabi/5.4.1/armv7-m\libgcc.a(_arm_muldivsf3.o)
 .text          0x00000000        0x0 c:/program files (x86)/cypress/psoc creator/4.4/psoc creator/import/gnu/arm/5.4.1/bin/../lib/gcc/arm-none-eabi/5.4.1/../../../../arm-none-eabi/lib/armv7-m\libg_nano.a(lib_a-errno.o)
 .data          0x00000000        0x0 c:/program files (x86)/cypress/psoc creator/4.4/psoc creator/import/gnu/arm/5.4.1/bin/../lib/gcc/arm-none-eabi/5.4.1/../../../../arm-none-eabi/lib/armv7-m\libg_nano.a(lib_a-errno.o)
 .bss           0x00000000        0x0 c:/program files (x86)/cypress/psoc creator/4.4/psoc creator/import/gnu/arm/5.4.1/bin/../lib/gcc/arm-none-eabi/5.4.1/../../../../arm-none-eabi/lib/armv7-m\libg_nano.a(lib_a-errno.o)
 .text          0x00000000        0x0 c:/program files (x86)/cypress/psoc creator/4.4/psoc creator/import/gnu/arm/5.4.1/bin/../lib/gcc/arm-none-eabi/5.4.1/../../../../arm-none-eabi/lib/armv7-m\libg_nano.a(lib_a-exit.o)
 .data          0x00000000        0x0 c:/program files (x86)/cypress/psoc creator/4.4/psoc creator/import/gnu/arm/5.4.1/bin/../lib/gcc/arm-none-eabi/5.4.1/../../../../arm-none-eabi/lib/armv7-m\libg_nano.a(lib_a-exit.o)
 .bss           0x00000000        0x0 c:/program files (x86)/cypress/psoc creator/4.4/psoc creator/import/gnu/arm/5.4.1/bin/../lib/gcc/arm-none-eabi/5.4.1/../../../../arm-none-eabi/lib/armv7-m\libg_nano.a(lib_a-exit.o)
 .text.exit     0x00000000       0x28 c:/program files (x86)/cypress/psoc creator/4.4/psoc creator/import/gnu/arm/5.4.1/bin/../lib/gcc/arm-none-eabi/5.4.1/../../../../arm-none-eabi/lib/armv7-m\libg_nano.a(lib_a-exit.o)
 .text          0x00000000        0x0 c:/program files (x86)/cypress/psoc creator/4.4/psoc creator/import/gnu/arm/5.4.1/bin/../lib/gcc/arm-none-eabi/5.4.1/../../../../arm-none-eabi/lib/armv7-m\libg_nano.a(lib_a-impure.o)
 .data          0x00000000        0x0 c:/program files (x86)/cypress/psoc creator/4.4/psoc creator/import/gnu/arm/5.4.1/bin/../lib/gcc/arm-none-eabi/5.4.1/../../../../arm-none-eabi/lib/armv7-m\libg_nano.a(lib_a-impure.o)
 .bss           0x00000000        0x0 c:/program files (x86)/cypress/psoc creator/4.4/psoc creator/import/gnu/arm/5.4.1/bin/../lib/gcc/arm-none-eabi/5.4.1/../../../../arm-none-eabi/lib/armv7-m\libg_nano.a(lib_a-impure.o)
 .rodata._global_impure_ptr
                0x00000000        0x4 c:/program files (x86)/cypress/psoc creator/4.4/psoc creator/import/gnu/arm/5.4.1/bin/../lib/gcc/arm-none-eabi/5.4.1/../../../../arm-none-eabi/lib/armv7-m\libg_nano.a(lib_a-impure.o)
 .text          0x00000000        0x0 c:/program files (x86)/cypress/psoc creator/4.4/psoc creator/import/gnu/arm/5.4.1/bin/../lib/gcc/arm-none-eabi/5.4.1/../../../../arm-none-eabi/lib/armv7-m\libg_nano.a(lib_a-init.o)
 .data          0x00000000        0x0 c:/program files (x86)/cypress/psoc creator/4.4/psoc creator/import/gnu/arm/5.4.1/bin/../lib/gcc/arm-none-eabi/5.4.1/../../../../arm-none-eabi/lib/armv7-m\libg_nano.a(lib_a-init.o)
 .bss           0x00000000        0x0 c:/program files (x86)/cypress/psoc creator/4.4/psoc creator/import/gnu/arm/5.4.1/bin/../lib/gcc/arm-none-eabi/5.4.1/../../../../arm-none-eabi/lib/armv7-m\libg_nano.a(lib_a-init.o)
 .text          0x00000000        0x0 c:/program files (x86)/cypress/psoc creator/4.4/psoc creator/import/gnu/arm/5.4.1/bin/../lib/gcc/arm-none-eabi/5.4.1/../../../../arm-none-eabi/lib/armv7-m\libg_nano.a(lib_a-memcpy-stub.o)
 .data          0x00000000        0x0 c:/program files (x86)/cypress/psoc creator/4.4/psoc creator/import/gnu/arm/5.4.1/bin/../lib/gcc/arm-none-eabi/5.4.1/../../../../arm-none-eabi/lib/armv7-m\libg_nano.a(lib_a-memcpy-stub.o)
 .bss           0x00000000        0x0 c:/program files (x86)/cypress/psoc creator/4.4/psoc creator/import/gnu/arm/5.4.1/bin/../lib/gcc/arm-none-eabi/5.4.1/../../../../arm-none-eabi/lib/armv7-m\libg_nano.a(lib_a-memcpy-stub.o)
 .text          0x00000000        0x0 c:/program files (x86)/cypress/psoc creator/4.4/psoc creator/import/gnu/arm/5.4.1/bin/../lib/gcc/arm-none-eabi/5.4.1/../../../../arm-none-eabi/lib/armv7-m\libg_nano.a(lib_a-memset.o)
 .data          0x00000000        0x0 c:/program files (x86)/cypress/psoc creator/4.4/psoc creator/import/gnu/arm/5.4.1/bin/../lib/gcc/arm-none-eabi/5.4.1/../../../../arm-none-eabi/lib/armv7-m\libg_nano.a(lib_a-memset.o)
 .bss           0x00000000        0x0 c:/program files (x86)/cypress/psoc creator/4.4/psoc creator/import/gnu/arm/5.4.1/bin/../lib/gcc/arm-none-eabi/5.4.1/../../../../arm-none-eabi/lib/armv7-m\libg_nano.a(lib_a-memset.o)
 .text          0x00000000        0x0 c:/program files (x86)/cypress/psoc creator/4.4/psoc creator/import/gnu/arm/5.4.1/bin/../lib/gcc/arm-none-eabi/5.4.1/../../../../arm-none-eabi/lib/armv7-m\libg_nano.a(lib_a-sprintf.o)
 .data          0x00000000        0x0 c:/program files (x86)/cypress/psoc creator/4.4/psoc creator/import/gnu/arm/5.4.1/bin/../lib/gcc/arm-none-eabi/5.4.1/../../../../arm-none-eabi/lib/armv7-m\libg_nano.a(lib_a-sprintf.o)
 .bss           0x00000000        0x0 c:/program files (x86)/cypress/psoc creator/4.4/psoc creator/import/gnu/arm/5.4.1/bin/../lib/gcc/arm-none-eabi/5.4.1/../../../../arm-none-eabi/lib/armv7-m\libg_nano.a(lib_a-sprintf.o)
 .text._sprintf_r
                0x00000000       0x40 c:/program files (x86)/cypress/psoc creator/4.4/psoc creator/import/gnu/arm/5.4.1/bin/../lib/gcc/arm-none-eabi/5.4.1/../../../../arm-none-eabi/lib/armv7-m\libg_nano.a(lib_a-sprintf.o)
 .text          0x00000000        0x0 c:/program files (x86)/cypress/psoc creator/4.4/psoc creator/import/gnu/arm/5.4.1/bin/../lib/gcc/arm-none-eabi/5.4.1/../../../../arm-none-eabi/lib/armv7-m\libg_nano.a(lib_a-nano-svfprintf.o)
 .data          0x00000000        0x0 c:/program files (x86)/cypress/psoc creator/4.4/psoc creator/import/gnu/arm/5.4.1/bin/../lib/gcc/arm-none-eabi/5.4.1/../../../../arm-none-eabi/lib/armv7-m\libg_nano.a(lib_a-nano-svfprintf.o)
 .bss           0x00000000        0x0 c:/program files (x86)/cypress/psoc creator/4.4/psoc creator/import/gnu/arm/5.4.1/bin/../lib/gcc/arm-none-eabi/5.4.1/../../../../arm-none-eabi/lib/armv7-m\libg_nano.a(lib_a-nano-svfprintf.o)
 .text.__ssprint_r
                0x00000000       0xfe c:/program files (x86)/cypress/psoc creator/4.4/psoc creator/import/gnu/arm/5.4.1/bin/../lib/gcc/arm-none-eabi/5.4.1/../../../../arm-none-eabi/lib/armv7-m\libg_nano.a(lib_a-nano-svfprintf.o)
 .text          0x00000000        0x0 c:/program files (x86)/cypress/psoc creator/4.4/psoc creator/import/gnu/arm/5.4.1/bin/../lib/gcc/arm-none-eabi/5.4.1/../../../../arm-none-eabi/lib/armv7-m\libg_nano.a(lib_a-nano-vfprintf_i.o)
 .data          0x00000000        0x0 c:/program files (x86)/cypress/psoc creator/4.4/psoc creator/import/gnu/arm/5.4.1/bin/../lib/gcc/arm-none-eabi/5.4.1/../../../../arm-none-eabi/lib/armv7-m\libg_nano.a(lib_a-nano-vfprintf_i.o)
 .bss           0x00000000        0x0 c:/program files (x86)/cypress/psoc creator/4.4/psoc creator/import/gnu/arm/5.4.1/bin/../lib/gcc/arm-none-eabi/5.4.1/../../../../arm-none-eabi/lib/armv7-m\libg_nano.a(lib_a-nano-vfprintf_i.o)
 .text          0x00000000        0x0 c:/program files (x86)/cypress/psoc creator/4.4/psoc creator/import/gnu/arm/5.4.1/bin/../lib/gcc/arm-none-eabi/5.4.1/../../../../arm-none-eabi/lib/armv7-m\libg_nano.a(lib_a-memchr-stub.o)
 .data          0x00000000        0x0 c:/program files (x86)/cypress/psoc creator/4.4/psoc creator/import/gnu/arm/5.4.1/bin/../lib/gcc/arm-none-eabi/5.4.1/../../../../arm-none-eabi/lib/armv7-m\libg_nano.a(lib_a-memchr-stub.o)
 .bss           0x00000000        0x0 c:/program files (x86)/cypress/psoc creator/4.4/psoc creator/import/gnu/arm/5.4.1/bin/../lib/gcc/arm-none-eabi/5.4.1/../../../../arm-none-eabi/lib/armv7-m\libg_nano.a(lib_a-memchr-stub.o)
 .text          0x00000000        0x0 c:/program files (x86)/cypress/psoc creator/4.4/psoc creator/import/gnu/arm/5.4.1/bin/../lib/gcc/arm-none-eabi/5.4.1/../../../../arm-none-eabi/lib/armv7-m\libg_nano.a(lib_a-memmove.o)
 .data          0x00000000        0x0 c:/program files (x86)/cypress/psoc creator/4.4/psoc creator/import/gnu/arm/5.4.1/bin/../lib/gcc/arm-none-eabi/5.4.1/../../../../arm-none-eabi/lib/armv7-m\libg_nano.a(lib_a-memmove.o)
 .bss           0x00000000        0x0 c:/program files (x86)/cypress/psoc creator/4.4/psoc creator/import/gnu/arm/5.4.1/bin/../lib/gcc/arm-none-eabi/5.4.1/../../../../arm-none-eabi/lib/armv7-m\libg_nano.a(lib_a-memmove.o)
 .text          0x00000000        0x0 c:/program files (x86)/cypress/psoc creator/4.4/psoc creator/import/gnu/arm/5.4.1/bin/../lib/gcc/arm-none-eabi/5.4.1/../../../../arm-none-eabi/lib/armv7-m\libg_nano.a(lib_a-nano-freer.o)
 .data          0x00000000        0x0 c:/program files (x86)/cypress/psoc creator/4.4/psoc creator/import/gnu/arm/5.4.1/bin/../lib/gcc/arm-none-eabi/5.4.1/../../../../arm-none-eabi/lib/armv7-m\libg_nano.a(lib_a-nano-freer.o)
 .bss           0x00000000        0x0 c:/program files (x86)/cypress/psoc creator/4.4/psoc creator/import/gnu/arm/5.4.1/bin/../lib/gcc/arm-none-eabi/5.4.1/../../../../arm-none-eabi/lib/armv7-m\libg_nano.a(lib_a-nano-freer.o)
 .text          0x00000000        0x0 c:/program files (x86)/cypress/psoc creator/4.4/psoc creator/import/gnu/arm/5.4.1/bin/../lib/gcc/arm-none-eabi/5.4.1/../../../../arm-none-eabi/lib/armv7-m\libg_nano.a(lib_a-nano-mallocr.o)
 .data          0x00000000        0x0 c:/program files (x86)/cypress/psoc creator/4.4/psoc creator/import/gnu/arm/5.4.1/bin/../lib/gcc/arm-none-eabi/5.4.1/../../../../arm-none-eabi/lib/armv7-m\libg_nano.a(lib_a-nano-mallocr.o)
 .bss           0x00000000        0x0 c:/program files (x86)/cypress/psoc creator/4.4/psoc creator/import/gnu/arm/5.4.1/bin/../lib/gcc/arm-none-eabi/5.4.1/../../../../arm-none-eabi/lib/armv7-m\libg_nano.a(lib_a-nano-mallocr.o)
 .text          0x00000000        0x0 c:/program files (x86)/cypress/psoc creator/4.4/psoc creator/import/gnu/arm/5.4.1/bin/../lib/gcc/arm-none-eabi/5.4.1/../../../../arm-none-eabi/lib/armv7-m\libg_nano.a(lib_a-nano-reallocr.o)
 .data          0x00000000        0x0 c:/program files (x86)/cypress/psoc creator/4.4/psoc creator/import/gnu/arm/5.4.1/bin/../lib/gcc/arm-none-eabi/5.4.1/../../../../arm-none-eabi/lib/armv7-m\libg_nano.a(lib_a-nano-reallocr.o)
 .bss           0x00000000        0x0 c:/program files (x86)/cypress/psoc creator/4.4/psoc creator/import/gnu/arm/5.4.1/bin/../lib/gcc/arm-none-eabi/5.4.1/../../../../arm-none-eabi/lib/armv7-m\libg_nano.a(lib_a-nano-reallocr.o)
 .text          0x00000000        0x0 c:/program files (x86)/cypress/psoc creator/4.4/psoc creator/import/gnu/arm/5.4.1/bin/../lib/gcc/arm-none-eabi/5.4.1/../../../../arm-none-eabi/lib/armv7-m\libg_nano.a(lib_a-sbrkr.o)
 .data          0x00000000        0x0 c:/program files (x86)/cypress/psoc creator/4.4/psoc creator/import/gnu/arm/5.4.1/bin/../lib/gcc/arm-none-eabi/5.4.1/../../../../arm-none-eabi/lib/armv7-m\libg_nano.a(lib_a-sbrkr.o)
 .bss           0x00000000        0x0 c:/program files (x86)/cypress/psoc creator/4.4/psoc creator/import/gnu/arm/5.4.1/bin/../lib/gcc/arm-none-eabi/5.4.1/../../../../arm-none-eabi/lib/armv7-m\libg_nano.a(lib_a-sbrkr.o)
 .text          0x00000000        0x0 c:/program files (x86)/cypress/psoc creator/4.4/psoc creator/import/gnu/arm/5.4.1/bin/../lib/gcc/arm-none-eabi/5.4.1/../../../../arm-none-eabi/lib/armv7-m\libg_nano.a(lib_a-mlock.o)
 .data          0x00000000        0x0 c:/program files (x86)/cypress/psoc creator/4.4/psoc creator/import/gnu/arm/5.4.1/bin/../lib/gcc/arm-none-eabi/5.4.1/../../../../arm-none-eabi/lib/armv7-m\libg_nano.a(lib_a-mlock.o)
 .bss           0x00000000        0x0 c:/program files (x86)/cypress/psoc creator/4.4/psoc creator/import/gnu/arm/5.4.1/bin/../lib/gcc/arm-none-eabi/5.4.1/../../../../arm-none-eabi/lib/armv7-m\libg_nano.a(lib_a-mlock.o)
 .text          0x00000000        0x0 c:/program files (x86)/cypress/psoc creator/4.4/psoc creator/import/gnu/arm/5.4.1/bin/../lib/gcc/arm-none-eabi/5.4.1/../../../../arm-none-eabi/lib/armv7-m\libg_nano.a(lib_a-nano-msizer.o)
 .data          0x00000000        0x0 c:/program files (x86)/cypress/psoc creator/4.4/psoc creator/import/gnu/arm/5.4.1/bin/../lib/gcc/arm-none-eabi/5.4.1/../../../../arm-none-eabi/lib/armv7-m\libg_nano.a(lib_a-nano-msizer.o)
 .bss           0x00000000        0x0 c:/program files (x86)/cypress/psoc creator/4.4/psoc creator/import/gnu/arm/5.4.1/bin/../lib/gcc/arm-none-eabi/5.4.1/../../../../arm-none-eabi/lib/armv7-m\libg_nano.a(lib_a-nano-msizer.o)
 .text          0x00000000        0x0 c:/program files (x86)/cypress/psoc creator/4.4/psoc creator/import/gnu/arm/5.4.1/bin/../lib/gcc/arm-none-eabi/5.4.1/../../../../arm-none-eabi/lib/armv7-m\libg_nano.a(lib_a-reent.o)
 .data          0x00000000        0x0 c:/program files (x86)/cypress/psoc creator/4.4/psoc creator/import/gnu/arm/5.4.1/bin/../lib/gcc/arm-none-eabi/5.4.1/../../../../arm-none-eabi/lib/armv7-m\libg_nano.a(lib_a-reent.o)
 .bss           0x00000000        0x0 c:/program files (x86)/cypress/psoc creator/4.4/psoc creator/import/gnu/arm/5.4.1/bin/../lib/gcc/arm-none-eabi/5.4.1/../../../../arm-none-eabi/lib/armv7-m\libg_nano.a(lib_a-reent.o)
 .text.cleanup_glue
                0x00000000       0x1a c:/program files (x86)/cypress/psoc creator/4.4/psoc creator/import/gnu/arm/5.4.1/bin/../lib/gcc/arm-none-eabi/5.4.1/../../../../arm-none-eabi/lib/armv7-m\libg_nano.a(lib_a-reent.o)
 .text._reclaim_reent
                0x00000000       0xb4 c:/program files (x86)/cypress/psoc creator/4.4/psoc creator/import/gnu/arm/5.4.1/bin/../lib/gcc/arm-none-eabi/5.4.1/../../../../arm-none-eabi/lib/armv7-m\libg_nano.a(lib_a-reent.o)
 .text          0x00000000        0x0 c:/program files (x86)/cypress/psoc creator/4.4/psoc creator/import/gnu/arm/5.4.1/bin/../lib/gcc/arm-none-eabi/5.4.1/armv7-m/crtend.o
 .data          0x00000000        0x0 c:/program files (x86)/cypress/psoc creator/4.4/psoc creator/import/gnu/arm/5.4.1/bin/../lib/gcc/arm-none-eabi/5.4.1/armv7-m/crtend.o
 .bss           0x00000000        0x0 c:/program files (x86)/cypress/psoc creator/4.4/psoc creator/import/gnu/arm/5.4.1/bin/../lib/gcc/arm-none-eabi/5.4.1/armv7-m/crtend.o
 .text          0x00000000        0x0 c:/program files (x86)/cypress/psoc creator/4.4/psoc creator/import/gnu/arm/5.4.1/bin/../lib/gcc/arm-none-eabi/5.4.1/armv7-m/crtn.o
 .data          0x00000000        0x0 c:/program files (x86)/cypress/psoc creator/4.4/psoc creator/import/gnu/arm/5.4.1/bin/../lib/gcc/arm-none-eabi/5.4.1/armv7-m/crtn.o
 .bss           0x00000000        0x0 c:/program files (x86)/cypress/psoc creator/4.4/psoc creator/import/gnu/arm/5.4.1/bin/../lib/gcc/arm-none-eabi/5.4.1/armv7-m/crtn.o

Memory Configuration

Name             Origin             Length             Attributes
rom              0x00000000         0x00040000         xr
ram              0x1fff8000         0x00010000         xrw
*default*        0x00000000         0xffffffff

Linker script and memory map

LOAD c:/program files (x86)/cypress/psoc creator/4.4/psoc creator/import/gnu/arm/5.4.1/bin/../lib/gcc/arm-none-eabi/5.4.1/armv7-m/crti.o
LOAD c:/program files (x86)/cypress/psoc creator/4.4/psoc creator/import/gnu/arm/5.4.1/bin/../lib/gcc/arm-none-eabi/5.4.1/armv7-m/crtbegin.o
LOAD c:/program files (x86)/cypress/psoc creator/4.4/psoc creator/import/gnu/arm/5.4.1/bin/../lib/gcc/arm-none-eabi/5.4.1/../../../../arm-none-eabi/lib/armv7-m/crt0.o
START GROUP
LOAD .\CortexM3\ARM_GCC_541\Debug\main.o
LOAD .\CortexM3\ARM_GCC_541\Debug\AS76.o
LOAD .\CortexM3\ARM_GCC_541\Debug\APA102.o
LOAD .\CortexM3\ARM_GCC_541\Debug\PCA9959.o
LOAD .\CortexM3\ARM_GCC_541\Debug\cyfitter_cfg.o
LOAD .\CortexM3\ARM_GCC_541\Debug\cymetadata.o
LOAD .\CortexM3\ARM_GCC_541\Debug\Cm3Start.o
LOAD .\CortexM3\ARM_GCC_541\Debug\Half_Skeleton_V2_LED_ARRAY.a
LOAD C:\Program Files (x86)\Cypress\PSoC Creator\4.4\PSoC Creator\psoc\content\cycomponentlibrary\CyComponentLibrary.cylib\CortexM3\ARM_GCC_541\Debug\CyComponentLibrary.a
LOAD c:/program files (x86)/cypress/psoc creator/4.4/psoc creator/import/gnu/arm/5.4.1/bin/../lib/gcc/arm-none-eabi/5.4.1/../../../../arm-none-eabi/lib/armv7-m\libm.a
END GROUP
START GROUP
LOAD c:/program files (x86)/cypress/psoc creator/4.4/psoc creator/import/gnu/arm/5.4.1/bin/../lib/gcc/arm-none-eabi/5.4.1/armv7-m\libgcc.a
LOAD c:/program files (x86)/cypress/psoc creator/4.4/psoc creator/import/gnu/arm/5.4.1/bin/../lib/gcc/arm-none-eabi/5.4.1/../../../../arm-none-eabi/lib/armv7-m\libg_nano.a
LOAD c:/program files (x86)/cypress/psoc creator/4.4/psoc creator/import/gnu/arm/5.4.1/bin/../lib/gcc/arm-none-eabi/5.4.1/../../../../arm-none-eabi/lib/armv7-m\libc_nano.a
END GROUP
START GROUP
LOAD c:/program files (x86)/cypress/psoc creator/4.4/psoc creator/import/gnu/arm/5.4.1/bin/../lib/gcc/arm-none-eabi/5.4.1/armv7-m\libgcc.a
LOAD c:/program files (x86)/cypress/psoc creator/4.4/psoc creator/import/gnu/arm/5.4.1/bin/../lib/gcc/arm-none-eabi/5.4.1/../../../../arm-none-eabi/lib/armv7-m\libc_nano.a
END GROUP
LOAD c:/program files (x86)/cypress/psoc creator/4.4/psoc creator/import/gnu/arm/5.4.1/bin/../lib/gcc/arm-none-eabi/5.4.1/armv7-m/crtend.o
LOAD c:/program files (x86)/cypress/psoc creator/4.4/psoc creator/import/gnu/arm/5.4.1/bin/../lib/gcc/arm-none-eabi/5.4.1/armv7-m/crtn.o
START GROUP
LOAD c:/program files (x86)/cypress/psoc creator/4.4/psoc creator/import/gnu/arm/5.4.1/bin/../lib/gcc/arm-none-eabi/5.4.1/armv7-m\libgcc.a
LOAD c:/program files (x86)/cypress/psoc creator/4.4/psoc creator/import/gnu/arm/5.4.1/bin/../lib/gcc/arm-none-eabi/5.4.1/../../../../arm-none-eabi/lib/armv7-m\libc.a
LOAD c:/program files (x86)/cypress/psoc creator/4.4/psoc creator/import/gnu/arm/5.4.1/bin/../lib/gcc/arm-none-eabi/5.4.1/../../../../arm-none-eabi/lib/armv7-m\libnosys.a
END GROUP
                0x00000000                CY_APPL_ORIGIN = 0x0
                0x00000100                CY_FLASH_ROW_SIZE = 0x100
                0x00000020                CY_ECC_ROW_SIZE = 0x20
                0x00000000                CY_EE_IN_BTLDR = 0x0
                0x00000000                CY_APPL_LOADABLE = 0x0
                0x00000800                CY_EE_SIZE = 0x800
                0x00000001                CY_APPL_NUM = 0x1
                0x00000001                CY_APPL_MAX = 0x1
                0x00000040                CY_METADATA_SIZE = 0x40
                0x00000000                CY_APPL_LOADABLE = 0x0
                0x00000000                CY_CHECKSUM_EXCLUDE_SIZE = ALIGN (0x0, CY_FLASH_ROW_SIZE)
                [!provide]                PROVIDE (__cy_heap_start, _end)
                0x00000001                PROVIDE (__cy_region_num, ((__cy_regions_end - __cy_regions) / 0x10))
                0x20008000                PROVIDE (__cy_stack, (ORIGIN (ram) + LENGTH (ram)))
                [!provide]                PROVIDE (__cy_heap_end, (__cy_stack - 0x800))

.cybootloader   0x00000000        0x0
 *(.cybootloader)
                0x00000000                appl1_start = CY_APPL_ORIGIN?CY_APPL_ORIGIN:ALIGN (CY_FLASH_ROW_SIZE)
                0x0001ff00                appl2_start = (appl1_start + ALIGN ((((LENGTH (rom) - appl1_start) - (0x2 * CY_FLASH_ROW_SIZE)) / 0x2), CY_FLASH_ROW_SIZE))
                0x00000000                appl_start = (CY_APPL_NUM == 0x1)?appl1_start:appl2_start
                0x00000000                ecc_offset = ((appl_start / CY_FLASH_ROW_SIZE) * CY_ECC_ROW_SIZE)
                0x00000000                ee_offset = (CY_APPL_LOADABLE && ! (CY_EE_IN_BTLDR))?((CY_EE_SIZE / CY_APPL_MAX) * (CY_APPL_NUM - 0x1)):0x0
                0x00000800                ee_size = (CY_APPL_LOADABLE && ! (CY_EE_IN_BTLDR))?(CY_EE_SIZE / CY_APPL_MAX):CY_EE_SIZE
                [!provide]                PROVIDE (CY_ECC_OFFSET, ecc_offset)

.text           0x00000000     0xb5d0
 CREATE_OBJECT_SYMBOLS
                0x00000000                PROVIDE (__cy_interrupt_vector, RomVectors)
 *(.romvectors)
 .romvectors    0x00000000       0x10 .\CortexM3\ARM_GCC_541\Debug\Cm3Start.o
                0x00000000                RomVectors
                0x00000001                ASSERT ((. != __cy_interrupt_vector), No interrupt vector)
                0x00000001                ASSERT (CY_APPL_ORIGIN?(SIZEOF (.cybootloader) <= CY_APPL_ORIGIN):0x1, Wrong image location)
                0x00000010                PROVIDE (__cy_reset, Reset)
 *(.text.Reset)
 .text.Reset    0x00000010       0x18 .\CortexM3\ARM_GCC_541\Debug\Cm3Start.o
                0x00000010                Reset
                0x00000001                ASSERT ((. != __cy_reset), No reset code)
 *(.dma_init)
                0x00000001                ASSERT ((((appl_start + .) <= 0x10000) || 0x1), DMA Init must be within the first 64k of flash)
 *(.text .text.* .gnu.linkonce.t.*)
 .text          0x00000028       0x5c c:/program files (x86)/cypress/psoc creator/4.4/psoc creator/import/gnu/arm/5.4.1/bin/../lib/gcc/arm-none-eabi/5.4.1/armv7-m/crtbegin.o
 .text.main     0x00000084      0x114 .\CortexM3\ARM_GCC_541\Debug\main.o
                0x00000084                main
 .text.wait_interrupt_Handler
                0x00000198       0x24 .\CortexM3\ARM_GCC_541\Debug\AS76.o
                0x00000198                wait_interrupt_Handler
 .text.Quad_Timer
                0x000001bc       0x30 .\CortexM3\ARM_GCC_541\Debug\AS76.o
                0x000001bc                Quad_Timer
 .text.Quad_Timer0
                0x000001ec       0x30 .\CortexM3\ARM_GCC_541\Debug\AS76.o
                0x000001ec                Quad_Timer0
 .text.Quad_Timer1
                0x0000021c       0x30 .\CortexM3\ARM_GCC_541\Debug\AS76.o
                0x0000021c                Quad_Timer1
 .text.Quad_Timer2
                0x0000024c       0x30 .\CortexM3\ARM_GCC_541\Debug\AS76.o
                0x0000024c                Quad_Timer2
 .text.Initialize_PWM
                0x0000027c       0x50 .\CortexM3\ARM_GCC_541\Debug\AS76.o
                0x0000027c                Initialize_PWM
 .text.Enable_Encoder_T
                0x000002cc       0x18 .\CortexM3\ARM_GCC_541\Debug\AS76.o
                0x000002cc                Enable_Encoder_T
 .text.Enable_Encoder_Z
                0x000002e4       0x18 .\CortexM3\ARM_GCC_541\Debug\AS76.o
                0x000002e4                Enable_Encoder_Z
 .text.Initialize_And_Start_All_Opt_Encoder
                0x000002fc       0x2c .\CortexM3\ARM_GCC_541\Debug\AS76.o
                0x000002fc                Initialize_And_Start_All_Opt_Encoder
 .text.Read_All_Optical_Encoder
                0x00000328       0x44 .\CortexM3\ARM_GCC_541\Debug\AS76.o
                0x00000328                Read_All_Optical_Encoder
 .text.Write_Debug_UART_Char
                0x0000036c       0x1c .\CortexM3\ARM_GCC_541\Debug\AS76.o
                0x0000036c                Write_Debug_UART_Char
 .text.Beep_Once
                0x00000388       0x24 .\CortexM3\ARM_GCC_541\Debug\AS76.o
                0x00000388                Beep_Once
 *fill*         0x000003ac        0x4 
 .text.Send_Feedback_to_USB
                0x000003b0      0x2dc .\CortexM3\ARM_GCC_541\Debug\AS76.o
                0x000003b0                Send_Feedback_to_USB
 .text.Initialize_USB
                0x0000068c       0x38 .\CortexM3\ARM_GCC_541\Debug\AS76.o
                0x0000068c                Initialize_USB
 .text.Write_Debug_UART_Int
                0x000006c4       0x34 .\CortexM3\ARM_GCC_541\Debug\AS76.o
                0x000006c4                Write_Debug_UART_Int
 .text.set_BarcodeCondenser_LED
                0x000006f8       0x70 .\CortexM3\ARM_GCC_541\Debug\AS76.o
                0x000006f8                set_BarcodeCondenser_LED
 .text.set_CondenserLED
                0x00000768       0x70 .\CortexM3\ARM_GCC_541\Debug\AS76.o
                0x00000768                set_CondenserLED
 .text.UART_print_all_values
                0x000007d8       0x24 .\CortexM3\ARM_GCC_541\Debug\AS76.o
                0x000007d8                UART_print_all_values
 .text.if_all_homing_done
                0x000007fc       0x78 .\CortexM3\ARM_GCC_541\Debug\AS76.o
                0x000007fc                if_all_homing_done
 .text.Is_USB_Unpluged
                0x00000874       0x40 .\CortexM3\ARM_GCC_541\Debug\AS76.o
                0x00000874                Is_USB_Unpluged
 .text.Data_To_Transfer
                0x000008b4       0x10 .\CortexM3\ARM_GCC_541\Debug\AS76.o
                0x000008b4                Data_To_Transfer
 .text.SPI_MOTOR_CHIP_SELECT
                0x000008c4       0x98 .\CortexM3\ARM_GCC_541\Debug\AS76.o
                0x000008c4                SPI_MOTOR_CHIP_SELECT
 .text.Read_32bitSPI_DATA
                0x0000095c       0xec .\CortexM3\ARM_GCC_541\Debug\AS76.o
                0x0000095c                Read_32bitSPI_DATA
 .text.Write_32bitSPI_DATA
                0x00000a48       0x40 .\CortexM3\ARM_GCC_541\Debug\AS76.o
                0x00000a48                Write_32bitSPI_DATA
 .text.GotoPos  0x00000a88       0x28 .\CortexM3\ARM_GCC_541\Debug\AS76.o
                0x00000a88                GotoPos
 .text.Initialize_Motor
                0x00000ab0      0x284 .\CortexM3\ARM_GCC_541\Debug\AS76.o
                0x00000ab0                Initialize_Motor
 .text.WaitTillPositionReached
                0x00000d34       0x54 .\CortexM3\ARM_GCC_541\Debug\AS76.o
                0x00000d34                WaitTillPositionReached
 .text.Step_correction_x
                0x00000d88      0x100 .\CortexM3\ARM_GCC_541\Debug\AS76.o
                0x00000d88                Step_correction_x
 .text.goTo_X   0x00000e88       0x8c .\CortexM3\ARM_GCC_541\Debug\AS76.o
                0x00000e88                goTo_X
 *fill*         0x00000f14        0x4 
 .text.Step_correction_y
                0x00000f18       0xf0 .\CortexM3\ARM_GCC_541\Debug\AS76.o
                0x00000f18                Step_correction_y
 .text.goTo_Y   0x00001008       0x8c .\CortexM3\ARM_GCC_541\Debug\AS76.o
                0x00001008                goTo_Y
 *fill*         0x00001094        0x4 
 .text.Step_correction_z
                0x00001098       0xf0 .\CortexM3\ARM_GCC_541\Debug\AS76.o
                0x00001098                Step_correction_z
 .text.goTo_Z   0x00001188       0x9c .\CortexM3\ARM_GCC_541\Debug\AS76.o
                0x00001188                goTo_Z
 *fill*         0x00001224        0x4 
 .text.Step_correction_t
                0x00001228       0xf0 .\CortexM3\ARM_GCC_541\Debug\AS76.o
                0x00001228                Step_correction_t
 .text.goTo_T   0x00001318       0xe4 .\CortexM3\ARM_GCC_541\Debug\AS76.o
                0x00001318                goTo_T
 .text.goTo_XYZ
                0x000013fc       0xcc .\CortexM3\ARM_GCC_541\Debug\AS76.o
                0x000013fc                goTo_XYZ
 .text.update_max_velocity
                0x000014c8       0x10 .\CortexM3\ARM_GCC_541\Debug\AS76.o
                0x000014c8                update_max_velocity
 .text.homeX    0x000014d8      0x1b4 .\CortexM3\ARM_GCC_541\Debug\AS76.o
                0x000014d8                homeX
 .text.homeY    0x0000168c      0x1d4 .\CortexM3\ARM_GCC_541\Debug\AS76.o
                0x0000168c                homeY
 .text.homeZ    0x00001860      0x1d4 .\CortexM3\ARM_GCC_541\Debug\AS76.o
                0x00001860                homeZ
 .text.homeT    0x00001a34      0x228 .\CortexM3\ARM_GCC_541\Debug\AS76.o
                0x00001a34                homeT
 .text.run_pump
                0x00001c5c       0x90 .\CortexM3\ARM_GCC_541\Debug\AS76.o
                0x00001c5c                run_pump
 .text.run_pumpvs
                0x00001cec       0x80 .\CortexM3\ARM_GCC_541\Debug\AS76.o
                0x00001cec                run_pumpvs
 *fill*         0x00001d6c        0x4 
 .text.GsV2     0x00001d70       0xc4 .\CortexM3\ARM_GCC_541\Debug\AS76.o
                0x00001d70                GsV2
 *fill*         0x00001e34        0x4 
 .text.GsV2_1   0x00001e38      0x26c .\CortexM3\ARM_GCC_541\Debug\AS76.o
                0x00001e38                GsV2_1
 *fill*         0x000020a4        0x4 
 .text.GsV2_2   0x000020a8      0x27c .\CortexM3\ARM_GCC_541\Debug\AS76.o
                0x000020a8                GsV2_2
 *fill*         0x00002324        0x4 
 .text.GsV2_LR  0x00002328      0x2b4 .\CortexM3\ARM_GCC_541\Debug\AS76.o
                0x00002328                GsV2_LR
 .text.flash    0x000025dc       0x48 .\CortexM3\ARM_GCC_541\Debug\AS76.o
                0x000025dc                flash
 *fill*         0x00002624        0x4 
 .text.Process_USB_Data
                0x00002628     0x1408 .\CortexM3\ARM_GCC_541\Debug\AS76.o
                0x00002628                Process_USB_Data
 .text.LedFrame
                0x00003a30       0x1c .\CortexM3\ARM_GCC_541\Debug\APA102.o
                0x00003a30                LedFrame
 .text.RGB_Byte_TxOp
                0x00003a4c       0x38 .\CortexM3\ARM_GCC_541\Debug\APA102.o
                0x00003a4c                RGB_Byte_TxOp
 .text.BF       0x00003a84       0xf0 .\CortexM3\ARM_GCC_541\Debug\APA102.o
                0x00003a84                BF
 .text.BF2      0x00003b74       0x54 .\CortexM3\ARM_GCC_541\Debug\APA102.o
                0x00003b74                BF2
 .text.Ring     0x00003bc8      0x208 .\CortexM3\ARM_GCC_541\Debug\APA102.o
                0x00003bc8                Ring
 .text.PCA9959_dummy
                0x00003dd0       0x30 .\CortexM3\ARM_GCC_541\Debug\PCA9959.o
                0x00003dd0                PCA9959_dummy
 .text.PCA_16Bit_TxOp_1
                0x00003e00       0x60 .\CortexM3\ARM_GCC_541\Debug\PCA9959.o
                0x00003e00                PCA_16Bit_TxOp_1
 .text.PCA9959_Write_1
                0x00003e60       0x20 .\CortexM3\ARM_GCC_541\Debug\PCA9959.o
                0x00003e60                PCA9959_Write_1
 .text.PageSel_1
                0x00003e80       0x28 .\CortexM3\ARM_GCC_541\Debug\PCA9959.o
                0x00003e80                PageSel_1
 .text.PCA9959_Init_1
                0x00003ea8       0x28 .\CortexM3\ARM_GCC_541\Debug\PCA9959.o
                0x00003ea8                PCA9959_Init_1
 .text.PCA_16Bit_TxOp_2
                0x00003ed0       0x60 .\CortexM3\ARM_GCC_541\Debug\PCA9959.o
                0x00003ed0                PCA_16Bit_TxOp_2
 .text.PCA9959_Write_2
                0x00003f30       0x20 .\CortexM3\ARM_GCC_541\Debug\PCA9959.o
                0x00003f30                PCA9959_Write_2
 .text.PageSel_2
                0x00003f50       0x28 .\CortexM3\ARM_GCC_541\Debug\PCA9959.o
                0x00003f50                PageSel_2
 .text.PCA9959_Init_2
                0x00003f78       0x28 .\CortexM3\ARM_GCC_541\Debug\PCA9959.o
                0x00003f78                PCA9959_Init_2
 .text.PCA_16Bit_TxOp_3
                0x00003fa0       0x60 .\CortexM3\ARM_GCC_541\Debug\PCA9959.o
                0x00003fa0                PCA_16Bit_TxOp_3
 .text.PCA9959_Write_3
                0x00004000       0x20 .\CortexM3\ARM_GCC_541\Debug\PCA9959.o
                0x00004000                PCA9959_Write_3
 .text.PageSel_3
                0x00004020       0x28 .\CortexM3\ARM_GCC_541\Debug\PCA9959.o
                0x00004020                PageSel_3
 .text.PCA9959_Init_3
                0x00004048       0x28 .\CortexM3\ARM_GCC_541\Debug\PCA9959.o
                0x00004048                PCA9959_Init_3
 .text.PCA_16Bit_TxOp_4
                0x00004070       0x60 .\CortexM3\ARM_GCC_541\Debug\PCA9959.o
                0x00004070                PCA_16Bit_TxOp_4
 .text.PCA9959_Write_4
                0x000040d0       0x20 .\CortexM3\ARM_GCC_541\Debug\PCA9959.o
                0x000040d0                PCA9959_Write_4
 .text.PageSel_4
                0x000040f0       0x28 .\CortexM3\ARM_GCC_541\Debug\PCA9959.o
                0x000040f0                PageSel_4
 .text.PCA9959_Init_4
                0x00004118       0x28 .\CortexM3\ARM_GCC_541\Debug\PCA9959.o
                0x00004118                PCA9959_Init_4
 .text.PCA9959_clear
                0x00004140      0x654 .\CortexM3\ARM_GCC_541\Debug\PCA9959.o
                0x00004140                PCA9959_clear
 .text.Reset_Driver
                0x00004794       0x1c .\CortexM3\ARM_GCC_541\Debug\PCA9959.o
                0x00004794                Reset_Driver
 .text.PCA9959_Init_all
                0x000047b0       0x18 .\CortexM3\ARM_GCC_541\Debug\PCA9959.o
                0x000047b0                PCA9959_Init_all
 .text.PCA9959_ChnEn
                0x000047c8     0x14e8 .\CortexM3\ARM_GCC_541\Debug\PCA9959.o
                0x000047c8                PCA9959_ChnEn
 .text.CyClockStartupError
                0x00005cb0        0x4 .\CortexM3\ARM_GCC_541\Debug\cyfitter_cfg.o
 .text.cfg_write_bytes32
                0x00005cb4       0x34 .\CortexM3\ARM_GCC_541\Debug\cyfitter_cfg.o
 .text.AnalogSetDefault
                0x00005ce8       0x28 .\CortexM3\ARM_GCC_541\Debug\cyfitter_cfg.o
 .text.CYMEMZERO
                0x00005d10        0xc .\CortexM3\ARM_GCC_541\Debug\cyfitter_cfg.o
 .text.CYCONFIGCPYCODE
                0x00005d1c        0x8 .\CortexM3\ARM_GCC_541\Debug\cyfitter_cfg.o
 .text.CYCONFIGCPY
                0x00005d24        0x8 .\CortexM3\ARM_GCC_541\Debug\cyfitter_cfg.o
 .text.ClockSetup
                0x00005d2c       0xe8 .\CortexM3\ARM_GCC_541\Debug\cyfitter_cfg.o
 .text.cyfitter_cfg
                0x00005e14      0x178 .\CortexM3\ARM_GCC_541\Debug\cyfitter_cfg.o
                0x00005e14                cyfitter_cfg
 .text.IntDefaultHandler
                0x00005f8c       0x10 .\CortexM3\ARM_GCC_541\Debug\Cm3Start.o
                0x00005f8c                IntDefaultHandler
 .text._sbrk    0x00005f9c       0x30 .\CortexM3\ARM_GCC_541\Debug\Cm3Start.o
                0x00005f9c                _sbrk
 .text.Start_c  0x00005fcc       0x4c .\CortexM3\ARM_GCC_541\Debug\Cm3Start.o
                0x00005fcc                Start_c
 .text.initialize_psoc
                0x00006018       0x68 .\CortexM3\ARM_GCC_541\Debug\Cm3Start.o
                0x00006018                initialize_psoc
 .text.Pin_CSMotorX_Write
                0x00006080       0x18 .\CortexM3\ARM_GCC_541\Debug\Half_Skeleton_V2_LED_ARRAY.a(Pin_CSMotorX.o)
                0x00006080                Pin_CSMotorX_Write
 .text.Pin_CSMotorY_Write
                0x00006098       0x18 .\CortexM3\ARM_GCC_541\Debug\Half_Skeleton_V2_LED_ARRAY.a(Pin_CSMotorY.o)
                0x00006098                Pin_CSMotorY_Write
 .text.Pin_CSMotorZ_Write
                0x000060b0       0x18 .\CortexM3\ARM_GCC_541\Debug\Half_Skeleton_V2_LED_ARRAY.a(Pin_CSMotorZ.o)
                0x000060b0                Pin_CSMotorZ_Write
 .text.SPIM_EnableTxInt
                0x000060c8        0xc .\CortexM3\ARM_GCC_541\Debug\Half_Skeleton_V2_LED_ARRAY.a(SPIM.o)
                0x000060c8                SPIM_EnableTxInt
 .text.SPIM_EnableRxInt
                0x000060d4        0xc .\CortexM3\ARM_GCC_541\Debug\Half_Skeleton_V2_LED_ARRAY.a(SPIM.o)
                0x000060d4                SPIM_EnableRxInt
 .text.SPIM_Enable
                0x000060e0       0x3c .\CortexM3\ARM_GCC_541\Debug\Half_Skeleton_V2_LED_ARRAY.a(SPIM.o)
                0x000060e0                SPIM_Enable
 .text.SPIM_DisableTxInt
                0x0000611c        0xc .\CortexM3\ARM_GCC_541\Debug\Half_Skeleton_V2_LED_ARRAY.a(SPIM.o)
                0x0000611c                SPIM_DisableTxInt
 .text.SPIM_DisableRxInt
                0x00006128        0xc .\CortexM3\ARM_GCC_541\Debug\Half_Skeleton_V2_LED_ARRAY.a(SPIM.o)
                0x00006128                SPIM_DisableRxInt
 .text.SPIM_ReadTxStatus
                0x00006134       0x28 .\CortexM3\ARM_GCC_541\Debug\Half_Skeleton_V2_LED_ARRAY.a(SPIM.o)
                0x00006134                SPIM_ReadTxStatus
 .text.SPIM_ReadRxStatus
                0x0000615c       0x28 .\CortexM3\ARM_GCC_541\Debug\Half_Skeleton_V2_LED_ARRAY.a(SPIM.o)
                0x0000615c                SPIM_ReadRxStatus
 .text.SPIM_WriteTxData
                0x00006184       0xd4 .\CortexM3\ARM_GCC_541\Debug\Half_Skeleton_V2_LED_ARRAY.a(SPIM.o)
                0x00006184                SPIM_WriteTxData
 .text.SPIM_ReadRxData
                0x00006258       0x64 .\CortexM3\ARM_GCC_541\Debug\Half_Skeleton_V2_LED_ARRAY.a(SPIM.o)
                0x00006258                SPIM_ReadRxData
 .text.SPIM_ClearFIFO
                0x000062bc       0x3c .\CortexM3\ARM_GCC_541\Debug\Half_Skeleton_V2_LED_ARRAY.a(SPIM.o)
                0x000062bc                SPIM_ClearFIFO
 .text.SPIM_Init
                0x000062f8       0x90 .\CortexM3\ARM_GCC_541\Debug\Half_Skeleton_V2_LED_ARRAY.a(SPIM.o)
                0x000062f8                SPIM_Init
 .text.SPIM_Start
                0x00006388       0x1c .\CortexM3\ARM_GCC_541\Debug\Half_Skeleton_V2_LED_ARRAY.a(SPIM.o)
                0x00006388                SPIM_Start
 .text.SPIM_TX_ISR
                0x000063a4       0xa0 .\CortexM3\ARM_GCC_541\Debug\Half_Skeleton_V2_LED_ARRAY.a(SPIM_INT.o)
                0x000063a4                SPIM_TX_ISR
 .text.SPIM_RX_ISR
                0x00006444       0xa0 .\CortexM3\ARM_GCC_541\Debug\Half_Skeleton_V2_LED_ARRAY.a(SPIM_INT.o)
                0x00006444                SPIM_RX_ISR
 .text.CyHalt   0x000064e4        0x4 .\CortexM3\ARM_GCC_541\Debug\Half_Skeleton_V2_LED_ARRAY.a(CyLib.o)
                0x000064e4                CyHalt
 .text.CySoftwareReset
                0x000064e8       0x10 .\CortexM3\ARM_GCC_541\Debug\Half_Skeleton_V2_LED_ARRAY.a(CyLib.o)
                0x000064e8                CySoftwareReset
 .text.CyDelay  0x000064f8       0x2c .\CortexM3\ARM_GCC_541\Debug\Half_Skeleton_V2_LED_ARRAY.a(CyLib.o)
                0x000064f8                CyDelay
 .text.CyDelayUs
                0x00006524       0x14 .\CortexM3\ARM_GCC_541\Debug\Half_Skeleton_V2_LED_ARRAY.a(CyLib.o)
                0x00006524                CyDelayUs
 .text.CyIntSetVector
                0x00006538       0x28 .\CortexM3\ARM_GCC_541\Debug\Half_Skeleton_V2_LED_ARRAY.a(CyLib.o)
                0x00006538                CyIntSetVector
 .text.CyIntSetPriority
                0x00006560       0x30 .\CortexM3\ARM_GCC_541\Debug\Half_Skeleton_V2_LED_ARRAY.a(CyLib.o)
                0x00006560                CyIntSetPriority
 .text.CyGetUniqueId
                0x00006590       0x70 .\CortexM3\ARM_GCC_541\Debug\Half_Skeleton_V2_LED_ARRAY.a(CyLib.o)
                0x00006590                CyGetUniqueId
 .text.USB_Init
                0x00006600      0x140 .\CortexM3\ARM_GCC_541\Debug\Half_Skeleton_V2_LED_ARRAY.a(USB.o)
                0x00006600                USB_Init
 .text.USB_InitComponent
                0x00006740       0xd0 .\CortexM3\ARM_GCC_541\Debug\Half_Skeleton_V2_LED_ARRAY.a(USB.o)
                0x00006740                USB_InitComponent
 .text.USB_Start
                0x00006810       0x24 .\CortexM3\ARM_GCC_541\Debug\Half_Skeleton_V2_LED_ARRAY.a(USB.o)
                0x00006810                USB_Start
 .text.USB_ReInitComponent
                0x00006834       0x64 .\CortexM3\ARM_GCC_541\Debug\Half_Skeleton_V2_LED_ARRAY.a(USB.o)
                0x00006834                USB_ReInitComponent
 .text.USB_GetConfiguration
                0x00006898        0xc .\CortexM3\ARM_GCC_541\Debug\Half_Skeleton_V2_LED_ARRAY.a(USB.o)
                0x00006898                USB_GetConfiguration
 .text.USB_IsConfigurationChanged
                0x000068a4       0x20 .\CortexM3\ARM_GCC_541\Debug\Half_Skeleton_V2_LED_ARRAY.a(USB.o)
                0x000068a4                USB_IsConfigurationChanged
 .text.USB_GetEPState
                0x000068c4       0x14 .\CortexM3\ARM_GCC_541\Debug\Half_Skeleton_V2_LED_ARRAY.a(USB.o)
                0x000068c4                USB_GetEPState
 .text.USB_GetEPCount
                0x000068d8       0x28 .\CortexM3\ARM_GCC_541\Debug\Half_Skeleton_V2_LED_ARRAY.a(USB.o)
                0x000068d8                USB_GetEPCount
 .text.USB_LoadInEP
                0x00006900       0x94 .\CortexM3\ARM_GCC_541\Debug\Half_Skeleton_V2_LED_ARRAY.a(USB.o)
                0x00006900                USB_LoadInEP
 .text.USB_EnableOutEP
                0x00006994       0x2c .\CortexM3\ARM_GCC_541\Debug\Half_Skeleton_V2_LED_ARRAY.a(USB.o)
                0x00006994                USB_EnableOutEP
 .text.USB_ReadOutEP
                0x000069c0       0x50 .\CortexM3\ARM_GCC_541\Debug\Half_Skeleton_V2_LED_ARRAY.a(USB.o)
                0x000069c0                USB_ReadOutEP
 .text.USB_EnableSofInt
                0x00006a10       0x10 .\CortexM3\ARM_GCC_541\Debug\Half_Skeleton_V2_LED_ARRAY.a(USB.o)
                0x00006a10                USB_EnableSofInt
 .text.USB_GetInterfaceComPort
                0x00006a20       0x38 .\CortexM3\ARM_GCC_541\Debug\Half_Skeleton_V2_LED_ARRAY.a(USB_cdc.o)
                0x00006a20                USB_GetInterfaceComPort
 .text.USB_DispatchCDCClassRqst
                0x00006a58       0x98 .\CortexM3\ARM_GCC_541\Debug\Half_Skeleton_V2_LED_ARRAY.a(USB_cdc.o)
                0x00006a58                USB_DispatchCDCClassRqst
 .text.USB_CDC_Init
                0x00006af0       0x98 .\CortexM3\ARM_GCC_541\Debug\Half_Skeleton_V2_LED_ARRAY.a(USB_cdc.o)
                0x00006af0                USB_CDC_Init
 .text.USB_PutData
                0x00006b88       0x50 .\CortexM3\ARM_GCC_541\Debug\Half_Skeleton_V2_LED_ARRAY.a(USB_cdc.o)
                0x00006b88                USB_PutData
 .text.USB_DataIsReady
                0x00006bd8       0x18 .\CortexM3\ARM_GCC_541\Debug\Half_Skeleton_V2_LED_ARRAY.a(USB_cdc.o)
                0x00006bd8                USB_DataIsReady
 .text.USB_GetAll
                0x00006bf0       0x30 .\CortexM3\ARM_GCC_541\Debug\Half_Skeleton_V2_LED_ARRAY.a(USB_cdc.o)
                0x00006bf0                USB_GetAll
 .text.USB_Cdc_EpInit
                0x00006c20       0x50 .\CortexM3\ARM_GCC_541\Debug\Half_Skeleton_V2_LED_ARRAY.a(USB_cdc.o)
                0x00006c20                USB_Cdc_EpInit
 .text.USB_LoadEP0
                0x00006c70       0x98 .\CortexM3\ARM_GCC_541\Debug\Half_Skeleton_V2_LED_ARRAY.a(USB_drv.o)
                0x00006c70                USB_LoadEP0
 .text.USB_InitZeroLengthControlTransfer
                0x00006d08       0x34 .\CortexM3\ARM_GCC_541\Debug\Half_Skeleton_V2_LED_ARRAY.a(USB_drv.o)
                0x00006d08                USB_InitZeroLengthControlTransfer
 .text.USB_ControlReadDataStage
                0x00006d3c        0x8 .\CortexM3\ARM_GCC_541\Debug\Half_Skeleton_V2_LED_ARRAY.a(USB_drv.o)
                0x00006d3c                USB_ControlReadDataStage
 .text.USB_ControlWriteDataStage
                0x00006d44       0x84 .\CortexM3\ARM_GCC_541\Debug\Half_Skeleton_V2_LED_ARRAY.a(USB_drv.o)
                0x00006d44                USB_ControlWriteDataStage
 .text.USB_InitNoDataControlTransfer
                0x00006dc8       0x2c .\CortexM3\ARM_GCC_541\Debug\Half_Skeleton_V2_LED_ARRAY.a(USB_drv.o)
                0x00006dc8                USB_InitNoDataControlTransfer
 .text.USB_UpdateStatusBlock
                0x00006df4       0x24 .\CortexM3\ARM_GCC_541\Debug\Half_Skeleton_V2_LED_ARRAY.a(USB_drv.o)
                0x00006df4                USB_UpdateStatusBlock
 .text.USB_HandleSetup
                0x00006e18       0x5c .\CortexM3\ARM_GCC_541\Debug\Half_Skeleton_V2_LED_ARRAY.a(USB_drv.o)
                0x00006e18                USB_HandleSetup
 .text.USB_ControlReadStatusStage
                0x00006e74       0x38 .\CortexM3\ARM_GCC_541\Debug\Half_Skeleton_V2_LED_ARRAY.a(USB_drv.o)
                0x00006e74                USB_ControlReadStatusStage
 .text.USB_HandleOUT
                0x00006eac       0x38 .\CortexM3\ARM_GCC_541\Debug\Half_Skeleton_V2_LED_ARRAY.a(USB_drv.o)
                0x00006eac                USB_HandleOUT
 .text.USB_ControlWriteStatusStage
                0x00006ee4       0x20 .\CortexM3\ARM_GCC_541\Debug\Half_Skeleton_V2_LED_ARRAY.a(USB_drv.o)
                0x00006ee4                USB_ControlWriteStatusStage
 .text.USB_NoDataControlStatusStage
                0x00006f04       0x40 .\CortexM3\ARM_GCC_541\Debug\Half_Skeleton_V2_LED_ARRAY.a(USB_drv.o)
                0x00006f04                USB_NoDataControlStatusStage
 .text.USB_HandleIN
                0x00006f44       0x2c .\CortexM3\ARM_GCC_541\Debug\Half_Skeleton_V2_LED_ARRAY.a(USB_drv.o)
                0x00006f44                USB_HandleIN
 .text.USB_EP_0_ISR
                0x00006f70       0xb8 .\CortexM3\ARM_GCC_541\Debug\Half_Skeleton_V2_LED_ARRAY.a(USB_drv.o)
                0x00006f70                USB_EP_0_ISR
 .text.USB_InitializeStatusBlock
                0x00007028       0x24 .\CortexM3\ARM_GCC_541\Debug\Half_Skeleton_V2_LED_ARRAY.a(USB_drv.o)
                0x00007028                USB_InitializeStatusBlock
 .text.USB_InitControlRead
                0x0000704c       0x50 .\CortexM3\ARM_GCC_541\Debug\Half_Skeleton_V2_LED_ARRAY.a(USB_drv.o)
                0x0000704c                USB_InitControlRead
 .text.USB_InitControlWrite
                0x0000709c       0x48 .\CortexM3\ARM_GCC_541\Debug\Half_Skeleton_V2_LED_ARRAY.a(USB_drv.o)
                0x0000709c                USB_InitControlWrite
 .text.USB_EP_1_ISR
                0x000070e4       0x30 .\CortexM3\ARM_GCC_541\Debug\Half_Skeleton_V2_LED_ARRAY.a(USB_episr.o)
                0x000070e4                USB_EP_1_ISR
 .text.USB_EP_2_ISR
                0x00007114       0x34 .\CortexM3\ARM_GCC_541\Debug\Half_Skeleton_V2_LED_ARRAY.a(USB_episr.o)
                0x00007114                USB_EP_2_ISR
 .text.USB_EP_3_ISR
                0x00007148       0x3c .\CortexM3\ARM_GCC_541\Debug\Half_Skeleton_V2_LED_ARRAY.a(USB_episr.o)
                0x00007148                USB_EP_3_ISR
 .text.USB_SOF_ISR
                0x00007184        0x4 .\CortexM3\ARM_GCC_541\Debug\Half_Skeleton_V2_LED_ARRAY.a(USB_episr.o)
                0x00007184                USB_SOF_ISR
 .text.USB_BUS_RESET_ISR
                0x00007188        0x8 .\CortexM3\ARM_GCC_541\Debug\Half_Skeleton_V2_LED_ARRAY.a(USB_episr.o)
                0x00007188                USB_BUS_RESET_ISR
 .text.USB_FindHidClassDecriptor
                0x00007190       0x44 .\CortexM3\ARM_GCC_541\Debug\Half_Skeleton_V2_LED_ARRAY.a(USB_hid.o)
                0x00007190                USB_FindHidClassDecriptor
 .text.USB_FindReportDescriptor
                0x000071d4       0x4c .\CortexM3\ARM_GCC_541\Debug\Half_Skeleton_V2_LED_ARRAY.a(USB_hid.o)
                0x000071d4                USB_FindReportDescriptor
 .text.USB_FindReport
                0x00007220       0x80 .\CortexM3\ARM_GCC_541\Debug\Half_Skeleton_V2_LED_ARRAY.a(USB_hid.o)
                0x00007220                USB_FindReport
 .text.USB_DispatchHIDClassRqst
                0x000072a0      0x184 .\CortexM3\ARM_GCC_541\Debug\Half_Skeleton_V2_LED_ARRAY.a(USB_hid.o)
                0x000072a0                USB_DispatchHIDClassRqst
 .text.USB_DP_ISR
                0x00007424        0x8 .\CortexM3\ARM_GCC_541\Debug\Half_Skeleton_V2_LED_ARRAY.a(USB_pm.o)
                0x00007424                USB_DP_ISR
 .text.USB_ReadDieID
                0x0000742c       0x6c .\CortexM3\ARM_GCC_541\Debug\Half_Skeleton_V2_LED_ARRAY.a(USB_std.o)
                0x0000742c                USB_ReadDieID
 .text.USB_ConfigReg
                0x00007498       0xa4 .\CortexM3\ARM_GCC_541\Debug\Half_Skeleton_V2_LED_ARRAY.a(USB_std.o)
                0x00007498                USB_ConfigReg
 .text.USB_GetConfigTablePtr
                0x0000753c       0x28 .\CortexM3\ARM_GCC_541\Debug\Half_Skeleton_V2_LED_ARRAY.a(USB_std.o)
                0x0000753c                USB_GetConfigTablePtr
 .text.USB_ConfigAltChanged
                0x00007564      0x11c .\CortexM3\ARM_GCC_541\Debug\Half_Skeleton_V2_LED_ARRAY.a(USB_std.o)
                0x00007564                USB_ConfigAltChanged
 .text.USB_GetDeviceTablePtr
                0x00007680       0x18 .\CortexM3\ARM_GCC_541\Debug\Half_Skeleton_V2_LED_ARRAY.a(USB_std.o)
                0x00007680                USB_GetDeviceTablePtr
 .text.USB_GetInterfaceClassTablePtr
                0x00007698       0x28 .\CortexM3\ARM_GCC_541\Debug\Half_Skeleton_V2_LED_ARRAY.a(USB_std.o)
                0x00007698                USB_GetInterfaceClassTablePtr
 .text.USB_Config
                0x000076c0      0x1ec .\CortexM3\ARM_GCC_541\Debug\Half_Skeleton_V2_LED_ARRAY.a(USB_std.o)
                0x000076c0                USB_Config
 .text.USB_SetEndpointHalt
                0x000078ac       0x64 .\CortexM3\ARM_GCC_541\Debug\Half_Skeleton_V2_LED_ARRAY.a(USB_std.o)
                0x000078ac                USB_SetEndpointHalt
 .text.USB_ClearEndpointHalt
                0x00007910       0xac .\CortexM3\ARM_GCC_541\Debug\Half_Skeleton_V2_LED_ARRAY.a(USB_std.o)
                0x00007910                USB_ClearEndpointHalt
 .text.USB_ValidateAlternateSetting
                0x000079bc       0x4c .\CortexM3\ARM_GCC_541\Debug\Half_Skeleton_V2_LED_ARRAY.a(USB_std.o)
                0x000079bc                USB_ValidateAlternateSetting
 .text.USB_HandleStandardRqst
                0x00007a08      0x35c .\CortexM3\ARM_GCC_541\Debug\Half_Skeleton_V2_LED_ARRAY.a(USB_std.o)
                0x00007a08                USB_HandleStandardRqst
 .text.USB_HandleVendorRqst
                0x00007d64       0x3c .\CortexM3\ARM_GCC_541\Debug\Half_Skeleton_V2_LED_ARRAY.a(USB_vnd.o)
                0x00007d64                USB_HandleVendorRqst
 .text.USB_Dp_ClearInterrupt
                0x00007da0       0x10 .\CortexM3\ARM_GCC_541\Debug\Half_Skeleton_V2_LED_ARRAY.a(USB_Dp.o)
                0x00007da0                USB_Dp_ClearInterrupt
 .text.PWM_CondenserLED_Enable
                0x00007db0       0x28 .\CortexM3\ARM_GCC_541\Debug\Half_Skeleton_V2_LED_ARRAY.a(PWM_CondenserLED.o)
                0x00007db0                PWM_CondenserLED_Enable
 .text.PWM_CondenserLED_WritePeriod
                0x00007dd8        0xc .\CortexM3\ARM_GCC_541\Debug\Half_Skeleton_V2_LED_ARRAY.a(PWM_CondenserLED.o)
                0x00007dd8                PWM_CondenserLED_WritePeriod
 .text.PWM_CondenserLED_WriteCompare
                0x00007de4        0xc .\CortexM3\ARM_GCC_541\Debug\Half_Skeleton_V2_LED_ARRAY.a(PWM_CondenserLED.o)
                0x00007de4                PWM_CondenserLED_WriteCompare
 .text.PWM_CondenserLED_SetInterruptMode
                0x00007df0        0xc .\CortexM3\ARM_GCC_541\Debug\Half_Skeleton_V2_LED_ARRAY.a(PWM_CondenserLED.o)
                0x00007df0                PWM_CondenserLED_SetInterruptMode
 .text.PWM_CondenserLED_Init
                0x00007dfc       0x74 .\CortexM3\ARM_GCC_541\Debug\Half_Skeleton_V2_LED_ARRAY.a(PWM_CondenserLED.o)
                0x00007dfc                PWM_CondenserLED_Init
 .text.PWM_CondenserLED_Start
                0x00007e70       0x1c .\CortexM3\ARM_GCC_541\Debug\Half_Skeleton_V2_LED_ARRAY.a(PWM_CondenserLED.o)
                0x00007e70                PWM_CondenserLED_Start
 .text.SPIM_IntClock_Start
                0x00007e8c       0x1c .\CortexM3\ARM_GCC_541\Debug\Half_Skeleton_V2_LED_ARRAY.a(SPIM_IntClock.o)
                0x00007e8c                SPIM_IntClock_Start
 .text.QuadDec_X_Init
                0x00007ea8       0x24 .\CortexM3\ARM_GCC_541\Debug\Half_Skeleton_V2_LED_ARRAY.a(QuadDec_X.o)
                0x00007ea8                QuadDec_X_Init
 .text.QuadDec_X_GetCounter
                0x00007ecc       0x2c .\CortexM3\ARM_GCC_541\Debug\Half_Skeleton_V2_LED_ARRAY.a(QuadDec_X.o)
                0x00007ecc                QuadDec_X_GetCounter
 .text.QuadDec_X_SetCounter
                0x00007ef8       0x28 .\CortexM3\ARM_GCC_541\Debug\Half_Skeleton_V2_LED_ARRAY.a(QuadDec_X.o)
                0x00007ef8                QuadDec_X_SetCounter
 .text.QuadDec_X_GetEvents
                0x00007f20       0x10 .\CortexM3\ARM_GCC_541\Debug\Half_Skeleton_V2_LED_ARRAY.a(QuadDec_X.o)
                0x00007f20                QuadDec_X_GetEvents
 .text.QuadDec_X_SetInterruptMask
                0x00007f30       0x10 .\CortexM3\ARM_GCC_541\Debug\Half_Skeleton_V2_LED_ARRAY.a(QuadDec_X.o)
                0x00007f30                QuadDec_X_SetInterruptMask
 .text.QuadDec_X_Enable
                0x00007f40       0x30 .\CortexM3\ARM_GCC_541\Debug\Half_Skeleton_V2_LED_ARRAY.a(QuadDec_X.o)
                0x00007f40                QuadDec_X_Enable
 .text.QuadDec_X_Start
                0x00007f70       0x34 .\CortexM3\ARM_GCC_541\Debug\Half_Skeleton_V2_LED_ARRAY.a(QuadDec_X.o)
                0x00007f70                QuadDec_X_Start
 .text.QuadDec_X_ISR
                0x00007fa4       0x40 .\CortexM3\ARM_GCC_541\Debug\Half_Skeleton_V2_LED_ARRAY.a(QuadDec_X_INT.o)
                0x00007fa4                QuadDec_X_ISR
 .text.QuadDec_X_Cnt16_Enable
                0x00007fe4       0x10 .\CortexM3\ARM_GCC_541\Debug\Half_Skeleton_V2_LED_ARRAY.a(QuadDec_X_Cnt16.o)
                0x00007fe4                QuadDec_X_Cnt16_Enable
 .text.QuadDec_X_Cnt16_SetInterruptMode
                0x00007ff4        0xc .\CortexM3\ARM_GCC_541\Debug\Half_Skeleton_V2_LED_ARRAY.a(QuadDec_X_Cnt16.o)
                0x00007ff4                QuadDec_X_Cnt16_SetInterruptMode
 .text.QuadDec_X_Cnt16_ReadStatusRegister
                0x00008000        0xc .\CortexM3\ARM_GCC_541\Debug\Half_Skeleton_V2_LED_ARRAY.a(QuadDec_X_Cnt16.o)
                0x00008000                QuadDec_X_Cnt16_ReadStatusRegister
 .text.QuadDec_X_Cnt16_WriteCounter
                0x0000800c        0xc .\CortexM3\ARM_GCC_541\Debug\Half_Skeleton_V2_LED_ARRAY.a(QuadDec_X_Cnt16.o)
                0x0000800c                QuadDec_X_Cnt16_WriteCounter
 .text.QuadDec_X_Cnt16_ReadCounter
                0x00008018       0x14 .\CortexM3\ARM_GCC_541\Debug\Half_Skeleton_V2_LED_ARRAY.a(QuadDec_X_Cnt16.o)
                0x00008018                QuadDec_X_Cnt16_ReadCounter
 .text.QuadDec_X_Cnt16_ReadCapture
                0x0000802c        0xc .\CortexM3\ARM_GCC_541\Debug\Half_Skeleton_V2_LED_ARRAY.a(QuadDec_X_Cnt16.o)
                0x0000802c                QuadDec_X_Cnt16_ReadCapture
 .text.QuadDec_X_Cnt16_WritePeriod
                0x00008038        0xc .\CortexM3\ARM_GCC_541\Debug\Half_Skeleton_V2_LED_ARRAY.a(QuadDec_X_Cnt16.o)
                0x00008038                QuadDec_X_Cnt16_WritePeriod
 .text.QuadDec_X_Cnt16_WriteCompare
                0x00008044        0xc .\CortexM3\ARM_GCC_541\Debug\Half_Skeleton_V2_LED_ARRAY.a(QuadDec_X_Cnt16.o)
                0x00008044                QuadDec_X_Cnt16_WriteCompare
 .text.QuadDec_X_Cnt16_ClearFIFO
                0x00008050       0x14 .\CortexM3\ARM_GCC_541\Debug\Half_Skeleton_V2_LED_ARRAY.a(QuadDec_X_Cnt16.o)
                0x00008050                QuadDec_X_Cnt16_ClearFIFO
 .text.QuadDec_X_Cnt16_Init
                0x00008064       0x58 .\CortexM3\ARM_GCC_541\Debug\Half_Skeleton_V2_LED_ARRAY.a(QuadDec_X_Cnt16.o)
                0x00008064                QuadDec_X_Cnt16_Init
 .text.QuadDec_X_Cnt16_Start
                0x000080bc       0x1c .\CortexM3\ARM_GCC_541\Debug\Half_Skeleton_V2_LED_ARRAY.a(QuadDec_X_Cnt16.o)
                0x000080bc                QuadDec_X_Cnt16_Start
 .text.UART_PCB_LOG_Init
                0x000080d8       0x44 .\CortexM3\ARM_GCC_541\Debug\Half_Skeleton_V2_LED_ARRAY.a(UART_PCB_LOG.o)
                0x000080d8                UART_PCB_LOG_Init
 .text.UART_PCB_LOG_Enable
                0x0000811c       0x48 .\CortexM3\ARM_GCC_541\Debug\Half_Skeleton_V2_LED_ARRAY.a(UART_PCB_LOG.o)
                0x0000811c                UART_PCB_LOG_Enable
 .text.UART_PCB_LOG_Start
                0x00008164       0x1c .\CortexM3\ARM_GCC_541\Debug\Half_Skeleton_V2_LED_ARRAY.a(UART_PCB_LOG.o)
                0x00008164                UART_PCB_LOG_Start
 .text.UART_PCB_LOG_PutChar
                0x00008180       0x18 .\CortexM3\ARM_GCC_541\Debug\Half_Skeleton_V2_LED_ARRAY.a(UART_PCB_LOG.o)
                0x00008180                UART_PCB_LOG_PutChar
 .text.UART_PCB_LOG_PutString
                0x00008198       0x24 .\CortexM3\ARM_GCC_541\Debug\Half_Skeleton_V2_LED_ARRAY.a(UART_PCB_LOG.o)
                0x00008198                UART_PCB_LOG_PutString
 .text.UART_PCB_LOG_RXISR
                0x000081bc       0x98 .\CortexM3\ARM_GCC_541\Debug\Half_Skeleton_V2_LED_ARRAY.a(UART_PCB_LOG_INT.o)
                0x000081bc                UART_PCB_LOG_RXISR
 .text.UART_PCB_LOG_IntClock_Start
                0x00008254       0x1c .\CortexM3\ARM_GCC_541\Debug\Half_Skeleton_V2_LED_ARRAY.a(UART_PCB_LOG_IntClock.o)
                0x00008254                UART_PCB_LOG_IntClock_Start
 .text.Pin_Backlight_Write
                0x00008270       0x18 .\CortexM3\ARM_GCC_541\Debug\Half_Skeleton_V2_LED_ARRAY.a(Pin_Backlight.o)
                0x00008270                Pin_Backlight_Write
 .text.LED2_Write
                0x00008288       0x18 .\CortexM3\ARM_GCC_541\Debug\Half_Skeleton_V2_LED_ARRAY.a(LED2.o)
                0x00008288                LED2_Write
 .text.Pin_CSMotorO_Write
                0x000082a0       0x18 .\CortexM3\ARM_GCC_541\Debug\Half_Skeleton_V2_LED_ARRAY.a(Pin_CSMotorO.o)
                0x000082a0                Pin_CSMotorO_Write
 .text.Pin_CSMotorT_Write
                0x000082b8       0x18 .\CortexM3\ARM_GCC_541\Debug\Half_Skeleton_V2_LED_ARRAY.a(Pin_CSMotorT.o)
                0x000082b8                Pin_CSMotorT_Write
 .text.QuadDec_TZ_Init
                0x000082d0       0x24 .\CortexM3\ARM_GCC_541\Debug\Half_Skeleton_V2_LED_ARRAY.a(QuadDec_TZ.o)
                0x000082d0                QuadDec_TZ_Init
 .text.QuadDec_TZ_GetCounter
                0x000082f4       0x2c .\CortexM3\ARM_GCC_541\Debug\Half_Skeleton_V2_LED_ARRAY.a(QuadDec_TZ.o)
                0x000082f4                QuadDec_TZ_GetCounter
 .text.QuadDec_TZ_SetCounter
                0x00008320       0x28 .\CortexM3\ARM_GCC_541\Debug\Half_Skeleton_V2_LED_ARRAY.a(QuadDec_TZ.o)
                0x00008320                QuadDec_TZ_SetCounter
 .text.QuadDec_TZ_GetEvents
                0x00008348       0x10 .\CortexM3\ARM_GCC_541\Debug\Half_Skeleton_V2_LED_ARRAY.a(QuadDec_TZ.o)
                0x00008348                QuadDec_TZ_GetEvents
 .text.QuadDec_TZ_SetInterruptMask
                0x00008358       0x10 .\CortexM3\ARM_GCC_541\Debug\Half_Skeleton_V2_LED_ARRAY.a(QuadDec_TZ.o)
                0x00008358                QuadDec_TZ_SetInterruptMask
 .text.QuadDec_TZ_Enable
                0x00008368       0x30 .\CortexM3\ARM_GCC_541\Debug\Half_Skeleton_V2_LED_ARRAY.a(QuadDec_TZ.o)
                0x00008368                QuadDec_TZ_Enable
 .text.QuadDec_TZ_Start
                0x00008398       0x34 .\CortexM3\ARM_GCC_541\Debug\Half_Skeleton_V2_LED_ARRAY.a(QuadDec_TZ.o)
                0x00008398                QuadDec_TZ_Start
 .text.QuadDec_TZ_ISR
                0x000083cc       0x40 .\CortexM3\ARM_GCC_541\Debug\Half_Skeleton_V2_LED_ARRAY.a(QuadDec_TZ_INT.o)
                0x000083cc                QuadDec_TZ_ISR
 .text.PWM_Buzzer_Enable
                0x0000840c       0x28 .\CortexM3\ARM_GCC_541\Debug\Half_Skeleton_V2_LED_ARRAY.a(PWM_Buzzer.o)
                0x0000840c                PWM_Buzzer_Enable
 .text.PWM_Buzzer_WritePeriod
                0x00008434        0xc .\CortexM3\ARM_GCC_541\Debug\Half_Skeleton_V2_LED_ARRAY.a(PWM_Buzzer.o)
                0x00008434                PWM_Buzzer_WritePeriod
 .text.PWM_Buzzer_WriteCompare
                0x00008440        0xc .\CortexM3\ARM_GCC_541\Debug\Half_Skeleton_V2_LED_ARRAY.a(PWM_Buzzer.o)
                0x00008440                PWM_Buzzer_WriteCompare
 .text.PWM_Buzzer_SetInterruptMode
                0x0000844c        0xc .\CortexM3\ARM_GCC_541\Debug\Half_Skeleton_V2_LED_ARRAY.a(PWM_Buzzer.o)
                0x0000844c                PWM_Buzzer_SetInterruptMode
 .text.PWM_Buzzer_Init
                0x00008458       0x74 .\CortexM3\ARM_GCC_541\Debug\Half_Skeleton_V2_LED_ARRAY.a(PWM_Buzzer.o)
                0x00008458                PWM_Buzzer_Init
 .text.PWM_Buzzer_Start
                0x000084cc       0x1c .\CortexM3\ARM_GCC_541\Debug\Half_Skeleton_V2_LED_ARRAY.a(PWM_Buzzer.o)
                0x000084cc                PWM_Buzzer_Start
 .text.QuadDec_Y_Init
                0x000084e8       0x24 .\CortexM3\ARM_GCC_541\Debug\Half_Skeleton_V2_LED_ARRAY.a(QuadDec_Y.o)
                0x000084e8                QuadDec_Y_Init
 .text.QuadDec_Y_GetCounter
                0x0000850c       0x2c .\CortexM3\ARM_GCC_541\Debug\Half_Skeleton_V2_LED_ARRAY.a(QuadDec_Y.o)
                0x0000850c                QuadDec_Y_GetCounter
 .text.QuadDec_Y_SetCounter
                0x00008538       0x28 .\CortexM3\ARM_GCC_541\Debug\Half_Skeleton_V2_LED_ARRAY.a(QuadDec_Y.o)
                0x00008538                QuadDec_Y_SetCounter
 .text.QuadDec_Y_GetEvents
                0x00008560       0x10 .\CortexM3\ARM_GCC_541\Debug\Half_Skeleton_V2_LED_ARRAY.a(QuadDec_Y.o)
                0x00008560                QuadDec_Y_GetEvents
 .text.QuadDec_Y_SetInterruptMask
                0x00008570       0x10 .\CortexM3\ARM_GCC_541\Debug\Half_Skeleton_V2_LED_ARRAY.a(QuadDec_Y.o)
                0x00008570                QuadDec_Y_SetInterruptMask
 .text.QuadDec_Y_Enable
                0x00008580       0x30 .\CortexM3\ARM_GCC_541\Debug\Half_Skeleton_V2_LED_ARRAY.a(QuadDec_Y.o)
                0x00008580                QuadDec_Y_Enable
 .text.QuadDec_Y_Start
                0x000085b0       0x34 .\CortexM3\ARM_GCC_541\Debug\Half_Skeleton_V2_LED_ARRAY.a(QuadDec_Y.o)
                0x000085b0                QuadDec_Y_Start
 .text.QuadDec_Y_ISR
                0x000085e4       0x40 .\CortexM3\ARM_GCC_541\Debug\Half_Skeleton_V2_LED_ARRAY.a(QuadDec_Y_INT.o)
                0x000085e4                QuadDec_Y_ISR
 .text.PWM_BarcodeCondenser_LED_Enable
                0x00008624       0x28 .\CortexM3\ARM_GCC_541\Debug\Half_Skeleton_V2_LED_ARRAY.a(PWM_BarcodeCondenser_LED.o)
                0x00008624                PWM_BarcodeCondenser_LED_Enable
 .text.PWM_BarcodeCondenser_LED_WritePeriod
                0x0000864c        0xc .\CortexM3\ARM_GCC_541\Debug\Half_Skeleton_V2_LED_ARRAY.a(PWM_BarcodeCondenser_LED.o)
                0x0000864c                PWM_BarcodeCondenser_LED_WritePeriod
 .text.PWM_BarcodeCondenser_LED_WriteCompare
                0x00008658        0xc .\CortexM3\ARM_GCC_541\Debug\Half_Skeleton_V2_LED_ARRAY.a(PWM_BarcodeCondenser_LED.o)
                0x00008658                PWM_BarcodeCondenser_LED_WriteCompare
 .text.PWM_BarcodeCondenser_LED_SetInterruptMode
                0x00008664        0xc .\CortexM3\ARM_GCC_541\Debug\Half_Skeleton_V2_LED_ARRAY.a(PWM_BarcodeCondenser_LED.o)
                0x00008664                PWM_BarcodeCondenser_LED_SetInterruptMode
 .text.PWM_BarcodeCondenser_LED_Init
                0x00008670       0x74 .\CortexM3\ARM_GCC_541\Debug\Half_Skeleton_V2_LED_ARRAY.a(PWM_BarcodeCondenser_LED.o)
                0x00008670                PWM_BarcodeCondenser_LED_Init
 .text.PWM_BarcodeCondenser_LED_Start
                0x000086e4       0x1c .\CortexM3\ARM_GCC_541\Debug\Half_Skeleton_V2_LED_ARRAY.a(PWM_BarcodeCondenser_LED.o)
                0x000086e4                PWM_BarcodeCondenser_LED_Start
 .text.LED3_Write
                0x00008700       0x18 .\CortexM3\ARM_GCC_541\Debug\Half_Skeleton_V2_LED_ARRAY.a(LED3.o)
                0x00008700                LED3_Write
 .text.Encoder_T_Z_Select_Write
                0x00008718        0xc .\CortexM3\ARM_GCC_541\Debug\Half_Skeleton_V2_LED_ARRAY.a(Encoder_T_Z_Select.o)
                0x00008718                Encoder_T_Z_Select_Write
 .text.TMC5160_MotorX_EN_Write
                0x00008724       0x18 .\CortexM3\ARM_GCC_541\Debug\Half_Skeleton_V2_LED_ARRAY.a(TMC5160_MotorX_EN.o)
                0x00008724                TMC5160_MotorX_EN_Write
 .text.TMC5160_MotorY_EN_Write
                0x0000873c       0x18 .\CortexM3\ARM_GCC_541\Debug\Half_Skeleton_V2_LED_ARRAY.a(TMC5160_MotorY_EN.o)
                0x0000873c                TMC5160_MotorY_EN_Write
 .text.TMC5160_MotorZ_EN_Write
                0x00008754       0x18 .\CortexM3\ARM_GCC_541\Debug\Half_Skeleton_V2_LED_ARRAY.a(TMC5160_MotorZ_EN.o)
                0x00008754                TMC5160_MotorZ_EN_Write
 .text.TMC5160_MotorT_EN_Write
                0x0000876c       0x18 .\CortexM3\ARM_GCC_541\Debug\Half_Skeleton_V2_LED_ARRAY.a(TMC5160_MotorT_EN.o)
                0x0000876c                TMC5160_MotorT_EN_Write
 .text.TMC5160_MotorO_EN_Write
                0x00008784       0x18 .\CortexM3\ARM_GCC_541\Debug\Half_Skeleton_V2_LED_ARRAY.a(TMC5160_MotorO_EN.o)
                0x00008784                TMC5160_MotorO_EN_Write
 .text.QuadDec_TZ_Cnt16_Enable
                0x0000879c       0x10 .\CortexM3\ARM_GCC_541\Debug\Half_Skeleton_V2_LED_ARRAY.a(QuadDec_TZ_Cnt16.o)
                0x0000879c                QuadDec_TZ_Cnt16_Enable
 .text.QuadDec_TZ_Cnt16_SetInterruptMode
                0x000087ac        0xc .\CortexM3\ARM_GCC_541\Debug\Half_Skeleton_V2_LED_ARRAY.a(QuadDec_TZ_Cnt16.o)
                0x000087ac                QuadDec_TZ_Cnt16_SetInterruptMode
 .text.QuadDec_TZ_Cnt16_ReadStatusRegister
                0x000087b8        0xc .\CortexM3\ARM_GCC_541\Debug\Half_Skeleton_V2_LED_ARRAY.a(QuadDec_TZ_Cnt16.o)
                0x000087b8                QuadDec_TZ_Cnt16_ReadStatusRegister
 .text.QuadDec_TZ_Cnt16_WriteCounter
                0x000087c4        0xc .\CortexM3\ARM_GCC_541\Debug\Half_Skeleton_V2_LED_ARRAY.a(QuadDec_TZ_Cnt16.o)
                0x000087c4                QuadDec_TZ_Cnt16_WriteCounter
 .text.QuadDec_TZ_Cnt16_ReadCounter
                0x000087d0       0x14 .\CortexM3\ARM_GCC_541\Debug\Half_Skeleton_V2_LED_ARRAY.a(QuadDec_TZ_Cnt16.o)
                0x000087d0                QuadDec_TZ_Cnt16_ReadCounter
 .text.QuadDec_TZ_Cnt16_ReadCapture
                0x000087e4        0xc .\CortexM3\ARM_GCC_541\Debug\Half_Skeleton_V2_LED_ARRAY.a(QuadDec_TZ_Cnt16.o)
                0x000087e4                QuadDec_TZ_Cnt16_ReadCapture
 .text.QuadDec_TZ_Cnt16_WritePeriod
                0x000087f0        0xc .\CortexM3\ARM_GCC_541\Debug\Half_Skeleton_V2_LED_ARRAY.a(QuadDec_TZ_Cnt16.o)
                0x000087f0                QuadDec_TZ_Cnt16_WritePeriod
 .text.QuadDec_TZ_Cnt16_WriteCompare
                0x000087fc        0xc .\CortexM3\ARM_GCC_541\Debug\Half_Skeleton_V2_LED_ARRAY.a(QuadDec_TZ_Cnt16.o)
                0x000087fc                QuadDec_TZ_Cnt16_WriteCompare
 .text.QuadDec_TZ_Cnt16_ClearFIFO
                0x00008808       0x14 .\CortexM3\ARM_GCC_541\Debug\Half_Skeleton_V2_LED_ARRAY.a(QuadDec_TZ_Cnt16.o)
                0x00008808                QuadDec_TZ_Cnt16_ClearFIFO
 .text.QuadDec_TZ_Cnt16_Init
                0x0000881c       0x58 .\CortexM3\ARM_GCC_541\Debug\Half_Skeleton_V2_LED_ARRAY.a(QuadDec_TZ_Cnt16.o)
                0x0000881c                QuadDec_TZ_Cnt16_Init
 .text.QuadDec_TZ_Cnt16_Start
                0x00008874       0x1c .\CortexM3\ARM_GCC_541\Debug\Half_Skeleton_V2_LED_ARRAY.a(QuadDec_TZ_Cnt16.o)
                0x00008874                QuadDec_TZ_Cnt16_Start
 .text.QuadDec_Y_Cnt16_Enable
                0x00008890       0x10 .\CortexM3\ARM_GCC_541\Debug\Half_Skeleton_V2_LED_ARRAY.a(QuadDec_Y_Cnt16.o)
                0x00008890                QuadDec_Y_Cnt16_Enable
 .text.QuadDec_Y_Cnt16_SetInterruptMode
                0x000088a0        0xc .\CortexM3\ARM_GCC_541\Debug\Half_Skeleton_V2_LED_ARRAY.a(QuadDec_Y_Cnt16.o)
                0x000088a0                QuadDec_Y_Cnt16_SetInterruptMode
 .text.QuadDec_Y_Cnt16_ReadStatusRegister
                0x000088ac        0xc .\CortexM3\ARM_GCC_541\Debug\Half_Skeleton_V2_LED_ARRAY.a(QuadDec_Y_Cnt16.o)
                0x000088ac                QuadDec_Y_Cnt16_ReadStatusRegister
 .text.QuadDec_Y_Cnt16_WriteCounter
                0x000088b8        0xc .\CortexM3\ARM_GCC_541\Debug\Half_Skeleton_V2_LED_ARRAY.a(QuadDec_Y_Cnt16.o)
                0x000088b8                QuadDec_Y_Cnt16_WriteCounter
 .text.QuadDec_Y_Cnt16_ReadCounter
                0x000088c4       0x14 .\CortexM3\ARM_GCC_541\Debug\Half_Skeleton_V2_LED_ARRAY.a(QuadDec_Y_Cnt16.o)
                0x000088c4                QuadDec_Y_Cnt16_ReadCounter
 .text.QuadDec_Y_Cnt16_ReadCapture
                0x000088d8        0xc .\CortexM3\ARM_GCC_541\Debug\Half_Skeleton_V2_LED_ARRAY.a(QuadDec_Y_Cnt16.o)
                0x000088d8                QuadDec_Y_Cnt16_ReadCapture
 .text.QuadDec_Y_Cnt16_WritePeriod
                0x000088e4        0xc .\CortexM3\ARM_GCC_541\Debug\Half_Skeleton_V2_LED_ARRAY.a(QuadDec_Y_Cnt16.o)
                0x000088e4                QuadDec_Y_Cnt16_WritePeriod
 .text.QuadDec_Y_Cnt16_WriteCompare
                0x000088f0        0xc .\CortexM3\ARM_GCC_541\Debug\Half_Skeleton_V2_LED_ARRAY.a(QuadDec_Y_Cnt16.o)
                0x000088f0                QuadDec_Y_Cnt16_WriteCompare
 .text.QuadDec_Y_Cnt16_ClearFIFO
                0x000088fc       0x14 .\CortexM3\ARM_GCC_541\Debug\Half_Skeleton_V2_LED_ARRAY.a(QuadDec_Y_Cnt16.o)
                0x000088fc                QuadDec_Y_Cnt16_ClearFIFO
 .text.QuadDec_Y_Cnt16_Init
                0x00008910       0x58 .\CortexM3\ARM_GCC_541\Debug\Half_Skeleton_V2_LED_ARRAY.a(QuadDec_Y_Cnt16.o)
                0x00008910                QuadDec_Y_Cnt16_Init
 .text.QuadDec_Y_Cnt16_Start
                0x00008968       0x1c .\CortexM3\ARM_GCC_541\Debug\Half_Skeleton_V2_LED_ARRAY.a(QuadDec_Y_Cnt16.o)
                0x00008968                QuadDec_Y_Cnt16_Start
 .text.wait_timer_Enable
                0x00008984       0x28 .\CortexM3\ARM_GCC_541\Debug\Half_Skeleton_V2_LED_ARRAY.a(wait_timer.o)
                0x00008984                wait_timer_Enable
 .text.wait_timer_Stop
                0x000089ac       0x28 .\CortexM3\ARM_GCC_541\Debug\Half_Skeleton_V2_LED_ARRAY.a(wait_timer.o)
                0x000089ac                wait_timer_Stop
 .text.wait_timer_SetInterruptMode
                0x000089d4        0xc .\CortexM3\ARM_GCC_541\Debug\Half_Skeleton_V2_LED_ARRAY.a(wait_timer.o)
                0x000089d4                wait_timer_SetInterruptMode
 .text.wait_timer_WritePeriod
                0x000089e0        0xc .\CortexM3\ARM_GCC_541\Debug\Half_Skeleton_V2_LED_ARRAY.a(wait_timer.o)
                0x000089e0                wait_timer_WritePeriod
 .text.wait_timer_WriteCounter
                0x000089ec        0xc .\CortexM3\ARM_GCC_541\Debug\Half_Skeleton_V2_LED_ARRAY.a(wait_timer.o)
                0x000089ec                wait_timer_WriteCounter
 .text.wait_timer_Init
                0x000089f8       0x68 .\CortexM3\ARM_GCC_541\Debug\Half_Skeleton_V2_LED_ARRAY.a(wait_timer.o)
                0x000089f8                wait_timer_Init
 .text.wait_timer_Start
                0x00008a60       0x1c .\CortexM3\ARM_GCC_541\Debug\Half_Skeleton_V2_LED_ARRAY.a(wait_timer.o)
                0x00008a60                wait_timer_Start
 .text.wait_interrupt_SetVector
                0x00008a7c        0xc .\CortexM3\ARM_GCC_541\Debug\Half_Skeleton_V2_LED_ARRAY.a(wait_interrupt.o)
                0x00008a7c                wait_interrupt_SetVector
 .text.wait_interrupt_SetPriority
                0x00008a88       0x10 .\CortexM3\ARM_GCC_541\Debug\Half_Skeleton_V2_LED_ARRAY.a(wait_interrupt.o)
                0x00008a88                wait_interrupt_SetPriority
 .text.wait_interrupt_Enable
                0x00008a98       0x10 .\CortexM3\ARM_GCC_541\Debug\Half_Skeleton_V2_LED_ARRAY.a(wait_interrupt.o)
                0x00008a98                wait_interrupt_Enable
 .text.wait_interrupt_Disable
                0x00008aa8       0x10 .\CortexM3\ARM_GCC_541\Debug\Half_Skeleton_V2_LED_ARRAY.a(wait_interrupt.o)
                0x00008aa8                wait_interrupt_Disable
 .text.wait_interrupt_StartEx
                0x00008ab8       0x1c .\CortexM3\ARM_GCC_541\Debug\Half_Skeleton_V2_LED_ARRAY.a(wait_interrupt.o)
                0x00008ab8                wait_interrupt_StartEx
 .text.X_MOT_INT_Read
                0x00008ad4       0x10 .\CortexM3\ARM_GCC_541\Debug\Half_Skeleton_V2_LED_ARRAY.a(X_MOT_INT.o)
                0x00008ad4                X_MOT_INT_Read
 .text.Y_MOT_INT_Read
                0x00008ae4       0x10 .\CortexM3\ARM_GCC_541\Debug\Half_Skeleton_V2_LED_ARRAY.a(Y_MOT_INT.o)
                0x00008ae4                Y_MOT_INT_Read
 .text.Z_MOT_INT_Read
                0x00008af4       0x10 .\CortexM3\ARM_GCC_541\Debug\Half_Skeleton_V2_LED_ARRAY.a(Z_MOT_INT.o)
                0x00008af4                Z_MOT_INT_Read
 .text.Camera_Trigger_Write
                0x00008b04       0x18 .\CortexM3\ARM_GCC_541\Debug\Half_Skeleton_V2_LED_ARRAY.a(Camera_Trigger.o)
                0x00008b04                Camera_Trigger_Write
 .text.Pin_SDI_RGB_Write
                0x00008b1c       0x18 .\CortexM3\ARM_GCC_541\Debug\Half_Skeleton_V2_LED_ARRAY.a(Pin_SDI_RGB.o)
                0x00008b1c                Pin_SDI_RGB_Write
 .text.Pin_Clock_RGB_Write
                0x00008b34       0x18 .\CortexM3\ARM_GCC_541\Debug\Half_Skeleton_V2_LED_ARRAY.a(Pin_Clock_RGB.o)
                0x00008b34                Pin_Clock_RGB_Write
 .text.Pin_MOSI_PCA9959_Write
                0x00008b4c       0x18 .\CortexM3\ARM_GCC_541\Debug\Half_Skeleton_V2_LED_ARRAY.a(Pin_MOSI_PCA9959.o)
                0x00008b4c                Pin_MOSI_PCA9959_Write
 .text.Pin_SCK_PCA9959_Write
                0x00008b64       0x18 .\CortexM3\ARM_GCC_541\Debug\Half_Skeleton_V2_LED_ARRAY.a(Pin_SCK_PCA9959.o)
                0x00008b64                Pin_SCK_PCA9959_Write
 .text.Pin_SS_PCA9959_Write
                0x00008b7c       0x18 .\CortexM3\ARM_GCC_541\Debug\Half_Skeleton_V2_LED_ARRAY.a(Pin_SS_PCA9959.o)
                0x00008b7c                Pin_SS_PCA9959_Write
 .text.Pin_OE_PCA9959_1_Write
                0x00008b94       0x18 .\CortexM3\ARM_GCC_541\Debug\Half_Skeleton_V2_LED_ARRAY.a(Pin_OE_PCA9959_1.o)
                0x00008b94                Pin_OE_PCA9959_1_Write
 .text.Pin_OE_PCA9959_2_Write
                0x00008bac       0x18 .\CortexM3\ARM_GCC_541\Debug\Half_Skeleton_V2_LED_ARRAY.a(Pin_OE_PCA9959_2.o)
                0x00008bac                Pin_OE_PCA9959_2_Write
 .text.Pin_OE_PCA9959_3_Write
                0x00008bc4       0x18 .\CortexM3\ARM_GCC_541\Debug\Half_Skeleton_V2_LED_ARRAY.a(Pin_OE_PCA9959_3.o)
                0x00008bc4                Pin_OE_PCA9959_3_Write
 .text.Pin_OE_PCA9959_4_Write
                0x00008bdc       0x18 .\CortexM3\ARM_GCC_541\Debug\Half_Skeleton_V2_LED_ARRAY.a(Pin_OE_PCA9959_4.o)
                0x00008bdc                Pin_OE_PCA9959_4_Write
 .text.Pin_RST_PCA9959_Write
                0x00008bf4       0x18 .\CortexM3\ARM_GCC_541\Debug\Half_Skeleton_V2_LED_ARRAY.a(Pin_RST_PCA9959.o)
                0x00008bf4                Pin_RST_PCA9959_Write
 *fill*         0x00008c0c        0x4 
 .text          0x00008c10       0x20 .\CortexM3\ARM_GCC_541\Debug\Half_Skeleton_V2_LED_ARRAY.a(CyBootAsmGnu.o)
                0x00008c10                CyDelayCycles
                0x00008c20                CyEnterCriticalSection
                0x00008c28                CyExitCriticalSection
 .text.USB_DispatchClassRqst
                0x00008c30       0x68 .\CortexM3\ARM_GCC_541\Debug\Half_Skeleton_V2_LED_ARRAY.a(USB_cls.o)
                0x00008c30                USB_DispatchClassRqst
 .text.pow      0x00008c98      0x330 c:/program files (x86)/cypress/psoc creator/4.4/psoc creator/import/gnu/arm/5.4.1/bin/../lib/gcc/arm-none-eabi/5.4.1/../../../../arm-none-eabi/lib/armv7-m\libm.a(lib_a-w_pow.o)
                0x00008c98                pow
 .text.__ieee754_pow
                0x00008fc8      0xac4 c:/program files (x86)/cypress/psoc creator/4.4/psoc creator/import/gnu/arm/5.4.1/bin/../lib/gcc/arm-none-eabi/5.4.1/../../../../arm-none-eabi/lib/armv7-m\libm.a(lib_a-e_pow.o)
                0x00008fc8                __ieee754_pow
 .text.__ieee754_sqrt
                0x00009a8c      0x188 c:/program files (x86)/cypress/psoc creator/4.4/psoc creator/import/gnu/arm/5.4.1/bin/../lib/gcc/arm-none-eabi/5.4.1/../../../../arm-none-eabi/lib/armv7-m\libm.a(lib_a-e_sqrt.o)
                0x00009a8c                __ieee754_sqrt
 .text.fabs     0x00009c14        0x8 c:/program files (x86)/cypress/psoc creator/4.4/psoc creator/import/gnu/arm/5.4.1/bin/../lib/gcc/arm-none-eabi/5.4.1/../../../../arm-none-eabi/lib/armv7-m\libm.a(lib_a-s_fabs.o)
                0x00009c14                fabs
 .text.finite   0x00009c1c        0xc c:/program files (x86)/cypress/psoc creator/4.4/psoc creator/import/gnu/arm/5.4.1/bin/../lib/gcc/arm-none-eabi/5.4.1/../../../../arm-none-eabi/lib/armv7-m\libm.a(lib_a-s_finite.o)
                0x00009c1c                finite
 .text.matherr  0x00009c28        0x4 c:/program files (x86)/cypress/psoc creator/4.4/psoc creator/import/gnu/arm/5.4.1/bin/../lib/gcc/arm-none-eabi/5.4.1/../../../../arm-none-eabi/lib/armv7-m\libm.a(lib_a-s_matherr.o)
                0x00009c28                matherr
 .text.nan      0x00009c2c        0xc c:/program files (x86)/cypress/psoc creator/4.4/psoc creator/import/gnu/arm/5.4.1/bin/../lib/gcc/arm-none-eabi/5.4.1/../../../../arm-none-eabi/lib/armv7-m\libm.a(lib_a-s_nan.o)
                0x00009c2c                nan
 .text.rint     0x00009c38      0x120 c:/program files (x86)/cypress/psoc creator/4.4/psoc creator/import/gnu/arm/5.4.1/bin/../lib/gcc/arm-none-eabi/5.4.1/../../../../arm-none-eabi/lib/armv7-m\libm.a(lib_a-s_rint.o)
                0x00009c38                rint
 .text.scalbn   0x00009d58       0xe4 c:/program files (x86)/cypress/psoc creator/4.4/psoc creator/import/gnu/arm/5.4.1/bin/../lib/gcc/arm-none-eabi/5.4.1/../../../../arm-none-eabi/lib/armv7-m\libm.a(lib_a-s_scalbn.o)
                0x00009d58                scalbn
 .text.copysign
                0x00009e3c       0x10 c:/program files (x86)/cypress/psoc creator/4.4/psoc creator/import/gnu/arm/5.4.1/bin/../lib/gcc/arm-none-eabi/5.4.1/../../../../arm-none-eabi/lib/armv7-m\libm.a(lib_a-s_copysign.o)
                0x00009e3c                copysign
 .text          0x00009e4c      0x370 c:/program files (x86)/cypress/psoc creator/4.4/psoc creator/import/gnu/arm/5.4.1/bin/../lib/gcc/arm-none-eabi/5.4.1/armv7-m\libgcc.a(_arm_addsubdf3.o)
                0x00009e4c                __aeabi_drsub
                0x00009e54                __aeabi_dsub
                0x00009e54                __subdf3
                0x00009e58                __aeabi_dadd
                0x00009e58                __adddf3
                0x0000a0d0                __floatunsidf
                0x0000a0d0                __aeabi_ui2d
                0x0000a0f0                __floatsidf
                0x0000a0f0                __aeabi_i2d
                0x0000a114                __aeabi_f2d
                0x0000a114                __extendsfdf2
                0x0000a150                __floatundidf
                0x0000a150                __aeabi_ul2d
                0x0000a160                __floatdidf
                0x0000a160                __aeabi_l2d
 .text          0x0000a1bc      0x424 c:/program files (x86)/cypress/psoc creator/4.4/psoc creator/import/gnu/arm/5.4.1/bin/../lib/gcc/arm-none-eabi/5.4.1/armv7-m\libgcc.a(_arm_muldivdf3.o)
                0x0000a1bc                __aeabi_dmul
                0x0000a1bc                __muldf3
                0x0000a410                __divdf3
                0x0000a410                __aeabi_ddiv
 .text          0x0000a5e0      0x110 c:/program files (x86)/cypress/psoc creator/4.4/psoc creator/import/gnu/arm/5.4.1/bin/../lib/gcc/arm-none-eabi/5.4.1/armv7-m\libgcc.a(_arm_cmpdf2.o)
                0x0000a5e0                __gtdf2
                0x0000a5e0                __gedf2
                0x0000a5e8                __ltdf2
                0x0000a5e8                __ledf2
                0x0000a5f0                __nedf2
                0x0000a5f0                __eqdf2
                0x0000a5f0                __cmpdf2
                0x0000a66c                __aeabi_cdrcmple
                0x0000a67c                __aeabi_cdcmpeq
                0x0000a67c                __aeabi_cdcmple
                0x0000a68c                __aeabi_dcmpeq
                0x0000a6a0                __aeabi_dcmplt
                0x0000a6b4                __aeabi_dcmple
                0x0000a6c8                __aeabi_dcmpge
                0x0000a6dc                __aeabi_dcmpgt
 .text          0x0000a6f0       0x2c c:/program files (x86)/cypress/psoc creator/4.4/psoc creator/import/gnu/arm/5.4.1/bin/../lib/gcc/arm-none-eabi/5.4.1/armv7-m\libgcc.a(_arm_unorddf2.o)
                0x0000a6f0                __unorddf2
                0x0000a6f0                __aeabi_dcmpun
 .text          0x0000a71c       0x50 c:/program files (x86)/cypress/psoc creator/4.4/psoc creator/import/gnu/arm/5.4.1/bin/../lib/gcc/arm-none-eabi/5.4.1/armv7-m\libgcc.a(_arm_fixdfsi.o)
                0x0000a71c                __aeabi_d2iz
                0x0000a71c                __fixdfsi
 .text          0x0000a76c       0x40 c:/program files (x86)/cypress/psoc creator/4.4/psoc creator/import/gnu/arm/5.4.1/bin/../lib/gcc/arm-none-eabi/5.4.1/armv7-m\libgcc.a(_arm_fixunsdfsi.o)
                0x0000a76c                __aeabi_d2uiz
                0x0000a76c                __fixunsdfsi
 .text          0x0000a7ac       0xa0 c:/program files (x86)/cypress/psoc creator/4.4/psoc creator/import/gnu/arm/5.4.1/bin/../lib/gcc/arm-none-eabi/5.4.1/armv7-m\libgcc.a(_arm_truncdfsf2.o)
                0x0000a7ac                __truncdfsf2
                0x0000a7ac                __aeabi_d2f
 .text          0x0000a84c      0x21c c:/program files (x86)/cypress/psoc creator/4.4/psoc creator/import/gnu/arm/5.4.1/bin/../lib/gcc/arm-none-eabi/5.4.1/armv7-m\libgcc.a(_arm_addsubsf3.o)
                0x0000a84c                __aeabi_frsub
                0x0000a854                __subsf3
                0x0000a854                __aeabi_fsub
                0x0000a858                __aeabi_fadd
                0x0000a858                __addsf3
                0x0000a9b8                __aeabi_ui2f
                0x0000a9b8                __floatunsisf
                0x0000a9c0                __aeabi_i2f
                0x0000a9c0                __floatsisf
                0x0000a9dc                __aeabi_ul2f
                0x0000a9dc                __floatundisf
                0x0000a9ec                __aeabi_l2f
                0x0000a9ec                __floatdisf
 .text          0x0000aa68      0x2a0 c:/program files (x86)/cypress/psoc creator/4.4/psoc creator/import/gnu/arm/5.4.1/bin/../lib/gcc/arm-none-eabi/5.4.1/armv7-m\libgcc.a(_arm_muldivsf3.o)
                0x0000aa68                __mulsf3
                0x0000aa68                __aeabi_fmul
                0x0000abd0                __aeabi_fdiv
                0x0000abd0                __divsf3
 .text.__errno  0x0000ad08        0xc c:/program files (x86)/cypress/psoc creator/4.4/psoc creator/import/gnu/arm/5.4.1/bin/../lib/gcc/arm-none-eabi/5.4.1/../../../../arm-none-eabi/lib/armv7-m\libg_nano.a(lib_a-errno.o)
                0x0000ad08                __errno
 .text.__libc_init_array
                0x0000ad14       0x4c c:/program files (x86)/cypress/psoc creator/4.4/psoc creator/import/gnu/arm/5.4.1/bin/../lib/gcc/arm-none-eabi/5.4.1/../../../../arm-none-eabi/lib/armv7-m\libg_nano.a(lib_a-init.o)
                0x0000ad14                __libc_init_array
 .text.memcpy   0x0000ad60       0x16 c:/program files (x86)/cypress/psoc creator/4.4/psoc creator/import/gnu/arm/5.4.1/bin/../lib/gcc/arm-none-eabi/5.4.1/../../../../arm-none-eabi/lib/armv7-m\libg_nano.a(lib_a-memcpy-stub.o)
                0x0000ad60                memcpy
 .text.memset   0x0000ad76       0x10 c:/program files (x86)/cypress/psoc creator/4.4/psoc creator/import/gnu/arm/5.4.1/bin/../lib/gcc/arm-none-eabi/5.4.1/../../../../arm-none-eabi/lib/armv7-m\libg_nano.a(lib_a-memset.o)
                0x0000ad76                memset
 *fill*         0x0000ad86        0x2 
 .text.sprintf  0x0000ad88       0x48 c:/program files (x86)/cypress/psoc creator/4.4/psoc creator/import/gnu/arm/5.4.1/bin/../lib/gcc/arm-none-eabi/5.4.1/../../../../arm-none-eabi/lib/armv7-m\libg_nano.a(lib_a-sprintf.o)
                0x0000ad88                siprintf
                0x0000ad88                sprintf
 .text.__ssputs_r
                0x0000add0       0xb2 c:/program files (x86)/cypress/psoc creator/4.4/psoc creator/import/gnu/arm/5.4.1/bin/../lib/gcc/arm-none-eabi/5.4.1/../../../../arm-none-eabi/lib/armv7-m\libg_nano.a(lib_a-nano-svfprintf.o)
                0x0000add0                __ssputs_r
 *fill*         0x0000ae82        0x2 
 .text._svfprintf_r
                0x0000ae84      0x1e8 c:/program files (x86)/cypress/psoc creator/4.4/psoc creator/import/gnu/arm/5.4.1/bin/../lib/gcc/arm-none-eabi/5.4.1/../../../../arm-none-eabi/lib/armv7-m\libg_nano.a(lib_a-nano-svfprintf.o)
                0x0000ae84                _svfiprintf_r
                0x0000ae84                _svfprintf_r
 .text._printf_common
                0x0000b06c       0xec c:/program files (x86)/cypress/psoc creator/4.4/psoc creator/import/gnu/arm/5.4.1/bin/../lib/gcc/arm-none-eabi/5.4.1/../../../../arm-none-eabi/lib/armv7-m\libg_nano.a(lib_a-nano-vfprintf_i.o)
                0x0000b06c                _printf_common
 .text._printf_i
                0x0000b158      0x24c c:/program files (x86)/cypress/psoc creator/4.4/psoc creator/import/gnu/arm/5.4.1/bin/../lib/gcc/arm-none-eabi/5.4.1/../../../../arm-none-eabi/lib/armv7-m\libg_nano.a(lib_a-nano-vfprintf_i.o)
                0x0000b158                _printf_i
 .text.memchr   0x0000b3a4       0x1c c:/program files (x86)/cypress/psoc creator/4.4/psoc creator/import/gnu/arm/5.4.1/bin/../lib/gcc/arm-none-eabi/5.4.1/../../../../arm-none-eabi/lib/armv7-m\libg_nano.a(lib_a-memchr-stub.o)
                0x0000b3a4                memchr
 .text.memmove  0x0000b3c0       0x36 c:/program files (x86)/cypress/psoc creator/4.4/psoc creator/import/gnu/arm/5.4.1/bin/../lib/gcc/arm-none-eabi/5.4.1/../../../../arm-none-eabi/lib/armv7-m\libg_nano.a(lib_a-memmove.o)
                0x0000b3c0                memmove
 *fill*         0x0000b3f6        0x2 
 .text._free_r  0x0000b3f8       0x98 c:/program files (x86)/cypress/psoc creator/4.4/psoc creator/import/gnu/arm/5.4.1/bin/../lib/gcc/arm-none-eabi/5.4.1/../../../../arm-none-eabi/lib/armv7-m\libg_nano.a(lib_a-nano-freer.o)
                0x0000b3f8                _free_r
 .text._malloc_r
                0x0000b490       0xbc c:/program files (x86)/cypress/psoc creator/4.4/psoc creator/import/gnu/arm/5.4.1/bin/../lib/gcc/arm-none-eabi/5.4.1/../../../../arm-none-eabi/lib/armv7-m\libg_nano.a(lib_a-nano-mallocr.o)
                0x0000b490                _malloc_r
 .text._realloc_r
                0x0000b54c       0x4c c:/program files (x86)/cypress/psoc creator/4.4/psoc creator/import/gnu/arm/5.4.1/bin/../lib/gcc/arm-none-eabi/5.4.1/../../../../arm-none-eabi/lib/armv7-m\libg_nano.a(lib_a-nano-reallocr.o)
                0x0000b54c                _realloc_r
 .text._sbrk_r  0x0000b598       0x20 c:/program files (x86)/cypress/psoc creator/4.4/psoc creator/import/gnu/arm/5.4.1/bin/../lib/gcc/arm-none-eabi/5.4.1/../../../../arm-none-eabi/lib/armv7-m\libg_nano.a(lib_a-sbrkr.o)
                0x0000b598                _sbrk_r
 .text.__malloc_lock
                0x0000b5b8        0x2 c:/program files (x86)/cypress/psoc creator/4.4/psoc creator/import/gnu/arm/5.4.1/bin/../lib/gcc/arm-none-eabi/5.4.1/../../../../arm-none-eabi/lib/armv7-m\libg_nano.a(lib_a-mlock.o)
                0x0000b5b8                __malloc_lock
 .text.__malloc_unlock
                0x0000b5ba        0x2 c:/program files (x86)/cypress/psoc creator/4.4/psoc creator/import/gnu/arm/5.4.1/bin/../lib/gcc/arm-none-eabi/5.4.1/../../../../arm-none-eabi/lib/armv7-m\libg_nano.a(lib_a-mlock.o)
                0x0000b5ba                __malloc_unlock
 .text._malloc_usable_size_r
                0x0000b5bc       0x14 c:/program files (x86)/cypress/psoc creator/4.4/psoc creator/import/gnu/arm/5.4.1/bin/../lib/gcc/arm-none-eabi/5.4.1/../../../../arm-none-eabi/lib/armv7-m\libg_nano.a(lib_a-nano-msizer.o)
                0x0000b5bc                _malloc_usable_size_r
 *(.plt)
 *(.gnu.warning)
 *(.glue_7t)
 .glue_7t       0x0000b5d0        0x0 linker stubs
 *(.glue_7)
 .glue_7        0x0000b5d0        0x0 linker stubs
 *(.vfp11_veneer)
 .vfp11_veneer  0x0000b5d0        0x0 linker stubs
 *(.bootloader)
 *(.ARM.extab* .gnu.linkonce.armextab.*)
 *(.gcc_except_table)

.v4_bx          0x0000b5d0        0x0
 .v4_bx         0x0000b5d0        0x0 linker stubs

.iplt           0x0000b5d0        0x0
 .iplt          0x0000b5d0        0x0 c:/program files (x86)/cypress/psoc creator/4.4/psoc creator/import/gnu/arm/5.4.1/bin/../lib/gcc/arm-none-eabi/5.4.1/armv7-m/crtbegin.o

.eh_frame_hdr
 *(.eh_frame_hdr)

.eh_frame       0x0000b5d0        0x4
 *(.eh_frame)
 .eh_frame      0x0000b5d0        0x0 c:/program files (x86)/cypress/psoc creator/4.4/psoc creator/import/gnu/arm/5.4.1/bin/../lib/gcc/arm-none-eabi/5.4.1/armv7-m/crtbegin.o
 .eh_frame      0x0000b5d0        0x4 c:/program files (x86)/cypress/psoc creator/4.4/psoc creator/import/gnu/arm/5.4.1/bin/../lib/gcc/arm-none-eabi/5.4.1/armv7-m/crtend.o
                [!provide]                PROVIDE (__exidx_start, .)

.ARM.exidx
 *(.ARM.exidx* .gnu.linkonce.armexidx.*)
                0x0000b5d4                __exidx_end = .

.rodata         0x0000b5d8     0x1a38
 *(.rodata .rodata.* .gnu.linkonce.r.*)
 .rodata.str1.4
                0x0000b5d8       0x32 .\CortexM3\ARM_GCC_541\Debug\main.o
 *fill*         0x0000b60a        0x2 
 .rodata.str1.4
                0x0000b60c      0x6db .\CortexM3\ARM_GCC_541\Debug\AS76.o
                                0x6ef (size before relaxing)
 *fill*         0x0000bce7        0x1 
 .rodata        0x0000bce8     0x1070 .\CortexM3\ARM_GCC_541\Debug\cyfitter_cfg.o
 .rodata.str1.4
                0x0000cd58       0x11 .\CortexM3\ARM_GCC_541\Debug\Half_Skeleton_V2_LED_ARRAY.a(USB_std.o)
 *fill*         0x0000cd69        0x3 
 .rodata        0x0000cd6c      0x21a .\CortexM3\ARM_GCC_541\Debug\Half_Skeleton_V2_LED_ARRAY.a(USB_descr.o)
                0x0000cd6c                USB_MSOS_CONFIGURATION_DESCR
                0x0000cd94                USB_MSOS_DESCRIPTOR
                0x0000cda8                USB_TABLE
                0x0000cdb0                USB_DEVICE0_TABLE
                0x0000cdc8                USB_DEVICE0_CONFIGURATION0_TABLE
                0x0000cdf0                USB_DEVICE0_CONFIGURATION0_INTERFACE_CLASS
                0x0000cdf4                USB_DEVICE0_CONFIGURATION0_EP_SETTINGS_TABLE
                0x0000ce0c                USB_HIDREPORT_DESCRIPTOR1
                0x0000ce44                USB_SN_STRING_DESCRIPTOR
                0x0000ce48                USB_STRING_DESCRIPTORS
                0x0000cf30                USB_DEVICE0_CONFIGURATION0_DESCR
                0x0000cf74                USB_DEVICE0_DESCR
 *fill*         0x0000cf86        0x2 
 .rodata.str1.4
                0x0000cf88        0x4 c:/program files (x86)/cypress/psoc creator/4.4/psoc creator/import/gnu/arm/5.4.1/bin/../lib/gcc/arm-none-eabi/5.4.1/../../../../arm-none-eabi/lib/armv7-m\libm.a(lib_a-w_pow.o)
 .rodata.str1.4
                0x0000cf8c        0x4 c:/program files (x86)/cypress/psoc creator/4.4/psoc creator/import/gnu/arm/5.4.1/bin/../lib/gcc/arm-none-eabi/5.4.1/../../../../arm-none-eabi/lib/armv7-m\libm.a(lib_a-e_pow.o)
                                  0x1 (size before relaxing)
 *fill*         0x0000cf8c        0x4 
 .rodata.TWO52  0x0000cf90       0x10 c:/program files (x86)/cypress/psoc creator/4.4/psoc creator/import/gnu/arm/5.4.1/bin/../lib/gcc/arm-none-eabi/5.4.1/../../../../arm-none-eabi/lib/armv7-m\libm.a(lib_a-s_rint.o)
 .rodata.str1.1
                0x0000cfa0        0x2 c:/program files (x86)/cypress/psoc creator/4.4/psoc creator/import/gnu/arm/5.4.1/bin/../lib/gcc/arm-none-eabi/5.4.1/../../../../arm-none-eabi/lib/armv7-m\libg_nano.a(lib_a-impure.o)
 .rodata.str1.1
                0x0000cfa2       0x11 c:/program files (x86)/cypress/psoc creator/4.4/psoc creator/import/gnu/arm/5.4.1/bin/../lib/gcc/arm-none-eabi/5.4.1/../../../../arm-none-eabi/lib/armv7-m\libg_nano.a(lib_a-nano-svfprintf.o)
 .rodata.str1.1
                0x0000cfb3       0x22 c:/program files (x86)/cypress/psoc creator/4.4/psoc creator/import/gnu/arm/5.4.1/bin/../lib/gcc/arm-none-eabi/5.4.1/../../../../arm-none-eabi/lib/armv7-m\libg_nano.a(lib_a-nano-vfprintf_i.o)
                0x0000cfd8                . = ALIGN (0x4)
 *fill*         0x0000cfd5        0x3 
 *(.init)
 .init          0x0000cfd8        0x4 c:/program files (x86)/cypress/psoc creator/4.4/psoc creator/import/gnu/arm/5.4.1/bin/../lib/gcc/arm-none-eabi/5.4.1/armv7-m/crti.o
                0x0000cfd8                _init
 .init          0x0000cfdc        0x8 c:/program files (x86)/cypress/psoc creator/4.4/psoc creator/import/gnu/arm/5.4.1/bin/../lib/gcc/arm-none-eabi/5.4.1/armv7-m/crtn.o
                0x0000cfe4                . = ALIGN (0x4)
                0x0000cfe4                __preinit_array_start = .
 *(.preinit_array)
                0x0000cfe4                __preinit_array_end = .
                0x0000cfe4                . = ALIGN (0x4)
                0x0000cfe4                __init_array_start = .
 *(SORT(.init_array.*))
 *(.init_array)
 .init_array    0x0000cfe4        0x4 c:/program files (x86)/cypress/psoc creator/4.4/psoc creator/import/gnu/arm/5.4.1/bin/../lib/gcc/arm-none-eabi/5.4.1/armv7-m/crtbegin.o
 .init_array    0x0000cfe8        0x4 .\CortexM3\ARM_GCC_541\Debug\Cm3Start.o
                0x0000cfec                __init_array_end = .
                0x0000cfec                . = ALIGN (0x4)
 *(.fini)
 .fini          0x0000cfec        0x4 c:/program files (x86)/cypress/psoc creator/4.4/psoc creator/import/gnu/arm/5.4.1/bin/../lib/gcc/arm-none-eabi/5.4.1/armv7-m/crti.o
                0x0000cfec                _fini
 .fini          0x0000cff0        0x8 c:/program files (x86)/cypress/psoc creator/4.4/psoc creator/import/gnu/arm/5.4.1/bin/../lib/gcc/arm-none-eabi/5.4.1/armv7-m/crtn.o
                0x0000cff8                . = ALIGN (0x4)
                0x0000cff8                __fini_array_start = .
 *(.fini_array)
 .fini_array    0x0000cff8        0x4 c:/program files (x86)/cypress/psoc creator/4.4/psoc creator/import/gnu/arm/5.4.1/bin/../lib/gcc/arm-none-eabi/5.4.1/armv7-m/crtbegin.o
 *(SORT(.fini_array.*))
                0x0000cffc                __fini_array_end = .
                0x0000cffc                . = ALIGN (0x4)
 *crtbegin.o(.ctors)
 *(EXCLUDE_FILE(*crtend.o) .ctors)
 *(SORT(.ctors.*))
 *crtend.o(.ctors)
                0x0000cffc                . = ALIGN (0x4)
 *crtbegin.o(.dtors)
 *(EXCLUDE_FILE(*crtend.o) .dtors)
 *(SORT(.dtors.*))
 *crtend.o(.dtors)
                0x0000cffc                . = ALIGN (0x4)
                0x0000cffc                __cy_regions = .
                0x0000cffc        0x4 LONG 0xd010 __cy_region_init_ram
                0x0000d000        0x4 LONG 0x1fff80c8 __cy_region_start_data
                0x0000d004        0x4 LONG 0xc8 __cy_region_init_size_ram
                0x0000d008        0x4 LONG 0x288 __cy_region_zero_size_ram
                0x0000d00c                __cy_regions_end = .
                0x0000d010                . = ALIGN (0x8)
 *fill*         0x0000d00c        0x4 
                0x0000d010                _etext = .

.cy_checksum_exclude
                0x0000d010        0x0
 *(.cy_checksum_exclude)

.ramvectors     0x1fff8000       0xc0
                0x1fff8000                __cy_region_start_ram = .
 *(.ramvectors)
 .ramvectors    0x1fff8000       0xc0 .\CortexM3\ARM_GCC_541\Debug\Cm3Start.o
                0x1fff8000                CyRamVectors

.noinit         0x1fff80c0        0x1
 *(.noinit)
 .noinit        0x1fff80c0        0x1 .\CortexM3\ARM_GCC_541\Debug\Half_Skeleton_V2_LED_ARRAY.a(CyLib.o)
                0x1fff80c0                CyResetStatus

.data           0x1fff80c8       0xc8 load address 0x0000d010
                0x1fff80c8                __cy_region_start_data = .
 *(.jcr)
 .jcr           0x1fff80c8        0x0 c:/program files (x86)/cypress/psoc creator/4.4/psoc creator/import/gnu/arm/5.4.1/bin/../lib/gcc/arm-none-eabi/5.4.1/armv7-m/crtbegin.o
 .jcr           0x1fff80c8        0x4 c:/program files (x86)/cypress/psoc creator/4.4/psoc creator/import/gnu/arm/5.4.1/bin/../lib/gcc/arm-none-eabi/5.4.1/armv7-m/crtend.o
 *(.got.plt)
 *(.got)
 *(.shdata)
 *(.data .data.* .gnu.linkonce.d.*)
 .data          0x1fff80cc        0x4 .\CortexM3\ARM_GCC_541\Debug\main.o
                0x1fff80cc                status_t
                0x1fff80cd                status_z
                0x1fff80ce                status_y
                0x1fff80cf                status_x
 .data          0x1fff80d0       0x29 .\CortexM3\ARM_GCC_541\Debug\AS76.o
                0x1fff80d0                gsv2_microns
                0x1fff80d4                PWM_Condenser_comare_value
                0x1fff80d8                Motor_Speed_X
                0x1fff80dc                Motor_Speed_Y
                0x1fff80e0                Motor_Speed_Z
                0x1fff80e4                HomeY_done
                0x1fff80e5                HomeX_done
                0x1fff80e6                HomeZ_done
                0x1fff80e7                HomeT_done
                0x1fff80e8                T_Pitchfactor
                0x1fff80ec                Z_Pitchfactor
                0x1fff80f0                Y_Pitchfactor
                0x1fff80f4                X_Pitchfactor
                0x1fff80f8                Time_Out_Error
 .data          0x1fff80f9        0x1 .\CortexM3\ARM_GCC_541\Debug\PCA9959.o
                0x1fff80f9                Op
 *fill*         0x1fff80fa        0x2 
 .data          0x1fff80fc        0x4 .\CortexM3\ARM_GCC_541\Debug\Cm3Start.o
 .data          0x1fff8100       0x10 .\CortexM3\ARM_GCC_541\Debug\Half_Skeleton_V2_LED_ARRAY.a(CyLib.o)
                0x1fff8100                cydelay_32k_ms
                0x1fff8104                cydelay_freq_khz
                0x1fff8108                cydelay_freq_mhz
                0x1fff810c                cydelay_freq_hz
 .data          0x1fff8110       0x1a .\CortexM3\ARM_GCC_541\Debug\Half_Skeleton_V2_LED_ARRAY.a(USB_cdc.o)
                0x1fff8110                USB_linesCoding
 .data.__fdlib_version
                0x1fff812a        0x1 c:/program files (x86)/cypress/psoc creator/4.4/psoc creator/import/gnu/arm/5.4.1/bin/../lib/gcc/arm-none-eabi/5.4.1/../../../../arm-none-eabi/lib/armv7-m\libm.a(lib_a-s_lib_ver.o)
                0x1fff812a                __fdlib_version
 *fill*         0x1fff812b        0x1 
 .data.impure_data
                0x1fff812c       0x60 c:/program files (x86)/cypress/psoc creator/4.4/psoc creator/import/gnu/arm/5.4.1/bin/../lib/gcc/arm-none-eabi/5.4.1/../../../../arm-none-eabi/lib/armv7-m\libg_nano.a(lib_a-impure.o)
 .data._impure_ptr
                0x1fff818c        0x4 c:/program files (x86)/cypress/psoc creator/4.4/psoc creator/import/gnu/arm/5.4.1/bin/../lib/gcc/arm-none-eabi/5.4.1/../../../../arm-none-eabi/lib/armv7-m\libg_nano.a(lib_a-impure.o)
                0x1fff818c                _impure_ptr
                0x1fff8190                . = ALIGN (0x8)
 *(.ram)
                0x1fff8190                _edata = .

.igot.plt       0x1fff8190        0x0 load address 0x0000d0d8
 .igot.plt      0x1fff8190        0x0 c:/program files (x86)/cypress/psoc creator/4.4/psoc creator/import/gnu/arm/5.4.1/bin/../lib/gcc/arm-none-eabi/5.4.1/armv7-m/crtbegin.o

.bss            0x1fff8190      0x288 load address 0x0000d0d8
                0x1fff8190                PROVIDE (__bss_start__, .)
 *(.shbss)
 *(.bss .bss.* .gnu.linkonce.b.*)
 .bss           0x1fff8190       0x1c c:/program files (x86)/cypress/psoc creator/4.4/psoc creator/import/gnu/arm/5.4.1/bin/../lib/gcc/arm-none-eabi/5.4.1/armv7-m/crtbegin.o
 .bss           0x1fff81ac       0x68 .\CortexM3\ARM_GCC_541\Debug\AS76.o
                0x1fff81ac                ms_count
                0x1fff81b0                exit_loop
                0x1fff81b4                X_QuadPosition
                0x1fff81b8                start_quad
                0x1fff81bc                capture_flag
                0x1fff81c0                Y_QuadPosition
                0x1fff81c4                EncoderTZSelect
                0x1fff81c8                Z_QuadPosition
                0x1fff81cc                T_QuadPosition
                0x1fff81d0                Buffer_Z_QuadPosition
                0x1fff81d4                Buffer_T_QuadPosition
                0x1fff81d8                print_flag
                0x1fff81dc                PWM_barcode_comare_value
                0x1fff81e0                Error
                0x1fff81e5                HomeX_done_Buffer
                0x1fff81e6                HomeY_done_Buffer
                0x1fff81e7                HomeZ_done_Buffer
                0x1fff81e8                HomeT_done_Buffer
                0x1fff81ec                Previous_X_Position
                0x1fff81f0                Previous_Y_Position
                0x1fff81f4                Previous_Z_Position
                0x1fff81f8                Position_X_Requested
                0x1fff81fc                Position_Y_Requested
                0x1fff8200                Position_Z_Requested
                0x1fff8204                Position_T_Requested
                0x1fff8208                time_ms
                0x1fff820c                oil_speed
                0x1fff8210                oil_dir
 .bss           0x1fff8214        0xc .\CortexM3\ARM_GCC_541\Debug\APA102.o
                0x1fff8214                BnB
                0x1fff8216                GnR
                0x1fff8218                STFB
                0x1fff821c                LedCnt
                0x1fff821d                MaxB
                0x1fff821e                B
                0x1fff821f                j
 .bss           0x1fff8220        0x8 .\CortexM3\ARM_GCC_541\Debug\PCA9959.o
                0x1fff8220                TX
                0x1fff8222                RegAddr
                0x1fff8223                Data
                0x1fff8224                PgSl
                0x1fff8226                RX
 .bss           0x1fff8228        0x1 .\CortexM3\ARM_GCC_541\Debug\Half_Skeleton_V2_LED_ARRAY.a(SPIM.o)
                0x1fff8228                SPIM_initVar
 .bss           0x1fff8229        0x1 .\CortexM3\ARM_GCC_541\Debug\Half_Skeleton_V2_LED_ARRAY.a(USB.o)
                0x1fff8229                USB_initVar
 .bss           0x1fff822a        0x1 .\CortexM3\ARM_GCC_541\Debug\Half_Skeleton_V2_LED_ARRAY.a(USB_cdc.o)
 *fill*         0x1fff822b        0x1 
 .bss           0x1fff822c        0x2 .\CortexM3\ARM_GCC_541\Debug\Half_Skeleton_V2_LED_ARRAY.a(USB_std.o)
 .bss           0x1fff822e        0x1 .\CortexM3\ARM_GCC_541\Debug\Half_Skeleton_V2_LED_ARRAY.a(PWM_CondenserLED.o)
                0x1fff822e                PWM_CondenserLED_initVar
 .bss           0x1fff822f        0x1 .\CortexM3\ARM_GCC_541\Debug\Half_Skeleton_V2_LED_ARRAY.a(QuadDec_X.o)
                0x1fff822f                QuadDec_X_initVar
 .bss           0x1fff8230        0x4 .\CortexM3\ARM_GCC_541\Debug\Half_Skeleton_V2_LED_ARRAY.a(QuadDec_X_INT.o)
                0x1fff8230                QuadDec_X_count32SoftPart
 .bss           0x1fff8234        0x1 .\CortexM3\ARM_GCC_541\Debug\Half_Skeleton_V2_LED_ARRAY.a(QuadDec_X_Cnt16.o)
                0x1fff8234                QuadDec_X_Cnt16_initVar
 .bss           0x1fff8235        0x7 .\CortexM3\ARM_GCC_541\Debug\Half_Skeleton_V2_LED_ARRAY.a(UART_PCB_LOG.o)
                0x1fff8235                UART_PCB_LOG_errorStatus
                0x1fff8236                UART_PCB_LOG_initVar
                0x1fff8237                UART_PCB_LOG_rxBufferRead
                0x1fff8238                UART_PCB_LOG_rxBufferWrite
                0x1fff8239                UART_PCB_LOG_rxBufferLoopDetect
                0x1fff823a                UART_PCB_LOG_rxBufferOverflow
 .bss           0x1fff823c        0x1 .\CortexM3\ARM_GCC_541\Debug\Half_Skeleton_V2_LED_ARRAY.a(QuadDec_TZ.o)
                0x1fff823c                QuadDec_TZ_initVar
 *fill*         0x1fff823d        0x3 
 .bss           0x1fff8240        0x4 .\CortexM3\ARM_GCC_541\Debug\Half_Skeleton_V2_LED_ARRAY.a(QuadDec_TZ_INT.o)
                0x1fff8240                QuadDec_TZ_count32SoftPart
 .bss           0x1fff8244        0x1 .\CortexM3\ARM_GCC_541\Debug\Half_Skeleton_V2_LED_ARRAY.a(PWM_Buzzer.o)
                0x1fff8244                PWM_Buzzer_initVar
 .bss           0x1fff8245        0x1 .\CortexM3\ARM_GCC_541\Debug\Half_Skeleton_V2_LED_ARRAY.a(QuadDec_Y.o)
                0x1fff8245                QuadDec_Y_initVar
 *fill*         0x1fff8246        0x2 
 .bss           0x1fff8248        0x4 .\CortexM3\ARM_GCC_541\Debug\Half_Skeleton_V2_LED_ARRAY.a(QuadDec_Y_INT.o)
                0x1fff8248                QuadDec_Y_count32SoftPart
 .bss           0x1fff824c        0x1 .\CortexM3\ARM_GCC_541\Debug\Half_Skeleton_V2_LED_ARRAY.a(PWM_BarcodeCondenser_LED.o)
                0x1fff824c                PWM_BarcodeCondenser_LED_initVar
 .bss           0x1fff824d        0x1 .\CortexM3\ARM_GCC_541\Debug\Half_Skeleton_V2_LED_ARRAY.a(QuadDec_TZ_Cnt16.o)
                0x1fff824d                QuadDec_TZ_Cnt16_initVar
 .bss           0x1fff824e        0x1 .\CortexM3\ARM_GCC_541\Debug\Half_Skeleton_V2_LED_ARRAY.a(QuadDec_Y_Cnt16.o)
                0x1fff824e                QuadDec_Y_Cnt16_initVar
 .bss           0x1fff824f        0x1 .\CortexM3\ARM_GCC_541\Debug\Half_Skeleton_V2_LED_ARRAY.a(wait_timer.o)
                0x1fff824f                wait_timer_initVar
 .bss.__malloc_sbrk_start
                0x1fff8250        0x4 c:/program files (x86)/cypress/psoc creator/4.4/psoc creator/import/gnu/arm/5.4.1/bin/../lib/gcc/arm-none-eabi/5.4.1/../../../../arm-none-eabi/lib/armv7-m\libg_nano.a(lib_a-nano-mallocr.o)
                0x1fff8250                __malloc_sbrk_start
 .bss.__malloc_free_list
                0x1fff8254        0x4 c:/program files (x86)/cypress/psoc creator/4.4/psoc creator/import/gnu/arm/5.4.1/bin/../lib/gcc/arm-none-eabi/5.4.1/../../../../arm-none-eabi/lib/armv7-m\libg_nano.a(lib_a-nano-mallocr.o)
                0x1fff8254                __malloc_free_list
 *(COMMON)
 COMMON         0x1fff8258       0x77 .\CortexM3\ARM_GCC_541\Debug\main.o
                0x1fff8258                Is_Slide_On_Gripper
                0x1fff825c                USB_received
                0x1fff829c                count
                0x1fff82a0                USB_transmit
 *fill*         0x1fff82cf        0x1 
 COMMON         0x1fff82d0        0x4 .\CortexM3\ARM_GCC_541\Debug\AS76.o
                0x1fff82d0                command
 COMMON         0x1fff82d4        0x7 .\CortexM3\ARM_GCC_541\Debug\APA102.o
                0x1fff82d4                SPI_RGB_DATA
                0x1fff82d8                i
                0x1fff82d9                G
                0x1fff82da                R
 *fill*         0x1fff82db        0x1 
 COMMON         0x1fff82dc       0x18 .\CortexM3\ARM_GCC_541\Debug\Half_Skeleton_V2_LED_ARRAY.a(SPIM.o)
                0x1fff82dc                SPIM_rxBufferFull
                0x1fff82e0                SPIM_txBuffer
                0x1fff82e5                SPIM_swStatusTx
                0x1fff82e8                SPIM_rxBuffer
                0x1fff82ee                SPIM_txBufferFull
                0x1fff82ef                SPIM_txBufferRead
                0x1fff82f0                SPIM_rxBufferWrite
                0x1fff82f1                SPIM_txBufferWrite
                0x1fff82f2                SPIM_rxBufferRead
                0x1fff82f3                SPIM_swStatusRx
 COMMON         0x1fff82f4       0x16 .\CortexM3\ARM_GCC_541\Debug\Half_Skeleton_V2_LED_ARRAY.a(USB_cdc.o)
                0x1fff82f4                USB_linesControlBitmap
                0x1fff82f8                USB_cdcCommInInterruptEp
                0x1fff82fc                USB_serialStateBitmap
                0x1fff8300                USB_cdcDataOutEp
                0x1fff8304                USB_cdcDataInEp
                0x1fff8308                USB_linesChanged
 *fill*         0x1fff830a        0x2 
 COMMON         0x1fff830c       0x98 .\CortexM3\ARM_GCC_541\Debug\Half_Skeleton_V2_LED_ARRAY.a(USB_drv.o)
                0x1fff830c                USB_transferState
                0x1fff830d                USB_interfaceNumber
                0x1fff830e                USB_lastPacketSize
                0x1fff8310                USB_interfaceClass
                0x1fff8314                USB_interfaceSetting
                0x1fff8316                USB_ep0Mode
                0x1fff8317                USB_device
                0x1fff8318                USB_deviceAddress
                0x1fff8319                USB_ep0Toggle
                0x1fff831c                USB_interfaceSettingLast
                0x1fff831e                USB_configurationChanged
                0x1fff8320                USB_interfaceStatus
                0x1fff8322                USB_transferByteCount
                0x1fff8324                USB_configuration
                0x1fff8328                USB_currentTD
                0x1fff8334                USB_ep0Count
                0x1fff8335                USB_deviceStatus
                0x1fff8338                USB_EP
 COMMON         0x1fff83a4        0xa .\CortexM3\ARM_GCC_541\Debug\Half_Skeleton_V2_LED_ARRAY.a(USB_hid.o)
                0x1fff83a4                USB_hidProtocol
                0x1fff83a8                USB_hidIdleRate
                0x1fff83ac                USB_hidIdleTimer
 *fill*         0x1fff83ae        0x2 
 COMMON         0x1fff83b0       0x40 .\CortexM3\ARM_GCC_541\Debug\Half_Skeleton_V2_LED_ARRAY.a(UART_PCB_LOG.o)
                0x1fff83b0                UART_PCB_LOG_rxBuffer
 COMMON         0x1fff83f0       0x22 .\CortexM3\ARM_GCC_541\Debug\Half_Skeleton_V2_LED_ARRAY.a(USB_descr.o)
                0x1fff83f0                USB_idSerialNumberStringDescriptor
 *fill*         0x1fff8412        0x2 
 COMMON         0x1fff8414        0x4 c:/program files (x86)/cypress/psoc creator/4.4/psoc creator/import/gnu/arm/5.4.1/bin/../lib/gcc/arm-none-eabi/5.4.1/../../../../arm-none-eabi/lib/armv7-m\libg_nano.a(lib_a-reent.o)
                0x1fff8414                errno
                0x1fff8418                . = ALIGN (0x8)
 *(.ram.b)
                0x1fff8418                _end = .
                0x1fff8418                __end = .
                0x1fff8418                PROVIDE (end, .)
                0x1fff8418                PROVIDE (__bss_end__, .)
                0x0000d010                __cy_region_init_ram = LOADADDR (.data)
                0x000000c8                __cy_region_init_size_ram = (_edata - ADDR (.data))
                0x00000288                __cy_region_zero_size_ram = (_end - _edata)

.heap           0x1fff8418       0x80 load address 0x0000d0d8
                0x1fff8418                . = _end
                0x1fff8498                . = (. + 0x80)
 *fill*         0x1fff8418       0x80 
                0x1fff8498                __cy_heap_limit = .

.stack          0x20007800      0x800
                0x20007800                __cy_stack_limit = .
                0x20008000                . = (. + 0x800)
 *fill*         0x20007800      0x800 
                0x00000001                ASSERT ((__cy_stack_limit >= __cy_heap_limit), region RAM overflowed with stack)
                0x00000000                cy_checksum_exclude_size = (CY_APPL_LOADABLE == 0x1)?SIZEOF (.cy_checksum_exclude):0x0
                0x00000001                ASSERT ((cy_checksum_exclude_size <= CY_CHECKSUM_EXCLUDE_SIZE), CY_BOOT: Section .cy_checksum_exclude size exceedes specified limit.)

.cyloadermeta
 *(.cyloadermeta)

.cyloadablemeta
 *(.cyloadablemeta)

.cyconfigecc
 *(.cyconfigecc)

.cycustnvl      0x90000000        0x4
 *(.cycustnvl)
 .cycustnvl     0x90000000        0x4 .\CortexM3\ARM_GCC_541\Debug\cymetadata.o
                0x90000000                cy_meta_custnvl

.cywolatch      0x90100000        0x4
 *(.cywolatch)
 .cywolatch     0x90100000        0x4 .\CortexM3\ARM_GCC_541\Debug\cymetadata.o
                0x90100000                cy_meta_wonvl

.cyeeprom       0x90200000        0x0
 *(.cyeeprom)
                0x00000001                ASSERT ((. <= ((0x90200000 + ee_offset) + ee_size)), .cyeeprom data will not fit in EEPROM)

.cyflashprotect
                0x90400000      0x100
 *(.cyflashprotect)
 .cyflashprotect
                0x90400000      0x100 .\CortexM3\ARM_GCC_541\Debug\cymetadata.o
                0x90400000                cy_meta_flashprotect

.cymeta         0x90500000        0xc
 *(.cymeta)
 .cymeta        0x90500000        0xc .\CortexM3\ARM_GCC_541\Debug\cymetadata.o
                0x90500000                cy_metadata

.rel.dyn        0x0000d0d8        0x0 load address 0x9050000c
 .rel.iplt      0x0000d0d8        0x0 c:/program files (x86)/cypress/psoc creator/4.4/psoc creator/import/gnu/arm/5.4.1/bin/../lib/gcc/arm-none-eabi/5.4.1/armv7-m/crtbegin.o

.stab
 *(.stab)

.stabstr
 *(.stabstr)

.debug
 *(.debug)

.line
 *(.line)

.debug_srcinfo
 *(.debug_srcinfo)

.debug_sfnames
 *(.debug_sfnames)

.debug_aranges  0x00000000     0x1b10
 *(.debug_aranges)
 .debug_aranges
                0x00000000       0x20 .\CortexM3\ARM_GCC_541\Debug\main.o
 .debug_aranges
                0x00000020      0x1e8 .\CortexM3\ARM_GCC_541\Debug\AS76.o
 .debug_aranges
                0x00000208       0x40 .\CortexM3\ARM_GCC_541\Debug\APA102.o
 .debug_aranges
                0x00000248       0xc0 .\CortexM3\ARM_GCC_541\Debug\PCA9959.o
 .debug_aranges
                0x00000308       0x60 .\CortexM3\ARM_GCC_541\Debug\cyfitter_cfg.o
 .debug_aranges
                0x00000368       0x18 .\CortexM3\ARM_GCC_541\Debug\cymetadata.o
 .debug_aranges
                0x00000380       0x48 .\CortexM3\ARM_GCC_541\Debug\Cm3Start.o
 .debug_aranges
                0x000003c8       0x38 .\CortexM3\ARM_GCC_541\Debug\Half_Skeleton_V2_LED_ARRAY.a(Pin_CSMotorX.o)
 .debug_aranges
                0x00000400       0x38 .\CortexM3\ARM_GCC_541\Debug\Half_Skeleton_V2_LED_ARRAY.a(Pin_CSMotorY.o)
 .debug_aranges
                0x00000438       0x38 .\CortexM3\ARM_GCC_541\Debug\Half_Skeleton_V2_LED_ARRAY.a(Pin_CSMotorZ.o)
 .debug_aranges
                0x00000470       0xd8 .\CortexM3\ARM_GCC_541\Debug\Half_Skeleton_V2_LED_ARRAY.a(SPIM.o)
 .debug_aranges
                0x00000548       0x28 .\CortexM3\ARM_GCC_541\Debug\Half_Skeleton_V2_LED_ARRAY.a(SPIM_INT.o)
 .debug_aranges
                0x00000570      0x2a0 .\CortexM3\ARM_GCC_541\Debug\Half_Skeleton_V2_LED_ARRAY.a(CyLib.o)
 .debug_aranges
                0x00000810       0x98 .\CortexM3\ARM_GCC_541\Debug\Half_Skeleton_V2_LED_ARRAY.a(cyPm.o)
 .debug_aranges
                0x000008a8       0xc8 .\CortexM3\ARM_GCC_541\Debug\Half_Skeleton_V2_LED_ARRAY.a(USB.o)
 .debug_aranges
                0x00000970       0xe8 .\CortexM3\ARM_GCC_541\Debug\Half_Skeleton_V2_LED_ARRAY.a(USB_cdc.o)
 .debug_aranges
                0x00000a58       0x98 .\CortexM3\ARM_GCC_541\Debug\Half_Skeleton_V2_LED_ARRAY.a(USB_drv.o)
 .debug_aranges
                0x00000af0       0x40 .\CortexM3\ARM_GCC_541\Debug\Half_Skeleton_V2_LED_ARRAY.a(USB_episr.o)
 .debug_aranges
                0x00000b30       0x48 .\CortexM3\ARM_GCC_541\Debug\Half_Skeleton_V2_LED_ARRAY.a(USB_hid.o)
 .debug_aranges
                0x00000b78       0x40 .\CortexM3\ARM_GCC_541\Debug\Half_Skeleton_V2_LED_ARRAY.a(USB_pm.o)
 .debug_aranges
                0x00000bb8       0x80 .\CortexM3\ARM_GCC_541\Debug\Half_Skeleton_V2_LED_ARRAY.a(USB_std.o)
 .debug_aranges
                0x00000c38       0x20 .\CortexM3\ARM_GCC_541\Debug\Half_Skeleton_V2_LED_ARRAY.a(USB_vnd.o)
 .debug_aranges
                0x00000c58       0x48 .\CortexM3\ARM_GCC_541\Debug\Half_Skeleton_V2_LED_ARRAY.a(USB_Dp.o)
 .debug_aranges
                0x00000ca0       0x78 .\CortexM3\ARM_GCC_541\Debug\Half_Skeleton_V2_LED_ARRAY.a(PWM_CondenserLED.o)
 .debug_aranges
                0x00000d18       0x70 .\CortexM3\ARM_GCC_541\Debug\Half_Skeleton_V2_LED_ARRAY.a(SPIM_IntClock.o)
 .debug_aranges
                0x00000d88       0x60 .\CortexM3\ARM_GCC_541\Debug\Half_Skeleton_V2_LED_ARRAY.a(QuadDec_X.o)
 .debug_aranges
                0x00000de8       0x20 .\CortexM3\ARM_GCC_541\Debug\Half_Skeleton_V2_LED_ARRAY.a(QuadDec_X_INT.o)
 .debug_aranges
                0x00000e08       0x98 .\CortexM3\ARM_GCC_541\Debug\Half_Skeleton_V2_LED_ARRAY.a(QuadDec_X_Cnt16.o)
 .debug_aranges
                0x00000ea0       0xf0 .\CortexM3\ARM_GCC_541\Debug\Half_Skeleton_V2_LED_ARRAY.a(UART_PCB_LOG.o)
 .debug_aranges
                0x00000f90       0x20 .\CortexM3\ARM_GCC_541\Debug\Half_Skeleton_V2_LED_ARRAY.a(UART_PCB_LOG_INT.o)
 .debug_aranges
                0x00000fb0       0x70 .\CortexM3\ARM_GCC_541\Debug\Half_Skeleton_V2_LED_ARRAY.a(UART_PCB_LOG_IntClock.o)
 .debug_aranges
                0x00001020       0x38 .\CortexM3\ARM_GCC_541\Debug\Half_Skeleton_V2_LED_ARRAY.a(Pin_Backlight.o)
 .debug_aranges
                0x00001058       0x38 .\CortexM3\ARM_GCC_541\Debug\Half_Skeleton_V2_LED_ARRAY.a(LED2.o)
 .debug_aranges
                0x00001090       0x38 .\CortexM3\ARM_GCC_541\Debug\Half_Skeleton_V2_LED_ARRAY.a(Pin_CSMotorO.o)
 .debug_aranges
                0x000010c8       0x38 .\CortexM3\ARM_GCC_541\Debug\Half_Skeleton_V2_LED_ARRAY.a(Pin_CSMotorT.o)
 .debug_aranges
                0x00001100       0x60 .\CortexM3\ARM_GCC_541\Debug\Half_Skeleton_V2_LED_ARRAY.a(QuadDec_TZ.o)
 .debug_aranges
                0x00001160       0x20 .\CortexM3\ARM_GCC_541\Debug\Half_Skeleton_V2_LED_ARRAY.a(QuadDec_TZ_INT.o)
 .debug_aranges
                0x00001180       0x78 .\CortexM3\ARM_GCC_541\Debug\Half_Skeleton_V2_LED_ARRAY.a(PWM_Buzzer.o)
 .debug_aranges
                0x000011f8       0x60 .\CortexM3\ARM_GCC_541\Debug\Half_Skeleton_V2_LED_ARRAY.a(QuadDec_Y.o)
 .debug_aranges
                0x00001258       0x20 .\CortexM3\ARM_GCC_541\Debug\Half_Skeleton_V2_LED_ARRAY.a(QuadDec_Y_INT.o)
 .debug_aranges
                0x00001278       0x78 .\CortexM3\ARM_GCC_541\Debug\Half_Skeleton_V2_LED_ARRAY.a(PWM_BarcodeCondenser_LED.o)
 .debug_aranges
                0x000012f0       0x38 .\CortexM3\ARM_GCC_541\Debug\Half_Skeleton_V2_LED_ARRAY.a(LED3.o)
 .debug_aranges
                0x00001328       0x28 .\CortexM3\ARM_GCC_541\Debug\Half_Skeleton_V2_LED_ARRAY.a(Encoder_T_Z_Select.o)
 .debug_aranges
                0x00001350       0x38 .\CortexM3\ARM_GCC_541\Debug\Half_Skeleton_V2_LED_ARRAY.a(TMC5160_MotorX_EN.o)
 .debug_aranges
                0x00001388       0x38 .\CortexM3\ARM_GCC_541\Debug\Half_Skeleton_V2_LED_ARRAY.a(TMC5160_MotorY_EN.o)
 .debug_aranges
                0x000013c0       0x38 .\CortexM3\ARM_GCC_541\Debug\Half_Skeleton_V2_LED_ARRAY.a(TMC5160_MotorZ_EN.o)
 .debug_aranges
                0x000013f8       0x38 .\CortexM3\ARM_GCC_541\Debug\Half_Skeleton_V2_LED_ARRAY.a(TMC5160_MotorT_EN.o)
 .debug_aranges
                0x00001430       0x38 .\CortexM3\ARM_GCC_541\Debug\Half_Skeleton_V2_LED_ARRAY.a(TMC5160_MotorO_EN.o)
 .debug_aranges
                0x00001468       0x98 .\CortexM3\ARM_GCC_541\Debug\Half_Skeleton_V2_LED_ARRAY.a(QuadDec_TZ_Cnt16.o)
 .debug_aranges
                0x00001500       0x98 .\CortexM3\ARM_GCC_541\Debug\Half_Skeleton_V2_LED_ARRAY.a(QuadDec_Y_Cnt16.o)
 .debug_aranges
                0x00001598       0x88 .\CortexM3\ARM_GCC_541\Debug\Half_Skeleton_V2_LED_ARRAY.a(wait_timer.o)
 .debug_aranges
                0x00001620       0x80 .\CortexM3\ARM_GCC_541\Debug\Half_Skeleton_V2_LED_ARRAY.a(wait_interrupt.o)
 .debug_aranges
                0x000016a0       0x38 .\CortexM3\ARM_GCC_541\Debug\Half_Skeleton_V2_LED_ARRAY.a(X_MOT_INT.o)
 .debug_aranges
                0x000016d8       0x38 .\CortexM3\ARM_GCC_541\Debug\Half_Skeleton_V2_LED_ARRAY.a(Y_MOT_INT.o)
 .debug_aranges
                0x00001710       0x38 .\CortexM3\ARM_GCC_541\Debug\Half_Skeleton_V2_LED_ARRAY.a(Z_MOT_INT.o)
 .debug_aranges
                0x00001748       0x38 .\CortexM3\ARM_GCC_541\Debug\Half_Skeleton_V2_LED_ARRAY.a(Camera_Trigger.o)
 .debug_aranges
                0x00001780       0x38 .\CortexM3\ARM_GCC_541\Debug\Half_Skeleton_V2_LED_ARRAY.a(Pin_SDI_RGB.o)
 .debug_aranges
                0x000017b8       0x38 .\CortexM3\ARM_GCC_541\Debug\Half_Skeleton_V2_LED_ARRAY.a(Pin_Clock_RGB.o)
 .debug_aranges
                0x000017f0       0x38 .\CortexM3\ARM_GCC_541\Debug\Half_Skeleton_V2_LED_ARRAY.a(Pin_MOSI_PCA9959.o)
 .debug_aranges
                0x00001828       0x38 .\CortexM3\ARM_GCC_541\Debug\Half_Skeleton_V2_LED_ARRAY.a(Pin_SCK_PCA9959.o)
 .debug_aranges
                0x00001860       0x38 .\CortexM3\ARM_GCC_541\Debug\Half_Skeleton_V2_LED_ARRAY.a(Pin_SS_PCA9959.o)
 .debug_aranges
                0x00001898       0x38 .\CortexM3\ARM_GCC_541\Debug\Half_Skeleton_V2_LED_ARRAY.a(Pin_OE_PCA9959_1.o)
 .debug_aranges
                0x000018d0       0x38 .\CortexM3\ARM_GCC_541\Debug\Half_Skeleton_V2_LED_ARRAY.a(Pin_OE_PCA9959_2.o)
 .debug_aranges
                0x00001908       0x38 .\CortexM3\ARM_GCC_541\Debug\Half_Skeleton_V2_LED_ARRAY.a(Pin_OE_PCA9959_3.o)
 .debug_aranges
                0x00001940       0x38 .\CortexM3\ARM_GCC_541\Debug\Half_Skeleton_V2_LED_ARRAY.a(Pin_OE_PCA9959_4.o)
 .debug_aranges
                0x00001978       0x38 .\CortexM3\ARM_GCC_541\Debug\Half_Skeleton_V2_LED_ARRAY.a(Pin_RST_PCA9959.o)
 .debug_aranges
                0x000019b0       0x20 .\CortexM3\ARM_GCC_541\Debug\Half_Skeleton_V2_LED_ARRAY.a(CyBootAsmGnu.o)
 .debug_aranges
                0x000019d0       0x88 .\CortexM3\ARM_GCC_541\Debug\Half_Skeleton_V2_LED_ARRAY.a(CyFlash.o)
 .debug_aranges
                0x00001a58       0x80 .\CortexM3\ARM_GCC_541\Debug\Half_Skeleton_V2_LED_ARRAY.a(CySpc.o)
 .debug_aranges
                0x00001ad8       0x20 .\CortexM3\ARM_GCC_541\Debug\Half_Skeleton_V2_LED_ARRAY.a(USB_cls.o)
 .debug_aranges
                0x00001af8       0x18 .\CortexM3\ARM_GCC_541\Debug\Half_Skeleton_V2_LED_ARRAY.a(USB_descr.o)

.debug_pubnames
 *(.debug_pubnames)

.debug_info     0x00000000    0x1981a
 *(.debug_info .gnu.linkonce.wi.*)
 .debug_info    0x00000000      0x5c1 .\CortexM3\ARM_GCC_541\Debug\main.o
 .debug_info    0x000005c1     0x5fc6 .\CortexM3\ARM_GCC_541\Debug\AS76.o
 .debug_info    0x00006587      0xb1f .\CortexM3\ARM_GCC_541\Debug\APA102.o
 .debug_info    0x000070a6     0x5ffa .\CortexM3\ARM_GCC_541\Debug\PCA9959.o
 .debug_info    0x0000d0a0      0x839 .\CortexM3\ARM_GCC_541\Debug\cyfitter_cfg.o
 .debug_info    0x0000d8d9      0x10e .\CortexM3\ARM_GCC_541\Debug\cymetadata.o
 .debug_info    0x0000d9e7      0x3bb .\CortexM3\ARM_GCC_541\Debug\Cm3Start.o
 .debug_info    0x0000dda2      0x11f .\CortexM3\ARM_GCC_541\Debug\Half_Skeleton_V2_LED_ARRAY.a(Pin_CSMotorX.o)
 .debug_info    0x0000dec1      0x11f .\CortexM3\ARM_GCC_541\Debug\Half_Skeleton_V2_LED_ARRAY.a(Pin_CSMotorY.o)
 .debug_info    0x0000dfe0      0x11f .\CortexM3\ARM_GCC_541\Debug\Half_Skeleton_V2_LED_ARRAY.a(Pin_CSMotorZ.o)
 .debug_info    0x0000e0ff      0x719 .\CortexM3\ARM_GCC_541\Debug\Half_Skeleton_V2_LED_ARRAY.a(SPIM.o)
 .debug_info    0x0000e818      0x19d .\CortexM3\ARM_GCC_541\Debug\Half_Skeleton_V2_LED_ARRAY.a(SPIM_INT.o)
 .debug_info    0x0000e9b5     0x1374 .\CortexM3\ARM_GCC_541\Debug\Half_Skeleton_V2_LED_ARRAY.a(CyLib.o)
 .debug_info    0x0000fd29      0xa2a .\CortexM3\ARM_GCC_541\Debug\Half_Skeleton_V2_LED_ARRAY.a(cyPm.o)
 .debug_info    0x00010753      0x9c1 .\CortexM3\ARM_GCC_541\Debug\Half_Skeleton_V2_LED_ARRAY.a(USB.o)
 .debug_info    0x00011114      0xaf7 .\CortexM3\ARM_GCC_541\Debug\Half_Skeleton_V2_LED_ARRAY.a(USB_cdc.o)
 .debug_info    0x00011c0b      0x655 .\CortexM3\ARM_GCC_541\Debug\Half_Skeleton_V2_LED_ARRAY.a(USB_drv.o)
 .debug_info    0x00012260      0x254 .\CortexM3\ARM_GCC_541\Debug\Half_Skeleton_V2_LED_ARRAY.a(USB_episr.o)
 .debug_info    0x000124b4      0x43b .\CortexM3\ARM_GCC_541\Debug\Half_Skeleton_V2_LED_ARRAY.a(USB_hid.o)
 .debug_info    0x000128ef      0x2e4 .\CortexM3\ARM_GCC_541\Debug\Half_Skeleton_V2_LED_ARRAY.a(USB_pm.o)
 .debug_info    0x00012bd3      0xb36 .\CortexM3\ARM_GCC_541\Debug\Half_Skeleton_V2_LED_ARRAY.a(USB_std.o)
 .debug_info    0x00013709      0x1be .\CortexM3\ARM_GCC_541\Debug\Half_Skeleton_V2_LED_ARRAY.a(USB_vnd.o)
 .debug_info    0x000138c7      0x174 .\CortexM3\ARM_GCC_541\Debug\Half_Skeleton_V2_LED_ARRAY.a(USB_Dp.o)
 .debug_info    0x00013a3b      0x27e .\CortexM3\ARM_GCC_541\Debug\Half_Skeleton_V2_LED_ARRAY.a(PWM_CondenserLED.o)
 .debug_info    0x00013cb9      0x283 .\CortexM3\ARM_GCC_541\Debug\Half_Skeleton_V2_LED_ARRAY.a(SPIM_IntClock.o)
 .debug_info    0x00013f3c      0x357 .\CortexM3\ARM_GCC_541\Debug\Half_Skeleton_V2_LED_ARRAY.a(QuadDec_X.o)
 .debug_info    0x00014293       0xf3 .\CortexM3\ARM_GCC_541\Debug\Half_Skeleton_V2_LED_ARRAY.a(QuadDec_X_INT.o)
 .debug_info    0x00014386      0x348 .\CortexM3\ARM_GCC_541\Debug\Half_Skeleton_V2_LED_ARRAY.a(QuadDec_X_Cnt16.o)
 .debug_info    0x000146ce      0x72d .\CortexM3\ARM_GCC_541\Debug\Half_Skeleton_V2_LED_ARRAY.a(UART_PCB_LOG.o)
 .debug_info    0x00014dfb      0x14c .\CortexM3\ARM_GCC_541\Debug\Half_Skeleton_V2_LED_ARRAY.a(UART_PCB_LOG_INT.o)
 .debug_info    0x00014f47      0x283 .\CortexM3\ARM_GCC_541\Debug\Half_Skeleton_V2_LED_ARRAY.a(UART_PCB_LOG_IntClock.o)
 .debug_info    0x000151ca      0x11f .\CortexM3\ARM_GCC_541\Debug\Half_Skeleton_V2_LED_ARRAY.a(Pin_Backlight.o)
 .debug_info    0x000152e9      0x11f .\CortexM3\ARM_GCC_541\Debug\Half_Skeleton_V2_LED_ARRAY.a(LED2.o)
 .debug_info    0x00015408      0x11f .\CortexM3\ARM_GCC_541\Debug\Half_Skeleton_V2_LED_ARRAY.a(Pin_CSMotorO.o)
 .debug_info    0x00015527      0x11f .\CortexM3\ARM_GCC_541\Debug\Half_Skeleton_V2_LED_ARRAY.a(Pin_CSMotorT.o)
 .debug_info    0x00015646      0x357 .\CortexM3\ARM_GCC_541\Debug\Half_Skeleton_V2_LED_ARRAY.a(QuadDec_TZ.o)
 .debug_info    0x0001599d       0xf3 .\CortexM3\ARM_GCC_541\Debug\Half_Skeleton_V2_LED_ARRAY.a(QuadDec_TZ_INT.o)
 .debug_info    0x00015a90      0x27f .\CortexM3\ARM_GCC_541\Debug\Half_Skeleton_V2_LED_ARRAY.a(PWM_Buzzer.o)
 .debug_info    0x00015d0f      0x357 .\CortexM3\ARM_GCC_541\Debug\Half_Skeleton_V2_LED_ARRAY.a(QuadDec_Y.o)
 .debug_info    0x00016066       0xf3 .\CortexM3\ARM_GCC_541\Debug\Half_Skeleton_V2_LED_ARRAY.a(QuadDec_Y_INT.o)
 .debug_info    0x00016159      0x27e .\CortexM3\ARM_GCC_541\Debug\Half_Skeleton_V2_LED_ARRAY.a(PWM_BarcodeCondenser_LED.o)
 .debug_info    0x000163d7      0x11f .\CortexM3\ARM_GCC_541\Debug\Half_Skeleton_V2_LED_ARRAY.a(LED3.o)
 .debug_info    0x000164f6       0xd6 .\CortexM3\ARM_GCC_541\Debug\Half_Skeleton_V2_LED_ARRAY.a(Encoder_T_Z_Select.o)
 .debug_info    0x000165cc      0x11f .\CortexM3\ARM_GCC_541\Debug\Half_Skeleton_V2_LED_ARRAY.a(TMC5160_MotorX_EN.o)
 .debug_info    0x000166eb      0x11f .\CortexM3\ARM_GCC_541\Debug\Half_Skeleton_V2_LED_ARRAY.a(TMC5160_MotorY_EN.o)
 .debug_info    0x0001680a      0x11f .\CortexM3\ARM_GCC_541\Debug\Half_Skeleton_V2_LED_ARRAY.a(TMC5160_MotorZ_EN.o)
 .debug_info    0x00016929      0x11f .\CortexM3\ARM_GCC_541\Debug\Half_Skeleton_V2_LED_ARRAY.a(TMC5160_MotorT_EN.o)
 .debug_info    0x00016a48      0x11f .\CortexM3\ARM_GCC_541\Debug\Half_Skeleton_V2_LED_ARRAY.a(TMC5160_MotorO_EN.o)
 .debug_info    0x00016b67      0x348 .\CortexM3\ARM_GCC_541\Debug\Half_Skeleton_V2_LED_ARRAY.a(QuadDec_TZ_Cnt16.o)
 .debug_info    0x00016eaf      0x348 .\CortexM3\ARM_GCC_541\Debug\Half_Skeleton_V2_LED_ARRAY.a(QuadDec_Y_Cnt16.o)
 .debug_info    0x000171f7      0x295 .\CortexM3\ARM_GCC_541\Debug\Half_Skeleton_V2_LED_ARRAY.a(wait_timer.o)
 .debug_info    0x0001748c      0x2d2 .\CortexM3\ARM_GCC_541\Debug\Half_Skeleton_V2_LED_ARRAY.a(wait_interrupt.o)
 .debug_info    0x0001775e      0x11f .\CortexM3\ARM_GCC_541\Debug\Half_Skeleton_V2_LED_ARRAY.a(X_MOT_INT.o)
 .debug_info    0x0001787d      0x11f .\CortexM3\ARM_GCC_541\Debug\Half_Skeleton_V2_LED_ARRAY.a(Y_MOT_INT.o)
 .debug_info    0x0001799c      0x11f .\CortexM3\ARM_GCC_541\Debug\Half_Skeleton_V2_LED_ARRAY.a(Z_MOT_INT.o)
 .debug_info    0x00017abb      0x11f .\CortexM3\ARM_GCC_541\Debug\Half_Skeleton_V2_LED_ARRAY.a(Camera_Trigger.o)
 .debug_info    0x00017bda      0x11f .\CortexM3\ARM_GCC_541\Debug\Half_Skeleton_V2_LED_ARRAY.a(Pin_SDI_RGB.o)
 .debug_info    0x00017cf9      0x11f .\CortexM3\ARM_GCC_541\Debug\Half_Skeleton_V2_LED_ARRAY.a(Pin_Clock_RGB.o)
 .debug_info    0x00017e18      0x11f .\CortexM3\ARM_GCC_541\Debug\Half_Skeleton_V2_LED_ARRAY.a(Pin_MOSI_PCA9959.o)
 .debug_info    0x00017f37      0x11f .\CortexM3\ARM_GCC_541\Debug\Half_Skeleton_V2_LED_ARRAY.a(Pin_SCK_PCA9959.o)
 .debug_info    0x00018056      0x11f .\CortexM3\ARM_GCC_541\Debug\Half_Skeleton_V2_LED_ARRAY.a(Pin_SS_PCA9959.o)
 .debug_info    0x00018175      0x11f .\CortexM3\ARM_GCC_541\Debug\Half_Skeleton_V2_LED_ARRAY.a(Pin_OE_PCA9959_1.o)
 .debug_info    0x00018294      0x11f .\CortexM3\ARM_GCC_541\Debug\Half_Skeleton_V2_LED_ARRAY.a(Pin_OE_PCA9959_2.o)
 .debug_info    0x000183b3      0x11f .\CortexM3\ARM_GCC_541\Debug\Half_Skeleton_V2_LED_ARRAY.a(Pin_OE_PCA9959_3.o)
 .debug_info    0x000184d2      0x11f .\CortexM3\ARM_GCC_541\Debug\Half_Skeleton_V2_LED_ARRAY.a(Pin_OE_PCA9959_4.o)
 .debug_info    0x000185f1      0x11f .\CortexM3\ARM_GCC_541\Debug\Half_Skeleton_V2_LED_ARRAY.a(Pin_RST_PCA9959.o)
 .debug_info    0x00018710       0xa3 .\CortexM3\ARM_GCC_541\Debug\Half_Skeleton_V2_LED_ARRAY.a(CyBootAsmGnu.o)
 .debug_info    0x000187b3      0x62d .\CortexM3\ARM_GCC_541\Debug\Half_Skeleton_V2_LED_ARRAY.a(CyFlash.o)
 .debug_info    0x00018de0      0x53c .\CortexM3\ARM_GCC_541\Debug\Half_Skeleton_V2_LED_ARRAY.a(CySpc.o)
 .debug_info    0x0001931c      0x1f2 .\CortexM3\ARM_GCC_541\Debug\Half_Skeleton_V2_LED_ARRAY.a(USB_cls.o)
 .debug_info    0x0001950e      0x30c .\CortexM3\ARM_GCC_541\Debug\Half_Skeleton_V2_LED_ARRAY.a(USB_descr.o)

.debug_abbrev   0x00000000     0x44ae
 *(.debug_abbrev)
 .debug_abbrev  0x00000000       0xde .\CortexM3\ARM_GCC_541\Debug\main.o
 .debug_abbrev  0x000000de      0x2d5 .\CortexM3\ARM_GCC_541\Debug\AS76.o
 .debug_abbrev  0x000003b3      0x140 .\CortexM3\ARM_GCC_541\Debug\APA102.o
 .debug_abbrev  0x000004f3      0x14c .\CortexM3\ARM_GCC_541\Debug\PCA9959.o
 .debug_abbrev  0x0000063f      0x216 .\CortexM3\ARM_GCC_541\Debug\cyfitter_cfg.o
 .debug_abbrev  0x00000855       0x5d .\CortexM3\ARM_GCC_541\Debug\cymetadata.o
 .debug_abbrev  0x000008b2      0x1e8 .\CortexM3\ARM_GCC_541\Debug\Cm3Start.o
 .debug_abbrev  0x00000a9a       0x90 .\CortexM3\ARM_GCC_541\Debug\Half_Skeleton_V2_LED_ARRAY.a(Pin_CSMotorX.o)
 .debug_abbrev  0x00000b2a       0x90 .\CortexM3\ARM_GCC_541\Debug\Half_Skeleton_V2_LED_ARRAY.a(Pin_CSMotorY.o)
 .debug_abbrev  0x00000bba       0x90 .\CortexM3\ARM_GCC_541\Debug\Half_Skeleton_V2_LED_ARRAY.a(Pin_CSMotorZ.o)
 .debug_abbrev  0x00000c4a      0x162 .\CortexM3\ARM_GCC_541\Debug\Half_Skeleton_V2_LED_ARRAY.a(SPIM.o)
 .debug_abbrev  0x00000dac       0x8a .\CortexM3\ARM_GCC_541\Debug\Half_Skeleton_V2_LED_ARRAY.a(SPIM_INT.o)
 .debug_abbrev  0x00000e36      0x254 .\CortexM3\ARM_GCC_541\Debug\Half_Skeleton_V2_LED_ARRAY.a(CyLib.o)
 .debug_abbrev  0x0000108a      0x1ab .\CortexM3\ARM_GCC_541\Debug\Half_Skeleton_V2_LED_ARRAY.a(cyPm.o)
 .debug_abbrev  0x00001235      0x215 .\CortexM3\ARM_GCC_541\Debug\Half_Skeleton_V2_LED_ARRAY.a(USB.o)
 .debug_abbrev  0x0000144a      0x245 .\CortexM3\ARM_GCC_541\Debug\Half_Skeleton_V2_LED_ARRAY.a(USB_cdc.o)
 .debug_abbrev  0x0000168f      0x189 .\CortexM3\ARM_GCC_541\Debug\Half_Skeleton_V2_LED_ARRAY.a(USB_drv.o)
 .debug_abbrev  0x00001818      0x11b .\CortexM3\ARM_GCC_541\Debug\Half_Skeleton_V2_LED_ARRAY.a(USB_episr.o)
 .debug_abbrev  0x00001933      0x16d .\CortexM3\ARM_GCC_541\Debug\Half_Skeleton_V2_LED_ARRAY.a(USB_hid.o)
 .debug_abbrev  0x00001aa0      0x108 .\CortexM3\ARM_GCC_541\Debug\Half_Skeleton_V2_LED_ARRAY.a(USB_pm.o)
 .debug_abbrev  0x00001ba8      0x20a .\CortexM3\ARM_GCC_541\Debug\Half_Skeleton_V2_LED_ARRAY.a(USB_std.o)
 .debug_abbrev  0x00001db2       0xe1 .\CortexM3\ARM_GCC_541\Debug\Half_Skeleton_V2_LED_ARRAY.a(USB_vnd.o)
 .debug_abbrev  0x00001e93       0x90 .\CortexM3\ARM_GCC_541\Debug\Half_Skeleton_V2_LED_ARRAY.a(USB_Dp.o)
 .debug_abbrev  0x00001f23      0x12d .\CortexM3\ARM_GCC_541\Debug\Half_Skeleton_V2_LED_ARRAY.a(PWM_CondenserLED.o)
 .debug_abbrev  0x00002050      0x139 .\CortexM3\ARM_GCC_541\Debug\Half_Skeleton_V2_LED_ARRAY.a(SPIM_IntClock.o)
 .debug_abbrev  0x00002189      0x128 .\CortexM3\ARM_GCC_541\Debug\Half_Skeleton_V2_LED_ARRAY.a(QuadDec_X.o)
 .debug_abbrev  0x000022b1       0x78 .\CortexM3\ARM_GCC_541\Debug\Half_Skeleton_V2_LED_ARRAY.a(QuadDec_X_INT.o)
 .debug_abbrev  0x00002329      0x117 .\CortexM3\ARM_GCC_541\Debug\Half_Skeleton_V2_LED_ARRAY.a(QuadDec_X_Cnt16.o)
 .debug_abbrev  0x00002440      0x16f .\CortexM3\ARM_GCC_541\Debug\Half_Skeleton_V2_LED_ARRAY.a(UART_PCB_LOG.o)
 .debug_abbrev  0x000025af       0x8a .\CortexM3\ARM_GCC_541\Debug\Half_Skeleton_V2_LED_ARRAY.a(UART_PCB_LOG_INT.o)
 .debug_abbrev  0x00002639      0x139 .\CortexM3\ARM_GCC_541\Debug\Half_Skeleton_V2_LED_ARRAY.a(UART_PCB_LOG_IntClock.o)
 .debug_abbrev  0x00002772       0x90 .\CortexM3\ARM_GCC_541\Debug\Half_Skeleton_V2_LED_ARRAY.a(Pin_Backlight.o)
 .debug_abbrev  0x00002802       0x90 .\CortexM3\ARM_GCC_541\Debug\Half_Skeleton_V2_LED_ARRAY.a(LED2.o)
 .debug_abbrev  0x00002892       0x90 .\CortexM3\ARM_GCC_541\Debug\Half_Skeleton_V2_LED_ARRAY.a(Pin_CSMotorO.o)
 .debug_abbrev  0x00002922       0x90 .\CortexM3\ARM_GCC_541\Debug\Half_Skeleton_V2_LED_ARRAY.a(Pin_CSMotorT.o)
 .debug_abbrev  0x000029b2      0x128 .\CortexM3\ARM_GCC_541\Debug\Half_Skeleton_V2_LED_ARRAY.a(QuadDec_TZ.o)
 .debug_abbrev  0x00002ada       0x78 .\CortexM3\ARM_GCC_541\Debug\Half_Skeleton_V2_LED_ARRAY.a(QuadDec_TZ_INT.o)
 .debug_abbrev  0x00002b52      0x12d .\CortexM3\ARM_GCC_541\Debug\Half_Skeleton_V2_LED_ARRAY.a(PWM_Buzzer.o)
 .debug_abbrev  0x00002c7f      0x128 .\CortexM3\ARM_GCC_541\Debug\Half_Skeleton_V2_LED_ARRAY.a(QuadDec_Y.o)
 .debug_abbrev  0x00002da7       0x78 .\CortexM3\ARM_GCC_541\Debug\Half_Skeleton_V2_LED_ARRAY.a(QuadDec_Y_INT.o)
 .debug_abbrev  0x00002e1f      0x12d .\CortexM3\ARM_GCC_541\Debug\Half_Skeleton_V2_LED_ARRAY.a(PWM_BarcodeCondenser_LED.o)
 .debug_abbrev  0x00002f4c       0x90 .\CortexM3\ARM_GCC_541\Debug\Half_Skeleton_V2_LED_ARRAY.a(LED3.o)
 .debug_abbrev  0x00002fdc       0x81 .\CortexM3\ARM_GCC_541\Debug\Half_Skeleton_V2_LED_ARRAY.a(Encoder_T_Z_Select.o)
 .debug_abbrev  0x0000305d       0x90 .\CortexM3\ARM_GCC_541\Debug\Half_Skeleton_V2_LED_ARRAY.a(TMC5160_MotorX_EN.o)
 .debug_abbrev  0x000030ed       0x90 .\CortexM3\ARM_GCC_541\Debug\Half_Skeleton_V2_LED_ARRAY.a(TMC5160_MotorY_EN.o)
 .debug_abbrev  0x0000317d       0x90 .\CortexM3\ARM_GCC_541\Debug\Half_Skeleton_V2_LED_ARRAY.a(TMC5160_MotorZ_EN.o)
 .debug_abbrev  0x0000320d       0x90 .\CortexM3\ARM_GCC_541\Debug\Half_Skeleton_V2_LED_ARRAY.a(TMC5160_MotorT_EN.o)
 .debug_abbrev  0x0000329d       0x90 .\CortexM3\ARM_GCC_541\Debug\Half_Skeleton_V2_LED_ARRAY.a(TMC5160_MotorO_EN.o)
 .debug_abbrev  0x0000332d      0x117 .\CortexM3\ARM_GCC_541\Debug\Half_Skeleton_V2_LED_ARRAY.a(QuadDec_TZ_Cnt16.o)
 .debug_abbrev  0x00003444      0x117 .\CortexM3\ARM_GCC_541\Debug\Half_Skeleton_V2_LED_ARRAY.a(QuadDec_Y_Cnt16.o)
 .debug_abbrev  0x0000355b      0x11a .\CortexM3\ARM_GCC_541\Debug\Half_Skeleton_V2_LED_ARRAY.a(wait_timer.o)
 .debug_abbrev  0x00003675      0x173 .\CortexM3\ARM_GCC_541\Debug\Half_Skeleton_V2_LED_ARRAY.a(wait_interrupt.o)
 .debug_abbrev  0x000037e8       0x90 .\CortexM3\ARM_GCC_541\Debug\Half_Skeleton_V2_LED_ARRAY.a(X_MOT_INT.o)
 .debug_abbrev  0x00003878       0x90 .\CortexM3\ARM_GCC_541\Debug\Half_Skeleton_V2_LED_ARRAY.a(Y_MOT_INT.o)
 .debug_abbrev  0x00003908       0x90 .\CortexM3\ARM_GCC_541\Debug\Half_Skeleton_V2_LED_ARRAY.a(Z_MOT_INT.o)
 .debug_abbrev  0x00003998       0x90 .\CortexM3\ARM_GCC_541\Debug\Half_Skeleton_V2_LED_ARRAY.a(Camera_Trigger.o)
 .debug_abbrev  0x00003a28       0x90 .\CortexM3\ARM_GCC_541\Debug\Half_Skeleton_V2_LED_ARRAY.a(Pin_SDI_RGB.o)
 .debug_abbrev  0x00003ab8       0x90 .\CortexM3\ARM_GCC_541\Debug\Half_Skeleton_V2_LED_ARRAY.a(Pin_Clock_RGB.o)
 .debug_abbrev  0x00003b48       0x90 .\CortexM3\ARM_GCC_541\Debug\Half_Skeleton_V2_LED_ARRAY.a(Pin_MOSI_PCA9959.o)
 .debug_abbrev  0x00003bd8       0x90 .\CortexM3\ARM_GCC_541\Debug\Half_Skeleton_V2_LED_ARRAY.a(Pin_SCK_PCA9959.o)
 .debug_abbrev  0x00003c68       0x90 .\CortexM3\ARM_GCC_541\Debug\Half_Skeleton_V2_LED_ARRAY.a(Pin_SS_PCA9959.o)
 .debug_abbrev  0x00003cf8       0x90 .\CortexM3\ARM_GCC_541\Debug\Half_Skeleton_V2_LED_ARRAY.a(Pin_OE_PCA9959_1.o)
 .debug_abbrev  0x00003d88       0x90 .\CortexM3\ARM_GCC_541\Debug\Half_Skeleton_V2_LED_ARRAY.a(Pin_OE_PCA9959_2.o)
 .debug_abbrev  0x00003e18       0x90 .\CortexM3\ARM_GCC_541\Debug\Half_Skeleton_V2_LED_ARRAY.a(Pin_OE_PCA9959_3.o)
 .debug_abbrev  0x00003ea8       0x90 .\CortexM3\ARM_GCC_541\Debug\Half_Skeleton_V2_LED_ARRAY.a(Pin_OE_PCA9959_4.o)
 .debug_abbrev  0x00003f38       0x90 .\CortexM3\ARM_GCC_541\Debug\Half_Skeleton_V2_LED_ARRAY.a(Pin_RST_PCA9959.o)
 .debug_abbrev  0x00003fc8       0x14 .\CortexM3\ARM_GCC_541\Debug\Half_Skeleton_V2_LED_ARRAY.a(CyBootAsmGnu.o)
 .debug_abbrev  0x00003fdc      0x1a9 .\CortexM3\ARM_GCC_541\Debug\Half_Skeleton_V2_LED_ARRAY.a(CyFlash.o)
 .debug_abbrev  0x00004185      0x194 .\CortexM3\ARM_GCC_541\Debug\Half_Skeleton_V2_LED_ARRAY.a(CySpc.o)
 .debug_abbrev  0x00004319       0xe1 .\CortexM3\ARM_GCC_541\Debug\Half_Skeleton_V2_LED_ARRAY.a(USB_cls.o)
 .debug_abbrev  0x000043fa       0xb4 .\CortexM3\ARM_GCC_541\Debug\Half_Skeleton_V2_LED_ARRAY.a(USB_descr.o)

.debug_line     0x00000000     0x6d42
 *(.debug_line)
 .debug_line    0x00000000      0x276 .\CortexM3\ARM_GCC_541\Debug\main.o
 .debug_line    0x00000276      0xebd .\CortexM3\ARM_GCC_541\Debug\AS76.o
 .debug_line    0x00001133      0x2ba .\CortexM3\ARM_GCC_541\Debug\APA102.o
 .debug_line    0x000013ed      0x805 .\CortexM3\ARM_GCC_541\Debug\PCA9959.o
 .debug_line    0x00001bf2      0x216 .\CortexM3\ARM_GCC_541\Debug\cyfitter_cfg.o
 .debug_line    0x00001e08      0x141 .\CortexM3\ARM_GCC_541\Debug\cymetadata.o
 .debug_line    0x00001f49      0x234 .\CortexM3\ARM_GCC_541\Debug\Cm3Start.o
 .debug_line    0x0000217d       0x99 .\CortexM3\ARM_GCC_541\Debug\Half_Skeleton_V2_LED_ARRAY.a(Pin_CSMotorX.o)
 .debug_line    0x00002216       0x99 .\CortexM3\ARM_GCC_541\Debug\Half_Skeleton_V2_LED_ARRAY.a(Pin_CSMotorY.o)
 .debug_line    0x000022af       0x99 .\CortexM3\ARM_GCC_541\Debug\Half_Skeleton_V2_LED_ARRAY.a(Pin_CSMotorZ.o)
 .debug_line    0x00002348      0x29a .\CortexM3\ARM_GCC_541\Debug\Half_Skeleton_V2_LED_ARRAY.a(SPIM.o)
 .debug_line    0x000025e2       0xa6 .\CortexM3\ARM_GCC_541\Debug\Half_Skeleton_V2_LED_ARRAY.a(SPIM_INT.o)
 .debug_line    0x00002688      0x816 .\CortexM3\ARM_GCC_541\Debug\Half_Skeleton_V2_LED_ARRAY.a(CyLib.o)
 .debug_line    0x00002e9e      0x367 .\CortexM3\ARM_GCC_541\Debug\Half_Skeleton_V2_LED_ARRAY.a(cyPm.o)
 .debug_line    0x00003205      0x2ec .\CortexM3\ARM_GCC_541\Debug\Half_Skeleton_V2_LED_ARRAY.a(USB.o)
 .debug_line    0x000034f1      0x2e6 .\CortexM3\ARM_GCC_541\Debug\Half_Skeleton_V2_LED_ARRAY.a(USB_cdc.o)
 .debug_line    0x000037d7      0x215 .\CortexM3\ARM_GCC_541\Debug\Half_Skeleton_V2_LED_ARRAY.a(USB_drv.o)
 .debug_line    0x000039ec       0xda .\CortexM3\ARM_GCC_541\Debug\Half_Skeleton_V2_LED_ARRAY.a(USB_episr.o)
 .debug_line    0x00003ac6      0x143 .\CortexM3\ARM_GCC_541\Debug\Half_Skeleton_V2_LED_ARRAY.a(USB_hid.o)
 .debug_line    0x00003c09       0xfe .\CortexM3\ARM_GCC_541\Debug\Half_Skeleton_V2_LED_ARRAY.a(USB_pm.o)
 .debug_line    0x00003d07      0x3d7 .\CortexM3\ARM_GCC_541\Debug\Half_Skeleton_V2_LED_ARRAY.a(USB_std.o)
 .debug_line    0x000040de       0x7f .\CortexM3\ARM_GCC_541\Debug\Half_Skeleton_V2_LED_ARRAY.a(USB_vnd.o)
 .debug_line    0x0000415d       0xb7 .\CortexM3\ARM_GCC_541\Debug\Half_Skeleton_V2_LED_ARRAY.a(USB_Dp.o)
 .debug_line    0x00004214      0x13e .\CortexM3\ARM_GCC_541\Debug\Half_Skeleton_V2_LED_ARRAY.a(PWM_CondenserLED.o)
 .debug_line    0x00004352      0x17c .\CortexM3\ARM_GCC_541\Debug\Half_Skeleton_V2_LED_ARRAY.a(SPIM_IntClock.o)
 .debug_line    0x000044ce      0x13d .\CortexM3\ARM_GCC_541\Debug\Half_Skeleton_V2_LED_ARRAY.a(QuadDec_X.o)
 .debug_line    0x0000460b       0x6c .\CortexM3\ARM_GCC_541\Debug\Half_Skeleton_V2_LED_ARRAY.a(QuadDec_X_INT.o)
 .debug_line    0x00004677      0x18f .\CortexM3\ARM_GCC_541\Debug\Half_Skeleton_V2_LED_ARRAY.a(QuadDec_X_Cnt16.o)
 .debug_line    0x00004806      0x312 .\CortexM3\ARM_GCC_541\Debug\Half_Skeleton_V2_LED_ARRAY.a(UART_PCB_LOG.o)
 .debug_line    0x00004b18       0x91 .\CortexM3\ARM_GCC_541\Debug\Half_Skeleton_V2_LED_ARRAY.a(UART_PCB_LOG_INT.o)
 .debug_line    0x00004ba9      0x184 .\CortexM3\ARM_GCC_541\Debug\Half_Skeleton_V2_LED_ARRAY.a(UART_PCB_LOG_IntClock.o)
 .debug_line    0x00004d2d       0x9a .\CortexM3\ARM_GCC_541\Debug\Half_Skeleton_V2_LED_ARRAY.a(Pin_Backlight.o)
 .debug_line    0x00004dc7       0x91 .\CortexM3\ARM_GCC_541\Debug\Half_Skeleton_V2_LED_ARRAY.a(LED2.o)
 .debug_line    0x00004e58       0x99 .\CortexM3\ARM_GCC_541\Debug\Half_Skeleton_V2_LED_ARRAY.a(Pin_CSMotorO.o)
 .debug_line    0x00004ef1       0x99 .\CortexM3\ARM_GCC_541\Debug\Half_Skeleton_V2_LED_ARRAY.a(Pin_CSMotorT.o)
 .debug_line    0x00004f8a      0x140 .\CortexM3\ARM_GCC_541\Debug\Half_Skeleton_V2_LED_ARRAY.a(QuadDec_TZ.o)
 .debug_line    0x000050ca       0x6d .\CortexM3\ARM_GCC_541\Debug\Half_Skeleton_V2_LED_ARRAY.a(QuadDec_TZ_INT.o)
 .debug_line    0x00005137      0x138 .\CortexM3\ARM_GCC_541\Debug\Half_Skeleton_V2_LED_ARRAY.a(PWM_Buzzer.o)
 .debug_line    0x0000526f      0x13d .\CortexM3\ARM_GCC_541\Debug\Half_Skeleton_V2_LED_ARRAY.a(QuadDec_Y.o)
 .debug_line    0x000053ac       0x6c .\CortexM3\ARM_GCC_541\Debug\Half_Skeleton_V2_LED_ARRAY.a(QuadDec_Y_INT.o)
 .debug_line    0x00005418      0x146 .\CortexM3\ARM_GCC_541\Debug\Half_Skeleton_V2_LED_ARRAY.a(PWM_BarcodeCondenser_LED.o)
 .debug_line    0x0000555e       0x91 .\CortexM3\ARM_GCC_541\Debug\Half_Skeleton_V2_LED_ARRAY.a(LED3.o)
 .debug_line    0x000055ef       0x7a .\CortexM3\ARM_GCC_541\Debug\Half_Skeleton_V2_LED_ARRAY.a(Encoder_T_Z_Select.o)
 .debug_line    0x00005669       0x9e .\CortexM3\ARM_GCC_541\Debug\Half_Skeleton_V2_LED_ARRAY.a(TMC5160_MotorX_EN.o)
 .debug_line    0x00005707       0x9e .\CortexM3\ARM_GCC_541\Debug\Half_Skeleton_V2_LED_ARRAY.a(TMC5160_MotorY_EN.o)
 .debug_line    0x000057a5       0x9e .\CortexM3\ARM_GCC_541\Debug\Half_Skeleton_V2_LED_ARRAY.a(TMC5160_MotorZ_EN.o)
 .debug_line    0x00005843       0x9e .\CortexM3\ARM_GCC_541\Debug\Half_Skeleton_V2_LED_ARRAY.a(TMC5160_MotorT_EN.o)
 .debug_line    0x000058e1       0x9e .\CortexM3\ARM_GCC_541\Debug\Half_Skeleton_V2_LED_ARRAY.a(TMC5160_MotorO_EN.o)
 .debug_line    0x0000597f      0x190 .\CortexM3\ARM_GCC_541\Debug\Half_Skeleton_V2_LED_ARRAY.a(QuadDec_TZ_Cnt16.o)
 .debug_line    0x00005b0f      0x18f .\CortexM3\ARM_GCC_541\Debug\Half_Skeleton_V2_LED_ARRAY.a(QuadDec_Y_Cnt16.o)
 .debug_line    0x00005c9e      0x158 .\CortexM3\ARM_GCC_541\Debug\Half_Skeleton_V2_LED_ARRAY.a(wait_timer.o)
 .debug_line    0x00005df6      0x13b .\CortexM3\ARM_GCC_541\Debug\Half_Skeleton_V2_LED_ARRAY.a(wait_interrupt.o)
 .debug_line    0x00005f31       0x96 .\CortexM3\ARM_GCC_541\Debug\Half_Skeleton_V2_LED_ARRAY.a(X_MOT_INT.o)
 .debug_line    0x00005fc7       0x96 .\CortexM3\ARM_GCC_541\Debug\Half_Skeleton_V2_LED_ARRAY.a(Y_MOT_INT.o)
 .debug_line    0x0000605d       0x96 .\CortexM3\ARM_GCC_541\Debug\Half_Skeleton_V2_LED_ARRAY.a(Z_MOT_INT.o)
 .debug_line    0x000060f3       0x9b .\CortexM3\ARM_GCC_541\Debug\Half_Skeleton_V2_LED_ARRAY.a(Camera_Trigger.o)
 .debug_line    0x0000618e       0x98 .\CortexM3\ARM_GCC_541\Debug\Half_Skeleton_V2_LED_ARRAY.a(Pin_SDI_RGB.o)
 .debug_line    0x00006226       0x9a .\CortexM3\ARM_GCC_541\Debug\Half_Skeleton_V2_LED_ARRAY.a(Pin_Clock_RGB.o)
 .debug_line    0x000062c0       0x9d .\CortexM3\ARM_GCC_541\Debug\Half_Skeleton_V2_LED_ARRAY.a(Pin_MOSI_PCA9959.o)
 .debug_line    0x0000635d       0x9c .\CortexM3\ARM_GCC_541\Debug\Half_Skeleton_V2_LED_ARRAY.a(Pin_SCK_PCA9959.o)
 .debug_line    0x000063f9       0x9b .\CortexM3\ARM_GCC_541\Debug\Half_Skeleton_V2_LED_ARRAY.a(Pin_SS_PCA9959.o)
 .debug_line    0x00006494       0x9d .\CortexM3\ARM_GCC_541\Debug\Half_Skeleton_V2_LED_ARRAY.a(Pin_OE_PCA9959_1.o)
 .debug_line    0x00006531       0x9d .\CortexM3\ARM_GCC_541\Debug\Half_Skeleton_V2_LED_ARRAY.a(Pin_OE_PCA9959_2.o)
 .debug_line    0x000065ce       0x9d .\CortexM3\ARM_GCC_541\Debug\Half_Skeleton_V2_LED_ARRAY.a(Pin_OE_PCA9959_3.o)
 .debug_line    0x0000666b       0x9d .\CortexM3\ARM_GCC_541\Debug\Half_Skeleton_V2_LED_ARRAY.a(Pin_OE_PCA9959_4.o)
 .debug_line    0x00006708       0x9c .\CortexM3\ARM_GCC_541\Debug\Half_Skeleton_V2_LED_ARRAY.a(Pin_RST_PCA9959.o)
 .debug_line    0x000067a4       0x66 .\CortexM3\ARM_GCC_541\Debug\Half_Skeleton_V2_LED_ARRAY.a(CyBootAsmGnu.o)
 .debug_line    0x0000680a      0x210 .\CortexM3\ARM_GCC_541\Debug\Half_Skeleton_V2_LED_ARRAY.a(CyFlash.o)
 .debug_line    0x00006a1a      0x244 .\CortexM3\ARM_GCC_541\Debug\Half_Skeleton_V2_LED_ARRAY.a(CySpc.o)
 .debug_line    0x00006c5e       0x8b .\CortexM3\ARM_GCC_541\Debug\Half_Skeleton_V2_LED_ARRAY.a(USB_cls.o)
 .debug_line    0x00006ce9       0x59 .\CortexM3\ARM_GCC_541\Debug\Half_Skeleton_V2_LED_ARRAY.a(USB_descr.o)

.debug_frame    0x00000000     0x4368
 *(.debug_frame)
 .debug_frame   0x00000000       0x2c .\CortexM3\ARM_GCC_541\Debug\main.o
 .debug_frame   0x0000002c      0x770 .\CortexM3\ARM_GCC_541\Debug\AS76.o
 .debug_frame   0x0000079c       0xc0 .\CortexM3\ARM_GCC_541\Debug\APA102.o
 .debug_frame   0x0000085c      0x270 .\CortexM3\ARM_GCC_541\Debug\PCA9959.o
 .debug_frame   0x00000acc      0x100 .\CortexM3\ARM_GCC_541\Debug\cyfitter_cfg.o
 .debug_frame   0x00000bcc       0xb8 .\CortexM3\ARM_GCC_541\Debug\Cm3Start.o
 .debug_frame   0x00000c84       0x50 .\CortexM3\ARM_GCC_541\Debug\Half_Skeleton_V2_LED_ARRAY.a(Pin_CSMotorX.o)
 .debug_frame   0x00000cd4       0x50 .\CortexM3\ARM_GCC_541\Debug\Half_Skeleton_V2_LED_ARRAY.a(Pin_CSMotorY.o)
 .debug_frame   0x00000d24       0x50 .\CortexM3\ARM_GCC_541\Debug\Half_Skeleton_V2_LED_ARRAY.a(Pin_CSMotorZ.o)
 .debug_frame   0x00000d74      0x260 .\CortexM3\ARM_GCC_541\Debug\Half_Skeleton_V2_LED_ARRAY.a(SPIM.o)
 .debug_frame   0x00000fd4       0x30 .\CortexM3\ARM_GCC_541\Debug\Half_Skeleton_V2_LED_ARRAY.a(SPIM_INT.o)
 .debug_frame   0x00001004      0x738 .\CortexM3\ARM_GCC_541\Debug\Half_Skeleton_V2_LED_ARRAY.a(CyLib.o)
 .debug_frame   0x0000173c      0x1f8 .\CortexM3\ARM_GCC_541\Debug\Half_Skeleton_V2_LED_ARRAY.a(cyPm.o)
 .debug_frame   0x00001934      0x1dc .\CortexM3\ARM_GCC_541\Debug\Half_Skeleton_V2_LED_ARRAY.a(USB.o)
 .debug_frame   0x00001b10      0x27c .\CortexM3\ARM_GCC_541\Debug\Half_Skeleton_V2_LED_ARRAY.a(USB_cdc.o)
 .debug_frame   0x00001d8c      0x194 .\CortexM3\ARM_GCC_541\Debug\Half_Skeleton_V2_LED_ARRAY.a(USB_drv.o)
 .debug_frame   0x00001f20       0x6c .\CortexM3\ARM_GCC_541\Debug\Half_Skeleton_V2_LED_ARRAY.a(USB_episr.o)
 .debug_frame   0x00001f8c       0xa0 .\CortexM3\ARM_GCC_541\Debug\Half_Skeleton_V2_LED_ARRAY.a(USB_hid.o)
 .debug_frame   0x0000202c       0xa0 .\CortexM3\ARM_GCC_541\Debug\Half_Skeleton_V2_LED_ARRAY.a(USB_pm.o)
 .debug_frame   0x000020cc      0x17c .\CortexM3\ARM_GCC_541\Debug\Half_Skeleton_V2_LED_ARRAY.a(USB_std.o)
 .debug_frame   0x00002248       0x2c .\CortexM3\ARM_GCC_541\Debug\Half_Skeleton_V2_LED_ARRAY.a(USB_vnd.o)
 .debug_frame   0x00002274       0x70 .\CortexM3\ARM_GCC_541\Debug\Half_Skeleton_V2_LED_ARRAY.a(USB_Dp.o)
 .debug_frame   0x000022e4       0xe8 .\CortexM3\ARM_GCC_541\Debug\Half_Skeleton_V2_LED_ARRAY.a(PWM_CondenserLED.o)
 .debug_frame   0x000023cc       0xe0 .\CortexM3\ARM_GCC_541\Debug\Half_Skeleton_V2_LED_ARRAY.a(SPIM_IntClock.o)
 .debug_frame   0x000024ac       0xec .\CortexM3\ARM_GCC_541\Debug\Half_Skeleton_V2_LED_ARRAY.a(QuadDec_X.o)
 .debug_frame   0x00002598       0x20 .\CortexM3\ARM_GCC_541\Debug\Half_Skeleton_V2_LED_ARRAY.a(QuadDec_X_INT.o)
 .debug_frame   0x000025b8      0x134 .\CortexM3\ARM_GCC_541\Debug\Half_Skeleton_V2_LED_ARRAY.a(QuadDec_X_Cnt16.o)
 .debug_frame   0x000026ec      0x25c .\CortexM3\ARM_GCC_541\Debug\Half_Skeleton_V2_LED_ARRAY.a(UART_PCB_LOG.o)
 .debug_frame   0x00002948       0x20 .\CortexM3\ARM_GCC_541\Debug\Half_Skeleton_V2_LED_ARRAY.a(UART_PCB_LOG_INT.o)
 .debug_frame   0x00002968       0xe0 .\CortexM3\ARM_GCC_541\Debug\Half_Skeleton_V2_LED_ARRAY.a(UART_PCB_LOG_IntClock.o)
 .debug_frame   0x00002a48       0x50 .\CortexM3\ARM_GCC_541\Debug\Half_Skeleton_V2_LED_ARRAY.a(Pin_Backlight.o)
 .debug_frame   0x00002a98       0x50 .\CortexM3\ARM_GCC_541\Debug\Half_Skeleton_V2_LED_ARRAY.a(LED2.o)
 .debug_frame   0x00002ae8       0x50 .\CortexM3\ARM_GCC_541\Debug\Half_Skeleton_V2_LED_ARRAY.a(Pin_CSMotorO.o)
 .debug_frame   0x00002b38       0x50 .\CortexM3\ARM_GCC_541\Debug\Half_Skeleton_V2_LED_ARRAY.a(Pin_CSMotorT.o)
 .debug_frame   0x00002b88       0xec .\CortexM3\ARM_GCC_541\Debug\Half_Skeleton_V2_LED_ARRAY.a(QuadDec_TZ.o)
 .debug_frame   0x00002c74       0x20 .\CortexM3\ARM_GCC_541\Debug\Half_Skeleton_V2_LED_ARRAY.a(QuadDec_TZ_INT.o)
 .debug_frame   0x00002c94       0xe8 .\CortexM3\ARM_GCC_541\Debug\Half_Skeleton_V2_LED_ARRAY.a(PWM_Buzzer.o)
 .debug_frame   0x00002d7c       0xec .\CortexM3\ARM_GCC_541\Debug\Half_Skeleton_V2_LED_ARRAY.a(QuadDec_Y.o)
 .debug_frame   0x00002e68       0x20 .\CortexM3\ARM_GCC_541\Debug\Half_Skeleton_V2_LED_ARRAY.a(QuadDec_Y_INT.o)
 .debug_frame   0x00002e88       0xe8 .\CortexM3\ARM_GCC_541\Debug\Half_Skeleton_V2_LED_ARRAY.a(PWM_BarcodeCondenser_LED.o)
 .debug_frame   0x00002f70       0x50 .\CortexM3\ARM_GCC_541\Debug\Half_Skeleton_V2_LED_ARRAY.a(LED3.o)
 .debug_frame   0x00002fc0       0x30 .\CortexM3\ARM_GCC_541\Debug\Half_Skeleton_V2_LED_ARRAY.a(Encoder_T_Z_Select.o)
 .debug_frame   0x00002ff0       0x50 .\CortexM3\ARM_GCC_541\Debug\Half_Skeleton_V2_LED_ARRAY.a(TMC5160_MotorX_EN.o)
 .debug_frame   0x00003040       0x50 .\CortexM3\ARM_GCC_541\Debug\Half_Skeleton_V2_LED_ARRAY.a(TMC5160_MotorY_EN.o)
 .debug_frame   0x00003090       0x50 .\CortexM3\ARM_GCC_541\Debug\Half_Skeleton_V2_LED_ARRAY.a(TMC5160_MotorZ_EN.o)
 .debug_frame   0x000030e0       0x50 .\CortexM3\ARM_GCC_541\Debug\Half_Skeleton_V2_LED_ARRAY.a(TMC5160_MotorT_EN.o)
 .debug_frame   0x00003130       0x50 .\CortexM3\ARM_GCC_541\Debug\Half_Skeleton_V2_LED_ARRAY.a(TMC5160_MotorO_EN.o)
 .debug_frame   0x00003180      0x134 .\CortexM3\ARM_GCC_541\Debug\Half_Skeleton_V2_LED_ARRAY.a(QuadDec_TZ_Cnt16.o)
 .debug_frame   0x000032b4      0x134 .\CortexM3\ARM_GCC_541\Debug\Half_Skeleton_V2_LED_ARRAY.a(QuadDec_Y_Cnt16.o)
 .debug_frame   0x000033e8      0x108 .\CortexM3\ARM_GCC_541\Debug\Half_Skeleton_V2_LED_ARRAY.a(wait_timer.o)
 .debug_frame   0x000034f0      0x104 .\CortexM3\ARM_GCC_541\Debug\Half_Skeleton_V2_LED_ARRAY.a(wait_interrupt.o)
 .debug_frame   0x000035f4       0x50 .\CortexM3\ARM_GCC_541\Debug\Half_Skeleton_V2_LED_ARRAY.a(X_MOT_INT.o)
 .debug_frame   0x00003644       0x50 .\CortexM3\ARM_GCC_541\Debug\Half_Skeleton_V2_LED_ARRAY.a(Y_MOT_INT.o)
 .debug_frame   0x00003694       0x50 .\CortexM3\ARM_GCC_541\Debug\Half_Skeleton_V2_LED_ARRAY.a(Z_MOT_INT.o)
 .debug_frame   0x000036e4       0x50 .\CortexM3\ARM_GCC_541\Debug\Half_Skeleton_V2_LED_ARRAY.a(Camera_Trigger.o)
 .debug_frame   0x00003734       0x50 .\CortexM3\ARM_GCC_541\Debug\Half_Skeleton_V2_LED_ARRAY.a(Pin_SDI_RGB.o)
 .debug_frame   0x00003784       0x50 .\CortexM3\ARM_GCC_541\Debug\Half_Skeleton_V2_LED_ARRAY.a(Pin_Clock_RGB.o)
 .debug_frame   0x000037d4       0x50 .\CortexM3\ARM_GCC_541\Debug\Half_Skeleton_V2_LED_ARRAY.a(Pin_MOSI_PCA9959.o)
 .debug_frame   0x00003824       0x50 .\CortexM3\ARM_GCC_541\Debug\Half_Skeleton_V2_LED_ARRAY.a(Pin_SCK_PCA9959.o)
 .debug_frame   0x00003874       0x50 .\CortexM3\ARM_GCC_541\Debug\Half_Skeleton_V2_LED_ARRAY.a(Pin_SS_PCA9959.o)
 .debug_frame   0x000038c4       0x50 .\CortexM3\ARM_GCC_541\Debug\Half_Skeleton_V2_LED_ARRAY.a(Pin_OE_PCA9959_1.o)
 .debug_frame   0x00003914       0x50 .\CortexM3\ARM_GCC_541\Debug\Half_Skeleton_V2_LED_ARRAY.a(Pin_OE_PCA9959_2.o)
 .debug_frame   0x00003964       0x50 .\CortexM3\ARM_GCC_541\Debug\Half_Skeleton_V2_LED_ARRAY.a(Pin_OE_PCA9959_3.o)
 .debug_frame   0x000039b4       0x50 .\CortexM3\ARM_GCC_541\Debug\Half_Skeleton_V2_LED_ARRAY.a(Pin_OE_PCA9959_4.o)
 .debug_frame   0x00003a04       0x50 .\CortexM3\ARM_GCC_541\Debug\Half_Skeleton_V2_LED_ARRAY.a(Pin_RST_PCA9959.o)
 .debug_frame   0x00003a54      0x194 .\CortexM3\ARM_GCC_541\Debug\Half_Skeleton_V2_LED_ARRAY.a(CyFlash.o)
 .debug_frame   0x00003be8      0x180 .\CortexM3\ARM_GCC_541\Debug\Half_Skeleton_V2_LED_ARRAY.a(CySpc.o)
 .debug_frame   0x00003d68       0x2c .\CortexM3\ARM_GCC_541\Debug\Half_Skeleton_V2_LED_ARRAY.a(USB_cls.o)
 .debug_frame   0x00003d94       0x4c c:/program files (x86)/cypress/psoc creator/4.4/psoc creator/import/gnu/arm/5.4.1/bin/../lib/gcc/arm-none-eabi/5.4.1/../../../../arm-none-eabi/lib/armv7-m\libm.a(lib_a-w_pow.o)
 .debug_frame   0x00003de0       0x68 c:/program files (x86)/cypress/psoc creator/4.4/psoc creator/import/gnu/arm/5.4.1/bin/../lib/gcc/arm-none-eabi/5.4.1/../../../../arm-none-eabi/lib/armv7-m\libm.a(lib_a-e_pow.o)
 .debug_frame   0x00003e48       0x30 c:/program files (x86)/cypress/psoc creator/4.4/psoc creator/import/gnu/arm/5.4.1/bin/../lib/gcc/arm-none-eabi/5.4.1/../../../../arm-none-eabi/lib/armv7-m\libm.a(lib_a-e_sqrt.o)
 .debug_frame   0x00003e78       0x20 c:/program files (x86)/cypress/psoc creator/4.4/psoc creator/import/gnu/arm/5.4.1/bin/../lib/gcc/arm-none-eabi/5.4.1/../../../../arm-none-eabi/lib/armv7-m\libm.a(lib_a-s_fabs.o)
 .debug_frame   0x00003e98       0x20 c:/program files (x86)/cypress/psoc creator/4.4/psoc creator/import/gnu/arm/5.4.1/bin/../lib/gcc/arm-none-eabi/5.4.1/../../../../arm-none-eabi/lib/armv7-m\libm.a(lib_a-s_finite.o)
 .debug_frame   0x00003eb8       0x20 c:/program files (x86)/cypress/psoc creator/4.4/psoc creator/import/gnu/arm/5.4.1/bin/../lib/gcc/arm-none-eabi/5.4.1/../../../../arm-none-eabi/lib/armv7-m\libm.a(lib_a-s_matherr.o)
 .debug_frame   0x00003ed8       0x20 c:/program files (x86)/cypress/psoc creator/4.4/psoc creator/import/gnu/arm/5.4.1/bin/../lib/gcc/arm-none-eabi/5.4.1/../../../../arm-none-eabi/lib/armv7-m\libm.a(lib_a-s_nan.o)
 .debug_frame   0x00003ef8       0x3c c:/program files (x86)/cypress/psoc creator/4.4/psoc creator/import/gnu/arm/5.4.1/bin/../lib/gcc/arm-none-eabi/5.4.1/../../../../arm-none-eabi/lib/armv7-m\libm.a(lib_a-s_rint.o)
 .debug_frame   0x00003f34       0x30 c:/program files (x86)/cypress/psoc creator/4.4/psoc creator/import/gnu/arm/5.4.1/bin/../lib/gcc/arm-none-eabi/5.4.1/../../../../arm-none-eabi/lib/armv7-m\libm.a(lib_a-s_scalbn.o)
 .debug_frame   0x00003f64       0x20 c:/program files (x86)/cypress/psoc creator/4.4/psoc creator/import/gnu/arm/5.4.1/bin/../lib/gcc/arm-none-eabi/5.4.1/../../../../arm-none-eabi/lib/armv7-m\libm.a(lib_a-s_copysign.o)
 .debug_frame   0x00003f84       0x20 c:/program files (x86)/cypress/psoc creator/4.4/psoc creator/import/gnu/arm/5.4.1/bin/../lib/gcc/arm-none-eabi/5.4.1/../../../../arm-none-eabi/lib/armv7-m\libg_nano.a(lib_a-errno.o)
 .debug_frame   0x00003fa4       0x28 c:/program files (x86)/cypress/psoc creator/4.4/psoc creator/import/gnu/arm/5.4.1/bin/../lib/gcc/arm-none-eabi/5.4.1/../../../../arm-none-eabi/lib/armv7-m\libg_nano.a(lib_a-exit.o)
 .debug_frame   0x00003fcc       0x2c c:/program files (x86)/cypress/psoc creator/4.4/psoc creator/import/gnu/arm/5.4.1/bin/../lib/gcc/arm-none-eabi/5.4.1/../../../../arm-none-eabi/lib/armv7-m\libg_nano.a(lib_a-init.o)
 .debug_frame   0x00003ff8       0x28 c:/program files (x86)/cypress/psoc creator/4.4/psoc creator/import/gnu/arm/5.4.1/bin/../lib/gcc/arm-none-eabi/5.4.1/../../../../arm-none-eabi/lib/armv7-m\libg_nano.a(lib_a-memcpy-stub.o)
 .debug_frame   0x00004020       0x20 c:/program files (x86)/cypress/psoc creator/4.4/psoc creator/import/gnu/arm/5.4.1/bin/../lib/gcc/arm-none-eabi/5.4.1/../../../../arm-none-eabi/lib/armv7-m\libg_nano.a(lib_a-memset.o)
 .debug_frame   0x00004040       0x70 c:/program files (x86)/cypress/psoc creator/4.4/psoc creator/import/gnu/arm/5.4.1/bin/../lib/gcc/arm-none-eabi/5.4.1/../../../../arm-none-eabi/lib/armv7-m\libg_nano.a(lib_a-sprintf.o)
 .debug_frame   0x000040b0       0x90 c:/program files (x86)/cypress/psoc creator/4.4/psoc creator/import/gnu/arm/5.4.1/bin/../lib/gcc/arm-none-eabi/5.4.1/../../../../arm-none-eabi/lib/armv7-m\libg_nano.a(lib_a-nano-svfprintf.o)
 .debug_frame   0x00004140       0x60 c:/program files (x86)/cypress/psoc creator/4.4/psoc creator/import/gnu/arm/5.4.1/bin/../lib/gcc/arm-none-eabi/5.4.1/../../../../arm-none-eabi/lib/armv7-m\libg_nano.a(lib_a-nano-vfprintf_i.o)
 .debug_frame   0x000041a0       0x28 c:/program files (x86)/cypress/psoc creator/4.4/psoc creator/import/gnu/arm/5.4.1/bin/../lib/gcc/arm-none-eabi/5.4.1/../../../../arm-none-eabi/lib/armv7-m\libg_nano.a(lib_a-memchr-stub.o)
 .debug_frame   0x000041c8       0x28 c:/program files (x86)/cypress/psoc creator/4.4/psoc creator/import/gnu/arm/5.4.1/bin/../lib/gcc/arm-none-eabi/5.4.1/../../../../arm-none-eabi/lib/armv7-m\libg_nano.a(lib_a-memmove.o)
 .debug_frame   0x000041f0       0x38 c:/program files (x86)/cypress/psoc creator/4.4/psoc creator/import/gnu/arm/5.4.1/bin/../lib/gcc/arm-none-eabi/5.4.1/../../../../arm-none-eabi/lib/armv7-m\libg_nano.a(lib_a-nano-freer.o)
 .debug_frame   0x00004228       0x2c c:/program files (x86)/cypress/psoc creator/4.4/psoc creator/import/gnu/arm/5.4.1/bin/../lib/gcc/arm-none-eabi/5.4.1/../../../../arm-none-eabi/lib/armv7-m\libg_nano.a(lib_a-nano-mallocr.o)
 .debug_frame   0x00004254       0x3c c:/program files (x86)/cypress/psoc creator/4.4/psoc creator/import/gnu/arm/5.4.1/bin/../lib/gcc/arm-none-eabi/5.4.1/../../../../arm-none-eabi/lib/armv7-m\libg_nano.a(lib_a-nano-reallocr.o)
 .debug_frame   0x00004290       0x2c c:/program files (x86)/cypress/psoc creator/4.4/psoc creator/import/gnu/arm/5.4.1/bin/../lib/gcc/arm-none-eabi/5.4.1/../../../../arm-none-eabi/lib/armv7-m\libg_nano.a(lib_a-sbrkr.o)
 .debug_frame   0x000042bc       0x30 c:/program files (x86)/cypress/psoc creator/4.4/psoc creator/import/gnu/arm/5.4.1/bin/../lib/gcc/arm-none-eabi/5.4.1/../../../../arm-none-eabi/lib/armv7-m\libg_nano.a(lib_a-mlock.o)
 .debug_frame   0x000042ec       0x20 c:/program files (x86)/cypress/psoc creator/4.4/psoc creator/import/gnu/arm/5.4.1/bin/../lib/gcc/arm-none-eabi/5.4.1/../../../../arm-none-eabi/lib/armv7-m\libg_nano.a(lib_a-nano-msizer.o)
 .debug_frame   0x0000430c       0x5c c:/program files (x86)/cypress/psoc creator/4.4/psoc creator/import/gnu/arm/5.4.1/bin/../lib/gcc/arm-none-eabi/5.4.1/../../../../arm-none-eabi/lib/armv7-m\libg_nano.a(lib_a-reent.o)

.debug_str      0x00000000     0x5903
 *(.debug_str)
 .debug_str     0x00000000      0x393 .\CortexM3\ARM_GCC_541\Debug\main.o
                                0x3ee (size before relaxing)
 .debug_str     0x00000393      0x9cb .\CortexM3\ARM_GCC_541\Debug\AS76.o
                                0xe16 (size before relaxing)
 .debug_str     0x00000d5e       0x90 .\CortexM3\ARM_GCC_541\Debug\APA102.o
                                0x278 (size before relaxing)
 .debug_str     0x00000dee      0x1e1 .\CortexM3\ARM_GCC_541\Debug\PCA9959.o
                                0x40e (size before relaxing)
 .debug_str     0x00000fcf      0x278 .\CortexM3\ARM_GCC_541\Debug\cyfitter_cfg.o
                                0x442 (size before relaxing)
 .debug_str     0x00001247       0x63 .\CortexM3\ARM_GCC_541\Debug\cymetadata.o
                                0x1e5 (size before relaxing)
 .debug_str     0x000012aa      0x13e .\CortexM3\ARM_GCC_541\Debug\Cm3Start.o
                                0x31d (size before relaxing)
 .debug_str     0x000013e8       0x7b .\CortexM3\ARM_GCC_541\Debug\Half_Skeleton_V2_LED_ARRAY.a(Pin_CSMotorX.o)
                                0x218 (size before relaxing)
 .debug_str     0x00001463       0x6b .\CortexM3\ARM_GCC_541\Debug\Half_Skeleton_V2_LED_ARRAY.a(Pin_CSMotorY.o)
                                0x218 (size before relaxing)
 .debug_str     0x000014ce       0x6b .\CortexM3\ARM_GCC_541\Debug\Half_Skeleton_V2_LED_ARRAY.a(Pin_CSMotorZ.o)
                                0x218 (size before relaxing)
 .debug_str     0x00001539      0x31a .\CortexM3\ARM_GCC_541\Debug\Half_Skeleton_V2_LED_ARRAY.a(SPIM.o)
                                0x4f1 (size before relaxing)
 .debug_str     0x00001853       0x3a .\CortexM3\ARM_GCC_541\Debug\Half_Skeleton_V2_LED_ARRAY.a(SPIM_INT.o)
                                0x28e (size before relaxing)
 .debug_str     0x0000188d      0x7c7 .\CortexM3\ARM_GCC_541\Debug\Half_Skeleton_V2_LED_ARRAY.a(CyLib.o)
                                0xa5a (size before relaxing)
 .debug_str     0x00002054      0x365 .\CortexM3\ARM_GCC_541\Debug\Half_Skeleton_V2_LED_ARRAY.a(cyPm.o)
                                0x746 (size before relaxing)
 .debug_str     0x000023b9      0x35d .\CortexM3\ARM_GCC_541\Debug\Half_Skeleton_V2_LED_ARRAY.a(USB.o)
                                0x5ed (size before relaxing)
 .debug_str     0x00002716      0x42d .\CortexM3\ARM_GCC_541\Debug\Half_Skeleton_V2_LED_ARRAY.a(USB_cdc.o)
                                0x710 (size before relaxing)
 .debug_str     0x00002b43      0x231 .\CortexM3\ARM_GCC_541\Debug\Half_Skeleton_V2_LED_ARRAY.a(USB_drv.o)
                                0x5b3 (size before relaxing)
 .debug_str     0x00002d74       0x68 .\CortexM3\ARM_GCC_541\Debug\Half_Skeleton_V2_LED_ARRAY.a(USB_episr.o)
                                0x2c6 (size before relaxing)
 .debug_str     0x00002ddc      0x10e .\CortexM3\ARM_GCC_541\Debug\Half_Skeleton_V2_LED_ARRAY.a(USB_hid.o)
                                0x3c1 (size before relaxing)
 .debug_str     0x00002eea       0xaa .\CortexM3\ARM_GCC_541\Debug\Half_Skeleton_V2_LED_ARRAY.a(USB_pm.o)
                                0x2d3 (size before relaxing)
 .debug_str     0x00002f94      0x1f6 .\CortexM3\ARM_GCC_541\Debug\Half_Skeleton_V2_LED_ARRAY.a(USB_std.o)
                                0x72a (size before relaxing)
 .debug_str     0x0000318a       0x3e .\CortexM3\ARM_GCC_541\Debug\Half_Skeleton_V2_LED_ARRAY.a(USB_vnd.o)
                                0x282 (size before relaxing)
 .debug_str     0x000031c8       0x81 .\CortexM3\ARM_GCC_541\Debug\Half_Skeleton_V2_LED_ARRAY.a(USB_Dp.o)
                                0x238 (size before relaxing)
 .debug_str     0x00003249      0x198 .\CortexM3\ARM_GCC_541\Debug\Half_Skeleton_V2_LED_ARRAY.a(PWM_CondenserLED.o)
                                0x37a (size before relaxing)
 .debug_str     0x000033e1      0x183 .\CortexM3\ARM_GCC_541\Debug\Half_Skeleton_V2_LED_ARRAY.a(SPIM_IntClock.o)
                                0x349 (size before relaxing)
 .debug_str     0x00003564      0x13b .\CortexM3\ARM_GCC_541\Debug\Half_Skeleton_V2_LED_ARRAY.a(QuadDec_X.o)
                                0x39d (size before relaxing)
 .debug_str     0x0000369f       0x48 .\CortexM3\ARM_GCC_541\Debug\Half_Skeleton_V2_LED_ARRAY.a(QuadDec_X_INT.o)
                                0x201 (size before relaxing)
 .debug_str     0x000036e7      0x1d6 .\CortexM3\ARM_GCC_541\Debug\Half_Skeleton_V2_LED_ARRAY.a(QuadDec_X_Cnt16.o)
                                0x429 (size before relaxing)
 .debug_str     0x000038bd      0x3f5 .\CortexM3\ARM_GCC_541\Debug\Half_Skeleton_V2_LED_ARRAY.a(UART_PCB_LOG.o)
                                0x67f (size before relaxing)
 .debug_str     0x00003cb2       0x63 .\CortexM3\ARM_GCC_541\Debug\Half_Skeleton_V2_LED_ARRAY.a(UART_PCB_LOG_INT.o)
                                0x29e (size before relaxing)
 .debug_str     0x00003d15      0x188 .\CortexM3\ARM_GCC_541\Debug\Half_Skeleton_V2_LED_ARRAY.a(UART_PCB_LOG_IntClock.o)
                                0x3a9 (size before relaxing)
 .debug_str     0x00003e9d       0x6f .\CortexM3\ARM_GCC_541\Debug\Half_Skeleton_V2_LED_ARRAY.a(Pin_Backlight.o)
                                0x21d (size before relaxing)
 .debug_str     0x00003f0c       0x4b .\CortexM3\ARM_GCC_541\Debug\Half_Skeleton_V2_LED_ARRAY.a(LED2.o)
                                0x1f0 (size before relaxing)
 .debug_str     0x00003f57       0x6b .\CortexM3\ARM_GCC_541\Debug\Half_Skeleton_V2_LED_ARRAY.a(Pin_CSMotorO.o)
                                0x218 (size before relaxing)
 .debug_str     0x00003fc2       0x6b .\CortexM3\ARM_GCC_541\Debug\Half_Skeleton_V2_LED_ARRAY.a(Pin_CSMotorT.o)
                                0x218 (size before relaxing)
 .debug_str     0x0000402d      0x139 .\CortexM3\ARM_GCC_541\Debug\Half_Skeleton_V2_LED_ARRAY.a(QuadDec_TZ.o)
                                0x3ad (size before relaxing)
 .debug_str     0x00004166       0x4b .\CortexM3\ARM_GCC_541\Debug\Half_Skeleton_V2_LED_ARRAY.a(QuadDec_TZ_INT.o)
                                0x205 (size before relaxing)
 .debug_str     0x000041b1      0x126 .\CortexM3\ARM_GCC_541\Debug\Half_Skeleton_V2_LED_ARRAY.a(PWM_Buzzer.o)
                                0x326 (size before relaxing)
 .debug_str     0x000042d7      0x12c .\CortexM3\ARM_GCC_541\Debug\Half_Skeleton_V2_LED_ARRAY.a(QuadDec_Y.o)
                                0x39d (size before relaxing)
 .debug_str     0x00004403       0x48 .\CortexM3\ARM_GCC_541\Debug\Half_Skeleton_V2_LED_ARRAY.a(QuadDec_Y_INT.o)
                                0x201 (size before relaxing)
 .debug_str     0x0000444b      0x1ce .\CortexM3\ARM_GCC_541\Debug\Half_Skeleton_V2_LED_ARRAY.a(PWM_BarcodeCondenser_LED.o)
                                0x3ea (size before relaxing)
 .debug_str     0x00004619       0x4b .\CortexM3\ARM_GCC_541\Debug\Half_Skeleton_V2_LED_ARRAY.a(LED3.o)
                                0x1f0 (size before relaxing)
 .debug_str     0x00004664       0x44 .\CortexM3\ARM_GCC_541\Debug\Half_Skeleton_V2_LED_ARRAY.a(Encoder_T_Z_Select.o)
                                0x1e9 (size before relaxing)
 .debug_str     0x000046a8       0x7f .\CortexM3\ARM_GCC_541\Debug\Half_Skeleton_V2_LED_ARRAY.a(TMC5160_MotorX_EN.o)
                                0x231 (size before relaxing)
 .debug_str     0x00004727       0x7f .\CortexM3\ARM_GCC_541\Debug\Half_Skeleton_V2_LED_ARRAY.a(TMC5160_MotorY_EN.o)
                                0x231 (size before relaxing)
 .debug_str     0x000047a6       0x7f .\CortexM3\ARM_GCC_541\Debug\Half_Skeleton_V2_LED_ARRAY.a(TMC5160_MotorZ_EN.o)
                                0x231 (size before relaxing)
 .debug_str     0x00004825       0x7f .\CortexM3\ARM_GCC_541\Debug\Half_Skeleton_V2_LED_ARRAY.a(TMC5160_MotorT_EN.o)
                                0x231 (size before relaxing)
 .debug_str     0x000048a4       0x7f .\CortexM3\ARM_GCC_541\Debug\Half_Skeleton_V2_LED_ARRAY.a(TMC5160_MotorO_EN.o)
                                0x231 (size before relaxing)
 .debug_str     0x00004923      0x1ce .\CortexM3\ARM_GCC_541\Debug\Half_Skeleton_V2_LED_ARRAY.a(QuadDec_TZ_Cnt16.o)
                                0x43c (size before relaxing)
 .debug_str     0x00004af1      0x1bf .\CortexM3\ARM_GCC_541\Debug\Half_Skeleton_V2_LED_ARRAY.a(QuadDec_Y_Cnt16.o)
                                0x429 (size before relaxing)
 .debug_str     0x00004cb0      0x15c .\CortexM3\ARM_GCC_541\Debug\Half_Skeleton_V2_LED_ARRAY.a(wait_timer.o)
                                0x358 (size before relaxing)
 .debug_str     0x00004e0c      0x14d .\CortexM3\ARM_GCC_541\Debug\Half_Skeleton_V2_LED_ARRAY.a(wait_interrupt.o)
                                0x337 (size before relaxing)
 .debug_str     0x00004f59       0x60 .\CortexM3\ARM_GCC_541\Debug\Half_Skeleton_V2_LED_ARRAY.a(X_MOT_INT.o)
                                0x209 (size before relaxing)
 .debug_str     0x00004fb9       0x60 .\CortexM3\ARM_GCC_541\Debug\Half_Skeleton_V2_LED_ARRAY.a(Y_MOT_INT.o)
                                0x209 (size before relaxing)
 .debug_str     0x00005019       0x60 .\CortexM3\ARM_GCC_541\Debug\Half_Skeleton_V2_LED_ARRAY.a(Z_MOT_INT.o)
                                0x209 (size before relaxing)
 .debug_str     0x00005079       0x73 .\CortexM3\ARM_GCC_541\Debug\Half_Skeleton_V2_LED_ARRAY.a(Camera_Trigger.o)
                                0x222 (size before relaxing)
 .debug_str     0x000050ec       0x67 .\CortexM3\ARM_GCC_541\Debug\Half_Skeleton_V2_LED_ARRAY.a(Pin_SDI_RGB.o)
                                0x213 (size before relaxing)
 .debug_str     0x00005153       0x6f .\CortexM3\ARM_GCC_541\Debug\Half_Skeleton_V2_LED_ARRAY.a(Pin_Clock_RGB.o)
                                0x21d (size before relaxing)
 .debug_str     0x000051c2       0x7b .\CortexM3\ARM_GCC_541\Debug\Half_Skeleton_V2_LED_ARRAY.a(Pin_MOSI_PCA9959.o)
                                0x22c (size before relaxing)
 .debug_str     0x0000523d       0x77 .\CortexM3\ARM_GCC_541\Debug\Half_Skeleton_V2_LED_ARRAY.a(Pin_SCK_PCA9959.o)
                                0x227 (size before relaxing)
 .debug_str     0x000052b4       0x73 .\CortexM3\ARM_GCC_541\Debug\Half_Skeleton_V2_LED_ARRAY.a(Pin_SS_PCA9959.o)
                                0x222 (size before relaxing)
 .debug_str     0x00005327       0x7b .\CortexM3\ARM_GCC_541\Debug\Half_Skeleton_V2_LED_ARRAY.a(Pin_OE_PCA9959_1.o)
                                0x22c (size before relaxing)
 .debug_str     0x000053a2       0x7b .\CortexM3\ARM_GCC_541\Debug\Half_Skeleton_V2_LED_ARRAY.a(Pin_OE_PCA9959_2.o)
                                0x22c (size before relaxing)
 .debug_str     0x0000541d       0x7b .\CortexM3\ARM_GCC_541\Debug\Half_Skeleton_V2_LED_ARRAY.a(Pin_OE_PCA9959_3.o)
                                0x22c (size before relaxing)
 .debug_str     0x00005498       0x7b .\CortexM3\ARM_GCC_541\Debug\Half_Skeleton_V2_LED_ARRAY.a(Pin_OE_PCA9959_4.o)
                                0x22c (size before relaxing)
 .debug_str     0x00005513       0x77 .\CortexM3\ARM_GCC_541\Debug\Half_Skeleton_V2_LED_ARRAY.a(Pin_RST_PCA9959.o)
                                0x227 (size before relaxing)
 .debug_str     0x0000558a      0x1aa .\CortexM3\ARM_GCC_541\Debug\Half_Skeleton_V2_LED_ARRAY.a(CyFlash.o)
                                0x3c9 (size before relaxing)
 .debug_str     0x00005734       0xac .\CortexM3\ARM_GCC_541\Debug\Half_Skeleton_V2_LED_ARRAY.a(CySpc.o)
                                0x344 (size before relaxing)
 .debug_str     0x000057e0       0x21 .\CortexM3\ARM_GCC_541\Debug\Half_Skeleton_V2_LED_ARRAY.a(USB_cls.o)
                                0x2bc (size before relaxing)
 .debug_str     0x00005801      0x102 .\CortexM3\ARM_GCC_541\Debug\Half_Skeleton_V2_LED_ARRAY.a(USB_descr.o)
                                0x383 (size before relaxing)

.debug_loc      0x00000000     0x6686
 *(.debug_loc)
 .debug_loc     0x00000000     0x1a4d .\CortexM3\ARM_GCC_541\Debug\AS76.o
 .debug_loc     0x00001a4d      0x29a .\CortexM3\ARM_GCC_541\Debug\APA102.o
 .debug_loc     0x00001ce7      0x3b8 .\CortexM3\ARM_GCC_541\Debug\PCA9959.o
 .debug_loc     0x0000209f      0x2bd .\CortexM3\ARM_GCC_541\Debug\cyfitter_cfg.o
 .debug_loc     0x0000235c      0x144 .\CortexM3\ARM_GCC_541\Debug\Cm3Start.o
 .debug_loc     0x000024a0       0x42 .\CortexM3\ARM_GCC_541\Debug\Half_Skeleton_V2_LED_ARRAY.a(Pin_CSMotorX.o)
 .debug_loc     0x000024e2       0x42 .\CortexM3\ARM_GCC_541\Debug\Half_Skeleton_V2_LED_ARRAY.a(Pin_CSMotorY.o)
 .debug_loc     0x00002524       0x42 .\CortexM3\ARM_GCC_541\Debug\Half_Skeleton_V2_LED_ARRAY.a(Pin_CSMotorZ.o)
 .debug_loc     0x00002566      0x20d .\CortexM3\ARM_GCC_541\Debug\Half_Skeleton_V2_LED_ARRAY.a(SPIM.o)
 .debug_loc     0x00002773       0x74 .\CortexM3\ARM_GCC_541\Debug\Half_Skeleton_V2_LED_ARRAY.a(SPIM_INT.o)
 .debug_loc     0x000027e7      0xa11 .\CortexM3\ARM_GCC_541\Debug\Half_Skeleton_V2_LED_ARRAY.a(CyLib.o)
 .debug_loc     0x000031f8      0x1e4 .\CortexM3\ARM_GCC_541\Debug\Half_Skeleton_V2_LED_ARRAY.a(cyPm.o)
 .debug_loc     0x000033dc      0x435 .\CortexM3\ARM_GCC_541\Debug\Half_Skeleton_V2_LED_ARRAY.a(USB.o)
 .debug_loc     0x00003811      0x557 .\CortexM3\ARM_GCC_541\Debug\Half_Skeleton_V2_LED_ARRAY.a(USB_cdc.o)
 .debug_loc     0x00003d68      0x171 .\CortexM3\ARM_GCC_541\Debug\Half_Skeleton_V2_LED_ARRAY.a(USB_drv.o)
 .debug_loc     0x00003ed9      0x397 .\CortexM3\ARM_GCC_541\Debug\Half_Skeleton_V2_LED_ARRAY.a(USB_hid.o)
 .debug_loc     0x00004270       0x26 .\CortexM3\ARM_GCC_541\Debug\Half_Skeleton_V2_LED_ARRAY.a(USB_pm.o)
 .debug_loc     0x00004296      0x945 .\CortexM3\ARM_GCC_541\Debug\Half_Skeleton_V2_LED_ARRAY.a(USB_std.o)
 .debug_loc     0x00004bdb       0x36 .\CortexM3\ARM_GCC_541\Debug\Half_Skeleton_V2_LED_ARRAY.a(USB_vnd.o)
 .debug_loc     0x00004c11       0x84 .\CortexM3\ARM_GCC_541\Debug\Half_Skeleton_V2_LED_ARRAY.a(USB_Dp.o)
 .debug_loc     0x00004c95       0x13 .\CortexM3\ARM_GCC_541\Debug\Half_Skeleton_V2_LED_ARRAY.a(PWM_CondenserLED.o)
 .debug_loc     0x00004ca8      0x128 .\CortexM3\ARM_GCC_541\Debug\Half_Skeleton_V2_LED_ARRAY.a(SPIM_IntClock.o)
 .debug_loc     0x00004dd0       0xb9 .\CortexM3\ARM_GCC_541\Debug\Half_Skeleton_V2_LED_ARRAY.a(QuadDec_X.o)
 .debug_loc     0x00004e89       0x13 .\CortexM3\ARM_GCC_541\Debug\Half_Skeleton_V2_LED_ARRAY.a(QuadDec_X_INT.o)
 .debug_loc     0x00004e9c       0x3d .\CortexM3\ARM_GCC_541\Debug\Half_Skeleton_V2_LED_ARRAY.a(QuadDec_X_Cnt16.o)
 .debug_loc     0x00004ed9      0x34e .\CortexM3\ARM_GCC_541\Debug\Half_Skeleton_V2_LED_ARRAY.a(UART_PCB_LOG.o)
 .debug_loc     0x00005227       0x45 .\CortexM3\ARM_GCC_541\Debug\Half_Skeleton_V2_LED_ARRAY.a(UART_PCB_LOG_INT.o)
 .debug_loc     0x0000526c      0x128 .\CortexM3\ARM_GCC_541\Debug\Half_Skeleton_V2_LED_ARRAY.a(UART_PCB_LOG_IntClock.o)
 .debug_loc     0x00005394       0x42 .\CortexM3\ARM_GCC_541\Debug\Half_Skeleton_V2_LED_ARRAY.a(Pin_Backlight.o)
 .debug_loc     0x000053d6       0x42 .\CortexM3\ARM_GCC_541\Debug\Half_Skeleton_V2_LED_ARRAY.a(LED2.o)
 .debug_loc     0x00005418       0x42 .\CortexM3\ARM_GCC_541\Debug\Half_Skeleton_V2_LED_ARRAY.a(Pin_CSMotorO.o)
 .debug_loc     0x0000545a       0x42 .\CortexM3\ARM_GCC_541\Debug\Half_Skeleton_V2_LED_ARRAY.a(Pin_CSMotorT.o)
 .debug_loc     0x0000549c       0xb9 .\CortexM3\ARM_GCC_541\Debug\Half_Skeleton_V2_LED_ARRAY.a(QuadDec_TZ.o)
 .debug_loc     0x00005555       0x13 .\CortexM3\ARM_GCC_541\Debug\Half_Skeleton_V2_LED_ARRAY.a(QuadDec_TZ_INT.o)
 .debug_loc     0x00005568       0x13 .\CortexM3\ARM_GCC_541\Debug\Half_Skeleton_V2_LED_ARRAY.a(PWM_Buzzer.o)
 .debug_loc     0x0000557b       0xb9 .\CortexM3\ARM_GCC_541\Debug\Half_Skeleton_V2_LED_ARRAY.a(QuadDec_Y.o)
 .debug_loc     0x00005634       0x13 .\CortexM3\ARM_GCC_541\Debug\Half_Skeleton_V2_LED_ARRAY.a(QuadDec_Y_INT.o)
 .debug_loc     0x00005647       0x13 .\CortexM3\ARM_GCC_541\Debug\Half_Skeleton_V2_LED_ARRAY.a(PWM_BarcodeCondenser_LED.o)
 .debug_loc     0x0000565a       0x42 .\CortexM3\ARM_GCC_541\Debug\Half_Skeleton_V2_LED_ARRAY.a(LED3.o)
 .debug_loc     0x0000569c       0x42 .\CortexM3\ARM_GCC_541\Debug\Half_Skeleton_V2_LED_ARRAY.a(TMC5160_MotorX_EN.o)
 .debug_loc     0x000056de       0x42 .\CortexM3\ARM_GCC_541\Debug\Half_Skeleton_V2_LED_ARRAY.a(TMC5160_MotorY_EN.o)
 .debug_loc     0x00005720       0x42 .\CortexM3\ARM_GCC_541\Debug\Half_Skeleton_V2_LED_ARRAY.a(TMC5160_MotorZ_EN.o)
 .debug_loc     0x00005762       0x42 .\CortexM3\ARM_GCC_541\Debug\Half_Skeleton_V2_LED_ARRAY.a(TMC5160_MotorT_EN.o)
 .debug_loc     0x000057a4       0x42 .\CortexM3\ARM_GCC_541\Debug\Half_Skeleton_V2_LED_ARRAY.a(TMC5160_MotorO_EN.o)
 .debug_loc     0x000057e6       0x3d .\CortexM3\ARM_GCC_541\Debug\Half_Skeleton_V2_LED_ARRAY.a(QuadDec_TZ_Cnt16.o)
 .debug_loc     0x00005823       0x3d .\CortexM3\ARM_GCC_541\Debug\Half_Skeleton_V2_LED_ARRAY.a(QuadDec_Y_Cnt16.o)
 .debug_loc     0x00005860       0x56 .\CortexM3\ARM_GCC_541\Debug\Half_Skeleton_V2_LED_ARRAY.a(wait_interrupt.o)
 .debug_loc     0x000058b6       0x42 .\CortexM3\ARM_GCC_541\Debug\Half_Skeleton_V2_LED_ARRAY.a(X_MOT_INT.o)
 .debug_loc     0x000058f8       0x42 .\CortexM3\ARM_GCC_541\Debug\Half_Skeleton_V2_LED_ARRAY.a(Y_MOT_INT.o)
 .debug_loc     0x0000593a       0x42 .\CortexM3\ARM_GCC_541\Debug\Half_Skeleton_V2_LED_ARRAY.a(Z_MOT_INT.o)
 .debug_loc     0x0000597c       0x42 .\CortexM3\ARM_GCC_541\Debug\Half_Skeleton_V2_LED_ARRAY.a(Camera_Trigger.o)
 .debug_loc     0x000059be       0x42 .\CortexM3\ARM_GCC_541\Debug\Half_Skeleton_V2_LED_ARRAY.a(Pin_SDI_RGB.o)
 .debug_loc     0x00005a00       0x42 .\CortexM3\ARM_GCC_541\Debug\Half_Skeleton_V2_LED_ARRAY.a(Pin_Clock_RGB.o)
 .debug_loc     0x00005a42       0x42 .\CortexM3\ARM_GCC_541\Debug\Half_Skeleton_V2_LED_ARRAY.a(Pin_MOSI_PCA9959.o)
 .debug_loc     0x00005a84       0x42 .\CortexM3\ARM_GCC_541\Debug\Half_Skeleton_V2_LED_ARRAY.a(Pin_SCK_PCA9959.o)
 .debug_loc     0x00005ac6       0x42 .\CortexM3\ARM_GCC_541\Debug\Half_Skeleton_V2_LED_ARRAY.a(Pin_SS_PCA9959.o)
 .debug_loc     0x00005b08       0x42 .\CortexM3\ARM_GCC_541\Debug\Half_Skeleton_V2_LED_ARRAY.a(Pin_OE_PCA9959_1.o)
 .debug_loc     0x00005b4a       0x42 .\CortexM3\ARM_GCC_541\Debug\Half_Skeleton_V2_LED_ARRAY.a(Pin_OE_PCA9959_2.o)
 .debug_loc     0x00005b8c       0x42 .\CortexM3\ARM_GCC_541\Debug\Half_Skeleton_V2_LED_ARRAY.a(Pin_OE_PCA9959_3.o)
 .debug_loc     0x00005bce       0x42 .\CortexM3\ARM_GCC_541\Debug\Half_Skeleton_V2_LED_ARRAY.a(Pin_OE_PCA9959_4.o)
 .debug_loc     0x00005c10       0x42 .\CortexM3\ARM_GCC_541\Debug\Half_Skeleton_V2_LED_ARRAY.a(Pin_RST_PCA9959.o)
 .debug_loc     0x00005c52      0x396 .\CortexM3\ARM_GCC_541\Debug\Half_Skeleton_V2_LED_ARRAY.a(CyFlash.o)
 .debug_loc     0x00005fe8      0x61d .\CortexM3\ARM_GCC_541\Debug\Half_Skeleton_V2_LED_ARRAY.a(CySpc.o)
 .debug_loc     0x00006605       0x81 .\CortexM3\ARM_GCC_541\Debug\Half_Skeleton_V2_LED_ARRAY.a(USB_cls.o)

.debug_macinfo
 *(.debug_macinfo)

.debug_ranges   0x00000000     0x1698
 *(.debug_ranges)
 .debug_ranges  0x00000000       0x10 .\CortexM3\ARM_GCC_541\Debug\main.o
 .debug_ranges  0x00000010      0x1d8 .\CortexM3\ARM_GCC_541\Debug\AS76.o
 .debug_ranges  0x000001e8       0x30 .\CortexM3\ARM_GCC_541\Debug\APA102.o
 .debug_ranges  0x00000218       0xb0 .\CortexM3\ARM_GCC_541\Debug\PCA9959.o
 .debug_ranges  0x000002c8       0x50 .\CortexM3\ARM_GCC_541\Debug\cyfitter_cfg.o
 .debug_ranges  0x00000318       0x38 .\CortexM3\ARM_GCC_541\Debug\Cm3Start.o
 .debug_ranges  0x00000350       0x28 .\CortexM3\ARM_GCC_541\Debug\Half_Skeleton_V2_LED_ARRAY.a(Pin_CSMotorX.o)
 .debug_ranges  0x00000378       0x28 .\CortexM3\ARM_GCC_541\Debug\Half_Skeleton_V2_LED_ARRAY.a(Pin_CSMotorY.o)
 .debug_ranges  0x000003a0       0x28 .\CortexM3\ARM_GCC_541\Debug\Half_Skeleton_V2_LED_ARRAY.a(Pin_CSMotorZ.o)
 .debug_ranges  0x000003c8       0xc8 .\CortexM3\ARM_GCC_541\Debug\Half_Skeleton_V2_LED_ARRAY.a(SPIM.o)
 .debug_ranges  0x00000490       0x18 .\CortexM3\ARM_GCC_541\Debug\Half_Skeleton_V2_LED_ARRAY.a(SPIM_INT.o)
 .debug_ranges  0x000004a8      0x290 .\CortexM3\ARM_GCC_541\Debug\Half_Skeleton_V2_LED_ARRAY.a(CyLib.o)
 .debug_ranges  0x00000738       0x88 .\CortexM3\ARM_GCC_541\Debug\Half_Skeleton_V2_LED_ARRAY.a(cyPm.o)
 .debug_ranges  0x000007c0       0xd0 .\CortexM3\ARM_GCC_541\Debug\Half_Skeleton_V2_LED_ARRAY.a(USB.o)
 .debug_ranges  0x00000890       0xd8 .\CortexM3\ARM_GCC_541\Debug\Half_Skeleton_V2_LED_ARRAY.a(USB_cdc.o)
 .debug_ranges  0x00000968       0x88 .\CortexM3\ARM_GCC_541\Debug\Half_Skeleton_V2_LED_ARRAY.a(USB_drv.o)
 .debug_ranges  0x000009f0       0x30 .\CortexM3\ARM_GCC_541\Debug\Half_Skeleton_V2_LED_ARRAY.a(USB_episr.o)
 .debug_ranges  0x00000a20       0x38 .\CortexM3\ARM_GCC_541\Debug\Half_Skeleton_V2_LED_ARRAY.a(USB_hid.o)
 .debug_ranges  0x00000a58       0x30 .\CortexM3\ARM_GCC_541\Debug\Half_Skeleton_V2_LED_ARRAY.a(USB_pm.o)
 .debug_ranges  0x00000a88       0x70 .\CortexM3\ARM_GCC_541\Debug\Half_Skeleton_V2_LED_ARRAY.a(USB_std.o)
 .debug_ranges  0x00000af8       0x10 .\CortexM3\ARM_GCC_541\Debug\Half_Skeleton_V2_LED_ARRAY.a(USB_vnd.o)
 .debug_ranges  0x00000b08       0x38 .\CortexM3\ARM_GCC_541\Debug\Half_Skeleton_V2_LED_ARRAY.a(USB_Dp.o)
 .debug_ranges  0x00000b40       0x68 .\CortexM3\ARM_GCC_541\Debug\Half_Skeleton_V2_LED_ARRAY.a(PWM_CondenserLED.o)
 .debug_ranges  0x00000ba8       0x60 .\CortexM3\ARM_GCC_541\Debug\Half_Skeleton_V2_LED_ARRAY.a(SPIM_IntClock.o)
 .debug_ranges  0x00000c08       0x50 .\CortexM3\ARM_GCC_541\Debug\Half_Skeleton_V2_LED_ARRAY.a(QuadDec_X.o)
 .debug_ranges  0x00000c58       0x10 .\CortexM3\ARM_GCC_541\Debug\Half_Skeleton_V2_LED_ARRAY.a(QuadDec_X_INT.o)
 .debug_ranges  0x00000c68       0x88 .\CortexM3\ARM_GCC_541\Debug\Half_Skeleton_V2_LED_ARRAY.a(QuadDec_X_Cnt16.o)
 .debug_ranges  0x00000cf0       0xe0 .\CortexM3\ARM_GCC_541\Debug\Half_Skeleton_V2_LED_ARRAY.a(UART_PCB_LOG.o)
 .debug_ranges  0x00000dd0       0x10 .\CortexM3\ARM_GCC_541\Debug\Half_Skeleton_V2_LED_ARRAY.a(UART_PCB_LOG_INT.o)
 .debug_ranges  0x00000de0       0x60 .\CortexM3\ARM_GCC_541\Debug\Half_Skeleton_V2_LED_ARRAY.a(UART_PCB_LOG_IntClock.o)
 .debug_ranges  0x00000e40       0x28 .\CortexM3\ARM_GCC_541\Debug\Half_Skeleton_V2_LED_ARRAY.a(Pin_Backlight.o)
 .debug_ranges  0x00000e68       0x28 .\CortexM3\ARM_GCC_541\Debug\Half_Skeleton_V2_LED_ARRAY.a(LED2.o)
 .debug_ranges  0x00000e90       0x28 .\CortexM3\ARM_GCC_541\Debug\Half_Skeleton_V2_LED_ARRAY.a(Pin_CSMotorO.o)
 .debug_ranges  0x00000eb8       0x28 .\CortexM3\ARM_GCC_541\Debug\Half_Skeleton_V2_LED_ARRAY.a(Pin_CSMotorT.o)
 .debug_ranges  0x00000ee0       0x50 .\CortexM3\ARM_GCC_541\Debug\Half_Skeleton_V2_LED_ARRAY.a(QuadDec_TZ.o)
 .debug_ranges  0x00000f30       0x10 .\CortexM3\ARM_GCC_541\Debug\Half_Skeleton_V2_LED_ARRAY.a(QuadDec_TZ_INT.o)
 .debug_ranges  0x00000f40       0x68 .\CortexM3\ARM_GCC_541\Debug\Half_Skeleton_V2_LED_ARRAY.a(PWM_Buzzer.o)
 .debug_ranges  0x00000fa8       0x50 .\CortexM3\ARM_GCC_541\Debug\Half_Skeleton_V2_LED_ARRAY.a(QuadDec_Y.o)
 .debug_ranges  0x00000ff8       0x10 .\CortexM3\ARM_GCC_541\Debug\Half_Skeleton_V2_LED_ARRAY.a(QuadDec_Y_INT.o)
 .debug_ranges  0x00001008       0x68 .\CortexM3\ARM_GCC_541\Debug\Half_Skeleton_V2_LED_ARRAY.a(PWM_BarcodeCondenser_LED.o)
 .debug_ranges  0x00001070       0x28 .\CortexM3\ARM_GCC_541\Debug\Half_Skeleton_V2_LED_ARRAY.a(LED3.o)
 .debug_ranges  0x00001098       0x18 .\CortexM3\ARM_GCC_541\Debug\Half_Skeleton_V2_LED_ARRAY.a(Encoder_T_Z_Select.o)
 .debug_ranges  0x000010b0       0x28 .\CortexM3\ARM_GCC_541\Debug\Half_Skeleton_V2_LED_ARRAY.a(TMC5160_MotorX_EN.o)
 .debug_ranges  0x000010d8       0x28 .\CortexM3\ARM_GCC_541\Debug\Half_Skeleton_V2_LED_ARRAY.a(TMC5160_MotorY_EN.o)
 .debug_ranges  0x00001100       0x28 .\CortexM3\ARM_GCC_541\Debug\Half_Skeleton_V2_LED_ARRAY.a(TMC5160_MotorZ_EN.o)
 .debug_ranges  0x00001128       0x28 .\CortexM3\ARM_GCC_541\Debug\Half_Skeleton_V2_LED_ARRAY.a(TMC5160_MotorT_EN.o)
 .debug_ranges  0x00001150       0x28 .\CortexM3\ARM_GCC_541\Debug\Half_Skeleton_V2_LED_ARRAY.a(TMC5160_MotorO_EN.o)
 .debug_ranges  0x00001178       0x88 .\CortexM3\ARM_GCC_541\Debug\Half_Skeleton_V2_LED_ARRAY.a(QuadDec_TZ_Cnt16.o)
 .debug_ranges  0x00001200       0x88 .\CortexM3\ARM_GCC_541\Debug\Half_Skeleton_V2_LED_ARRAY.a(QuadDec_Y_Cnt16.o)
 .debug_ranges  0x00001288       0x78 .\CortexM3\ARM_GCC_541\Debug\Half_Skeleton_V2_LED_ARRAY.a(wait_timer.o)
 .debug_ranges  0x00001300       0x70 .\CortexM3\ARM_GCC_541\Debug\Half_Skeleton_V2_LED_ARRAY.a(wait_interrupt.o)
 .debug_ranges  0x00001370       0x28 .\CortexM3\ARM_GCC_541\Debug\Half_Skeleton_V2_LED_ARRAY.a(X_MOT_INT.o)
 .debug_ranges  0x00001398       0x28 .\CortexM3\ARM_GCC_541\Debug\Half_Skeleton_V2_LED_ARRAY.a(Y_MOT_INT.o)
 .debug_ranges  0x000013c0       0x28 .\CortexM3\ARM_GCC_541\Debug\Half_Skeleton_V2_LED_ARRAY.a(Z_MOT_INT.o)
 .debug_ranges  0x000013e8       0x28 .\CortexM3\ARM_GCC_541\Debug\Half_Skeleton_V2_LED_ARRAY.a(Camera_Trigger.o)
 .debug_ranges  0x00001410       0x28 .\CortexM3\ARM_GCC_541\Debug\Half_Skeleton_V2_LED_ARRAY.a(Pin_SDI_RGB.o)
 .debug_ranges  0x00001438       0x28 .\CortexM3\ARM_GCC_541\Debug\Half_Skeleton_V2_LED_ARRAY.a(Pin_Clock_RGB.o)
 .debug_ranges  0x00001460       0x28 .\CortexM3\ARM_GCC_541\Debug\Half_Skeleton_V2_LED_ARRAY.a(Pin_MOSI_PCA9959.o)
 .debug_ranges  0x00001488       0x28 .\CortexM3\ARM_GCC_541\Debug\Half_Skeleton_V2_LED_ARRAY.a(Pin_SCK_PCA9959.o)
 .debug_ranges  0x000014b0       0x28 .\CortexM3\ARM_GCC_541\Debug\Half_Skeleton_V2_LED_ARRAY.a(Pin_SS_PCA9959.o)
 .debug_ranges  0x000014d8       0x28 .\CortexM3\ARM_GCC_541\Debug\Half_Skeleton_V2_LED_ARRAY.a(Pin_OE_PCA9959_1.o)
 .debug_ranges  0x00001500       0x28 .\CortexM3\ARM_GCC_541\Debug\Half_Skeleton_V2_LED_ARRAY.a(Pin_OE_PCA9959_2.o)
 .debug_ranges  0x00001528       0x28 .\CortexM3\ARM_GCC_541\Debug\Half_Skeleton_V2_LED_ARRAY.a(Pin_OE_PCA9959_3.o)
 .debug_ranges  0x00001550       0x28 .\CortexM3\ARM_GCC_541\Debug\Half_Skeleton_V2_LED_ARRAY.a(Pin_OE_PCA9959_4.o)
 .debug_ranges  0x00001578       0x28 .\CortexM3\ARM_GCC_541\Debug\Half_Skeleton_V2_LED_ARRAY.a(Pin_RST_PCA9959.o)
 .debug_ranges  0x000015a0       0x78 .\CortexM3\ARM_GCC_541\Debug\Half_Skeleton_V2_LED_ARRAY.a(CyFlash.o)
 .debug_ranges  0x00001618       0x70 .\CortexM3\ARM_GCC_541\Debug\Half_Skeleton_V2_LED_ARRAY.a(CySpc.o)
 .debug_ranges  0x00001688       0x10 .\CortexM3\ARM_GCC_541\Debug\Half_Skeleton_V2_LED_ARRAY.a(USB_cls.o)

.comment        0x00000000       0x6e
 .comment       0x00000000       0x6e .\CortexM3\ARM_GCC_541\Debug\main.o
                                 0x6f (size before relaxing)
 .comment       0x0000006e       0x6f .\CortexM3\ARM_GCC_541\Debug\AS76.o
 .comment       0x0000006e       0x6f .\CortexM3\ARM_GCC_541\Debug\APA102.o
 .comment       0x0000006e       0x6f .\CortexM3\ARM_GCC_541\Debug\PCA9959.o
 .comment       0x0000006e       0x6f .\CortexM3\ARM_GCC_541\Debug\cyfitter_cfg.o
 .comment       0x0000006e       0x6f .\CortexM3\ARM_GCC_541\Debug\cymetadata.o
 .comment       0x0000006e       0x6f .\CortexM3\ARM_GCC_541\Debug\Cm3Start.o
 .comment       0x0000006e       0x6f .\CortexM3\ARM_GCC_541\Debug\Half_Skeleton_V2_LED_ARRAY.a(Pin_CSMotorX.o)
 .comment       0x0000006e       0x6f .\CortexM3\ARM_GCC_541\Debug\Half_Skeleton_V2_LED_ARRAY.a(Pin_CSMotorY.o)
 .comment       0x0000006e       0x6f .\CortexM3\ARM_GCC_541\Debug\Half_Skeleton_V2_LED_ARRAY.a(Pin_CSMotorZ.o)
 .comment       0x0000006e       0x6f .\CortexM3\ARM_GCC_541\Debug\Half_Skeleton_V2_LED_ARRAY.a(SPIM.o)
 .comment       0x0000006e       0x6f .\CortexM3\ARM_GCC_541\Debug\Half_Skeleton_V2_LED_ARRAY.a(SPIM_INT.o)
 .comment       0x0000006e       0x6f .\CortexM3\ARM_GCC_541\Debug\Half_Skeleton_V2_LED_ARRAY.a(CyLib.o)
 .comment       0x0000006e       0x6f .\CortexM3\ARM_GCC_541\Debug\Half_Skeleton_V2_LED_ARRAY.a(cyPm.o)
 .comment       0x0000006e       0x6f .\CortexM3\ARM_GCC_541\Debug\Half_Skeleton_V2_LED_ARRAY.a(USB.o)
 .comment       0x0000006e       0x6f .\CortexM3\ARM_GCC_541\Debug\Half_Skeleton_V2_LED_ARRAY.a(USB_cdc.o)
 .comment       0x0000006e       0x6f .\CortexM3\ARM_GCC_541\Debug\Half_Skeleton_V2_LED_ARRAY.a(USB_drv.o)
 .comment       0x0000006e       0x6f .\CortexM3\ARM_GCC_541\Debug\Half_Skeleton_V2_LED_ARRAY.a(USB_episr.o)
 .comment       0x0000006e       0x6f .\CortexM3\ARM_GCC_541\Debug\Half_Skeleton_V2_LED_ARRAY.a(USB_hid.o)
 .comment       0x0000006e       0x6f .\CortexM3\ARM_GCC_541\Debug\Half_Skeleton_V2_LED_ARRAY.a(USB_pm.o)
 .comment       0x0000006e       0x6f .\CortexM3\ARM_GCC_541\Debug\Half_Skeleton_V2_LED_ARRAY.a(USB_std.o)
 .comment       0x0000006e       0x6f .\CortexM3\ARM_GCC_541\Debug\Half_Skeleton_V2_LED_ARRAY.a(USB_vnd.o)
 .comment       0x0000006e       0x6f .\CortexM3\ARM_GCC_541\Debug\Half_Skeleton_V2_LED_ARRAY.a(USB_Dp.o)
 .comment       0x0000006e       0x6f .\CortexM3\ARM_GCC_541\Debug\Half_Skeleton_V2_LED_ARRAY.a(PWM_CondenserLED.o)
 .comment       0x0000006e       0x6f .\CortexM3\ARM_GCC_541\Debug\Half_Skeleton_V2_LED_ARRAY.a(SPIM_IntClock.o)
 .comment       0x0000006e       0x6f .\CortexM3\ARM_GCC_541\Debug\Half_Skeleton_V2_LED_ARRAY.a(QuadDec_X.o)
 .comment       0x0000006e       0x6f .\CortexM3\ARM_GCC_541\Debug\Half_Skeleton_V2_LED_ARRAY.a(QuadDec_X_INT.o)
 .comment       0x0000006e       0x6f .\CortexM3\ARM_GCC_541\Debug\Half_Skeleton_V2_LED_ARRAY.a(QuadDec_X_Cnt16.o)
 .comment       0x0000006e       0x6f .\CortexM3\ARM_GCC_541\Debug\Half_Skeleton_V2_LED_ARRAY.a(UART_PCB_LOG.o)
 .comment       0x0000006e       0x6f .\CortexM3\ARM_GCC_541\Debug\Half_Skeleton_V2_LED_ARRAY.a(UART_PCB_LOG_INT.o)
 .comment       0x0000006e       0x6f .\CortexM3\ARM_GCC_541\Debug\Half_Skeleton_V2_LED_ARRAY.a(UART_PCB_LOG_IntClock.o)
 .comment       0x0000006e       0x6f .\CortexM3\ARM_GCC_541\Debug\Half_Skeleton_V2_LED_ARRAY.a(Pin_Backlight.o)
 .comment       0x0000006e       0x6f .\CortexM3\ARM_GCC_541\Debug\Half_Skeleton_V2_LED_ARRAY.a(LED2.o)
 .comment       0x0000006e       0x6f .\CortexM3\ARM_GCC_541\Debug\Half_Skeleton_V2_LED_ARRAY.a(Pin_CSMotorO.o)
 .comment       0x0000006e       0x6f .\CortexM3\ARM_GCC_541\Debug\Half_Skeleton_V2_LED_ARRAY.a(Pin_CSMotorT.o)
 .comment       0x0000006e       0x6f .\CortexM3\ARM_GCC_541\Debug\Half_Skeleton_V2_LED_ARRAY.a(QuadDec_TZ.o)
 .comment       0x0000006e       0x6f .\CortexM3\ARM_GCC_541\Debug\Half_Skeleton_V2_LED_ARRAY.a(QuadDec_TZ_INT.o)
 .comment       0x0000006e       0x6f .\CortexM3\ARM_GCC_541\Debug\Half_Skeleton_V2_LED_ARRAY.a(PWM_Buzzer.o)
 .comment       0x0000006e       0x6f .\CortexM3\ARM_GCC_541\Debug\Half_Skeleton_V2_LED_ARRAY.a(QuadDec_Y.o)
 .comment       0x0000006e       0x6f .\CortexM3\ARM_GCC_541\Debug\Half_Skeleton_V2_LED_ARRAY.a(QuadDec_Y_INT.o)
 .comment       0x0000006e       0x6f .\CortexM3\ARM_GCC_541\Debug\Half_Skeleton_V2_LED_ARRAY.a(PWM_BarcodeCondenser_LED.o)
 .comment       0x0000006e       0x6f .\CortexM3\ARM_GCC_541\Debug\Half_Skeleton_V2_LED_ARRAY.a(LED3.o)
 .comment       0x0000006e       0x6f .\CortexM3\ARM_GCC_541\Debug\Half_Skeleton_V2_LED_ARRAY.a(Encoder_T_Z_Select.o)
 .comment       0x0000006e       0x6f .\CortexM3\ARM_GCC_541\Debug\Half_Skeleton_V2_LED_ARRAY.a(TMC5160_MotorX_EN.o)
 .comment       0x0000006e       0x6f .\CortexM3\ARM_GCC_541\Debug\Half_Skeleton_V2_LED_ARRAY.a(TMC5160_MotorY_EN.o)
 .comment       0x0000006e       0x6f .\CortexM3\ARM_GCC_541\Debug\Half_Skeleton_V2_LED_ARRAY.a(TMC5160_MotorZ_EN.o)
 .comment       0x0000006e       0x6f .\CortexM3\ARM_GCC_541\Debug\Half_Skeleton_V2_LED_ARRAY.a(TMC5160_MotorT_EN.o)
 .comment       0x0000006e       0x6f .\CortexM3\ARM_GCC_541\Debug\Half_Skeleton_V2_LED_ARRAY.a(TMC5160_MotorO_EN.o)
 .comment       0x0000006e       0x6f .\CortexM3\ARM_GCC_541\Debug\Half_Skeleton_V2_LED_ARRAY.a(QuadDec_TZ_Cnt16.o)
 .comment       0x0000006e       0x6f .\CortexM3\ARM_GCC_541\Debug\Half_Skeleton_V2_LED_ARRAY.a(QuadDec_Y_Cnt16.o)
 .comment       0x0000006e       0x6f .\CortexM3\ARM_GCC_541\Debug\Half_Skeleton_V2_LED_ARRAY.a(wait_timer.o)
 .comment       0x0000006e       0x6f .\CortexM3\ARM_GCC_541\Debug\Half_Skeleton_V2_LED_ARRAY.a(wait_interrupt.o)
 .comment       0x0000006e       0x6f .\CortexM3\ARM_GCC_541\Debug\Half_Skeleton_V2_LED_ARRAY.a(X_MOT_INT.o)
 .comment       0x0000006e       0x6f .\CortexM3\ARM_GCC_541\Debug\Half_Skeleton_V2_LED_ARRAY.a(Y_MOT_INT.o)
 .comment       0x0000006e       0x6f .\CortexM3\ARM_GCC_541\Debug\Half_Skeleton_V2_LED_ARRAY.a(Z_MOT_INT.o)
 .comment       0x0000006e       0x6f .\CortexM3\ARM_GCC_541\Debug\Half_Skeleton_V2_LED_ARRAY.a(Camera_Trigger.o)
 .comment       0x0000006e       0x6f .\CortexM3\ARM_GCC_541\Debug\Half_Skeleton_V2_LED_ARRAY.a(Pin_SDI_RGB.o)
 .comment       0x0000006e       0x6f .\CortexM3\ARM_GCC_541\Debug\Half_Skeleton_V2_LED_ARRAY.a(Pin_Clock_RGB.o)
 .comment       0x0000006e       0x6f .\CortexM3\ARM_GCC_541\Debug\Half_Skeleton_V2_LED_ARRAY.a(Pin_MOSI_PCA9959.o)
 .comment       0x0000006e       0x6f .\CortexM3\ARM_GCC_541\Debug\Half_Skeleton_V2_LED_ARRAY.a(Pin_SCK_PCA9959.o)
 .comment       0x0000006e       0x6f .\CortexM3\ARM_GCC_541\Debug\Half_Skeleton_V2_LED_ARRAY.a(Pin_SS_PCA9959.o)
 .comment       0x0000006e       0x6f .\CortexM3\ARM_GCC_541\Debug\Half_Skeleton_V2_LED_ARRAY.a(Pin_OE_PCA9959_1.o)
 .comment       0x0000006e       0x6f .\CortexM3\ARM_GCC_541\Debug\Half_Skeleton_V2_LED_ARRAY.a(Pin_OE_PCA9959_2.o)
 .comment       0x0000006e       0x6f .\CortexM3\ARM_GCC_541\Debug\Half_Skeleton_V2_LED_ARRAY.a(Pin_OE_PCA9959_3.o)
 .comment       0x0000006e       0x6f .\CortexM3\ARM_GCC_541\Debug\Half_Skeleton_V2_LED_ARRAY.a(Pin_OE_PCA9959_4.o)
 .comment       0x0000006e       0x6f .\CortexM3\ARM_GCC_541\Debug\Half_Skeleton_V2_LED_ARRAY.a(Pin_RST_PCA9959.o)
 .comment       0x0000006e       0x6f .\CortexM3\ARM_GCC_541\Debug\Half_Skeleton_V2_LED_ARRAY.a(CyFlash.o)
 .comment       0x0000006e       0x6f .\CortexM3\ARM_GCC_541\Debug\Half_Skeleton_V2_LED_ARRAY.a(CySpc.o)
 .comment       0x0000006e       0x6f .\CortexM3\ARM_GCC_541\Debug\Half_Skeleton_V2_LED_ARRAY.a(USB_cls.o)
 .comment       0x0000006e       0x6f .\CortexM3\ARM_GCC_541\Debug\Half_Skeleton_V2_LED_ARRAY.a(USB_descr.o)

.debug_weaknames
 *(.debug_weaknames)

.debug_funcnames
 *(.debug_funcnames)

.debug_typenames
 *(.debug_typenames)

.debug_varnames
 *(.debug_varnames)

.note.gnu.arm.ident
 *(.note.gnu.arm.ident)

.ARM.attributes
                0x00000000       0x29
 *(.ARM.attributes)
 .ARM.attributes
                0x00000000       0x1d c:/program files (x86)/cypress/psoc creator/4.4/psoc creator/import/gnu/arm/5.4.1/bin/../lib/gcc/arm-none-eabi/5.4.1/armv7-m/crti.o
 .ARM.attributes
                0x0000001d       0x2d c:/program files (x86)/cypress/psoc creator/4.4/psoc creator/import/gnu/arm/5.4.1/bin/../lib/gcc/arm-none-eabi/5.4.1/armv7-m/crtbegin.o
 .ARM.attributes
                0x0000004a       0x1b c:/program files (x86)/cypress/psoc creator/4.4/psoc creator/import/gnu/arm/5.4.1/bin/../lib/gcc/arm-none-eabi/5.4.1/../../../../arm-none-eabi/lib/armv7-m/crt0.o
 .ARM.attributes
                0x00000065       0x33 .\CortexM3\ARM_GCC_541\Debug\main.o
 .ARM.attributes
                0x00000098       0x33 .\CortexM3\ARM_GCC_541\Debug\AS76.o
 .ARM.attributes
                0x000000cb       0x33 .\CortexM3\ARM_GCC_541\Debug\APA102.o
 .ARM.attributes
                0x000000fe       0x33 .\CortexM3\ARM_GCC_541\Debug\PCA9959.o
 .ARM.attributes
                0x00000131       0x33 .\CortexM3\ARM_GCC_541\Debug\cyfitter_cfg.o
 .ARM.attributes
                0x00000164       0x33 .\CortexM3\ARM_GCC_541\Debug\cymetadata.o
 .ARM.attributes
                0x00000197       0x33 .\CortexM3\ARM_GCC_541\Debug\Cm3Start.o
 .ARM.attributes
                0x000001ca       0x33 .\CortexM3\ARM_GCC_541\Debug\Half_Skeleton_V2_LED_ARRAY.a(Pin_CSMotorX.o)
 .ARM.attributes
                0x000001fd       0x33 .\CortexM3\ARM_GCC_541\Debug\Half_Skeleton_V2_LED_ARRAY.a(Pin_CSMotorY.o)
 .ARM.attributes
                0x00000230       0x33 .\CortexM3\ARM_GCC_541\Debug\Half_Skeleton_V2_LED_ARRAY.a(Pin_CSMotorZ.o)
 .ARM.attributes
                0x00000263       0x33 .\CortexM3\ARM_GCC_541\Debug\Half_Skeleton_V2_LED_ARRAY.a(SPIM.o)
 .ARM.attributes
                0x00000296       0x33 .\CortexM3\ARM_GCC_541\Debug\Half_Skeleton_V2_LED_ARRAY.a(SPIM_INT.o)
 .ARM.attributes
                0x000002c9       0x33 .\CortexM3\ARM_GCC_541\Debug\Half_Skeleton_V2_LED_ARRAY.a(CyLib.o)
 .ARM.attributes
                0x000002fc       0x33 .\CortexM3\ARM_GCC_541\Debug\Half_Skeleton_V2_LED_ARRAY.a(cyPm.o)
 .ARM.attributes
                0x0000032f       0x33 .\CortexM3\ARM_GCC_541\Debug\Half_Skeleton_V2_LED_ARRAY.a(USB.o)
 .ARM.attributes
                0x00000362       0x33 .\CortexM3\ARM_GCC_541\Debug\Half_Skeleton_V2_LED_ARRAY.a(USB_cdc.o)
 .ARM.attributes
                0x00000395       0x33 .\CortexM3\ARM_GCC_541\Debug\Half_Skeleton_V2_LED_ARRAY.a(USB_drv.o)
 .ARM.attributes
                0x000003c8       0x33 .\CortexM3\ARM_GCC_541\Debug\Half_Skeleton_V2_LED_ARRAY.a(USB_episr.o)
 .ARM.attributes
                0x000003fb       0x33 .\CortexM3\ARM_GCC_541\Debug\Half_Skeleton_V2_LED_ARRAY.a(USB_hid.o)
 .ARM.attributes
                0x0000042e       0x33 .\CortexM3\ARM_GCC_541\Debug\Half_Skeleton_V2_LED_ARRAY.a(USB_pm.o)
 .ARM.attributes
                0x00000461       0x33 .\CortexM3\ARM_GCC_541\Debug\Half_Skeleton_V2_LED_ARRAY.a(USB_std.o)
 .ARM.attributes
                0x00000494       0x33 .\CortexM3\ARM_GCC_541\Debug\Half_Skeleton_V2_LED_ARRAY.a(USB_vnd.o)
 .ARM.attributes
                0x000004c7       0x33 .\CortexM3\ARM_GCC_541\Debug\Half_Skeleton_V2_LED_ARRAY.a(USB_Dp.o)
 .ARM.attributes
                0x000004fa       0x33 .\CortexM3\ARM_GCC_541\Debug\Half_Skeleton_V2_LED_ARRAY.a(PWM_CondenserLED.o)
 .ARM.attributes
                0x0000052d       0x33 .\CortexM3\ARM_GCC_541\Debug\Half_Skeleton_V2_LED_ARRAY.a(SPIM_IntClock.o)
 .ARM.attributes
                0x00000560       0x33 .\CortexM3\ARM_GCC_541\Debug\Half_Skeleton_V2_LED_ARRAY.a(QuadDec_X.o)
 .ARM.attributes
                0x00000593       0x33 .\CortexM3\ARM_GCC_541\Debug\Half_Skeleton_V2_LED_ARRAY.a(QuadDec_X_INT.o)
 .ARM.attributes
                0x000005c6       0x33 .\CortexM3\ARM_GCC_541\Debug\Half_Skeleton_V2_LED_ARRAY.a(QuadDec_X_Cnt16.o)
 .ARM.attributes
                0x000005f9       0x33 .\CortexM3\ARM_GCC_541\Debug\Half_Skeleton_V2_LED_ARRAY.a(UART_PCB_LOG.o)
 .ARM.attributes
                0x0000062c       0x33 .\CortexM3\ARM_GCC_541\Debug\Half_Skeleton_V2_LED_ARRAY.a(UART_PCB_LOG_INT.o)
 .ARM.attributes
                0x0000065f       0x33 .\CortexM3\ARM_GCC_541\Debug\Half_Skeleton_V2_LED_ARRAY.a(UART_PCB_LOG_IntClock.o)
 .ARM.attributes
                0x00000692       0x33 .\CortexM3\ARM_GCC_541\Debug\Half_Skeleton_V2_LED_ARRAY.a(Pin_Backlight.o)
 .ARM.attributes
                0x000006c5       0x33 .\CortexM3\ARM_GCC_541\Debug\Half_Skeleton_V2_LED_ARRAY.a(LED2.o)
 .ARM.attributes
                0x000006f8       0x33 .\CortexM3\ARM_GCC_541\Debug\Half_Skeleton_V2_LED_ARRAY.a(Pin_CSMotorO.o)
 .ARM.attributes
                0x0000072b       0x33 .\CortexM3\ARM_GCC_541\Debug\Half_Skeleton_V2_LED_ARRAY.a(Pin_CSMotorT.o)
 .ARM.attributes
                0x0000075e       0x33 .\CortexM3\ARM_GCC_541\Debug\Half_Skeleton_V2_LED_ARRAY.a(QuadDec_TZ.o)
 .ARM.attributes
                0x00000791       0x33 .\CortexM3\ARM_GCC_541\Debug\Half_Skeleton_V2_LED_ARRAY.a(QuadDec_TZ_INT.o)
 .ARM.attributes
                0x000007c4       0x33 .\CortexM3\ARM_GCC_541\Debug\Half_Skeleton_V2_LED_ARRAY.a(PWM_Buzzer.o)
 .ARM.attributes
                0x000007f7       0x33 .\CortexM3\ARM_GCC_541\Debug\Half_Skeleton_V2_LED_ARRAY.a(QuadDec_Y.o)
 .ARM.attributes
                0x0000082a       0x33 .\CortexM3\ARM_GCC_541\Debug\Half_Skeleton_V2_LED_ARRAY.a(QuadDec_Y_INT.o)
 .ARM.attributes
                0x0000085d       0x33 .\CortexM3\ARM_GCC_541\Debug\Half_Skeleton_V2_LED_ARRAY.a(PWM_BarcodeCondenser_LED.o)
 .ARM.attributes
                0x00000890       0x33 .\CortexM3\ARM_GCC_541\Debug\Half_Skeleton_V2_LED_ARRAY.a(LED3.o)
 .ARM.attributes
                0x000008c3       0x33 .\CortexM3\ARM_GCC_541\Debug\Half_Skeleton_V2_LED_ARRAY.a(Encoder_T_Z_Select.o)
 .ARM.attributes
                0x000008f6       0x33 .\CortexM3\ARM_GCC_541\Debug\Half_Skeleton_V2_LED_ARRAY.a(TMC5160_MotorX_EN.o)
 .ARM.attributes
                0x00000929       0x33 .\CortexM3\ARM_GCC_541\Debug\Half_Skeleton_V2_LED_ARRAY.a(TMC5160_MotorY_EN.o)
 .ARM.attributes
                0x0000095c       0x33 .\CortexM3\ARM_GCC_541\Debug\Half_Skeleton_V2_LED_ARRAY.a(TMC5160_MotorZ_EN.o)
 .ARM.attributes
                0x0000098f       0x33 .\CortexM3\ARM_GCC_541\Debug\Half_Skeleton_V2_LED_ARRAY.a(TMC5160_MotorT_EN.o)
 .ARM.attributes
                0x000009c2       0x33 .\CortexM3\ARM_GCC_541\Debug\Half_Skeleton_V2_LED_ARRAY.a(TMC5160_MotorO_EN.o)
 .ARM.attributes
                0x000009f5       0x33 .\CortexM3\ARM_GCC_541\Debug\Half_Skeleton_V2_LED_ARRAY.a(QuadDec_TZ_Cnt16.o)
 .ARM.attributes
                0x00000a28       0x33 .\CortexM3\ARM_GCC_541\Debug\Half_Skeleton_V2_LED_ARRAY.a(QuadDec_Y_Cnt16.o)
 .ARM.attributes
                0x00000a5b       0x33 .\CortexM3\ARM_GCC_541\Debug\Half_Skeleton_V2_LED_ARRAY.a(wait_timer.o)
 .ARM.attributes
                0x00000a8e       0x33 .\CortexM3\ARM_GCC_541\Debug\Half_Skeleton_V2_LED_ARRAY.a(wait_interrupt.o)
 .ARM.attributes
                0x00000ac1       0x33 .\CortexM3\ARM_GCC_541\Debug\Half_Skeleton_V2_LED_ARRAY.a(X_MOT_INT.o)
 .ARM.attributes
                0x00000af4       0x33 .\CortexM3\ARM_GCC_541\Debug\Half_Skeleton_V2_LED_ARRAY.a(Y_MOT_INT.o)
 .ARM.attributes
                0x00000b27       0x33 .\CortexM3\ARM_GCC_541\Debug\Half_Skeleton_V2_LED_ARRAY.a(Z_MOT_INT.o)
 .ARM.attributes
                0x00000b5a       0x33 .\CortexM3\ARM_GCC_541\Debug\Half_Skeleton_V2_LED_ARRAY.a(Camera_Trigger.o)
 .ARM.attributes
                0x00000b8d       0x33 .\CortexM3\ARM_GCC_541\Debug\Half_Skeleton_V2_LED_ARRAY.a(Pin_SDI_RGB.o)
 .ARM.attributes
                0x00000bc0       0x33 .\CortexM3\ARM_GCC_541\Debug\Half_Skeleton_V2_LED_ARRAY.a(Pin_Clock_RGB.o)
 .ARM.attributes
                0x00000bf3       0x33 .\CortexM3\ARM_GCC_541\Debug\Half_Skeleton_V2_LED_ARRAY.a(Pin_MOSI_PCA9959.o)
 .ARM.attributes
                0x00000c26       0x33 .\CortexM3\ARM_GCC_541\Debug\Half_Skeleton_V2_LED_ARRAY.a(Pin_SCK_PCA9959.o)
 .ARM.attributes
                0x00000c59       0x33 .\CortexM3\ARM_GCC_541\Debug\Half_Skeleton_V2_LED_ARRAY.a(Pin_SS_PCA9959.o)
 .ARM.attributes
                0x00000c8c       0x33 .\CortexM3\ARM_GCC_541\Debug\Half_Skeleton_V2_LED_ARRAY.a(Pin_OE_PCA9959_1.o)
 .ARM.attributes
                0x00000cbf       0x33 .\CortexM3\ARM_GCC_541\Debug\Half_Skeleton_V2_LED_ARRAY.a(Pin_OE_PCA9959_2.o)
 .ARM.attributes
                0x00000cf2       0x33 .\CortexM3\ARM_GCC_541\Debug\Half_Skeleton_V2_LED_ARRAY.a(Pin_OE_PCA9959_3.o)
 .ARM.attributes
                0x00000d25       0x33 .\CortexM3\ARM_GCC_541\Debug\Half_Skeleton_V2_LED_ARRAY.a(Pin_OE_PCA9959_4.o)
 .ARM.attributes
                0x00000d58       0x33 .\CortexM3\ARM_GCC_541\Debug\Half_Skeleton_V2_LED_ARRAY.a(Pin_RST_PCA9959.o)
 .ARM.attributes
                0x00000d8b       0x21 .\CortexM3\ARM_GCC_541\Debug\Half_Skeleton_V2_LED_ARRAY.a(CyBootAsmGnu.o)
 .ARM.attributes
                0x00000dac       0x33 .\CortexM3\ARM_GCC_541\Debug\Half_Skeleton_V2_LED_ARRAY.a(CyFlash.o)
 .ARM.attributes
                0x00000ddf       0x33 .\CortexM3\ARM_GCC_541\Debug\Half_Skeleton_V2_LED_ARRAY.a(CySpc.o)
 .ARM.attributes
                0x00000e12       0x33 .\CortexM3\ARM_GCC_541\Debug\Half_Skeleton_V2_LED_ARRAY.a(USB_cls.o)
 .ARM.attributes
                0x00000e45       0x33 .\CortexM3\ARM_GCC_541\Debug\Half_Skeleton_V2_LED_ARRAY.a(USB_descr.o)
 .ARM.attributes
                0x00000e78       0x2d c:/program files (x86)/cypress/psoc creator/4.4/psoc creator/import/gnu/arm/5.4.1/bin/../lib/gcc/arm-none-eabi/5.4.1/../../../../arm-none-eabi/lib/armv7-m\libm.a(lib_a-w_pow.o)
 .ARM.attributes
                0x00000ea5       0x2d c:/program files (x86)/cypress/psoc creator/4.4/psoc creator/import/gnu/arm/5.4.1/bin/../lib/gcc/arm-none-eabi/5.4.1/../../../../arm-none-eabi/lib/armv7-m\libm.a(lib_a-e_pow.o)
 .ARM.attributes
                0x00000ed2       0x2d c:/program files (x86)/cypress/psoc creator/4.4/psoc creator/import/gnu/arm/5.4.1/bin/../lib/gcc/arm-none-eabi/5.4.1/../../../../arm-none-eabi/lib/armv7-m\libm.a(lib_a-e_sqrt.o)
 .ARM.attributes
                0x00000eff       0x2d c:/program files (x86)/cypress/psoc creator/4.4/psoc creator/import/gnu/arm/5.4.1/bin/../lib/gcc/arm-none-eabi/5.4.1/../../../../arm-none-eabi/lib/armv7-m\libm.a(lib_a-s_fabs.o)
 .ARM.attributes
                0x00000f2c       0x2d c:/program files (x86)/cypress/psoc creator/4.4/psoc creator/import/gnu/arm/5.4.1/bin/../lib/gcc/arm-none-eabi/5.4.1/../../../../arm-none-eabi/lib/armv7-m\libm.a(lib_a-s_finite.o)
 .ARM.attributes
                0x00000f59       0x2d c:/program files (x86)/cypress/psoc creator/4.4/psoc creator/import/gnu/arm/5.4.1/bin/../lib/gcc/arm-none-eabi/5.4.1/../../../../arm-none-eabi/lib/armv7-m\libm.a(lib_a-s_lib_ver.o)
 .ARM.attributes
                0x00000f86       0x2d c:/program files (x86)/cypress/psoc creator/4.4/psoc creator/import/gnu/arm/5.4.1/bin/../lib/gcc/arm-none-eabi/5.4.1/../../../../arm-none-eabi/lib/armv7-m\libm.a(lib_a-s_matherr.o)
 .ARM.attributes
                0x00000fb3       0x2d c:/program files (x86)/cypress/psoc creator/4.4/psoc creator/import/gnu/arm/5.4.1/bin/../lib/gcc/arm-none-eabi/5.4.1/../../../../arm-none-eabi/lib/armv7-m\libm.a(lib_a-s_nan.o)
 .ARM.attributes
                0x00000fe0       0x2d c:/program files (x86)/cypress/psoc creator/4.4/psoc creator/import/gnu/arm/5.4.1/bin/../lib/gcc/arm-none-eabi/5.4.1/../../../../arm-none-eabi/lib/armv7-m\libm.a(lib_a-s_rint.o)
 .ARM.attributes
                0x0000100d       0x2d c:/program files (x86)/cypress/psoc creator/4.4/psoc creator/import/gnu/arm/5.4.1/bin/../lib/gcc/arm-none-eabi/5.4.1/../../../../arm-none-eabi/lib/armv7-m\libm.a(lib_a-s_scalbn.o)
 .ARM.attributes
                0x0000103a       0x2d c:/program files (x86)/cypress/psoc creator/4.4/psoc creator/import/gnu/arm/5.4.1/bin/../lib/gcc/arm-none-eabi/5.4.1/../../../../arm-none-eabi/lib/armv7-m\libm.a(lib_a-s_copysign.o)
 .ARM.attributes
                0x00001067       0x1d c:/program files (x86)/cypress/psoc creator/4.4/psoc creator/import/gnu/arm/5.4.1/bin/../lib/gcc/arm-none-eabi/5.4.1/armv7-m\libgcc.a(_arm_addsubdf3.o)
 .ARM.attributes
                0x00001084       0x1d c:/program files (x86)/cypress/psoc creator/4.4/psoc creator/import/gnu/arm/5.4.1/bin/../lib/gcc/arm-none-eabi/5.4.1/armv7-m\libgcc.a(_arm_muldivdf3.o)
 .ARM.attributes
                0x000010a1       0x1d c:/program files (x86)/cypress/psoc creator/4.4/psoc creator/import/gnu/arm/5.4.1/bin/../lib/gcc/arm-none-eabi/5.4.1/armv7-m\libgcc.a(_arm_cmpdf2.o)
 .ARM.attributes
                0x000010be       0x1d c:/program files (x86)/cypress/psoc creator/4.4/psoc creator/import/gnu/arm/5.4.1/bin/../lib/gcc/arm-none-eabi/5.4.1/armv7-m\libgcc.a(_arm_unorddf2.o)
 .ARM.attributes
                0x000010db       0x1d c:/program files (x86)/cypress/psoc creator/4.4/psoc creator/import/gnu/arm/5.4.1/bin/../lib/gcc/arm-none-eabi/5.4.1/armv7-m\libgcc.a(_arm_fixdfsi.o)
 .ARM.attributes
                0x000010f8       0x1d c:/program files (x86)/cypress/psoc creator/4.4/psoc creator/import/gnu/arm/5.4.1/bin/../lib/gcc/arm-none-eabi/5.4.1/armv7-m\libgcc.a(_arm_fixunsdfsi.o)
 .ARM.attributes
                0x00001115       0x1d c:/program files (x86)/cypress/psoc creator/4.4/psoc creator/import/gnu/arm/5.4.1/bin/../lib/gcc/arm-none-eabi/5.4.1/armv7-m\libgcc.a(_arm_truncdfsf2.o)
 .ARM.attributes
                0x00001132       0x1d c:/program files (x86)/cypress/psoc creator/4.4/psoc creator/import/gnu/arm/5.4.1/bin/../lib/gcc/arm-none-eabi/5.4.1/armv7-m\libgcc.a(_arm_addsubsf3.o)
 .ARM.attributes
                0x0000114f       0x1d c:/program files (x86)/cypress/psoc creator/4.4/psoc creator/import/gnu/arm/5.4.1/bin/../lib/gcc/arm-none-eabi/5.4.1/armv7-m\libgcc.a(_arm_muldivsf3.o)
 .ARM.attributes
                0x0000116c       0x2d c:/program files (x86)/cypress/psoc creator/4.4/psoc creator/import/gnu/arm/5.4.1/bin/../lib/gcc/arm-none-eabi/5.4.1/../../../../arm-none-eabi/lib/armv7-m\libg_nano.a(lib_a-errno.o)
 .ARM.attributes
                0x00001199       0x2d c:/program files (x86)/cypress/psoc creator/4.4/psoc creator/import/gnu/arm/5.4.1/bin/../lib/gcc/arm-none-eabi/5.4.1/../../../../arm-none-eabi/lib/armv7-m\libg_nano.a(lib_a-exit.o)
 .ARM.attributes
                0x000011c6       0x2d c:/program files (x86)/cypress/psoc creator/4.4/psoc creator/import/gnu/arm/5.4.1/bin/../lib/gcc/arm-none-eabi/5.4.1/../../../../arm-none-eabi/lib/armv7-m\libg_nano.a(lib_a-impure.o)
 .ARM.attributes
                0x000011f3       0x2d c:/program files (x86)/cypress/psoc creator/4.4/psoc creator/import/gnu/arm/5.4.1/bin/../lib/gcc/arm-none-eabi/5.4.1/../../../../arm-none-eabi/lib/armv7-m\libg_nano.a(lib_a-init.o)
 .ARM.attributes
                0x00001220       0x2d c:/program files (x86)/cypress/psoc creator/4.4/psoc creator/import/gnu/arm/5.4.1/bin/../lib/gcc/arm-none-eabi/5.4.1/../../../../arm-none-eabi/lib/armv7-m\libg_nano.a(lib_a-memcpy-stub.o)
 .ARM.attributes
                0x0000124d       0x2d c:/program files (x86)/cypress/psoc creator/4.4/psoc creator/import/gnu/arm/5.4.1/bin/../lib/gcc/arm-none-eabi/5.4.1/../../../../arm-none-eabi/lib/armv7-m\libg_nano.a(lib_a-memset.o)
 .ARM.attributes
                0x0000127a       0x2d c:/program files (x86)/cypress/psoc creator/4.4/psoc creator/import/gnu/arm/5.4.1/bin/../lib/gcc/arm-none-eabi/5.4.1/../../../../arm-none-eabi/lib/armv7-m\libg_nano.a(lib_a-sprintf.o)
 .ARM.attributes
                0x000012a7       0x2d c:/program files (x86)/cypress/psoc creator/4.4/psoc creator/import/gnu/arm/5.4.1/bin/../lib/gcc/arm-none-eabi/5.4.1/../../../../arm-none-eabi/lib/armv7-m\libg_nano.a(lib_a-nano-svfprintf.o)
 .ARM.attributes
                0x000012d4       0x2d c:/program files (x86)/cypress/psoc creator/4.4/psoc creator/import/gnu/arm/5.4.1/bin/../lib/gcc/arm-none-eabi/5.4.1/../../../../arm-none-eabi/lib/armv7-m\libg_nano.a(lib_a-nano-vfprintf_i.o)
 .ARM.attributes
                0x00001301       0x2d c:/program files (x86)/cypress/psoc creator/4.4/psoc creator/import/gnu/arm/5.4.1/bin/../lib/gcc/arm-none-eabi/5.4.1/../../../../arm-none-eabi/lib/armv7-m\libg_nano.a(lib_a-memchr-stub.o)
 .ARM.attributes
                0x0000132e       0x2d c:/program files (x86)/cypress/psoc creator/4.4/psoc creator/import/gnu/arm/5.4.1/bin/../lib/gcc/arm-none-eabi/5.4.1/../../../../arm-none-eabi/lib/armv7-m\libg_nano.a(lib_a-memmove.o)
 .ARM.attributes
                0x0000135b       0x2d c:/program files (x86)/cypress/psoc creator/4.4/psoc creator/import/gnu/arm/5.4.1/bin/../lib/gcc/arm-none-eabi/5.4.1/../../../../arm-none-eabi/lib/armv7-m\libg_nano.a(lib_a-nano-freer.o)
 .ARM.attributes
                0x00001388       0x2d c:/program files (x86)/cypress/psoc creator/4.4/psoc creator/import/gnu/arm/5.4.1/bin/../lib/gcc/arm-none-eabi/5.4.1/../../../../arm-none-eabi/lib/armv7-m\libg_nano.a(lib_a-nano-mallocr.o)
 .ARM.attributes
                0x000013b5       0x2d c:/program files (x86)/cypress/psoc creator/4.4/psoc creator/import/gnu/arm/5.4.1/bin/../lib/gcc/arm-none-eabi/5.4.1/../../../../arm-none-eabi/lib/armv7-m\libg_nano.a(lib_a-nano-reallocr.o)
 .ARM.attributes
                0x000013e2       0x2d c:/program files (x86)/cypress/psoc creator/4.4/psoc creator/import/gnu/arm/5.4.1/bin/../lib/gcc/arm-none-eabi/5.4.1/../../../../arm-none-eabi/lib/armv7-m\libg_nano.a(lib_a-sbrkr.o)
 .ARM.attributes
                0x0000140f       0x2d c:/program files (x86)/cypress/psoc creator/4.4/psoc creator/import/gnu/arm/5.4.1/bin/../lib/gcc/arm-none-eabi/5.4.1/../../../../arm-none-eabi/lib/armv7-m\libg_nano.a(lib_a-mlock.o)
 .ARM.attributes
                0x0000143c       0x2d c:/program files (x86)/cypress/psoc creator/4.4/psoc creator/import/gnu/arm/5.4.1/bin/../lib/gcc/arm-none-eabi/5.4.1/../../../../arm-none-eabi/lib/armv7-m\libg_nano.a(lib_a-nano-msizer.o)
 .ARM.attributes
                0x00001469       0x2d c:/program files (x86)/cypress/psoc creator/4.4/psoc creator/import/gnu/arm/5.4.1/bin/../lib/gcc/arm-none-eabi/5.4.1/../../../../arm-none-eabi/lib/armv7-m\libg_nano.a(lib_a-reent.o)
 .ARM.attributes
                0x00001496       0x2d c:/program files (x86)/cypress/psoc creator/4.4/psoc creator/import/gnu/arm/5.4.1/bin/../lib/gcc/arm-none-eabi/5.4.1/armv7-m/crtend.o
 .ARM.attributes
                0x000014c3       0x1d c:/program files (x86)/cypress/psoc creator/4.4/psoc creator/import/gnu/arm/5.4.1/bin/../lib/gcc/arm-none-eabi/5.4.1/armv7-m/crtn.o

/DISCARD/
 *(.note.GNU-stack)
OUTPUT(C:\Users\Revanth\Documents\GitHub\AS76_FFP\AS76_FFP\Half_Skeleton_V2_LED_ARRAY.cydsn\CortexM3\ARM_GCC_541\Debug\Half_Skeleton_V2_LED_ARRAY.elf elf32-littlearm)
