ARM GAS  C:\Users\Revanth\AppData\Local\Temp\ccqs06ys.s 			page 1


   1              		.syntax unified
   2              		.cpu cortex-m3
   3              		.fpu softvfp
   4              		.eabi_attribute 20, 1
   5              		.eabi_attribute 21, 1
   6              		.eabi_attribute 23, 3
   7              		.eabi_attribute 24, 1
   8              		.eabi_attribute 25, 1
   9              		.eabi_attribute 26, 1
  10              		.eabi_attribute 30, 1
  11              		.eabi_attribute 34, 1
  12              		.eabi_attribute 18, 4
  13              		.thumb
  14              		.syntax unified
  15              		.file	"PCA9959.c"
  16              		.text
  17              	.Ltext0:
  18              		.cfi_sections	.debug_frame
  19              		.section	.text.PCA9959_dummy,"ax",%progbits
  20              		.align	2
  21              		.global	PCA9959_dummy
  22              		.thumb
  23              		.thumb_func
  24              		.type	PCA9959_dummy, %function
  25              	PCA9959_dummy:
  26              	.LFB82:
  27              		.file 1 "PCA9959.c"
   1:PCA9959.c     **** /* ========================================
   2:PCA9959.c     ****  *
   3:PCA9959.c     ****  * Copyright YOUR COMPANY, THE YEAR
   4:PCA9959.c     ****  * All Rights Reserved
   5:PCA9959.c     ****  * UNPUBLISHED, LICENSED SOFTWARE.
   6:PCA9959.c     ****  *
   7:PCA9959.c     ****  * CONFIDENTIAL AND PROPRIETARY INFORMATION
   8:PCA9959.c     ****  * WHICH IS THE PROPERTY OF your company.
   9:PCA9959.c     ****  *
  10:PCA9959.c     ****  * ========================================
  11:PCA9959.c     **** */
  12:PCA9959.c     **** 
  13:PCA9959.c     **** /* [] END OF FILE */
  14:PCA9959.c     **** #include "PCA9959.h"
  15:PCA9959.c     **** 
  16:PCA9959.c     **** /*Variables*/
  17:PCA9959.c     **** 
  18:PCA9959.c     **** uint16_t RX = 0;
  19:PCA9959.c     **** uint16_t TX = 0;
  20:PCA9959.c     **** uint8_t  RegAddr = 0x00;
  21:PCA9959.c     **** uint8_t  Data = 0x00;
  22:PCA9959.c     **** _Bool Op =1;
  23:PCA9959.c     **** uint8_t PgSl = 0;
  24:PCA9959.c     **** 
  25:PCA9959.c     **** ///////////////////////////////////////////////////////////////////////////////////////
  26:PCA9959.c     **** 
  27:PCA9959.c     **** void PageSel_1(_Bool Sel)
  28:PCA9959.c     **** {
  29:PCA9959.c     ****     if(Sel == 0)
  30:PCA9959.c     ****     {
ARM GAS  C:\Users\Revanth\AppData\Local\Temp\ccqs06ys.s 			page 2


  31:PCA9959.c     ****         RegAddr = 0x0B;
  32:PCA9959.c     ****         Data    = 0x00;                                 //Page 0, i.e Grid Registers selected
  33:PCA9959.c     ****         PCA9959_Write_1(RegAddr, Data);
  34:PCA9959.c     ****     }
  35:PCA9959.c     ****     else
  36:PCA9959.c     ****     {
  37:PCA9959.c     ****         RegAddr = 0X0B;
  38:PCA9959.c     ****         Data    = 0x80;                                 //Page 1, i.e Channel Registers selected 
  39:PCA9959.c     ****         PCA9959_Write_1(RegAddr, Data);
  40:PCA9959.c     ****     }
  41:PCA9959.c     **** }
  42:PCA9959.c     **** 
  43:PCA9959.c     **** void PageSel_2(_Bool Sel)
  44:PCA9959.c     **** {
  45:PCA9959.c     ****     if(Sel == 0)
  46:PCA9959.c     ****     {
  47:PCA9959.c     ****         RegAddr = 0x0B;
  48:PCA9959.c     ****         Data    = 0x00;                                 //Page 0, i.e Grid Registers selected
  49:PCA9959.c     ****         PCA9959_Write_2(RegAddr, Data);
  50:PCA9959.c     ****     }
  51:PCA9959.c     ****     else
  52:PCA9959.c     ****     {
  53:PCA9959.c     ****         RegAddr = 0X0B;
  54:PCA9959.c     ****         Data    = 0x80;                                 //Page 1, i.e Channel Registers selected 
  55:PCA9959.c     ****         PCA9959_Write_2(RegAddr, Data);
  56:PCA9959.c     ****     }
  57:PCA9959.c     **** }
  58:PCA9959.c     **** 
  59:PCA9959.c     **** void PageSel_3(_Bool Sel)
  60:PCA9959.c     **** {
  61:PCA9959.c     ****     if(Sel == 0)
  62:PCA9959.c     ****     {
  63:PCA9959.c     ****         RegAddr = 0x0B;
  64:PCA9959.c     ****         Data    = 0x00;                                 //Page 0, i.e Grid Registers selected
  65:PCA9959.c     ****         PCA9959_Write_3(RegAddr, Data);
  66:PCA9959.c     ****     }
  67:PCA9959.c     ****     else
  68:PCA9959.c     ****     {
  69:PCA9959.c     ****         RegAddr = 0X0B;
  70:PCA9959.c     ****         Data    = 0x80;                                 //Page 1, i.e Channel Registers selected 
  71:PCA9959.c     ****         PCA9959_Write_3(RegAddr, Data);
  72:PCA9959.c     ****     }
  73:PCA9959.c     **** }
  74:PCA9959.c     **** 
  75:PCA9959.c     **** void PageSel_4(_Bool Sel)
  76:PCA9959.c     **** {
  77:PCA9959.c     ****     if(Sel == 0)
  78:PCA9959.c     ****     {
  79:PCA9959.c     ****         RegAddr = 0x0B;
  80:PCA9959.c     ****         Data    = 0x00;                                 //Page 0, i.e Grid Registers selected
  81:PCA9959.c     ****         PCA9959_Write_4(RegAddr, Data);
  82:PCA9959.c     ****     }
  83:PCA9959.c     ****     else
  84:PCA9959.c     ****     {
  85:PCA9959.c     ****         RegAddr = 0X0B;
  86:PCA9959.c     ****         Data    = 0x80;                                 //Page 1, i.e Channel Registers selected 
  87:PCA9959.c     ****         PCA9959_Write_4(RegAddr, Data);
ARM GAS  C:\Users\Revanth\AppData\Local\Temp\ccqs06ys.s 			page 3


  88:PCA9959.c     ****     }
  89:PCA9959.c     **** }
  90:PCA9959.c     **** 
  91:PCA9959.c     **** //////////////////////////////////////////////////////////////////////////////////////
  92:PCA9959.c     **** 
  93:PCA9959.c     **** void PCA9959_Init_1(void)
  94:PCA9959.c     **** {
  95:PCA9959.c     **** 
  96:PCA9959.c     ****     PCA9959_Write_1(Mode2, 0x18);
  97:PCA9959.c     ****     Pin_OE_PCA9959_1_Write(1);                                      /*Disable all channels. */
  98:PCA9959.c     ****     PCA9959_Write_1(Side_Ctl, 0x00);                       //Side 0 to be written to and executed
  99:PCA9959.c     ****     PageSel_1(GdSel);
 100:PCA9959.c     ****     PCA9959_Write_1(Grd0_Cf, 0x01);                       //LED Channels mapped to Group O use the 
 101:PCA9959.c     **** //    CyDelay(100);
 102:PCA9959.c     **** 
 103:PCA9959.c     **** }
 104:PCA9959.c     **** 
 105:PCA9959.c     **** void PCA9959_Init_2(void)
 106:PCA9959.c     **** {
 107:PCA9959.c     ****     PCA9959_Write_2(Mode2, 0x18);
 108:PCA9959.c     ****     Pin_OE_PCA9959_2_Write(1);                                      /*Disable all channels. */
 109:PCA9959.c     ****     PCA9959_Write_2(Side_Ctl, 0x00);                       //Side 0 to be written to and executed
 110:PCA9959.c     ****     PageSel_2(GdSel);
 111:PCA9959.c     ****     PCA9959_Write_2(Grd0_Cf, 0x01);                       //LED Channels mapped to Group O use the 
 112:PCA9959.c     **** //    CyDelay(100);
 113:PCA9959.c     **** 
 114:PCA9959.c     **** }
 115:PCA9959.c     **** 
 116:PCA9959.c     **** void PCA9959_Init_3(void)
 117:PCA9959.c     **** {
 118:PCA9959.c     ****     PCA9959_Write_3(Mode2, 0x18);
 119:PCA9959.c     ****     Pin_OE_PCA9959_3_Write(1);                                      /*Disable all channels. */
 120:PCA9959.c     ****     PCA9959_Write_3(Side_Ctl, 0x00);                       //Side 0 to be written to and executed
 121:PCA9959.c     ****     PageSel_3(GdSel);
 122:PCA9959.c     ****     PCA9959_Write_3(Grd0_Cf, 0x01);                       //LED Channels mapped to Group O use the 
 123:PCA9959.c     **** //    CyDelay(100);
 124:PCA9959.c     **** 
 125:PCA9959.c     **** }
 126:PCA9959.c     **** 
 127:PCA9959.c     **** void PCA9959_Init_4(void)
 128:PCA9959.c     **** {
 129:PCA9959.c     ****     PCA9959_Write_4(Mode2, 0x18);
 130:PCA9959.c     ****     Pin_OE_PCA9959_4_Write(1);                                      /*Disable all channels. */
 131:PCA9959.c     ****     PCA9959_Write_4(Side_Ctl, 0x00);                       //Side 0 to be written to and executed
 132:PCA9959.c     ****     PageSel_4(GdSel);
 133:PCA9959.c     ****     PCA9959_Write_4(Grd0_Cf, 0x01);                       //LED Channels mapped to Group O use the 
 134:PCA9959.c     **** //    CyDelay(100);
 135:PCA9959.c     **** 
 136:PCA9959.c     **** }
 137:PCA9959.c     **** 
 138:PCA9959.c     **** void PCA9959_Init_all(void)
 139:PCA9959.c     **** {
 140:PCA9959.c     ****    Reset_Driver();
 141:PCA9959.c     ****    PCA9959_Init_1();
 142:PCA9959.c     ****    PCA9959_Init_2();
 143:PCA9959.c     ****    PCA9959_Init_3();
 144:PCA9959.c     ****    PCA9959_Init_4();
ARM GAS  C:\Users\Revanth\AppData\Local\Temp\ccqs06ys.s 			page 4


 145:PCA9959.c     **** }
 146:PCA9959.c     **** 
 147:PCA9959.c     **** ///////////////////////////////////////////////////////////////////////////////////////
 148:PCA9959.c     **** 
 149:PCA9959.c     **** void PCA9959_Write_1(uint8_t regaddr_w, uint8_t data_w)
 150:PCA9959.c     **** {
 151:PCA9959.c     ****     Op = Write;   
 152:PCA9959.c     ****     TX = ((((regaddr_w << 1) | Op) << 8) | data_w );    //Evaluate TX so that Write operation can b
 153:PCA9959.c     ****     PCA_16Bit_TxOp_1(TX);                                 //Send Write command with register addres
 154:PCA9959.c     **** //    CyDelayUs(1);
 155:PCA9959.c     ****     
 156:PCA9959.c     **** }
 157:PCA9959.c     **** 
 158:PCA9959.c     **** void PCA9959_Write_2(uint8_t regaddr_w, uint8_t data_w)
 159:PCA9959.c     **** {
 160:PCA9959.c     ****     Op = Write;   
 161:PCA9959.c     ****     TX = ((((regaddr_w << 1) | Op) << 8) | data_w );    //Evaluate TX so that Write operation can b
 162:PCA9959.c     ****     PCA_16Bit_TxOp_2(TX);                                 //Send Write command with register addres
 163:PCA9959.c     **** //    CyDelayUs(1);
 164:PCA9959.c     ****     
 165:PCA9959.c     **** }
 166:PCA9959.c     **** 
 167:PCA9959.c     **** void PCA9959_Write_3(uint8_t regaddr_w, uint8_t data_w)
 168:PCA9959.c     **** {
 169:PCA9959.c     ****     Op = Write;   
 170:PCA9959.c     ****     TX = ((((regaddr_w << 1) | Op) << 8) | data_w );    //Evaluate TX so that Write operation can b
 171:PCA9959.c     ****     PCA_16Bit_TxOp_3(TX);                                 //Send Write command with register addres
 172:PCA9959.c     **** //    CyDelayUs(1);
 173:PCA9959.c     ****     
 174:PCA9959.c     **** }
 175:PCA9959.c     **** 
 176:PCA9959.c     **** void PCA9959_Write_4(uint8_t regaddr_w, uint8_t data_w)
 177:PCA9959.c     **** {
 178:PCA9959.c     ****     Op = Write;   
 179:PCA9959.c     ****     TX = ((((regaddr_w << 1) | Op) << 8) | data_w );    //Evaluate TX so that Write operation can b
 180:PCA9959.c     ****     PCA_16Bit_TxOp_4(TX);                                 //Send Write command with register addres
 181:PCA9959.c     **** //    CyDelayUs(1);
 182:PCA9959.c     ****     
 183:PCA9959.c     **** }
 184:PCA9959.c     **** 
 185:PCA9959.c     **** ///////////////////////////////////////////////////////////////////////////////////////
 186:PCA9959.c     **** 
 187:PCA9959.c     **** void PCA_16Bit_TxOp_1(uint16_t PCA_Tx16Bit)
 188:PCA9959.c     **** {
 189:PCA9959.c     ****     uint8_t i=0;
 190:PCA9959.c     ****     Pin_SCK_PCA9959_Write(0);
 191:PCA9959.c     ****     Pin_SS_PCA9959_Write(0);
 192:PCA9959.c     ****     CyDelayUs(1);
 193:PCA9959.c     ****     
 194:PCA9959.c     ****     PCA9959_dummy();
 195:PCA9959.c     ****     
 196:PCA9959.c     ****     for(i=16;i>0;i--)
 197:PCA9959.c     ****     {
 198:PCA9959.c     ****       Pin_MOSI_PCA9959_Write((uint8)((PCA_Tx16Bit >> (i-1))&0x01));
 199:PCA9959.c     ****       Pin_SCK_PCA9959_Write(0);
 200:PCA9959.c     ****       CyDelayUs(1);
 201:PCA9959.c     ****       Pin_SCK_PCA9959_Write(1);
ARM GAS  C:\Users\Revanth\AppData\Local\Temp\ccqs06ys.s 			page 5


 202:PCA9959.c     ****       CyDelayUs(1);
 203:PCA9959.c     ****     }
 204:PCA9959.c     ****     
 205:PCA9959.c     ****     PCA9959_dummy();
 206:PCA9959.c     ****     PCA9959_dummy();
 207:PCA9959.c     ****     
 208:PCA9959.c     ****     Pin_SCK_PCA9959_Write(0);
 209:PCA9959.c     ****     Pin_SS_PCA9959_Write(1);
 210:PCA9959.c     ****     
 211:PCA9959.c     **** }
 212:PCA9959.c     **** 
 213:PCA9959.c     **** void PCA_16Bit_TxOp_2(uint16_t PCA_Tx16Bit)
 214:PCA9959.c     **** {
 215:PCA9959.c     ****     uint8_t i=0;
 216:PCA9959.c     ****     Pin_SCK_PCA9959_Write(0);
 217:PCA9959.c     ****     Pin_SS_PCA9959_Write(0);
 218:PCA9959.c     ****     CyDelayUs(1);
 219:PCA9959.c     ****     
 220:PCA9959.c     ****     PCA9959_dummy();
 221:PCA9959.c     ****     PCA9959_dummy();
 222:PCA9959.c     ****     PCA9959_dummy();
 223:PCA9959.c     ****     
 224:PCA9959.c     ****     for(i=16;i>0;i--)
 225:PCA9959.c     ****     {
 226:PCA9959.c     ****       Pin_MOSI_PCA9959_Write((uint8)((PCA_Tx16Bit >> (i-1))&0x01));
 227:PCA9959.c     ****       Pin_SCK_PCA9959_Write(0);
 228:PCA9959.c     ****       CyDelayUs(1);
 229:PCA9959.c     ****       Pin_SCK_PCA9959_Write(1);
 230:PCA9959.c     ****       CyDelayUs(1);
 231:PCA9959.c     ****     }
 232:PCA9959.c     ****     Pin_SCK_PCA9959_Write(0);
 233:PCA9959.c     ****     Pin_SS_PCA9959_Write(1);
 234:PCA9959.c     ****     
 235:PCA9959.c     **** }
 236:PCA9959.c     **** 
 237:PCA9959.c     **** void PCA_16Bit_TxOp_3(uint16_t PCA_Tx16Bit)
 238:PCA9959.c     **** {
 239:PCA9959.c     ****     uint8_t i=0;
 240:PCA9959.c     ****     Pin_SCK_PCA9959_Write(0);
 241:PCA9959.c     ****     Pin_SS_PCA9959_Write(0);
 242:PCA9959.c     ****     CyDelayUs(1);
 243:PCA9959.c     ****     
 244:PCA9959.c     ****     for(i=16;i>0;i--)
 245:PCA9959.c     ****     {
 246:PCA9959.c     ****       Pin_MOSI_PCA9959_Write((uint8)((PCA_Tx16Bit >> (i-1))&0x01));
 247:PCA9959.c     ****       Pin_SCK_PCA9959_Write(0);
 248:PCA9959.c     ****       CyDelayUs(1);
 249:PCA9959.c     ****       Pin_SCK_PCA9959_Write(1);
 250:PCA9959.c     ****       CyDelayUs(1);
 251:PCA9959.c     ****     }
 252:PCA9959.c     ****     
 253:PCA9959.c     ****     PCA9959_dummy();
 254:PCA9959.c     ****     PCA9959_dummy();
 255:PCA9959.c     ****     PCA9959_dummy();
 256:PCA9959.c     ****     
 257:PCA9959.c     ****     Pin_SCK_PCA9959_Write(0);
 258:PCA9959.c     ****     Pin_SS_PCA9959_Write(1);
ARM GAS  C:\Users\Revanth\AppData\Local\Temp\ccqs06ys.s 			page 6


 259:PCA9959.c     ****     
 260:PCA9959.c     **** }
 261:PCA9959.c     **** 
 262:PCA9959.c     **** void PCA_16Bit_TxOp_4(uint16_t PCA_Tx16Bit)
 263:PCA9959.c     **** {
 264:PCA9959.c     ****     uint8_t i=0;
 265:PCA9959.c     ****     Pin_SCK_PCA9959_Write(0);
 266:PCA9959.c     ****     Pin_SS_PCA9959_Write(0);
 267:PCA9959.c     ****     CyDelayUs(1);
 268:PCA9959.c     ****     
 269:PCA9959.c     ****     PCA9959_dummy();
 270:PCA9959.c     ****     PCA9959_dummy();
 271:PCA9959.c     ****     
 272:PCA9959.c     ****     for(i=16;i>0;i--)
 273:PCA9959.c     ****     {
 274:PCA9959.c     ****       Pin_MOSI_PCA9959_Write((uint8)((PCA_Tx16Bit >> (i-1))&0x01));
 275:PCA9959.c     ****       Pin_SCK_PCA9959_Write(0);
 276:PCA9959.c     ****       CyDelayUs(1);
 277:PCA9959.c     ****       Pin_SCK_PCA9959_Write(1);
 278:PCA9959.c     ****       CyDelayUs(1);
 279:PCA9959.c     ****     }
 280:PCA9959.c     ****     
 281:PCA9959.c     ****     PCA9959_dummy();
 282:PCA9959.c     ****     
 283:PCA9959.c     ****     Pin_SCK_PCA9959_Write(0);
 284:PCA9959.c     ****     Pin_SS_PCA9959_Write(1);
 285:PCA9959.c     ****     
 286:PCA9959.c     **** }
 287:PCA9959.c     **** 
 288:PCA9959.c     **** ///////////////////////////////////////////////////////////////////////////////////////
 289:PCA9959.c     **** 
 290:PCA9959.c     **** void PCA9959_ChnEn(uint8_t Brg, uint8_t Sel)
 291:PCA9959.c     **** {
 292:PCA9959.c     **** 
 293:PCA9959.c     ****     PCA9959_Init_all();
 294:PCA9959.c     ****     CyDelayUs(1);
 295:PCA9959.c     ****     if(Brg <= 255)
 296:PCA9959.c     ****     {
 297:PCA9959.c     ****         
 298:PCA9959.c     ****         
 299:PCA9959.c     ****         if(Sel == 1)
 300:PCA9959.c     ****         {
 301:PCA9959.c     ****             Pin_OE_PCA9959_1_Write(1);
 302:PCA9959.c     ****             PageSel_1(ChSel);
 303:PCA9959.c     ****             PCA9959_Write_1(Ch0_Cf1, 0x00);                       //LED Channel 0 is assigned to Gr
 304:PCA9959.c     ****             PCA9959_Write_1(Ch1_Cf1, 0x00);
 305:PCA9959.c     ****             PCA9959_Write_1(Ch2_Cf1, 0x00); 
 306:PCA9959.c     ****             PCA9959_Write_1(Ch3_Cf1, 0x00); 
 307:PCA9959.c     ****             PCA9959_Write_1(Ch4_Cf1, 0x00); 
 308:PCA9959.c     ****             PCA9959_Write_1(Ch5_Cf1, 0x00); 
 309:PCA9959.c     ****             PCA9959_Write_1(Ch6_Cf1, 0x00); 
 310:PCA9959.c     ****             PCA9959_Write_1(Ch7_Cf1, 0x00); 
 311:PCA9959.c     ****             PCA9959_Write_1(Ch8_Cf1, 0x00); 
 312:PCA9959.c     ****             PCA9959_Write_1(Ch9_Cf1, 0x00); 
 313:PCA9959.c     ****             PCA9959_Write_1(Ch10_Cf1, 0x01);  //
 314:PCA9959.c     ****             PCA9959_Write_1(Ch11_Cf1, 0x00);
 315:PCA9959.c     ****             
ARM GAS  C:\Users\Revanth\AppData\Local\Temp\ccqs06ys.s 			page 7


 316:PCA9959.c     ****             PCA9959_Write_1(Ch12_Cf1, 0x00);
 317:PCA9959.c     ****             PCA9959_Write_1(Ch13_Cf1, 0x00);
 318:PCA9959.c     ****             PCA9959_Write_1(Ch14_Cf1, 0x00);
 319:PCA9959.c     ****             PCA9959_Write_1(Ch15_Cf1, 0x00);
 320:PCA9959.c     ****             PCA9959_Write_1(Ch16_Cf1, 0x00);
 321:PCA9959.c     ****             PCA9959_Write_1(Ch17_Cf1, 0x00);
 322:PCA9959.c     ****             PCA9959_Write_1(Ch18_Cf1, 0x00);
 323:PCA9959.c     ****             PCA9959_Write_1(Ch19_Cf1, 0x00);
 324:PCA9959.c     ****             PCA9959_Write_1(Ch20_Cf1, 0x00);
 325:PCA9959.c     ****             PCA9959_Write_1(Ch21_Cf1, 0x00);
 326:PCA9959.c     ****             PCA9959_Write_1(Ch22_Cf1, 0x00);
 327:PCA9959.c     ****             PCA9959_Write_1(Ch23_Cf1, 0x00);
 328:PCA9959.c     ****             
 329:PCA9959.c     ****             
 330:PCA9959.c     ****             
 331:PCA9959.c     ****             PCA9959_Write_1(Ch0_Cf2, 0x00);                       //Preset Current in CH0_CF2 regis
 332:PCA9959.c     ****             PCA9959_Write_1(Ch1_Cf2, 0x00);
 333:PCA9959.c     ****             PCA9959_Write_1(Ch2_Cf2, 0x00);
 334:PCA9959.c     ****             PCA9959_Write_1(Ch3_Cf2, 0x00);
 335:PCA9959.c     ****             PCA9959_Write_1(Ch4_Cf2, 0x00);
 336:PCA9959.c     ****             PCA9959_Write_1(Ch5_Cf2, 0x00);
 337:PCA9959.c     ****             PCA9959_Write_1(Ch6_Cf2, 0x00);
 338:PCA9959.c     ****             PCA9959_Write_1(Ch7_Cf2, 0x00);
 339:PCA9959.c     ****             PCA9959_Write_1(Ch8_Cf2, 0x00);
 340:PCA9959.c     ****             PCA9959_Write_1(Ch9_Cf2, 0x00);
 341:PCA9959.c     ****             PCA9959_Write_1(Ch10_Cf2, Brg);
 342:PCA9959.c     ****             PCA9959_Write_1(Ch11_Cf2, 0x00);
 343:PCA9959.c     ****             
 344:PCA9959.c     ****             PCA9959_Write_1(Ch12_Cf2, 0x00);
 345:PCA9959.c     ****             PCA9959_Write_1(Ch13_Cf2, 0x00);
 346:PCA9959.c     ****             PCA9959_Write_1(Ch14_Cf2, 0x00);
 347:PCA9959.c     ****             PCA9959_Write_1(Ch15_Cf2, 0x00);
 348:PCA9959.c     ****             PCA9959_Write_1(Ch16_Cf2, 0x00);
 349:PCA9959.c     ****             PCA9959_Write_1(Ch17_Cf2, 0x00);
 350:PCA9959.c     ****             PCA9959_Write_1(Ch18_Cf2, 0x00);
 351:PCA9959.c     ****             PCA9959_Write_1(Ch19_Cf2, 0x00);
 352:PCA9959.c     ****             PCA9959_Write_1(Ch20_Cf2, 0x00);
 353:PCA9959.c     ****             PCA9959_Write_1(Ch21_Cf2, 0x00);
 354:PCA9959.c     ****             PCA9959_Write_1(Ch22_Cf2, 0x00);
 355:PCA9959.c     ****             PCA9959_Write_1(Ch23_Cf2, 0x00);
 356:PCA9959.c     ****             Pin_OE_PCA9959_1_Write(0);
 357:PCA9959.c     ****         }
 358:PCA9959.c     **** 
 359:PCA9959.c     ****         else if(Sel == 2)
 360:PCA9959.c     ****         {
 361:PCA9959.c     ****             Pin_OE_PCA9959_1_Write(1);
 362:PCA9959.c     ****             PageSel_1(ChSel);
 363:PCA9959.c     ****             PCA9959_Write_1(Ch0_Cf1, 0x00);                       //LED Channel 0 is assigned to Gr
 364:PCA9959.c     ****             PCA9959_Write_1(Ch1_Cf1, 0x00);
 365:PCA9959.c     ****             PCA9959_Write_1(Ch2_Cf1, 0x00); 
 366:PCA9959.c     ****             PCA9959_Write_1(Ch3_Cf1, 0x00); 
 367:PCA9959.c     ****             PCA9959_Write_1(Ch4_Cf1, 0x00); 
 368:PCA9959.c     ****             PCA9959_Write_1(Ch5_Cf1, 0x00); 
 369:PCA9959.c     ****             PCA9959_Write_1(Ch6_Cf1, 0x01);  //
 370:PCA9959.c     ****             PCA9959_Write_1(Ch7_Cf1, 0x00); 
 371:PCA9959.c     ****             PCA9959_Write_1(Ch8_Cf1, 0x00); 
 372:PCA9959.c     ****             PCA9959_Write_1(Ch9_Cf1, 0x01);  //
ARM GAS  C:\Users\Revanth\AppData\Local\Temp\ccqs06ys.s 			page 8


 373:PCA9959.c     ****             PCA9959_Write_1(Ch10_Cf1, 0x00); 
 374:PCA9959.c     ****             PCA9959_Write_1(Ch11_Cf1, 0x00);
 375:PCA9959.c     ****             
 376:PCA9959.c     ****             PCA9959_Write_1(Ch12_Cf1, 0x00);
 377:PCA9959.c     ****             PCA9959_Write_1(Ch13_Cf1, 0x01); //
 378:PCA9959.c     ****             PCA9959_Write_1(Ch14_Cf1, 0x00);
 379:PCA9959.c     ****             PCA9959_Write_1(Ch15_Cf1, 0x00);
 380:PCA9959.c     ****             PCA9959_Write_1(Ch16_Cf1, 0x00);
 381:PCA9959.c     ****             PCA9959_Write_1(Ch17_Cf1, 0x00);
 382:PCA9959.c     ****             PCA9959_Write_1(Ch18_Cf1, 0x00);
 383:PCA9959.c     ****             PCA9959_Write_1(Ch19_Cf1, 0x00);
 384:PCA9959.c     ****             PCA9959_Write_1(Ch20_Cf1, 0x00);
 385:PCA9959.c     ****             PCA9959_Write_1(Ch21_Cf1, 0x00);
 386:PCA9959.c     ****             PCA9959_Write_1(Ch22_Cf1, 0x00);
 387:PCA9959.c     ****             PCA9959_Write_1(Ch23_Cf1, 0x00);
 388:PCA9959.c     ****             
 389:PCA9959.c     ****             
 390:PCA9959.c     ****             
 391:PCA9959.c     ****             PCA9959_Write_1(Ch0_Cf2, 0x00);                       //Preset Current in CH0_CF2 regis
 392:PCA9959.c     ****             PCA9959_Write_1(Ch1_Cf2, 0x00);
 393:PCA9959.c     ****             PCA9959_Write_1(Ch2_Cf2, 0x00);
 394:PCA9959.c     ****             PCA9959_Write_1(Ch3_Cf2, 0x00);
 395:PCA9959.c     ****             PCA9959_Write_1(Ch4_Cf2, 0x00);
 396:PCA9959.c     ****             PCA9959_Write_1(Ch5_Cf2, 0x00);
 397:PCA9959.c     ****             PCA9959_Write_1(Ch6_Cf2, Brg); //
 398:PCA9959.c     ****             PCA9959_Write_1(Ch7_Cf2, 0x00);
 399:PCA9959.c     ****             PCA9959_Write_1(Ch8_Cf2, 0x00);
 400:PCA9959.c     ****             PCA9959_Write_1(Ch9_Cf2, Brg);   //
 401:PCA9959.c     ****             PCA9959_Write_1(Ch10_Cf2, 0x00);
 402:PCA9959.c     ****             PCA9959_Write_1(Ch11_Cf2, 0x00);
 403:PCA9959.c     ****             
 404:PCA9959.c     ****             PCA9959_Write_1(Ch12_Cf2, 0x00);
 405:PCA9959.c     ****             PCA9959_Write_1(Ch13_Cf2, Brg); //
 406:PCA9959.c     ****             PCA9959_Write_1(Ch14_Cf2, 0x00);
 407:PCA9959.c     ****             PCA9959_Write_1(Ch15_Cf2, 0x00);
 408:PCA9959.c     ****             PCA9959_Write_1(Ch16_Cf2, 0x00);
 409:PCA9959.c     ****             PCA9959_Write_1(Ch17_Cf2, 0x00);
 410:PCA9959.c     ****             PCA9959_Write_1(Ch18_Cf2, 0x00);
 411:PCA9959.c     ****             PCA9959_Write_1(Ch19_Cf2, 0x00);
 412:PCA9959.c     ****             PCA9959_Write_1(Ch20_Cf2, 0x00);
 413:PCA9959.c     ****             PCA9959_Write_1(Ch21_Cf2, 0x00);
 414:PCA9959.c     ****             PCA9959_Write_1(Ch22_Cf2, 0x00);
 415:PCA9959.c     ****             PCA9959_Write_1(Ch23_Cf2, 0x00);
 416:PCA9959.c     ****             Pin_OE_PCA9959_1_Write(0);
 417:PCA9959.c     ****         }
 418:PCA9959.c     ****         
 419:PCA9959.c     ****         else if(Sel == 3)
 420:PCA9959.c     ****         {
 421:PCA9959.c     ****             Pin_OE_PCA9959_1_Write(1);
 422:PCA9959.c     ****             PageSel_1(ChSel);
 423:PCA9959.c     ****             PCA9959_Write_1(Ch0_Cf1, 0x00);                       //LED Channel 0 is assigned to Gr
 424:PCA9959.c     ****             PCA9959_Write_1(Ch1_Cf1, 0x00);
 425:PCA9959.c     ****             PCA9959_Write_1(Ch2_Cf1, 0x00); 
 426:PCA9959.c     ****             PCA9959_Write_1(Ch3_Cf1, 0x00); 
 427:PCA9959.c     ****             PCA9959_Write_1(Ch4_Cf1, 0x00); 
 428:PCA9959.c     ****             PCA9959_Write_1(Ch5_Cf1, 0x00); 
 429:PCA9959.c     ****             PCA9959_Write_1(Ch6_Cf1, 0x00);  
ARM GAS  C:\Users\Revanth\AppData\Local\Temp\ccqs06ys.s 			page 9


 430:PCA9959.c     ****             PCA9959_Write_1(Ch7_Cf1, 0x01); //
 431:PCA9959.c     ****             PCA9959_Write_1(Ch8_Cf1, 0x00); 
 432:PCA9959.c     ****             PCA9959_Write_1(Ch9_Cf1, 0x00);  
 433:PCA9959.c     ****             PCA9959_Write_1(Ch10_Cf1, 0x00); 
 434:PCA9959.c     ****             PCA9959_Write_1(Ch11_Cf1, 0x01); //
 435:PCA9959.c     ****             
 436:PCA9959.c     ****             PCA9959_Write_1(Ch12_Cf1, 0x00);
 437:PCA9959.c     ****             PCA9959_Write_1(Ch13_Cf1, 0x00); 
 438:PCA9959.c     ****             PCA9959_Write_1(Ch14_Cf1, 0x01); //
 439:PCA9959.c     ****             PCA9959_Write_1(Ch15_Cf1, 0x00);
 440:PCA9959.c     ****             PCA9959_Write_1(Ch16_Cf1, 0x00);
 441:PCA9959.c     ****             PCA9959_Write_1(Ch17_Cf1, 0x00);
 442:PCA9959.c     ****             PCA9959_Write_1(Ch18_Cf1, 0x00);
 443:PCA9959.c     ****             PCA9959_Write_1(Ch19_Cf1, 0x00);
 444:PCA9959.c     ****             PCA9959_Write_1(Ch20_Cf1, 0x00);
 445:PCA9959.c     ****             PCA9959_Write_1(Ch21_Cf1, 0x00);
 446:PCA9959.c     ****             PCA9959_Write_1(Ch22_Cf1, 0x00);
 447:PCA9959.c     ****             PCA9959_Write_1(Ch23_Cf1, 0x00);
 448:PCA9959.c     ****             
 449:PCA9959.c     ****             
 450:PCA9959.c     ****             
 451:PCA9959.c     ****             PCA9959_Write_1(Ch0_Cf2, 0x00);                       //Preset Current in CH0_CF2 regis
 452:PCA9959.c     ****             PCA9959_Write_1(Ch1_Cf2, 0x00);
 453:PCA9959.c     ****             PCA9959_Write_1(Ch2_Cf2, 0x00);
 454:PCA9959.c     ****             PCA9959_Write_1(Ch3_Cf2, 0x00);
 455:PCA9959.c     ****             PCA9959_Write_1(Ch4_Cf2, 0x00);
 456:PCA9959.c     ****             PCA9959_Write_1(Ch5_Cf2, 0x00);
 457:PCA9959.c     ****             PCA9959_Write_1(Ch6_Cf2, 0x00); 
 458:PCA9959.c     ****             PCA9959_Write_1(Ch7_Cf2, Brg);   //
 459:PCA9959.c     ****             PCA9959_Write_1(Ch8_Cf2, 0x00);
 460:PCA9959.c     ****             PCA9959_Write_1(Ch9_Cf2, 0x00);   
 461:PCA9959.c     ****             PCA9959_Write_1(Ch10_Cf2, 0x00);
 462:PCA9959.c     ****             PCA9959_Write_1(Ch11_Cf2, Brg);  //
 463:PCA9959.c     ****             
 464:PCA9959.c     ****             PCA9959_Write_1(Ch12_Cf2, 0x00);
 465:PCA9959.c     ****             PCA9959_Write_1(Ch13_Cf2, 0x00); 
 466:PCA9959.c     ****             PCA9959_Write_1(Ch14_Cf2, Brg);  //
 467:PCA9959.c     ****             PCA9959_Write_1(Ch15_Cf2, 0x00);
 468:PCA9959.c     ****             PCA9959_Write_1(Ch16_Cf2, 0x00);
 469:PCA9959.c     ****             PCA9959_Write_1(Ch17_Cf2, 0x00);
 470:PCA9959.c     ****             PCA9959_Write_1(Ch18_Cf2, 0x00);
 471:PCA9959.c     ****             PCA9959_Write_1(Ch19_Cf2, 0x00);
 472:PCA9959.c     ****             PCA9959_Write_1(Ch20_Cf2, 0x00);
 473:PCA9959.c     ****             PCA9959_Write_1(Ch21_Cf2, 0x00);
 474:PCA9959.c     ****             PCA9959_Write_1(Ch22_Cf2, 0x00);
 475:PCA9959.c     ****             PCA9959_Write_1(Ch23_Cf2, 0x00);
 476:PCA9959.c     ****             Pin_OE_PCA9959_1_Write(0);
 477:PCA9959.c     ****         }
 478:PCA9959.c     ****         
 479:PCA9959.c     ****         else if(Sel == 4)
 480:PCA9959.c     ****         {
 481:PCA9959.c     ****             Pin_OE_PCA9959_1_Write(1);
 482:PCA9959.c     ****             PageSel_1(ChSel);
 483:PCA9959.c     ****             PCA9959_Write_1(Ch0_Cf1, 0x00);                       //LED Channel 0 is assigned to Gr
 484:PCA9959.c     ****             PCA9959_Write_1(Ch1_Cf1, 0x00);
 485:PCA9959.c     ****             PCA9959_Write_1(Ch2_Cf1, 0x00); 
 486:PCA9959.c     ****             PCA9959_Write_1(Ch3_Cf1, 0x00); 
ARM GAS  C:\Users\Revanth\AppData\Local\Temp\ccqs06ys.s 			page 10


 487:PCA9959.c     ****             PCA9959_Write_1(Ch4_Cf1, 0x00); 
 488:PCA9959.c     ****             PCA9959_Write_1(Ch5_Cf1, 0x00); 
 489:PCA9959.c     ****             PCA9959_Write_1(Ch6_Cf1, 0x01);  //
 490:PCA9959.c     ****             PCA9959_Write_1(Ch7_Cf1, 0x01); //
 491:PCA9959.c     ****             PCA9959_Write_1(Ch8_Cf1, 0x00); 
 492:PCA9959.c     ****             PCA9959_Write_1(Ch9_Cf1, 0x01); // 
 493:PCA9959.c     ****             PCA9959_Write_1(Ch10_Cf1, 0x01); 
 494:PCA9959.c     ****             PCA9959_Write_1(Ch11_Cf1, 0x01); //
 495:PCA9959.c     ****             
 496:PCA9959.c     ****             PCA9959_Write_1(Ch12_Cf1, 0x00);
 497:PCA9959.c     ****             PCA9959_Write_1(Ch13_Cf1, 0x01); //
 498:PCA9959.c     ****             PCA9959_Write_1(Ch14_Cf1, 0x01); //
 499:PCA9959.c     ****             PCA9959_Write_1(Ch15_Cf1, 0x00);
 500:PCA9959.c     ****             PCA9959_Write_1(Ch16_Cf1, 0x00);
 501:PCA9959.c     ****             PCA9959_Write_1(Ch17_Cf1, 0x00);
 502:PCA9959.c     ****             PCA9959_Write_1(Ch18_Cf1, 0x00);
 503:PCA9959.c     ****             PCA9959_Write_1(Ch19_Cf1, 0x00);
 504:PCA9959.c     ****             PCA9959_Write_1(Ch20_Cf1, 0x00);
 505:PCA9959.c     ****             PCA9959_Write_1(Ch21_Cf1, 0x00);
 506:PCA9959.c     ****             PCA9959_Write_1(Ch22_Cf1, 0x00);
 507:PCA9959.c     ****             PCA9959_Write_1(Ch23_Cf1, 0x00);
 508:PCA9959.c     ****             
 509:PCA9959.c     ****             
 510:PCA9959.c     ****             
 511:PCA9959.c     ****             PCA9959_Write_1(Ch0_Cf2, 0x00);                       //Preset Current in CH0_CF2 regis
 512:PCA9959.c     ****             PCA9959_Write_1(Ch1_Cf2, 0x00);
 513:PCA9959.c     ****             PCA9959_Write_1(Ch2_Cf2, 0x00);
 514:PCA9959.c     ****             PCA9959_Write_1(Ch3_Cf2, 0x00);
 515:PCA9959.c     ****             PCA9959_Write_1(Ch4_Cf2, 0x00);
 516:PCA9959.c     ****             PCA9959_Write_1(Ch5_Cf2, 0x00);
 517:PCA9959.c     ****             PCA9959_Write_1(Ch6_Cf2, Brg); //
 518:PCA9959.c     ****             PCA9959_Write_1(Ch7_Cf2, Brg); //
 519:PCA9959.c     ****             PCA9959_Write_1(Ch8_Cf2, 0x00);
 520:PCA9959.c     ****             PCA9959_Write_1(Ch9_Cf2, Brg);   //
 521:PCA9959.c     ****             PCA9959_Write_1(Ch10_Cf2, Brg);
 522:PCA9959.c     ****             PCA9959_Write_1(Ch11_Cf2, Brg);//
 523:PCA9959.c     ****             
 524:PCA9959.c     ****             PCA9959_Write_1(Ch12_Cf2, 0x00);
 525:PCA9959.c     ****             PCA9959_Write_1(Ch13_Cf2, Brg); //
 526:PCA9959.c     ****             PCA9959_Write_1(Ch14_Cf2, Brg);//
 527:PCA9959.c     ****             PCA9959_Write_1(Ch15_Cf2, 0x00);
 528:PCA9959.c     ****             PCA9959_Write_1(Ch16_Cf2, 0x00);
 529:PCA9959.c     ****             PCA9959_Write_1(Ch17_Cf2, 0x00);
 530:PCA9959.c     ****             PCA9959_Write_1(Ch18_Cf2, 0x00);
 531:PCA9959.c     ****             PCA9959_Write_1(Ch19_Cf2, 0x00);
 532:PCA9959.c     ****             PCA9959_Write_1(Ch20_Cf2, 0x00);
 533:PCA9959.c     ****             PCA9959_Write_1(Ch21_Cf2, 0x00);
 534:PCA9959.c     ****             PCA9959_Write_1(Ch22_Cf2, 0x00);
 535:PCA9959.c     ****             PCA9959_Write_1(Ch23_Cf2, 0x00);
 536:PCA9959.c     ****             Pin_OE_PCA9959_1_Write(0);
 537:PCA9959.c     ****         }
 538:PCA9959.c     ****         
 539:PCA9959.c     ****         else if(Sel == 5)
 540:PCA9959.c     ****         {
 541:PCA9959.c     ****             Pin_OE_PCA9959_1_Write(1);
 542:PCA9959.c     ****             PageSel_1(ChSel);
 543:PCA9959.c     ****             PCA9959_Write_1(Ch0_Cf1, 0x00);                       //LED Channel 0 is assigned to Gr
ARM GAS  C:\Users\Revanth\AppData\Local\Temp\ccqs06ys.s 			page 11


 544:PCA9959.c     ****             PCA9959_Write_1(Ch1_Cf1, 0x01); //
 545:PCA9959.c     ****             PCA9959_Write_1(Ch2_Cf1, 0x00); 
 546:PCA9959.c     ****             PCA9959_Write_1(Ch3_Cf1, 0x01); //
 547:PCA9959.c     ****             PCA9959_Write_1(Ch4_Cf1, 0x00); 
 548:PCA9959.c     ****             PCA9959_Write_1(Ch5_Cf1, 0x01); //
 549:PCA9959.c     ****             PCA9959_Write_1(Ch6_Cf1, 0x00);  
 550:PCA9959.c     ****             PCA9959_Write_1(Ch7_Cf1, 0x00); 
 551:PCA9959.c     ****             PCA9959_Write_1(Ch8_Cf1, 0x00); 
 552:PCA9959.c     ****             PCA9959_Write_1(Ch9_Cf1, 0x00);  
 553:PCA9959.c     ****             PCA9959_Write_1(Ch10_Cf1, 0x00); 
 554:PCA9959.c     ****             PCA9959_Write_1(Ch11_Cf1, 0x00);
 555:PCA9959.c     ****             
 556:PCA9959.c     ****             PCA9959_Write_1(Ch12_Cf1, 0x01); //
 557:PCA9959.c     ****             PCA9959_Write_1(Ch13_Cf1, 0x00); 
 558:PCA9959.c     ****             PCA9959_Write_1(Ch14_Cf1, 0x00);
 559:PCA9959.c     ****             PCA9959_Write_1(Ch15_Cf1, 0x00);
 560:PCA9959.c     ****             PCA9959_Write_1(Ch16_Cf1, 0x01); //
 561:PCA9959.c     ****             PCA9959_Write_1(Ch17_Cf1, 0x00);
 562:PCA9959.c     ****             PCA9959_Write_1(Ch18_Cf1, 0x01); //
 563:PCA9959.c     ****             PCA9959_Write_1(Ch19_Cf1, 0x00);
 564:PCA9959.c     ****             PCA9959_Write_1(Ch20_Cf1, 0x00);
 565:PCA9959.c     ****             PCA9959_Write_1(Ch21_Cf1, 0x00);
 566:PCA9959.c     ****             PCA9959_Write_1(Ch22_Cf1, 0x00);
 567:PCA9959.c     ****             PCA9959_Write_1(Ch23_Cf1, 0x00);
 568:PCA9959.c     ****             
 569:PCA9959.c     ****             
 570:PCA9959.c     ****             
 571:PCA9959.c     ****             PCA9959_Write_1(Ch0_Cf2, 0x00);                       //Preset Current in CH0_CF2 regis
 572:PCA9959.c     ****             PCA9959_Write_1(Ch1_Cf2, Brg);  //
 573:PCA9959.c     ****             PCA9959_Write_1(Ch2_Cf2, 0x00);
 574:PCA9959.c     ****             PCA9959_Write_1(Ch3_Cf2, Brg);  //
 575:PCA9959.c     ****             PCA9959_Write_1(Ch4_Cf2, 0x00);
 576:PCA9959.c     ****             PCA9959_Write_1(Ch5_Cf2, Brg); //
 577:PCA9959.c     ****             PCA9959_Write_1(Ch6_Cf2, 0x00); 
 578:PCA9959.c     ****             PCA9959_Write_1(Ch7_Cf2, 0x00);
 579:PCA9959.c     ****             PCA9959_Write_1(Ch8_Cf2, 0x00);
 580:PCA9959.c     ****             PCA9959_Write_1(Ch9_Cf2, 0x00);   
 581:PCA9959.c     ****             PCA9959_Write_1(Ch10_Cf2, 0x00);
 582:PCA9959.c     ****             PCA9959_Write_1(Ch11_Cf2, 0x00);
 583:PCA9959.c     ****             
 584:PCA9959.c     ****             PCA9959_Write_1(Ch12_Cf2, Brg); //
 585:PCA9959.c     ****             PCA9959_Write_1(Ch13_Cf2, 0x00); 
 586:PCA9959.c     ****             PCA9959_Write_1(Ch14_Cf2, 0x00);
 587:PCA9959.c     ****             PCA9959_Write_1(Ch15_Cf2, 0x00);
 588:PCA9959.c     ****             PCA9959_Write_1(Ch16_Cf2, Brg); //
 589:PCA9959.c     ****             PCA9959_Write_1(Ch17_Cf2, 0x00);
 590:PCA9959.c     ****             PCA9959_Write_1(Ch18_Cf2, Brg); //
 591:PCA9959.c     ****             PCA9959_Write_1(Ch19_Cf2, 0x00);
 592:PCA9959.c     ****             PCA9959_Write_1(Ch20_Cf2, 0x00);
 593:PCA9959.c     ****             PCA9959_Write_1(Ch21_Cf2, 0x00);
 594:PCA9959.c     ****             PCA9959_Write_1(Ch22_Cf2, 0x00);
 595:PCA9959.c     ****             PCA9959_Write_1(Ch23_Cf2, 0x00);
 596:PCA9959.c     ****             Pin_OE_PCA9959_1_Write(0);
 597:PCA9959.c     ****         }
 598:PCA9959.c     ****         
 599:PCA9959.c     ****         else if(Sel == 6)
 600:PCA9959.c     ****         {
ARM GAS  C:\Users\Revanth\AppData\Local\Temp\ccqs06ys.s 			page 12


 601:PCA9959.c     ****             Pin_OE_PCA9959_1_Write(1);
 602:PCA9959.c     ****             PageSel_1(ChSel);
 603:PCA9959.c     ****             PCA9959_Write_1(Ch0_Cf1, 0x01);    //                 //LED Channel 0 is assigned to Gr
 604:PCA9959.c     ****             PCA9959_Write_1(Ch1_Cf1, 0x00); 
 605:PCA9959.c     ****             PCA9959_Write_1(Ch2_Cf1, 0x01);  //
 606:PCA9959.c     ****             PCA9959_Write_1(Ch3_Cf1, 0x00); 
 607:PCA9959.c     ****             PCA9959_Write_1(Ch4_Cf1, 0x01); //
 608:PCA9959.c     ****             PCA9959_Write_1(Ch5_Cf1, 0x00); 
 609:PCA9959.c     ****             PCA9959_Write_1(Ch6_Cf1, 0x00);  
 610:PCA9959.c     ****             PCA9959_Write_1(Ch7_Cf1, 0x00); 
 611:PCA9959.c     ****             PCA9959_Write_1(Ch8_Cf1, 0x01); //
 612:PCA9959.c     ****             PCA9959_Write_1(Ch9_Cf1, 0x00);  
 613:PCA9959.c     ****             PCA9959_Write_1(Ch10_Cf1, 0x00); 
 614:PCA9959.c     ****             PCA9959_Write_1(Ch11_Cf1, 0x00);
 615:PCA9959.c     ****             
 616:PCA9959.c     ****             PCA9959_Write_1(Ch12_Cf1, 0x00);
 617:PCA9959.c     ****             PCA9959_Write_1(Ch13_Cf1, 0x00); 
 618:PCA9959.c     ****             PCA9959_Write_1(Ch14_Cf1, 0x00);
 619:PCA9959.c     ****             PCA9959_Write_1(Ch15_Cf1, 0x01); //
 620:PCA9959.c     ****             PCA9959_Write_1(Ch16_Cf1, 0x00); 
 621:PCA9959.c     ****             PCA9959_Write_1(Ch17_Cf1, 0x01); //
 622:PCA9959.c     ****             PCA9959_Write_1(Ch18_Cf1, 0x00); 
 623:PCA9959.c     ****             PCA9959_Write_1(Ch19_Cf1, 0x00);
 624:PCA9959.c     ****             PCA9959_Write_1(Ch20_Cf1, 0x00);
 625:PCA9959.c     ****             PCA9959_Write_1(Ch21_Cf1, 0x00);
 626:PCA9959.c     ****             PCA9959_Write_1(Ch22_Cf1, 0x00);
 627:PCA9959.c     ****             PCA9959_Write_1(Ch23_Cf1, 0x00);
 628:PCA9959.c     ****             
 629:PCA9959.c     ****             
 630:PCA9959.c     ****             
 631:PCA9959.c     ****             PCA9959_Write_1(Ch0_Cf2, Brg);        //            //Preset Current in CH0_CF2 registe
 632:PCA9959.c     ****             PCA9959_Write_1(Ch1_Cf2, 0x00);  
 633:PCA9959.c     ****             PCA9959_Write_1(Ch2_Cf2, Brg);  //
 634:PCA9959.c     ****             PCA9959_Write_1(Ch3_Cf2, 0x00); 
 635:PCA9959.c     ****             PCA9959_Write_1(Ch4_Cf2, Brg); //
 636:PCA9959.c     ****             PCA9959_Write_1(Ch5_Cf2, 0x00); 
 637:PCA9959.c     ****             PCA9959_Write_1(Ch6_Cf2, 0x00); 
 638:PCA9959.c     ****             PCA9959_Write_1(Ch7_Cf2, 0x00);
 639:PCA9959.c     ****             PCA9959_Write_1(Ch8_Cf2, Brg);  //
 640:PCA9959.c     ****             PCA9959_Write_1(Ch9_Cf2, 0x00);   
 641:PCA9959.c     ****             PCA9959_Write_1(Ch10_Cf2, 0x00);
 642:PCA9959.c     ****             PCA9959_Write_1(Ch11_Cf2, 0x00);
 643:PCA9959.c     ****             
 644:PCA9959.c     ****             PCA9959_Write_1(Ch12_Cf2, 0x00); 
 645:PCA9959.c     ****             PCA9959_Write_1(Ch13_Cf2, 0x00); 
 646:PCA9959.c     ****             PCA9959_Write_1(Ch14_Cf2, 0x00);
 647:PCA9959.c     ****             PCA9959_Write_1(Ch15_Cf2, Brg);  //
 648:PCA9959.c     ****             PCA9959_Write_1(Ch16_Cf2, 0x00); 
 649:PCA9959.c     ****             PCA9959_Write_1(Ch17_Cf2, Brg);  //
 650:PCA9959.c     ****             PCA9959_Write_1(Ch18_Cf2, 0x00);  
 651:PCA9959.c     ****             PCA9959_Write_1(Ch19_Cf2, 0x00);
 652:PCA9959.c     ****             PCA9959_Write_1(Ch20_Cf2, 0x00);
 653:PCA9959.c     ****             PCA9959_Write_1(Ch21_Cf2, 0x00);
 654:PCA9959.c     ****             PCA9959_Write_1(Ch22_Cf2, 0x00);
 655:PCA9959.c     ****             PCA9959_Write_1(Ch23_Cf2, 0x00);
 656:PCA9959.c     ****             Pin_OE_PCA9959_1_Write(0);
 657:PCA9959.c     ****         }
ARM GAS  C:\Users\Revanth\AppData\Local\Temp\ccqs06ys.s 			page 13


 658:PCA9959.c     ****         
 659:PCA9959.c     ****         else if(Sel == 7)
 660:PCA9959.c     ****         {
 661:PCA9959.c     ****             Pin_OE_PCA9959_1_Write(1);
 662:PCA9959.c     ****             PageSel_1(ChSel);
 663:PCA9959.c     ****             PCA9959_Write_1(Ch0_Cf1, 0x01);  //                     //LED Channel 0 is assigned to 
 664:PCA9959.c     ****             PCA9959_Write_1(Ch1_Cf1, 0x01); //
 665:PCA9959.c     ****             PCA9959_Write_1(Ch2_Cf1, 0x01); //
 666:PCA9959.c     ****             PCA9959_Write_1(Ch3_Cf1, 0x01); //
 667:PCA9959.c     ****             PCA9959_Write_1(Ch4_Cf1, 0x01); //
 668:PCA9959.c     ****             PCA9959_Write_1(Ch5_Cf1, 0x01); //
 669:PCA9959.c     ****             PCA9959_Write_1(Ch6_Cf1, 0x00);  
 670:PCA9959.c     ****             PCA9959_Write_1(Ch7_Cf1, 0x00); 
 671:PCA9959.c     ****             PCA9959_Write_1(Ch8_Cf1, 0x01); //
 672:PCA9959.c     ****             PCA9959_Write_1(Ch9_Cf1, 0x00);  
 673:PCA9959.c     ****             PCA9959_Write_1(Ch10_Cf1, 0x00); 
 674:PCA9959.c     ****             PCA9959_Write_1(Ch11_Cf1, 0x00);
 675:PCA9959.c     ****             
 676:PCA9959.c     ****             PCA9959_Write_1(Ch12_Cf1, 0x01); //
 677:PCA9959.c     ****             PCA9959_Write_1(Ch13_Cf1, 0x00); 
 678:PCA9959.c     ****             PCA9959_Write_1(Ch14_Cf1, 0x00);
 679:PCA9959.c     ****             PCA9959_Write_1(Ch15_Cf1, 0x01); //
 680:PCA9959.c     ****             PCA9959_Write_1(Ch16_Cf1, 0x01); // 
 681:PCA9959.c     ****             PCA9959_Write_1(Ch17_Cf1, 0x01); //
 682:PCA9959.c     ****             PCA9959_Write_1(Ch18_Cf1, 0x01); //
 683:PCA9959.c     ****             PCA9959_Write_1(Ch19_Cf1, 0x00);
 684:PCA9959.c     ****             PCA9959_Write_1(Ch20_Cf1, 0x00);
 685:PCA9959.c     ****             PCA9959_Write_1(Ch21_Cf1, 0x00);
 686:PCA9959.c     ****             PCA9959_Write_1(Ch22_Cf1, 0x00);
 687:PCA9959.c     ****             PCA9959_Write_1(Ch23_Cf1, 0x00);
 688:PCA9959.c     ****             
 689:PCA9959.c     ****             
 690:PCA9959.c     ****             
 691:PCA9959.c     ****             PCA9959_Write_1(Ch0_Cf2, Brg);    //                   //Preset Current in CH0_CF2 regi
 692:PCA9959.c     ****             PCA9959_Write_1(Ch1_Cf2, Brg);  //
 693:PCA9959.c     ****             PCA9959_Write_1(Ch2_Cf2, Brg);  //
 694:PCA9959.c     ****             PCA9959_Write_1(Ch3_Cf2, Brg); // 
 695:PCA9959.c     ****             PCA9959_Write_1(Ch4_Cf2, Brg); //
 696:PCA9959.c     ****             PCA9959_Write_1(Ch5_Cf2, Brg); //
 697:PCA9959.c     ****             PCA9959_Write_1(Ch6_Cf2, 0x00); 
 698:PCA9959.c     ****             PCA9959_Write_1(Ch7_Cf2, 0x00);
 699:PCA9959.c     ****             PCA9959_Write_1(Ch8_Cf2, Brg);  //
 700:PCA9959.c     ****             PCA9959_Write_1(Ch9_Cf2, 0x00);   
 701:PCA9959.c     ****             PCA9959_Write_1(Ch10_Cf2, 0x00);
 702:PCA9959.c     ****             PCA9959_Write_1(Ch11_Cf2, 0x00);
 703:PCA9959.c     ****             
 704:PCA9959.c     ****             PCA9959_Write_1(Ch12_Cf2, Brg); //
 705:PCA9959.c     ****             PCA9959_Write_1(Ch13_Cf2, 0x00); 
 706:PCA9959.c     ****             PCA9959_Write_1(Ch14_Cf2, 0x00);
 707:PCA9959.c     ****             PCA9959_Write_1(Ch15_Cf2, Brg);  //
 708:PCA9959.c     ****             PCA9959_Write_1(Ch16_Cf2, Brg); //
 709:PCA9959.c     ****             PCA9959_Write_1(Ch17_Cf2, Brg);  //
 710:PCA9959.c     ****             PCA9959_Write_1(Ch18_Cf2, Brg);  //
 711:PCA9959.c     ****             PCA9959_Write_1(Ch19_Cf2, 0x00);
 712:PCA9959.c     ****             PCA9959_Write_1(Ch20_Cf2, 0x00);
 713:PCA9959.c     ****             PCA9959_Write_1(Ch21_Cf2, 0x00);
 714:PCA9959.c     ****             PCA9959_Write_1(Ch22_Cf2, 0x00);
ARM GAS  C:\Users\Revanth\AppData\Local\Temp\ccqs06ys.s 			page 14


 715:PCA9959.c     ****             PCA9959_Write_1(Ch23_Cf2, 0x00);
 716:PCA9959.c     ****             Pin_OE_PCA9959_1_Write(0);
 717:PCA9959.c     ****         }
 718:PCA9959.c     ****         
 719:PCA9959.c     ****         else if(Sel == 8)
 720:PCA9959.c     ****         {
 721:PCA9959.c     ****             Pin_OE_PCA9959_1_Write(1);
 722:PCA9959.c     ****             PageSel_1(ChSel);
 723:PCA9959.c     ****             PCA9959_Write_1(Ch0_Cf1, 0x01);  //                     //LED Channel 0 is assigned to 
 724:PCA9959.c     ****             PCA9959_Write_1(Ch1_Cf1, 0x01); //
 725:PCA9959.c     ****             PCA9959_Write_1(Ch2_Cf1, 0x01); //
 726:PCA9959.c     ****             PCA9959_Write_1(Ch3_Cf1, 0x01); //
 727:PCA9959.c     ****             PCA9959_Write_1(Ch4_Cf1, 0x01); //
 728:PCA9959.c     ****             PCA9959_Write_1(Ch5_Cf1, 0x01); //
 729:PCA9959.c     ****             PCA9959_Write_1(Ch6_Cf1, 0x01);  
 730:PCA9959.c     ****             PCA9959_Write_1(Ch7_Cf1, 0x01); 
 731:PCA9959.c     ****             PCA9959_Write_1(Ch8_Cf1, 0x01); //
 732:PCA9959.c     ****             PCA9959_Write_1(Ch9_Cf1, 0x01);  
 733:PCA9959.c     ****             PCA9959_Write_1(Ch10_Cf1, 0x01); 
 734:PCA9959.c     ****             PCA9959_Write_1(Ch11_Cf1, 0x01);
 735:PCA9959.c     ****             
 736:PCA9959.c     ****             PCA9959_Write_1(Ch12_Cf1, 0x01); //
 737:PCA9959.c     ****             PCA9959_Write_1(Ch13_Cf1, 0x01); 
 738:PCA9959.c     ****             PCA9959_Write_1(Ch14_Cf1, 0x01);
 739:PCA9959.c     ****             PCA9959_Write_1(Ch15_Cf1, 0x01); //
 740:PCA9959.c     ****             PCA9959_Write_1(Ch16_Cf1, 0x01); // 
 741:PCA9959.c     ****             PCA9959_Write_1(Ch17_Cf1, 0x01); //
 742:PCA9959.c     ****             PCA9959_Write_1(Ch18_Cf1, 0x01); //
 743:PCA9959.c     ****             PCA9959_Write_1(Ch19_Cf1, 0x01);
 744:PCA9959.c     ****             PCA9959_Write_1(Ch20_Cf1, 0x01);
 745:PCA9959.c     ****             PCA9959_Write_1(Ch21_Cf1, 0x01);
 746:PCA9959.c     ****             PCA9959_Write_1(Ch22_Cf1, 0x01);
 747:PCA9959.c     ****             PCA9959_Write_1(Ch23_Cf1, 0x01);
 748:PCA9959.c     ****             
 749:PCA9959.c     ****             
 750:PCA9959.c     ****             
 751:PCA9959.c     ****             PCA9959_Write_1(Ch0_Cf2, Brg);    //                   //Preset Current in CH0_CF2 regi
 752:PCA9959.c     ****             PCA9959_Write_1(Ch1_Cf2, Brg);  //
 753:PCA9959.c     ****             PCA9959_Write_1(Ch2_Cf2, Brg);  //
 754:PCA9959.c     ****             PCA9959_Write_1(Ch3_Cf2, Brg); // 
 755:PCA9959.c     ****             PCA9959_Write_1(Ch4_Cf2, Brg); //
 756:PCA9959.c     ****             PCA9959_Write_1(Ch5_Cf2, Brg); //
 757:PCA9959.c     ****             PCA9959_Write_1(Ch6_Cf2, Brg); 
 758:PCA9959.c     ****             PCA9959_Write_1(Ch7_Cf2, Brg);
 759:PCA9959.c     ****             PCA9959_Write_1(Ch8_Cf2, Brg);  //
 760:PCA9959.c     ****             PCA9959_Write_1(Ch9_Cf2, Brg);   
 761:PCA9959.c     ****             PCA9959_Write_1(Ch10_Cf2, Brg);
 762:PCA9959.c     ****             PCA9959_Write_1(Ch11_Cf2, Brg);
 763:PCA9959.c     ****             
 764:PCA9959.c     ****             PCA9959_Write_1(Ch12_Cf2, Brg); //
 765:PCA9959.c     ****             PCA9959_Write_1(Ch13_Cf2, Brg); 
 766:PCA9959.c     ****             PCA9959_Write_1(Ch14_Cf2, Brg);
 767:PCA9959.c     ****             PCA9959_Write_1(Ch15_Cf2, Brg);  //
 768:PCA9959.c     ****             PCA9959_Write_1(Ch16_Cf2, Brg); //
 769:PCA9959.c     ****             PCA9959_Write_1(Ch17_Cf2, Brg);  //
 770:PCA9959.c     ****             PCA9959_Write_1(Ch18_Cf2, Brg);  //
 771:PCA9959.c     ****             PCA9959_Write_1(Ch19_Cf2, Brg);
ARM GAS  C:\Users\Revanth\AppData\Local\Temp\ccqs06ys.s 			page 15


 772:PCA9959.c     ****             PCA9959_Write_1(Ch20_Cf2, Brg);
 773:PCA9959.c     ****             PCA9959_Write_1(Ch21_Cf2, Brg);
 774:PCA9959.c     ****             PCA9959_Write_1(Ch22_Cf2, Brg);
 775:PCA9959.c     ****             PCA9959_Write_1(Ch23_Cf2, Brg);
 776:PCA9959.c     ****             Pin_OE_PCA9959_1_Write(0);
 777:PCA9959.c     ****         }
 778:PCA9959.c     ****             
 779:PCA9959.c     ****         else if(Sel == 9)
 780:PCA9959.c     ****         {
 781:PCA9959.c     ****             Pin_OE_PCA9959_4_Write(1);
 782:PCA9959.c     ****             PageSel_4(ChSel);
 783:PCA9959.c     ****             PCA9959_Write_4(Ch0_Cf1, 0x01);   //                    //LED Channel 0 is assigned to 
 784:PCA9959.c     ****             PCA9959_Write_4(Ch1_Cf1, 0x00);
 785:PCA9959.c     ****             PCA9959_Write_4(Ch2_Cf1, 0x01); //
 786:PCA9959.c     ****             PCA9959_Write_4(Ch3_Cf1, 0x00); 
 787:PCA9959.c     ****             PCA9959_Write_4(Ch4_Cf1, 0x01); //
 788:PCA9959.c     ****             PCA9959_Write_4(Ch5_Cf1, 0x00); 
 789:PCA9959.c     ****             PCA9959_Write_4(Ch6_Cf1, 0x01); //
 790:PCA9959.c     ****             PCA9959_Write_4(Ch7_Cf1, 0x00); 
 791:PCA9959.c     ****             PCA9959_Write_4(Ch8_Cf1, 0x01); //
 792:PCA9959.c     ****             PCA9959_Write_4(Ch9_Cf1, 0x00); 
 793:PCA9959.c     ****             PCA9959_Write_4(Ch10_Cf1, 0x01);  //
 794:PCA9959.c     ****             PCA9959_Write_4(Ch11_Cf1, 0x00);
 795:PCA9959.c     ****             
 796:PCA9959.c     ****             PCA9959_Write_4(Ch12_Cf1, 0x01); //
 797:PCA9959.c     ****             PCA9959_Write_4(Ch13_Cf1, 0x00);
 798:PCA9959.c     ****             PCA9959_Write_4(Ch14_Cf1, 0x01); //
 799:PCA9959.c     ****             PCA9959_Write_4(Ch15_Cf1, 0x00);
 800:PCA9959.c     ****             PCA9959_Write_4(Ch16_Cf1, 0x01); //
 801:PCA9959.c     ****             PCA9959_Write_4(Ch17_Cf1, 0x00);
 802:PCA9959.c     ****             PCA9959_Write_4(Ch18_Cf1, 0x01); //
 803:PCA9959.c     ****             PCA9959_Write_4(Ch19_Cf1, 0x00);
 804:PCA9959.c     ****             PCA9959_Write_4(Ch20_Cf1, 0x01); //
 805:PCA9959.c     ****             PCA9959_Write_4(Ch21_Cf1, 0x00);
 806:PCA9959.c     ****             PCA9959_Write_4(Ch22_Cf1, 0x01); //
 807:PCA9959.c     ****             PCA9959_Write_4(Ch23_Cf1, 0x00);
 808:PCA9959.c     ****             
 809:PCA9959.c     ****             
 810:PCA9959.c     ****             
 811:PCA9959.c     ****             PCA9959_Write_4(Ch0_Cf2, Brg);       //                //Preset Current in CH0_CF2 regi
 812:PCA9959.c     ****             PCA9959_Write_4(Ch1_Cf2, 0x00);
 813:PCA9959.c     ****             PCA9959_Write_4(Ch2_Cf2, Brg); //
 814:PCA9959.c     ****             PCA9959_Write_4(Ch3_Cf2, 0x00);
 815:PCA9959.c     ****             PCA9959_Write_4(Ch4_Cf2, Brg); //
 816:PCA9959.c     ****             PCA9959_Write_4(Ch5_Cf2, 0x00);
 817:PCA9959.c     ****             PCA9959_Write_4(Ch6_Cf2, Brg); //
 818:PCA9959.c     ****             PCA9959_Write_4(Ch7_Cf2, 0x00);
 819:PCA9959.c     ****             PCA9959_Write_4(Ch8_Cf2, Brg); //
 820:PCA9959.c     ****             PCA9959_Write_4(Ch9_Cf2, 0x00);
 821:PCA9959.c     ****             PCA9959_Write_4(Ch10_Cf2, Brg); //
 822:PCA9959.c     ****             PCA9959_Write_4(Ch11_Cf2, 0x00);
 823:PCA9959.c     ****             
 824:PCA9959.c     ****             PCA9959_Write_4(Ch12_Cf2, Brg); //
 825:PCA9959.c     ****             PCA9959_Write_4(Ch13_Cf2, 0x00);
 826:PCA9959.c     ****             PCA9959_Write_4(Ch14_Cf2, Brg); //
 827:PCA9959.c     ****             PCA9959_Write_4(Ch15_Cf2, 0x00);
 828:PCA9959.c     ****             PCA9959_Write_4(Ch16_Cf2, Brg); //
ARM GAS  C:\Users\Revanth\AppData\Local\Temp\ccqs06ys.s 			page 16


 829:PCA9959.c     ****             PCA9959_Write_4(Ch17_Cf2, 0x00);
 830:PCA9959.c     ****             PCA9959_Write_4(Ch18_Cf2, Brg); //
 831:PCA9959.c     ****             PCA9959_Write_4(Ch19_Cf2, 0x00);
 832:PCA9959.c     ****             PCA9959_Write_4(Ch20_Cf2, Brg); //
 833:PCA9959.c     ****             PCA9959_Write_4(Ch21_Cf2, 0x00);
 834:PCA9959.c     ****             PCA9959_Write_4(Ch22_Cf2, Brg); //
 835:PCA9959.c     ****             PCA9959_Write_4(Ch23_Cf2, 0x00);
 836:PCA9959.c     ****             Pin_OE_PCA9959_4_Write(0);
 837:PCA9959.c     ****         }
 838:PCA9959.c     ****         
 839:PCA9959.c     ****         else if(Sel == 10)
 840:PCA9959.c     ****         {
 841:PCA9959.c     ****             Pin_OE_PCA9959_4_Write(1);
 842:PCA9959.c     ****             PageSel_4(ChSel);
 843:PCA9959.c     ****             PCA9959_Write_4(Ch0_Cf1, 0x00);                     //LED Channel 0 is assigned to Grou
 844:PCA9959.c     ****             PCA9959_Write_4(Ch1_Cf1, 0x01); //
 845:PCA9959.c     ****             PCA9959_Write_4(Ch2_Cf1, 0x00); 
 846:PCA9959.c     ****             PCA9959_Write_4(Ch3_Cf1, 0x01); //
 847:PCA9959.c     ****             PCA9959_Write_4(Ch4_Cf1, 0x00); 
 848:PCA9959.c     ****             PCA9959_Write_4(Ch5_Cf1, 0x01); //
 849:PCA9959.c     ****             PCA9959_Write_4(Ch6_Cf1, 0x00); 
 850:PCA9959.c     ****             PCA9959_Write_4(Ch7_Cf1, 0x01); //
 851:PCA9959.c     ****             PCA9959_Write_4(Ch8_Cf1, 0x00); 
 852:PCA9959.c     ****             PCA9959_Write_4(Ch9_Cf1, 0x01); //
 853:PCA9959.c     ****             PCA9959_Write_4(Ch10_Cf1, 0x00);  
 854:PCA9959.c     ****             PCA9959_Write_4(Ch11_Cf1, 0x01); //
 855:PCA9959.c     ****             
 856:PCA9959.c     ****             PCA9959_Write_4(Ch12_Cf1, 0x00);
 857:PCA9959.c     ****             PCA9959_Write_4(Ch13_Cf1, 0x01); //
 858:PCA9959.c     ****             PCA9959_Write_4(Ch14_Cf1, 0x00);
 859:PCA9959.c     ****             PCA9959_Write_4(Ch15_Cf1, 0x01); //
 860:PCA9959.c     ****             PCA9959_Write_4(Ch16_Cf1, 0x00);
 861:PCA9959.c     ****             PCA9959_Write_4(Ch17_Cf1, 0x01); //
 862:PCA9959.c     ****             PCA9959_Write_4(Ch18_Cf1, 0x00);
 863:PCA9959.c     ****             PCA9959_Write_4(Ch19_Cf1, 0x01); //
 864:PCA9959.c     ****             PCA9959_Write_4(Ch20_Cf1, 0x00);
 865:PCA9959.c     ****             PCA9959_Write_4(Ch21_Cf1, 0x01); //
 866:PCA9959.c     ****             PCA9959_Write_4(Ch22_Cf1, 0x00);
 867:PCA9959.c     ****             PCA9959_Write_4(Ch23_Cf1, 0x01); //
 868:PCA9959.c     ****             
 869:PCA9959.c     ****             
 870:PCA9959.c     ****             
 871:PCA9959.c     ****             PCA9959_Write_4(Ch0_Cf2, 0x00);                       //Preset Current in CH0_CF2 regis
 872:PCA9959.c     ****             PCA9959_Write_4(Ch1_Cf2, Brg); //
 873:PCA9959.c     ****             PCA9959_Write_4(Ch2_Cf2, 0x00);
 874:PCA9959.c     ****             PCA9959_Write_4(Ch3_Cf2, Brg); //
 875:PCA9959.c     ****             PCA9959_Write_4(Ch4_Cf2, 0x00); 
 876:PCA9959.c     ****             PCA9959_Write_4(Ch5_Cf2, Brg); //
 877:PCA9959.c     ****             PCA9959_Write_4(Ch6_Cf2, 0x00);
 878:PCA9959.c     ****             PCA9959_Write_4(Ch7_Cf2, Brg); //
 879:PCA9959.c     ****             PCA9959_Write_4(Ch8_Cf2, 0x00);
 880:PCA9959.c     ****             PCA9959_Write_4(Ch9_Cf2, Brg); //
 881:PCA9959.c     ****             PCA9959_Write_4(Ch10_Cf2, 0x00);
 882:PCA9959.c     ****             PCA9959_Write_4(Ch11_Cf2, Brg); //
 883:PCA9959.c     ****             
 884:PCA9959.c     ****             PCA9959_Write_4(Ch12_Cf2, 0x00);
 885:PCA9959.c     ****             PCA9959_Write_4(Ch13_Cf2, Brg); //
ARM GAS  C:\Users\Revanth\AppData\Local\Temp\ccqs06ys.s 			page 17


 886:PCA9959.c     ****             PCA9959_Write_4(Ch14_Cf2, 0x00);
 887:PCA9959.c     ****             PCA9959_Write_4(Ch15_Cf2, Brg); //
 888:PCA9959.c     ****             PCA9959_Write_4(Ch16_Cf2, 0x00);
 889:PCA9959.c     ****             PCA9959_Write_4(Ch17_Cf2, Brg); //
 890:PCA9959.c     ****             PCA9959_Write_4(Ch18_Cf2, 0x00);
 891:PCA9959.c     ****             PCA9959_Write_4(Ch19_Cf2, Brg); //
 892:PCA9959.c     ****             PCA9959_Write_4(Ch20_Cf2, 0x00);
 893:PCA9959.c     ****             PCA9959_Write_4(Ch21_Cf2, Brg); //
 894:PCA9959.c     ****             PCA9959_Write_4(Ch22_Cf2, 0x00);
 895:PCA9959.c     ****             PCA9959_Write_4(Ch23_Cf2, Brg); //
 896:PCA9959.c     ****             Pin_OE_PCA9959_4_Write(0);
 897:PCA9959.c     ****         }
 898:PCA9959.c     ****         
 899:PCA9959.c     ****         else if(Sel == 11)
 900:PCA9959.c     ****         {
 901:PCA9959.c     ****             Pin_OE_PCA9959_4_Write(1);
 902:PCA9959.c     ****             PageSel_4(ChSel);
 903:PCA9959.c     ****             PCA9959_Write_4(Ch0_Cf1, 0x01);                       //LED Channel 0 is assigned to Gr
 904:PCA9959.c     ****             PCA9959_Write_4(Ch1_Cf1, 0x01);
 905:PCA9959.c     ****             PCA9959_Write_4(Ch2_Cf1, 0x01); 
 906:PCA9959.c     ****             PCA9959_Write_4(Ch3_Cf1, 0x01); 
 907:PCA9959.c     ****             
 908:PCA9959.c     ****             
 909:PCA9959.c     ****             PCA9959_Write_4(Ch4_Cf1, 0x01); 
 910:PCA9959.c     ****             PCA9959_Write_4(Ch5_Cf1, 0x01); 
 911:PCA9959.c     ****             PCA9959_Write_4(Ch6_Cf1, 0x01); 
 912:PCA9959.c     ****             PCA9959_Write_4(Ch7_Cf1, 0x01); 
 913:PCA9959.c     ****             PCA9959_Write_4(Ch8_Cf1, 0x01); 
 914:PCA9959.c     ****             PCA9959_Write_4(Ch9_Cf1, 0x01); 
 915:PCA9959.c     ****             PCA9959_Write_4(Ch10_Cf1, 0x01); 
 916:PCA9959.c     ****             PCA9959_Write_4(Ch11_Cf1, 0x01);
 917:PCA9959.c     ****             
 918:PCA9959.c     ****             PCA9959_Write_4(Ch12_Cf1, 0x01);
 919:PCA9959.c     ****             PCA9959_Write_4(Ch13_Cf1, 0x01);
 920:PCA9959.c     ****             PCA9959_Write_4(Ch14_Cf1, 0x01);
 921:PCA9959.c     ****             PCA9959_Write_4(Ch15_Cf1, 0x01);
 922:PCA9959.c     ****             PCA9959_Write_4(Ch16_Cf1, 0x01);
 923:PCA9959.c     ****             PCA9959_Write_4(Ch17_Cf1, 0x01);
 924:PCA9959.c     ****             PCA9959_Write_4(Ch18_Cf1, 0x01);
 925:PCA9959.c     ****             PCA9959_Write_4(Ch19_Cf1, 0x01);
 926:PCA9959.c     ****             PCA9959_Write_4(Ch20_Cf1, 0x01);
 927:PCA9959.c     ****             PCA9959_Write_4(Ch21_Cf1, 0x01);
 928:PCA9959.c     ****             PCA9959_Write_4(Ch22_Cf1, 0x01);
 929:PCA9959.c     ****             PCA9959_Write_4(Ch23_Cf1, 0x01);
 930:PCA9959.c     ****             
 931:PCA9959.c     ****             
 932:PCA9959.c     ****             
 933:PCA9959.c     ****             PCA9959_Write_4(Ch0_Cf2, Brg);                       //Preset Current in CH0_CF2 regist
 934:PCA9959.c     ****             PCA9959_Write_4(Ch1_Cf2, Brg);
 935:PCA9959.c     ****             PCA9959_Write_4(Ch2_Cf2, Brg);
 936:PCA9959.c     ****             PCA9959_Write_4(Ch3_Cf2, Brg);
 937:PCA9959.c     ****             PCA9959_Write_4(Ch4_Cf2, Brg);
 938:PCA9959.c     ****             PCA9959_Write_4(Ch5_Cf2, Brg);
 939:PCA9959.c     ****             PCA9959_Write_4(Ch6_Cf2, Brg);
 940:PCA9959.c     ****             PCA9959_Write_4(Ch7_Cf2, Brg);
 941:PCA9959.c     ****             PCA9959_Write_4(Ch8_Cf2, Brg);
 942:PCA9959.c     ****             PCA9959_Write_4(Ch9_Cf2, Brg);
ARM GAS  C:\Users\Revanth\AppData\Local\Temp\ccqs06ys.s 			page 18


 943:PCA9959.c     ****             PCA9959_Write_4(Ch10_Cf2, Brg);
 944:PCA9959.c     ****             PCA9959_Write_4(Ch11_Cf2, Brg);
 945:PCA9959.c     ****             
 946:PCA9959.c     ****             PCA9959_Write_4(Ch12_Cf2, Brg);
 947:PCA9959.c     ****             PCA9959_Write_4(Ch13_Cf2, Brg);
 948:PCA9959.c     ****             PCA9959_Write_4(Ch14_Cf2, Brg);
 949:PCA9959.c     ****             PCA9959_Write_4(Ch15_Cf2, Brg);
 950:PCA9959.c     ****             PCA9959_Write_4(Ch16_Cf2, Brg);
 951:PCA9959.c     ****             PCA9959_Write_4(Ch17_Cf2, Brg);
 952:PCA9959.c     ****             PCA9959_Write_4(Ch18_Cf2, Brg);
 953:PCA9959.c     ****             PCA9959_Write_4(Ch19_Cf2, Brg);
 954:PCA9959.c     ****             PCA9959_Write_4(Ch20_Cf2, Brg);
 955:PCA9959.c     ****             PCA9959_Write_4(Ch21_Cf2, Brg);
 956:PCA9959.c     ****             PCA9959_Write_4(Ch22_Cf2, Brg);
 957:PCA9959.c     ****             PCA9959_Write_4(Ch23_Cf2, Brg); 
 958:PCA9959.c     ****             CyDelay(100);
 959:PCA9959.c     ****             Pin_OE_PCA9959_4_Write(0);
 960:PCA9959.c     ****         }
 961:PCA9959.c     ****         
 962:PCA9959.c     ****         else if(Sel == 12)
 963:PCA9959.c     ****         {
 964:PCA9959.c     ****             Pin_OE_PCA9959_3_Write(1);
 965:PCA9959.c     ****             PageSel_3(ChSel);
 966:PCA9959.c     ****             PCA9959_Write_3(Ch0_Cf1, 0x01);                       //LED Channel 0 is assigned to Gr
 967:PCA9959.c     ****             PCA9959_Write_3(Ch1_Cf1, 0x01);
 968:PCA9959.c     ****             PCA9959_Write_3(Ch2_Cf1, 0x01); 
 969:PCA9959.c     ****             PCA9959_Write_3(Ch3_Cf1, 0x01); 
 970:PCA9959.c     ****             
 971:PCA9959.c     ****             
 972:PCA9959.c     ****             PCA9959_Write_3(Ch4_Cf1, 0x01); 
 973:PCA9959.c     ****             PCA9959_Write_3(Ch5_Cf1, 0x01); 
 974:PCA9959.c     ****             PCA9959_Write_3(Ch6_Cf1, 0x01); 
 975:PCA9959.c     ****             PCA9959_Write_3(Ch7_Cf1, 0x01); 
 976:PCA9959.c     ****             PCA9959_Write_3(Ch8_Cf1, 0x01); 
 977:PCA9959.c     ****             PCA9959_Write_3(Ch9_Cf1, 0x01); 
 978:PCA9959.c     ****             PCA9959_Write_3(Ch10_Cf1, 0x01); 
 979:PCA9959.c     ****             PCA9959_Write_3(Ch11_Cf1, 0x01);
 980:PCA9959.c     ****             
 981:PCA9959.c     ****             PCA9959_Write_3(Ch12_Cf1, 0x01);
 982:PCA9959.c     ****             PCA9959_Write_3(Ch13_Cf1, 0x01);
 983:PCA9959.c     ****             PCA9959_Write_3(Ch14_Cf1, 0x01);
 984:PCA9959.c     ****             PCA9959_Write_3(Ch15_Cf1, 0x00);
 985:PCA9959.c     ****             PCA9959_Write_3(Ch16_Cf1, 0x00);
 986:PCA9959.c     ****             PCA9959_Write_3(Ch17_Cf1, 0x00);
 987:PCA9959.c     ****             PCA9959_Write_3(Ch18_Cf1, 0x00);
 988:PCA9959.c     ****             PCA9959_Write_3(Ch19_Cf1, 0x00);
 989:PCA9959.c     ****             PCA9959_Write_3(Ch20_Cf1, 0x00);
 990:PCA9959.c     ****             PCA9959_Write_3(Ch21_Cf1, 0x00);
 991:PCA9959.c     ****             PCA9959_Write_3(Ch22_Cf1, 0x00);
 992:PCA9959.c     ****             PCA9959_Write_3(Ch23_Cf1, 0x00);
 993:PCA9959.c     ****             
 994:PCA9959.c     ****             
 995:PCA9959.c     ****             
 996:PCA9959.c     ****             PCA9959_Write_3(Ch0_Cf2, Brg);                       //Preset Current in CH0_CF2 regist
 997:PCA9959.c     ****             PCA9959_Write_3(Ch1_Cf2, Brg);
 998:PCA9959.c     ****             PCA9959_Write_3(Ch2_Cf2, Brg);
 999:PCA9959.c     ****             PCA9959_Write_3(Ch3_Cf2, Brg);
ARM GAS  C:\Users\Revanth\AppData\Local\Temp\ccqs06ys.s 			page 19


1000:PCA9959.c     ****             PCA9959_Write_3(Ch4_Cf2, Brg);
1001:PCA9959.c     ****             PCA9959_Write_3(Ch5_Cf2, Brg);
1002:PCA9959.c     ****             PCA9959_Write_3(Ch6_Cf2, Brg);
1003:PCA9959.c     ****             PCA9959_Write_3(Ch7_Cf2, Brg);
1004:PCA9959.c     ****             PCA9959_Write_3(Ch8_Cf2, Brg);
1005:PCA9959.c     ****             PCA9959_Write_3(Ch9_Cf2, Brg);
1006:PCA9959.c     ****             PCA9959_Write_3(Ch10_Cf2, Brg);
1007:PCA9959.c     ****             PCA9959_Write_3(Ch11_Cf2, Brg);
1008:PCA9959.c     ****             
1009:PCA9959.c     ****             PCA9959_Write_3(Ch12_Cf2, Brg);
1010:PCA9959.c     ****             PCA9959_Write_3(Ch13_Cf2, Brg);
1011:PCA9959.c     ****             PCA9959_Write_3(Ch14_Cf2, Brg);
1012:PCA9959.c     ****             PCA9959_Write_3(Ch15_Cf2, 0x00);
1013:PCA9959.c     ****             PCA9959_Write_3(Ch16_Cf2, 0x00);
1014:PCA9959.c     ****             PCA9959_Write_3(Ch17_Cf2, 0x00);
1015:PCA9959.c     ****             PCA9959_Write_3(Ch18_Cf2, 0x00);
1016:PCA9959.c     ****             PCA9959_Write_3(Ch19_Cf2, 0x00);
1017:PCA9959.c     ****             PCA9959_Write_3(Ch20_Cf2, 0x00);
1018:PCA9959.c     ****             PCA9959_Write_3(Ch21_Cf2, 0x00);
1019:PCA9959.c     ****             PCA9959_Write_3(Ch22_Cf2, 0x00);
1020:PCA9959.c     ****             PCA9959_Write_3(Ch23_Cf2, 0x00); 
1021:PCA9959.c     ****             //CyDelay(50);
1022:PCA9959.c     ****             Pin_OE_PCA9959_3_Write(0);
1023:PCA9959.c     ****             
1024:PCA9959.c     ****             Pin_OE_PCA9959_2_Write(1);
1025:PCA9959.c     ****             PageSel_2(ChSel);
1026:PCA9959.c     ****             PCA9959_Write_2(Ch0_Cf1, 0x01);                       //LED Channel 0 is assigned to Gr
1027:PCA9959.c     ****             PCA9959_Write_2(Ch1_Cf1, 0x01);
1028:PCA9959.c     ****             PCA9959_Write_2(Ch2_Cf1, 0x01); 
1029:PCA9959.c     ****             PCA9959_Write_2(Ch3_Cf1, 0x01); 
1030:PCA9959.c     ****             
1031:PCA9959.c     ****             
1032:PCA9959.c     ****             PCA9959_Write_2(Ch4_Cf1, 0x01); 
1033:PCA9959.c     ****             PCA9959_Write_2(Ch5_Cf1, 0x01); 
1034:PCA9959.c     ****             PCA9959_Write_2(Ch6_Cf1, 0x01); 
1035:PCA9959.c     ****             PCA9959_Write_2(Ch7_Cf1, 0x01); 
1036:PCA9959.c     ****             PCA9959_Write_2(Ch8_Cf1, 0x01); 
1037:PCA9959.c     ****             PCA9959_Write_2(Ch9_Cf1, 0x01); 
1038:PCA9959.c     ****             PCA9959_Write_2(Ch10_Cf1, 0x01); 
1039:PCA9959.c     ****             PCA9959_Write_2(Ch11_Cf1, 0x01);
1040:PCA9959.c     ****             
1041:PCA9959.c     ****             PCA9959_Write_2(Ch12_Cf1, 0x01);
1042:PCA9959.c     ****             PCA9959_Write_2(Ch13_Cf1, 0x01);
1043:PCA9959.c     ****             PCA9959_Write_2(Ch14_Cf1, 0x01);
1044:PCA9959.c     ****             PCA9959_Write_2(Ch15_Cf1, 0x00);
1045:PCA9959.c     ****             PCA9959_Write_2(Ch16_Cf1, 0x00);
1046:PCA9959.c     ****             PCA9959_Write_2(Ch17_Cf1, 0x00);
1047:PCA9959.c     ****             PCA9959_Write_2(Ch18_Cf1, 0x00);
1048:PCA9959.c     ****             PCA9959_Write_2(Ch19_Cf1, 0x00);
1049:PCA9959.c     ****             PCA9959_Write_2(Ch20_Cf1, 0x00);
1050:PCA9959.c     ****             PCA9959_Write_2(Ch21_Cf1, 0x00);
1051:PCA9959.c     ****             PCA9959_Write_2(Ch22_Cf1, 0x00);
1052:PCA9959.c     ****             PCA9959_Write_2(Ch23_Cf1, 0x00);
1053:PCA9959.c     ****             
1054:PCA9959.c     ****             
1055:PCA9959.c     ****             
1056:PCA9959.c     ****             PCA9959_Write_2(Ch0_Cf2, Brg);                       //Preset Current in CH0_CF2 regist
ARM GAS  C:\Users\Revanth\AppData\Local\Temp\ccqs06ys.s 			page 20


1057:PCA9959.c     ****             PCA9959_Write_2(Ch1_Cf2, Brg);
1058:PCA9959.c     ****             PCA9959_Write_2(Ch2_Cf2, Brg);
1059:PCA9959.c     ****             PCA9959_Write_2(Ch3_Cf2, Brg);
1060:PCA9959.c     ****             PCA9959_Write_2(Ch4_Cf2, Brg);
1061:PCA9959.c     ****             PCA9959_Write_2(Ch5_Cf2, Brg);
1062:PCA9959.c     ****             PCA9959_Write_2(Ch6_Cf2, Brg);
1063:PCA9959.c     ****             PCA9959_Write_2(Ch7_Cf2, Brg);
1064:PCA9959.c     ****             PCA9959_Write_2(Ch8_Cf2, Brg);
1065:PCA9959.c     ****             PCA9959_Write_2(Ch9_Cf2, Brg);
1066:PCA9959.c     ****             PCA9959_Write_2(Ch10_Cf2, Brg);
1067:PCA9959.c     ****             PCA9959_Write_2(Ch11_Cf2, Brg);
1068:PCA9959.c     ****             
1069:PCA9959.c     ****             PCA9959_Write_2(Ch12_Cf2, Brg);
1070:PCA9959.c     ****             PCA9959_Write_2(Ch13_Cf2, Brg);
1071:PCA9959.c     ****             PCA9959_Write_2(Ch14_Cf2, Brg);
1072:PCA9959.c     ****             PCA9959_Write_2(Ch15_Cf2, 0x00);
1073:PCA9959.c     ****             PCA9959_Write_2(Ch16_Cf2, 0x00);
1074:PCA9959.c     ****             PCA9959_Write_2(Ch17_Cf2, 0x00);
1075:PCA9959.c     ****             PCA9959_Write_2(Ch18_Cf2, 0x00);
1076:PCA9959.c     ****             PCA9959_Write_2(Ch19_Cf2, 0x00);
1077:PCA9959.c     ****             PCA9959_Write_2(Ch20_Cf2, 0x00);
1078:PCA9959.c     ****             PCA9959_Write_2(Ch21_Cf2, 0x00);
1079:PCA9959.c     ****             PCA9959_Write_2(Ch22_Cf2, 0x00);
1080:PCA9959.c     ****             PCA9959_Write_2(Ch23_Cf2, 0x00); 
1081:PCA9959.c     ****             
1082:PCA9959.c     ****             Pin_OE_PCA9959_2_Write(0);
1083:PCA9959.c     ****         }
1084:PCA9959.c     ****         
1085:PCA9959.c     ****         else
1086:PCA9959.c     ****         {
1087:PCA9959.c     ****             
1088:PCA9959.c     ****             PCA9959_clear();
1089:PCA9959.c     ****         }
1090:PCA9959.c     ****     }
1091:PCA9959.c     **** }
1092:PCA9959.c     **** 
1093:PCA9959.c     **** 
1094:PCA9959.c     **** 
1095:PCA9959.c     **** void PCA9959_clear(void)
1096:PCA9959.c     **** {
1097:PCA9959.c     ****     Pin_SS_PCA9959_Write(1);
1098:PCA9959.c     ****     Pin_OE_PCA9959_1_Write(1);
1099:PCA9959.c     ****     PageSel_1(ChSel);
1100:PCA9959.c     ****     PCA9959_Write_1(Ch0_Cf1, 0x00);                       
1101:PCA9959.c     ****     PCA9959_Write_1(Ch1_Cf1, 0x00);
1102:PCA9959.c     ****     PCA9959_Write_1(Ch2_Cf1, 0x00); 
1103:PCA9959.c     ****     PCA9959_Write_1(Ch3_Cf1, 0x00); 
1104:PCA9959.c     ****     PCA9959_Write_1(Ch4_Cf1, 0x00); 
1105:PCA9959.c     ****     PCA9959_Write_1(Ch5_Cf1, 0x00); 
1106:PCA9959.c     ****     PCA9959_Write_1(Ch6_Cf1, 0x00); 
1107:PCA9959.c     ****     PCA9959_Write_1(Ch7_Cf1, 0x00); 
1108:PCA9959.c     ****     PCA9959_Write_1(Ch8_Cf1, 0x00); 
1109:PCA9959.c     ****     PCA9959_Write_1(Ch9_Cf1, 0x00); 
1110:PCA9959.c     ****     PCA9959_Write_1(Ch10_Cf1, 0x00); 
1111:PCA9959.c     ****     PCA9959_Write_1(Ch11_Cf1, 0x00);
1112:PCA9959.c     ****     
1113:PCA9959.c     ****     PCA9959_Write_1(Ch12_Cf1, 0x00);
ARM GAS  C:\Users\Revanth\AppData\Local\Temp\ccqs06ys.s 			page 21


1114:PCA9959.c     ****     PCA9959_Write_1(Ch13_Cf1, 0x00);
1115:PCA9959.c     ****     PCA9959_Write_1(Ch14_Cf1, 0x00);
1116:PCA9959.c     ****     PCA9959_Write_1(Ch15_Cf1, 0x00);
1117:PCA9959.c     ****     PCA9959_Write_1(Ch16_Cf1, 0x00);
1118:PCA9959.c     ****     PCA9959_Write_1(Ch17_Cf1, 0x00);
1119:PCA9959.c     ****     PCA9959_Write_1(Ch18_Cf1, 0x00);
1120:PCA9959.c     ****     PCA9959_Write_1(Ch19_Cf1, 0x00);
1121:PCA9959.c     ****     PCA9959_Write_1(Ch20_Cf1, 0x00);
1122:PCA9959.c     ****     PCA9959_Write_1(Ch21_Cf1, 0x00);
1123:PCA9959.c     ****     PCA9959_Write_1(Ch22_Cf1, 0x00);
1124:PCA9959.c     ****     PCA9959_Write_1(Ch23_Cf1, 0x00);
1125:PCA9959.c     ****     
1126:PCA9959.c     ****     
1127:PCA9959.c     ****     
1128:PCA9959.c     ****     PCA9959_Write_1(Ch0_Cf2, 0x00);                       
1129:PCA9959.c     ****     PCA9959_Write_1(Ch1_Cf2, 0x00);
1130:PCA9959.c     ****     PCA9959_Write_1(Ch2_Cf2, 0x00);
1131:PCA9959.c     ****     PCA9959_Write_1(Ch3_Cf2, 0x00);
1132:PCA9959.c     ****     PCA9959_Write_1(Ch4_Cf2, 0x00);
1133:PCA9959.c     ****     PCA9959_Write_1(Ch5_Cf2, 0x00);
1134:PCA9959.c     ****     PCA9959_Write_1(Ch6_Cf2, 0x00);
1135:PCA9959.c     ****     PCA9959_Write_1(Ch7_Cf2, 0x00);
1136:PCA9959.c     ****     PCA9959_Write_1(Ch8_Cf2, 0x00);
1137:PCA9959.c     ****     PCA9959_Write_1(Ch9_Cf2, 0x00);
1138:PCA9959.c     ****     PCA9959_Write_1(Ch10_Cf2, 0x00);
1139:PCA9959.c     ****     PCA9959_Write_1(Ch11_Cf2, 0x00);
1140:PCA9959.c     ****     
1141:PCA9959.c     ****     PCA9959_Write_1(Ch12_Cf2, 0x00);
1142:PCA9959.c     ****     PCA9959_Write_1(Ch13_Cf2, 0x00);
1143:PCA9959.c     ****     PCA9959_Write_1(Ch14_Cf2, 0x00);
1144:PCA9959.c     ****     PCA9959_Write_1(Ch15_Cf2, 0x00);
1145:PCA9959.c     ****     PCA9959_Write_1(Ch16_Cf2, 0x00);
1146:PCA9959.c     ****     PCA9959_Write_1(Ch17_Cf2, 0x00);
1147:PCA9959.c     ****     PCA9959_Write_1(Ch18_Cf2, 0x00);
1148:PCA9959.c     ****     PCA9959_Write_1(Ch19_Cf2, 0x00);
1149:PCA9959.c     ****     PCA9959_Write_1(Ch20_Cf2, 0x00);
1150:PCA9959.c     ****     PCA9959_Write_1(Ch21_Cf2, 0x00);
1151:PCA9959.c     ****     PCA9959_Write_1(Ch22_Cf2, 0x00);
1152:PCA9959.c     ****     PCA9959_Write_1(Ch23_Cf2, 0x00);
1153:PCA9959.c     ****     Pin_OE_PCA9959_1_Write(1);
1154:PCA9959.c     ****     
1155:PCA9959.c     ****     Pin_OE_PCA9959_2_Write(1);
1156:PCA9959.c     ****     PageSel_2(ChSel);
1157:PCA9959.c     ****     PCA9959_Write_2(Ch0_Cf1, 0x00);                       
1158:PCA9959.c     ****     PCA9959_Write_2(Ch1_Cf1, 0x00);
1159:PCA9959.c     ****     PCA9959_Write_2(Ch2_Cf1, 0x00); 
1160:PCA9959.c     ****     PCA9959_Write_2(Ch3_Cf1, 0x00); 
1161:PCA9959.c     ****     PCA9959_Write_2(Ch4_Cf1, 0x00); 
1162:PCA9959.c     ****     PCA9959_Write_2(Ch5_Cf1, 0x00); 
1163:PCA9959.c     ****     PCA9959_Write_2(Ch6_Cf1, 0x00); 
1164:PCA9959.c     ****     PCA9959_Write_2(Ch7_Cf1, 0x00); 
1165:PCA9959.c     ****     PCA9959_Write_2(Ch8_Cf1, 0x00); 
1166:PCA9959.c     ****     PCA9959_Write_2(Ch9_Cf1, 0x00); 
1167:PCA9959.c     ****     PCA9959_Write_2(Ch10_Cf1, 0x00);  
1168:PCA9959.c     ****     PCA9959_Write_2(Ch11_Cf1, 0x00);
1169:PCA9959.c     ****     
1170:PCA9959.c     ****     PCA9959_Write_2(Ch12_Cf1, 0x00);
ARM GAS  C:\Users\Revanth\AppData\Local\Temp\ccqs06ys.s 			page 22


1171:PCA9959.c     ****     PCA9959_Write_2(Ch13_Cf1, 0x00);
1172:PCA9959.c     ****     PCA9959_Write_2(Ch14_Cf1, 0x00);
1173:PCA9959.c     ****     PCA9959_Write_2(Ch15_Cf1, 0x00);
1174:PCA9959.c     ****     PCA9959_Write_2(Ch16_Cf1, 0x00);
1175:PCA9959.c     ****     PCA9959_Write_2(Ch17_Cf1, 0x00);
1176:PCA9959.c     ****     PCA9959_Write_2(Ch18_Cf1, 0x00);
1177:PCA9959.c     ****     PCA9959_Write_2(Ch19_Cf1, 0x00);
1178:PCA9959.c     ****     PCA9959_Write_2(Ch20_Cf1, 0x00);
1179:PCA9959.c     ****     PCA9959_Write_2(Ch21_Cf1, 0x00);
1180:PCA9959.c     ****     PCA9959_Write_2(Ch22_Cf1, 0x00);
1181:PCA9959.c     ****     PCA9959_Write_2(Ch23_Cf1, 0x00);
1182:PCA9959.c     ****     
1183:PCA9959.c     ****     
1184:PCA9959.c     ****     
1185:PCA9959.c     ****     PCA9959_Write_2(Ch0_Cf2, 0x00);                       
1186:PCA9959.c     ****     PCA9959_Write_2(Ch1_Cf2, 0x00);
1187:PCA9959.c     ****     PCA9959_Write_2(Ch2_Cf2, 0x00);
1188:PCA9959.c     ****     PCA9959_Write_2(Ch3_Cf2, 0x00);
1189:PCA9959.c     ****     PCA9959_Write_2(Ch4_Cf2, 0x00);
1190:PCA9959.c     ****     PCA9959_Write_2(Ch5_Cf2, 0x00);
1191:PCA9959.c     ****     PCA9959_Write_2(Ch6_Cf2, 0x00);
1192:PCA9959.c     ****     PCA9959_Write_2(Ch7_Cf2, 0x00);
1193:PCA9959.c     ****     PCA9959_Write_2(Ch8_Cf2, 0x00);
1194:PCA9959.c     ****     PCA9959_Write_2(Ch9_Cf2, 0x00);
1195:PCA9959.c     ****     PCA9959_Write_2(Ch10_Cf2, 0x00);
1196:PCA9959.c     ****     PCA9959_Write_2(Ch11_Cf2, 0x00);
1197:PCA9959.c     ****     
1198:PCA9959.c     ****     PCA9959_Write_2(Ch12_Cf2, 0x00);
1199:PCA9959.c     ****     PCA9959_Write_2(Ch13_Cf2, 0x00);
1200:PCA9959.c     ****     PCA9959_Write_2(Ch14_Cf2, 0x00);
1201:PCA9959.c     ****     PCA9959_Write_2(Ch15_Cf2, 0x00);
1202:PCA9959.c     ****     PCA9959_Write_2(Ch16_Cf2, 0x00);
1203:PCA9959.c     ****     PCA9959_Write_2(Ch17_Cf2, 0x00);
1204:PCA9959.c     ****     PCA9959_Write_2(Ch18_Cf2, 0x00);
1205:PCA9959.c     ****     PCA9959_Write_2(Ch19_Cf2, 0x00);
1206:PCA9959.c     ****     PCA9959_Write_2(Ch20_Cf2, 0x00);
1207:PCA9959.c     ****     PCA9959_Write_2(Ch21_Cf2, 0x00);
1208:PCA9959.c     ****     PCA9959_Write_2(Ch22_Cf2, 0x00);
1209:PCA9959.c     ****     PCA9959_Write_2(Ch23_Cf2, 0x00);
1210:PCA9959.c     ****     Pin_OE_PCA9959_2_Write(1);
1211:PCA9959.c     ****     
1212:PCA9959.c     ****     Pin_OE_PCA9959_3_Write(1);
1213:PCA9959.c     ****     PageSel_3(ChSel);
1214:PCA9959.c     ****     PCA9959_Write_3(Ch0_Cf1, 0x00);                       
1215:PCA9959.c     ****     PCA9959_Write_3(Ch1_Cf1, 0x00);
1216:PCA9959.c     ****     PCA9959_Write_3(Ch2_Cf1, 0x00); 
1217:PCA9959.c     ****     PCA9959_Write_3(Ch3_Cf1, 0x00); 
1218:PCA9959.c     ****     PCA9959_Write_3(Ch4_Cf1, 0x00); 
1219:PCA9959.c     ****     PCA9959_Write_3(Ch5_Cf1, 0x00); 
1220:PCA9959.c     ****     PCA9959_Write_3(Ch6_Cf1, 0x00); 
1221:PCA9959.c     ****     PCA9959_Write_3(Ch7_Cf1, 0x00); 
1222:PCA9959.c     ****     PCA9959_Write_3(Ch8_Cf1, 0x00); 
1223:PCA9959.c     ****     PCA9959_Write_3(Ch9_Cf1, 0x00); 
1224:PCA9959.c     ****     PCA9959_Write_3(Ch10_Cf1, 0x00); 
1225:PCA9959.c     ****     PCA9959_Write_3(Ch11_Cf1, 0x00);
1226:PCA9959.c     ****     
1227:PCA9959.c     ****     PCA9959_Write_3(Ch12_Cf1, 0x00);
ARM GAS  C:\Users\Revanth\AppData\Local\Temp\ccqs06ys.s 			page 23


1228:PCA9959.c     ****     PCA9959_Write_3(Ch13_Cf1, 0x00);
1229:PCA9959.c     ****     PCA9959_Write_3(Ch14_Cf1, 0x00);
1230:PCA9959.c     ****     PCA9959_Write_3(Ch15_Cf1, 0x00);
1231:PCA9959.c     ****     PCA9959_Write_3(Ch16_Cf1, 0x00);
1232:PCA9959.c     ****     PCA9959_Write_3(Ch17_Cf1, 0x00);
1233:PCA9959.c     ****     PCA9959_Write_3(Ch18_Cf1, 0x00);
1234:PCA9959.c     ****     PCA9959_Write_3(Ch19_Cf1, 0x00);
1235:PCA9959.c     ****     PCA9959_Write_3(Ch20_Cf1, 0x00);
1236:PCA9959.c     ****     PCA9959_Write_3(Ch21_Cf1, 0x00);
1237:PCA9959.c     ****     PCA9959_Write_3(Ch22_Cf1, 0x00);
1238:PCA9959.c     ****     PCA9959_Write_3(Ch23_Cf1, 0x00);
1239:PCA9959.c     ****     
1240:PCA9959.c     ****     
1241:PCA9959.c     ****     
1242:PCA9959.c     ****     PCA9959_Write_3(Ch0_Cf2, 0x00);                      
1243:PCA9959.c     ****     PCA9959_Write_3(Ch1_Cf2, 0x00);
1244:PCA9959.c     ****     PCA9959_Write_3(Ch2_Cf2, 0x00);
1245:PCA9959.c     ****     PCA9959_Write_3(Ch3_Cf2, 0x00);
1246:PCA9959.c     ****     PCA9959_Write_3(Ch4_Cf2, 0x00);
1247:PCA9959.c     ****     PCA9959_Write_3(Ch5_Cf2, 0x00);
1248:PCA9959.c     ****     PCA9959_Write_3(Ch6_Cf2, 0x00);
1249:PCA9959.c     ****     PCA9959_Write_3(Ch7_Cf2, 0x00);
1250:PCA9959.c     ****     PCA9959_Write_3(Ch8_Cf2, 0x00);
1251:PCA9959.c     ****     PCA9959_Write_3(Ch9_Cf2, 0x00);
1252:PCA9959.c     ****     PCA9959_Write_3(Ch10_Cf2, 0x00);
1253:PCA9959.c     ****     PCA9959_Write_3(Ch11_Cf2, 0x00);
1254:PCA9959.c     ****     
1255:PCA9959.c     ****     PCA9959_Write_3(Ch12_Cf2, 0x00);
1256:PCA9959.c     ****     PCA9959_Write_3(Ch13_Cf2, 0x00);
1257:PCA9959.c     ****     PCA9959_Write_3(Ch14_Cf2, 0x00);
1258:PCA9959.c     ****     PCA9959_Write_3(Ch15_Cf2, 0x00);
1259:PCA9959.c     ****     PCA9959_Write_3(Ch16_Cf2, 0x00);
1260:PCA9959.c     ****     PCA9959_Write_3(Ch17_Cf2, 0x00);
1261:PCA9959.c     ****     PCA9959_Write_3(Ch18_Cf2, 0x00);
1262:PCA9959.c     ****     PCA9959_Write_3(Ch19_Cf2, 0x00);
1263:PCA9959.c     ****     PCA9959_Write_3(Ch20_Cf2, 0x00);
1264:PCA9959.c     ****     PCA9959_Write_3(Ch21_Cf2, 0x00);
1265:PCA9959.c     ****     PCA9959_Write_3(Ch22_Cf2, 0x00);
1266:PCA9959.c     ****     PCA9959_Write_3(Ch23_Cf2, 0x00);
1267:PCA9959.c     ****     Pin_OE_PCA9959_3_Write(1);
1268:PCA9959.c     ****     
1269:PCA9959.c     ****     Pin_OE_PCA9959_4_Write(1);
1270:PCA9959.c     ****     PageSel_4(ChSel);
1271:PCA9959.c     ****     PCA9959_Write_4(Ch0_Cf1, 0x00);                    
1272:PCA9959.c     ****     PCA9959_Write_4(Ch1_Cf1, 0x00);
1273:PCA9959.c     ****     PCA9959_Write_4(Ch2_Cf1, 0x00); 
1274:PCA9959.c     ****     PCA9959_Write_4(Ch3_Cf1, 0x00); 
1275:PCA9959.c     ****     PCA9959_Write_4(Ch4_Cf1, 0x00); 
1276:PCA9959.c     ****     PCA9959_Write_4(Ch5_Cf1, 0x00); 
1277:PCA9959.c     ****     PCA9959_Write_4(Ch6_Cf1, 0x00); 
1278:PCA9959.c     ****     PCA9959_Write_4(Ch7_Cf1, 0x00); 
1279:PCA9959.c     ****     PCA9959_Write_4(Ch8_Cf1, 0x00); 
1280:PCA9959.c     ****     PCA9959_Write_4(Ch9_Cf1, 0x00); 
1281:PCA9959.c     ****     PCA9959_Write_4(Ch10_Cf1, 0x00); 
1282:PCA9959.c     ****     PCA9959_Write_4(Ch11_Cf1, 0x00);
1283:PCA9959.c     ****     
1284:PCA9959.c     ****     PCA9959_Write_4(Ch12_Cf1, 0x00);
ARM GAS  C:\Users\Revanth\AppData\Local\Temp\ccqs06ys.s 			page 24


1285:PCA9959.c     ****     PCA9959_Write_4(Ch13_Cf1, 0x00);
1286:PCA9959.c     ****     PCA9959_Write_4(Ch14_Cf1, 0x00);
1287:PCA9959.c     ****     PCA9959_Write_4(Ch15_Cf1, 0x00);
1288:PCA9959.c     ****     PCA9959_Write_4(Ch16_Cf1, 0x00);
1289:PCA9959.c     ****     PCA9959_Write_4(Ch17_Cf1, 0x00);
1290:PCA9959.c     ****     PCA9959_Write_4(Ch18_Cf1, 0x00);
1291:PCA9959.c     ****     PCA9959_Write_4(Ch19_Cf1, 0x00);
1292:PCA9959.c     ****     PCA9959_Write_4(Ch20_Cf1, 0x00);
1293:PCA9959.c     ****     PCA9959_Write_4(Ch21_Cf1, 0x00);
1294:PCA9959.c     ****     PCA9959_Write_4(Ch22_Cf1, 0x00);
1295:PCA9959.c     ****     PCA9959_Write_4(Ch23_Cf1, 0x00);
1296:PCA9959.c     ****     
1297:PCA9959.c     ****     
1298:PCA9959.c     ****     
1299:PCA9959.c     ****     PCA9959_Write_4(Ch0_Cf2, 0x00);                       
1300:PCA9959.c     ****     PCA9959_Write_4(Ch1_Cf2, 0x00);
1301:PCA9959.c     ****     PCA9959_Write_4(Ch2_Cf2, 0x00);
1302:PCA9959.c     ****     PCA9959_Write_4(Ch3_Cf2, 0x00);
1303:PCA9959.c     ****     PCA9959_Write_4(Ch4_Cf2, 0x00);
1304:PCA9959.c     ****     PCA9959_Write_4(Ch5_Cf2, 0x00);
1305:PCA9959.c     ****     PCA9959_Write_4(Ch6_Cf2, 0x00);
1306:PCA9959.c     ****     PCA9959_Write_4(Ch7_Cf2, 0x00);
1307:PCA9959.c     ****     PCA9959_Write_4(Ch8_Cf2, 0x00);
1308:PCA9959.c     ****     PCA9959_Write_4(Ch9_Cf2, 0x00);
1309:PCA9959.c     ****     PCA9959_Write_4(Ch10_Cf2, 0x00);
1310:PCA9959.c     ****     PCA9959_Write_4(Ch11_Cf2, 0x00);
1311:PCA9959.c     ****     
1312:PCA9959.c     ****     PCA9959_Write_4(Ch12_Cf2, 0x00);
1313:PCA9959.c     ****     PCA9959_Write_4(Ch13_Cf2, 0x00);
1314:PCA9959.c     ****     PCA9959_Write_4(Ch14_Cf2, 0x00);
1315:PCA9959.c     ****     PCA9959_Write_4(Ch15_Cf2, 0x00);
1316:PCA9959.c     ****     PCA9959_Write_4(Ch16_Cf2, 0x00);
1317:PCA9959.c     ****     PCA9959_Write_4(Ch17_Cf2, 0x00);
1318:PCA9959.c     ****     PCA9959_Write_4(Ch18_Cf2, 0x00);
1319:PCA9959.c     ****     PCA9959_Write_4(Ch19_Cf2, 0x00);
1320:PCA9959.c     ****     PCA9959_Write_4(Ch20_Cf2, 0x00);
1321:PCA9959.c     ****     PCA9959_Write_4(Ch21_Cf2, 0x00);
1322:PCA9959.c     ****     PCA9959_Write_4(Ch22_Cf2, 0x00);
1323:PCA9959.c     ****     PCA9959_Write_4(Ch23_Cf2, 0x00);
1324:PCA9959.c     ****     Pin_OE_PCA9959_4_Write(0);
1325:PCA9959.c     ****     
1326:PCA9959.c     **** }
1327:PCA9959.c     **** 
1328:PCA9959.c     **** void PCA9959_dummy(void)
1329:PCA9959.c     **** {
  28              		.loc 1 1329 0
  29              		.cfi_startproc
  30              		@ args = 0, pretend = 0, frame = 0
  31              		@ frame_needed = 0, uses_anonymous_args = 0
  32 0000 10B5     		push	{r4, lr}
  33              		.cfi_def_cfa_offset 8
  34              		.cfi_offset 4, -8
  35              		.cfi_offset 14, -4
  36              	.LVL0:
1330:PCA9959.c     ****     uint8_t i=0;
1331:PCA9959.c     ****     for(i=16;i>0;i--)
  37              		.loc 1 1331 0
ARM GAS  C:\Users\Revanth\AppData\Local\Temp\ccqs06ys.s 			page 25


  38 0002 1024     		movs	r4, #16
  39 0004 10E0     		b	.L2
  40              	.LVL1:
  41              	.L3:
1332:PCA9959.c     ****     {
1333:PCA9959.c     ****       Pin_MOSI_PCA9959_Write((uint8)(((Side_Ctl << 1) | 1) << 8) | 0x00);
  42              		.loc 1 1333 0 discriminator 3
  43 0006 0020     		movs	r0, #0
  44 0008 FFF7FEFF 		bl	Pin_MOSI_PCA9959_Write
  45              	.LVL2:
1334:PCA9959.c     ****       Pin_SCK_PCA9959_Write(0);
  46              		.loc 1 1334 0 discriminator 3
  47 000c 0020     		movs	r0, #0
  48 000e FFF7FEFF 		bl	Pin_SCK_PCA9959_Write
  49              	.LVL3:
1335:PCA9959.c     ****       CyDelayUs(1);
  50              		.loc 1 1335 0 discriminator 3
  51 0012 0120     		movs	r0, #1
  52 0014 FFF7FEFF 		bl	CyDelayUs
  53              	.LVL4:
1336:PCA9959.c     ****       Pin_SCK_PCA9959_Write(1);
  54              		.loc 1 1336 0 discriminator 3
  55 0018 0120     		movs	r0, #1
  56 001a FFF7FEFF 		bl	Pin_SCK_PCA9959_Write
  57              	.LVL5:
1337:PCA9959.c     ****       CyDelayUs(1);
  58              		.loc 1 1337 0 discriminator 3
  59 001e 0120     		movs	r0, #1
  60 0020 FFF7FEFF 		bl	CyDelayUs
  61              	.LVL6:
1331:PCA9959.c     ****     {
  62              		.loc 1 1331 0 discriminator 3
  63 0024 013C     		subs	r4, r4, #1
  64              	.LVL7:
  65 0026 E4B2     		uxtb	r4, r4
  66              	.LVL8:
  67              	.L2:
1331:PCA9959.c     ****     {
  68              		.loc 1 1331 0 is_stmt 0 discriminator 1
  69 0028 002C     		cmp	r4, #0
  70 002a ECD1     		bne	.L3
1338:PCA9959.c     ****     } 
1339:PCA9959.c     **** }
  71              		.loc 1 1339 0 is_stmt 1
  72 002c 10BD     		pop	{r4, pc}
  73              		.cfi_endproc
  74              	.LFE82:
  75              		.size	PCA9959_dummy, .-PCA9959_dummy
  76 002e 00BF     		.section	.text.PCA_16Bit_TxOp_1,"ax",%progbits
  77              		.align	2
  78              		.global	PCA_16Bit_TxOp_1
  79              		.thumb
  80              		.thumb_func
  81              		.type	PCA_16Bit_TxOp_1, %function
  82              	PCA_16Bit_TxOp_1:
  83              	.LFB76:
 188:PCA9959.c     ****     uint8_t i=0;
ARM GAS  C:\Users\Revanth\AppData\Local\Temp\ccqs06ys.s 			page 26


  84              		.loc 1 188 0
  85              		.cfi_startproc
  86              		@ args = 0, pretend = 0, frame = 0
  87              		@ frame_needed = 0, uses_anonymous_args = 0
  88              	.LVL9:
  89 0000 38B5     		push	{r3, r4, r5, lr}
  90              		.cfi_def_cfa_offset 16
  91              		.cfi_offset 3, -16
  92              		.cfi_offset 4, -12
  93              		.cfi_offset 5, -8
  94              		.cfi_offset 14, -4
  95 0002 0546     		mov	r5, r0
  96              	.LVL10:
 190:PCA9959.c     ****     Pin_SS_PCA9959_Write(0);
  97              		.loc 1 190 0
  98 0004 0020     		movs	r0, #0
  99              	.LVL11:
 100 0006 FFF7FEFF 		bl	Pin_SCK_PCA9959_Write
 101              	.LVL12:
 191:PCA9959.c     ****     CyDelayUs(1);
 102              		.loc 1 191 0
 103 000a 0020     		movs	r0, #0
 104 000c FFF7FEFF 		bl	Pin_SS_PCA9959_Write
 105              	.LVL13:
 192:PCA9959.c     ****     
 106              		.loc 1 192 0
 107 0010 0120     		movs	r0, #1
 108 0012 FFF7FEFF 		bl	CyDelayUs
 109              	.LVL14:
 194:PCA9959.c     ****     
 110              		.loc 1 194 0
 111 0016 FFF7FEFF 		bl	PCA9959_dummy
 112              	.LVL15:
 196:PCA9959.c     ****     {
 113              		.loc 1 196 0
 114 001a 1023     		movs	r3, #16
 115 001c 13E0     		b	.L6
 116              	.LVL16:
 117              	.L7:
 198:PCA9959.c     ****       Pin_SCK_PCA9959_Write(0);
 118              		.loc 1 198 0 discriminator 3
 119 001e 5C1E     		subs	r4, r3, #1
 120 0020 45FA04F0 		asr	r0, r5, r4
 121 0024 00F00100 		and	r0, r0, #1
 122 0028 FFF7FEFF 		bl	Pin_MOSI_PCA9959_Write
 123              	.LVL17:
 199:PCA9959.c     ****       CyDelayUs(1);
 124              		.loc 1 199 0 discriminator 3
 125 002c 0020     		movs	r0, #0
 126 002e FFF7FEFF 		bl	Pin_SCK_PCA9959_Write
 127              	.LVL18:
 200:PCA9959.c     ****       Pin_SCK_PCA9959_Write(1);
 128              		.loc 1 200 0 discriminator 3
 129 0032 0120     		movs	r0, #1
 130 0034 FFF7FEFF 		bl	CyDelayUs
 131              	.LVL19:
 201:PCA9959.c     ****       CyDelayUs(1);
ARM GAS  C:\Users\Revanth\AppData\Local\Temp\ccqs06ys.s 			page 27


 132              		.loc 1 201 0 discriminator 3
 133 0038 0120     		movs	r0, #1
 134 003a FFF7FEFF 		bl	Pin_SCK_PCA9959_Write
 135              	.LVL20:
 202:PCA9959.c     ****     }
 136              		.loc 1 202 0 discriminator 3
 137 003e 0120     		movs	r0, #1
 138 0040 FFF7FEFF 		bl	CyDelayUs
 139              	.LVL21:
 196:PCA9959.c     ****     {
 140              		.loc 1 196 0 discriminator 3
 141 0044 E3B2     		uxtb	r3, r4
 142              	.LVL22:
 143              	.L6:
 196:PCA9959.c     ****     {
 144              		.loc 1 196 0 is_stmt 0 discriminator 1
 145 0046 002B     		cmp	r3, #0
 146 0048 E9D1     		bne	.L7
 205:PCA9959.c     ****     PCA9959_dummy();
 147              		.loc 1 205 0 is_stmt 1
 148 004a FFF7FEFF 		bl	PCA9959_dummy
 149              	.LVL23:
 206:PCA9959.c     ****     
 150              		.loc 1 206 0
 151 004e FFF7FEFF 		bl	PCA9959_dummy
 152              	.LVL24:
 208:PCA9959.c     ****     Pin_SS_PCA9959_Write(1);
 153              		.loc 1 208 0
 154 0052 0020     		movs	r0, #0
 155 0054 FFF7FEFF 		bl	Pin_SCK_PCA9959_Write
 156              	.LVL25:
 209:PCA9959.c     ****     
 157              		.loc 1 209 0
 158 0058 0120     		movs	r0, #1
 159 005a FFF7FEFF 		bl	Pin_SS_PCA9959_Write
 160              	.LVL26:
 161 005e 38BD     		pop	{r3, r4, r5, pc}
 162              		.cfi_endproc
 163              	.LFE76:
 164              		.size	PCA_16Bit_TxOp_1, .-PCA_16Bit_TxOp_1
 165              		.section	.text.PCA9959_Write_1,"ax",%progbits
 166              		.align	2
 167              		.global	PCA9959_Write_1
 168              		.thumb
 169              		.thumb_func
 170              		.type	PCA9959_Write_1, %function
 171              	PCA9959_Write_1:
 172              	.LFB72:
 150:PCA9959.c     ****     Op = Write;   
 173              		.loc 1 150 0
 174              		.cfi_startproc
 175              		@ args = 0, pretend = 0, frame = 0
 176              		@ frame_needed = 0, uses_anonymous_args = 0
 177              	.LVL27:
 178 0000 08B5     		push	{r3, lr}
 179              		.cfi_def_cfa_offset 8
 180              		.cfi_offset 3, -8
ARM GAS  C:\Users\Revanth\AppData\Local\Temp\ccqs06ys.s 			page 28


 181              		.cfi_offset 14, -4
 151:PCA9959.c     ****     TX = ((((regaddr_w << 1) | Op) << 8) | data_w );    //Evaluate TX so that Write operation can b
 182              		.loc 1 151 0
 183 0002 0022     		movs	r2, #0
 184 0004 044B     		ldr	r3, .L11
 185 0006 1A70     		strb	r2, [r3]
 152:PCA9959.c     ****     PCA_16Bit_TxOp_1(TX);                                 //Send Write command with register addres
 186              		.loc 1 152 0
 187 0008 41EA4020 		orr	r0, r1, r0, lsl #9
 188              	.LVL28:
 189 000c 80B2     		uxth	r0, r0
 190 000e 034B     		ldr	r3, .L11+4
 191 0010 1880     		strh	r0, [r3]	@ movhi
 153:PCA9959.c     **** //    CyDelayUs(1);
 192              		.loc 1 153 0
 193 0012 FFF7FEFF 		bl	PCA_16Bit_TxOp_1
 194              	.LVL29:
 195 0016 08BD     		pop	{r3, pc}
 196              	.L12:
 197              		.align	2
 198              	.L11:
 199 0018 00000000 		.word	.LANCHOR0
 200 001c 00000000 		.word	.LANCHOR1
 201              		.cfi_endproc
 202              	.LFE72:
 203              		.size	PCA9959_Write_1, .-PCA9959_Write_1
 204              		.section	.text.PageSel_1,"ax",%progbits
 205              		.align	2
 206              		.global	PageSel_1
 207              		.thumb
 208              		.thumb_func
 209              		.type	PageSel_1, %function
 210              	PageSel_1:
 211              	.LFB63:
  28:PCA9959.c     ****     if(Sel == 0)
 212              		.loc 1 28 0
 213              		.cfi_startproc
 214              		@ args = 0, pretend = 0, frame = 0
 215              		@ frame_needed = 0, uses_anonymous_args = 0
 216              	.LVL30:
 217 0000 08B5     		push	{r3, lr}
 218              		.cfi_def_cfa_offset 8
 219              		.cfi_offset 3, -8
 220              		.cfi_offset 14, -4
  29:PCA9959.c     ****     {
 221              		.loc 1 29 0
 222 0002 38B9     		cbnz	r0, .L14
  31:PCA9959.c     ****         Data    = 0x00;                                 //Page 0, i.e Grid Registers selected
 223              		.loc 1 31 0
 224 0004 074B     		ldr	r3, .L17
 225 0006 0B20     		movs	r0, #11
 226              	.LVL31:
 227 0008 9870     		strb	r0, [r3, #2]
  32:PCA9959.c     ****         PCA9959_Write_1(RegAddr, Data);
 228              		.loc 1 32 0
 229 000a 0021     		movs	r1, #0
 230 000c D970     		strb	r1, [r3, #3]
ARM GAS  C:\Users\Revanth\AppData\Local\Temp\ccqs06ys.s 			page 29


  33:PCA9959.c     ****     }
 231              		.loc 1 33 0
 232 000e FFF7FEFF 		bl	PCA9959_Write_1
 233              	.LVL32:
 234 0012 08BD     		pop	{r3, pc}
 235              	.LVL33:
 236              	.L14:
  37:PCA9959.c     ****         Data    = 0x80;                                 //Page 1, i.e Channel Registers selected 
 237              		.loc 1 37 0
 238 0014 034B     		ldr	r3, .L17
 239 0016 0B20     		movs	r0, #11
 240              	.LVL34:
 241 0018 9870     		strb	r0, [r3, #2]
  38:PCA9959.c     ****         PCA9959_Write_1(RegAddr, Data);
 242              		.loc 1 38 0
 243 001a 8021     		movs	r1, #128
 244 001c D970     		strb	r1, [r3, #3]
  39:PCA9959.c     ****     }
 245              		.loc 1 39 0
 246 001e FFF7FEFF 		bl	PCA9959_Write_1
 247              	.LVL35:
 248 0022 08BD     		pop	{r3, pc}
 249              	.L18:
 250              		.align	2
 251              	.L17:
 252 0024 00000000 		.word	.LANCHOR1
 253              		.cfi_endproc
 254              	.LFE63:
 255              		.size	PageSel_1, .-PageSel_1
 256              		.section	.text.PCA9959_Init_1,"ax",%progbits
 257              		.align	2
 258              		.global	PCA9959_Init_1
 259              		.thumb
 260              		.thumb_func
 261              		.type	PCA9959_Init_1, %function
 262              	PCA9959_Init_1:
 263              	.LFB67:
  94:PCA9959.c     **** 
 264              		.loc 1 94 0
 265              		.cfi_startproc
 266              		@ args = 0, pretend = 0, frame = 0
 267              		@ frame_needed = 0, uses_anonymous_args = 0
 268 0000 08B5     		push	{r3, lr}
 269              		.cfi_def_cfa_offset 8
 270              		.cfi_offset 3, -8
 271              		.cfi_offset 14, -4
  96:PCA9959.c     ****     Pin_OE_PCA9959_1_Write(1);                                      /*Disable all channels. */
 272              		.loc 1 96 0
 273 0002 1821     		movs	r1, #24
 274 0004 0120     		movs	r0, #1
 275 0006 FFF7FEFF 		bl	PCA9959_Write_1
 276              	.LVL36:
  97:PCA9959.c     ****     PCA9959_Write_1(Side_Ctl, 0x00);                       //Side 0 to be written to and executed
 277              		.loc 1 97 0
 278 000a 0120     		movs	r0, #1
 279 000c FFF7FEFF 		bl	Pin_OE_PCA9959_1_Write
 280              	.LVL37:
ARM GAS  C:\Users\Revanth\AppData\Local\Temp\ccqs06ys.s 			page 30


  98:PCA9959.c     ****     PageSel_1(GdSel);
 281              		.loc 1 98 0
 282 0010 0021     		movs	r1, #0
 283 0012 0A20     		movs	r0, #10
 284 0014 FFF7FEFF 		bl	PCA9959_Write_1
 285              	.LVL38:
  99:PCA9959.c     ****     PCA9959_Write_1(Grd0_Cf, 0x01);                       //LED Channels mapped to Group O use the 
 286              		.loc 1 99 0
 287 0018 0020     		movs	r0, #0
 288 001a FFF7FEFF 		bl	PageSel_1
 289              	.LVL39:
 100:PCA9959.c     **** //    CyDelay(100);
 290              		.loc 1 100 0
 291 001e 0121     		movs	r1, #1
 292 0020 2020     		movs	r0, #32
 293 0022 FFF7FEFF 		bl	PCA9959_Write_1
 294              	.LVL40:
 295 0026 08BD     		pop	{r3, pc}
 296              		.cfi_endproc
 297              	.LFE67:
 298              		.size	PCA9959_Init_1, .-PCA9959_Init_1
 299              		.section	.text.PCA_16Bit_TxOp_2,"ax",%progbits
 300              		.align	2
 301              		.global	PCA_16Bit_TxOp_2
 302              		.thumb
 303              		.thumb_func
 304              		.type	PCA_16Bit_TxOp_2, %function
 305              	PCA_16Bit_TxOp_2:
 306              	.LFB77:
 214:PCA9959.c     ****     uint8_t i=0;
 307              		.loc 1 214 0
 308              		.cfi_startproc
 309              		@ args = 0, pretend = 0, frame = 0
 310              		@ frame_needed = 0, uses_anonymous_args = 0
 311              	.LVL41:
 312 0000 38B5     		push	{r3, r4, r5, lr}
 313              		.cfi_def_cfa_offset 16
 314              		.cfi_offset 3, -16
 315              		.cfi_offset 4, -12
 316              		.cfi_offset 5, -8
 317              		.cfi_offset 14, -4
 318 0002 0546     		mov	r5, r0
 319              	.LVL42:
 216:PCA9959.c     ****     Pin_SS_PCA9959_Write(0);
 320              		.loc 1 216 0
 321 0004 0020     		movs	r0, #0
 322              	.LVL43:
 323 0006 FFF7FEFF 		bl	Pin_SCK_PCA9959_Write
 324              	.LVL44:
 217:PCA9959.c     ****     CyDelayUs(1);
 325              		.loc 1 217 0
 326 000a 0020     		movs	r0, #0
 327 000c FFF7FEFF 		bl	Pin_SS_PCA9959_Write
 328              	.LVL45:
 218:PCA9959.c     ****     
 329              		.loc 1 218 0
 330 0010 0120     		movs	r0, #1
ARM GAS  C:\Users\Revanth\AppData\Local\Temp\ccqs06ys.s 			page 31


 331 0012 FFF7FEFF 		bl	CyDelayUs
 332              	.LVL46:
 220:PCA9959.c     ****     PCA9959_dummy();
 333              		.loc 1 220 0
 334 0016 FFF7FEFF 		bl	PCA9959_dummy
 335              	.LVL47:
 221:PCA9959.c     ****     PCA9959_dummy();
 336              		.loc 1 221 0
 337 001a FFF7FEFF 		bl	PCA9959_dummy
 338              	.LVL48:
 222:PCA9959.c     ****     
 339              		.loc 1 222 0
 340 001e FFF7FEFF 		bl	PCA9959_dummy
 341              	.LVL49:
 224:PCA9959.c     ****     {
 342              		.loc 1 224 0
 343 0022 1023     		movs	r3, #16
 344 0024 13E0     		b	.L22
 345              	.LVL50:
 346              	.L23:
 226:PCA9959.c     ****       Pin_SCK_PCA9959_Write(0);
 347              		.loc 1 226 0 discriminator 3
 348 0026 5C1E     		subs	r4, r3, #1
 349 0028 45FA04F0 		asr	r0, r5, r4
 350 002c 00F00100 		and	r0, r0, #1
 351 0030 FFF7FEFF 		bl	Pin_MOSI_PCA9959_Write
 352              	.LVL51:
 227:PCA9959.c     ****       CyDelayUs(1);
 353              		.loc 1 227 0 discriminator 3
 354 0034 0020     		movs	r0, #0
 355 0036 FFF7FEFF 		bl	Pin_SCK_PCA9959_Write
 356              	.LVL52:
 228:PCA9959.c     ****       Pin_SCK_PCA9959_Write(1);
 357              		.loc 1 228 0 discriminator 3
 358 003a 0120     		movs	r0, #1
 359 003c FFF7FEFF 		bl	CyDelayUs
 360              	.LVL53:
 229:PCA9959.c     ****       CyDelayUs(1);
 361              		.loc 1 229 0 discriminator 3
 362 0040 0120     		movs	r0, #1
 363 0042 FFF7FEFF 		bl	Pin_SCK_PCA9959_Write
 364              	.LVL54:
 230:PCA9959.c     ****     }
 365              		.loc 1 230 0 discriminator 3
 366 0046 0120     		movs	r0, #1
 367 0048 FFF7FEFF 		bl	CyDelayUs
 368              	.LVL55:
 224:PCA9959.c     ****     {
 369              		.loc 1 224 0 discriminator 3
 370 004c E3B2     		uxtb	r3, r4
 371              	.LVL56:
 372              	.L22:
 224:PCA9959.c     ****     {
 373              		.loc 1 224 0 is_stmt 0 discriminator 1
 374 004e 002B     		cmp	r3, #0
 375 0050 E9D1     		bne	.L23
 232:PCA9959.c     ****     Pin_SS_PCA9959_Write(1);
ARM GAS  C:\Users\Revanth\AppData\Local\Temp\ccqs06ys.s 			page 32


 376              		.loc 1 232 0 is_stmt 1
 377 0052 0020     		movs	r0, #0
 378 0054 FFF7FEFF 		bl	Pin_SCK_PCA9959_Write
 379              	.LVL57:
 233:PCA9959.c     ****     
 380              		.loc 1 233 0
 381 0058 0120     		movs	r0, #1
 382 005a FFF7FEFF 		bl	Pin_SS_PCA9959_Write
 383              	.LVL58:
 384 005e 38BD     		pop	{r3, r4, r5, pc}
 385              		.cfi_endproc
 386              	.LFE77:
 387              		.size	PCA_16Bit_TxOp_2, .-PCA_16Bit_TxOp_2
 388              		.section	.text.PCA9959_Write_2,"ax",%progbits
 389              		.align	2
 390              		.global	PCA9959_Write_2
 391              		.thumb
 392              		.thumb_func
 393              		.type	PCA9959_Write_2, %function
 394              	PCA9959_Write_2:
 395              	.LFB73:
 159:PCA9959.c     ****     Op = Write;   
 396              		.loc 1 159 0
 397              		.cfi_startproc
 398              		@ args = 0, pretend = 0, frame = 0
 399              		@ frame_needed = 0, uses_anonymous_args = 0
 400              	.LVL59:
 401 0000 08B5     		push	{r3, lr}
 402              		.cfi_def_cfa_offset 8
 403              		.cfi_offset 3, -8
 404              		.cfi_offset 14, -4
 160:PCA9959.c     ****     TX = ((((regaddr_w << 1) | Op) << 8) | data_w );    //Evaluate TX so that Write operation can b
 405              		.loc 1 160 0
 406 0002 0022     		movs	r2, #0
 407 0004 044B     		ldr	r3, .L27
 408 0006 1A70     		strb	r2, [r3]
 161:PCA9959.c     ****     PCA_16Bit_TxOp_2(TX);                                 //Send Write command with register addres
 409              		.loc 1 161 0
 410 0008 41EA4020 		orr	r0, r1, r0, lsl #9
 411              	.LVL60:
 412 000c 80B2     		uxth	r0, r0
 413 000e 034B     		ldr	r3, .L27+4
 414 0010 1880     		strh	r0, [r3]	@ movhi
 162:PCA9959.c     **** //    CyDelayUs(1);
 415              		.loc 1 162 0
 416 0012 FFF7FEFF 		bl	PCA_16Bit_TxOp_2
 417              	.LVL61:
 418 0016 08BD     		pop	{r3, pc}
 419              	.L28:
 420              		.align	2
 421              	.L27:
 422 0018 00000000 		.word	.LANCHOR0
 423 001c 00000000 		.word	.LANCHOR1
 424              		.cfi_endproc
 425              	.LFE73:
 426              		.size	PCA9959_Write_2, .-PCA9959_Write_2
 427              		.section	.text.PageSel_2,"ax",%progbits
ARM GAS  C:\Users\Revanth\AppData\Local\Temp\ccqs06ys.s 			page 33


 428              		.align	2
 429              		.global	PageSel_2
 430              		.thumb
 431              		.thumb_func
 432              		.type	PageSel_2, %function
 433              	PageSel_2:
 434              	.LFB64:
  44:PCA9959.c     ****     if(Sel == 0)
 435              		.loc 1 44 0
 436              		.cfi_startproc
 437              		@ args = 0, pretend = 0, frame = 0
 438              		@ frame_needed = 0, uses_anonymous_args = 0
 439              	.LVL62:
 440 0000 08B5     		push	{r3, lr}
 441              		.cfi_def_cfa_offset 8
 442              		.cfi_offset 3, -8
 443              		.cfi_offset 14, -4
  45:PCA9959.c     ****     {
 444              		.loc 1 45 0
 445 0002 38B9     		cbnz	r0, .L30
  47:PCA9959.c     ****         Data    = 0x00;                                 //Page 0, i.e Grid Registers selected
 446              		.loc 1 47 0
 447 0004 074B     		ldr	r3, .L33
 448 0006 0B20     		movs	r0, #11
 449              	.LVL63:
 450 0008 9870     		strb	r0, [r3, #2]
  48:PCA9959.c     ****         PCA9959_Write_2(RegAddr, Data);
 451              		.loc 1 48 0
 452 000a 0021     		movs	r1, #0
 453 000c D970     		strb	r1, [r3, #3]
  49:PCA9959.c     ****     }
 454              		.loc 1 49 0
 455 000e FFF7FEFF 		bl	PCA9959_Write_2
 456              	.LVL64:
 457 0012 08BD     		pop	{r3, pc}
 458              	.LVL65:
 459              	.L30:
  53:PCA9959.c     ****         Data    = 0x80;                                 //Page 1, i.e Channel Registers selected 
 460              		.loc 1 53 0
 461 0014 034B     		ldr	r3, .L33
 462 0016 0B20     		movs	r0, #11
 463              	.LVL66:
 464 0018 9870     		strb	r0, [r3, #2]
  54:PCA9959.c     ****         PCA9959_Write_2(RegAddr, Data);
 465              		.loc 1 54 0
 466 001a 8021     		movs	r1, #128
 467 001c D970     		strb	r1, [r3, #3]
  55:PCA9959.c     ****     }
 468              		.loc 1 55 0
 469 001e FFF7FEFF 		bl	PCA9959_Write_2
 470              	.LVL67:
 471 0022 08BD     		pop	{r3, pc}
 472              	.L34:
 473              		.align	2
 474              	.L33:
 475 0024 00000000 		.word	.LANCHOR1
 476              		.cfi_endproc
ARM GAS  C:\Users\Revanth\AppData\Local\Temp\ccqs06ys.s 			page 34


 477              	.LFE64:
 478              		.size	PageSel_2, .-PageSel_2
 479              		.section	.text.PCA9959_Init_2,"ax",%progbits
 480              		.align	2
 481              		.global	PCA9959_Init_2
 482              		.thumb
 483              		.thumb_func
 484              		.type	PCA9959_Init_2, %function
 485              	PCA9959_Init_2:
 486              	.LFB68:
 106:PCA9959.c     ****     PCA9959_Write_2(Mode2, 0x18);
 487              		.loc 1 106 0
 488              		.cfi_startproc
 489              		@ args = 0, pretend = 0, frame = 0
 490              		@ frame_needed = 0, uses_anonymous_args = 0
 491 0000 08B5     		push	{r3, lr}
 492              		.cfi_def_cfa_offset 8
 493              		.cfi_offset 3, -8
 494              		.cfi_offset 14, -4
 107:PCA9959.c     ****     Pin_OE_PCA9959_2_Write(1);                                      /*Disable all channels. */
 495              		.loc 1 107 0
 496 0002 1821     		movs	r1, #24
 497 0004 0120     		movs	r0, #1
 498 0006 FFF7FEFF 		bl	PCA9959_Write_2
 499              	.LVL68:
 108:PCA9959.c     ****     PCA9959_Write_2(Side_Ctl, 0x00);                       //Side 0 to be written to and executed
 500              		.loc 1 108 0
 501 000a 0120     		movs	r0, #1
 502 000c FFF7FEFF 		bl	Pin_OE_PCA9959_2_Write
 503              	.LVL69:
 109:PCA9959.c     ****     PageSel_2(GdSel);
 504              		.loc 1 109 0
 505 0010 0021     		movs	r1, #0
 506 0012 0A20     		movs	r0, #10
 507 0014 FFF7FEFF 		bl	PCA9959_Write_2
 508              	.LVL70:
 110:PCA9959.c     ****     PCA9959_Write_2(Grd0_Cf, 0x01);                       //LED Channels mapped to Group O use the 
 509              		.loc 1 110 0
 510 0018 0020     		movs	r0, #0
 511 001a FFF7FEFF 		bl	PageSel_2
 512              	.LVL71:
 111:PCA9959.c     **** //    CyDelay(100);
 513              		.loc 1 111 0
 514 001e 0121     		movs	r1, #1
 515 0020 2020     		movs	r0, #32
 516 0022 FFF7FEFF 		bl	PCA9959_Write_2
 517              	.LVL72:
 518 0026 08BD     		pop	{r3, pc}
 519              		.cfi_endproc
 520              	.LFE68:
 521              		.size	PCA9959_Init_2, .-PCA9959_Init_2
 522              		.section	.text.PCA_16Bit_TxOp_3,"ax",%progbits
 523              		.align	2
 524              		.global	PCA_16Bit_TxOp_3
 525              		.thumb
 526              		.thumb_func
 527              		.type	PCA_16Bit_TxOp_3, %function
ARM GAS  C:\Users\Revanth\AppData\Local\Temp\ccqs06ys.s 			page 35


 528              	PCA_16Bit_TxOp_3:
 529              	.LFB78:
 238:PCA9959.c     ****     uint8_t i=0;
 530              		.loc 1 238 0
 531              		.cfi_startproc
 532              		@ args = 0, pretend = 0, frame = 0
 533              		@ frame_needed = 0, uses_anonymous_args = 0
 534              	.LVL73:
 535 0000 38B5     		push	{r3, r4, r5, lr}
 536              		.cfi_def_cfa_offset 16
 537              		.cfi_offset 3, -16
 538              		.cfi_offset 4, -12
 539              		.cfi_offset 5, -8
 540              		.cfi_offset 14, -4
 541 0002 0546     		mov	r5, r0
 542              	.LVL74:
 240:PCA9959.c     ****     Pin_SS_PCA9959_Write(0);
 543              		.loc 1 240 0
 544 0004 0020     		movs	r0, #0
 545              	.LVL75:
 546 0006 FFF7FEFF 		bl	Pin_SCK_PCA9959_Write
 547              	.LVL76:
 241:PCA9959.c     ****     CyDelayUs(1);
 548              		.loc 1 241 0
 549 000a 0020     		movs	r0, #0
 550 000c FFF7FEFF 		bl	Pin_SS_PCA9959_Write
 551              	.LVL77:
 242:PCA9959.c     ****     
 552              		.loc 1 242 0
 553 0010 0120     		movs	r0, #1
 554 0012 FFF7FEFF 		bl	CyDelayUs
 555              	.LVL78:
 244:PCA9959.c     ****     {
 556              		.loc 1 244 0
 557 0016 1023     		movs	r3, #16
 558 0018 13E0     		b	.L38
 559              	.LVL79:
 560              	.L39:
 246:PCA9959.c     ****       Pin_SCK_PCA9959_Write(0);
 561              		.loc 1 246 0 discriminator 3
 562 001a 5C1E     		subs	r4, r3, #1
 563 001c 45FA04F0 		asr	r0, r5, r4
 564 0020 00F00100 		and	r0, r0, #1
 565 0024 FFF7FEFF 		bl	Pin_MOSI_PCA9959_Write
 566              	.LVL80:
 247:PCA9959.c     ****       CyDelayUs(1);
 567              		.loc 1 247 0 discriminator 3
 568 0028 0020     		movs	r0, #0
 569 002a FFF7FEFF 		bl	Pin_SCK_PCA9959_Write
 570              	.LVL81:
 248:PCA9959.c     ****       Pin_SCK_PCA9959_Write(1);
 571              		.loc 1 248 0 discriminator 3
 572 002e 0120     		movs	r0, #1
 573 0030 FFF7FEFF 		bl	CyDelayUs
 574              	.LVL82:
 249:PCA9959.c     ****       CyDelayUs(1);
 575              		.loc 1 249 0 discriminator 3
ARM GAS  C:\Users\Revanth\AppData\Local\Temp\ccqs06ys.s 			page 36


 576 0034 0120     		movs	r0, #1
 577 0036 FFF7FEFF 		bl	Pin_SCK_PCA9959_Write
 578              	.LVL83:
 250:PCA9959.c     ****     }
 579              		.loc 1 250 0 discriminator 3
 580 003a 0120     		movs	r0, #1
 581 003c FFF7FEFF 		bl	CyDelayUs
 582              	.LVL84:
 244:PCA9959.c     ****     {
 583              		.loc 1 244 0 discriminator 3
 584 0040 E3B2     		uxtb	r3, r4
 585              	.LVL85:
 586              	.L38:
 244:PCA9959.c     ****     {
 587              		.loc 1 244 0 is_stmt 0 discriminator 1
 588 0042 002B     		cmp	r3, #0
 589 0044 E9D1     		bne	.L39
 253:PCA9959.c     ****     PCA9959_dummy();
 590              		.loc 1 253 0 is_stmt 1
 591 0046 FFF7FEFF 		bl	PCA9959_dummy
 592              	.LVL86:
 254:PCA9959.c     ****     PCA9959_dummy();
 593              		.loc 1 254 0
 594 004a FFF7FEFF 		bl	PCA9959_dummy
 595              	.LVL87:
 255:PCA9959.c     ****     
 596              		.loc 1 255 0
 597 004e FFF7FEFF 		bl	PCA9959_dummy
 598              	.LVL88:
 257:PCA9959.c     ****     Pin_SS_PCA9959_Write(1);
 599              		.loc 1 257 0
 600 0052 0020     		movs	r0, #0
 601 0054 FFF7FEFF 		bl	Pin_SCK_PCA9959_Write
 602              	.LVL89:
 258:PCA9959.c     ****     
 603              		.loc 1 258 0
 604 0058 0120     		movs	r0, #1
 605 005a FFF7FEFF 		bl	Pin_SS_PCA9959_Write
 606              	.LVL90:
 607 005e 38BD     		pop	{r3, r4, r5, pc}
 608              		.cfi_endproc
 609              	.LFE78:
 610              		.size	PCA_16Bit_TxOp_3, .-PCA_16Bit_TxOp_3
 611              		.section	.text.PCA9959_Write_3,"ax",%progbits
 612              		.align	2
 613              		.global	PCA9959_Write_3
 614              		.thumb
 615              		.thumb_func
 616              		.type	PCA9959_Write_3, %function
 617              	PCA9959_Write_3:
 618              	.LFB74:
 168:PCA9959.c     ****     Op = Write;   
 619              		.loc 1 168 0
 620              		.cfi_startproc
 621              		@ args = 0, pretend = 0, frame = 0
 622              		@ frame_needed = 0, uses_anonymous_args = 0
 623              	.LVL91:
ARM GAS  C:\Users\Revanth\AppData\Local\Temp\ccqs06ys.s 			page 37


 624 0000 08B5     		push	{r3, lr}
 625              		.cfi_def_cfa_offset 8
 626              		.cfi_offset 3, -8
 627              		.cfi_offset 14, -4
 169:PCA9959.c     ****     TX = ((((regaddr_w << 1) | Op) << 8) | data_w );    //Evaluate TX so that Write operation can b
 628              		.loc 1 169 0
 629 0002 0022     		movs	r2, #0
 630 0004 044B     		ldr	r3, .L43
 631 0006 1A70     		strb	r2, [r3]
 170:PCA9959.c     ****     PCA_16Bit_TxOp_3(TX);                                 //Send Write command with register addres
 632              		.loc 1 170 0
 633 0008 41EA4020 		orr	r0, r1, r0, lsl #9
 634              	.LVL92:
 635 000c 80B2     		uxth	r0, r0
 636 000e 034B     		ldr	r3, .L43+4
 637 0010 1880     		strh	r0, [r3]	@ movhi
 171:PCA9959.c     **** //    CyDelayUs(1);
 638              		.loc 1 171 0
 639 0012 FFF7FEFF 		bl	PCA_16Bit_TxOp_3
 640              	.LVL93:
 641 0016 08BD     		pop	{r3, pc}
 642              	.L44:
 643              		.align	2
 644              	.L43:
 645 0018 00000000 		.word	.LANCHOR0
 646 001c 00000000 		.word	.LANCHOR1
 647              		.cfi_endproc
 648              	.LFE74:
 649              		.size	PCA9959_Write_3, .-PCA9959_Write_3
 650              		.section	.text.PageSel_3,"ax",%progbits
 651              		.align	2
 652              		.global	PageSel_3
 653              		.thumb
 654              		.thumb_func
 655              		.type	PageSel_3, %function
 656              	PageSel_3:
 657              	.LFB65:
  60:PCA9959.c     ****     if(Sel == 0)
 658              		.loc 1 60 0
 659              		.cfi_startproc
 660              		@ args = 0, pretend = 0, frame = 0
 661              		@ frame_needed = 0, uses_anonymous_args = 0
 662              	.LVL94:
 663 0000 08B5     		push	{r3, lr}
 664              		.cfi_def_cfa_offset 8
 665              		.cfi_offset 3, -8
 666              		.cfi_offset 14, -4
  61:PCA9959.c     ****     {
 667              		.loc 1 61 0
 668 0002 38B9     		cbnz	r0, .L46
  63:PCA9959.c     ****         Data    = 0x00;                                 //Page 0, i.e Grid Registers selected
 669              		.loc 1 63 0
 670 0004 074B     		ldr	r3, .L49
 671 0006 0B20     		movs	r0, #11
 672              	.LVL95:
 673 0008 9870     		strb	r0, [r3, #2]
  64:PCA9959.c     ****         PCA9959_Write_3(RegAddr, Data);
ARM GAS  C:\Users\Revanth\AppData\Local\Temp\ccqs06ys.s 			page 38


 674              		.loc 1 64 0
 675 000a 0021     		movs	r1, #0
 676 000c D970     		strb	r1, [r3, #3]
  65:PCA9959.c     ****     }
 677              		.loc 1 65 0
 678 000e FFF7FEFF 		bl	PCA9959_Write_3
 679              	.LVL96:
 680 0012 08BD     		pop	{r3, pc}
 681              	.LVL97:
 682              	.L46:
  69:PCA9959.c     ****         Data    = 0x80;                                 //Page 1, i.e Channel Registers selected 
 683              		.loc 1 69 0
 684 0014 034B     		ldr	r3, .L49
 685 0016 0B20     		movs	r0, #11
 686              	.LVL98:
 687 0018 9870     		strb	r0, [r3, #2]
  70:PCA9959.c     ****         PCA9959_Write_3(RegAddr, Data);
 688              		.loc 1 70 0
 689 001a 8021     		movs	r1, #128
 690 001c D970     		strb	r1, [r3, #3]
  71:PCA9959.c     ****     }
 691              		.loc 1 71 0
 692 001e FFF7FEFF 		bl	PCA9959_Write_3
 693              	.LVL99:
 694 0022 08BD     		pop	{r3, pc}
 695              	.L50:
 696              		.align	2
 697              	.L49:
 698 0024 00000000 		.word	.LANCHOR1
 699              		.cfi_endproc
 700              	.LFE65:
 701              		.size	PageSel_3, .-PageSel_3
 702              		.section	.text.PCA9959_Init_3,"ax",%progbits
 703              		.align	2
 704              		.global	PCA9959_Init_3
 705              		.thumb
 706              		.thumb_func
 707              		.type	PCA9959_Init_3, %function
 708              	PCA9959_Init_3:
 709              	.LFB69:
 117:PCA9959.c     ****     PCA9959_Write_3(Mode2, 0x18);
 710              		.loc 1 117 0
 711              		.cfi_startproc
 712              		@ args = 0, pretend = 0, frame = 0
 713              		@ frame_needed = 0, uses_anonymous_args = 0
 714 0000 08B5     		push	{r3, lr}
 715              		.cfi_def_cfa_offset 8
 716              		.cfi_offset 3, -8
 717              		.cfi_offset 14, -4
 118:PCA9959.c     ****     Pin_OE_PCA9959_3_Write(1);                                      /*Disable all channels. */
 718              		.loc 1 118 0
 719 0002 1821     		movs	r1, #24
 720 0004 0120     		movs	r0, #1
 721 0006 FFF7FEFF 		bl	PCA9959_Write_3
 722              	.LVL100:
 119:PCA9959.c     ****     PCA9959_Write_3(Side_Ctl, 0x00);                       //Side 0 to be written to and executed
 723              		.loc 1 119 0
ARM GAS  C:\Users\Revanth\AppData\Local\Temp\ccqs06ys.s 			page 39


 724 000a 0120     		movs	r0, #1
 725 000c FFF7FEFF 		bl	Pin_OE_PCA9959_3_Write
 726              	.LVL101:
 120:PCA9959.c     ****     PageSel_3(GdSel);
 727              		.loc 1 120 0
 728 0010 0021     		movs	r1, #0
 729 0012 0A20     		movs	r0, #10
 730 0014 FFF7FEFF 		bl	PCA9959_Write_3
 731              	.LVL102:
 121:PCA9959.c     ****     PCA9959_Write_3(Grd0_Cf, 0x01);                       //LED Channels mapped to Group O use the 
 732              		.loc 1 121 0
 733 0018 0020     		movs	r0, #0
 734 001a FFF7FEFF 		bl	PageSel_3
 735              	.LVL103:
 122:PCA9959.c     **** //    CyDelay(100);
 736              		.loc 1 122 0
 737 001e 0121     		movs	r1, #1
 738 0020 2020     		movs	r0, #32
 739 0022 FFF7FEFF 		bl	PCA9959_Write_3
 740              	.LVL104:
 741 0026 08BD     		pop	{r3, pc}
 742              		.cfi_endproc
 743              	.LFE69:
 744              		.size	PCA9959_Init_3, .-PCA9959_Init_3
 745              		.section	.text.PCA_16Bit_TxOp_4,"ax",%progbits
 746              		.align	2
 747              		.global	PCA_16Bit_TxOp_4
 748              		.thumb
 749              		.thumb_func
 750              		.type	PCA_16Bit_TxOp_4, %function
 751              	PCA_16Bit_TxOp_4:
 752              	.LFB79:
 263:PCA9959.c     ****     uint8_t i=0;
 753              		.loc 1 263 0
 754              		.cfi_startproc
 755              		@ args = 0, pretend = 0, frame = 0
 756              		@ frame_needed = 0, uses_anonymous_args = 0
 757              	.LVL105:
 758 0000 38B5     		push	{r3, r4, r5, lr}
 759              		.cfi_def_cfa_offset 16
 760              		.cfi_offset 3, -16
 761              		.cfi_offset 4, -12
 762              		.cfi_offset 5, -8
 763              		.cfi_offset 14, -4
 764 0002 0546     		mov	r5, r0
 765              	.LVL106:
 265:PCA9959.c     ****     Pin_SS_PCA9959_Write(0);
 766              		.loc 1 265 0
 767 0004 0020     		movs	r0, #0
 768              	.LVL107:
 769 0006 FFF7FEFF 		bl	Pin_SCK_PCA9959_Write
 770              	.LVL108:
 266:PCA9959.c     ****     CyDelayUs(1);
 771              		.loc 1 266 0
 772 000a 0020     		movs	r0, #0
 773 000c FFF7FEFF 		bl	Pin_SS_PCA9959_Write
 774              	.LVL109:
ARM GAS  C:\Users\Revanth\AppData\Local\Temp\ccqs06ys.s 			page 40


 267:PCA9959.c     ****     
 775              		.loc 1 267 0
 776 0010 0120     		movs	r0, #1
 777 0012 FFF7FEFF 		bl	CyDelayUs
 778              	.LVL110:
 269:PCA9959.c     ****     PCA9959_dummy();
 779              		.loc 1 269 0
 780 0016 FFF7FEFF 		bl	PCA9959_dummy
 781              	.LVL111:
 270:PCA9959.c     ****     
 782              		.loc 1 270 0
 783 001a FFF7FEFF 		bl	PCA9959_dummy
 784              	.LVL112:
 272:PCA9959.c     ****     {
 785              		.loc 1 272 0
 786 001e 1023     		movs	r3, #16
 787 0020 13E0     		b	.L54
 788              	.LVL113:
 789              	.L55:
 274:PCA9959.c     ****       Pin_SCK_PCA9959_Write(0);
 790              		.loc 1 274 0 discriminator 3
 791 0022 5C1E     		subs	r4, r3, #1
 792 0024 45FA04F0 		asr	r0, r5, r4
 793 0028 00F00100 		and	r0, r0, #1
 794 002c FFF7FEFF 		bl	Pin_MOSI_PCA9959_Write
 795              	.LVL114:
 275:PCA9959.c     ****       CyDelayUs(1);
 796              		.loc 1 275 0 discriminator 3
 797 0030 0020     		movs	r0, #0
 798 0032 FFF7FEFF 		bl	Pin_SCK_PCA9959_Write
 799              	.LVL115:
 276:PCA9959.c     ****       Pin_SCK_PCA9959_Write(1);
 800              		.loc 1 276 0 discriminator 3
 801 0036 0120     		movs	r0, #1
 802 0038 FFF7FEFF 		bl	CyDelayUs
 803              	.LVL116:
 277:PCA9959.c     ****       CyDelayUs(1);
 804              		.loc 1 277 0 discriminator 3
 805 003c 0120     		movs	r0, #1
 806 003e FFF7FEFF 		bl	Pin_SCK_PCA9959_Write
 807              	.LVL117:
 278:PCA9959.c     ****     }
 808              		.loc 1 278 0 discriminator 3
 809 0042 0120     		movs	r0, #1
 810 0044 FFF7FEFF 		bl	CyDelayUs
 811              	.LVL118:
 272:PCA9959.c     ****     {
 812              		.loc 1 272 0 discriminator 3
 813 0048 E3B2     		uxtb	r3, r4
 814              	.LVL119:
 815              	.L54:
 272:PCA9959.c     ****     {
 816              		.loc 1 272 0 is_stmt 0 discriminator 1
 817 004a 002B     		cmp	r3, #0
 818 004c E9D1     		bne	.L55
 281:PCA9959.c     ****     
 819              		.loc 1 281 0 is_stmt 1
ARM GAS  C:\Users\Revanth\AppData\Local\Temp\ccqs06ys.s 			page 41


 820 004e FFF7FEFF 		bl	PCA9959_dummy
 821              	.LVL120:
 283:PCA9959.c     ****     Pin_SS_PCA9959_Write(1);
 822              		.loc 1 283 0
 823 0052 0020     		movs	r0, #0
 824 0054 FFF7FEFF 		bl	Pin_SCK_PCA9959_Write
 825              	.LVL121:
 284:PCA9959.c     ****     
 826              		.loc 1 284 0
 827 0058 0120     		movs	r0, #1
 828 005a FFF7FEFF 		bl	Pin_SS_PCA9959_Write
 829              	.LVL122:
 830 005e 38BD     		pop	{r3, r4, r5, pc}
 831              		.cfi_endproc
 832              	.LFE79:
 833              		.size	PCA_16Bit_TxOp_4, .-PCA_16Bit_TxOp_4
 834              		.section	.text.PCA9959_Write_4,"ax",%progbits
 835              		.align	2
 836              		.global	PCA9959_Write_4
 837              		.thumb
 838              		.thumb_func
 839              		.type	PCA9959_Write_4, %function
 840              	PCA9959_Write_4:
 841              	.LFB75:
 177:PCA9959.c     ****     Op = Write;   
 842              		.loc 1 177 0
 843              		.cfi_startproc
 844              		@ args = 0, pretend = 0, frame = 0
 845              		@ frame_needed = 0, uses_anonymous_args = 0
 846              	.LVL123:
 847 0000 08B5     		push	{r3, lr}
 848              		.cfi_def_cfa_offset 8
 849              		.cfi_offset 3, -8
 850              		.cfi_offset 14, -4
 178:PCA9959.c     ****     TX = ((((regaddr_w << 1) | Op) << 8) | data_w );    //Evaluate TX so that Write operation can b
 851              		.loc 1 178 0
 852 0002 0022     		movs	r2, #0
 853 0004 044B     		ldr	r3, .L59
 854 0006 1A70     		strb	r2, [r3]
 179:PCA9959.c     ****     PCA_16Bit_TxOp_4(TX);                                 //Send Write command with register addres
 855              		.loc 1 179 0
 856 0008 41EA4020 		orr	r0, r1, r0, lsl #9
 857              	.LVL124:
 858 000c 80B2     		uxth	r0, r0
 859 000e 034B     		ldr	r3, .L59+4
 860 0010 1880     		strh	r0, [r3]	@ movhi
 180:PCA9959.c     **** //    CyDelayUs(1);
 861              		.loc 1 180 0
 862 0012 FFF7FEFF 		bl	PCA_16Bit_TxOp_4
 863              	.LVL125:
 864 0016 08BD     		pop	{r3, pc}
 865              	.L60:
 866              		.align	2
 867              	.L59:
 868 0018 00000000 		.word	.LANCHOR0
 869 001c 00000000 		.word	.LANCHOR1
 870              		.cfi_endproc
ARM GAS  C:\Users\Revanth\AppData\Local\Temp\ccqs06ys.s 			page 42


 871              	.LFE75:
 872              		.size	PCA9959_Write_4, .-PCA9959_Write_4
 873              		.section	.text.PageSel_4,"ax",%progbits
 874              		.align	2
 875              		.global	PageSel_4
 876              		.thumb
 877              		.thumb_func
 878              		.type	PageSel_4, %function
 879              	PageSel_4:
 880              	.LFB66:
  76:PCA9959.c     ****     if(Sel == 0)
 881              		.loc 1 76 0
 882              		.cfi_startproc
 883              		@ args = 0, pretend = 0, frame = 0
 884              		@ frame_needed = 0, uses_anonymous_args = 0
 885              	.LVL126:
 886 0000 08B5     		push	{r3, lr}
 887              		.cfi_def_cfa_offset 8
 888              		.cfi_offset 3, -8
 889              		.cfi_offset 14, -4
  77:PCA9959.c     ****     {
 890              		.loc 1 77 0
 891 0002 38B9     		cbnz	r0, .L62
  79:PCA9959.c     ****         Data    = 0x00;                                 //Page 0, i.e Grid Registers selected
 892              		.loc 1 79 0
 893 0004 074B     		ldr	r3, .L65
 894 0006 0B20     		movs	r0, #11
 895              	.LVL127:
 896 0008 9870     		strb	r0, [r3, #2]
  80:PCA9959.c     ****         PCA9959_Write_4(RegAddr, Data);
 897              		.loc 1 80 0
 898 000a 0021     		movs	r1, #0
 899 000c D970     		strb	r1, [r3, #3]
  81:PCA9959.c     ****     }
 900              		.loc 1 81 0
 901 000e FFF7FEFF 		bl	PCA9959_Write_4
 902              	.LVL128:
 903 0012 08BD     		pop	{r3, pc}
 904              	.LVL129:
 905              	.L62:
  85:PCA9959.c     ****         Data    = 0x80;                                 //Page 1, i.e Channel Registers selected 
 906              		.loc 1 85 0
 907 0014 034B     		ldr	r3, .L65
 908 0016 0B20     		movs	r0, #11
 909              	.LVL130:
 910 0018 9870     		strb	r0, [r3, #2]
  86:PCA9959.c     ****         PCA9959_Write_4(RegAddr, Data);
 911              		.loc 1 86 0
 912 001a 8021     		movs	r1, #128
 913 001c D970     		strb	r1, [r3, #3]
  87:PCA9959.c     ****     }
 914              		.loc 1 87 0
 915 001e FFF7FEFF 		bl	PCA9959_Write_4
 916              	.LVL131:
 917 0022 08BD     		pop	{r3, pc}
 918              	.L66:
 919              		.align	2
ARM GAS  C:\Users\Revanth\AppData\Local\Temp\ccqs06ys.s 			page 43


 920              	.L65:
 921 0024 00000000 		.word	.LANCHOR1
 922              		.cfi_endproc
 923              	.LFE66:
 924              		.size	PageSel_4, .-PageSel_4
 925              		.section	.text.PCA9959_Init_4,"ax",%progbits
 926              		.align	2
 927              		.global	PCA9959_Init_4
 928              		.thumb
 929              		.thumb_func
 930              		.type	PCA9959_Init_4, %function
 931              	PCA9959_Init_4:
 932              	.LFB70:
 128:PCA9959.c     ****     PCA9959_Write_4(Mode2, 0x18);
 933              		.loc 1 128 0
 934              		.cfi_startproc
 935              		@ args = 0, pretend = 0, frame = 0
 936              		@ frame_needed = 0, uses_anonymous_args = 0
 937 0000 08B5     		push	{r3, lr}
 938              		.cfi_def_cfa_offset 8
 939              		.cfi_offset 3, -8
 940              		.cfi_offset 14, -4
 129:PCA9959.c     ****     Pin_OE_PCA9959_4_Write(1);                                      /*Disable all channels. */
 941              		.loc 1 129 0
 942 0002 1821     		movs	r1, #24
 943 0004 0120     		movs	r0, #1
 944 0006 FFF7FEFF 		bl	PCA9959_Write_4
 945              	.LVL132:
 130:PCA9959.c     ****     PCA9959_Write_4(Side_Ctl, 0x00);                       //Side 0 to be written to and executed
 946              		.loc 1 130 0
 947 000a 0120     		movs	r0, #1
 948 000c FFF7FEFF 		bl	Pin_OE_PCA9959_4_Write
 949              	.LVL133:
 131:PCA9959.c     ****     PageSel_4(GdSel);
 950              		.loc 1 131 0
 951 0010 0021     		movs	r1, #0
 952 0012 0A20     		movs	r0, #10
 953 0014 FFF7FEFF 		bl	PCA9959_Write_4
 954              	.LVL134:
 132:PCA9959.c     ****     PCA9959_Write_4(Grd0_Cf, 0x01);                       //LED Channels mapped to Group O use the 
 955              		.loc 1 132 0
 956 0018 0020     		movs	r0, #0
 957 001a FFF7FEFF 		bl	PageSel_4
 958              	.LVL135:
 133:PCA9959.c     **** //    CyDelay(100);
 959              		.loc 1 133 0
 960 001e 0121     		movs	r1, #1
 961 0020 2020     		movs	r0, #32
 962 0022 FFF7FEFF 		bl	PCA9959_Write_4
 963              	.LVL136:
 964 0026 08BD     		pop	{r3, pc}
 965              		.cfi_endproc
 966              	.LFE70:
 967              		.size	PCA9959_Init_4, .-PCA9959_Init_4
 968              		.section	.text.PCA9959_clear,"ax",%progbits
 969              		.align	2
 970              		.global	PCA9959_clear
ARM GAS  C:\Users\Revanth\AppData\Local\Temp\ccqs06ys.s 			page 44


 971              		.thumb
 972              		.thumb_func
 973              		.type	PCA9959_clear, %function
 974              	PCA9959_clear:
 975              	.LFB81:
1096:PCA9959.c     ****     Pin_SS_PCA9959_Write(1);
 976              		.loc 1 1096 0
 977              		.cfi_startproc
 978              		@ args = 0, pretend = 0, frame = 0
 979              		@ frame_needed = 0, uses_anonymous_args = 0
 980 0000 08B5     		push	{r3, lr}
 981              		.cfi_def_cfa_offset 8
 982              		.cfi_offset 3, -8
 983              		.cfi_offset 14, -4
1097:PCA9959.c     ****     Pin_OE_PCA9959_1_Write(1);
 984              		.loc 1 1097 0
 985 0002 0120     		movs	r0, #1
 986 0004 FFF7FEFF 		bl	Pin_SS_PCA9959_Write
 987              	.LVL137:
1098:PCA9959.c     ****     PageSel_1(ChSel);
 988              		.loc 1 1098 0
 989 0008 0120     		movs	r0, #1
 990 000a FFF7FEFF 		bl	Pin_OE_PCA9959_1_Write
 991              	.LVL138:
1099:PCA9959.c     ****     PCA9959_Write_1(Ch0_Cf1, 0x00);                       
 992              		.loc 1 1099 0
 993 000e 0120     		movs	r0, #1
 994 0010 FFF7FEFF 		bl	PageSel_1
 995              	.LVL139:
1100:PCA9959.c     ****     PCA9959_Write_1(Ch1_Cf1, 0x00);
 996              		.loc 1 1100 0
 997 0014 0021     		movs	r1, #0
 998 0016 2020     		movs	r0, #32
 999 0018 FFF7FEFF 		bl	PCA9959_Write_1
 1000              	.LVL140:
1101:PCA9959.c     ****     PCA9959_Write_1(Ch2_Cf1, 0x00); 
 1001              		.loc 1 1101 0
 1002 001c 0021     		movs	r1, #0
 1003 001e 2420     		movs	r0, #36
 1004 0020 FFF7FEFF 		bl	PCA9959_Write_1
 1005              	.LVL141:
1102:PCA9959.c     ****     PCA9959_Write_1(Ch3_Cf1, 0x00); 
 1006              		.loc 1 1102 0
 1007 0024 0021     		movs	r1, #0
 1008 0026 2820     		movs	r0, #40
 1009 0028 FFF7FEFF 		bl	PCA9959_Write_1
 1010              	.LVL142:
1103:PCA9959.c     ****     PCA9959_Write_1(Ch4_Cf1, 0x00); 
 1011              		.loc 1 1103 0
 1012 002c 0021     		movs	r1, #0
 1013 002e 2C20     		movs	r0, #44
 1014 0030 FFF7FEFF 		bl	PCA9959_Write_1
 1015              	.LVL143:
1104:PCA9959.c     ****     PCA9959_Write_1(Ch5_Cf1, 0x00); 
 1016              		.loc 1 1104 0
 1017 0034 0021     		movs	r1, #0
 1018 0036 3020     		movs	r0, #48
ARM GAS  C:\Users\Revanth\AppData\Local\Temp\ccqs06ys.s 			page 45


 1019 0038 FFF7FEFF 		bl	PCA9959_Write_1
 1020              	.LVL144:
1105:PCA9959.c     ****     PCA9959_Write_1(Ch6_Cf1, 0x00); 
 1021              		.loc 1 1105 0
 1022 003c 0021     		movs	r1, #0
 1023 003e 3420     		movs	r0, #52
 1024 0040 FFF7FEFF 		bl	PCA9959_Write_1
 1025              	.LVL145:
1106:PCA9959.c     ****     PCA9959_Write_1(Ch7_Cf1, 0x00); 
 1026              		.loc 1 1106 0
 1027 0044 0021     		movs	r1, #0
 1028 0046 3820     		movs	r0, #56
 1029 0048 FFF7FEFF 		bl	PCA9959_Write_1
 1030              	.LVL146:
1107:PCA9959.c     ****     PCA9959_Write_1(Ch8_Cf1, 0x00); 
 1031              		.loc 1 1107 0
 1032 004c 0021     		movs	r1, #0
 1033 004e 3C20     		movs	r0, #60
 1034 0050 FFF7FEFF 		bl	PCA9959_Write_1
 1035              	.LVL147:
1108:PCA9959.c     ****     PCA9959_Write_1(Ch9_Cf1, 0x00); 
 1036              		.loc 1 1108 0
 1037 0054 0021     		movs	r1, #0
 1038 0056 4020     		movs	r0, #64
 1039 0058 FFF7FEFF 		bl	PCA9959_Write_1
 1040              	.LVL148:
1109:PCA9959.c     ****     PCA9959_Write_1(Ch10_Cf1, 0x00); 
 1041              		.loc 1 1109 0
 1042 005c 0021     		movs	r1, #0
 1043 005e 4420     		movs	r0, #68
 1044 0060 FFF7FEFF 		bl	PCA9959_Write_1
 1045              	.LVL149:
1110:PCA9959.c     ****     PCA9959_Write_1(Ch11_Cf1, 0x00);
 1046              		.loc 1 1110 0
 1047 0064 0021     		movs	r1, #0
 1048 0066 4820     		movs	r0, #72
 1049 0068 FFF7FEFF 		bl	PCA9959_Write_1
 1050              	.LVL150:
1111:PCA9959.c     ****     
 1051              		.loc 1 1111 0
 1052 006c 0021     		movs	r1, #0
 1053 006e 4C20     		movs	r0, #76
 1054 0070 FFF7FEFF 		bl	PCA9959_Write_1
 1055              	.LVL151:
1113:PCA9959.c     ****     PCA9959_Write_1(Ch13_Cf1, 0x00);
 1056              		.loc 1 1113 0
 1057 0074 0021     		movs	r1, #0
 1058 0076 5020     		movs	r0, #80
 1059 0078 FFF7FEFF 		bl	PCA9959_Write_1
 1060              	.LVL152:
1114:PCA9959.c     ****     PCA9959_Write_1(Ch14_Cf1, 0x00);
 1061              		.loc 1 1114 0
 1062 007c 0021     		movs	r1, #0
 1063 007e 5420     		movs	r0, #84
 1064 0080 FFF7FEFF 		bl	PCA9959_Write_1
 1065              	.LVL153:
1115:PCA9959.c     ****     PCA9959_Write_1(Ch15_Cf1, 0x00);
ARM GAS  C:\Users\Revanth\AppData\Local\Temp\ccqs06ys.s 			page 46


 1066              		.loc 1 1115 0
 1067 0084 0021     		movs	r1, #0
 1068 0086 5820     		movs	r0, #88
 1069 0088 FFF7FEFF 		bl	PCA9959_Write_1
 1070              	.LVL154:
1116:PCA9959.c     ****     PCA9959_Write_1(Ch16_Cf1, 0x00);
 1071              		.loc 1 1116 0
 1072 008c 0021     		movs	r1, #0
 1073 008e 5C20     		movs	r0, #92
 1074 0090 FFF7FEFF 		bl	PCA9959_Write_1
 1075              	.LVL155:
1117:PCA9959.c     ****     PCA9959_Write_1(Ch17_Cf1, 0x00);
 1076              		.loc 1 1117 0
 1077 0094 0021     		movs	r1, #0
 1078 0096 6020     		movs	r0, #96
 1079 0098 FFF7FEFF 		bl	PCA9959_Write_1
 1080              	.LVL156:
1118:PCA9959.c     ****     PCA9959_Write_1(Ch18_Cf1, 0x00);
 1081              		.loc 1 1118 0
 1082 009c 0021     		movs	r1, #0
 1083 009e 6420     		movs	r0, #100
 1084 00a0 FFF7FEFF 		bl	PCA9959_Write_1
 1085              	.LVL157:
1119:PCA9959.c     ****     PCA9959_Write_1(Ch19_Cf1, 0x00);
 1086              		.loc 1 1119 0
 1087 00a4 0021     		movs	r1, #0
 1088 00a6 6820     		movs	r0, #104
 1089 00a8 FFF7FEFF 		bl	PCA9959_Write_1
 1090              	.LVL158:
1120:PCA9959.c     ****     PCA9959_Write_1(Ch20_Cf1, 0x00);
 1091              		.loc 1 1120 0
 1092 00ac 0021     		movs	r1, #0
 1093 00ae 6C20     		movs	r0, #108
 1094 00b0 FFF7FEFF 		bl	PCA9959_Write_1
 1095              	.LVL159:
1121:PCA9959.c     ****     PCA9959_Write_1(Ch21_Cf1, 0x00);
 1096              		.loc 1 1121 0
 1097 00b4 0021     		movs	r1, #0
 1098 00b6 7020     		movs	r0, #112
 1099 00b8 FFF7FEFF 		bl	PCA9959_Write_1
 1100              	.LVL160:
1122:PCA9959.c     ****     PCA9959_Write_1(Ch22_Cf1, 0x00);
 1101              		.loc 1 1122 0
 1102 00bc 0021     		movs	r1, #0
 1103 00be 7420     		movs	r0, #116
 1104 00c0 FFF7FEFF 		bl	PCA9959_Write_1
 1105              	.LVL161:
1123:PCA9959.c     ****     PCA9959_Write_1(Ch23_Cf1, 0x00);
 1106              		.loc 1 1123 0
 1107 00c4 0021     		movs	r1, #0
 1108 00c6 7820     		movs	r0, #120
 1109 00c8 FFF7FEFF 		bl	PCA9959_Write_1
 1110              	.LVL162:
1124:PCA9959.c     ****     
 1111              		.loc 1 1124 0
 1112 00cc 0021     		movs	r1, #0
 1113 00ce 7C20     		movs	r0, #124
ARM GAS  C:\Users\Revanth\AppData\Local\Temp\ccqs06ys.s 			page 47


 1114 00d0 FFF7FEFF 		bl	PCA9959_Write_1
 1115              	.LVL163:
1128:PCA9959.c     ****     PCA9959_Write_1(Ch1_Cf2, 0x00);
 1116              		.loc 1 1128 0
 1117 00d4 0021     		movs	r1, #0
 1118 00d6 2120     		movs	r0, #33
 1119 00d8 FFF7FEFF 		bl	PCA9959_Write_1
 1120              	.LVL164:
1129:PCA9959.c     ****     PCA9959_Write_1(Ch2_Cf2, 0x00);
 1121              		.loc 1 1129 0
 1122 00dc 0021     		movs	r1, #0
 1123 00de 2520     		movs	r0, #37
 1124 00e0 FFF7FEFF 		bl	PCA9959_Write_1
 1125              	.LVL165:
1130:PCA9959.c     ****     PCA9959_Write_1(Ch3_Cf2, 0x00);
 1126              		.loc 1 1130 0
 1127 00e4 0021     		movs	r1, #0
 1128 00e6 2920     		movs	r0, #41
 1129 00e8 FFF7FEFF 		bl	PCA9959_Write_1
 1130              	.LVL166:
1131:PCA9959.c     ****     PCA9959_Write_1(Ch4_Cf2, 0x00);
 1131              		.loc 1 1131 0
 1132 00ec 0021     		movs	r1, #0
 1133 00ee 2D20     		movs	r0, #45
 1134 00f0 FFF7FEFF 		bl	PCA9959_Write_1
 1135              	.LVL167:
1132:PCA9959.c     ****     PCA9959_Write_1(Ch5_Cf2, 0x00);
 1136              		.loc 1 1132 0
 1137 00f4 0021     		movs	r1, #0
 1138 00f6 3120     		movs	r0, #49
 1139 00f8 FFF7FEFF 		bl	PCA9959_Write_1
 1140              	.LVL168:
1133:PCA9959.c     ****     PCA9959_Write_1(Ch6_Cf2, 0x00);
 1141              		.loc 1 1133 0
 1142 00fc 0021     		movs	r1, #0
 1143 00fe 3520     		movs	r0, #53
 1144 0100 FFF7FEFF 		bl	PCA9959_Write_1
 1145              	.LVL169:
1134:PCA9959.c     ****     PCA9959_Write_1(Ch7_Cf2, 0x00);
 1146              		.loc 1 1134 0
 1147 0104 0021     		movs	r1, #0
 1148 0106 3920     		movs	r0, #57
 1149 0108 FFF7FEFF 		bl	PCA9959_Write_1
 1150              	.LVL170:
1135:PCA9959.c     ****     PCA9959_Write_1(Ch8_Cf2, 0x00);
 1151              		.loc 1 1135 0
 1152 010c 0021     		movs	r1, #0
 1153 010e 3D20     		movs	r0, #61
 1154 0110 FFF7FEFF 		bl	PCA9959_Write_1
 1155              	.LVL171:
1136:PCA9959.c     ****     PCA9959_Write_1(Ch9_Cf2, 0x00);
 1156              		.loc 1 1136 0
 1157 0114 0021     		movs	r1, #0
 1158 0116 4120     		movs	r0, #65
 1159 0118 FFF7FEFF 		bl	PCA9959_Write_1
 1160              	.LVL172:
1137:PCA9959.c     ****     PCA9959_Write_1(Ch10_Cf2, 0x00);
ARM GAS  C:\Users\Revanth\AppData\Local\Temp\ccqs06ys.s 			page 48


 1161              		.loc 1 1137 0
 1162 011c 0021     		movs	r1, #0
 1163 011e 4520     		movs	r0, #69
 1164 0120 FFF7FEFF 		bl	PCA9959_Write_1
 1165              	.LVL173:
1138:PCA9959.c     ****     PCA9959_Write_1(Ch11_Cf2, 0x00);
 1166              		.loc 1 1138 0
 1167 0124 0021     		movs	r1, #0
 1168 0126 4920     		movs	r0, #73
 1169 0128 FFF7FEFF 		bl	PCA9959_Write_1
 1170              	.LVL174:
1139:PCA9959.c     ****     
 1171              		.loc 1 1139 0
 1172 012c 0021     		movs	r1, #0
 1173 012e 4D20     		movs	r0, #77
 1174 0130 FFF7FEFF 		bl	PCA9959_Write_1
 1175              	.LVL175:
1141:PCA9959.c     ****     PCA9959_Write_1(Ch13_Cf2, 0x00);
 1176              		.loc 1 1141 0
 1177 0134 0021     		movs	r1, #0
 1178 0136 5120     		movs	r0, #81
 1179 0138 FFF7FEFF 		bl	PCA9959_Write_1
 1180              	.LVL176:
1142:PCA9959.c     ****     PCA9959_Write_1(Ch14_Cf2, 0x00);
 1181              		.loc 1 1142 0
 1182 013c 0021     		movs	r1, #0
 1183 013e 5520     		movs	r0, #85
 1184 0140 FFF7FEFF 		bl	PCA9959_Write_1
 1185              	.LVL177:
1143:PCA9959.c     ****     PCA9959_Write_1(Ch15_Cf2, 0x00);
 1186              		.loc 1 1143 0
 1187 0144 0021     		movs	r1, #0
 1188 0146 5920     		movs	r0, #89
 1189 0148 FFF7FEFF 		bl	PCA9959_Write_1
 1190              	.LVL178:
1144:PCA9959.c     ****     PCA9959_Write_1(Ch16_Cf2, 0x00);
 1191              		.loc 1 1144 0
 1192 014c 0021     		movs	r1, #0
 1193 014e 5D20     		movs	r0, #93
 1194 0150 FFF7FEFF 		bl	PCA9959_Write_1
 1195              	.LVL179:
1145:PCA9959.c     ****     PCA9959_Write_1(Ch17_Cf2, 0x00);
 1196              		.loc 1 1145 0
 1197 0154 0021     		movs	r1, #0
 1198 0156 6120     		movs	r0, #97
 1199 0158 FFF7FEFF 		bl	PCA9959_Write_1
 1200              	.LVL180:
1146:PCA9959.c     ****     PCA9959_Write_1(Ch18_Cf2, 0x00);
 1201              		.loc 1 1146 0
 1202 015c 0021     		movs	r1, #0
 1203 015e 6520     		movs	r0, #101
 1204 0160 FFF7FEFF 		bl	PCA9959_Write_1
 1205              	.LVL181:
1147:PCA9959.c     ****     PCA9959_Write_1(Ch19_Cf2, 0x00);
 1206              		.loc 1 1147 0
 1207 0164 0021     		movs	r1, #0
 1208 0166 6920     		movs	r0, #105
ARM GAS  C:\Users\Revanth\AppData\Local\Temp\ccqs06ys.s 			page 49


 1209 0168 FFF7FEFF 		bl	PCA9959_Write_1
 1210              	.LVL182:
1148:PCA9959.c     ****     PCA9959_Write_1(Ch20_Cf2, 0x00);
 1211              		.loc 1 1148 0
 1212 016c 0021     		movs	r1, #0
 1213 016e 6D20     		movs	r0, #109
 1214 0170 FFF7FEFF 		bl	PCA9959_Write_1
 1215              	.LVL183:
1149:PCA9959.c     ****     PCA9959_Write_1(Ch21_Cf2, 0x00);
 1216              		.loc 1 1149 0
 1217 0174 0021     		movs	r1, #0
 1218 0176 7120     		movs	r0, #113
 1219 0178 FFF7FEFF 		bl	PCA9959_Write_1
 1220              	.LVL184:
1150:PCA9959.c     ****     PCA9959_Write_1(Ch22_Cf2, 0x00);
 1221              		.loc 1 1150 0
 1222 017c 0021     		movs	r1, #0
 1223 017e 7520     		movs	r0, #117
 1224 0180 FFF7FEFF 		bl	PCA9959_Write_1
 1225              	.LVL185:
1151:PCA9959.c     ****     PCA9959_Write_1(Ch23_Cf2, 0x00);
 1226              		.loc 1 1151 0
 1227 0184 0021     		movs	r1, #0
 1228 0186 7920     		movs	r0, #121
 1229 0188 FFF7FEFF 		bl	PCA9959_Write_1
 1230              	.LVL186:
1152:PCA9959.c     ****     Pin_OE_PCA9959_1_Write(1);
 1231              		.loc 1 1152 0
 1232 018c 0021     		movs	r1, #0
 1233 018e 7D20     		movs	r0, #125
 1234 0190 FFF7FEFF 		bl	PCA9959_Write_1
 1235              	.LVL187:
1153:PCA9959.c     ****     
 1236              		.loc 1 1153 0
 1237 0194 0120     		movs	r0, #1
 1238 0196 FFF7FEFF 		bl	Pin_OE_PCA9959_1_Write
 1239              	.LVL188:
1155:PCA9959.c     ****     PageSel_2(ChSel);
 1240              		.loc 1 1155 0
 1241 019a 0120     		movs	r0, #1
 1242 019c FFF7FEFF 		bl	Pin_OE_PCA9959_2_Write
 1243              	.LVL189:
1156:PCA9959.c     ****     PCA9959_Write_2(Ch0_Cf1, 0x00);                       
 1244              		.loc 1 1156 0
 1245 01a0 0120     		movs	r0, #1
 1246 01a2 FFF7FEFF 		bl	PageSel_2
 1247              	.LVL190:
1157:PCA9959.c     ****     PCA9959_Write_2(Ch1_Cf1, 0x00);
 1248              		.loc 1 1157 0
 1249 01a6 0021     		movs	r1, #0
 1250 01a8 2020     		movs	r0, #32
 1251 01aa FFF7FEFF 		bl	PCA9959_Write_2
 1252              	.LVL191:
1158:PCA9959.c     ****     PCA9959_Write_2(Ch2_Cf1, 0x00); 
 1253              		.loc 1 1158 0
 1254 01ae 0021     		movs	r1, #0
 1255 01b0 2420     		movs	r0, #36
ARM GAS  C:\Users\Revanth\AppData\Local\Temp\ccqs06ys.s 			page 50


 1256 01b2 FFF7FEFF 		bl	PCA9959_Write_2
 1257              	.LVL192:
1159:PCA9959.c     ****     PCA9959_Write_2(Ch3_Cf1, 0x00); 
 1258              		.loc 1 1159 0
 1259 01b6 0021     		movs	r1, #0
 1260 01b8 2820     		movs	r0, #40
 1261 01ba FFF7FEFF 		bl	PCA9959_Write_2
 1262              	.LVL193:
1160:PCA9959.c     ****     PCA9959_Write_2(Ch4_Cf1, 0x00); 
 1263              		.loc 1 1160 0
 1264 01be 0021     		movs	r1, #0
 1265 01c0 2C20     		movs	r0, #44
 1266 01c2 FFF7FEFF 		bl	PCA9959_Write_2
 1267              	.LVL194:
1161:PCA9959.c     ****     PCA9959_Write_2(Ch5_Cf1, 0x00); 
 1268              		.loc 1 1161 0
 1269 01c6 0021     		movs	r1, #0
 1270 01c8 3020     		movs	r0, #48
 1271 01ca FFF7FEFF 		bl	PCA9959_Write_2
 1272              	.LVL195:
1162:PCA9959.c     ****     PCA9959_Write_2(Ch6_Cf1, 0x00); 
 1273              		.loc 1 1162 0
 1274 01ce 0021     		movs	r1, #0
 1275 01d0 3420     		movs	r0, #52
 1276 01d2 FFF7FEFF 		bl	PCA9959_Write_2
 1277              	.LVL196:
1163:PCA9959.c     ****     PCA9959_Write_2(Ch7_Cf1, 0x00); 
 1278              		.loc 1 1163 0
 1279 01d6 0021     		movs	r1, #0
 1280 01d8 3820     		movs	r0, #56
 1281 01da FFF7FEFF 		bl	PCA9959_Write_2
 1282              	.LVL197:
1164:PCA9959.c     ****     PCA9959_Write_2(Ch8_Cf1, 0x00); 
 1283              		.loc 1 1164 0
 1284 01de 0021     		movs	r1, #0
 1285 01e0 3C20     		movs	r0, #60
 1286 01e2 FFF7FEFF 		bl	PCA9959_Write_2
 1287              	.LVL198:
1165:PCA9959.c     ****     PCA9959_Write_2(Ch9_Cf1, 0x00); 
 1288              		.loc 1 1165 0
 1289 01e6 0021     		movs	r1, #0
 1290 01e8 4020     		movs	r0, #64
 1291 01ea FFF7FEFF 		bl	PCA9959_Write_2
 1292              	.LVL199:
1166:PCA9959.c     ****     PCA9959_Write_2(Ch10_Cf1, 0x00);  
 1293              		.loc 1 1166 0
 1294 01ee 0021     		movs	r1, #0
 1295 01f0 4420     		movs	r0, #68
 1296 01f2 FFF7FEFF 		bl	PCA9959_Write_2
 1297              	.LVL200:
1167:PCA9959.c     ****     PCA9959_Write_2(Ch11_Cf1, 0x00);
 1298              		.loc 1 1167 0
 1299 01f6 0021     		movs	r1, #0
 1300 01f8 4820     		movs	r0, #72
 1301 01fa FFF7FEFF 		bl	PCA9959_Write_2
 1302              	.LVL201:
1168:PCA9959.c     ****     
ARM GAS  C:\Users\Revanth\AppData\Local\Temp\ccqs06ys.s 			page 51


 1303              		.loc 1 1168 0
 1304 01fe 0021     		movs	r1, #0
 1305 0200 4C20     		movs	r0, #76
 1306 0202 FFF7FEFF 		bl	PCA9959_Write_2
 1307              	.LVL202:
1170:PCA9959.c     ****     PCA9959_Write_2(Ch13_Cf1, 0x00);
 1308              		.loc 1 1170 0
 1309 0206 0021     		movs	r1, #0
 1310 0208 5020     		movs	r0, #80
 1311 020a FFF7FEFF 		bl	PCA9959_Write_2
 1312              	.LVL203:
1171:PCA9959.c     ****     PCA9959_Write_2(Ch14_Cf1, 0x00);
 1313              		.loc 1 1171 0
 1314 020e 0021     		movs	r1, #0
 1315 0210 5420     		movs	r0, #84
 1316 0212 FFF7FEFF 		bl	PCA9959_Write_2
 1317              	.LVL204:
1172:PCA9959.c     ****     PCA9959_Write_2(Ch15_Cf1, 0x00);
 1318              		.loc 1 1172 0
 1319 0216 0021     		movs	r1, #0
 1320 0218 5820     		movs	r0, #88
 1321 021a FFF7FEFF 		bl	PCA9959_Write_2
 1322              	.LVL205:
1173:PCA9959.c     ****     PCA9959_Write_2(Ch16_Cf1, 0x00);
 1323              		.loc 1 1173 0
 1324 021e 0021     		movs	r1, #0
 1325 0220 5C20     		movs	r0, #92
 1326 0222 FFF7FEFF 		bl	PCA9959_Write_2
 1327              	.LVL206:
1174:PCA9959.c     ****     PCA9959_Write_2(Ch17_Cf1, 0x00);
 1328              		.loc 1 1174 0
 1329 0226 0021     		movs	r1, #0
 1330 0228 6020     		movs	r0, #96
 1331 022a FFF7FEFF 		bl	PCA9959_Write_2
 1332              	.LVL207:
1175:PCA9959.c     ****     PCA9959_Write_2(Ch18_Cf1, 0x00);
 1333              		.loc 1 1175 0
 1334 022e 0021     		movs	r1, #0
 1335 0230 6420     		movs	r0, #100
 1336 0232 FFF7FEFF 		bl	PCA9959_Write_2
 1337              	.LVL208:
1176:PCA9959.c     ****     PCA9959_Write_2(Ch19_Cf1, 0x00);
 1338              		.loc 1 1176 0
 1339 0236 0021     		movs	r1, #0
 1340 0238 6820     		movs	r0, #104
 1341 023a FFF7FEFF 		bl	PCA9959_Write_2
 1342              	.LVL209:
1177:PCA9959.c     ****     PCA9959_Write_2(Ch20_Cf1, 0x00);
 1343              		.loc 1 1177 0
 1344 023e 0021     		movs	r1, #0
 1345 0240 6C20     		movs	r0, #108
 1346 0242 FFF7FEFF 		bl	PCA9959_Write_2
 1347              	.LVL210:
1178:PCA9959.c     ****     PCA9959_Write_2(Ch21_Cf1, 0x00);
 1348              		.loc 1 1178 0
 1349 0246 0021     		movs	r1, #0
 1350 0248 7020     		movs	r0, #112
ARM GAS  C:\Users\Revanth\AppData\Local\Temp\ccqs06ys.s 			page 52


 1351 024a FFF7FEFF 		bl	PCA9959_Write_2
 1352              	.LVL211:
1179:PCA9959.c     ****     PCA9959_Write_2(Ch22_Cf1, 0x00);
 1353              		.loc 1 1179 0
 1354 024e 0021     		movs	r1, #0
 1355 0250 7420     		movs	r0, #116
 1356 0252 FFF7FEFF 		bl	PCA9959_Write_2
 1357              	.LVL212:
1180:PCA9959.c     ****     PCA9959_Write_2(Ch23_Cf1, 0x00);
 1358              		.loc 1 1180 0
 1359 0256 0021     		movs	r1, #0
 1360 0258 7820     		movs	r0, #120
 1361 025a FFF7FEFF 		bl	PCA9959_Write_2
 1362              	.LVL213:
1181:PCA9959.c     ****     
 1363              		.loc 1 1181 0
 1364 025e 0021     		movs	r1, #0
 1365 0260 7C20     		movs	r0, #124
 1366 0262 FFF7FEFF 		bl	PCA9959_Write_2
 1367              	.LVL214:
1185:PCA9959.c     ****     PCA9959_Write_2(Ch1_Cf2, 0x00);
 1368              		.loc 1 1185 0
 1369 0266 0021     		movs	r1, #0
 1370 0268 2120     		movs	r0, #33
 1371 026a FFF7FEFF 		bl	PCA9959_Write_2
 1372              	.LVL215:
1186:PCA9959.c     ****     PCA9959_Write_2(Ch2_Cf2, 0x00);
 1373              		.loc 1 1186 0
 1374 026e 0021     		movs	r1, #0
 1375 0270 2520     		movs	r0, #37
 1376 0272 FFF7FEFF 		bl	PCA9959_Write_2
 1377              	.LVL216:
1187:PCA9959.c     ****     PCA9959_Write_2(Ch3_Cf2, 0x00);
 1378              		.loc 1 1187 0
 1379 0276 0021     		movs	r1, #0
 1380 0278 2920     		movs	r0, #41
 1381 027a FFF7FEFF 		bl	PCA9959_Write_2
 1382              	.LVL217:
1188:PCA9959.c     ****     PCA9959_Write_2(Ch4_Cf2, 0x00);
 1383              		.loc 1 1188 0
 1384 027e 0021     		movs	r1, #0
 1385 0280 2D20     		movs	r0, #45
 1386 0282 FFF7FEFF 		bl	PCA9959_Write_2
 1387              	.LVL218:
1189:PCA9959.c     ****     PCA9959_Write_2(Ch5_Cf2, 0x00);
 1388              		.loc 1 1189 0
 1389 0286 0021     		movs	r1, #0
 1390 0288 3120     		movs	r0, #49
 1391 028a FFF7FEFF 		bl	PCA9959_Write_2
 1392              	.LVL219:
1190:PCA9959.c     ****     PCA9959_Write_2(Ch6_Cf2, 0x00);
 1393              		.loc 1 1190 0
 1394 028e 0021     		movs	r1, #0
 1395 0290 3520     		movs	r0, #53
 1396 0292 FFF7FEFF 		bl	PCA9959_Write_2
 1397              	.LVL220:
1191:PCA9959.c     ****     PCA9959_Write_2(Ch7_Cf2, 0x00);
ARM GAS  C:\Users\Revanth\AppData\Local\Temp\ccqs06ys.s 			page 53


 1398              		.loc 1 1191 0
 1399 0296 0021     		movs	r1, #0
 1400 0298 3920     		movs	r0, #57
 1401 029a FFF7FEFF 		bl	PCA9959_Write_2
 1402              	.LVL221:
1192:PCA9959.c     ****     PCA9959_Write_2(Ch8_Cf2, 0x00);
 1403              		.loc 1 1192 0
 1404 029e 0021     		movs	r1, #0
 1405 02a0 3D20     		movs	r0, #61
 1406 02a2 FFF7FEFF 		bl	PCA9959_Write_2
 1407              	.LVL222:
1193:PCA9959.c     ****     PCA9959_Write_2(Ch9_Cf2, 0x00);
 1408              		.loc 1 1193 0
 1409 02a6 0021     		movs	r1, #0
 1410 02a8 4120     		movs	r0, #65
 1411 02aa FFF7FEFF 		bl	PCA9959_Write_2
 1412              	.LVL223:
1194:PCA9959.c     ****     PCA9959_Write_2(Ch10_Cf2, 0x00);
 1413              		.loc 1 1194 0
 1414 02ae 0021     		movs	r1, #0
 1415 02b0 4520     		movs	r0, #69
 1416 02b2 FFF7FEFF 		bl	PCA9959_Write_2
 1417              	.LVL224:
1195:PCA9959.c     ****     PCA9959_Write_2(Ch11_Cf2, 0x00);
 1418              		.loc 1 1195 0
 1419 02b6 0021     		movs	r1, #0
 1420 02b8 4920     		movs	r0, #73
 1421 02ba FFF7FEFF 		bl	PCA9959_Write_2
 1422              	.LVL225:
1196:PCA9959.c     ****     
 1423              		.loc 1 1196 0
 1424 02be 0021     		movs	r1, #0
 1425 02c0 4D20     		movs	r0, #77
 1426 02c2 FFF7FEFF 		bl	PCA9959_Write_2
 1427              	.LVL226:
1198:PCA9959.c     ****     PCA9959_Write_2(Ch13_Cf2, 0x00);
 1428              		.loc 1 1198 0
 1429 02c6 0021     		movs	r1, #0
 1430 02c8 5120     		movs	r0, #81
 1431 02ca FFF7FEFF 		bl	PCA9959_Write_2
 1432              	.LVL227:
1199:PCA9959.c     ****     PCA9959_Write_2(Ch14_Cf2, 0x00);
 1433              		.loc 1 1199 0
 1434 02ce 0021     		movs	r1, #0
 1435 02d0 5520     		movs	r0, #85
 1436 02d2 FFF7FEFF 		bl	PCA9959_Write_2
 1437              	.LVL228:
1200:PCA9959.c     ****     PCA9959_Write_2(Ch15_Cf2, 0x00);
 1438              		.loc 1 1200 0
 1439 02d6 0021     		movs	r1, #0
 1440 02d8 5920     		movs	r0, #89
 1441 02da FFF7FEFF 		bl	PCA9959_Write_2
 1442              	.LVL229:
1201:PCA9959.c     ****     PCA9959_Write_2(Ch16_Cf2, 0x00);
 1443              		.loc 1 1201 0
 1444 02de 0021     		movs	r1, #0
 1445 02e0 5D20     		movs	r0, #93
ARM GAS  C:\Users\Revanth\AppData\Local\Temp\ccqs06ys.s 			page 54


 1446 02e2 FFF7FEFF 		bl	PCA9959_Write_2
 1447              	.LVL230:
1202:PCA9959.c     ****     PCA9959_Write_2(Ch17_Cf2, 0x00);
 1448              		.loc 1 1202 0
 1449 02e6 0021     		movs	r1, #0
 1450 02e8 6120     		movs	r0, #97
 1451 02ea FFF7FEFF 		bl	PCA9959_Write_2
 1452              	.LVL231:
1203:PCA9959.c     ****     PCA9959_Write_2(Ch18_Cf2, 0x00);
 1453              		.loc 1 1203 0
 1454 02ee 0021     		movs	r1, #0
 1455 02f0 6520     		movs	r0, #101
 1456 02f2 FFF7FEFF 		bl	PCA9959_Write_2
 1457              	.LVL232:
1204:PCA9959.c     ****     PCA9959_Write_2(Ch19_Cf2, 0x00);
 1458              		.loc 1 1204 0
 1459 02f6 0021     		movs	r1, #0
 1460 02f8 6920     		movs	r0, #105
 1461 02fa FFF7FEFF 		bl	PCA9959_Write_2
 1462              	.LVL233:
1205:PCA9959.c     ****     PCA9959_Write_2(Ch20_Cf2, 0x00);
 1463              		.loc 1 1205 0
 1464 02fe 0021     		movs	r1, #0
 1465 0300 6D20     		movs	r0, #109
 1466 0302 FFF7FEFF 		bl	PCA9959_Write_2
 1467              	.LVL234:
1206:PCA9959.c     ****     PCA9959_Write_2(Ch21_Cf2, 0x00);
 1468              		.loc 1 1206 0
 1469 0306 0021     		movs	r1, #0
 1470 0308 7120     		movs	r0, #113
 1471 030a FFF7FEFF 		bl	PCA9959_Write_2
 1472              	.LVL235:
1207:PCA9959.c     ****     PCA9959_Write_2(Ch22_Cf2, 0x00);
 1473              		.loc 1 1207 0
 1474 030e 0021     		movs	r1, #0
 1475 0310 7520     		movs	r0, #117
 1476 0312 FFF7FEFF 		bl	PCA9959_Write_2
 1477              	.LVL236:
1208:PCA9959.c     ****     PCA9959_Write_2(Ch23_Cf2, 0x00);
 1478              		.loc 1 1208 0
 1479 0316 0021     		movs	r1, #0
 1480 0318 7920     		movs	r0, #121
 1481 031a FFF7FEFF 		bl	PCA9959_Write_2
 1482              	.LVL237:
1209:PCA9959.c     ****     Pin_OE_PCA9959_2_Write(1);
 1483              		.loc 1 1209 0
 1484 031e 0021     		movs	r1, #0
 1485 0320 7D20     		movs	r0, #125
 1486 0322 FFF7FEFF 		bl	PCA9959_Write_2
 1487              	.LVL238:
1210:PCA9959.c     ****     
 1488              		.loc 1 1210 0
 1489 0326 0120     		movs	r0, #1
 1490 0328 FFF7FEFF 		bl	Pin_OE_PCA9959_2_Write
 1491              	.LVL239:
1212:PCA9959.c     ****     PageSel_3(ChSel);
 1492              		.loc 1 1212 0
ARM GAS  C:\Users\Revanth\AppData\Local\Temp\ccqs06ys.s 			page 55


 1493 032c 0120     		movs	r0, #1
 1494 032e FFF7FEFF 		bl	Pin_OE_PCA9959_3_Write
 1495              	.LVL240:
1213:PCA9959.c     ****     PCA9959_Write_3(Ch0_Cf1, 0x00);                       
 1496              		.loc 1 1213 0
 1497 0332 0120     		movs	r0, #1
 1498 0334 FFF7FEFF 		bl	PageSel_3
 1499              	.LVL241:
1214:PCA9959.c     ****     PCA9959_Write_3(Ch1_Cf1, 0x00);
 1500              		.loc 1 1214 0
 1501 0338 0021     		movs	r1, #0
 1502 033a 2020     		movs	r0, #32
 1503 033c FFF7FEFF 		bl	PCA9959_Write_3
 1504              	.LVL242:
1215:PCA9959.c     ****     PCA9959_Write_3(Ch2_Cf1, 0x00); 
 1505              		.loc 1 1215 0
 1506 0340 0021     		movs	r1, #0
 1507 0342 2420     		movs	r0, #36
 1508 0344 FFF7FEFF 		bl	PCA9959_Write_3
 1509              	.LVL243:
1216:PCA9959.c     ****     PCA9959_Write_3(Ch3_Cf1, 0x00); 
 1510              		.loc 1 1216 0
 1511 0348 0021     		movs	r1, #0
 1512 034a 2820     		movs	r0, #40
 1513 034c FFF7FEFF 		bl	PCA9959_Write_3
 1514              	.LVL244:
1217:PCA9959.c     ****     PCA9959_Write_3(Ch4_Cf1, 0x00); 
 1515              		.loc 1 1217 0
 1516 0350 0021     		movs	r1, #0
 1517 0352 2C20     		movs	r0, #44
 1518 0354 FFF7FEFF 		bl	PCA9959_Write_3
 1519              	.LVL245:
1218:PCA9959.c     ****     PCA9959_Write_3(Ch5_Cf1, 0x00); 
 1520              		.loc 1 1218 0
 1521 0358 0021     		movs	r1, #0
 1522 035a 3020     		movs	r0, #48
 1523 035c FFF7FEFF 		bl	PCA9959_Write_3
 1524              	.LVL246:
1219:PCA9959.c     ****     PCA9959_Write_3(Ch6_Cf1, 0x00); 
 1525              		.loc 1 1219 0
 1526 0360 0021     		movs	r1, #0
 1527 0362 3420     		movs	r0, #52
 1528 0364 FFF7FEFF 		bl	PCA9959_Write_3
 1529              	.LVL247:
1220:PCA9959.c     ****     PCA9959_Write_3(Ch7_Cf1, 0x00); 
 1530              		.loc 1 1220 0
 1531 0368 0021     		movs	r1, #0
 1532 036a 3820     		movs	r0, #56
 1533 036c FFF7FEFF 		bl	PCA9959_Write_3
 1534              	.LVL248:
1221:PCA9959.c     ****     PCA9959_Write_3(Ch8_Cf1, 0x00); 
 1535              		.loc 1 1221 0
 1536 0370 0021     		movs	r1, #0
 1537 0372 3C20     		movs	r0, #60
 1538 0374 FFF7FEFF 		bl	PCA9959_Write_3
 1539              	.LVL249:
1222:PCA9959.c     ****     PCA9959_Write_3(Ch9_Cf1, 0x00); 
ARM GAS  C:\Users\Revanth\AppData\Local\Temp\ccqs06ys.s 			page 56


 1540              		.loc 1 1222 0
 1541 0378 0021     		movs	r1, #0
 1542 037a 4020     		movs	r0, #64
 1543 037c FFF7FEFF 		bl	PCA9959_Write_3
 1544              	.LVL250:
1223:PCA9959.c     ****     PCA9959_Write_3(Ch10_Cf1, 0x00); 
 1545              		.loc 1 1223 0
 1546 0380 0021     		movs	r1, #0
 1547 0382 4420     		movs	r0, #68
 1548 0384 FFF7FEFF 		bl	PCA9959_Write_3
 1549              	.LVL251:
1224:PCA9959.c     ****     PCA9959_Write_3(Ch11_Cf1, 0x00);
 1550              		.loc 1 1224 0
 1551 0388 0021     		movs	r1, #0
 1552 038a 4820     		movs	r0, #72
 1553 038c FFF7FEFF 		bl	PCA9959_Write_3
 1554              	.LVL252:
1225:PCA9959.c     ****     
 1555              		.loc 1 1225 0
 1556 0390 0021     		movs	r1, #0
 1557 0392 4C20     		movs	r0, #76
 1558 0394 FFF7FEFF 		bl	PCA9959_Write_3
 1559              	.LVL253:
1227:PCA9959.c     ****     PCA9959_Write_3(Ch13_Cf1, 0x00);
 1560              		.loc 1 1227 0
 1561 0398 0021     		movs	r1, #0
 1562 039a 5020     		movs	r0, #80
 1563 039c FFF7FEFF 		bl	PCA9959_Write_3
 1564              	.LVL254:
1228:PCA9959.c     ****     PCA9959_Write_3(Ch14_Cf1, 0x00);
 1565              		.loc 1 1228 0
 1566 03a0 0021     		movs	r1, #0
 1567 03a2 5420     		movs	r0, #84
 1568 03a4 FFF7FEFF 		bl	PCA9959_Write_3
 1569              	.LVL255:
1229:PCA9959.c     ****     PCA9959_Write_3(Ch15_Cf1, 0x00);
 1570              		.loc 1 1229 0
 1571 03a8 0021     		movs	r1, #0
 1572 03aa 5820     		movs	r0, #88
 1573 03ac FFF7FEFF 		bl	PCA9959_Write_3
 1574              	.LVL256:
1230:PCA9959.c     ****     PCA9959_Write_3(Ch16_Cf1, 0x00);
 1575              		.loc 1 1230 0
 1576 03b0 0021     		movs	r1, #0
 1577 03b2 5C20     		movs	r0, #92
 1578 03b4 FFF7FEFF 		bl	PCA9959_Write_3
 1579              	.LVL257:
1231:PCA9959.c     ****     PCA9959_Write_3(Ch17_Cf1, 0x00);
 1580              		.loc 1 1231 0
 1581 03b8 0021     		movs	r1, #0
 1582 03ba 6020     		movs	r0, #96
 1583 03bc FFF7FEFF 		bl	PCA9959_Write_3
 1584              	.LVL258:
1232:PCA9959.c     ****     PCA9959_Write_3(Ch18_Cf1, 0x00);
 1585              		.loc 1 1232 0
 1586 03c0 0021     		movs	r1, #0
 1587 03c2 6420     		movs	r0, #100
ARM GAS  C:\Users\Revanth\AppData\Local\Temp\ccqs06ys.s 			page 57


 1588 03c4 FFF7FEFF 		bl	PCA9959_Write_3
 1589              	.LVL259:
1233:PCA9959.c     ****     PCA9959_Write_3(Ch19_Cf1, 0x00);
 1590              		.loc 1 1233 0
 1591 03c8 0021     		movs	r1, #0
 1592 03ca 6820     		movs	r0, #104
 1593 03cc FFF7FEFF 		bl	PCA9959_Write_3
 1594              	.LVL260:
1234:PCA9959.c     ****     PCA9959_Write_3(Ch20_Cf1, 0x00);
 1595              		.loc 1 1234 0
 1596 03d0 0021     		movs	r1, #0
 1597 03d2 6C20     		movs	r0, #108
 1598 03d4 FFF7FEFF 		bl	PCA9959_Write_3
 1599              	.LVL261:
1235:PCA9959.c     ****     PCA9959_Write_3(Ch21_Cf1, 0x00);
 1600              		.loc 1 1235 0
 1601 03d8 0021     		movs	r1, #0
 1602 03da 7020     		movs	r0, #112
 1603 03dc FFF7FEFF 		bl	PCA9959_Write_3
 1604              	.LVL262:
1236:PCA9959.c     ****     PCA9959_Write_3(Ch22_Cf1, 0x00);
 1605              		.loc 1 1236 0
 1606 03e0 0021     		movs	r1, #0
 1607 03e2 7420     		movs	r0, #116
 1608 03e4 FFF7FEFF 		bl	PCA9959_Write_3
 1609              	.LVL263:
1237:PCA9959.c     ****     PCA9959_Write_3(Ch23_Cf1, 0x00);
 1610              		.loc 1 1237 0
 1611 03e8 0021     		movs	r1, #0
 1612 03ea 7820     		movs	r0, #120
 1613 03ec FFF7FEFF 		bl	PCA9959_Write_3
 1614              	.LVL264:
1238:PCA9959.c     ****     
 1615              		.loc 1 1238 0
 1616 03f0 0021     		movs	r1, #0
 1617 03f2 7C20     		movs	r0, #124
 1618 03f4 FFF7FEFF 		bl	PCA9959_Write_3
 1619              	.LVL265:
1242:PCA9959.c     ****     PCA9959_Write_3(Ch1_Cf2, 0x00);
 1620              		.loc 1 1242 0
 1621 03f8 0021     		movs	r1, #0
 1622 03fa 2120     		movs	r0, #33
 1623 03fc FFF7FEFF 		bl	PCA9959_Write_3
 1624              	.LVL266:
1243:PCA9959.c     ****     PCA9959_Write_3(Ch2_Cf2, 0x00);
 1625              		.loc 1 1243 0
 1626 0400 0021     		movs	r1, #0
 1627 0402 2520     		movs	r0, #37
 1628 0404 FFF7FEFF 		bl	PCA9959_Write_3
 1629              	.LVL267:
1244:PCA9959.c     ****     PCA9959_Write_3(Ch3_Cf2, 0x00);
 1630              		.loc 1 1244 0
 1631 0408 0021     		movs	r1, #0
 1632 040a 2920     		movs	r0, #41
 1633 040c FFF7FEFF 		bl	PCA9959_Write_3
 1634              	.LVL268:
1245:PCA9959.c     ****     PCA9959_Write_3(Ch4_Cf2, 0x00);
ARM GAS  C:\Users\Revanth\AppData\Local\Temp\ccqs06ys.s 			page 58


 1635              		.loc 1 1245 0
 1636 0410 0021     		movs	r1, #0
 1637 0412 2D20     		movs	r0, #45
 1638 0414 FFF7FEFF 		bl	PCA9959_Write_3
 1639              	.LVL269:
1246:PCA9959.c     ****     PCA9959_Write_3(Ch5_Cf2, 0x00);
 1640              		.loc 1 1246 0
 1641 0418 0021     		movs	r1, #0
 1642 041a 3120     		movs	r0, #49
 1643 041c FFF7FEFF 		bl	PCA9959_Write_3
 1644              	.LVL270:
1247:PCA9959.c     ****     PCA9959_Write_3(Ch6_Cf2, 0x00);
 1645              		.loc 1 1247 0
 1646 0420 0021     		movs	r1, #0
 1647 0422 3520     		movs	r0, #53
 1648 0424 FFF7FEFF 		bl	PCA9959_Write_3
 1649              	.LVL271:
1248:PCA9959.c     ****     PCA9959_Write_3(Ch7_Cf2, 0x00);
 1650              		.loc 1 1248 0
 1651 0428 0021     		movs	r1, #0
 1652 042a 3920     		movs	r0, #57
 1653 042c FFF7FEFF 		bl	PCA9959_Write_3
 1654              	.LVL272:
1249:PCA9959.c     ****     PCA9959_Write_3(Ch8_Cf2, 0x00);
 1655              		.loc 1 1249 0
 1656 0430 0021     		movs	r1, #0
 1657 0432 3D20     		movs	r0, #61
 1658 0434 FFF7FEFF 		bl	PCA9959_Write_3
 1659              	.LVL273:
1250:PCA9959.c     ****     PCA9959_Write_3(Ch9_Cf2, 0x00);
 1660              		.loc 1 1250 0
 1661 0438 0021     		movs	r1, #0
 1662 043a 4120     		movs	r0, #65
 1663 043c FFF7FEFF 		bl	PCA9959_Write_3
 1664              	.LVL274:
1251:PCA9959.c     ****     PCA9959_Write_3(Ch10_Cf2, 0x00);
 1665              		.loc 1 1251 0
 1666 0440 0021     		movs	r1, #0
 1667 0442 4520     		movs	r0, #69
 1668 0444 FFF7FEFF 		bl	PCA9959_Write_3
 1669              	.LVL275:
1252:PCA9959.c     ****     PCA9959_Write_3(Ch11_Cf2, 0x00);
 1670              		.loc 1 1252 0
 1671 0448 0021     		movs	r1, #0
 1672 044a 4920     		movs	r0, #73
 1673 044c FFF7FEFF 		bl	PCA9959_Write_3
 1674              	.LVL276:
1253:PCA9959.c     ****     
 1675              		.loc 1 1253 0
 1676 0450 0021     		movs	r1, #0
 1677 0452 4D20     		movs	r0, #77
 1678 0454 FFF7FEFF 		bl	PCA9959_Write_3
 1679              	.LVL277:
1255:PCA9959.c     ****     PCA9959_Write_3(Ch13_Cf2, 0x00);
 1680              		.loc 1 1255 0
 1681 0458 0021     		movs	r1, #0
 1682 045a 5120     		movs	r0, #81
ARM GAS  C:\Users\Revanth\AppData\Local\Temp\ccqs06ys.s 			page 59


 1683 045c FFF7FEFF 		bl	PCA9959_Write_3
 1684              	.LVL278:
1256:PCA9959.c     ****     PCA9959_Write_3(Ch14_Cf2, 0x00);
 1685              		.loc 1 1256 0
 1686 0460 0021     		movs	r1, #0
 1687 0462 5520     		movs	r0, #85
 1688 0464 FFF7FEFF 		bl	PCA9959_Write_3
 1689              	.LVL279:
1257:PCA9959.c     ****     PCA9959_Write_3(Ch15_Cf2, 0x00);
 1690              		.loc 1 1257 0
 1691 0468 0021     		movs	r1, #0
 1692 046a 5920     		movs	r0, #89
 1693 046c FFF7FEFF 		bl	PCA9959_Write_3
 1694              	.LVL280:
1258:PCA9959.c     ****     PCA9959_Write_3(Ch16_Cf2, 0x00);
 1695              		.loc 1 1258 0
 1696 0470 0021     		movs	r1, #0
 1697 0472 5D20     		movs	r0, #93
 1698 0474 FFF7FEFF 		bl	PCA9959_Write_3
 1699              	.LVL281:
1259:PCA9959.c     ****     PCA9959_Write_3(Ch17_Cf2, 0x00);
 1700              		.loc 1 1259 0
 1701 0478 0021     		movs	r1, #0
 1702 047a 6120     		movs	r0, #97
 1703 047c FFF7FEFF 		bl	PCA9959_Write_3
 1704              	.LVL282:
1260:PCA9959.c     ****     PCA9959_Write_3(Ch18_Cf2, 0x00);
 1705              		.loc 1 1260 0
 1706 0480 0021     		movs	r1, #0
 1707 0482 6520     		movs	r0, #101
 1708 0484 FFF7FEFF 		bl	PCA9959_Write_3
 1709              	.LVL283:
1261:PCA9959.c     ****     PCA9959_Write_3(Ch19_Cf2, 0x00);
 1710              		.loc 1 1261 0
 1711 0488 0021     		movs	r1, #0
 1712 048a 6920     		movs	r0, #105
 1713 048c FFF7FEFF 		bl	PCA9959_Write_3
 1714              	.LVL284:
1262:PCA9959.c     ****     PCA9959_Write_3(Ch20_Cf2, 0x00);
 1715              		.loc 1 1262 0
 1716 0490 0021     		movs	r1, #0
 1717 0492 6D20     		movs	r0, #109
 1718 0494 FFF7FEFF 		bl	PCA9959_Write_3
 1719              	.LVL285:
1263:PCA9959.c     ****     PCA9959_Write_3(Ch21_Cf2, 0x00);
 1720              		.loc 1 1263 0
 1721 0498 0021     		movs	r1, #0
 1722 049a 7120     		movs	r0, #113
 1723 049c FFF7FEFF 		bl	PCA9959_Write_3
 1724              	.LVL286:
1264:PCA9959.c     ****     PCA9959_Write_3(Ch22_Cf2, 0x00);
 1725              		.loc 1 1264 0
 1726 04a0 0021     		movs	r1, #0
 1727 04a2 7520     		movs	r0, #117
 1728 04a4 FFF7FEFF 		bl	PCA9959_Write_3
 1729              	.LVL287:
1265:PCA9959.c     ****     PCA9959_Write_3(Ch23_Cf2, 0x00);
ARM GAS  C:\Users\Revanth\AppData\Local\Temp\ccqs06ys.s 			page 60


 1730              		.loc 1 1265 0
 1731 04a8 0021     		movs	r1, #0
 1732 04aa 7920     		movs	r0, #121
 1733 04ac FFF7FEFF 		bl	PCA9959_Write_3
 1734              	.LVL288:
1266:PCA9959.c     ****     Pin_OE_PCA9959_3_Write(1);
 1735              		.loc 1 1266 0
 1736 04b0 0021     		movs	r1, #0
 1737 04b2 7D20     		movs	r0, #125
 1738 04b4 FFF7FEFF 		bl	PCA9959_Write_3
 1739              	.LVL289:
1267:PCA9959.c     ****     
 1740              		.loc 1 1267 0
 1741 04b8 0120     		movs	r0, #1
 1742 04ba FFF7FEFF 		bl	Pin_OE_PCA9959_3_Write
 1743              	.LVL290:
1269:PCA9959.c     ****     PageSel_4(ChSel);
 1744              		.loc 1 1269 0
 1745 04be 0120     		movs	r0, #1
 1746 04c0 FFF7FEFF 		bl	Pin_OE_PCA9959_4_Write
 1747              	.LVL291:
1270:PCA9959.c     ****     PCA9959_Write_4(Ch0_Cf1, 0x00);                    
 1748              		.loc 1 1270 0
 1749 04c4 0120     		movs	r0, #1
 1750 04c6 FFF7FEFF 		bl	PageSel_4
 1751              	.LVL292:
1271:PCA9959.c     ****     PCA9959_Write_4(Ch1_Cf1, 0x00);
 1752              		.loc 1 1271 0
 1753 04ca 0021     		movs	r1, #0
 1754 04cc 2020     		movs	r0, #32
 1755 04ce FFF7FEFF 		bl	PCA9959_Write_4
 1756              	.LVL293:
1272:PCA9959.c     ****     PCA9959_Write_4(Ch2_Cf1, 0x00); 
 1757              		.loc 1 1272 0
 1758 04d2 0021     		movs	r1, #0
 1759 04d4 2420     		movs	r0, #36
 1760 04d6 FFF7FEFF 		bl	PCA9959_Write_4
 1761              	.LVL294:
1273:PCA9959.c     ****     PCA9959_Write_4(Ch3_Cf1, 0x00); 
 1762              		.loc 1 1273 0
 1763 04da 0021     		movs	r1, #0
 1764 04dc 2820     		movs	r0, #40
 1765 04de FFF7FEFF 		bl	PCA9959_Write_4
 1766              	.LVL295:
1274:PCA9959.c     ****     PCA9959_Write_4(Ch4_Cf1, 0x00); 
 1767              		.loc 1 1274 0
 1768 04e2 0021     		movs	r1, #0
 1769 04e4 2C20     		movs	r0, #44
 1770 04e6 FFF7FEFF 		bl	PCA9959_Write_4
 1771              	.LVL296:
1275:PCA9959.c     ****     PCA9959_Write_4(Ch5_Cf1, 0x00); 
 1772              		.loc 1 1275 0
 1773 04ea 0021     		movs	r1, #0
 1774 04ec 3020     		movs	r0, #48
 1775 04ee FFF7FEFF 		bl	PCA9959_Write_4
 1776              	.LVL297:
1276:PCA9959.c     ****     PCA9959_Write_4(Ch6_Cf1, 0x00); 
ARM GAS  C:\Users\Revanth\AppData\Local\Temp\ccqs06ys.s 			page 61


 1777              		.loc 1 1276 0
 1778 04f2 0021     		movs	r1, #0
 1779 04f4 3420     		movs	r0, #52
 1780 04f6 FFF7FEFF 		bl	PCA9959_Write_4
 1781              	.LVL298:
1277:PCA9959.c     ****     PCA9959_Write_4(Ch7_Cf1, 0x00); 
 1782              		.loc 1 1277 0
 1783 04fa 0021     		movs	r1, #0
 1784 04fc 3820     		movs	r0, #56
 1785 04fe FFF7FEFF 		bl	PCA9959_Write_4
 1786              	.LVL299:
1278:PCA9959.c     ****     PCA9959_Write_4(Ch8_Cf1, 0x00); 
 1787              		.loc 1 1278 0
 1788 0502 0021     		movs	r1, #0
 1789 0504 3C20     		movs	r0, #60
 1790 0506 FFF7FEFF 		bl	PCA9959_Write_4
 1791              	.LVL300:
1279:PCA9959.c     ****     PCA9959_Write_4(Ch9_Cf1, 0x00); 
 1792              		.loc 1 1279 0
 1793 050a 0021     		movs	r1, #0
 1794 050c 4020     		movs	r0, #64
 1795 050e FFF7FEFF 		bl	PCA9959_Write_4
 1796              	.LVL301:
1280:PCA9959.c     ****     PCA9959_Write_4(Ch10_Cf1, 0x00); 
 1797              		.loc 1 1280 0
 1798 0512 0021     		movs	r1, #0
 1799 0514 4420     		movs	r0, #68
 1800 0516 FFF7FEFF 		bl	PCA9959_Write_4
 1801              	.LVL302:
1281:PCA9959.c     ****     PCA9959_Write_4(Ch11_Cf1, 0x00);
 1802              		.loc 1 1281 0
 1803 051a 0021     		movs	r1, #0
 1804 051c 4820     		movs	r0, #72
 1805 051e FFF7FEFF 		bl	PCA9959_Write_4
 1806              	.LVL303:
1282:PCA9959.c     ****     
 1807              		.loc 1 1282 0
 1808 0522 0021     		movs	r1, #0
 1809 0524 4C20     		movs	r0, #76
 1810 0526 FFF7FEFF 		bl	PCA9959_Write_4
 1811              	.LVL304:
1284:PCA9959.c     ****     PCA9959_Write_4(Ch13_Cf1, 0x00);
 1812              		.loc 1 1284 0
 1813 052a 0021     		movs	r1, #0
 1814 052c 5020     		movs	r0, #80
 1815 052e FFF7FEFF 		bl	PCA9959_Write_4
 1816              	.LVL305:
1285:PCA9959.c     ****     PCA9959_Write_4(Ch14_Cf1, 0x00);
 1817              		.loc 1 1285 0
 1818 0532 0021     		movs	r1, #0
 1819 0534 5420     		movs	r0, #84
 1820 0536 FFF7FEFF 		bl	PCA9959_Write_4
 1821              	.LVL306:
1286:PCA9959.c     ****     PCA9959_Write_4(Ch15_Cf1, 0x00);
 1822              		.loc 1 1286 0
 1823 053a 0021     		movs	r1, #0
 1824 053c 5820     		movs	r0, #88
ARM GAS  C:\Users\Revanth\AppData\Local\Temp\ccqs06ys.s 			page 62


 1825 053e FFF7FEFF 		bl	PCA9959_Write_4
 1826              	.LVL307:
1287:PCA9959.c     ****     PCA9959_Write_4(Ch16_Cf1, 0x00);
 1827              		.loc 1 1287 0
 1828 0542 0021     		movs	r1, #0
 1829 0544 5C20     		movs	r0, #92
 1830 0546 FFF7FEFF 		bl	PCA9959_Write_4
 1831              	.LVL308:
1288:PCA9959.c     ****     PCA9959_Write_4(Ch17_Cf1, 0x00);
 1832              		.loc 1 1288 0
 1833 054a 0021     		movs	r1, #0
 1834 054c 6020     		movs	r0, #96
 1835 054e FFF7FEFF 		bl	PCA9959_Write_4
 1836              	.LVL309:
1289:PCA9959.c     ****     PCA9959_Write_4(Ch18_Cf1, 0x00);
 1837              		.loc 1 1289 0
 1838 0552 0021     		movs	r1, #0
 1839 0554 6420     		movs	r0, #100
 1840 0556 FFF7FEFF 		bl	PCA9959_Write_4
 1841              	.LVL310:
1290:PCA9959.c     ****     PCA9959_Write_4(Ch19_Cf1, 0x00);
 1842              		.loc 1 1290 0
 1843 055a 0021     		movs	r1, #0
 1844 055c 6820     		movs	r0, #104
 1845 055e FFF7FEFF 		bl	PCA9959_Write_4
 1846              	.LVL311:
1291:PCA9959.c     ****     PCA9959_Write_4(Ch20_Cf1, 0x00);
 1847              		.loc 1 1291 0
 1848 0562 0021     		movs	r1, #0
 1849 0564 6C20     		movs	r0, #108
 1850 0566 FFF7FEFF 		bl	PCA9959_Write_4
 1851              	.LVL312:
1292:PCA9959.c     ****     PCA9959_Write_4(Ch21_Cf1, 0x00);
 1852              		.loc 1 1292 0
 1853 056a 0021     		movs	r1, #0
 1854 056c 7020     		movs	r0, #112
 1855 056e FFF7FEFF 		bl	PCA9959_Write_4
 1856              	.LVL313:
1293:PCA9959.c     ****     PCA9959_Write_4(Ch22_Cf1, 0x00);
 1857              		.loc 1 1293 0
 1858 0572 0021     		movs	r1, #0
 1859 0574 7420     		movs	r0, #116
 1860 0576 FFF7FEFF 		bl	PCA9959_Write_4
 1861              	.LVL314:
1294:PCA9959.c     ****     PCA9959_Write_4(Ch23_Cf1, 0x00);
 1862              		.loc 1 1294 0
 1863 057a 0021     		movs	r1, #0
 1864 057c 7820     		movs	r0, #120
 1865 057e FFF7FEFF 		bl	PCA9959_Write_4
 1866              	.LVL315:
1295:PCA9959.c     ****     
 1867              		.loc 1 1295 0
 1868 0582 0021     		movs	r1, #0
 1869 0584 7C20     		movs	r0, #124
 1870 0586 FFF7FEFF 		bl	PCA9959_Write_4
 1871              	.LVL316:
1299:PCA9959.c     ****     PCA9959_Write_4(Ch1_Cf2, 0x00);
ARM GAS  C:\Users\Revanth\AppData\Local\Temp\ccqs06ys.s 			page 63


 1872              		.loc 1 1299 0
 1873 058a 0021     		movs	r1, #0
 1874 058c 2120     		movs	r0, #33
 1875 058e FFF7FEFF 		bl	PCA9959_Write_4
 1876              	.LVL317:
1300:PCA9959.c     ****     PCA9959_Write_4(Ch2_Cf2, 0x00);
 1877              		.loc 1 1300 0
 1878 0592 0021     		movs	r1, #0
 1879 0594 2520     		movs	r0, #37
 1880 0596 FFF7FEFF 		bl	PCA9959_Write_4
 1881              	.LVL318:
1301:PCA9959.c     ****     PCA9959_Write_4(Ch3_Cf2, 0x00);
 1882              		.loc 1 1301 0
 1883 059a 0021     		movs	r1, #0
 1884 059c 2920     		movs	r0, #41
 1885 059e FFF7FEFF 		bl	PCA9959_Write_4
 1886              	.LVL319:
1302:PCA9959.c     ****     PCA9959_Write_4(Ch4_Cf2, 0x00);
 1887              		.loc 1 1302 0
 1888 05a2 0021     		movs	r1, #0
 1889 05a4 2D20     		movs	r0, #45
 1890 05a6 FFF7FEFF 		bl	PCA9959_Write_4
 1891              	.LVL320:
1303:PCA9959.c     ****     PCA9959_Write_4(Ch5_Cf2, 0x00);
 1892              		.loc 1 1303 0
 1893 05aa 0021     		movs	r1, #0
 1894 05ac 3120     		movs	r0, #49
 1895 05ae FFF7FEFF 		bl	PCA9959_Write_4
 1896              	.LVL321:
1304:PCA9959.c     ****     PCA9959_Write_4(Ch6_Cf2, 0x00);
 1897              		.loc 1 1304 0
 1898 05b2 0021     		movs	r1, #0
 1899 05b4 3520     		movs	r0, #53
 1900 05b6 FFF7FEFF 		bl	PCA9959_Write_4
 1901              	.LVL322:
1305:PCA9959.c     ****     PCA9959_Write_4(Ch7_Cf2, 0x00);
 1902              		.loc 1 1305 0
 1903 05ba 0021     		movs	r1, #0
 1904 05bc 3920     		movs	r0, #57
 1905 05be FFF7FEFF 		bl	PCA9959_Write_4
 1906              	.LVL323:
1306:PCA9959.c     ****     PCA9959_Write_4(Ch8_Cf2, 0x00);
 1907              		.loc 1 1306 0
 1908 05c2 0021     		movs	r1, #0
 1909 05c4 3D20     		movs	r0, #61
 1910 05c6 FFF7FEFF 		bl	PCA9959_Write_4
 1911              	.LVL324:
1307:PCA9959.c     ****     PCA9959_Write_4(Ch9_Cf2, 0x00);
 1912              		.loc 1 1307 0
 1913 05ca 0021     		movs	r1, #0
 1914 05cc 4120     		movs	r0, #65
 1915 05ce FFF7FEFF 		bl	PCA9959_Write_4
 1916              	.LVL325:
1308:PCA9959.c     ****     PCA9959_Write_4(Ch10_Cf2, 0x00);
 1917              		.loc 1 1308 0
 1918 05d2 0021     		movs	r1, #0
 1919 05d4 4520     		movs	r0, #69
ARM GAS  C:\Users\Revanth\AppData\Local\Temp\ccqs06ys.s 			page 64


 1920 05d6 FFF7FEFF 		bl	PCA9959_Write_4
 1921              	.LVL326:
1309:PCA9959.c     ****     PCA9959_Write_4(Ch11_Cf2, 0x00);
 1922              		.loc 1 1309 0
 1923 05da 0021     		movs	r1, #0
 1924 05dc 4920     		movs	r0, #73
 1925 05de FFF7FEFF 		bl	PCA9959_Write_4
 1926              	.LVL327:
1310:PCA9959.c     ****     
 1927              		.loc 1 1310 0
 1928 05e2 0021     		movs	r1, #0
 1929 05e4 4D20     		movs	r0, #77
 1930 05e6 FFF7FEFF 		bl	PCA9959_Write_4
 1931              	.LVL328:
1312:PCA9959.c     ****     PCA9959_Write_4(Ch13_Cf2, 0x00);
 1932              		.loc 1 1312 0
 1933 05ea 0021     		movs	r1, #0
 1934 05ec 5120     		movs	r0, #81
 1935 05ee FFF7FEFF 		bl	PCA9959_Write_4
 1936              	.LVL329:
1313:PCA9959.c     ****     PCA9959_Write_4(Ch14_Cf2, 0x00);
 1937              		.loc 1 1313 0
 1938 05f2 0021     		movs	r1, #0
 1939 05f4 5520     		movs	r0, #85
 1940 05f6 FFF7FEFF 		bl	PCA9959_Write_4
 1941              	.LVL330:
1314:PCA9959.c     ****     PCA9959_Write_4(Ch15_Cf2, 0x00);
 1942              		.loc 1 1314 0
 1943 05fa 0021     		movs	r1, #0
 1944 05fc 5920     		movs	r0, #89
 1945 05fe FFF7FEFF 		bl	PCA9959_Write_4
 1946              	.LVL331:
1315:PCA9959.c     ****     PCA9959_Write_4(Ch16_Cf2, 0x00);
 1947              		.loc 1 1315 0
 1948 0602 0021     		movs	r1, #0
 1949 0604 5D20     		movs	r0, #93
 1950 0606 FFF7FEFF 		bl	PCA9959_Write_4
 1951              	.LVL332:
1316:PCA9959.c     ****     PCA9959_Write_4(Ch17_Cf2, 0x00);
 1952              		.loc 1 1316 0
 1953 060a 0021     		movs	r1, #0
 1954 060c 6120     		movs	r0, #97
 1955 060e FFF7FEFF 		bl	PCA9959_Write_4
 1956              	.LVL333:
1317:PCA9959.c     ****     PCA9959_Write_4(Ch18_Cf2, 0x00);
 1957              		.loc 1 1317 0
 1958 0612 0021     		movs	r1, #0
 1959 0614 6520     		movs	r0, #101
 1960 0616 FFF7FEFF 		bl	PCA9959_Write_4
 1961              	.LVL334:
1318:PCA9959.c     ****     PCA9959_Write_4(Ch19_Cf2, 0x00);
 1962              		.loc 1 1318 0
 1963 061a 0021     		movs	r1, #0
 1964 061c 6920     		movs	r0, #105
 1965 061e FFF7FEFF 		bl	PCA9959_Write_4
 1966              	.LVL335:
1319:PCA9959.c     ****     PCA9959_Write_4(Ch20_Cf2, 0x00);
ARM GAS  C:\Users\Revanth\AppData\Local\Temp\ccqs06ys.s 			page 65


 1967              		.loc 1 1319 0
 1968 0622 0021     		movs	r1, #0
 1969 0624 6D20     		movs	r0, #109
 1970 0626 FFF7FEFF 		bl	PCA9959_Write_4
 1971              	.LVL336:
1320:PCA9959.c     ****     PCA9959_Write_4(Ch21_Cf2, 0x00);
 1972              		.loc 1 1320 0
 1973 062a 0021     		movs	r1, #0
 1974 062c 7120     		movs	r0, #113
 1975 062e FFF7FEFF 		bl	PCA9959_Write_4
 1976              	.LVL337:
1321:PCA9959.c     ****     PCA9959_Write_4(Ch22_Cf2, 0x00);
 1977              		.loc 1 1321 0
 1978 0632 0021     		movs	r1, #0
 1979 0634 7520     		movs	r0, #117
 1980 0636 FFF7FEFF 		bl	PCA9959_Write_4
 1981              	.LVL338:
1322:PCA9959.c     ****     PCA9959_Write_4(Ch23_Cf2, 0x00);
 1982              		.loc 1 1322 0
 1983 063a 0021     		movs	r1, #0
 1984 063c 7920     		movs	r0, #121
 1985 063e FFF7FEFF 		bl	PCA9959_Write_4
 1986              	.LVL339:
1323:PCA9959.c     ****     Pin_OE_PCA9959_4_Write(0);
 1987              		.loc 1 1323 0
 1988 0642 0021     		movs	r1, #0
 1989 0644 7D20     		movs	r0, #125
 1990 0646 FFF7FEFF 		bl	PCA9959_Write_4
 1991              	.LVL340:
1324:PCA9959.c     ****     
 1992              		.loc 1 1324 0
 1993 064a 0020     		movs	r0, #0
 1994 064c FFF7FEFF 		bl	Pin_OE_PCA9959_4_Write
 1995              	.LVL341:
 1996 0650 08BD     		pop	{r3, pc}
 1997              		.cfi_endproc
 1998              	.LFE81:
 1999              		.size	PCA9959_clear, .-PCA9959_clear
 2000 0652 00BF     		.section	.text.Reset_Driver,"ax",%progbits
 2001              		.align	2
 2002              		.global	Reset_Driver
 2003              		.thumb
 2004              		.thumb_func
 2005              		.type	Reset_Driver, %function
 2006              	Reset_Driver:
 2007              	.LFB83:
1340:PCA9959.c     **** 
1341:PCA9959.c     **** void Reset_Driver(void) 
1342:PCA9959.c     **** {
 2008              		.loc 1 1342 0
 2009              		.cfi_startproc
 2010              		@ args = 0, pretend = 0, frame = 0
 2011              		@ frame_needed = 0, uses_anonymous_args = 0
 2012 0000 08B5     		push	{r3, lr}
 2013              		.cfi_def_cfa_offset 8
 2014              		.cfi_offset 3, -8
 2015              		.cfi_offset 14, -4
ARM GAS  C:\Users\Revanth\AppData\Local\Temp\ccqs06ys.s 			page 66


1343:PCA9959.c     ****     Pin_RST_PCA9959_Write(0);
 2016              		.loc 1 1343 0
 2017 0002 0020     		movs	r0, #0
 2018 0004 FFF7FEFF 		bl	Pin_RST_PCA9959_Write
 2019              	.LVL342:
1344:PCA9959.c     ****     CyDelayUs(1);
 2020              		.loc 1 1344 0
 2021 0008 0120     		movs	r0, #1
 2022 000a FFF7FEFF 		bl	CyDelayUs
 2023              	.LVL343:
1345:PCA9959.c     ****     Pin_RST_PCA9959_Write(1);
 2024              		.loc 1 1345 0
 2025 000e 0120     		movs	r0, #1
 2026 0010 FFF7FEFF 		bl	Pin_RST_PCA9959_Write
 2027              	.LVL344:
1346:PCA9959.c     ****     CyDelayUs(1);
 2028              		.loc 1 1346 0
 2029 0014 0120     		movs	r0, #1
 2030 0016 FFF7FEFF 		bl	CyDelayUs
 2031              	.LVL345:
 2032 001a 08BD     		pop	{r3, pc}
 2033              		.cfi_endproc
 2034              	.LFE83:
 2035              		.size	Reset_Driver, .-Reset_Driver
 2036              		.section	.text.PCA9959_Init_all,"ax",%progbits
 2037              		.align	2
 2038              		.global	PCA9959_Init_all
 2039              		.thumb
 2040              		.thumb_func
 2041              		.type	PCA9959_Init_all, %function
 2042              	PCA9959_Init_all:
 2043              	.LFB71:
 139:PCA9959.c     ****    Reset_Driver();
 2044              		.loc 1 139 0
 2045              		.cfi_startproc
 2046              		@ args = 0, pretend = 0, frame = 0
 2047              		@ frame_needed = 0, uses_anonymous_args = 0
 2048 0000 08B5     		push	{r3, lr}
 2049              		.cfi_def_cfa_offset 8
 2050              		.cfi_offset 3, -8
 2051              		.cfi_offset 14, -4
 140:PCA9959.c     ****    PCA9959_Init_1();
 2052              		.loc 1 140 0
 2053 0002 FFF7FEFF 		bl	Reset_Driver
 2054              	.LVL346:
 141:PCA9959.c     ****    PCA9959_Init_2();
 2055              		.loc 1 141 0
 2056 0006 FFF7FEFF 		bl	PCA9959_Init_1
 2057              	.LVL347:
 142:PCA9959.c     ****    PCA9959_Init_3();
 2058              		.loc 1 142 0
 2059 000a FFF7FEFF 		bl	PCA9959_Init_2
 2060              	.LVL348:
 143:PCA9959.c     ****    PCA9959_Init_4();
 2061              		.loc 1 143 0
 2062 000e FFF7FEFF 		bl	PCA9959_Init_3
 2063              	.LVL349:
ARM GAS  C:\Users\Revanth\AppData\Local\Temp\ccqs06ys.s 			page 67


 144:PCA9959.c     **** }
 2064              		.loc 1 144 0
 2065 0012 FFF7FEFF 		bl	PCA9959_Init_4
 2066              	.LVL350:
 2067 0016 08BD     		pop	{r3, pc}
 2068              		.cfi_endproc
 2069              	.LFE71:
 2070              		.size	PCA9959_Init_all, .-PCA9959_Init_all
 2071              		.section	.text.PCA9959_ChnEn,"ax",%progbits
 2072              		.align	2
 2073              		.global	PCA9959_ChnEn
 2074              		.thumb
 2075              		.thumb_func
 2076              		.type	PCA9959_ChnEn, %function
 2077              	PCA9959_ChnEn:
 2078              	.LFB80:
 291:PCA9959.c     **** 
 2079              		.loc 1 291 0
 2080              		.cfi_startproc
 2081              		@ args = 0, pretend = 0, frame = 0
 2082              		@ frame_needed = 0, uses_anonymous_args = 0
 2083              	.LVL351:
 2084 0000 38B5     		push	{r3, r4, r5, lr}
 2085              		.cfi_def_cfa_offset 16
 2086              		.cfi_offset 3, -16
 2087              		.cfi_offset 4, -12
 2088              		.cfi_offset 5, -8
 2089              		.cfi_offset 14, -4
 2090 0002 0546     		mov	r5, r0
 2091 0004 0C46     		mov	r4, r1
 293:PCA9959.c     ****     CyDelayUs(1);
 2092              		.loc 1 293 0
 2093 0006 FFF7FEFF 		bl	PCA9959_Init_all
 2094              	.LVL352:
 294:PCA9959.c     ****     if(Brg <= 255)
 2095              		.loc 1 294 0
 2096 000a 0120     		movs	r0, #1
 2097 000c FFF7FEFF 		bl	CyDelayUs
 2098              	.LVL353:
 299:PCA9959.c     ****         {
 2099              		.loc 1 299 0
 2100 0010 012C     		cmp	r4, #1
 2101 0012 40F0CA80 		bne	.L76
 301:PCA9959.c     ****             PageSel_1(ChSel);
 2102              		.loc 1 301 0
 2103 0016 0120     		movs	r0, #1
 2104 0018 FFF7FEFF 		bl	Pin_OE_PCA9959_1_Write
 2105              	.LVL354:
 302:PCA9959.c     ****             PCA9959_Write_1(Ch0_Cf1, 0x00);                       //LED Channel 0 is assigned to Gr
 2106              		.loc 1 302 0
 2107 001c 0120     		movs	r0, #1
 2108 001e FFF7FEFF 		bl	PageSel_1
 2109              	.LVL355:
 303:PCA9959.c     ****             PCA9959_Write_1(Ch1_Cf1, 0x00);
 2110              		.loc 1 303 0
 2111 0022 0021     		movs	r1, #0
 2112 0024 2020     		movs	r0, #32
ARM GAS  C:\Users\Revanth\AppData\Local\Temp\ccqs06ys.s 			page 68


 2113 0026 FFF7FEFF 		bl	PCA9959_Write_1
 2114              	.LVL356:
 304:PCA9959.c     ****             PCA9959_Write_1(Ch2_Cf1, 0x00); 
 2115              		.loc 1 304 0
 2116 002a 0021     		movs	r1, #0
 2117 002c 2420     		movs	r0, #36
 2118 002e FFF7FEFF 		bl	PCA9959_Write_1
 2119              	.LVL357:
 305:PCA9959.c     ****             PCA9959_Write_1(Ch3_Cf1, 0x00); 
 2120              		.loc 1 305 0
 2121 0032 0021     		movs	r1, #0
 2122 0034 2820     		movs	r0, #40
 2123 0036 FFF7FEFF 		bl	PCA9959_Write_1
 2124              	.LVL358:
 306:PCA9959.c     ****             PCA9959_Write_1(Ch4_Cf1, 0x00); 
 2125              		.loc 1 306 0
 2126 003a 0021     		movs	r1, #0
 2127 003c 2C20     		movs	r0, #44
 2128 003e FFF7FEFF 		bl	PCA9959_Write_1
 2129              	.LVL359:
 307:PCA9959.c     ****             PCA9959_Write_1(Ch5_Cf1, 0x00); 
 2130              		.loc 1 307 0
 2131 0042 0021     		movs	r1, #0
 2132 0044 3020     		movs	r0, #48
 2133 0046 FFF7FEFF 		bl	PCA9959_Write_1
 2134              	.LVL360:
 308:PCA9959.c     ****             PCA9959_Write_1(Ch6_Cf1, 0x00); 
 2135              		.loc 1 308 0
 2136 004a 0021     		movs	r1, #0
 2137 004c 3420     		movs	r0, #52
 2138 004e FFF7FEFF 		bl	PCA9959_Write_1
 2139              	.LVL361:
 309:PCA9959.c     ****             PCA9959_Write_1(Ch7_Cf1, 0x00); 
 2140              		.loc 1 309 0
 2141 0052 0021     		movs	r1, #0
 2142 0054 3820     		movs	r0, #56
 2143 0056 FFF7FEFF 		bl	PCA9959_Write_1
 2144              	.LVL362:
 310:PCA9959.c     ****             PCA9959_Write_1(Ch8_Cf1, 0x00); 
 2145              		.loc 1 310 0
 2146 005a 0021     		movs	r1, #0
 2147 005c 3C20     		movs	r0, #60
 2148 005e FFF7FEFF 		bl	PCA9959_Write_1
 2149              	.LVL363:
 311:PCA9959.c     ****             PCA9959_Write_1(Ch9_Cf1, 0x00); 
 2150              		.loc 1 311 0
 2151 0062 0021     		movs	r1, #0
 2152 0064 4020     		movs	r0, #64
 2153 0066 FFF7FEFF 		bl	PCA9959_Write_1
 2154              	.LVL364:
 312:PCA9959.c     ****             PCA9959_Write_1(Ch10_Cf1, 0x01);  //
 2155              		.loc 1 312 0
 2156 006a 0021     		movs	r1, #0
 2157 006c 4420     		movs	r0, #68
 2158 006e FFF7FEFF 		bl	PCA9959_Write_1
 2159              	.LVL365:
 313:PCA9959.c     ****             PCA9959_Write_1(Ch11_Cf1, 0x00);
ARM GAS  C:\Users\Revanth\AppData\Local\Temp\ccqs06ys.s 			page 69


 2160              		.loc 1 313 0
 2161 0072 0121     		movs	r1, #1
 2162 0074 4820     		movs	r0, #72
 2163 0076 FFF7FEFF 		bl	PCA9959_Write_1
 2164              	.LVL366:
 314:PCA9959.c     ****             
 2165              		.loc 1 314 0
 2166 007a 0021     		movs	r1, #0
 2167 007c 4C20     		movs	r0, #76
 2168 007e FFF7FEFF 		bl	PCA9959_Write_1
 2169              	.LVL367:
 316:PCA9959.c     ****             PCA9959_Write_1(Ch13_Cf1, 0x00);
 2170              		.loc 1 316 0
 2171 0082 0021     		movs	r1, #0
 2172 0084 5020     		movs	r0, #80
 2173 0086 FFF7FEFF 		bl	PCA9959_Write_1
 2174              	.LVL368:
 317:PCA9959.c     ****             PCA9959_Write_1(Ch14_Cf1, 0x00);
 2175              		.loc 1 317 0
 2176 008a 0021     		movs	r1, #0
 2177 008c 5420     		movs	r0, #84
 2178 008e FFF7FEFF 		bl	PCA9959_Write_1
 2179              	.LVL369:
 318:PCA9959.c     ****             PCA9959_Write_1(Ch15_Cf1, 0x00);
 2180              		.loc 1 318 0
 2181 0092 0021     		movs	r1, #0
 2182 0094 5820     		movs	r0, #88
 2183 0096 FFF7FEFF 		bl	PCA9959_Write_1
 2184              	.LVL370:
 319:PCA9959.c     ****             PCA9959_Write_1(Ch16_Cf1, 0x00);
 2185              		.loc 1 319 0
 2186 009a 0021     		movs	r1, #0
 2187 009c 5C20     		movs	r0, #92
 2188 009e FFF7FEFF 		bl	PCA9959_Write_1
 2189              	.LVL371:
 320:PCA9959.c     ****             PCA9959_Write_1(Ch17_Cf1, 0x00);
 2190              		.loc 1 320 0
 2191 00a2 0021     		movs	r1, #0
 2192 00a4 6020     		movs	r0, #96
 2193 00a6 FFF7FEFF 		bl	PCA9959_Write_1
 2194              	.LVL372:
 321:PCA9959.c     ****             PCA9959_Write_1(Ch18_Cf1, 0x00);
 2195              		.loc 1 321 0
 2196 00aa 0021     		movs	r1, #0
 2197 00ac 6420     		movs	r0, #100
 2198 00ae FFF7FEFF 		bl	PCA9959_Write_1
 2199              	.LVL373:
 322:PCA9959.c     ****             PCA9959_Write_1(Ch19_Cf1, 0x00);
 2200              		.loc 1 322 0
 2201 00b2 0021     		movs	r1, #0
 2202 00b4 6820     		movs	r0, #104
 2203 00b6 FFF7FEFF 		bl	PCA9959_Write_1
 2204              	.LVL374:
 323:PCA9959.c     ****             PCA9959_Write_1(Ch20_Cf1, 0x00);
 2205              		.loc 1 323 0
 2206 00ba 0021     		movs	r1, #0
 2207 00bc 6C20     		movs	r0, #108
ARM GAS  C:\Users\Revanth\AppData\Local\Temp\ccqs06ys.s 			page 70


 2208 00be FFF7FEFF 		bl	PCA9959_Write_1
 2209              	.LVL375:
 324:PCA9959.c     ****             PCA9959_Write_1(Ch21_Cf1, 0x00);
 2210              		.loc 1 324 0
 2211 00c2 0021     		movs	r1, #0
 2212 00c4 7020     		movs	r0, #112
 2213 00c6 FFF7FEFF 		bl	PCA9959_Write_1
 2214              	.LVL376:
 325:PCA9959.c     ****             PCA9959_Write_1(Ch22_Cf1, 0x00);
 2215              		.loc 1 325 0
 2216 00ca 0021     		movs	r1, #0
 2217 00cc 7420     		movs	r0, #116
 2218 00ce FFF7FEFF 		bl	PCA9959_Write_1
 2219              	.LVL377:
 326:PCA9959.c     ****             PCA9959_Write_1(Ch23_Cf1, 0x00);
 2220              		.loc 1 326 0
 2221 00d2 0021     		movs	r1, #0
 2222 00d4 7820     		movs	r0, #120
 2223 00d6 FFF7FEFF 		bl	PCA9959_Write_1
 2224              	.LVL378:
 327:PCA9959.c     ****             
 2225              		.loc 1 327 0
 2226 00da 0021     		movs	r1, #0
 2227 00dc 7C20     		movs	r0, #124
 2228 00de FFF7FEFF 		bl	PCA9959_Write_1
 2229              	.LVL379:
 331:PCA9959.c     ****             PCA9959_Write_1(Ch1_Cf2, 0x00);
 2230              		.loc 1 331 0
 2231 00e2 0021     		movs	r1, #0
 2232 00e4 2120     		movs	r0, #33
 2233 00e6 FFF7FEFF 		bl	PCA9959_Write_1
 2234              	.LVL380:
 332:PCA9959.c     ****             PCA9959_Write_1(Ch2_Cf2, 0x00);
 2235              		.loc 1 332 0
 2236 00ea 0021     		movs	r1, #0
 2237 00ec 2520     		movs	r0, #37
 2238 00ee FFF7FEFF 		bl	PCA9959_Write_1
 2239              	.LVL381:
 333:PCA9959.c     ****             PCA9959_Write_1(Ch3_Cf2, 0x00);
 2240              		.loc 1 333 0
 2241 00f2 0021     		movs	r1, #0
 2242 00f4 2920     		movs	r0, #41
 2243 00f6 FFF7FEFF 		bl	PCA9959_Write_1
 2244              	.LVL382:
 334:PCA9959.c     ****             PCA9959_Write_1(Ch4_Cf2, 0x00);
 2245              		.loc 1 334 0
 2246 00fa 0021     		movs	r1, #0
 2247 00fc 2D20     		movs	r0, #45
 2248 00fe FFF7FEFF 		bl	PCA9959_Write_1
 2249              	.LVL383:
 335:PCA9959.c     ****             PCA9959_Write_1(Ch5_Cf2, 0x00);
 2250              		.loc 1 335 0
 2251 0102 0021     		movs	r1, #0
 2252 0104 3120     		movs	r0, #49
 2253 0106 FFF7FEFF 		bl	PCA9959_Write_1
 2254              	.LVL384:
 336:PCA9959.c     ****             PCA9959_Write_1(Ch6_Cf2, 0x00);
ARM GAS  C:\Users\Revanth\AppData\Local\Temp\ccqs06ys.s 			page 71


 2255              		.loc 1 336 0
 2256 010a 0021     		movs	r1, #0
 2257 010c 3520     		movs	r0, #53
 2258 010e FFF7FEFF 		bl	PCA9959_Write_1
 2259              	.LVL385:
 337:PCA9959.c     ****             PCA9959_Write_1(Ch7_Cf2, 0x00);
 2260              		.loc 1 337 0
 2261 0112 0021     		movs	r1, #0
 2262 0114 3920     		movs	r0, #57
 2263 0116 FFF7FEFF 		bl	PCA9959_Write_1
 2264              	.LVL386:
 338:PCA9959.c     ****             PCA9959_Write_1(Ch8_Cf2, 0x00);
 2265              		.loc 1 338 0
 2266 011a 0021     		movs	r1, #0
 2267 011c 3D20     		movs	r0, #61
 2268 011e FFF7FEFF 		bl	PCA9959_Write_1
 2269              	.LVL387:
 339:PCA9959.c     ****             PCA9959_Write_1(Ch9_Cf2, 0x00);
 2270              		.loc 1 339 0
 2271 0122 0021     		movs	r1, #0
 2272 0124 4120     		movs	r0, #65
 2273 0126 FFF7FEFF 		bl	PCA9959_Write_1
 2274              	.LVL388:
 340:PCA9959.c     ****             PCA9959_Write_1(Ch10_Cf2, Brg);
 2275              		.loc 1 340 0
 2276 012a 0021     		movs	r1, #0
 2277 012c 4520     		movs	r0, #69
 2278 012e FFF7FEFF 		bl	PCA9959_Write_1
 2279              	.LVL389:
 341:PCA9959.c     ****             PCA9959_Write_1(Ch11_Cf2, 0x00);
 2280              		.loc 1 341 0
 2281 0132 2946     		mov	r1, r5
 2282 0134 4920     		movs	r0, #73
 2283 0136 FFF7FEFF 		bl	PCA9959_Write_1
 2284              	.LVL390:
 342:PCA9959.c     ****             
 2285              		.loc 1 342 0
 2286 013a 0021     		movs	r1, #0
 2287 013c 4D20     		movs	r0, #77
 2288 013e FFF7FEFF 		bl	PCA9959_Write_1
 2289              	.LVL391:
 344:PCA9959.c     ****             PCA9959_Write_1(Ch13_Cf2, 0x00);
 2290              		.loc 1 344 0
 2291 0142 0021     		movs	r1, #0
 2292 0144 5120     		movs	r0, #81
 2293 0146 FFF7FEFF 		bl	PCA9959_Write_1
 2294              	.LVL392:
 345:PCA9959.c     ****             PCA9959_Write_1(Ch14_Cf2, 0x00);
 2295              		.loc 1 345 0
 2296 014a 0021     		movs	r1, #0
 2297 014c 5520     		movs	r0, #85
 2298 014e FFF7FEFF 		bl	PCA9959_Write_1
 2299              	.LVL393:
 346:PCA9959.c     ****             PCA9959_Write_1(Ch15_Cf2, 0x00);
 2300              		.loc 1 346 0
 2301 0152 0021     		movs	r1, #0
 2302 0154 5920     		movs	r0, #89
ARM GAS  C:\Users\Revanth\AppData\Local\Temp\ccqs06ys.s 			page 72


 2303 0156 FFF7FEFF 		bl	PCA9959_Write_1
 2304              	.LVL394:
 347:PCA9959.c     ****             PCA9959_Write_1(Ch16_Cf2, 0x00);
 2305              		.loc 1 347 0
 2306 015a 0021     		movs	r1, #0
 2307 015c 5D20     		movs	r0, #93
 2308 015e FFF7FEFF 		bl	PCA9959_Write_1
 2309              	.LVL395:
 348:PCA9959.c     ****             PCA9959_Write_1(Ch17_Cf2, 0x00);
 2310              		.loc 1 348 0
 2311 0162 0021     		movs	r1, #0
 2312 0164 6120     		movs	r0, #97
 2313 0166 FFF7FEFF 		bl	PCA9959_Write_1
 2314              	.LVL396:
 349:PCA9959.c     ****             PCA9959_Write_1(Ch18_Cf2, 0x00);
 2315              		.loc 1 349 0
 2316 016a 0021     		movs	r1, #0
 2317 016c 6520     		movs	r0, #101
 2318 016e FFF7FEFF 		bl	PCA9959_Write_1
 2319              	.LVL397:
 350:PCA9959.c     ****             PCA9959_Write_1(Ch19_Cf2, 0x00);
 2320              		.loc 1 350 0
 2321 0172 0021     		movs	r1, #0
 2322 0174 6920     		movs	r0, #105
 2323 0176 FFF7FEFF 		bl	PCA9959_Write_1
 2324              	.LVL398:
 351:PCA9959.c     ****             PCA9959_Write_1(Ch20_Cf2, 0x00);
 2325              		.loc 1 351 0
 2326 017a 0021     		movs	r1, #0
 2327 017c 6D20     		movs	r0, #109
 2328 017e FFF7FEFF 		bl	PCA9959_Write_1
 2329              	.LVL399:
 352:PCA9959.c     ****             PCA9959_Write_1(Ch21_Cf2, 0x00);
 2330              		.loc 1 352 0
 2331 0182 0021     		movs	r1, #0
 2332 0184 7120     		movs	r0, #113
 2333 0186 FFF7FEFF 		bl	PCA9959_Write_1
 2334              	.LVL400:
 353:PCA9959.c     ****             PCA9959_Write_1(Ch22_Cf2, 0x00);
 2335              		.loc 1 353 0
 2336 018a 0021     		movs	r1, #0
 2337 018c 7520     		movs	r0, #117
 2338 018e FFF7FEFF 		bl	PCA9959_Write_1
 2339              	.LVL401:
 354:PCA9959.c     ****             PCA9959_Write_1(Ch23_Cf2, 0x00);
 2340              		.loc 1 354 0
 2341 0192 0021     		movs	r1, #0
 2342 0194 7920     		movs	r0, #121
 2343 0196 FFF7FEFF 		bl	PCA9959_Write_1
 2344              	.LVL402:
 355:PCA9959.c     ****             Pin_OE_PCA9959_1_Write(0);
 2345              		.loc 1 355 0
 2346 019a 0021     		movs	r1, #0
 2347 019c 7D20     		movs	r0, #125
 2348 019e FFF7FEFF 		bl	PCA9959_Write_1
 2349              	.LVL403:
 356:PCA9959.c     ****         }
ARM GAS  C:\Users\Revanth\AppData\Local\Temp\ccqs06ys.s 			page 73


 2350              		.loc 1 356 0
 2351 01a2 0020     		movs	r0, #0
 2352 01a4 FFF7FEFF 		bl	Pin_OE_PCA9959_1_Write
 2353              	.LVL404:
 2354 01a8 38BD     		pop	{r3, r4, r5, pc}
 2355              	.L76:
 359:PCA9959.c     ****         {
 2356              		.loc 1 359 0
 2357 01aa 022C     		cmp	r4, #2
 2358 01ac 40F0CA80 		bne	.L78
 361:PCA9959.c     ****             PageSel_1(ChSel);
 2359              		.loc 1 361 0
 2360 01b0 0120     		movs	r0, #1
 2361 01b2 FFF7FEFF 		bl	Pin_OE_PCA9959_1_Write
 2362              	.LVL405:
 362:PCA9959.c     ****             PCA9959_Write_1(Ch0_Cf1, 0x00);                       //LED Channel 0 is assigned to Gr
 2363              		.loc 1 362 0
 2364 01b6 0120     		movs	r0, #1
 2365 01b8 FFF7FEFF 		bl	PageSel_1
 2366              	.LVL406:
 363:PCA9959.c     ****             PCA9959_Write_1(Ch1_Cf1, 0x00);
 2367              		.loc 1 363 0
 2368 01bc 0021     		movs	r1, #0
 2369 01be 2020     		movs	r0, #32
 2370 01c0 FFF7FEFF 		bl	PCA9959_Write_1
 2371              	.LVL407:
 364:PCA9959.c     ****             PCA9959_Write_1(Ch2_Cf1, 0x00); 
 2372              		.loc 1 364 0
 2373 01c4 0021     		movs	r1, #0
 2374 01c6 2420     		movs	r0, #36
 2375 01c8 FFF7FEFF 		bl	PCA9959_Write_1
 2376              	.LVL408:
 365:PCA9959.c     ****             PCA9959_Write_1(Ch3_Cf1, 0x00); 
 2377              		.loc 1 365 0
 2378 01cc 0021     		movs	r1, #0
 2379 01ce 2820     		movs	r0, #40
 2380 01d0 FFF7FEFF 		bl	PCA9959_Write_1
 2381              	.LVL409:
 366:PCA9959.c     ****             PCA9959_Write_1(Ch4_Cf1, 0x00); 
 2382              		.loc 1 366 0
 2383 01d4 0021     		movs	r1, #0
 2384 01d6 2C20     		movs	r0, #44
 2385 01d8 FFF7FEFF 		bl	PCA9959_Write_1
 2386              	.LVL410:
 367:PCA9959.c     ****             PCA9959_Write_1(Ch5_Cf1, 0x00); 
 2387              		.loc 1 367 0
 2388 01dc 0021     		movs	r1, #0
 2389 01de 3020     		movs	r0, #48
 2390 01e0 FFF7FEFF 		bl	PCA9959_Write_1
 2391              	.LVL411:
 368:PCA9959.c     ****             PCA9959_Write_1(Ch6_Cf1, 0x01);  //
 2392              		.loc 1 368 0
 2393 01e4 0021     		movs	r1, #0
 2394 01e6 3420     		movs	r0, #52
 2395 01e8 FFF7FEFF 		bl	PCA9959_Write_1
 2396              	.LVL412:
 369:PCA9959.c     ****             PCA9959_Write_1(Ch7_Cf1, 0x00); 
ARM GAS  C:\Users\Revanth\AppData\Local\Temp\ccqs06ys.s 			page 74


 2397              		.loc 1 369 0
 2398 01ec 0121     		movs	r1, #1
 2399 01ee 3820     		movs	r0, #56
 2400 01f0 FFF7FEFF 		bl	PCA9959_Write_1
 2401              	.LVL413:
 370:PCA9959.c     ****             PCA9959_Write_1(Ch8_Cf1, 0x00); 
 2402              		.loc 1 370 0
 2403 01f4 0021     		movs	r1, #0
 2404 01f6 3C20     		movs	r0, #60
 2405 01f8 FFF7FEFF 		bl	PCA9959_Write_1
 2406              	.LVL414:
 371:PCA9959.c     ****             PCA9959_Write_1(Ch9_Cf1, 0x01);  //
 2407              		.loc 1 371 0
 2408 01fc 0021     		movs	r1, #0
 2409 01fe 4020     		movs	r0, #64
 2410 0200 FFF7FEFF 		bl	PCA9959_Write_1
 2411              	.LVL415:
 372:PCA9959.c     ****             PCA9959_Write_1(Ch10_Cf1, 0x00); 
 2412              		.loc 1 372 0
 2413 0204 0121     		movs	r1, #1
 2414 0206 4420     		movs	r0, #68
 2415 0208 FFF7FEFF 		bl	PCA9959_Write_1
 2416              	.LVL416:
 373:PCA9959.c     ****             PCA9959_Write_1(Ch11_Cf1, 0x00);
 2417              		.loc 1 373 0
 2418 020c 0021     		movs	r1, #0
 2419 020e 4820     		movs	r0, #72
 2420 0210 FFF7FEFF 		bl	PCA9959_Write_1
 2421              	.LVL417:
 374:PCA9959.c     ****             
 2422              		.loc 1 374 0
 2423 0214 0021     		movs	r1, #0
 2424 0216 4C20     		movs	r0, #76
 2425 0218 FFF7FEFF 		bl	PCA9959_Write_1
 2426              	.LVL418:
 376:PCA9959.c     ****             PCA9959_Write_1(Ch13_Cf1, 0x01); //
 2427              		.loc 1 376 0
 2428 021c 0021     		movs	r1, #0
 2429 021e 5020     		movs	r0, #80
 2430 0220 FFF7FEFF 		bl	PCA9959_Write_1
 2431              	.LVL419:
 377:PCA9959.c     ****             PCA9959_Write_1(Ch14_Cf1, 0x00);
 2432              		.loc 1 377 0
 2433 0224 0121     		movs	r1, #1
 2434 0226 5420     		movs	r0, #84
 2435 0228 FFF7FEFF 		bl	PCA9959_Write_1
 2436              	.LVL420:
 378:PCA9959.c     ****             PCA9959_Write_1(Ch15_Cf1, 0x00);
 2437              		.loc 1 378 0
 2438 022c 0021     		movs	r1, #0
 2439 022e 5820     		movs	r0, #88
 2440 0230 FFF7FEFF 		bl	PCA9959_Write_1
 2441              	.LVL421:
 379:PCA9959.c     ****             PCA9959_Write_1(Ch16_Cf1, 0x00);
 2442              		.loc 1 379 0
 2443 0234 0021     		movs	r1, #0
 2444 0236 5C20     		movs	r0, #92
ARM GAS  C:\Users\Revanth\AppData\Local\Temp\ccqs06ys.s 			page 75


 2445 0238 FFF7FEFF 		bl	PCA9959_Write_1
 2446              	.LVL422:
 380:PCA9959.c     ****             PCA9959_Write_1(Ch17_Cf1, 0x00);
 2447              		.loc 1 380 0
 2448 023c 0021     		movs	r1, #0
 2449 023e 6020     		movs	r0, #96
 2450 0240 FFF7FEFF 		bl	PCA9959_Write_1
 2451              	.LVL423:
 381:PCA9959.c     ****             PCA9959_Write_1(Ch18_Cf1, 0x00);
 2452              		.loc 1 381 0
 2453 0244 0021     		movs	r1, #0
 2454 0246 6420     		movs	r0, #100
 2455 0248 FFF7FEFF 		bl	PCA9959_Write_1
 2456              	.LVL424:
 382:PCA9959.c     ****             PCA9959_Write_1(Ch19_Cf1, 0x00);
 2457              		.loc 1 382 0
 2458 024c 0021     		movs	r1, #0
 2459 024e 6820     		movs	r0, #104
 2460 0250 FFF7FEFF 		bl	PCA9959_Write_1
 2461              	.LVL425:
 383:PCA9959.c     ****             PCA9959_Write_1(Ch20_Cf1, 0x00);
 2462              		.loc 1 383 0
 2463 0254 0021     		movs	r1, #0
 2464 0256 6C20     		movs	r0, #108
 2465 0258 FFF7FEFF 		bl	PCA9959_Write_1
 2466              	.LVL426:
 384:PCA9959.c     ****             PCA9959_Write_1(Ch21_Cf1, 0x00);
 2467              		.loc 1 384 0
 2468 025c 0021     		movs	r1, #0
 2469 025e 7020     		movs	r0, #112
 2470 0260 FFF7FEFF 		bl	PCA9959_Write_1
 2471              	.LVL427:
 385:PCA9959.c     ****             PCA9959_Write_1(Ch22_Cf1, 0x00);
 2472              		.loc 1 385 0
 2473 0264 0021     		movs	r1, #0
 2474 0266 7420     		movs	r0, #116
 2475 0268 FFF7FEFF 		bl	PCA9959_Write_1
 2476              	.LVL428:
 386:PCA9959.c     ****             PCA9959_Write_1(Ch23_Cf1, 0x00);
 2477              		.loc 1 386 0
 2478 026c 0021     		movs	r1, #0
 2479 026e 7820     		movs	r0, #120
 2480 0270 FFF7FEFF 		bl	PCA9959_Write_1
 2481              	.LVL429:
 387:PCA9959.c     ****             
 2482              		.loc 1 387 0
 2483 0274 0021     		movs	r1, #0
 2484 0276 7C20     		movs	r0, #124
 2485 0278 FFF7FEFF 		bl	PCA9959_Write_1
 2486              	.LVL430:
 391:PCA9959.c     ****             PCA9959_Write_1(Ch1_Cf2, 0x00);
 2487              		.loc 1 391 0
 2488 027c 0021     		movs	r1, #0
 2489 027e 2120     		movs	r0, #33
 2490 0280 FFF7FEFF 		bl	PCA9959_Write_1
 2491              	.LVL431:
 392:PCA9959.c     ****             PCA9959_Write_1(Ch2_Cf2, 0x00);
ARM GAS  C:\Users\Revanth\AppData\Local\Temp\ccqs06ys.s 			page 76


 2492              		.loc 1 392 0
 2493 0284 0021     		movs	r1, #0
 2494 0286 2520     		movs	r0, #37
 2495 0288 FFF7FEFF 		bl	PCA9959_Write_1
 2496              	.LVL432:
 393:PCA9959.c     ****             PCA9959_Write_1(Ch3_Cf2, 0x00);
 2497              		.loc 1 393 0
 2498 028c 0021     		movs	r1, #0
 2499 028e 2920     		movs	r0, #41
 2500 0290 FFF7FEFF 		bl	PCA9959_Write_1
 2501              	.LVL433:
 394:PCA9959.c     ****             PCA9959_Write_1(Ch4_Cf2, 0x00);
 2502              		.loc 1 394 0
 2503 0294 0021     		movs	r1, #0
 2504 0296 2D20     		movs	r0, #45
 2505 0298 FFF7FEFF 		bl	PCA9959_Write_1
 2506              	.LVL434:
 395:PCA9959.c     ****             PCA9959_Write_1(Ch5_Cf2, 0x00);
 2507              		.loc 1 395 0
 2508 029c 0021     		movs	r1, #0
 2509 029e 3120     		movs	r0, #49
 2510 02a0 FFF7FEFF 		bl	PCA9959_Write_1
 2511              	.LVL435:
 396:PCA9959.c     ****             PCA9959_Write_1(Ch6_Cf2, Brg); //
 2512              		.loc 1 396 0
 2513 02a4 0021     		movs	r1, #0
 2514 02a6 3520     		movs	r0, #53
 2515 02a8 FFF7FEFF 		bl	PCA9959_Write_1
 2516              	.LVL436:
 397:PCA9959.c     ****             PCA9959_Write_1(Ch7_Cf2, 0x00);
 2517              		.loc 1 397 0
 2518 02ac 2946     		mov	r1, r5
 2519 02ae 3920     		movs	r0, #57
 2520 02b0 FFF7FEFF 		bl	PCA9959_Write_1
 2521              	.LVL437:
 398:PCA9959.c     ****             PCA9959_Write_1(Ch8_Cf2, 0x00);
 2522              		.loc 1 398 0
 2523 02b4 0021     		movs	r1, #0
 2524 02b6 3D20     		movs	r0, #61
 2525 02b8 FFF7FEFF 		bl	PCA9959_Write_1
 2526              	.LVL438:
 399:PCA9959.c     ****             PCA9959_Write_1(Ch9_Cf2, Brg);   //
 2527              		.loc 1 399 0
 2528 02bc 0021     		movs	r1, #0
 2529 02be 4120     		movs	r0, #65
 2530 02c0 FFF7FEFF 		bl	PCA9959_Write_1
 2531              	.LVL439:
 400:PCA9959.c     ****             PCA9959_Write_1(Ch10_Cf2, 0x00);
 2532              		.loc 1 400 0
 2533 02c4 2946     		mov	r1, r5
 2534 02c6 4520     		movs	r0, #69
 2535 02c8 FFF7FEFF 		bl	PCA9959_Write_1
 2536              	.LVL440:
 401:PCA9959.c     ****             PCA9959_Write_1(Ch11_Cf2, 0x00);
 2537              		.loc 1 401 0
 2538 02cc 0021     		movs	r1, #0
 2539 02ce 4920     		movs	r0, #73
ARM GAS  C:\Users\Revanth\AppData\Local\Temp\ccqs06ys.s 			page 77


 2540 02d0 FFF7FEFF 		bl	PCA9959_Write_1
 2541              	.LVL441:
 402:PCA9959.c     ****             
 2542              		.loc 1 402 0
 2543 02d4 0021     		movs	r1, #0
 2544 02d6 4D20     		movs	r0, #77
 2545 02d8 FFF7FEFF 		bl	PCA9959_Write_1
 2546              	.LVL442:
 404:PCA9959.c     ****             PCA9959_Write_1(Ch13_Cf2, Brg); //
 2547              		.loc 1 404 0
 2548 02dc 0021     		movs	r1, #0
 2549 02de 5120     		movs	r0, #81
 2550 02e0 FFF7FEFF 		bl	PCA9959_Write_1
 2551              	.LVL443:
 405:PCA9959.c     ****             PCA9959_Write_1(Ch14_Cf2, 0x00);
 2552              		.loc 1 405 0
 2553 02e4 2946     		mov	r1, r5
 2554 02e6 5520     		movs	r0, #85
 2555 02e8 FFF7FEFF 		bl	PCA9959_Write_1
 2556              	.LVL444:
 406:PCA9959.c     ****             PCA9959_Write_1(Ch15_Cf2, 0x00);
 2557              		.loc 1 406 0
 2558 02ec 0021     		movs	r1, #0
 2559 02ee 5920     		movs	r0, #89
 2560 02f0 FFF7FEFF 		bl	PCA9959_Write_1
 2561              	.LVL445:
 407:PCA9959.c     ****             PCA9959_Write_1(Ch16_Cf2, 0x00);
 2562              		.loc 1 407 0
 2563 02f4 0021     		movs	r1, #0
 2564 02f6 5D20     		movs	r0, #93
 2565 02f8 FFF7FEFF 		bl	PCA9959_Write_1
 2566              	.LVL446:
 408:PCA9959.c     ****             PCA9959_Write_1(Ch17_Cf2, 0x00);
 2567              		.loc 1 408 0
 2568 02fc 0021     		movs	r1, #0
 2569 02fe 6120     		movs	r0, #97
 2570 0300 FFF7FEFF 		bl	PCA9959_Write_1
 2571              	.LVL447:
 409:PCA9959.c     ****             PCA9959_Write_1(Ch18_Cf2, 0x00);
 2572              		.loc 1 409 0
 2573 0304 0021     		movs	r1, #0
 2574 0306 6520     		movs	r0, #101
 2575 0308 FFF7FEFF 		bl	PCA9959_Write_1
 2576              	.LVL448:
 410:PCA9959.c     ****             PCA9959_Write_1(Ch19_Cf2, 0x00);
 2577              		.loc 1 410 0
 2578 030c 0021     		movs	r1, #0
 2579 030e 6920     		movs	r0, #105
 2580 0310 FFF7FEFF 		bl	PCA9959_Write_1
 2581              	.LVL449:
 411:PCA9959.c     ****             PCA9959_Write_1(Ch20_Cf2, 0x00);
 2582              		.loc 1 411 0
 2583 0314 0021     		movs	r1, #0
 2584 0316 6D20     		movs	r0, #109
 2585 0318 FFF7FEFF 		bl	PCA9959_Write_1
 2586              	.LVL450:
 412:PCA9959.c     ****             PCA9959_Write_1(Ch21_Cf2, 0x00);
ARM GAS  C:\Users\Revanth\AppData\Local\Temp\ccqs06ys.s 			page 78


 2587              		.loc 1 412 0
 2588 031c 0021     		movs	r1, #0
 2589 031e 7120     		movs	r0, #113
 2590 0320 FFF7FEFF 		bl	PCA9959_Write_1
 2591              	.LVL451:
 413:PCA9959.c     ****             PCA9959_Write_1(Ch22_Cf2, 0x00);
 2592              		.loc 1 413 0
 2593 0324 0021     		movs	r1, #0
 2594 0326 7520     		movs	r0, #117
 2595 0328 FFF7FEFF 		bl	PCA9959_Write_1
 2596              	.LVL452:
 414:PCA9959.c     ****             PCA9959_Write_1(Ch23_Cf2, 0x00);
 2597              		.loc 1 414 0
 2598 032c 0021     		movs	r1, #0
 2599 032e 7920     		movs	r0, #121
 2600 0330 FFF7FEFF 		bl	PCA9959_Write_1
 2601              	.LVL453:
 415:PCA9959.c     ****             Pin_OE_PCA9959_1_Write(0);
 2602              		.loc 1 415 0
 2603 0334 0021     		movs	r1, #0
 2604 0336 7D20     		movs	r0, #125
 2605 0338 FFF7FEFF 		bl	PCA9959_Write_1
 2606              	.LVL454:
 416:PCA9959.c     ****         }
 2607              		.loc 1 416 0
 2608 033c 0020     		movs	r0, #0
 2609 033e FFF7FEFF 		bl	Pin_OE_PCA9959_1_Write
 2610              	.LVL455:
 2611 0342 38BD     		pop	{r3, r4, r5, pc}
 2612              	.L78:
 419:PCA9959.c     ****         {
 2613              		.loc 1 419 0
 2614 0344 032C     		cmp	r4, #3
 2615 0346 40F0CA80 		bne	.L79
 421:PCA9959.c     ****             PageSel_1(ChSel);
 2616              		.loc 1 421 0
 2617 034a 0120     		movs	r0, #1
 2618 034c FFF7FEFF 		bl	Pin_OE_PCA9959_1_Write
 2619              	.LVL456:
 422:PCA9959.c     ****             PCA9959_Write_1(Ch0_Cf1, 0x00);                       //LED Channel 0 is assigned to Gr
 2620              		.loc 1 422 0
 2621 0350 0120     		movs	r0, #1
 2622 0352 FFF7FEFF 		bl	PageSel_1
 2623              	.LVL457:
 423:PCA9959.c     ****             PCA9959_Write_1(Ch1_Cf1, 0x00);
 2624              		.loc 1 423 0
 2625 0356 0021     		movs	r1, #0
 2626 0358 2020     		movs	r0, #32
 2627 035a FFF7FEFF 		bl	PCA9959_Write_1
 2628              	.LVL458:
 424:PCA9959.c     ****             PCA9959_Write_1(Ch2_Cf1, 0x00); 
 2629              		.loc 1 424 0
 2630 035e 0021     		movs	r1, #0
 2631 0360 2420     		movs	r0, #36
 2632 0362 FFF7FEFF 		bl	PCA9959_Write_1
 2633              	.LVL459:
 425:PCA9959.c     ****             PCA9959_Write_1(Ch3_Cf1, 0x00); 
ARM GAS  C:\Users\Revanth\AppData\Local\Temp\ccqs06ys.s 			page 79


 2634              		.loc 1 425 0
 2635 0366 0021     		movs	r1, #0
 2636 0368 2820     		movs	r0, #40
 2637 036a FFF7FEFF 		bl	PCA9959_Write_1
 2638              	.LVL460:
 426:PCA9959.c     ****             PCA9959_Write_1(Ch4_Cf1, 0x00); 
 2639              		.loc 1 426 0
 2640 036e 0021     		movs	r1, #0
 2641 0370 2C20     		movs	r0, #44
 2642 0372 FFF7FEFF 		bl	PCA9959_Write_1
 2643              	.LVL461:
 427:PCA9959.c     ****             PCA9959_Write_1(Ch5_Cf1, 0x00); 
 2644              		.loc 1 427 0
 2645 0376 0021     		movs	r1, #0
 2646 0378 3020     		movs	r0, #48
 2647 037a FFF7FEFF 		bl	PCA9959_Write_1
 2648              	.LVL462:
 428:PCA9959.c     ****             PCA9959_Write_1(Ch6_Cf1, 0x00);  
 2649              		.loc 1 428 0
 2650 037e 0021     		movs	r1, #0
 2651 0380 3420     		movs	r0, #52
 2652 0382 FFF7FEFF 		bl	PCA9959_Write_1
 2653              	.LVL463:
 429:PCA9959.c     ****             PCA9959_Write_1(Ch7_Cf1, 0x01); //
 2654              		.loc 1 429 0
 2655 0386 0021     		movs	r1, #0
 2656 0388 3820     		movs	r0, #56
 2657 038a FFF7FEFF 		bl	PCA9959_Write_1
 2658              	.LVL464:
 430:PCA9959.c     ****             PCA9959_Write_1(Ch8_Cf1, 0x00); 
 2659              		.loc 1 430 0
 2660 038e 0121     		movs	r1, #1
 2661 0390 3C20     		movs	r0, #60
 2662 0392 FFF7FEFF 		bl	PCA9959_Write_1
 2663              	.LVL465:
 431:PCA9959.c     ****             PCA9959_Write_1(Ch9_Cf1, 0x00);  
 2664              		.loc 1 431 0
 2665 0396 0021     		movs	r1, #0
 2666 0398 4020     		movs	r0, #64
 2667 039a FFF7FEFF 		bl	PCA9959_Write_1
 2668              	.LVL466:
 432:PCA9959.c     ****             PCA9959_Write_1(Ch10_Cf1, 0x00); 
 2669              		.loc 1 432 0
 2670 039e 0021     		movs	r1, #0
 2671 03a0 4420     		movs	r0, #68
 2672 03a2 FFF7FEFF 		bl	PCA9959_Write_1
 2673              	.LVL467:
 433:PCA9959.c     ****             PCA9959_Write_1(Ch11_Cf1, 0x01); //
 2674              		.loc 1 433 0
 2675 03a6 0021     		movs	r1, #0
 2676 03a8 4820     		movs	r0, #72
 2677 03aa FFF7FEFF 		bl	PCA9959_Write_1
 2678              	.LVL468:
 434:PCA9959.c     ****             
 2679              		.loc 1 434 0
 2680 03ae 0121     		movs	r1, #1
 2681 03b0 4C20     		movs	r0, #76
ARM GAS  C:\Users\Revanth\AppData\Local\Temp\ccqs06ys.s 			page 80


 2682 03b2 FFF7FEFF 		bl	PCA9959_Write_1
 2683              	.LVL469:
 436:PCA9959.c     ****             PCA9959_Write_1(Ch13_Cf1, 0x00); 
 2684              		.loc 1 436 0
 2685 03b6 0021     		movs	r1, #0
 2686 03b8 5020     		movs	r0, #80
 2687 03ba FFF7FEFF 		bl	PCA9959_Write_1
 2688              	.LVL470:
 437:PCA9959.c     ****             PCA9959_Write_1(Ch14_Cf1, 0x01); //
 2689              		.loc 1 437 0
 2690 03be 0021     		movs	r1, #0
 2691 03c0 5420     		movs	r0, #84
 2692 03c2 FFF7FEFF 		bl	PCA9959_Write_1
 2693              	.LVL471:
 438:PCA9959.c     ****             PCA9959_Write_1(Ch15_Cf1, 0x00);
 2694              		.loc 1 438 0
 2695 03c6 0121     		movs	r1, #1
 2696 03c8 5820     		movs	r0, #88
 2697 03ca FFF7FEFF 		bl	PCA9959_Write_1
 2698              	.LVL472:
 439:PCA9959.c     ****             PCA9959_Write_1(Ch16_Cf1, 0x00);
 2699              		.loc 1 439 0
 2700 03ce 0021     		movs	r1, #0
 2701 03d0 5C20     		movs	r0, #92
 2702 03d2 FFF7FEFF 		bl	PCA9959_Write_1
 2703              	.LVL473:
 440:PCA9959.c     ****             PCA9959_Write_1(Ch17_Cf1, 0x00);
 2704              		.loc 1 440 0
 2705 03d6 0021     		movs	r1, #0
 2706 03d8 6020     		movs	r0, #96
 2707 03da FFF7FEFF 		bl	PCA9959_Write_1
 2708              	.LVL474:
 441:PCA9959.c     ****             PCA9959_Write_1(Ch18_Cf1, 0x00);
 2709              		.loc 1 441 0
 2710 03de 0021     		movs	r1, #0
 2711 03e0 6420     		movs	r0, #100
 2712 03e2 FFF7FEFF 		bl	PCA9959_Write_1
 2713              	.LVL475:
 442:PCA9959.c     ****             PCA9959_Write_1(Ch19_Cf1, 0x00);
 2714              		.loc 1 442 0
 2715 03e6 0021     		movs	r1, #0
 2716 03e8 6820     		movs	r0, #104
 2717 03ea FFF7FEFF 		bl	PCA9959_Write_1
 2718              	.LVL476:
 443:PCA9959.c     ****             PCA9959_Write_1(Ch20_Cf1, 0x00);
 2719              		.loc 1 443 0
 2720 03ee 0021     		movs	r1, #0
 2721 03f0 6C20     		movs	r0, #108
 2722 03f2 FFF7FEFF 		bl	PCA9959_Write_1
 2723              	.LVL477:
 444:PCA9959.c     ****             PCA9959_Write_1(Ch21_Cf1, 0x00);
 2724              		.loc 1 444 0
 2725 03f6 0021     		movs	r1, #0
 2726 03f8 7020     		movs	r0, #112
 2727 03fa FFF7FEFF 		bl	PCA9959_Write_1
 2728              	.LVL478:
 445:PCA9959.c     ****             PCA9959_Write_1(Ch22_Cf1, 0x00);
ARM GAS  C:\Users\Revanth\AppData\Local\Temp\ccqs06ys.s 			page 81


 2729              		.loc 1 445 0
 2730 03fe 0021     		movs	r1, #0
 2731 0400 7420     		movs	r0, #116
 2732 0402 FFF7FEFF 		bl	PCA9959_Write_1
 2733              	.LVL479:
 446:PCA9959.c     ****             PCA9959_Write_1(Ch23_Cf1, 0x00);
 2734              		.loc 1 446 0
 2735 0406 0021     		movs	r1, #0
 2736 0408 7820     		movs	r0, #120
 2737 040a FFF7FEFF 		bl	PCA9959_Write_1
 2738              	.LVL480:
 447:PCA9959.c     ****             
 2739              		.loc 1 447 0
 2740 040e 0021     		movs	r1, #0
 2741 0410 7C20     		movs	r0, #124
 2742 0412 FFF7FEFF 		bl	PCA9959_Write_1
 2743              	.LVL481:
 451:PCA9959.c     ****             PCA9959_Write_1(Ch1_Cf2, 0x00);
 2744              		.loc 1 451 0
 2745 0416 0021     		movs	r1, #0
 2746 0418 2120     		movs	r0, #33
 2747 041a FFF7FEFF 		bl	PCA9959_Write_1
 2748              	.LVL482:
 452:PCA9959.c     ****             PCA9959_Write_1(Ch2_Cf2, 0x00);
 2749              		.loc 1 452 0
 2750 041e 0021     		movs	r1, #0
 2751 0420 2520     		movs	r0, #37
 2752 0422 FFF7FEFF 		bl	PCA9959_Write_1
 2753              	.LVL483:
 453:PCA9959.c     ****             PCA9959_Write_1(Ch3_Cf2, 0x00);
 2754              		.loc 1 453 0
 2755 0426 0021     		movs	r1, #0
 2756 0428 2920     		movs	r0, #41
 2757 042a FFF7FEFF 		bl	PCA9959_Write_1
 2758              	.LVL484:
 454:PCA9959.c     ****             PCA9959_Write_1(Ch4_Cf2, 0x00);
 2759              		.loc 1 454 0
 2760 042e 0021     		movs	r1, #0
 2761 0430 2D20     		movs	r0, #45
 2762 0432 FFF7FEFF 		bl	PCA9959_Write_1
 2763              	.LVL485:
 455:PCA9959.c     ****             PCA9959_Write_1(Ch5_Cf2, 0x00);
 2764              		.loc 1 455 0
 2765 0436 0021     		movs	r1, #0
 2766 0438 3120     		movs	r0, #49
 2767 043a FFF7FEFF 		bl	PCA9959_Write_1
 2768              	.LVL486:
 456:PCA9959.c     ****             PCA9959_Write_1(Ch6_Cf2, 0x00); 
 2769              		.loc 1 456 0
 2770 043e 0021     		movs	r1, #0
 2771 0440 3520     		movs	r0, #53
 2772 0442 FFF7FEFF 		bl	PCA9959_Write_1
 2773              	.LVL487:
 457:PCA9959.c     ****             PCA9959_Write_1(Ch7_Cf2, Brg);   //
 2774              		.loc 1 457 0
 2775 0446 0021     		movs	r1, #0
 2776 0448 3920     		movs	r0, #57
ARM GAS  C:\Users\Revanth\AppData\Local\Temp\ccqs06ys.s 			page 82


 2777 044a FFF7FEFF 		bl	PCA9959_Write_1
 2778              	.LVL488:
 458:PCA9959.c     ****             PCA9959_Write_1(Ch8_Cf2, 0x00);
 2779              		.loc 1 458 0
 2780 044e 2946     		mov	r1, r5
 2781 0450 3D20     		movs	r0, #61
 2782 0452 FFF7FEFF 		bl	PCA9959_Write_1
 2783              	.LVL489:
 459:PCA9959.c     ****             PCA9959_Write_1(Ch9_Cf2, 0x00);   
 2784              		.loc 1 459 0
 2785 0456 0021     		movs	r1, #0
 2786 0458 4120     		movs	r0, #65
 2787 045a FFF7FEFF 		bl	PCA9959_Write_1
 2788              	.LVL490:
 460:PCA9959.c     ****             PCA9959_Write_1(Ch10_Cf2, 0x00);
 2789              		.loc 1 460 0
 2790 045e 0021     		movs	r1, #0
 2791 0460 4520     		movs	r0, #69
 2792 0462 FFF7FEFF 		bl	PCA9959_Write_1
 2793              	.LVL491:
 461:PCA9959.c     ****             PCA9959_Write_1(Ch11_Cf2, Brg);  //
 2794              		.loc 1 461 0
 2795 0466 0021     		movs	r1, #0
 2796 0468 4920     		movs	r0, #73
 2797 046a FFF7FEFF 		bl	PCA9959_Write_1
 2798              	.LVL492:
 462:PCA9959.c     ****             
 2799              		.loc 1 462 0
 2800 046e 2946     		mov	r1, r5
 2801 0470 4D20     		movs	r0, #77
 2802 0472 FFF7FEFF 		bl	PCA9959_Write_1
 2803              	.LVL493:
 464:PCA9959.c     ****             PCA9959_Write_1(Ch13_Cf2, 0x00); 
 2804              		.loc 1 464 0
 2805 0476 0021     		movs	r1, #0
 2806 0478 5120     		movs	r0, #81
 2807 047a FFF7FEFF 		bl	PCA9959_Write_1
 2808              	.LVL494:
 465:PCA9959.c     ****             PCA9959_Write_1(Ch14_Cf2, Brg);  //
 2809              		.loc 1 465 0
 2810 047e 0021     		movs	r1, #0
 2811 0480 5520     		movs	r0, #85
 2812 0482 FFF7FEFF 		bl	PCA9959_Write_1
 2813              	.LVL495:
 466:PCA9959.c     ****             PCA9959_Write_1(Ch15_Cf2, 0x00);
 2814              		.loc 1 466 0
 2815 0486 2946     		mov	r1, r5
 2816 0488 5920     		movs	r0, #89
 2817 048a FFF7FEFF 		bl	PCA9959_Write_1
 2818              	.LVL496:
 467:PCA9959.c     ****             PCA9959_Write_1(Ch16_Cf2, 0x00);
 2819              		.loc 1 467 0
 2820 048e 0021     		movs	r1, #0
 2821 0490 5D20     		movs	r0, #93
 2822 0492 FFF7FEFF 		bl	PCA9959_Write_1
 2823              	.LVL497:
 468:PCA9959.c     ****             PCA9959_Write_1(Ch17_Cf2, 0x00);
ARM GAS  C:\Users\Revanth\AppData\Local\Temp\ccqs06ys.s 			page 83


 2824              		.loc 1 468 0
 2825 0496 0021     		movs	r1, #0
 2826 0498 6120     		movs	r0, #97
 2827 049a FFF7FEFF 		bl	PCA9959_Write_1
 2828              	.LVL498:
 469:PCA9959.c     ****             PCA9959_Write_1(Ch18_Cf2, 0x00);
 2829              		.loc 1 469 0
 2830 049e 0021     		movs	r1, #0
 2831 04a0 6520     		movs	r0, #101
 2832 04a2 FFF7FEFF 		bl	PCA9959_Write_1
 2833              	.LVL499:
 470:PCA9959.c     ****             PCA9959_Write_1(Ch19_Cf2, 0x00);
 2834              		.loc 1 470 0
 2835 04a6 0021     		movs	r1, #0
 2836 04a8 6920     		movs	r0, #105
 2837 04aa FFF7FEFF 		bl	PCA9959_Write_1
 2838              	.LVL500:
 471:PCA9959.c     ****             PCA9959_Write_1(Ch20_Cf2, 0x00);
 2839              		.loc 1 471 0
 2840 04ae 0021     		movs	r1, #0
 2841 04b0 6D20     		movs	r0, #109
 2842 04b2 FFF7FEFF 		bl	PCA9959_Write_1
 2843              	.LVL501:
 472:PCA9959.c     ****             PCA9959_Write_1(Ch21_Cf2, 0x00);
 2844              		.loc 1 472 0
 2845 04b6 0021     		movs	r1, #0
 2846 04b8 7120     		movs	r0, #113
 2847 04ba FFF7FEFF 		bl	PCA9959_Write_1
 2848              	.LVL502:
 473:PCA9959.c     ****             PCA9959_Write_1(Ch22_Cf2, 0x00);
 2849              		.loc 1 473 0
 2850 04be 0021     		movs	r1, #0
 2851 04c0 7520     		movs	r0, #117
 2852 04c2 FFF7FEFF 		bl	PCA9959_Write_1
 2853              	.LVL503:
 474:PCA9959.c     ****             PCA9959_Write_1(Ch23_Cf2, 0x00);
 2854              		.loc 1 474 0
 2855 04c6 0021     		movs	r1, #0
 2856 04c8 7920     		movs	r0, #121
 2857 04ca FFF7FEFF 		bl	PCA9959_Write_1
 2858              	.LVL504:
 475:PCA9959.c     ****             Pin_OE_PCA9959_1_Write(0);
 2859              		.loc 1 475 0
 2860 04ce 0021     		movs	r1, #0
 2861 04d0 7D20     		movs	r0, #125
 2862 04d2 FFF7FEFF 		bl	PCA9959_Write_1
 2863              	.LVL505:
 476:PCA9959.c     ****         }
 2864              		.loc 1 476 0
 2865 04d6 0020     		movs	r0, #0
 2866 04d8 FFF7FEFF 		bl	Pin_OE_PCA9959_1_Write
 2867              	.LVL506:
 2868 04dc 38BD     		pop	{r3, r4, r5, pc}
 2869              	.L79:
 479:PCA9959.c     ****         {
 2870              		.loc 1 479 0
 2871 04de 042C     		cmp	r4, #4
ARM GAS  C:\Users\Revanth\AppData\Local\Temp\ccqs06ys.s 			page 84


 2872 04e0 40F0CA80 		bne	.L80
 481:PCA9959.c     ****             PageSel_1(ChSel);
 2873              		.loc 1 481 0
 2874 04e4 0120     		movs	r0, #1
 2875 04e6 FFF7FEFF 		bl	Pin_OE_PCA9959_1_Write
 2876              	.LVL507:
 482:PCA9959.c     ****             PCA9959_Write_1(Ch0_Cf1, 0x00);                       //LED Channel 0 is assigned to Gr
 2877              		.loc 1 482 0
 2878 04ea 0120     		movs	r0, #1
 2879 04ec FFF7FEFF 		bl	PageSel_1
 2880              	.LVL508:
 483:PCA9959.c     ****             PCA9959_Write_1(Ch1_Cf1, 0x00);
 2881              		.loc 1 483 0
 2882 04f0 0021     		movs	r1, #0
 2883 04f2 2020     		movs	r0, #32
 2884 04f4 FFF7FEFF 		bl	PCA9959_Write_1
 2885              	.LVL509:
 484:PCA9959.c     ****             PCA9959_Write_1(Ch2_Cf1, 0x00); 
 2886              		.loc 1 484 0
 2887 04f8 0021     		movs	r1, #0
 2888 04fa 2420     		movs	r0, #36
 2889 04fc FFF7FEFF 		bl	PCA9959_Write_1
 2890              	.LVL510:
 485:PCA9959.c     ****             PCA9959_Write_1(Ch3_Cf1, 0x00); 
 2891              		.loc 1 485 0
 2892 0500 0021     		movs	r1, #0
 2893 0502 2820     		movs	r0, #40
 2894 0504 FFF7FEFF 		bl	PCA9959_Write_1
 2895              	.LVL511:
 486:PCA9959.c     ****             PCA9959_Write_1(Ch4_Cf1, 0x00); 
 2896              		.loc 1 486 0
 2897 0508 0021     		movs	r1, #0
 2898 050a 2C20     		movs	r0, #44
 2899 050c FFF7FEFF 		bl	PCA9959_Write_1
 2900              	.LVL512:
 487:PCA9959.c     ****             PCA9959_Write_1(Ch5_Cf1, 0x00); 
 2901              		.loc 1 487 0
 2902 0510 0021     		movs	r1, #0
 2903 0512 3020     		movs	r0, #48
 2904 0514 FFF7FEFF 		bl	PCA9959_Write_1
 2905              	.LVL513:
 488:PCA9959.c     ****             PCA9959_Write_1(Ch6_Cf1, 0x01);  //
 2906              		.loc 1 488 0
 2907 0518 0021     		movs	r1, #0
 2908 051a 3420     		movs	r0, #52
 2909 051c FFF7FEFF 		bl	PCA9959_Write_1
 2910              	.LVL514:
 489:PCA9959.c     ****             PCA9959_Write_1(Ch7_Cf1, 0x01); //
 2911              		.loc 1 489 0
 2912 0520 0121     		movs	r1, #1
 2913 0522 3820     		movs	r0, #56
 2914 0524 FFF7FEFF 		bl	PCA9959_Write_1
 2915              	.LVL515:
 490:PCA9959.c     ****             PCA9959_Write_1(Ch8_Cf1, 0x00); 
 2916              		.loc 1 490 0
 2917 0528 0121     		movs	r1, #1
 2918 052a 3C20     		movs	r0, #60
ARM GAS  C:\Users\Revanth\AppData\Local\Temp\ccqs06ys.s 			page 85


 2919 052c FFF7FEFF 		bl	PCA9959_Write_1
 2920              	.LVL516:
 491:PCA9959.c     ****             PCA9959_Write_1(Ch9_Cf1, 0x01); // 
 2921              		.loc 1 491 0
 2922 0530 0021     		movs	r1, #0
 2923 0532 4020     		movs	r0, #64
 2924 0534 FFF7FEFF 		bl	PCA9959_Write_1
 2925              	.LVL517:
 492:PCA9959.c     ****             PCA9959_Write_1(Ch10_Cf1, 0x01); 
 2926              		.loc 1 492 0
 2927 0538 0121     		movs	r1, #1
 2928 053a 4420     		movs	r0, #68
 2929 053c FFF7FEFF 		bl	PCA9959_Write_1
 2930              	.LVL518:
 493:PCA9959.c     ****             PCA9959_Write_1(Ch11_Cf1, 0x01); //
 2931              		.loc 1 493 0
 2932 0540 0121     		movs	r1, #1
 2933 0542 4820     		movs	r0, #72
 2934 0544 FFF7FEFF 		bl	PCA9959_Write_1
 2935              	.LVL519:
 494:PCA9959.c     ****             
 2936              		.loc 1 494 0
 2937 0548 0121     		movs	r1, #1
 2938 054a 4C20     		movs	r0, #76
 2939 054c FFF7FEFF 		bl	PCA9959_Write_1
 2940              	.LVL520:
 496:PCA9959.c     ****             PCA9959_Write_1(Ch13_Cf1, 0x01); //
 2941              		.loc 1 496 0
 2942 0550 0021     		movs	r1, #0
 2943 0552 5020     		movs	r0, #80
 2944 0554 FFF7FEFF 		bl	PCA9959_Write_1
 2945              	.LVL521:
 497:PCA9959.c     ****             PCA9959_Write_1(Ch14_Cf1, 0x01); //
 2946              		.loc 1 497 0
 2947 0558 0121     		movs	r1, #1
 2948 055a 5420     		movs	r0, #84
 2949 055c FFF7FEFF 		bl	PCA9959_Write_1
 2950              	.LVL522:
 498:PCA9959.c     ****             PCA9959_Write_1(Ch15_Cf1, 0x00);
 2951              		.loc 1 498 0
 2952 0560 0121     		movs	r1, #1
 2953 0562 5820     		movs	r0, #88
 2954 0564 FFF7FEFF 		bl	PCA9959_Write_1
 2955              	.LVL523:
 499:PCA9959.c     ****             PCA9959_Write_1(Ch16_Cf1, 0x00);
 2956              		.loc 1 499 0
 2957 0568 0021     		movs	r1, #0
 2958 056a 5C20     		movs	r0, #92
 2959 056c FFF7FEFF 		bl	PCA9959_Write_1
 2960              	.LVL524:
 500:PCA9959.c     ****             PCA9959_Write_1(Ch17_Cf1, 0x00);
 2961              		.loc 1 500 0
 2962 0570 0021     		movs	r1, #0
 2963 0572 6020     		movs	r0, #96
 2964 0574 FFF7FEFF 		bl	PCA9959_Write_1
 2965              	.LVL525:
 501:PCA9959.c     ****             PCA9959_Write_1(Ch18_Cf1, 0x00);
ARM GAS  C:\Users\Revanth\AppData\Local\Temp\ccqs06ys.s 			page 86


 2966              		.loc 1 501 0
 2967 0578 0021     		movs	r1, #0
 2968 057a 6420     		movs	r0, #100
 2969 057c FFF7FEFF 		bl	PCA9959_Write_1
 2970              	.LVL526:
 502:PCA9959.c     ****             PCA9959_Write_1(Ch19_Cf1, 0x00);
 2971              		.loc 1 502 0
 2972 0580 0021     		movs	r1, #0
 2973 0582 6820     		movs	r0, #104
 2974 0584 FFF7FEFF 		bl	PCA9959_Write_1
 2975              	.LVL527:
 503:PCA9959.c     ****             PCA9959_Write_1(Ch20_Cf1, 0x00);
 2976              		.loc 1 503 0
 2977 0588 0021     		movs	r1, #0
 2978 058a 6C20     		movs	r0, #108
 2979 058c FFF7FEFF 		bl	PCA9959_Write_1
 2980              	.LVL528:
 504:PCA9959.c     ****             PCA9959_Write_1(Ch21_Cf1, 0x00);
 2981              		.loc 1 504 0
 2982 0590 0021     		movs	r1, #0
 2983 0592 7020     		movs	r0, #112
 2984 0594 FFF7FEFF 		bl	PCA9959_Write_1
 2985              	.LVL529:
 505:PCA9959.c     ****             PCA9959_Write_1(Ch22_Cf1, 0x00);
 2986              		.loc 1 505 0
 2987 0598 0021     		movs	r1, #0
 2988 059a 7420     		movs	r0, #116
 2989 059c FFF7FEFF 		bl	PCA9959_Write_1
 2990              	.LVL530:
 506:PCA9959.c     ****             PCA9959_Write_1(Ch23_Cf1, 0x00);
 2991              		.loc 1 506 0
 2992 05a0 0021     		movs	r1, #0
 2993 05a2 7820     		movs	r0, #120
 2994 05a4 FFF7FEFF 		bl	PCA9959_Write_1
 2995              	.LVL531:
 507:PCA9959.c     ****             
 2996              		.loc 1 507 0
 2997 05a8 0021     		movs	r1, #0
 2998 05aa 7C20     		movs	r0, #124
 2999 05ac FFF7FEFF 		bl	PCA9959_Write_1
 3000              	.LVL532:
 511:PCA9959.c     ****             PCA9959_Write_1(Ch1_Cf2, 0x00);
 3001              		.loc 1 511 0
 3002 05b0 0021     		movs	r1, #0
 3003 05b2 2120     		movs	r0, #33
 3004 05b4 FFF7FEFF 		bl	PCA9959_Write_1
 3005              	.LVL533:
 512:PCA9959.c     ****             PCA9959_Write_1(Ch2_Cf2, 0x00);
 3006              		.loc 1 512 0
 3007 05b8 0021     		movs	r1, #0
 3008 05ba 2520     		movs	r0, #37
 3009 05bc FFF7FEFF 		bl	PCA9959_Write_1
 3010              	.LVL534:
 513:PCA9959.c     ****             PCA9959_Write_1(Ch3_Cf2, 0x00);
 3011              		.loc 1 513 0
 3012 05c0 0021     		movs	r1, #0
 3013 05c2 2920     		movs	r0, #41
ARM GAS  C:\Users\Revanth\AppData\Local\Temp\ccqs06ys.s 			page 87


 3014 05c4 FFF7FEFF 		bl	PCA9959_Write_1
 3015              	.LVL535:
 514:PCA9959.c     ****             PCA9959_Write_1(Ch4_Cf2, 0x00);
 3016              		.loc 1 514 0
 3017 05c8 0021     		movs	r1, #0
 3018 05ca 2D20     		movs	r0, #45
 3019 05cc FFF7FEFF 		bl	PCA9959_Write_1
 3020              	.LVL536:
 515:PCA9959.c     ****             PCA9959_Write_1(Ch5_Cf2, 0x00);
 3021              		.loc 1 515 0
 3022 05d0 0021     		movs	r1, #0
 3023 05d2 3120     		movs	r0, #49
 3024 05d4 FFF7FEFF 		bl	PCA9959_Write_1
 3025              	.LVL537:
 516:PCA9959.c     ****             PCA9959_Write_1(Ch6_Cf2, Brg); //
 3026              		.loc 1 516 0
 3027 05d8 0021     		movs	r1, #0
 3028 05da 3520     		movs	r0, #53
 3029 05dc FFF7FEFF 		bl	PCA9959_Write_1
 3030              	.LVL538:
 517:PCA9959.c     ****             PCA9959_Write_1(Ch7_Cf2, Brg); //
 3031              		.loc 1 517 0
 3032 05e0 2946     		mov	r1, r5
 3033 05e2 3920     		movs	r0, #57
 3034 05e4 FFF7FEFF 		bl	PCA9959_Write_1
 3035              	.LVL539:
 518:PCA9959.c     ****             PCA9959_Write_1(Ch8_Cf2, 0x00);
 3036              		.loc 1 518 0
 3037 05e8 2946     		mov	r1, r5
 3038 05ea 3D20     		movs	r0, #61
 3039 05ec FFF7FEFF 		bl	PCA9959_Write_1
 3040              	.LVL540:
 519:PCA9959.c     ****             PCA9959_Write_1(Ch9_Cf2, Brg);   //
 3041              		.loc 1 519 0
 3042 05f0 0021     		movs	r1, #0
 3043 05f2 4120     		movs	r0, #65
 3044 05f4 FFF7FEFF 		bl	PCA9959_Write_1
 3045              	.LVL541:
 520:PCA9959.c     ****             PCA9959_Write_1(Ch10_Cf2, Brg);
 3046              		.loc 1 520 0
 3047 05f8 2946     		mov	r1, r5
 3048 05fa 4520     		movs	r0, #69
 3049 05fc FFF7FEFF 		bl	PCA9959_Write_1
 3050              	.LVL542:
 521:PCA9959.c     ****             PCA9959_Write_1(Ch11_Cf2, Brg);//
 3051              		.loc 1 521 0
 3052 0600 2946     		mov	r1, r5
 3053 0602 4920     		movs	r0, #73
 3054 0604 FFF7FEFF 		bl	PCA9959_Write_1
 3055              	.LVL543:
 522:PCA9959.c     ****             
 3056              		.loc 1 522 0
 3057 0608 2946     		mov	r1, r5
 3058 060a 4D20     		movs	r0, #77
 3059 060c FFF7FEFF 		bl	PCA9959_Write_1
 3060              	.LVL544:
 524:PCA9959.c     ****             PCA9959_Write_1(Ch13_Cf2, Brg); //
ARM GAS  C:\Users\Revanth\AppData\Local\Temp\ccqs06ys.s 			page 88


 3061              		.loc 1 524 0
 3062 0610 0021     		movs	r1, #0
 3063 0612 5120     		movs	r0, #81
 3064 0614 FFF7FEFF 		bl	PCA9959_Write_1
 3065              	.LVL545:
 525:PCA9959.c     ****             PCA9959_Write_1(Ch14_Cf2, Brg);//
 3066              		.loc 1 525 0
 3067 0618 2946     		mov	r1, r5
 3068 061a 5520     		movs	r0, #85
 3069 061c FFF7FEFF 		bl	PCA9959_Write_1
 3070              	.LVL546:
 526:PCA9959.c     ****             PCA9959_Write_1(Ch15_Cf2, 0x00);
 3071              		.loc 1 526 0
 3072 0620 2946     		mov	r1, r5
 3073 0622 5920     		movs	r0, #89
 3074 0624 FFF7FEFF 		bl	PCA9959_Write_1
 3075              	.LVL547:
 527:PCA9959.c     ****             PCA9959_Write_1(Ch16_Cf2, 0x00);
 3076              		.loc 1 527 0
 3077 0628 0021     		movs	r1, #0
 3078 062a 5D20     		movs	r0, #93
 3079 062c FFF7FEFF 		bl	PCA9959_Write_1
 3080              	.LVL548:
 528:PCA9959.c     ****             PCA9959_Write_1(Ch17_Cf2, 0x00);
 3081              		.loc 1 528 0
 3082 0630 0021     		movs	r1, #0
 3083 0632 6120     		movs	r0, #97
 3084 0634 FFF7FEFF 		bl	PCA9959_Write_1
 3085              	.LVL549:
 529:PCA9959.c     ****             PCA9959_Write_1(Ch18_Cf2, 0x00);
 3086              		.loc 1 529 0
 3087 0638 0021     		movs	r1, #0
 3088 063a 6520     		movs	r0, #101
 3089 063c FFF7FEFF 		bl	PCA9959_Write_1
 3090              	.LVL550:
 530:PCA9959.c     ****             PCA9959_Write_1(Ch19_Cf2, 0x00);
 3091              		.loc 1 530 0
 3092 0640 0021     		movs	r1, #0
 3093 0642 6920     		movs	r0, #105
 3094 0644 FFF7FEFF 		bl	PCA9959_Write_1
 3095              	.LVL551:
 531:PCA9959.c     ****             PCA9959_Write_1(Ch20_Cf2, 0x00);
 3096              		.loc 1 531 0
 3097 0648 0021     		movs	r1, #0
 3098 064a 6D20     		movs	r0, #109
 3099 064c FFF7FEFF 		bl	PCA9959_Write_1
 3100              	.LVL552:
 532:PCA9959.c     ****             PCA9959_Write_1(Ch21_Cf2, 0x00);
 3101              		.loc 1 532 0
 3102 0650 0021     		movs	r1, #0
 3103 0652 7120     		movs	r0, #113
 3104 0654 FFF7FEFF 		bl	PCA9959_Write_1
 3105              	.LVL553:
 533:PCA9959.c     ****             PCA9959_Write_1(Ch22_Cf2, 0x00);
 3106              		.loc 1 533 0
 3107 0658 0021     		movs	r1, #0
 3108 065a 7520     		movs	r0, #117
ARM GAS  C:\Users\Revanth\AppData\Local\Temp\ccqs06ys.s 			page 89


 3109 065c FFF7FEFF 		bl	PCA9959_Write_1
 3110              	.LVL554:
 534:PCA9959.c     ****             PCA9959_Write_1(Ch23_Cf2, 0x00);
 3111              		.loc 1 534 0
 3112 0660 0021     		movs	r1, #0
 3113 0662 7920     		movs	r0, #121
 3114 0664 FFF7FEFF 		bl	PCA9959_Write_1
 3115              	.LVL555:
 535:PCA9959.c     ****             Pin_OE_PCA9959_1_Write(0);
 3116              		.loc 1 535 0
 3117 0668 0021     		movs	r1, #0
 3118 066a 7D20     		movs	r0, #125
 3119 066c FFF7FEFF 		bl	PCA9959_Write_1
 3120              	.LVL556:
 536:PCA9959.c     ****         }
 3121              		.loc 1 536 0
 3122 0670 0020     		movs	r0, #0
 3123 0672 FFF7FEFF 		bl	Pin_OE_PCA9959_1_Write
 3124              	.LVL557:
 3125 0676 38BD     		pop	{r3, r4, r5, pc}
 3126              	.L80:
 539:PCA9959.c     ****         {
 3127              		.loc 1 539 0
 3128 0678 052C     		cmp	r4, #5
 3129 067a 40F0CA80 		bne	.L81
 541:PCA9959.c     ****             PageSel_1(ChSel);
 3130              		.loc 1 541 0
 3131 067e 0120     		movs	r0, #1
 3132 0680 FFF7FEFF 		bl	Pin_OE_PCA9959_1_Write
 3133              	.LVL558:
 542:PCA9959.c     ****             PCA9959_Write_1(Ch0_Cf1, 0x00);                       //LED Channel 0 is assigned to Gr
 3134              		.loc 1 542 0
 3135 0684 0120     		movs	r0, #1
 3136 0686 FFF7FEFF 		bl	PageSel_1
 3137              	.LVL559:
 543:PCA9959.c     ****             PCA9959_Write_1(Ch1_Cf1, 0x01); //
 3138              		.loc 1 543 0
 3139 068a 0021     		movs	r1, #0
 3140 068c 2020     		movs	r0, #32
 3141 068e FFF7FEFF 		bl	PCA9959_Write_1
 3142              	.LVL560:
 544:PCA9959.c     ****             PCA9959_Write_1(Ch2_Cf1, 0x00); 
 3143              		.loc 1 544 0
 3144 0692 0121     		movs	r1, #1
 3145 0694 2420     		movs	r0, #36
 3146 0696 FFF7FEFF 		bl	PCA9959_Write_1
 3147              	.LVL561:
 545:PCA9959.c     ****             PCA9959_Write_1(Ch3_Cf1, 0x01); //
 3148              		.loc 1 545 0
 3149 069a 0021     		movs	r1, #0
 3150 069c 2820     		movs	r0, #40
 3151 069e FFF7FEFF 		bl	PCA9959_Write_1
 3152              	.LVL562:
 546:PCA9959.c     ****             PCA9959_Write_1(Ch4_Cf1, 0x00); 
 3153              		.loc 1 546 0
 3154 06a2 0121     		movs	r1, #1
 3155 06a4 2C20     		movs	r0, #44
ARM GAS  C:\Users\Revanth\AppData\Local\Temp\ccqs06ys.s 			page 90


 3156 06a6 FFF7FEFF 		bl	PCA9959_Write_1
 3157              	.LVL563:
 547:PCA9959.c     ****             PCA9959_Write_1(Ch5_Cf1, 0x01); //
 3158              		.loc 1 547 0
 3159 06aa 0021     		movs	r1, #0
 3160 06ac 3020     		movs	r0, #48
 3161 06ae FFF7FEFF 		bl	PCA9959_Write_1
 3162              	.LVL564:
 548:PCA9959.c     ****             PCA9959_Write_1(Ch6_Cf1, 0x00);  
 3163              		.loc 1 548 0
 3164 06b2 0121     		movs	r1, #1
 3165 06b4 3420     		movs	r0, #52
 3166 06b6 FFF7FEFF 		bl	PCA9959_Write_1
 3167              	.LVL565:
 549:PCA9959.c     ****             PCA9959_Write_1(Ch7_Cf1, 0x00); 
 3168              		.loc 1 549 0
 3169 06ba 0021     		movs	r1, #0
 3170 06bc 3820     		movs	r0, #56
 3171 06be FFF7FEFF 		bl	PCA9959_Write_1
 3172              	.LVL566:
 550:PCA9959.c     ****             PCA9959_Write_1(Ch8_Cf1, 0x00); 
 3173              		.loc 1 550 0
 3174 06c2 0021     		movs	r1, #0
 3175 06c4 3C20     		movs	r0, #60
 3176 06c6 FFF7FEFF 		bl	PCA9959_Write_1
 3177              	.LVL567:
 551:PCA9959.c     ****             PCA9959_Write_1(Ch9_Cf1, 0x00);  
 3178              		.loc 1 551 0
 3179 06ca 0021     		movs	r1, #0
 3180 06cc 4020     		movs	r0, #64
 3181 06ce FFF7FEFF 		bl	PCA9959_Write_1
 3182              	.LVL568:
 552:PCA9959.c     ****             PCA9959_Write_1(Ch10_Cf1, 0x00); 
 3183              		.loc 1 552 0
 3184 06d2 0021     		movs	r1, #0
 3185 06d4 4420     		movs	r0, #68
 3186 06d6 FFF7FEFF 		bl	PCA9959_Write_1
 3187              	.LVL569:
 553:PCA9959.c     ****             PCA9959_Write_1(Ch11_Cf1, 0x00);
 3188              		.loc 1 553 0
 3189 06da 0021     		movs	r1, #0
 3190 06dc 4820     		movs	r0, #72
 3191 06de FFF7FEFF 		bl	PCA9959_Write_1
 3192              	.LVL570:
 554:PCA9959.c     ****             
 3193              		.loc 1 554 0
 3194 06e2 0021     		movs	r1, #0
 3195 06e4 4C20     		movs	r0, #76
 3196 06e6 FFF7FEFF 		bl	PCA9959_Write_1
 3197              	.LVL571:
 556:PCA9959.c     ****             PCA9959_Write_1(Ch13_Cf1, 0x00); 
 3198              		.loc 1 556 0
 3199 06ea 0121     		movs	r1, #1
 3200 06ec 5020     		movs	r0, #80
 3201 06ee FFF7FEFF 		bl	PCA9959_Write_1
 3202              	.LVL572:
 557:PCA9959.c     ****             PCA9959_Write_1(Ch14_Cf1, 0x00);
ARM GAS  C:\Users\Revanth\AppData\Local\Temp\ccqs06ys.s 			page 91


 3203              		.loc 1 557 0
 3204 06f2 0021     		movs	r1, #0
 3205 06f4 5420     		movs	r0, #84
 3206 06f6 FFF7FEFF 		bl	PCA9959_Write_1
 3207              	.LVL573:
 558:PCA9959.c     ****             PCA9959_Write_1(Ch15_Cf1, 0x00);
 3208              		.loc 1 558 0
 3209 06fa 0021     		movs	r1, #0
 3210 06fc 5820     		movs	r0, #88
 3211 06fe FFF7FEFF 		bl	PCA9959_Write_1
 3212              	.LVL574:
 559:PCA9959.c     ****             PCA9959_Write_1(Ch16_Cf1, 0x01); //
 3213              		.loc 1 559 0
 3214 0702 0021     		movs	r1, #0
 3215 0704 5C20     		movs	r0, #92
 3216 0706 FFF7FEFF 		bl	PCA9959_Write_1
 3217              	.LVL575:
 560:PCA9959.c     ****             PCA9959_Write_1(Ch17_Cf1, 0x00);
 3218              		.loc 1 560 0
 3219 070a 0121     		movs	r1, #1
 3220 070c 6020     		movs	r0, #96
 3221 070e FFF7FEFF 		bl	PCA9959_Write_1
 3222              	.LVL576:
 561:PCA9959.c     ****             PCA9959_Write_1(Ch18_Cf1, 0x01); //
 3223              		.loc 1 561 0
 3224 0712 0021     		movs	r1, #0
 3225 0714 6420     		movs	r0, #100
 3226 0716 FFF7FEFF 		bl	PCA9959_Write_1
 3227              	.LVL577:
 562:PCA9959.c     ****             PCA9959_Write_1(Ch19_Cf1, 0x00);
 3228              		.loc 1 562 0
 3229 071a 0121     		movs	r1, #1
 3230 071c 6820     		movs	r0, #104
 3231 071e FFF7FEFF 		bl	PCA9959_Write_1
 3232              	.LVL578:
 563:PCA9959.c     ****             PCA9959_Write_1(Ch20_Cf1, 0x00);
 3233              		.loc 1 563 0
 3234 0722 0021     		movs	r1, #0
 3235 0724 6C20     		movs	r0, #108
 3236 0726 FFF7FEFF 		bl	PCA9959_Write_1
 3237              	.LVL579:
 564:PCA9959.c     ****             PCA9959_Write_1(Ch21_Cf1, 0x00);
 3238              		.loc 1 564 0
 3239 072a 0021     		movs	r1, #0
 3240 072c 7020     		movs	r0, #112
 3241 072e FFF7FEFF 		bl	PCA9959_Write_1
 3242              	.LVL580:
 565:PCA9959.c     ****             PCA9959_Write_1(Ch22_Cf1, 0x00);
 3243              		.loc 1 565 0
 3244 0732 0021     		movs	r1, #0
 3245 0734 7420     		movs	r0, #116
 3246 0736 FFF7FEFF 		bl	PCA9959_Write_1
 3247              	.LVL581:
 566:PCA9959.c     ****             PCA9959_Write_1(Ch23_Cf1, 0x00);
 3248              		.loc 1 566 0
 3249 073a 0021     		movs	r1, #0
 3250 073c 7820     		movs	r0, #120
ARM GAS  C:\Users\Revanth\AppData\Local\Temp\ccqs06ys.s 			page 92


 3251 073e FFF7FEFF 		bl	PCA9959_Write_1
 3252              	.LVL582:
 567:PCA9959.c     ****             
 3253              		.loc 1 567 0
 3254 0742 0021     		movs	r1, #0
 3255 0744 7C20     		movs	r0, #124
 3256 0746 FFF7FEFF 		bl	PCA9959_Write_1
 3257              	.LVL583:
 571:PCA9959.c     ****             PCA9959_Write_1(Ch1_Cf2, Brg);  //
 3258              		.loc 1 571 0
 3259 074a 0021     		movs	r1, #0
 3260 074c 2120     		movs	r0, #33
 3261 074e FFF7FEFF 		bl	PCA9959_Write_1
 3262              	.LVL584:
 572:PCA9959.c     ****             PCA9959_Write_1(Ch2_Cf2, 0x00);
 3263              		.loc 1 572 0
 3264 0752 2946     		mov	r1, r5
 3265 0754 2520     		movs	r0, #37
 3266 0756 FFF7FEFF 		bl	PCA9959_Write_1
 3267              	.LVL585:
 573:PCA9959.c     ****             PCA9959_Write_1(Ch3_Cf2, Brg);  //
 3268              		.loc 1 573 0
 3269 075a 0021     		movs	r1, #0
 3270 075c 2920     		movs	r0, #41
 3271 075e FFF7FEFF 		bl	PCA9959_Write_1
 3272              	.LVL586:
 574:PCA9959.c     ****             PCA9959_Write_1(Ch4_Cf2, 0x00);
 3273              		.loc 1 574 0
 3274 0762 2946     		mov	r1, r5
 3275 0764 2D20     		movs	r0, #45
 3276 0766 FFF7FEFF 		bl	PCA9959_Write_1
 3277              	.LVL587:
 575:PCA9959.c     ****             PCA9959_Write_1(Ch5_Cf2, Brg); //
 3278              		.loc 1 575 0
 3279 076a 0021     		movs	r1, #0
 3280 076c 3120     		movs	r0, #49
 3281 076e FFF7FEFF 		bl	PCA9959_Write_1
 3282              	.LVL588:
 576:PCA9959.c     ****             PCA9959_Write_1(Ch6_Cf2, 0x00); 
 3283              		.loc 1 576 0
 3284 0772 2946     		mov	r1, r5
 3285 0774 3520     		movs	r0, #53
 3286 0776 FFF7FEFF 		bl	PCA9959_Write_1
 3287              	.LVL589:
 577:PCA9959.c     ****             PCA9959_Write_1(Ch7_Cf2, 0x00);
 3288              		.loc 1 577 0
 3289 077a 0021     		movs	r1, #0
 3290 077c 3920     		movs	r0, #57
 3291 077e FFF7FEFF 		bl	PCA9959_Write_1
 3292              	.LVL590:
 578:PCA9959.c     ****             PCA9959_Write_1(Ch8_Cf2, 0x00);
 3293              		.loc 1 578 0
 3294 0782 0021     		movs	r1, #0
 3295 0784 3D20     		movs	r0, #61
 3296 0786 FFF7FEFF 		bl	PCA9959_Write_1
 3297              	.LVL591:
 579:PCA9959.c     ****             PCA9959_Write_1(Ch9_Cf2, 0x00);   
ARM GAS  C:\Users\Revanth\AppData\Local\Temp\ccqs06ys.s 			page 93


 3298              		.loc 1 579 0
 3299 078a 0021     		movs	r1, #0
 3300 078c 4120     		movs	r0, #65
 3301 078e FFF7FEFF 		bl	PCA9959_Write_1
 3302              	.LVL592:
 580:PCA9959.c     ****             PCA9959_Write_1(Ch10_Cf2, 0x00);
 3303              		.loc 1 580 0
 3304 0792 0021     		movs	r1, #0
 3305 0794 4520     		movs	r0, #69
 3306 0796 FFF7FEFF 		bl	PCA9959_Write_1
 3307              	.LVL593:
 581:PCA9959.c     ****             PCA9959_Write_1(Ch11_Cf2, 0x00);
 3308              		.loc 1 581 0
 3309 079a 0021     		movs	r1, #0
 3310 079c 4920     		movs	r0, #73
 3311 079e FFF7FEFF 		bl	PCA9959_Write_1
 3312              	.LVL594:
 582:PCA9959.c     ****             
 3313              		.loc 1 582 0
 3314 07a2 0021     		movs	r1, #0
 3315 07a4 4D20     		movs	r0, #77
 3316 07a6 FFF7FEFF 		bl	PCA9959_Write_1
 3317              	.LVL595:
 584:PCA9959.c     ****             PCA9959_Write_1(Ch13_Cf2, 0x00); 
 3318              		.loc 1 584 0
 3319 07aa 2946     		mov	r1, r5
 3320 07ac 5120     		movs	r0, #81
 3321 07ae FFF7FEFF 		bl	PCA9959_Write_1
 3322              	.LVL596:
 585:PCA9959.c     ****             PCA9959_Write_1(Ch14_Cf2, 0x00);
 3323              		.loc 1 585 0
 3324 07b2 0021     		movs	r1, #0
 3325 07b4 5520     		movs	r0, #85
 3326 07b6 FFF7FEFF 		bl	PCA9959_Write_1
 3327              	.LVL597:
 586:PCA9959.c     ****             PCA9959_Write_1(Ch15_Cf2, 0x00);
 3328              		.loc 1 586 0
 3329 07ba 0021     		movs	r1, #0
 3330 07bc 5920     		movs	r0, #89
 3331 07be FFF7FEFF 		bl	PCA9959_Write_1
 3332              	.LVL598:
 587:PCA9959.c     ****             PCA9959_Write_1(Ch16_Cf2, Brg); //
 3333              		.loc 1 587 0
 3334 07c2 0021     		movs	r1, #0
 3335 07c4 5D20     		movs	r0, #93
 3336 07c6 FFF7FEFF 		bl	PCA9959_Write_1
 3337              	.LVL599:
 588:PCA9959.c     ****             PCA9959_Write_1(Ch17_Cf2, 0x00);
 3338              		.loc 1 588 0
 3339 07ca 2946     		mov	r1, r5
 3340 07cc 6120     		movs	r0, #97
 3341 07ce FFF7FEFF 		bl	PCA9959_Write_1
 3342              	.LVL600:
 589:PCA9959.c     ****             PCA9959_Write_1(Ch18_Cf2, Brg); //
 3343              		.loc 1 589 0
 3344 07d2 0021     		movs	r1, #0
 3345 07d4 6520     		movs	r0, #101
ARM GAS  C:\Users\Revanth\AppData\Local\Temp\ccqs06ys.s 			page 94


 3346 07d6 FFF7FEFF 		bl	PCA9959_Write_1
 3347              	.LVL601:
 590:PCA9959.c     ****             PCA9959_Write_1(Ch19_Cf2, 0x00);
 3348              		.loc 1 590 0
 3349 07da 2946     		mov	r1, r5
 3350 07dc 6920     		movs	r0, #105
 3351 07de FFF7FEFF 		bl	PCA9959_Write_1
 3352              	.LVL602:
 591:PCA9959.c     ****             PCA9959_Write_1(Ch20_Cf2, 0x00);
 3353              		.loc 1 591 0
 3354 07e2 0021     		movs	r1, #0
 3355 07e4 6D20     		movs	r0, #109
 3356 07e6 FFF7FEFF 		bl	PCA9959_Write_1
 3357              	.LVL603:
 592:PCA9959.c     ****             PCA9959_Write_1(Ch21_Cf2, 0x00);
 3358              		.loc 1 592 0
 3359 07ea 0021     		movs	r1, #0
 3360 07ec 7120     		movs	r0, #113
 3361 07ee FFF7FEFF 		bl	PCA9959_Write_1
 3362              	.LVL604:
 593:PCA9959.c     ****             PCA9959_Write_1(Ch22_Cf2, 0x00);
 3363              		.loc 1 593 0
 3364 07f2 0021     		movs	r1, #0
 3365 07f4 7520     		movs	r0, #117
 3366 07f6 FFF7FEFF 		bl	PCA9959_Write_1
 3367              	.LVL605:
 594:PCA9959.c     ****             PCA9959_Write_1(Ch23_Cf2, 0x00);
 3368              		.loc 1 594 0
 3369 07fa 0021     		movs	r1, #0
 3370 07fc 7920     		movs	r0, #121
 3371 07fe FFF7FEFF 		bl	PCA9959_Write_1
 3372              	.LVL606:
 595:PCA9959.c     ****             Pin_OE_PCA9959_1_Write(0);
 3373              		.loc 1 595 0
 3374 0802 0021     		movs	r1, #0
 3375 0804 7D20     		movs	r0, #125
 3376 0806 FFF7FEFF 		bl	PCA9959_Write_1
 3377              	.LVL607:
 596:PCA9959.c     ****         }
 3378              		.loc 1 596 0
 3379 080a 0020     		movs	r0, #0
 3380 080c FFF7FEFF 		bl	Pin_OE_PCA9959_1_Write
 3381              	.LVL608:
 3382 0810 38BD     		pop	{r3, r4, r5, pc}
 3383              	.L81:
 599:PCA9959.c     ****         {
 3384              		.loc 1 599 0
 3385 0812 062C     		cmp	r4, #6
 3386 0814 40F0CA80 		bne	.L82
 601:PCA9959.c     ****             PageSel_1(ChSel);
 3387              		.loc 1 601 0
 3388 0818 0120     		movs	r0, #1
 3389 081a FFF7FEFF 		bl	Pin_OE_PCA9959_1_Write
 3390              	.LVL609:
 602:PCA9959.c     ****             PCA9959_Write_1(Ch0_Cf1, 0x01);    //                 //LED Channel 0 is assigned to Gr
 3391              		.loc 1 602 0
 3392 081e 0120     		movs	r0, #1
ARM GAS  C:\Users\Revanth\AppData\Local\Temp\ccqs06ys.s 			page 95


 3393 0820 FFF7FEFF 		bl	PageSel_1
 3394              	.LVL610:
 603:PCA9959.c     ****             PCA9959_Write_1(Ch1_Cf1, 0x00); 
 3395              		.loc 1 603 0
 3396 0824 0121     		movs	r1, #1
 3397 0826 2020     		movs	r0, #32
 3398 0828 FFF7FEFF 		bl	PCA9959_Write_1
 3399              	.LVL611:
 604:PCA9959.c     ****             PCA9959_Write_1(Ch2_Cf1, 0x01);  //
 3400              		.loc 1 604 0
 3401 082c 0021     		movs	r1, #0
 3402 082e 2420     		movs	r0, #36
 3403 0830 FFF7FEFF 		bl	PCA9959_Write_1
 3404              	.LVL612:
 605:PCA9959.c     ****             PCA9959_Write_1(Ch3_Cf1, 0x00); 
 3405              		.loc 1 605 0
 3406 0834 0121     		movs	r1, #1
 3407 0836 2820     		movs	r0, #40
 3408 0838 FFF7FEFF 		bl	PCA9959_Write_1
 3409              	.LVL613:
 606:PCA9959.c     ****             PCA9959_Write_1(Ch4_Cf1, 0x01); //
 3410              		.loc 1 606 0
 3411 083c 0021     		movs	r1, #0
 3412 083e 2C20     		movs	r0, #44
 3413 0840 FFF7FEFF 		bl	PCA9959_Write_1
 3414              	.LVL614:
 607:PCA9959.c     ****             PCA9959_Write_1(Ch5_Cf1, 0x00); 
 3415              		.loc 1 607 0
 3416 0844 0121     		movs	r1, #1
 3417 0846 3020     		movs	r0, #48
 3418 0848 FFF7FEFF 		bl	PCA9959_Write_1
 3419              	.LVL615:
 608:PCA9959.c     ****             PCA9959_Write_1(Ch6_Cf1, 0x00);  
 3420              		.loc 1 608 0
 3421 084c 0021     		movs	r1, #0
 3422 084e 3420     		movs	r0, #52
 3423 0850 FFF7FEFF 		bl	PCA9959_Write_1
 3424              	.LVL616:
 609:PCA9959.c     ****             PCA9959_Write_1(Ch7_Cf1, 0x00); 
 3425              		.loc 1 609 0
 3426 0854 0021     		movs	r1, #0
 3427 0856 3820     		movs	r0, #56
 3428 0858 FFF7FEFF 		bl	PCA9959_Write_1
 3429              	.LVL617:
 610:PCA9959.c     ****             PCA9959_Write_1(Ch8_Cf1, 0x01); //
 3430              		.loc 1 610 0
 3431 085c 0021     		movs	r1, #0
 3432 085e 3C20     		movs	r0, #60
 3433 0860 FFF7FEFF 		bl	PCA9959_Write_1
 3434              	.LVL618:
 611:PCA9959.c     ****             PCA9959_Write_1(Ch9_Cf1, 0x00);  
 3435              		.loc 1 611 0
 3436 0864 0121     		movs	r1, #1
 3437 0866 4020     		movs	r0, #64
 3438 0868 FFF7FEFF 		bl	PCA9959_Write_1
 3439              	.LVL619:
 612:PCA9959.c     ****             PCA9959_Write_1(Ch10_Cf1, 0x00); 
ARM GAS  C:\Users\Revanth\AppData\Local\Temp\ccqs06ys.s 			page 96


 3440              		.loc 1 612 0
 3441 086c 0021     		movs	r1, #0
 3442 086e 4420     		movs	r0, #68
 3443 0870 FFF7FEFF 		bl	PCA9959_Write_1
 3444              	.LVL620:
 613:PCA9959.c     ****             PCA9959_Write_1(Ch11_Cf1, 0x00);
 3445              		.loc 1 613 0
 3446 0874 0021     		movs	r1, #0
 3447 0876 4820     		movs	r0, #72
 3448 0878 FFF7FEFF 		bl	PCA9959_Write_1
 3449              	.LVL621:
 614:PCA9959.c     ****             
 3450              		.loc 1 614 0
 3451 087c 0021     		movs	r1, #0
 3452 087e 4C20     		movs	r0, #76
 3453 0880 FFF7FEFF 		bl	PCA9959_Write_1
 3454              	.LVL622:
 616:PCA9959.c     ****             PCA9959_Write_1(Ch13_Cf1, 0x00); 
 3455              		.loc 1 616 0
 3456 0884 0021     		movs	r1, #0
 3457 0886 5020     		movs	r0, #80
 3458 0888 FFF7FEFF 		bl	PCA9959_Write_1
 3459              	.LVL623:
 617:PCA9959.c     ****             PCA9959_Write_1(Ch14_Cf1, 0x00);
 3460              		.loc 1 617 0
 3461 088c 0021     		movs	r1, #0
 3462 088e 5420     		movs	r0, #84
 3463 0890 FFF7FEFF 		bl	PCA9959_Write_1
 3464              	.LVL624:
 618:PCA9959.c     ****             PCA9959_Write_1(Ch15_Cf1, 0x01); //
 3465              		.loc 1 618 0
 3466 0894 0021     		movs	r1, #0
 3467 0896 5820     		movs	r0, #88
 3468 0898 FFF7FEFF 		bl	PCA9959_Write_1
 3469              	.LVL625:
 619:PCA9959.c     ****             PCA9959_Write_1(Ch16_Cf1, 0x00); 
 3470              		.loc 1 619 0
 3471 089c 0121     		movs	r1, #1
 3472 089e 5C20     		movs	r0, #92
 3473 08a0 FFF7FEFF 		bl	PCA9959_Write_1
 3474              	.LVL626:
 620:PCA9959.c     ****             PCA9959_Write_1(Ch17_Cf1, 0x01); //
 3475              		.loc 1 620 0
 3476 08a4 0021     		movs	r1, #0
 3477 08a6 6020     		movs	r0, #96
 3478 08a8 FFF7FEFF 		bl	PCA9959_Write_1
 3479              	.LVL627:
 621:PCA9959.c     ****             PCA9959_Write_1(Ch18_Cf1, 0x00); 
 3480              		.loc 1 621 0
 3481 08ac 0121     		movs	r1, #1
 3482 08ae 6420     		movs	r0, #100
 3483 08b0 FFF7FEFF 		bl	PCA9959_Write_1
 3484              	.LVL628:
 622:PCA9959.c     ****             PCA9959_Write_1(Ch19_Cf1, 0x00);
 3485              		.loc 1 622 0
 3486 08b4 0021     		movs	r1, #0
 3487 08b6 6820     		movs	r0, #104
ARM GAS  C:\Users\Revanth\AppData\Local\Temp\ccqs06ys.s 			page 97


 3488 08b8 FFF7FEFF 		bl	PCA9959_Write_1
 3489              	.LVL629:
 623:PCA9959.c     ****             PCA9959_Write_1(Ch20_Cf1, 0x00);
 3490              		.loc 1 623 0
 3491 08bc 0021     		movs	r1, #0
 3492 08be 6C20     		movs	r0, #108
 3493 08c0 FFF7FEFF 		bl	PCA9959_Write_1
 3494              	.LVL630:
 624:PCA9959.c     ****             PCA9959_Write_1(Ch21_Cf1, 0x00);
 3495              		.loc 1 624 0
 3496 08c4 0021     		movs	r1, #0
 3497 08c6 7020     		movs	r0, #112
 3498 08c8 FFF7FEFF 		bl	PCA9959_Write_1
 3499              	.LVL631:
 625:PCA9959.c     ****             PCA9959_Write_1(Ch22_Cf1, 0x00);
 3500              		.loc 1 625 0
 3501 08cc 0021     		movs	r1, #0
 3502 08ce 7420     		movs	r0, #116
 3503 08d0 FFF7FEFF 		bl	PCA9959_Write_1
 3504              	.LVL632:
 626:PCA9959.c     ****             PCA9959_Write_1(Ch23_Cf1, 0x00);
 3505              		.loc 1 626 0
 3506 08d4 0021     		movs	r1, #0
 3507 08d6 7820     		movs	r0, #120
 3508 08d8 FFF7FEFF 		bl	PCA9959_Write_1
 3509              	.LVL633:
 627:PCA9959.c     ****             
 3510              		.loc 1 627 0
 3511 08dc 0021     		movs	r1, #0
 3512 08de 7C20     		movs	r0, #124
 3513 08e0 FFF7FEFF 		bl	PCA9959_Write_1
 3514              	.LVL634:
 631:PCA9959.c     ****             PCA9959_Write_1(Ch1_Cf2, 0x00);  
 3515              		.loc 1 631 0
 3516 08e4 2946     		mov	r1, r5
 3517 08e6 2120     		movs	r0, #33
 3518 08e8 FFF7FEFF 		bl	PCA9959_Write_1
 3519              	.LVL635:
 632:PCA9959.c     ****             PCA9959_Write_1(Ch2_Cf2, Brg);  //
 3520              		.loc 1 632 0
 3521 08ec 0021     		movs	r1, #0
 3522 08ee 2520     		movs	r0, #37
 3523 08f0 FFF7FEFF 		bl	PCA9959_Write_1
 3524              	.LVL636:
 633:PCA9959.c     ****             PCA9959_Write_1(Ch3_Cf2, 0x00); 
 3525              		.loc 1 633 0
 3526 08f4 2946     		mov	r1, r5
 3527 08f6 2920     		movs	r0, #41
 3528 08f8 FFF7FEFF 		bl	PCA9959_Write_1
 3529              	.LVL637:
 634:PCA9959.c     ****             PCA9959_Write_1(Ch4_Cf2, Brg); //
 3530              		.loc 1 634 0
 3531 08fc 0021     		movs	r1, #0
 3532 08fe 2D20     		movs	r0, #45
 3533 0900 FFF7FEFF 		bl	PCA9959_Write_1
 3534              	.LVL638:
 635:PCA9959.c     ****             PCA9959_Write_1(Ch5_Cf2, 0x00); 
ARM GAS  C:\Users\Revanth\AppData\Local\Temp\ccqs06ys.s 			page 98


 3535              		.loc 1 635 0
 3536 0904 2946     		mov	r1, r5
 3537 0906 3120     		movs	r0, #49
 3538 0908 FFF7FEFF 		bl	PCA9959_Write_1
 3539              	.LVL639:
 636:PCA9959.c     ****             PCA9959_Write_1(Ch6_Cf2, 0x00); 
 3540              		.loc 1 636 0
 3541 090c 0021     		movs	r1, #0
 3542 090e 3520     		movs	r0, #53
 3543 0910 FFF7FEFF 		bl	PCA9959_Write_1
 3544              	.LVL640:
 637:PCA9959.c     ****             PCA9959_Write_1(Ch7_Cf2, 0x00);
 3545              		.loc 1 637 0
 3546 0914 0021     		movs	r1, #0
 3547 0916 3920     		movs	r0, #57
 3548 0918 FFF7FEFF 		bl	PCA9959_Write_1
 3549              	.LVL641:
 638:PCA9959.c     ****             PCA9959_Write_1(Ch8_Cf2, Brg);  //
 3550              		.loc 1 638 0
 3551 091c 0021     		movs	r1, #0
 3552 091e 3D20     		movs	r0, #61
 3553 0920 FFF7FEFF 		bl	PCA9959_Write_1
 3554              	.LVL642:
 639:PCA9959.c     ****             PCA9959_Write_1(Ch9_Cf2, 0x00);   
 3555              		.loc 1 639 0
 3556 0924 2946     		mov	r1, r5
 3557 0926 4120     		movs	r0, #65
 3558 0928 FFF7FEFF 		bl	PCA9959_Write_1
 3559              	.LVL643:
 640:PCA9959.c     ****             PCA9959_Write_1(Ch10_Cf2, 0x00);
 3560              		.loc 1 640 0
 3561 092c 0021     		movs	r1, #0
 3562 092e 4520     		movs	r0, #69
 3563 0930 FFF7FEFF 		bl	PCA9959_Write_1
 3564              	.LVL644:
 641:PCA9959.c     ****             PCA9959_Write_1(Ch11_Cf2, 0x00);
 3565              		.loc 1 641 0
 3566 0934 0021     		movs	r1, #0
 3567 0936 4920     		movs	r0, #73
 3568 0938 FFF7FEFF 		bl	PCA9959_Write_1
 3569              	.LVL645:
 642:PCA9959.c     ****             
 3570              		.loc 1 642 0
 3571 093c 0021     		movs	r1, #0
 3572 093e 4D20     		movs	r0, #77
 3573 0940 FFF7FEFF 		bl	PCA9959_Write_1
 3574              	.LVL646:
 644:PCA9959.c     ****             PCA9959_Write_1(Ch13_Cf2, 0x00); 
 3575              		.loc 1 644 0
 3576 0944 0021     		movs	r1, #0
 3577 0946 5120     		movs	r0, #81
 3578 0948 FFF7FEFF 		bl	PCA9959_Write_1
 3579              	.LVL647:
 645:PCA9959.c     ****             PCA9959_Write_1(Ch14_Cf2, 0x00);
 3580              		.loc 1 645 0
 3581 094c 0021     		movs	r1, #0
 3582 094e 5520     		movs	r0, #85
ARM GAS  C:\Users\Revanth\AppData\Local\Temp\ccqs06ys.s 			page 99


 3583 0950 FFF7FEFF 		bl	PCA9959_Write_1
 3584              	.LVL648:
 646:PCA9959.c     ****             PCA9959_Write_1(Ch15_Cf2, Brg);  //
 3585              		.loc 1 646 0
 3586 0954 0021     		movs	r1, #0
 3587 0956 5920     		movs	r0, #89
 3588 0958 FFF7FEFF 		bl	PCA9959_Write_1
 3589              	.LVL649:
 647:PCA9959.c     ****             PCA9959_Write_1(Ch16_Cf2, 0x00); 
 3590              		.loc 1 647 0
 3591 095c 2946     		mov	r1, r5
 3592 095e 5D20     		movs	r0, #93
 3593 0960 FFF7FEFF 		bl	PCA9959_Write_1
 3594              	.LVL650:
 648:PCA9959.c     ****             PCA9959_Write_1(Ch17_Cf2, Brg);  //
 3595              		.loc 1 648 0
 3596 0964 0021     		movs	r1, #0
 3597 0966 6120     		movs	r0, #97
 3598 0968 FFF7FEFF 		bl	PCA9959_Write_1
 3599              	.LVL651:
 649:PCA9959.c     ****             PCA9959_Write_1(Ch18_Cf2, 0x00);  
 3600              		.loc 1 649 0
 3601 096c 2946     		mov	r1, r5
 3602 096e 6520     		movs	r0, #101
 3603 0970 FFF7FEFF 		bl	PCA9959_Write_1
 3604              	.LVL652:
 650:PCA9959.c     ****             PCA9959_Write_1(Ch19_Cf2, 0x00);
 3605              		.loc 1 650 0
 3606 0974 0021     		movs	r1, #0
 3607 0976 6920     		movs	r0, #105
 3608 0978 FFF7FEFF 		bl	PCA9959_Write_1
 3609              	.LVL653:
 651:PCA9959.c     ****             PCA9959_Write_1(Ch20_Cf2, 0x00);
 3610              		.loc 1 651 0
 3611 097c 0021     		movs	r1, #0
 3612 097e 6D20     		movs	r0, #109
 3613 0980 FFF7FEFF 		bl	PCA9959_Write_1
 3614              	.LVL654:
 652:PCA9959.c     ****             PCA9959_Write_1(Ch21_Cf2, 0x00);
 3615              		.loc 1 652 0
 3616 0984 0021     		movs	r1, #0
 3617 0986 7120     		movs	r0, #113
 3618 0988 FFF7FEFF 		bl	PCA9959_Write_1
 3619              	.LVL655:
 653:PCA9959.c     ****             PCA9959_Write_1(Ch22_Cf2, 0x00);
 3620              		.loc 1 653 0
 3621 098c 0021     		movs	r1, #0
 3622 098e 7520     		movs	r0, #117
 3623 0990 FFF7FEFF 		bl	PCA9959_Write_1
 3624              	.LVL656:
 654:PCA9959.c     ****             PCA9959_Write_1(Ch23_Cf2, 0x00);
 3625              		.loc 1 654 0
 3626 0994 0021     		movs	r1, #0
 3627 0996 7920     		movs	r0, #121
 3628 0998 FFF7FEFF 		bl	PCA9959_Write_1
 3629              	.LVL657:
 655:PCA9959.c     ****             Pin_OE_PCA9959_1_Write(0);
ARM GAS  C:\Users\Revanth\AppData\Local\Temp\ccqs06ys.s 			page 100


 3630              		.loc 1 655 0
 3631 099c 0021     		movs	r1, #0
 3632 099e 7D20     		movs	r0, #125
 3633 09a0 FFF7FEFF 		bl	PCA9959_Write_1
 3634              	.LVL658:
 656:PCA9959.c     ****         }
 3635              		.loc 1 656 0
 3636 09a4 0020     		movs	r0, #0
 3637 09a6 FFF7FEFF 		bl	Pin_OE_PCA9959_1_Write
 3638              	.LVL659:
 3639 09aa 38BD     		pop	{r3, r4, r5, pc}
 3640              	.L82:
 659:PCA9959.c     ****         {
 3641              		.loc 1 659 0
 3642 09ac 072C     		cmp	r4, #7
 3643 09ae 40F0CA80 		bne	.L83
 661:PCA9959.c     ****             PageSel_1(ChSel);
 3644              		.loc 1 661 0
 3645 09b2 0120     		movs	r0, #1
 3646 09b4 FFF7FEFF 		bl	Pin_OE_PCA9959_1_Write
 3647              	.LVL660:
 662:PCA9959.c     ****             PCA9959_Write_1(Ch0_Cf1, 0x01);  //                     //LED Channel 0 is assigned to 
 3648              		.loc 1 662 0
 3649 09b8 0120     		movs	r0, #1
 3650 09ba FFF7FEFF 		bl	PageSel_1
 3651              	.LVL661:
 663:PCA9959.c     ****             PCA9959_Write_1(Ch1_Cf1, 0x01); //
 3652              		.loc 1 663 0
 3653 09be 0121     		movs	r1, #1
 3654 09c0 2020     		movs	r0, #32
 3655 09c2 FFF7FEFF 		bl	PCA9959_Write_1
 3656              	.LVL662:
 664:PCA9959.c     ****             PCA9959_Write_1(Ch2_Cf1, 0x01); //
 3657              		.loc 1 664 0
 3658 09c6 0121     		movs	r1, #1
 3659 09c8 2420     		movs	r0, #36
 3660 09ca FFF7FEFF 		bl	PCA9959_Write_1
 3661              	.LVL663:
 665:PCA9959.c     ****             PCA9959_Write_1(Ch3_Cf1, 0x01); //
 3662              		.loc 1 665 0
 3663 09ce 0121     		movs	r1, #1
 3664 09d0 2820     		movs	r0, #40
 3665 09d2 FFF7FEFF 		bl	PCA9959_Write_1
 3666              	.LVL664:
 666:PCA9959.c     ****             PCA9959_Write_1(Ch4_Cf1, 0x01); //
 3667              		.loc 1 666 0
 3668 09d6 0121     		movs	r1, #1
 3669 09d8 2C20     		movs	r0, #44
 3670 09da FFF7FEFF 		bl	PCA9959_Write_1
 3671              	.LVL665:
 667:PCA9959.c     ****             PCA9959_Write_1(Ch5_Cf1, 0x01); //
 3672              		.loc 1 667 0
 3673 09de 0121     		movs	r1, #1
 3674 09e0 3020     		movs	r0, #48
 3675 09e2 FFF7FEFF 		bl	PCA9959_Write_1
 3676              	.LVL666:
 668:PCA9959.c     ****             PCA9959_Write_1(Ch6_Cf1, 0x00);  
ARM GAS  C:\Users\Revanth\AppData\Local\Temp\ccqs06ys.s 			page 101


 3677              		.loc 1 668 0
 3678 09e6 0121     		movs	r1, #1
 3679 09e8 3420     		movs	r0, #52
 3680 09ea FFF7FEFF 		bl	PCA9959_Write_1
 3681              	.LVL667:
 669:PCA9959.c     ****             PCA9959_Write_1(Ch7_Cf1, 0x00); 
 3682              		.loc 1 669 0
 3683 09ee 0021     		movs	r1, #0
 3684 09f0 3820     		movs	r0, #56
 3685 09f2 FFF7FEFF 		bl	PCA9959_Write_1
 3686              	.LVL668:
 670:PCA9959.c     ****             PCA9959_Write_1(Ch8_Cf1, 0x01); //
 3687              		.loc 1 670 0
 3688 09f6 0021     		movs	r1, #0
 3689 09f8 3C20     		movs	r0, #60
 3690 09fa FFF7FEFF 		bl	PCA9959_Write_1
 3691              	.LVL669:
 671:PCA9959.c     ****             PCA9959_Write_1(Ch9_Cf1, 0x00);  
 3692              		.loc 1 671 0
 3693 09fe 0121     		movs	r1, #1
 3694 0a00 4020     		movs	r0, #64
 3695 0a02 FFF7FEFF 		bl	PCA9959_Write_1
 3696              	.LVL670:
 672:PCA9959.c     ****             PCA9959_Write_1(Ch10_Cf1, 0x00); 
 3697              		.loc 1 672 0
 3698 0a06 0021     		movs	r1, #0
 3699 0a08 4420     		movs	r0, #68
 3700 0a0a FFF7FEFF 		bl	PCA9959_Write_1
 3701              	.LVL671:
 673:PCA9959.c     ****             PCA9959_Write_1(Ch11_Cf1, 0x00);
 3702              		.loc 1 673 0
 3703 0a0e 0021     		movs	r1, #0
 3704 0a10 4820     		movs	r0, #72
 3705 0a12 FFF7FEFF 		bl	PCA9959_Write_1
 3706              	.LVL672:
 674:PCA9959.c     ****             
 3707              		.loc 1 674 0
 3708 0a16 0021     		movs	r1, #0
 3709 0a18 4C20     		movs	r0, #76
 3710 0a1a FFF7FEFF 		bl	PCA9959_Write_1
 3711              	.LVL673:
 676:PCA9959.c     ****             PCA9959_Write_1(Ch13_Cf1, 0x00); 
 3712              		.loc 1 676 0
 3713 0a1e 0121     		movs	r1, #1
 3714 0a20 5020     		movs	r0, #80
 3715 0a22 FFF7FEFF 		bl	PCA9959_Write_1
 3716              	.LVL674:
 677:PCA9959.c     ****             PCA9959_Write_1(Ch14_Cf1, 0x00);
 3717              		.loc 1 677 0
 3718 0a26 0021     		movs	r1, #0
 3719 0a28 5420     		movs	r0, #84
 3720 0a2a FFF7FEFF 		bl	PCA9959_Write_1
 3721              	.LVL675:
 678:PCA9959.c     ****             PCA9959_Write_1(Ch15_Cf1, 0x01); //
 3722              		.loc 1 678 0
 3723 0a2e 0021     		movs	r1, #0
 3724 0a30 5820     		movs	r0, #88
ARM GAS  C:\Users\Revanth\AppData\Local\Temp\ccqs06ys.s 			page 102


 3725 0a32 FFF7FEFF 		bl	PCA9959_Write_1
 3726              	.LVL676:
 679:PCA9959.c     ****             PCA9959_Write_1(Ch16_Cf1, 0x01); // 
 3727              		.loc 1 679 0
 3728 0a36 0121     		movs	r1, #1
 3729 0a38 5C20     		movs	r0, #92
 3730 0a3a FFF7FEFF 		bl	PCA9959_Write_1
 3731              	.LVL677:
 680:PCA9959.c     ****             PCA9959_Write_1(Ch17_Cf1, 0x01); //
 3732              		.loc 1 680 0
 3733 0a3e 0121     		movs	r1, #1
 3734 0a40 6020     		movs	r0, #96
 3735 0a42 FFF7FEFF 		bl	PCA9959_Write_1
 3736              	.LVL678:
 681:PCA9959.c     ****             PCA9959_Write_1(Ch18_Cf1, 0x01); //
 3737              		.loc 1 681 0
 3738 0a46 0121     		movs	r1, #1
 3739 0a48 6420     		movs	r0, #100
 3740 0a4a FFF7FEFF 		bl	PCA9959_Write_1
 3741              	.LVL679:
 682:PCA9959.c     ****             PCA9959_Write_1(Ch19_Cf1, 0x00);
 3742              		.loc 1 682 0
 3743 0a4e 0121     		movs	r1, #1
 3744 0a50 6820     		movs	r0, #104
 3745 0a52 FFF7FEFF 		bl	PCA9959_Write_1
 3746              	.LVL680:
 683:PCA9959.c     ****             PCA9959_Write_1(Ch20_Cf1, 0x00);
 3747              		.loc 1 683 0
 3748 0a56 0021     		movs	r1, #0
 3749 0a58 6C20     		movs	r0, #108
 3750 0a5a FFF7FEFF 		bl	PCA9959_Write_1
 3751              	.LVL681:
 684:PCA9959.c     ****             PCA9959_Write_1(Ch21_Cf1, 0x00);
 3752              		.loc 1 684 0
 3753 0a5e 0021     		movs	r1, #0
 3754 0a60 7020     		movs	r0, #112
 3755 0a62 FFF7FEFF 		bl	PCA9959_Write_1
 3756              	.LVL682:
 685:PCA9959.c     ****             PCA9959_Write_1(Ch22_Cf1, 0x00);
 3757              		.loc 1 685 0
 3758 0a66 0021     		movs	r1, #0
 3759 0a68 7420     		movs	r0, #116
 3760 0a6a FFF7FEFF 		bl	PCA9959_Write_1
 3761              	.LVL683:
 686:PCA9959.c     ****             PCA9959_Write_1(Ch23_Cf1, 0x00);
 3762              		.loc 1 686 0
 3763 0a6e 0021     		movs	r1, #0
 3764 0a70 7820     		movs	r0, #120
 3765 0a72 FFF7FEFF 		bl	PCA9959_Write_1
 3766              	.LVL684:
 687:PCA9959.c     ****             
 3767              		.loc 1 687 0
 3768 0a76 0021     		movs	r1, #0
 3769 0a78 7C20     		movs	r0, #124
 3770 0a7a FFF7FEFF 		bl	PCA9959_Write_1
 3771              	.LVL685:
 691:PCA9959.c     ****             PCA9959_Write_1(Ch1_Cf2, Brg);  //
ARM GAS  C:\Users\Revanth\AppData\Local\Temp\ccqs06ys.s 			page 103


 3772              		.loc 1 691 0
 3773 0a7e 2946     		mov	r1, r5
 3774 0a80 2120     		movs	r0, #33
 3775 0a82 FFF7FEFF 		bl	PCA9959_Write_1
 3776              	.LVL686:
 692:PCA9959.c     ****             PCA9959_Write_1(Ch2_Cf2, Brg);  //
 3777              		.loc 1 692 0
 3778 0a86 2946     		mov	r1, r5
 3779 0a88 2520     		movs	r0, #37
 3780 0a8a FFF7FEFF 		bl	PCA9959_Write_1
 3781              	.LVL687:
 693:PCA9959.c     ****             PCA9959_Write_1(Ch3_Cf2, Brg); // 
 3782              		.loc 1 693 0
 3783 0a8e 2946     		mov	r1, r5
 3784 0a90 2920     		movs	r0, #41
 3785 0a92 FFF7FEFF 		bl	PCA9959_Write_1
 3786              	.LVL688:
 694:PCA9959.c     ****             PCA9959_Write_1(Ch4_Cf2, Brg); //
 3787              		.loc 1 694 0
 3788 0a96 2946     		mov	r1, r5
 3789 0a98 2D20     		movs	r0, #45
 3790 0a9a FFF7FEFF 		bl	PCA9959_Write_1
 3791              	.LVL689:
 695:PCA9959.c     ****             PCA9959_Write_1(Ch5_Cf2, Brg); //
 3792              		.loc 1 695 0
 3793 0a9e 2946     		mov	r1, r5
 3794 0aa0 3120     		movs	r0, #49
 3795 0aa2 FFF7FEFF 		bl	PCA9959_Write_1
 3796              	.LVL690:
 696:PCA9959.c     ****             PCA9959_Write_1(Ch6_Cf2, 0x00); 
 3797              		.loc 1 696 0
 3798 0aa6 2946     		mov	r1, r5
 3799 0aa8 3520     		movs	r0, #53
 3800 0aaa FFF7FEFF 		bl	PCA9959_Write_1
 3801              	.LVL691:
 697:PCA9959.c     ****             PCA9959_Write_1(Ch7_Cf2, 0x00);
 3802              		.loc 1 697 0
 3803 0aae 0021     		movs	r1, #0
 3804 0ab0 3920     		movs	r0, #57
 3805 0ab2 FFF7FEFF 		bl	PCA9959_Write_1
 3806              	.LVL692:
 698:PCA9959.c     ****             PCA9959_Write_1(Ch8_Cf2, Brg);  //
 3807              		.loc 1 698 0
 3808 0ab6 0021     		movs	r1, #0
 3809 0ab8 3D20     		movs	r0, #61
 3810 0aba FFF7FEFF 		bl	PCA9959_Write_1
 3811              	.LVL693:
 699:PCA9959.c     ****             PCA9959_Write_1(Ch9_Cf2, 0x00);   
 3812              		.loc 1 699 0
 3813 0abe 2946     		mov	r1, r5
 3814 0ac0 4120     		movs	r0, #65
 3815 0ac2 FFF7FEFF 		bl	PCA9959_Write_1
 3816              	.LVL694:
 700:PCA9959.c     ****             PCA9959_Write_1(Ch10_Cf2, 0x00);
 3817              		.loc 1 700 0
 3818 0ac6 0021     		movs	r1, #0
 3819 0ac8 4520     		movs	r0, #69
ARM GAS  C:\Users\Revanth\AppData\Local\Temp\ccqs06ys.s 			page 104


 3820 0aca FFF7FEFF 		bl	PCA9959_Write_1
 3821              	.LVL695:
 701:PCA9959.c     ****             PCA9959_Write_1(Ch11_Cf2, 0x00);
 3822              		.loc 1 701 0
 3823 0ace 0021     		movs	r1, #0
 3824 0ad0 4920     		movs	r0, #73
 3825 0ad2 FFF7FEFF 		bl	PCA9959_Write_1
 3826              	.LVL696:
 702:PCA9959.c     ****             
 3827              		.loc 1 702 0
 3828 0ad6 0021     		movs	r1, #0
 3829 0ad8 4D20     		movs	r0, #77
 3830 0ada FFF7FEFF 		bl	PCA9959_Write_1
 3831              	.LVL697:
 704:PCA9959.c     ****             PCA9959_Write_1(Ch13_Cf2, 0x00); 
 3832              		.loc 1 704 0
 3833 0ade 2946     		mov	r1, r5
 3834 0ae0 5120     		movs	r0, #81
 3835 0ae2 FFF7FEFF 		bl	PCA9959_Write_1
 3836              	.LVL698:
 705:PCA9959.c     ****             PCA9959_Write_1(Ch14_Cf2, 0x00);
 3837              		.loc 1 705 0
 3838 0ae6 0021     		movs	r1, #0
 3839 0ae8 5520     		movs	r0, #85
 3840 0aea FFF7FEFF 		bl	PCA9959_Write_1
 3841              	.LVL699:
 706:PCA9959.c     ****             PCA9959_Write_1(Ch15_Cf2, Brg);  //
 3842              		.loc 1 706 0
 3843 0aee 0021     		movs	r1, #0
 3844 0af0 5920     		movs	r0, #89
 3845 0af2 FFF7FEFF 		bl	PCA9959_Write_1
 3846              	.LVL700:
 707:PCA9959.c     ****             PCA9959_Write_1(Ch16_Cf2, Brg); //
 3847              		.loc 1 707 0
 3848 0af6 2946     		mov	r1, r5
 3849 0af8 5D20     		movs	r0, #93
 3850 0afa FFF7FEFF 		bl	PCA9959_Write_1
 3851              	.LVL701:
 708:PCA9959.c     ****             PCA9959_Write_1(Ch17_Cf2, Brg);  //
 3852              		.loc 1 708 0
 3853 0afe 2946     		mov	r1, r5
 3854 0b00 6120     		movs	r0, #97
 3855 0b02 FFF7FEFF 		bl	PCA9959_Write_1
 3856              	.LVL702:
 709:PCA9959.c     ****             PCA9959_Write_1(Ch18_Cf2, Brg);  //
 3857              		.loc 1 709 0
 3858 0b06 2946     		mov	r1, r5
 3859 0b08 6520     		movs	r0, #101
 3860 0b0a FFF7FEFF 		bl	PCA9959_Write_1
 3861              	.LVL703:
 710:PCA9959.c     ****             PCA9959_Write_1(Ch19_Cf2, 0x00);
 3862              		.loc 1 710 0
 3863 0b0e 2946     		mov	r1, r5
 3864 0b10 6920     		movs	r0, #105
 3865 0b12 FFF7FEFF 		bl	PCA9959_Write_1
 3866              	.LVL704:
 711:PCA9959.c     ****             PCA9959_Write_1(Ch20_Cf2, 0x00);
ARM GAS  C:\Users\Revanth\AppData\Local\Temp\ccqs06ys.s 			page 105


 3867              		.loc 1 711 0
 3868 0b16 0021     		movs	r1, #0
 3869 0b18 6D20     		movs	r0, #109
 3870 0b1a FFF7FEFF 		bl	PCA9959_Write_1
 3871              	.LVL705:
 712:PCA9959.c     ****             PCA9959_Write_1(Ch21_Cf2, 0x00);
 3872              		.loc 1 712 0
 3873 0b1e 0021     		movs	r1, #0
 3874 0b20 7120     		movs	r0, #113
 3875 0b22 FFF7FEFF 		bl	PCA9959_Write_1
 3876              	.LVL706:
 713:PCA9959.c     ****             PCA9959_Write_1(Ch22_Cf2, 0x00);
 3877              		.loc 1 713 0
 3878 0b26 0021     		movs	r1, #0
 3879 0b28 7520     		movs	r0, #117
 3880 0b2a FFF7FEFF 		bl	PCA9959_Write_1
 3881              	.LVL707:
 714:PCA9959.c     ****             PCA9959_Write_1(Ch23_Cf2, 0x00);
 3882              		.loc 1 714 0
 3883 0b2e 0021     		movs	r1, #0
 3884 0b30 7920     		movs	r0, #121
 3885 0b32 FFF7FEFF 		bl	PCA9959_Write_1
 3886              	.LVL708:
 715:PCA9959.c     ****             Pin_OE_PCA9959_1_Write(0);
 3887              		.loc 1 715 0
 3888 0b36 0021     		movs	r1, #0
 3889 0b38 7D20     		movs	r0, #125
 3890 0b3a FFF7FEFF 		bl	PCA9959_Write_1
 3891              	.LVL709:
 716:PCA9959.c     ****         }
 3892              		.loc 1 716 0
 3893 0b3e 0020     		movs	r0, #0
 3894 0b40 FFF7FEFF 		bl	Pin_OE_PCA9959_1_Write
 3895              	.LVL710:
 3896 0b44 38BD     		pop	{r3, r4, r5, pc}
 3897              	.L83:
 719:PCA9959.c     ****         {
 3898              		.loc 1 719 0
 3899 0b46 082C     		cmp	r4, #8
 3900 0b48 40F0CA80 		bne	.L84
 721:PCA9959.c     ****             PageSel_1(ChSel);
 3901              		.loc 1 721 0
 3902 0b4c 0120     		movs	r0, #1
 3903 0b4e FFF7FEFF 		bl	Pin_OE_PCA9959_1_Write
 3904              	.LVL711:
 722:PCA9959.c     ****             PCA9959_Write_1(Ch0_Cf1, 0x01);  //                     //LED Channel 0 is assigned to 
 3905              		.loc 1 722 0
 3906 0b52 0120     		movs	r0, #1
 3907 0b54 FFF7FEFF 		bl	PageSel_1
 3908              	.LVL712:
 723:PCA9959.c     ****             PCA9959_Write_1(Ch1_Cf1, 0x01); //
 3909              		.loc 1 723 0
 3910 0b58 0121     		movs	r1, #1
 3911 0b5a 2020     		movs	r0, #32
 3912 0b5c FFF7FEFF 		bl	PCA9959_Write_1
 3913              	.LVL713:
 724:PCA9959.c     ****             PCA9959_Write_1(Ch2_Cf1, 0x01); //
ARM GAS  C:\Users\Revanth\AppData\Local\Temp\ccqs06ys.s 			page 106


 3914              		.loc 1 724 0
 3915 0b60 0121     		movs	r1, #1
 3916 0b62 2420     		movs	r0, #36
 3917 0b64 FFF7FEFF 		bl	PCA9959_Write_1
 3918              	.LVL714:
 725:PCA9959.c     ****             PCA9959_Write_1(Ch3_Cf1, 0x01); //
 3919              		.loc 1 725 0
 3920 0b68 0121     		movs	r1, #1
 3921 0b6a 2820     		movs	r0, #40
 3922 0b6c FFF7FEFF 		bl	PCA9959_Write_1
 3923              	.LVL715:
 726:PCA9959.c     ****             PCA9959_Write_1(Ch4_Cf1, 0x01); //
 3924              		.loc 1 726 0
 3925 0b70 0121     		movs	r1, #1
 3926 0b72 2C20     		movs	r0, #44
 3927 0b74 FFF7FEFF 		bl	PCA9959_Write_1
 3928              	.LVL716:
 727:PCA9959.c     ****             PCA9959_Write_1(Ch5_Cf1, 0x01); //
 3929              		.loc 1 727 0
 3930 0b78 0121     		movs	r1, #1
 3931 0b7a 3020     		movs	r0, #48
 3932 0b7c FFF7FEFF 		bl	PCA9959_Write_1
 3933              	.LVL717:
 728:PCA9959.c     ****             PCA9959_Write_1(Ch6_Cf1, 0x01);  
 3934              		.loc 1 728 0
 3935 0b80 0121     		movs	r1, #1
 3936 0b82 3420     		movs	r0, #52
 3937 0b84 FFF7FEFF 		bl	PCA9959_Write_1
 3938              	.LVL718:
 729:PCA9959.c     ****             PCA9959_Write_1(Ch7_Cf1, 0x01); 
 3939              		.loc 1 729 0
 3940 0b88 0121     		movs	r1, #1
 3941 0b8a 3820     		movs	r0, #56
 3942 0b8c FFF7FEFF 		bl	PCA9959_Write_1
 3943              	.LVL719:
 730:PCA9959.c     ****             PCA9959_Write_1(Ch8_Cf1, 0x01); //
 3944              		.loc 1 730 0
 3945 0b90 0121     		movs	r1, #1
 3946 0b92 3C20     		movs	r0, #60
 3947 0b94 FFF7FEFF 		bl	PCA9959_Write_1
 3948              	.LVL720:
 731:PCA9959.c     ****             PCA9959_Write_1(Ch9_Cf1, 0x01);  
 3949              		.loc 1 731 0
 3950 0b98 0121     		movs	r1, #1
 3951 0b9a 4020     		movs	r0, #64
 3952 0b9c FFF7FEFF 		bl	PCA9959_Write_1
 3953              	.LVL721:
 732:PCA9959.c     ****             PCA9959_Write_1(Ch10_Cf1, 0x01); 
 3954              		.loc 1 732 0
 3955 0ba0 0121     		movs	r1, #1
 3956 0ba2 4420     		movs	r0, #68
 3957 0ba4 FFF7FEFF 		bl	PCA9959_Write_1
 3958              	.LVL722:
 733:PCA9959.c     ****             PCA9959_Write_1(Ch11_Cf1, 0x01);
 3959              		.loc 1 733 0
 3960 0ba8 0121     		movs	r1, #1
 3961 0baa 4820     		movs	r0, #72
ARM GAS  C:\Users\Revanth\AppData\Local\Temp\ccqs06ys.s 			page 107


 3962 0bac FFF7FEFF 		bl	PCA9959_Write_1
 3963              	.LVL723:
 734:PCA9959.c     ****             
 3964              		.loc 1 734 0
 3965 0bb0 0121     		movs	r1, #1
 3966 0bb2 4C20     		movs	r0, #76
 3967 0bb4 FFF7FEFF 		bl	PCA9959_Write_1
 3968              	.LVL724:
 736:PCA9959.c     ****             PCA9959_Write_1(Ch13_Cf1, 0x01); 
 3969              		.loc 1 736 0
 3970 0bb8 0121     		movs	r1, #1
 3971 0bba 5020     		movs	r0, #80
 3972 0bbc FFF7FEFF 		bl	PCA9959_Write_1
 3973              	.LVL725:
 737:PCA9959.c     ****             PCA9959_Write_1(Ch14_Cf1, 0x01);
 3974              		.loc 1 737 0
 3975 0bc0 0121     		movs	r1, #1
 3976 0bc2 5420     		movs	r0, #84
 3977 0bc4 FFF7FEFF 		bl	PCA9959_Write_1
 3978              	.LVL726:
 738:PCA9959.c     ****             PCA9959_Write_1(Ch15_Cf1, 0x01); //
 3979              		.loc 1 738 0
 3980 0bc8 0121     		movs	r1, #1
 3981 0bca 5820     		movs	r0, #88
 3982 0bcc FFF7FEFF 		bl	PCA9959_Write_1
 3983              	.LVL727:
 739:PCA9959.c     ****             PCA9959_Write_1(Ch16_Cf1, 0x01); // 
 3984              		.loc 1 739 0
 3985 0bd0 0121     		movs	r1, #1
 3986 0bd2 5C20     		movs	r0, #92
 3987 0bd4 FFF7FEFF 		bl	PCA9959_Write_1
 3988              	.LVL728:
 740:PCA9959.c     ****             PCA9959_Write_1(Ch17_Cf1, 0x01); //
 3989              		.loc 1 740 0
 3990 0bd8 0121     		movs	r1, #1
 3991 0bda 6020     		movs	r0, #96
 3992 0bdc FFF7FEFF 		bl	PCA9959_Write_1
 3993              	.LVL729:
 741:PCA9959.c     ****             PCA9959_Write_1(Ch18_Cf1, 0x01); //
 3994              		.loc 1 741 0
 3995 0be0 0121     		movs	r1, #1
 3996 0be2 6420     		movs	r0, #100
 3997 0be4 FFF7FEFF 		bl	PCA9959_Write_1
 3998              	.LVL730:
 742:PCA9959.c     ****             PCA9959_Write_1(Ch19_Cf1, 0x01);
 3999              		.loc 1 742 0
 4000 0be8 0121     		movs	r1, #1
 4001 0bea 6820     		movs	r0, #104
 4002 0bec FFF7FEFF 		bl	PCA9959_Write_1
 4003              	.LVL731:
 743:PCA9959.c     ****             PCA9959_Write_1(Ch20_Cf1, 0x01);
 4004              		.loc 1 743 0
 4005 0bf0 0121     		movs	r1, #1
 4006 0bf2 6C20     		movs	r0, #108
 4007 0bf4 FFF7FEFF 		bl	PCA9959_Write_1
 4008              	.LVL732:
 744:PCA9959.c     ****             PCA9959_Write_1(Ch21_Cf1, 0x01);
ARM GAS  C:\Users\Revanth\AppData\Local\Temp\ccqs06ys.s 			page 108


 4009              		.loc 1 744 0
 4010 0bf8 0121     		movs	r1, #1
 4011 0bfa 7020     		movs	r0, #112
 4012 0bfc FFF7FEFF 		bl	PCA9959_Write_1
 4013              	.LVL733:
 745:PCA9959.c     ****             PCA9959_Write_1(Ch22_Cf1, 0x01);
 4014              		.loc 1 745 0
 4015 0c00 0121     		movs	r1, #1
 4016 0c02 7420     		movs	r0, #116
 4017 0c04 FFF7FEFF 		bl	PCA9959_Write_1
 4018              	.LVL734:
 746:PCA9959.c     ****             PCA9959_Write_1(Ch23_Cf1, 0x01);
 4019              		.loc 1 746 0
 4020 0c08 0121     		movs	r1, #1
 4021 0c0a 7820     		movs	r0, #120
 4022 0c0c FFF7FEFF 		bl	PCA9959_Write_1
 4023              	.LVL735:
 747:PCA9959.c     ****             
 4024              		.loc 1 747 0
 4025 0c10 0121     		movs	r1, #1
 4026 0c12 7C20     		movs	r0, #124
 4027 0c14 FFF7FEFF 		bl	PCA9959_Write_1
 4028              	.LVL736:
 751:PCA9959.c     ****             PCA9959_Write_1(Ch1_Cf2, Brg);  //
 4029              		.loc 1 751 0
 4030 0c18 2946     		mov	r1, r5
 4031 0c1a 2120     		movs	r0, #33
 4032 0c1c FFF7FEFF 		bl	PCA9959_Write_1
 4033              	.LVL737:
 752:PCA9959.c     ****             PCA9959_Write_1(Ch2_Cf2, Brg);  //
 4034              		.loc 1 752 0
 4035 0c20 2946     		mov	r1, r5
 4036 0c22 2520     		movs	r0, #37
 4037 0c24 FFF7FEFF 		bl	PCA9959_Write_1
 4038              	.LVL738:
 753:PCA9959.c     ****             PCA9959_Write_1(Ch3_Cf2, Brg); // 
 4039              		.loc 1 753 0
 4040 0c28 2946     		mov	r1, r5
 4041 0c2a 2920     		movs	r0, #41
 4042 0c2c FFF7FEFF 		bl	PCA9959_Write_1
 4043              	.LVL739:
 754:PCA9959.c     ****             PCA9959_Write_1(Ch4_Cf2, Brg); //
 4044              		.loc 1 754 0
 4045 0c30 2946     		mov	r1, r5
 4046 0c32 2D20     		movs	r0, #45
 4047 0c34 FFF7FEFF 		bl	PCA9959_Write_1
 4048              	.LVL740:
 755:PCA9959.c     ****             PCA9959_Write_1(Ch5_Cf2, Brg); //
 4049              		.loc 1 755 0
 4050 0c38 2946     		mov	r1, r5
 4051 0c3a 3120     		movs	r0, #49
 4052 0c3c FFF7FEFF 		bl	PCA9959_Write_1
 4053              	.LVL741:
 756:PCA9959.c     ****             PCA9959_Write_1(Ch6_Cf2, Brg); 
 4054              		.loc 1 756 0
 4055 0c40 2946     		mov	r1, r5
 4056 0c42 3520     		movs	r0, #53
ARM GAS  C:\Users\Revanth\AppData\Local\Temp\ccqs06ys.s 			page 109


 4057 0c44 FFF7FEFF 		bl	PCA9959_Write_1
 4058              	.LVL742:
 757:PCA9959.c     ****             PCA9959_Write_1(Ch7_Cf2, Brg);
 4059              		.loc 1 757 0
 4060 0c48 2946     		mov	r1, r5
 4061 0c4a 3920     		movs	r0, #57
 4062 0c4c FFF7FEFF 		bl	PCA9959_Write_1
 4063              	.LVL743:
 758:PCA9959.c     ****             PCA9959_Write_1(Ch8_Cf2, Brg);  //
 4064              		.loc 1 758 0
 4065 0c50 2946     		mov	r1, r5
 4066 0c52 3D20     		movs	r0, #61
 4067 0c54 FFF7FEFF 		bl	PCA9959_Write_1
 4068              	.LVL744:
 759:PCA9959.c     ****             PCA9959_Write_1(Ch9_Cf2, Brg);   
 4069              		.loc 1 759 0
 4070 0c58 2946     		mov	r1, r5
 4071 0c5a 4120     		movs	r0, #65
 4072 0c5c FFF7FEFF 		bl	PCA9959_Write_1
 4073              	.LVL745:
 760:PCA9959.c     ****             PCA9959_Write_1(Ch10_Cf2, Brg);
 4074              		.loc 1 760 0
 4075 0c60 2946     		mov	r1, r5
 4076 0c62 4520     		movs	r0, #69
 4077 0c64 FFF7FEFF 		bl	PCA9959_Write_1
 4078              	.LVL746:
 761:PCA9959.c     ****             PCA9959_Write_1(Ch11_Cf2, Brg);
 4079              		.loc 1 761 0
 4080 0c68 2946     		mov	r1, r5
 4081 0c6a 4920     		movs	r0, #73
 4082 0c6c FFF7FEFF 		bl	PCA9959_Write_1
 4083              	.LVL747:
 762:PCA9959.c     ****             
 4084              		.loc 1 762 0
 4085 0c70 2946     		mov	r1, r5
 4086 0c72 4D20     		movs	r0, #77
 4087 0c74 FFF7FEFF 		bl	PCA9959_Write_1
 4088              	.LVL748:
 764:PCA9959.c     ****             PCA9959_Write_1(Ch13_Cf2, Brg); 
 4089              		.loc 1 764 0
 4090 0c78 2946     		mov	r1, r5
 4091 0c7a 5120     		movs	r0, #81
 4092 0c7c FFF7FEFF 		bl	PCA9959_Write_1
 4093              	.LVL749:
 765:PCA9959.c     ****             PCA9959_Write_1(Ch14_Cf2, Brg);
 4094              		.loc 1 765 0
 4095 0c80 2946     		mov	r1, r5
 4096 0c82 5520     		movs	r0, #85
 4097 0c84 FFF7FEFF 		bl	PCA9959_Write_1
 4098              	.LVL750:
 766:PCA9959.c     ****             PCA9959_Write_1(Ch15_Cf2, Brg);  //
 4099              		.loc 1 766 0
 4100 0c88 2946     		mov	r1, r5
 4101 0c8a 5920     		movs	r0, #89
 4102 0c8c FFF7FEFF 		bl	PCA9959_Write_1
 4103              	.LVL751:
 767:PCA9959.c     ****             PCA9959_Write_1(Ch16_Cf2, Brg); //
ARM GAS  C:\Users\Revanth\AppData\Local\Temp\ccqs06ys.s 			page 110


 4104              		.loc 1 767 0
 4105 0c90 2946     		mov	r1, r5
 4106 0c92 5D20     		movs	r0, #93
 4107 0c94 FFF7FEFF 		bl	PCA9959_Write_1
 4108              	.LVL752:
 768:PCA9959.c     ****             PCA9959_Write_1(Ch17_Cf2, Brg);  //
 4109              		.loc 1 768 0
 4110 0c98 2946     		mov	r1, r5
 4111 0c9a 6120     		movs	r0, #97
 4112 0c9c FFF7FEFF 		bl	PCA9959_Write_1
 4113              	.LVL753:
 769:PCA9959.c     ****             PCA9959_Write_1(Ch18_Cf2, Brg);  //
 4114              		.loc 1 769 0
 4115 0ca0 2946     		mov	r1, r5
 4116 0ca2 6520     		movs	r0, #101
 4117 0ca4 FFF7FEFF 		bl	PCA9959_Write_1
 4118              	.LVL754:
 770:PCA9959.c     ****             PCA9959_Write_1(Ch19_Cf2, Brg);
 4119              		.loc 1 770 0
 4120 0ca8 2946     		mov	r1, r5
 4121 0caa 6920     		movs	r0, #105
 4122 0cac FFF7FEFF 		bl	PCA9959_Write_1
 4123              	.LVL755:
 771:PCA9959.c     ****             PCA9959_Write_1(Ch20_Cf2, Brg);
 4124              		.loc 1 771 0
 4125 0cb0 2946     		mov	r1, r5
 4126 0cb2 6D20     		movs	r0, #109
 4127 0cb4 FFF7FEFF 		bl	PCA9959_Write_1
 4128              	.LVL756:
 772:PCA9959.c     ****             PCA9959_Write_1(Ch21_Cf2, Brg);
 4129              		.loc 1 772 0
 4130 0cb8 2946     		mov	r1, r5
 4131 0cba 7120     		movs	r0, #113
 4132 0cbc FFF7FEFF 		bl	PCA9959_Write_1
 4133              	.LVL757:
 773:PCA9959.c     ****             PCA9959_Write_1(Ch22_Cf2, Brg);
 4134              		.loc 1 773 0
 4135 0cc0 2946     		mov	r1, r5
 4136 0cc2 7520     		movs	r0, #117
 4137 0cc4 FFF7FEFF 		bl	PCA9959_Write_1
 4138              	.LVL758:
 774:PCA9959.c     ****             PCA9959_Write_1(Ch23_Cf2, Brg);
 4139              		.loc 1 774 0
 4140 0cc8 2946     		mov	r1, r5
 4141 0cca 7920     		movs	r0, #121
 4142 0ccc FFF7FEFF 		bl	PCA9959_Write_1
 4143              	.LVL759:
 775:PCA9959.c     ****             Pin_OE_PCA9959_1_Write(0);
 4144              		.loc 1 775 0
 4145 0cd0 2946     		mov	r1, r5
 4146 0cd2 7D20     		movs	r0, #125
 4147 0cd4 FFF7FEFF 		bl	PCA9959_Write_1
 4148              	.LVL760:
 776:PCA9959.c     ****         }
 4149              		.loc 1 776 0
 4150 0cd8 0020     		movs	r0, #0
 4151 0cda FFF7FEFF 		bl	Pin_OE_PCA9959_1_Write
ARM GAS  C:\Users\Revanth\AppData\Local\Temp\ccqs06ys.s 			page 111


 4152              	.LVL761:
 4153 0cde 38BD     		pop	{r3, r4, r5, pc}
 4154              	.L84:
 779:PCA9959.c     ****         {
 4155              		.loc 1 779 0
 4156 0ce0 092C     		cmp	r4, #9
 4157 0ce2 40F0CA80 		bne	.L85
 781:PCA9959.c     ****             PageSel_4(ChSel);
 4158              		.loc 1 781 0
 4159 0ce6 0120     		movs	r0, #1
 4160 0ce8 FFF7FEFF 		bl	Pin_OE_PCA9959_4_Write
 4161              	.LVL762:
 782:PCA9959.c     ****             PCA9959_Write_4(Ch0_Cf1, 0x01);   //                    //LED Channel 0 is assigned to 
 4162              		.loc 1 782 0
 4163 0cec 0120     		movs	r0, #1
 4164 0cee FFF7FEFF 		bl	PageSel_4
 4165              	.LVL763:
 783:PCA9959.c     ****             PCA9959_Write_4(Ch1_Cf1, 0x00);
 4166              		.loc 1 783 0
 4167 0cf2 0121     		movs	r1, #1
 4168 0cf4 2020     		movs	r0, #32
 4169 0cf6 FFF7FEFF 		bl	PCA9959_Write_4
 4170              	.LVL764:
 784:PCA9959.c     ****             PCA9959_Write_4(Ch2_Cf1, 0x01); //
 4171              		.loc 1 784 0
 4172 0cfa 0021     		movs	r1, #0
 4173 0cfc 2420     		movs	r0, #36
 4174 0cfe FFF7FEFF 		bl	PCA9959_Write_4
 4175              	.LVL765:
 785:PCA9959.c     ****             PCA9959_Write_4(Ch3_Cf1, 0x00); 
 4176              		.loc 1 785 0
 4177 0d02 0121     		movs	r1, #1
 4178 0d04 2820     		movs	r0, #40
 4179 0d06 FFF7FEFF 		bl	PCA9959_Write_4
 4180              	.LVL766:
 786:PCA9959.c     ****             PCA9959_Write_4(Ch4_Cf1, 0x01); //
 4181              		.loc 1 786 0
 4182 0d0a 0021     		movs	r1, #0
 4183 0d0c 2C20     		movs	r0, #44
 4184 0d0e FFF7FEFF 		bl	PCA9959_Write_4
 4185              	.LVL767:
 787:PCA9959.c     ****             PCA9959_Write_4(Ch5_Cf1, 0x00); 
 4186              		.loc 1 787 0
 4187 0d12 0121     		movs	r1, #1
 4188 0d14 3020     		movs	r0, #48
 4189 0d16 FFF7FEFF 		bl	PCA9959_Write_4
 4190              	.LVL768:
 788:PCA9959.c     ****             PCA9959_Write_4(Ch6_Cf1, 0x01); //
 4191              		.loc 1 788 0
 4192 0d1a 0021     		movs	r1, #0
 4193 0d1c 3420     		movs	r0, #52
 4194 0d1e FFF7FEFF 		bl	PCA9959_Write_4
 4195              	.LVL769:
 789:PCA9959.c     ****             PCA9959_Write_4(Ch7_Cf1, 0x00); 
 4196              		.loc 1 789 0
 4197 0d22 0121     		movs	r1, #1
 4198 0d24 3820     		movs	r0, #56
ARM GAS  C:\Users\Revanth\AppData\Local\Temp\ccqs06ys.s 			page 112


 4199 0d26 FFF7FEFF 		bl	PCA9959_Write_4
 4200              	.LVL770:
 790:PCA9959.c     ****             PCA9959_Write_4(Ch8_Cf1, 0x01); //
 4201              		.loc 1 790 0
 4202 0d2a 0021     		movs	r1, #0
 4203 0d2c 3C20     		movs	r0, #60
 4204 0d2e FFF7FEFF 		bl	PCA9959_Write_4
 4205              	.LVL771:
 791:PCA9959.c     ****             PCA9959_Write_4(Ch9_Cf1, 0x00); 
 4206              		.loc 1 791 0
 4207 0d32 0121     		movs	r1, #1
 4208 0d34 4020     		movs	r0, #64
 4209 0d36 FFF7FEFF 		bl	PCA9959_Write_4
 4210              	.LVL772:
 792:PCA9959.c     ****             PCA9959_Write_4(Ch10_Cf1, 0x01);  //
 4211              		.loc 1 792 0
 4212 0d3a 0021     		movs	r1, #0
 4213 0d3c 4420     		movs	r0, #68
 4214 0d3e FFF7FEFF 		bl	PCA9959_Write_4
 4215              	.LVL773:
 793:PCA9959.c     ****             PCA9959_Write_4(Ch11_Cf1, 0x00);
 4216              		.loc 1 793 0
 4217 0d42 0121     		movs	r1, #1
 4218 0d44 4820     		movs	r0, #72
 4219 0d46 FFF7FEFF 		bl	PCA9959_Write_4
 4220              	.LVL774:
 794:PCA9959.c     ****             
 4221              		.loc 1 794 0
 4222 0d4a 0021     		movs	r1, #0
 4223 0d4c 4C20     		movs	r0, #76
 4224 0d4e FFF7FEFF 		bl	PCA9959_Write_4
 4225              	.LVL775:
 796:PCA9959.c     ****             PCA9959_Write_4(Ch13_Cf1, 0x00);
 4226              		.loc 1 796 0
 4227 0d52 0121     		movs	r1, #1
 4228 0d54 5020     		movs	r0, #80
 4229 0d56 FFF7FEFF 		bl	PCA9959_Write_4
 4230              	.LVL776:
 797:PCA9959.c     ****             PCA9959_Write_4(Ch14_Cf1, 0x01); //
 4231              		.loc 1 797 0
 4232 0d5a 0021     		movs	r1, #0
 4233 0d5c 5420     		movs	r0, #84
 4234 0d5e FFF7FEFF 		bl	PCA9959_Write_4
 4235              	.LVL777:
 798:PCA9959.c     ****             PCA9959_Write_4(Ch15_Cf1, 0x00);
 4236              		.loc 1 798 0
 4237 0d62 0121     		movs	r1, #1
 4238 0d64 5820     		movs	r0, #88
 4239 0d66 FFF7FEFF 		bl	PCA9959_Write_4
 4240              	.LVL778:
 799:PCA9959.c     ****             PCA9959_Write_4(Ch16_Cf1, 0x01); //
 4241              		.loc 1 799 0
 4242 0d6a 0021     		movs	r1, #0
 4243 0d6c 5C20     		movs	r0, #92
 4244 0d6e FFF7FEFF 		bl	PCA9959_Write_4
 4245              	.LVL779:
 800:PCA9959.c     ****             PCA9959_Write_4(Ch17_Cf1, 0x00);
ARM GAS  C:\Users\Revanth\AppData\Local\Temp\ccqs06ys.s 			page 113


 4246              		.loc 1 800 0
 4247 0d72 0121     		movs	r1, #1
 4248 0d74 6020     		movs	r0, #96
 4249 0d76 FFF7FEFF 		bl	PCA9959_Write_4
 4250              	.LVL780:
 801:PCA9959.c     ****             PCA9959_Write_4(Ch18_Cf1, 0x01); //
 4251              		.loc 1 801 0
 4252 0d7a 0021     		movs	r1, #0
 4253 0d7c 6420     		movs	r0, #100
 4254 0d7e FFF7FEFF 		bl	PCA9959_Write_4
 4255              	.LVL781:
 802:PCA9959.c     ****             PCA9959_Write_4(Ch19_Cf1, 0x00);
 4256              		.loc 1 802 0
 4257 0d82 0121     		movs	r1, #1
 4258 0d84 6820     		movs	r0, #104
 4259 0d86 FFF7FEFF 		bl	PCA9959_Write_4
 4260              	.LVL782:
 803:PCA9959.c     ****             PCA9959_Write_4(Ch20_Cf1, 0x01); //
 4261              		.loc 1 803 0
 4262 0d8a 0021     		movs	r1, #0
 4263 0d8c 6C20     		movs	r0, #108
 4264 0d8e FFF7FEFF 		bl	PCA9959_Write_4
 4265              	.LVL783:
 804:PCA9959.c     ****             PCA9959_Write_4(Ch21_Cf1, 0x00);
 4266              		.loc 1 804 0
 4267 0d92 0121     		movs	r1, #1
 4268 0d94 7020     		movs	r0, #112
 4269 0d96 FFF7FEFF 		bl	PCA9959_Write_4
 4270              	.LVL784:
 805:PCA9959.c     ****             PCA9959_Write_4(Ch22_Cf1, 0x01); //
 4271              		.loc 1 805 0
 4272 0d9a 0021     		movs	r1, #0
 4273 0d9c 7420     		movs	r0, #116
 4274 0d9e FFF7FEFF 		bl	PCA9959_Write_4
 4275              	.LVL785:
 806:PCA9959.c     ****             PCA9959_Write_4(Ch23_Cf1, 0x00);
 4276              		.loc 1 806 0
 4277 0da2 0121     		movs	r1, #1
 4278 0da4 7820     		movs	r0, #120
 4279 0da6 FFF7FEFF 		bl	PCA9959_Write_4
 4280              	.LVL786:
 807:PCA9959.c     ****             
 4281              		.loc 1 807 0
 4282 0daa 0021     		movs	r1, #0
 4283 0dac 7C20     		movs	r0, #124
 4284 0dae FFF7FEFF 		bl	PCA9959_Write_4
 4285              	.LVL787:
 811:PCA9959.c     ****             PCA9959_Write_4(Ch1_Cf2, 0x00);
 4286              		.loc 1 811 0
 4287 0db2 2946     		mov	r1, r5
 4288 0db4 2120     		movs	r0, #33
 4289 0db6 FFF7FEFF 		bl	PCA9959_Write_4
 4290              	.LVL788:
 812:PCA9959.c     ****             PCA9959_Write_4(Ch2_Cf2, Brg); //
 4291              		.loc 1 812 0
 4292 0dba 0021     		movs	r1, #0
 4293 0dbc 2520     		movs	r0, #37
ARM GAS  C:\Users\Revanth\AppData\Local\Temp\ccqs06ys.s 			page 114


 4294 0dbe FFF7FEFF 		bl	PCA9959_Write_4
 4295              	.LVL789:
 813:PCA9959.c     ****             PCA9959_Write_4(Ch3_Cf2, 0x00);
 4296              		.loc 1 813 0
 4297 0dc2 2946     		mov	r1, r5
 4298 0dc4 2920     		movs	r0, #41
 4299 0dc6 FFF7FEFF 		bl	PCA9959_Write_4
 4300              	.LVL790:
 814:PCA9959.c     ****             PCA9959_Write_4(Ch4_Cf2, Brg); //
 4301              		.loc 1 814 0
 4302 0dca 0021     		movs	r1, #0
 4303 0dcc 2D20     		movs	r0, #45
 4304 0dce FFF7FEFF 		bl	PCA9959_Write_4
 4305              	.LVL791:
 815:PCA9959.c     ****             PCA9959_Write_4(Ch5_Cf2, 0x00);
 4306              		.loc 1 815 0
 4307 0dd2 2946     		mov	r1, r5
 4308 0dd4 3120     		movs	r0, #49
 4309 0dd6 FFF7FEFF 		bl	PCA9959_Write_4
 4310              	.LVL792:
 816:PCA9959.c     ****             PCA9959_Write_4(Ch6_Cf2, Brg); //
 4311              		.loc 1 816 0
 4312 0dda 0021     		movs	r1, #0
 4313 0ddc 3520     		movs	r0, #53
 4314 0dde FFF7FEFF 		bl	PCA9959_Write_4
 4315              	.LVL793:
 817:PCA9959.c     ****             PCA9959_Write_4(Ch7_Cf2, 0x00);
 4316              		.loc 1 817 0
 4317 0de2 2946     		mov	r1, r5
 4318 0de4 3920     		movs	r0, #57
 4319 0de6 FFF7FEFF 		bl	PCA9959_Write_4
 4320              	.LVL794:
 818:PCA9959.c     ****             PCA9959_Write_4(Ch8_Cf2, Brg); //
 4321              		.loc 1 818 0
 4322 0dea 0021     		movs	r1, #0
 4323 0dec 3D20     		movs	r0, #61
 4324 0dee FFF7FEFF 		bl	PCA9959_Write_4
 4325              	.LVL795:
 819:PCA9959.c     ****             PCA9959_Write_4(Ch9_Cf2, 0x00);
 4326              		.loc 1 819 0
 4327 0df2 2946     		mov	r1, r5
 4328 0df4 4120     		movs	r0, #65
 4329 0df6 FFF7FEFF 		bl	PCA9959_Write_4
 4330              	.LVL796:
 820:PCA9959.c     ****             PCA9959_Write_4(Ch10_Cf2, Brg); //
 4331              		.loc 1 820 0
 4332 0dfa 0021     		movs	r1, #0
 4333 0dfc 4520     		movs	r0, #69
 4334 0dfe FFF7FEFF 		bl	PCA9959_Write_4
 4335              	.LVL797:
 821:PCA9959.c     ****             PCA9959_Write_4(Ch11_Cf2, 0x00);
 4336              		.loc 1 821 0
 4337 0e02 2946     		mov	r1, r5
 4338 0e04 4920     		movs	r0, #73
 4339 0e06 FFF7FEFF 		bl	PCA9959_Write_4
 4340              	.LVL798:
 822:PCA9959.c     ****             
ARM GAS  C:\Users\Revanth\AppData\Local\Temp\ccqs06ys.s 			page 115


 4341              		.loc 1 822 0
 4342 0e0a 0021     		movs	r1, #0
 4343 0e0c 4D20     		movs	r0, #77
 4344 0e0e FFF7FEFF 		bl	PCA9959_Write_4
 4345              	.LVL799:
 824:PCA9959.c     ****             PCA9959_Write_4(Ch13_Cf2, 0x00);
 4346              		.loc 1 824 0
 4347 0e12 2946     		mov	r1, r5
 4348 0e14 5120     		movs	r0, #81
 4349 0e16 FFF7FEFF 		bl	PCA9959_Write_4
 4350              	.LVL800:
 825:PCA9959.c     ****             PCA9959_Write_4(Ch14_Cf2, Brg); //
 4351              		.loc 1 825 0
 4352 0e1a 0021     		movs	r1, #0
 4353 0e1c 5520     		movs	r0, #85
 4354 0e1e FFF7FEFF 		bl	PCA9959_Write_4
 4355              	.LVL801:
 826:PCA9959.c     ****             PCA9959_Write_4(Ch15_Cf2, 0x00);
 4356              		.loc 1 826 0
 4357 0e22 2946     		mov	r1, r5
 4358 0e24 5920     		movs	r0, #89
 4359 0e26 FFF7FEFF 		bl	PCA9959_Write_4
 4360              	.LVL802:
 827:PCA9959.c     ****             PCA9959_Write_4(Ch16_Cf2, Brg); //
 4361              		.loc 1 827 0
 4362 0e2a 0021     		movs	r1, #0
 4363 0e2c 5D20     		movs	r0, #93
 4364 0e2e FFF7FEFF 		bl	PCA9959_Write_4
 4365              	.LVL803:
 828:PCA9959.c     ****             PCA9959_Write_4(Ch17_Cf2, 0x00);
 4366              		.loc 1 828 0
 4367 0e32 2946     		mov	r1, r5
 4368 0e34 6120     		movs	r0, #97
 4369 0e36 FFF7FEFF 		bl	PCA9959_Write_4
 4370              	.LVL804:
 829:PCA9959.c     ****             PCA9959_Write_4(Ch18_Cf2, Brg); //
 4371              		.loc 1 829 0
 4372 0e3a 0021     		movs	r1, #0
 4373 0e3c 6520     		movs	r0, #101
 4374 0e3e FFF7FEFF 		bl	PCA9959_Write_4
 4375              	.LVL805:
 830:PCA9959.c     ****             PCA9959_Write_4(Ch19_Cf2, 0x00);
 4376              		.loc 1 830 0
 4377 0e42 2946     		mov	r1, r5
 4378 0e44 6920     		movs	r0, #105
 4379 0e46 FFF7FEFF 		bl	PCA9959_Write_4
 4380              	.LVL806:
 831:PCA9959.c     ****             PCA9959_Write_4(Ch20_Cf2, Brg); //
 4381              		.loc 1 831 0
 4382 0e4a 0021     		movs	r1, #0
 4383 0e4c 6D20     		movs	r0, #109
 4384 0e4e FFF7FEFF 		bl	PCA9959_Write_4
 4385              	.LVL807:
 832:PCA9959.c     ****             PCA9959_Write_4(Ch21_Cf2, 0x00);
 4386              		.loc 1 832 0
 4387 0e52 2946     		mov	r1, r5
 4388 0e54 7120     		movs	r0, #113
ARM GAS  C:\Users\Revanth\AppData\Local\Temp\ccqs06ys.s 			page 116


 4389 0e56 FFF7FEFF 		bl	PCA9959_Write_4
 4390              	.LVL808:
 833:PCA9959.c     ****             PCA9959_Write_4(Ch22_Cf2, Brg); //
 4391              		.loc 1 833 0
 4392 0e5a 0021     		movs	r1, #0
 4393 0e5c 7520     		movs	r0, #117
 4394 0e5e FFF7FEFF 		bl	PCA9959_Write_4
 4395              	.LVL809:
 834:PCA9959.c     ****             PCA9959_Write_4(Ch23_Cf2, 0x00);
 4396              		.loc 1 834 0
 4397 0e62 2946     		mov	r1, r5
 4398 0e64 7920     		movs	r0, #121
 4399 0e66 FFF7FEFF 		bl	PCA9959_Write_4
 4400              	.LVL810:
 835:PCA9959.c     ****             Pin_OE_PCA9959_4_Write(0);
 4401              		.loc 1 835 0
 4402 0e6a 0021     		movs	r1, #0
 4403 0e6c 7D20     		movs	r0, #125
 4404 0e6e FFF7FEFF 		bl	PCA9959_Write_4
 4405              	.LVL811:
 836:PCA9959.c     ****         }
 4406              		.loc 1 836 0
 4407 0e72 0020     		movs	r0, #0
 4408 0e74 FFF7FEFF 		bl	Pin_OE_PCA9959_4_Write
 4409              	.LVL812:
 4410 0e78 38BD     		pop	{r3, r4, r5, pc}
 4411              	.L85:
 839:PCA9959.c     ****         {
 4412              		.loc 1 839 0
 4413 0e7a 0A2C     		cmp	r4, #10
 4414 0e7c 40F0CA80 		bne	.L86
 841:PCA9959.c     ****             PageSel_4(ChSel);
 4415              		.loc 1 841 0
 4416 0e80 0120     		movs	r0, #1
 4417 0e82 FFF7FEFF 		bl	Pin_OE_PCA9959_4_Write
 4418              	.LVL813:
 842:PCA9959.c     ****             PCA9959_Write_4(Ch0_Cf1, 0x00);                     //LED Channel 0 is assigned to Grou
 4419              		.loc 1 842 0
 4420 0e86 0120     		movs	r0, #1
 4421 0e88 FFF7FEFF 		bl	PageSel_4
 4422              	.LVL814:
 843:PCA9959.c     ****             PCA9959_Write_4(Ch1_Cf1, 0x01); //
 4423              		.loc 1 843 0
 4424 0e8c 0021     		movs	r1, #0
 4425 0e8e 2020     		movs	r0, #32
 4426 0e90 FFF7FEFF 		bl	PCA9959_Write_4
 4427              	.LVL815:
 844:PCA9959.c     ****             PCA9959_Write_4(Ch2_Cf1, 0x00); 
 4428              		.loc 1 844 0
 4429 0e94 0121     		movs	r1, #1
 4430 0e96 2420     		movs	r0, #36
 4431 0e98 FFF7FEFF 		bl	PCA9959_Write_4
 4432              	.LVL816:
 845:PCA9959.c     ****             PCA9959_Write_4(Ch3_Cf1, 0x01); //
 4433              		.loc 1 845 0
 4434 0e9c 0021     		movs	r1, #0
 4435 0e9e 2820     		movs	r0, #40
ARM GAS  C:\Users\Revanth\AppData\Local\Temp\ccqs06ys.s 			page 117


 4436 0ea0 FFF7FEFF 		bl	PCA9959_Write_4
 4437              	.LVL817:
 846:PCA9959.c     ****             PCA9959_Write_4(Ch4_Cf1, 0x00); 
 4438              		.loc 1 846 0
 4439 0ea4 0121     		movs	r1, #1
 4440 0ea6 2C20     		movs	r0, #44
 4441 0ea8 FFF7FEFF 		bl	PCA9959_Write_4
 4442              	.LVL818:
 847:PCA9959.c     ****             PCA9959_Write_4(Ch5_Cf1, 0x01); //
 4443              		.loc 1 847 0
 4444 0eac 0021     		movs	r1, #0
 4445 0eae 3020     		movs	r0, #48
 4446 0eb0 FFF7FEFF 		bl	PCA9959_Write_4
 4447              	.LVL819:
 848:PCA9959.c     ****             PCA9959_Write_4(Ch6_Cf1, 0x00); 
 4448              		.loc 1 848 0
 4449 0eb4 0121     		movs	r1, #1
 4450 0eb6 3420     		movs	r0, #52
 4451 0eb8 FFF7FEFF 		bl	PCA9959_Write_4
 4452              	.LVL820:
 849:PCA9959.c     ****             PCA9959_Write_4(Ch7_Cf1, 0x01); //
 4453              		.loc 1 849 0
 4454 0ebc 0021     		movs	r1, #0
 4455 0ebe 3820     		movs	r0, #56
 4456 0ec0 FFF7FEFF 		bl	PCA9959_Write_4
 4457              	.LVL821:
 850:PCA9959.c     ****             PCA9959_Write_4(Ch8_Cf1, 0x00); 
 4458              		.loc 1 850 0
 4459 0ec4 0121     		movs	r1, #1
 4460 0ec6 3C20     		movs	r0, #60
 4461 0ec8 FFF7FEFF 		bl	PCA9959_Write_4
 4462              	.LVL822:
 851:PCA9959.c     ****             PCA9959_Write_4(Ch9_Cf1, 0x01); //
 4463              		.loc 1 851 0
 4464 0ecc 0021     		movs	r1, #0
 4465 0ece 4020     		movs	r0, #64
 4466 0ed0 FFF7FEFF 		bl	PCA9959_Write_4
 4467              	.LVL823:
 852:PCA9959.c     ****             PCA9959_Write_4(Ch10_Cf1, 0x00);  
 4468              		.loc 1 852 0
 4469 0ed4 0121     		movs	r1, #1
 4470 0ed6 4420     		movs	r0, #68
 4471 0ed8 FFF7FEFF 		bl	PCA9959_Write_4
 4472              	.LVL824:
 853:PCA9959.c     ****             PCA9959_Write_4(Ch11_Cf1, 0x01); //
 4473              		.loc 1 853 0
 4474 0edc 0021     		movs	r1, #0
 4475 0ede 4820     		movs	r0, #72
 4476 0ee0 FFF7FEFF 		bl	PCA9959_Write_4
 4477              	.LVL825:
 854:PCA9959.c     ****             
 4478              		.loc 1 854 0
 4479 0ee4 0121     		movs	r1, #1
 4480 0ee6 4C20     		movs	r0, #76
 4481 0ee8 FFF7FEFF 		bl	PCA9959_Write_4
 4482              	.LVL826:
 856:PCA9959.c     ****             PCA9959_Write_4(Ch13_Cf1, 0x01); //
ARM GAS  C:\Users\Revanth\AppData\Local\Temp\ccqs06ys.s 			page 118


 4483              		.loc 1 856 0
 4484 0eec 0021     		movs	r1, #0
 4485 0eee 5020     		movs	r0, #80
 4486 0ef0 FFF7FEFF 		bl	PCA9959_Write_4
 4487              	.LVL827:
 857:PCA9959.c     ****             PCA9959_Write_4(Ch14_Cf1, 0x00);
 4488              		.loc 1 857 0
 4489 0ef4 0121     		movs	r1, #1
 4490 0ef6 5420     		movs	r0, #84
 4491 0ef8 FFF7FEFF 		bl	PCA9959_Write_4
 4492              	.LVL828:
 858:PCA9959.c     ****             PCA9959_Write_4(Ch15_Cf1, 0x01); //
 4493              		.loc 1 858 0
 4494 0efc 0021     		movs	r1, #0
 4495 0efe 5820     		movs	r0, #88
 4496 0f00 FFF7FEFF 		bl	PCA9959_Write_4
 4497              	.LVL829:
 859:PCA9959.c     ****             PCA9959_Write_4(Ch16_Cf1, 0x00);
 4498              		.loc 1 859 0
 4499 0f04 0121     		movs	r1, #1
 4500 0f06 5C20     		movs	r0, #92
 4501 0f08 FFF7FEFF 		bl	PCA9959_Write_4
 4502              	.LVL830:
 860:PCA9959.c     ****             PCA9959_Write_4(Ch17_Cf1, 0x01); //
 4503              		.loc 1 860 0
 4504 0f0c 0021     		movs	r1, #0
 4505 0f0e 6020     		movs	r0, #96
 4506 0f10 FFF7FEFF 		bl	PCA9959_Write_4
 4507              	.LVL831:
 861:PCA9959.c     ****             PCA9959_Write_4(Ch18_Cf1, 0x00);
 4508              		.loc 1 861 0
 4509 0f14 0121     		movs	r1, #1
 4510 0f16 6420     		movs	r0, #100
 4511 0f18 FFF7FEFF 		bl	PCA9959_Write_4
 4512              	.LVL832:
 862:PCA9959.c     ****             PCA9959_Write_4(Ch19_Cf1, 0x01); //
 4513              		.loc 1 862 0
 4514 0f1c 0021     		movs	r1, #0
 4515 0f1e 6820     		movs	r0, #104
 4516 0f20 FFF7FEFF 		bl	PCA9959_Write_4
 4517              	.LVL833:
 863:PCA9959.c     ****             PCA9959_Write_4(Ch20_Cf1, 0x00);
 4518              		.loc 1 863 0
 4519 0f24 0121     		movs	r1, #1
 4520 0f26 6C20     		movs	r0, #108
 4521 0f28 FFF7FEFF 		bl	PCA9959_Write_4
 4522              	.LVL834:
 864:PCA9959.c     ****             PCA9959_Write_4(Ch21_Cf1, 0x01); //
 4523              		.loc 1 864 0
 4524 0f2c 0021     		movs	r1, #0
 4525 0f2e 7020     		movs	r0, #112
 4526 0f30 FFF7FEFF 		bl	PCA9959_Write_4
 4527              	.LVL835:
 865:PCA9959.c     ****             PCA9959_Write_4(Ch22_Cf1, 0x00);
 4528              		.loc 1 865 0
 4529 0f34 0121     		movs	r1, #1
 4530 0f36 7420     		movs	r0, #116
ARM GAS  C:\Users\Revanth\AppData\Local\Temp\ccqs06ys.s 			page 119


 4531 0f38 FFF7FEFF 		bl	PCA9959_Write_4
 4532              	.LVL836:
 866:PCA9959.c     ****             PCA9959_Write_4(Ch23_Cf1, 0x01); //
 4533              		.loc 1 866 0
 4534 0f3c 0021     		movs	r1, #0
 4535 0f3e 7820     		movs	r0, #120
 4536 0f40 FFF7FEFF 		bl	PCA9959_Write_4
 4537              	.LVL837:
 867:PCA9959.c     ****             
 4538              		.loc 1 867 0
 4539 0f44 0121     		movs	r1, #1
 4540 0f46 7C20     		movs	r0, #124
 4541 0f48 FFF7FEFF 		bl	PCA9959_Write_4
 4542              	.LVL838:
 871:PCA9959.c     ****             PCA9959_Write_4(Ch1_Cf2, Brg); //
 4543              		.loc 1 871 0
 4544 0f4c 0021     		movs	r1, #0
 4545 0f4e 2120     		movs	r0, #33
 4546 0f50 FFF7FEFF 		bl	PCA9959_Write_4
 4547              	.LVL839:
 872:PCA9959.c     ****             PCA9959_Write_4(Ch2_Cf2, 0x00);
 4548              		.loc 1 872 0
 4549 0f54 2946     		mov	r1, r5
 4550 0f56 2520     		movs	r0, #37
 4551 0f58 FFF7FEFF 		bl	PCA9959_Write_4
 4552              	.LVL840:
 873:PCA9959.c     ****             PCA9959_Write_4(Ch3_Cf2, Brg); //
 4553              		.loc 1 873 0
 4554 0f5c 0021     		movs	r1, #0
 4555 0f5e 2920     		movs	r0, #41
 4556 0f60 FFF7FEFF 		bl	PCA9959_Write_4
 4557              	.LVL841:
 874:PCA9959.c     ****             PCA9959_Write_4(Ch4_Cf2, 0x00); 
 4558              		.loc 1 874 0
 4559 0f64 2946     		mov	r1, r5
 4560 0f66 2D20     		movs	r0, #45
 4561 0f68 FFF7FEFF 		bl	PCA9959_Write_4
 4562              	.LVL842:
 875:PCA9959.c     ****             PCA9959_Write_4(Ch5_Cf2, Brg); //
 4563              		.loc 1 875 0
 4564 0f6c 0021     		movs	r1, #0
 4565 0f6e 3120     		movs	r0, #49
 4566 0f70 FFF7FEFF 		bl	PCA9959_Write_4
 4567              	.LVL843:
 876:PCA9959.c     ****             PCA9959_Write_4(Ch6_Cf2, 0x00);
 4568              		.loc 1 876 0
 4569 0f74 2946     		mov	r1, r5
 4570 0f76 3520     		movs	r0, #53
 4571 0f78 FFF7FEFF 		bl	PCA9959_Write_4
 4572              	.LVL844:
 877:PCA9959.c     ****             PCA9959_Write_4(Ch7_Cf2, Brg); //
 4573              		.loc 1 877 0
 4574 0f7c 0021     		movs	r1, #0
 4575 0f7e 3920     		movs	r0, #57
 4576 0f80 FFF7FEFF 		bl	PCA9959_Write_4
 4577              	.LVL845:
 878:PCA9959.c     ****             PCA9959_Write_4(Ch8_Cf2, 0x00);
ARM GAS  C:\Users\Revanth\AppData\Local\Temp\ccqs06ys.s 			page 120


 4578              		.loc 1 878 0
 4579 0f84 2946     		mov	r1, r5
 4580 0f86 3D20     		movs	r0, #61
 4581 0f88 FFF7FEFF 		bl	PCA9959_Write_4
 4582              	.LVL846:
 879:PCA9959.c     ****             PCA9959_Write_4(Ch9_Cf2, Brg); //
 4583              		.loc 1 879 0
 4584 0f8c 0021     		movs	r1, #0
 4585 0f8e 4120     		movs	r0, #65
 4586 0f90 FFF7FEFF 		bl	PCA9959_Write_4
 4587              	.LVL847:
 880:PCA9959.c     ****             PCA9959_Write_4(Ch10_Cf2, 0x00);
 4588              		.loc 1 880 0
 4589 0f94 2946     		mov	r1, r5
 4590 0f96 4520     		movs	r0, #69
 4591 0f98 FFF7FEFF 		bl	PCA9959_Write_4
 4592              	.LVL848:
 881:PCA9959.c     ****             PCA9959_Write_4(Ch11_Cf2, Brg); //
 4593              		.loc 1 881 0
 4594 0f9c 0021     		movs	r1, #0
 4595 0f9e 4920     		movs	r0, #73
 4596 0fa0 FFF7FEFF 		bl	PCA9959_Write_4
 4597              	.LVL849:
 882:PCA9959.c     ****             
 4598              		.loc 1 882 0
 4599 0fa4 2946     		mov	r1, r5
 4600 0fa6 4D20     		movs	r0, #77
 4601 0fa8 FFF7FEFF 		bl	PCA9959_Write_4
 4602              	.LVL850:
 884:PCA9959.c     ****             PCA9959_Write_4(Ch13_Cf2, Brg); //
 4603              		.loc 1 884 0
 4604 0fac 0021     		movs	r1, #0
 4605 0fae 5120     		movs	r0, #81
 4606 0fb0 FFF7FEFF 		bl	PCA9959_Write_4
 4607              	.LVL851:
 885:PCA9959.c     ****             PCA9959_Write_4(Ch14_Cf2, 0x00);
 4608              		.loc 1 885 0
 4609 0fb4 2946     		mov	r1, r5
 4610 0fb6 5520     		movs	r0, #85
 4611 0fb8 FFF7FEFF 		bl	PCA9959_Write_4
 4612              	.LVL852:
 886:PCA9959.c     ****             PCA9959_Write_4(Ch15_Cf2, Brg); //
 4613              		.loc 1 886 0
 4614 0fbc 0021     		movs	r1, #0
 4615 0fbe 5920     		movs	r0, #89
 4616 0fc0 FFF7FEFF 		bl	PCA9959_Write_4
 4617              	.LVL853:
 887:PCA9959.c     ****             PCA9959_Write_4(Ch16_Cf2, 0x00);
 4618              		.loc 1 887 0
 4619 0fc4 2946     		mov	r1, r5
 4620 0fc6 5D20     		movs	r0, #93
 4621 0fc8 FFF7FEFF 		bl	PCA9959_Write_4
 4622              	.LVL854:
 888:PCA9959.c     ****             PCA9959_Write_4(Ch17_Cf2, Brg); //
 4623              		.loc 1 888 0
 4624 0fcc 0021     		movs	r1, #0
 4625 0fce 6120     		movs	r0, #97
ARM GAS  C:\Users\Revanth\AppData\Local\Temp\ccqs06ys.s 			page 121


 4626 0fd0 FFF7FEFF 		bl	PCA9959_Write_4
 4627              	.LVL855:
 889:PCA9959.c     ****             PCA9959_Write_4(Ch18_Cf2, 0x00);
 4628              		.loc 1 889 0
 4629 0fd4 2946     		mov	r1, r5
 4630 0fd6 6520     		movs	r0, #101
 4631 0fd8 FFF7FEFF 		bl	PCA9959_Write_4
 4632              	.LVL856:
 890:PCA9959.c     ****             PCA9959_Write_4(Ch19_Cf2, Brg); //
 4633              		.loc 1 890 0
 4634 0fdc 0021     		movs	r1, #0
 4635 0fde 6920     		movs	r0, #105
 4636 0fe0 FFF7FEFF 		bl	PCA9959_Write_4
 4637              	.LVL857:
 891:PCA9959.c     ****             PCA9959_Write_4(Ch20_Cf2, 0x00);
 4638              		.loc 1 891 0
 4639 0fe4 2946     		mov	r1, r5
 4640 0fe6 6D20     		movs	r0, #109
 4641 0fe8 FFF7FEFF 		bl	PCA9959_Write_4
 4642              	.LVL858:
 892:PCA9959.c     ****             PCA9959_Write_4(Ch21_Cf2, Brg); //
 4643              		.loc 1 892 0
 4644 0fec 0021     		movs	r1, #0
 4645 0fee 7120     		movs	r0, #113
 4646 0ff0 FFF7FEFF 		bl	PCA9959_Write_4
 4647              	.LVL859:
 893:PCA9959.c     ****             PCA9959_Write_4(Ch22_Cf2, 0x00);
 4648              		.loc 1 893 0
 4649 0ff4 2946     		mov	r1, r5
 4650 0ff6 7520     		movs	r0, #117
 4651 0ff8 FFF7FEFF 		bl	PCA9959_Write_4
 4652              	.LVL860:
 894:PCA9959.c     ****             PCA9959_Write_4(Ch23_Cf2, Brg); //
 4653              		.loc 1 894 0
 4654 0ffc 0021     		movs	r1, #0
 4655 0ffe 7920     		movs	r0, #121
 4656 1000 FFF7FEFF 		bl	PCA9959_Write_4
 4657              	.LVL861:
 895:PCA9959.c     ****             Pin_OE_PCA9959_4_Write(0);
 4658              		.loc 1 895 0
 4659 1004 2946     		mov	r1, r5
 4660 1006 7D20     		movs	r0, #125
 4661 1008 FFF7FEFF 		bl	PCA9959_Write_4
 4662              	.LVL862:
 896:PCA9959.c     ****         }
 4663              		.loc 1 896 0
 4664 100c 0020     		movs	r0, #0
 4665 100e FFF7FEFF 		bl	Pin_OE_PCA9959_4_Write
 4666              	.LVL863:
 4667 1012 38BD     		pop	{r3, r4, r5, pc}
 4668              	.L86:
 899:PCA9959.c     ****         {
 4669              		.loc 1 899 0
 4670 1014 0B2C     		cmp	r4, #11
 4671 1016 40F0CD80 		bne	.L87
 901:PCA9959.c     ****             PageSel_4(ChSel);
 4672              		.loc 1 901 0
ARM GAS  C:\Users\Revanth\AppData\Local\Temp\ccqs06ys.s 			page 122


 4673 101a 0120     		movs	r0, #1
 4674 101c FFF7FEFF 		bl	Pin_OE_PCA9959_4_Write
 4675              	.LVL864:
 902:PCA9959.c     ****             PCA9959_Write_4(Ch0_Cf1, 0x01);                       //LED Channel 0 is assigned to Gr
 4676              		.loc 1 902 0
 4677 1020 0120     		movs	r0, #1
 4678 1022 FFF7FEFF 		bl	PageSel_4
 4679              	.LVL865:
 903:PCA9959.c     ****             PCA9959_Write_4(Ch1_Cf1, 0x01);
 4680              		.loc 1 903 0
 4681 1026 0121     		movs	r1, #1
 4682 1028 2020     		movs	r0, #32
 4683 102a FFF7FEFF 		bl	PCA9959_Write_4
 4684              	.LVL866:
 904:PCA9959.c     ****             PCA9959_Write_4(Ch2_Cf1, 0x01); 
 4685              		.loc 1 904 0
 4686 102e 0121     		movs	r1, #1
 4687 1030 2420     		movs	r0, #36
 4688 1032 FFF7FEFF 		bl	PCA9959_Write_4
 4689              	.LVL867:
 905:PCA9959.c     ****             PCA9959_Write_4(Ch3_Cf1, 0x01); 
 4690              		.loc 1 905 0
 4691 1036 0121     		movs	r1, #1
 4692 1038 2820     		movs	r0, #40
 4693 103a FFF7FEFF 		bl	PCA9959_Write_4
 4694              	.LVL868:
 906:PCA9959.c     ****             
 4695              		.loc 1 906 0
 4696 103e 0121     		movs	r1, #1
 4697 1040 2C20     		movs	r0, #44
 4698 1042 FFF7FEFF 		bl	PCA9959_Write_4
 4699              	.LVL869:
 909:PCA9959.c     ****             PCA9959_Write_4(Ch5_Cf1, 0x01); 
 4700              		.loc 1 909 0
 4701 1046 0121     		movs	r1, #1
 4702 1048 3020     		movs	r0, #48
 4703 104a FFF7FEFF 		bl	PCA9959_Write_4
 4704              	.LVL870:
 910:PCA9959.c     ****             PCA9959_Write_4(Ch6_Cf1, 0x01); 
 4705              		.loc 1 910 0
 4706 104e 0121     		movs	r1, #1
 4707 1050 3420     		movs	r0, #52
 4708 1052 FFF7FEFF 		bl	PCA9959_Write_4
 4709              	.LVL871:
 911:PCA9959.c     ****             PCA9959_Write_4(Ch7_Cf1, 0x01); 
 4710              		.loc 1 911 0
 4711 1056 0121     		movs	r1, #1
 4712 1058 3820     		movs	r0, #56
 4713 105a FFF7FEFF 		bl	PCA9959_Write_4
 4714              	.LVL872:
 912:PCA9959.c     ****             PCA9959_Write_4(Ch8_Cf1, 0x01); 
 4715              		.loc 1 912 0
 4716 105e 0121     		movs	r1, #1
 4717 1060 3C20     		movs	r0, #60
 4718 1062 FFF7FEFF 		bl	PCA9959_Write_4
 4719              	.LVL873:
 913:PCA9959.c     ****             PCA9959_Write_4(Ch9_Cf1, 0x01); 
ARM GAS  C:\Users\Revanth\AppData\Local\Temp\ccqs06ys.s 			page 123


 4720              		.loc 1 913 0
 4721 1066 0121     		movs	r1, #1
 4722 1068 4020     		movs	r0, #64
 4723 106a FFF7FEFF 		bl	PCA9959_Write_4
 4724              	.LVL874:
 914:PCA9959.c     ****             PCA9959_Write_4(Ch10_Cf1, 0x01); 
 4725              		.loc 1 914 0
 4726 106e 0121     		movs	r1, #1
 4727 1070 4420     		movs	r0, #68
 4728 1072 FFF7FEFF 		bl	PCA9959_Write_4
 4729              	.LVL875:
 915:PCA9959.c     ****             PCA9959_Write_4(Ch11_Cf1, 0x01);
 4730              		.loc 1 915 0
 4731 1076 0121     		movs	r1, #1
 4732 1078 4820     		movs	r0, #72
 4733 107a FFF7FEFF 		bl	PCA9959_Write_4
 4734              	.LVL876:
 916:PCA9959.c     ****             
 4735              		.loc 1 916 0
 4736 107e 0121     		movs	r1, #1
 4737 1080 4C20     		movs	r0, #76
 4738 1082 FFF7FEFF 		bl	PCA9959_Write_4
 4739              	.LVL877:
 918:PCA9959.c     ****             PCA9959_Write_4(Ch13_Cf1, 0x01);
 4740              		.loc 1 918 0
 4741 1086 0121     		movs	r1, #1
 4742 1088 5020     		movs	r0, #80
 4743 108a FFF7FEFF 		bl	PCA9959_Write_4
 4744              	.LVL878:
 919:PCA9959.c     ****             PCA9959_Write_4(Ch14_Cf1, 0x01);
 4745              		.loc 1 919 0
 4746 108e 0121     		movs	r1, #1
 4747 1090 5420     		movs	r0, #84
 4748 1092 FFF7FEFF 		bl	PCA9959_Write_4
 4749              	.LVL879:
 920:PCA9959.c     ****             PCA9959_Write_4(Ch15_Cf1, 0x01);
 4750              		.loc 1 920 0
 4751 1096 0121     		movs	r1, #1
 4752 1098 5820     		movs	r0, #88
 4753 109a FFF7FEFF 		bl	PCA9959_Write_4
 4754              	.LVL880:
 921:PCA9959.c     ****             PCA9959_Write_4(Ch16_Cf1, 0x01);
 4755              		.loc 1 921 0
 4756 109e 0121     		movs	r1, #1
 4757 10a0 5C20     		movs	r0, #92
 4758 10a2 FFF7FEFF 		bl	PCA9959_Write_4
 4759              	.LVL881:
 922:PCA9959.c     ****             PCA9959_Write_4(Ch17_Cf1, 0x01);
 4760              		.loc 1 922 0
 4761 10a6 0121     		movs	r1, #1
 4762 10a8 6020     		movs	r0, #96
 4763 10aa FFF7FEFF 		bl	PCA9959_Write_4
 4764              	.LVL882:
 923:PCA9959.c     ****             PCA9959_Write_4(Ch18_Cf1, 0x01);
 4765              		.loc 1 923 0
 4766 10ae 0121     		movs	r1, #1
 4767 10b0 6420     		movs	r0, #100
ARM GAS  C:\Users\Revanth\AppData\Local\Temp\ccqs06ys.s 			page 124


 4768 10b2 FFF7FEFF 		bl	PCA9959_Write_4
 4769              	.LVL883:
 924:PCA9959.c     ****             PCA9959_Write_4(Ch19_Cf1, 0x01);
 4770              		.loc 1 924 0
 4771 10b6 0121     		movs	r1, #1
 4772 10b8 6820     		movs	r0, #104
 4773 10ba FFF7FEFF 		bl	PCA9959_Write_4
 4774              	.LVL884:
 925:PCA9959.c     ****             PCA9959_Write_4(Ch20_Cf1, 0x01);
 4775              		.loc 1 925 0
 4776 10be 0121     		movs	r1, #1
 4777 10c0 6C20     		movs	r0, #108
 4778 10c2 FFF7FEFF 		bl	PCA9959_Write_4
 4779              	.LVL885:
 926:PCA9959.c     ****             PCA9959_Write_4(Ch21_Cf1, 0x01);
 4780              		.loc 1 926 0
 4781 10c6 0121     		movs	r1, #1
 4782 10c8 7020     		movs	r0, #112
 4783 10ca FFF7FEFF 		bl	PCA9959_Write_4
 4784              	.LVL886:
 927:PCA9959.c     ****             PCA9959_Write_4(Ch22_Cf1, 0x01);
 4785              		.loc 1 927 0
 4786 10ce 0121     		movs	r1, #1
 4787 10d0 7420     		movs	r0, #116
 4788 10d2 FFF7FEFF 		bl	PCA9959_Write_4
 4789              	.LVL887:
 928:PCA9959.c     ****             PCA9959_Write_4(Ch23_Cf1, 0x01);
 4790              		.loc 1 928 0
 4791 10d6 0121     		movs	r1, #1
 4792 10d8 7820     		movs	r0, #120
 4793 10da FFF7FEFF 		bl	PCA9959_Write_4
 4794              	.LVL888:
 929:PCA9959.c     ****             
 4795              		.loc 1 929 0
 4796 10de 0121     		movs	r1, #1
 4797 10e0 7C20     		movs	r0, #124
 4798 10e2 FFF7FEFF 		bl	PCA9959_Write_4
 4799              	.LVL889:
 933:PCA9959.c     ****             PCA9959_Write_4(Ch1_Cf2, Brg);
 4800              		.loc 1 933 0
 4801 10e6 2946     		mov	r1, r5
 4802 10e8 2120     		movs	r0, #33
 4803 10ea FFF7FEFF 		bl	PCA9959_Write_4
 4804              	.LVL890:
 934:PCA9959.c     ****             PCA9959_Write_4(Ch2_Cf2, Brg);
 4805              		.loc 1 934 0
 4806 10ee 2946     		mov	r1, r5
 4807 10f0 2520     		movs	r0, #37
 4808 10f2 FFF7FEFF 		bl	PCA9959_Write_4
 4809              	.LVL891:
 935:PCA9959.c     ****             PCA9959_Write_4(Ch3_Cf2, Brg);
 4810              		.loc 1 935 0
 4811 10f6 2946     		mov	r1, r5
 4812 10f8 2920     		movs	r0, #41
 4813 10fa FFF7FEFF 		bl	PCA9959_Write_4
 4814              	.LVL892:
 936:PCA9959.c     ****             PCA9959_Write_4(Ch4_Cf2, Brg);
ARM GAS  C:\Users\Revanth\AppData\Local\Temp\ccqs06ys.s 			page 125


 4815              		.loc 1 936 0
 4816 10fe 2946     		mov	r1, r5
 4817 1100 2D20     		movs	r0, #45
 4818 1102 FFF7FEFF 		bl	PCA9959_Write_4
 4819              	.LVL893:
 937:PCA9959.c     ****             PCA9959_Write_4(Ch5_Cf2, Brg);
 4820              		.loc 1 937 0
 4821 1106 2946     		mov	r1, r5
 4822 1108 3120     		movs	r0, #49
 4823 110a FFF7FEFF 		bl	PCA9959_Write_4
 4824              	.LVL894:
 938:PCA9959.c     ****             PCA9959_Write_4(Ch6_Cf2, Brg);
 4825              		.loc 1 938 0
 4826 110e 2946     		mov	r1, r5
 4827 1110 3520     		movs	r0, #53
 4828 1112 FFF7FEFF 		bl	PCA9959_Write_4
 4829              	.LVL895:
 939:PCA9959.c     ****             PCA9959_Write_4(Ch7_Cf2, Brg);
 4830              		.loc 1 939 0
 4831 1116 2946     		mov	r1, r5
 4832 1118 3920     		movs	r0, #57
 4833 111a FFF7FEFF 		bl	PCA9959_Write_4
 4834              	.LVL896:
 940:PCA9959.c     ****             PCA9959_Write_4(Ch8_Cf2, Brg);
 4835              		.loc 1 940 0
 4836 111e 2946     		mov	r1, r5
 4837 1120 3D20     		movs	r0, #61
 4838 1122 FFF7FEFF 		bl	PCA9959_Write_4
 4839              	.LVL897:
 941:PCA9959.c     ****             PCA9959_Write_4(Ch9_Cf2, Brg);
 4840              		.loc 1 941 0
 4841 1126 2946     		mov	r1, r5
 4842 1128 4120     		movs	r0, #65
 4843 112a FFF7FEFF 		bl	PCA9959_Write_4
 4844              	.LVL898:
 942:PCA9959.c     ****             PCA9959_Write_4(Ch10_Cf2, Brg);
 4845              		.loc 1 942 0
 4846 112e 2946     		mov	r1, r5
 4847 1130 4520     		movs	r0, #69
 4848 1132 FFF7FEFF 		bl	PCA9959_Write_4
 4849              	.LVL899:
 943:PCA9959.c     ****             PCA9959_Write_4(Ch11_Cf2, Brg);
 4850              		.loc 1 943 0
 4851 1136 2946     		mov	r1, r5
 4852 1138 4920     		movs	r0, #73
 4853 113a FFF7FEFF 		bl	PCA9959_Write_4
 4854              	.LVL900:
 944:PCA9959.c     ****             
 4855              		.loc 1 944 0
 4856 113e 2946     		mov	r1, r5
 4857 1140 4D20     		movs	r0, #77
 4858 1142 FFF7FEFF 		bl	PCA9959_Write_4
 4859              	.LVL901:
 946:PCA9959.c     ****             PCA9959_Write_4(Ch13_Cf2, Brg);
 4860              		.loc 1 946 0
 4861 1146 2946     		mov	r1, r5
 4862 1148 5120     		movs	r0, #81
ARM GAS  C:\Users\Revanth\AppData\Local\Temp\ccqs06ys.s 			page 126


 4863 114a FFF7FEFF 		bl	PCA9959_Write_4
 4864              	.LVL902:
 947:PCA9959.c     ****             PCA9959_Write_4(Ch14_Cf2, Brg);
 4865              		.loc 1 947 0
 4866 114e 2946     		mov	r1, r5
 4867 1150 5520     		movs	r0, #85
 4868 1152 FFF7FEFF 		bl	PCA9959_Write_4
 4869              	.LVL903:
 948:PCA9959.c     ****             PCA9959_Write_4(Ch15_Cf2, Brg);
 4870              		.loc 1 948 0
 4871 1156 2946     		mov	r1, r5
 4872 1158 5920     		movs	r0, #89
 4873 115a FFF7FEFF 		bl	PCA9959_Write_4
 4874              	.LVL904:
 949:PCA9959.c     ****             PCA9959_Write_4(Ch16_Cf2, Brg);
 4875              		.loc 1 949 0
 4876 115e 2946     		mov	r1, r5
 4877 1160 5D20     		movs	r0, #93
 4878 1162 FFF7FEFF 		bl	PCA9959_Write_4
 4879              	.LVL905:
 950:PCA9959.c     ****             PCA9959_Write_4(Ch17_Cf2, Brg);
 4880              		.loc 1 950 0
 4881 1166 2946     		mov	r1, r5
 4882 1168 6120     		movs	r0, #97
 4883 116a FFF7FEFF 		bl	PCA9959_Write_4
 4884              	.LVL906:
 951:PCA9959.c     ****             PCA9959_Write_4(Ch18_Cf2, Brg);
 4885              		.loc 1 951 0
 4886 116e 2946     		mov	r1, r5
 4887 1170 6520     		movs	r0, #101
 4888 1172 FFF7FEFF 		bl	PCA9959_Write_4
 4889              	.LVL907:
 952:PCA9959.c     ****             PCA9959_Write_4(Ch19_Cf2, Brg);
 4890              		.loc 1 952 0
 4891 1176 2946     		mov	r1, r5
 4892 1178 6920     		movs	r0, #105
 4893 117a FFF7FEFF 		bl	PCA9959_Write_4
 4894              	.LVL908:
 953:PCA9959.c     ****             PCA9959_Write_4(Ch20_Cf2, Brg);
 4895              		.loc 1 953 0
 4896 117e 2946     		mov	r1, r5
 4897 1180 6D20     		movs	r0, #109
 4898 1182 FFF7FEFF 		bl	PCA9959_Write_4
 4899              	.LVL909:
 954:PCA9959.c     ****             PCA9959_Write_4(Ch21_Cf2, Brg);
 4900              		.loc 1 954 0
 4901 1186 2946     		mov	r1, r5
 4902 1188 7120     		movs	r0, #113
 4903 118a FFF7FEFF 		bl	PCA9959_Write_4
 4904              	.LVL910:
 955:PCA9959.c     ****             PCA9959_Write_4(Ch22_Cf2, Brg);
 4905              		.loc 1 955 0
 4906 118e 2946     		mov	r1, r5
 4907 1190 7520     		movs	r0, #117
 4908 1192 FFF7FEFF 		bl	PCA9959_Write_4
 4909              	.LVL911:
 956:PCA9959.c     ****             PCA9959_Write_4(Ch23_Cf2, Brg); 
ARM GAS  C:\Users\Revanth\AppData\Local\Temp\ccqs06ys.s 			page 127


 4910              		.loc 1 956 0
 4911 1196 2946     		mov	r1, r5
 4912 1198 7920     		movs	r0, #121
 4913 119a FFF7FEFF 		bl	PCA9959_Write_4
 4914              	.LVL912:
 957:PCA9959.c     ****             CyDelay(100);
 4915              		.loc 1 957 0
 4916 119e 2946     		mov	r1, r5
 4917 11a0 7D20     		movs	r0, #125
 4918 11a2 FFF7FEFF 		bl	PCA9959_Write_4
 4919              	.LVL913:
 958:PCA9959.c     ****             Pin_OE_PCA9959_4_Write(0);
 4920              		.loc 1 958 0
 4921 11a6 6420     		movs	r0, #100
 4922 11a8 FFF7FEFF 		bl	CyDelay
 4923              	.LVL914:
 959:PCA9959.c     ****         }
 4924              		.loc 1 959 0
 4925 11ac 0020     		movs	r0, #0
 4926 11ae FFF7FEFF 		bl	Pin_OE_PCA9959_4_Write
 4927              	.LVL915:
 4928 11b2 38BD     		pop	{r3, r4, r5, pc}
 4929              	.L87:
 962:PCA9959.c     ****         {
 4930              		.loc 1 962 0
 4931 11b4 0C2C     		cmp	r4, #12
 4932 11b6 40F09381 		bne	.L88
 964:PCA9959.c     ****             PageSel_3(ChSel);
 4933              		.loc 1 964 0
 4934 11ba 0120     		movs	r0, #1
 4935 11bc FFF7FEFF 		bl	Pin_OE_PCA9959_3_Write
 4936              	.LVL916:
 965:PCA9959.c     ****             PCA9959_Write_3(Ch0_Cf1, 0x01);                       //LED Channel 0 is assigned to Gr
 4937              		.loc 1 965 0
 4938 11c0 0120     		movs	r0, #1
 4939 11c2 FFF7FEFF 		bl	PageSel_3
 4940              	.LVL917:
 966:PCA9959.c     ****             PCA9959_Write_3(Ch1_Cf1, 0x01);
 4941              		.loc 1 966 0
 4942 11c6 0121     		movs	r1, #1
 4943 11c8 2020     		movs	r0, #32
 4944 11ca FFF7FEFF 		bl	PCA9959_Write_3
 4945              	.LVL918:
 967:PCA9959.c     ****             PCA9959_Write_3(Ch2_Cf1, 0x01); 
 4946              		.loc 1 967 0
 4947 11ce 0121     		movs	r1, #1
 4948 11d0 2420     		movs	r0, #36
 4949 11d2 FFF7FEFF 		bl	PCA9959_Write_3
 4950              	.LVL919:
 968:PCA9959.c     ****             PCA9959_Write_3(Ch3_Cf1, 0x01); 
 4951              		.loc 1 968 0
 4952 11d6 0121     		movs	r1, #1
 4953 11d8 2820     		movs	r0, #40
 4954 11da FFF7FEFF 		bl	PCA9959_Write_3
 4955              	.LVL920:
 969:PCA9959.c     ****             
 4956              		.loc 1 969 0
ARM GAS  C:\Users\Revanth\AppData\Local\Temp\ccqs06ys.s 			page 128


 4957 11de 0121     		movs	r1, #1
 4958 11e0 2C20     		movs	r0, #44
 4959 11e2 FFF7FEFF 		bl	PCA9959_Write_3
 4960              	.LVL921:
 972:PCA9959.c     ****             PCA9959_Write_3(Ch5_Cf1, 0x01); 
 4961              		.loc 1 972 0
 4962 11e6 0121     		movs	r1, #1
 4963 11e8 3020     		movs	r0, #48
 4964 11ea FFF7FEFF 		bl	PCA9959_Write_3
 4965              	.LVL922:
 973:PCA9959.c     ****             PCA9959_Write_3(Ch6_Cf1, 0x01); 
 4966              		.loc 1 973 0
 4967 11ee 0121     		movs	r1, #1
 4968 11f0 3420     		movs	r0, #52
 4969 11f2 FFF7FEFF 		bl	PCA9959_Write_3
 4970              	.LVL923:
 974:PCA9959.c     ****             PCA9959_Write_3(Ch7_Cf1, 0x01); 
 4971              		.loc 1 974 0
 4972 11f6 0121     		movs	r1, #1
 4973 11f8 3820     		movs	r0, #56
 4974 11fa FFF7FEFF 		bl	PCA9959_Write_3
 4975              	.LVL924:
 975:PCA9959.c     ****             PCA9959_Write_3(Ch8_Cf1, 0x01); 
 4976              		.loc 1 975 0
 4977 11fe 0121     		movs	r1, #1
 4978 1200 3C20     		movs	r0, #60
 4979 1202 FFF7FEFF 		bl	PCA9959_Write_3
 4980              	.LVL925:
 976:PCA9959.c     ****             PCA9959_Write_3(Ch9_Cf1, 0x01); 
 4981              		.loc 1 976 0
 4982 1206 0121     		movs	r1, #1
 4983 1208 4020     		movs	r0, #64
 4984 120a FFF7FEFF 		bl	PCA9959_Write_3
 4985              	.LVL926:
 977:PCA9959.c     ****             PCA9959_Write_3(Ch10_Cf1, 0x01); 
 4986              		.loc 1 977 0
 4987 120e 0121     		movs	r1, #1
 4988 1210 4420     		movs	r0, #68
 4989 1212 FFF7FEFF 		bl	PCA9959_Write_3
 4990              	.LVL927:
 978:PCA9959.c     ****             PCA9959_Write_3(Ch11_Cf1, 0x01);
 4991              		.loc 1 978 0
 4992 1216 0121     		movs	r1, #1
 4993 1218 4820     		movs	r0, #72
 4994 121a FFF7FEFF 		bl	PCA9959_Write_3
 4995              	.LVL928:
 979:PCA9959.c     ****             
 4996              		.loc 1 979 0
 4997 121e 0121     		movs	r1, #1
 4998 1220 4C20     		movs	r0, #76
 4999 1222 FFF7FEFF 		bl	PCA9959_Write_3
 5000              	.LVL929:
 981:PCA9959.c     ****             PCA9959_Write_3(Ch13_Cf1, 0x01);
 5001              		.loc 1 981 0
 5002 1226 0121     		movs	r1, #1
 5003 1228 5020     		movs	r0, #80
 5004 122a FFF7FEFF 		bl	PCA9959_Write_3
ARM GAS  C:\Users\Revanth\AppData\Local\Temp\ccqs06ys.s 			page 129


 5005              	.LVL930:
 982:PCA9959.c     ****             PCA9959_Write_3(Ch14_Cf1, 0x01);
 5006              		.loc 1 982 0
 5007 122e 0121     		movs	r1, #1
 5008 1230 5420     		movs	r0, #84
 5009 1232 FFF7FEFF 		bl	PCA9959_Write_3
 5010              	.LVL931:
 983:PCA9959.c     ****             PCA9959_Write_3(Ch15_Cf1, 0x00);
 5011              		.loc 1 983 0
 5012 1236 0121     		movs	r1, #1
 5013 1238 5820     		movs	r0, #88
 5014 123a FFF7FEFF 		bl	PCA9959_Write_3
 5015              	.LVL932:
 984:PCA9959.c     ****             PCA9959_Write_3(Ch16_Cf1, 0x00);
 5016              		.loc 1 984 0
 5017 123e 0021     		movs	r1, #0
 5018 1240 5C20     		movs	r0, #92
 5019 1242 FFF7FEFF 		bl	PCA9959_Write_3
 5020              	.LVL933:
 985:PCA9959.c     ****             PCA9959_Write_3(Ch17_Cf1, 0x00);
 5021              		.loc 1 985 0
 5022 1246 0021     		movs	r1, #0
 5023 1248 6020     		movs	r0, #96
 5024 124a FFF7FEFF 		bl	PCA9959_Write_3
 5025              	.LVL934:
 986:PCA9959.c     ****             PCA9959_Write_3(Ch18_Cf1, 0x00);
 5026              		.loc 1 986 0
 5027 124e 0021     		movs	r1, #0
 5028 1250 6420     		movs	r0, #100
 5029 1252 FFF7FEFF 		bl	PCA9959_Write_3
 5030              	.LVL935:
 987:PCA9959.c     ****             PCA9959_Write_3(Ch19_Cf1, 0x00);
 5031              		.loc 1 987 0
 5032 1256 0021     		movs	r1, #0
 5033 1258 6820     		movs	r0, #104
 5034 125a FFF7FEFF 		bl	PCA9959_Write_3
 5035              	.LVL936:
 988:PCA9959.c     ****             PCA9959_Write_3(Ch20_Cf1, 0x00);
 5036              		.loc 1 988 0
 5037 125e 0021     		movs	r1, #0
 5038 1260 6C20     		movs	r0, #108
 5039 1262 FFF7FEFF 		bl	PCA9959_Write_3
 5040              	.LVL937:
 989:PCA9959.c     ****             PCA9959_Write_3(Ch21_Cf1, 0x00);
 5041              		.loc 1 989 0
 5042 1266 0021     		movs	r1, #0
 5043 1268 7020     		movs	r0, #112
 5044 126a FFF7FEFF 		bl	PCA9959_Write_3
 5045              	.LVL938:
 990:PCA9959.c     ****             PCA9959_Write_3(Ch22_Cf1, 0x00);
 5046              		.loc 1 990 0
 5047 126e 0021     		movs	r1, #0
 5048 1270 7420     		movs	r0, #116
 5049 1272 FFF7FEFF 		bl	PCA9959_Write_3
 5050              	.LVL939:
 991:PCA9959.c     ****             PCA9959_Write_3(Ch23_Cf1, 0x00);
 5051              		.loc 1 991 0
ARM GAS  C:\Users\Revanth\AppData\Local\Temp\ccqs06ys.s 			page 130


 5052 1276 0021     		movs	r1, #0
 5053 1278 7820     		movs	r0, #120
 5054 127a FFF7FEFF 		bl	PCA9959_Write_3
 5055              	.LVL940:
 992:PCA9959.c     ****             
 5056              		.loc 1 992 0
 5057 127e 0021     		movs	r1, #0
 5058 1280 7C20     		movs	r0, #124
 5059 1282 FFF7FEFF 		bl	PCA9959_Write_3
 5060              	.LVL941:
 996:PCA9959.c     ****             PCA9959_Write_3(Ch1_Cf2, Brg);
 5061              		.loc 1 996 0
 5062 1286 2946     		mov	r1, r5
 5063 1288 2120     		movs	r0, #33
 5064 128a FFF7FEFF 		bl	PCA9959_Write_3
 5065              	.LVL942:
 997:PCA9959.c     ****             PCA9959_Write_3(Ch2_Cf2, Brg);
 5066              		.loc 1 997 0
 5067 128e 2946     		mov	r1, r5
 5068 1290 2520     		movs	r0, #37
 5069 1292 FFF7FEFF 		bl	PCA9959_Write_3
 5070              	.LVL943:
 998:PCA9959.c     ****             PCA9959_Write_3(Ch3_Cf2, Brg);
 5071              		.loc 1 998 0
 5072 1296 2946     		mov	r1, r5
 5073 1298 2920     		movs	r0, #41
 5074 129a FFF7FEFF 		bl	PCA9959_Write_3
 5075              	.LVL944:
 999:PCA9959.c     ****             PCA9959_Write_3(Ch4_Cf2, Brg);
 5076              		.loc 1 999 0
 5077 129e 2946     		mov	r1, r5
 5078 12a0 2D20     		movs	r0, #45
 5079 12a2 FFF7FEFF 		bl	PCA9959_Write_3
 5080              	.LVL945:
1000:PCA9959.c     ****             PCA9959_Write_3(Ch5_Cf2, Brg);
 5081              		.loc 1 1000 0
 5082 12a6 2946     		mov	r1, r5
 5083 12a8 3120     		movs	r0, #49
 5084 12aa FFF7FEFF 		bl	PCA9959_Write_3
 5085              	.LVL946:
1001:PCA9959.c     ****             PCA9959_Write_3(Ch6_Cf2, Brg);
 5086              		.loc 1 1001 0
 5087 12ae 2946     		mov	r1, r5
 5088 12b0 3520     		movs	r0, #53
 5089 12b2 FFF7FEFF 		bl	PCA9959_Write_3
 5090              	.LVL947:
1002:PCA9959.c     ****             PCA9959_Write_3(Ch7_Cf2, Brg);
 5091              		.loc 1 1002 0
 5092 12b6 2946     		mov	r1, r5
 5093 12b8 3920     		movs	r0, #57
 5094 12ba FFF7FEFF 		bl	PCA9959_Write_3
 5095              	.LVL948:
1003:PCA9959.c     ****             PCA9959_Write_3(Ch8_Cf2, Brg);
 5096              		.loc 1 1003 0
 5097 12be 2946     		mov	r1, r5
 5098 12c0 3D20     		movs	r0, #61
 5099 12c2 FFF7FEFF 		bl	PCA9959_Write_3
ARM GAS  C:\Users\Revanth\AppData\Local\Temp\ccqs06ys.s 			page 131


 5100              	.LVL949:
1004:PCA9959.c     ****             PCA9959_Write_3(Ch9_Cf2, Brg);
 5101              		.loc 1 1004 0
 5102 12c6 2946     		mov	r1, r5
 5103 12c8 4120     		movs	r0, #65
 5104 12ca FFF7FEFF 		bl	PCA9959_Write_3
 5105              	.LVL950:
1005:PCA9959.c     ****             PCA9959_Write_3(Ch10_Cf2, Brg);
 5106              		.loc 1 1005 0
 5107 12ce 2946     		mov	r1, r5
 5108 12d0 4520     		movs	r0, #69
 5109 12d2 FFF7FEFF 		bl	PCA9959_Write_3
 5110              	.LVL951:
1006:PCA9959.c     ****             PCA9959_Write_3(Ch11_Cf2, Brg);
 5111              		.loc 1 1006 0
 5112 12d6 2946     		mov	r1, r5
 5113 12d8 4920     		movs	r0, #73
 5114 12da FFF7FEFF 		bl	PCA9959_Write_3
 5115              	.LVL952:
1007:PCA9959.c     ****             
 5116              		.loc 1 1007 0
 5117 12de 2946     		mov	r1, r5
 5118 12e0 4D20     		movs	r0, #77
 5119 12e2 FFF7FEFF 		bl	PCA9959_Write_3
 5120              	.LVL953:
1009:PCA9959.c     ****             PCA9959_Write_3(Ch13_Cf2, Brg);
 5121              		.loc 1 1009 0
 5122 12e6 2946     		mov	r1, r5
 5123 12e8 5120     		movs	r0, #81
 5124 12ea FFF7FEFF 		bl	PCA9959_Write_3
 5125              	.LVL954:
1010:PCA9959.c     ****             PCA9959_Write_3(Ch14_Cf2, Brg);
 5126              		.loc 1 1010 0
 5127 12ee 2946     		mov	r1, r5
 5128 12f0 5520     		movs	r0, #85
 5129 12f2 FFF7FEFF 		bl	PCA9959_Write_3
 5130              	.LVL955:
1011:PCA9959.c     ****             PCA9959_Write_3(Ch15_Cf2, 0x00);
 5131              		.loc 1 1011 0
 5132 12f6 2946     		mov	r1, r5
 5133 12f8 5920     		movs	r0, #89
 5134 12fa FFF7FEFF 		bl	PCA9959_Write_3
 5135              	.LVL956:
1012:PCA9959.c     ****             PCA9959_Write_3(Ch16_Cf2, 0x00);
 5136              		.loc 1 1012 0
 5137 12fe 0021     		movs	r1, #0
 5138 1300 5D20     		movs	r0, #93
 5139 1302 FFF7FEFF 		bl	PCA9959_Write_3
 5140              	.LVL957:
1013:PCA9959.c     ****             PCA9959_Write_3(Ch17_Cf2, 0x00);
 5141              		.loc 1 1013 0
 5142 1306 0021     		movs	r1, #0
 5143 1308 6120     		movs	r0, #97
 5144 130a FFF7FEFF 		bl	PCA9959_Write_3
 5145              	.LVL958:
1014:PCA9959.c     ****             PCA9959_Write_3(Ch18_Cf2, 0x00);
 5146              		.loc 1 1014 0
ARM GAS  C:\Users\Revanth\AppData\Local\Temp\ccqs06ys.s 			page 132


 5147 130e 0021     		movs	r1, #0
 5148 1310 6520     		movs	r0, #101
 5149 1312 FFF7FEFF 		bl	PCA9959_Write_3
 5150              	.LVL959:
1015:PCA9959.c     ****             PCA9959_Write_3(Ch19_Cf2, 0x00);
 5151              		.loc 1 1015 0
 5152 1316 0021     		movs	r1, #0
 5153 1318 6920     		movs	r0, #105
 5154 131a FFF7FEFF 		bl	PCA9959_Write_3
 5155              	.LVL960:
1016:PCA9959.c     ****             PCA9959_Write_3(Ch20_Cf2, 0x00);
 5156              		.loc 1 1016 0
 5157 131e 0021     		movs	r1, #0
 5158 1320 6D20     		movs	r0, #109
 5159 1322 FFF7FEFF 		bl	PCA9959_Write_3
 5160              	.LVL961:
1017:PCA9959.c     ****             PCA9959_Write_3(Ch21_Cf2, 0x00);
 5161              		.loc 1 1017 0
 5162 1326 0021     		movs	r1, #0
 5163 1328 7120     		movs	r0, #113
 5164 132a FFF7FEFF 		bl	PCA9959_Write_3
 5165              	.LVL962:
1018:PCA9959.c     ****             PCA9959_Write_3(Ch22_Cf2, 0x00);
 5166              		.loc 1 1018 0
 5167 132e 0021     		movs	r1, #0
 5168 1330 7520     		movs	r0, #117
 5169 1332 FFF7FEFF 		bl	PCA9959_Write_3
 5170              	.LVL963:
1019:PCA9959.c     ****             PCA9959_Write_3(Ch23_Cf2, 0x00); 
 5171              		.loc 1 1019 0
 5172 1336 0021     		movs	r1, #0
 5173 1338 7920     		movs	r0, #121
 5174 133a FFF7FEFF 		bl	PCA9959_Write_3
 5175              	.LVL964:
1020:PCA9959.c     ****             //CyDelay(50);
 5176              		.loc 1 1020 0
 5177 133e 0021     		movs	r1, #0
 5178 1340 7D20     		movs	r0, #125
 5179 1342 FFF7FEFF 		bl	PCA9959_Write_3
 5180              	.LVL965:
1022:PCA9959.c     ****             
 5181              		.loc 1 1022 0
 5182 1346 0020     		movs	r0, #0
 5183 1348 FFF7FEFF 		bl	Pin_OE_PCA9959_3_Write
 5184              	.LVL966:
1024:PCA9959.c     ****             PageSel_2(ChSel);
 5185              		.loc 1 1024 0
 5186 134c 0120     		movs	r0, #1
 5187 134e FFF7FEFF 		bl	Pin_OE_PCA9959_2_Write
 5188              	.LVL967:
1025:PCA9959.c     ****             PCA9959_Write_2(Ch0_Cf1, 0x01);                       //LED Channel 0 is assigned to Gr
 5189              		.loc 1 1025 0
 5190 1352 0120     		movs	r0, #1
 5191 1354 FFF7FEFF 		bl	PageSel_2
 5192              	.LVL968:
1026:PCA9959.c     ****             PCA9959_Write_2(Ch1_Cf1, 0x01);
 5193              		.loc 1 1026 0
ARM GAS  C:\Users\Revanth\AppData\Local\Temp\ccqs06ys.s 			page 133


 5194 1358 0121     		movs	r1, #1
 5195 135a 2020     		movs	r0, #32
 5196 135c FFF7FEFF 		bl	PCA9959_Write_2
 5197              	.LVL969:
1027:PCA9959.c     ****             PCA9959_Write_2(Ch2_Cf1, 0x01); 
 5198              		.loc 1 1027 0
 5199 1360 0121     		movs	r1, #1
 5200 1362 2420     		movs	r0, #36
 5201 1364 FFF7FEFF 		bl	PCA9959_Write_2
 5202              	.LVL970:
1028:PCA9959.c     ****             PCA9959_Write_2(Ch3_Cf1, 0x01); 
 5203              		.loc 1 1028 0
 5204 1368 0121     		movs	r1, #1
 5205 136a 2820     		movs	r0, #40
 5206 136c FFF7FEFF 		bl	PCA9959_Write_2
 5207              	.LVL971:
1029:PCA9959.c     ****             
 5208              		.loc 1 1029 0
 5209 1370 0121     		movs	r1, #1
 5210 1372 2C20     		movs	r0, #44
 5211 1374 FFF7FEFF 		bl	PCA9959_Write_2
 5212              	.LVL972:
1032:PCA9959.c     ****             PCA9959_Write_2(Ch5_Cf1, 0x01); 
 5213              		.loc 1 1032 0
 5214 1378 0121     		movs	r1, #1
 5215 137a 3020     		movs	r0, #48
 5216 137c FFF7FEFF 		bl	PCA9959_Write_2
 5217              	.LVL973:
1033:PCA9959.c     ****             PCA9959_Write_2(Ch6_Cf1, 0x01); 
 5218              		.loc 1 1033 0
 5219 1380 0121     		movs	r1, #1
 5220 1382 3420     		movs	r0, #52
 5221 1384 FFF7FEFF 		bl	PCA9959_Write_2
 5222              	.LVL974:
1034:PCA9959.c     ****             PCA9959_Write_2(Ch7_Cf1, 0x01); 
 5223              		.loc 1 1034 0
 5224 1388 0121     		movs	r1, #1
 5225 138a 3820     		movs	r0, #56
 5226 138c FFF7FEFF 		bl	PCA9959_Write_2
 5227              	.LVL975:
1035:PCA9959.c     ****             PCA9959_Write_2(Ch8_Cf1, 0x01); 
 5228              		.loc 1 1035 0
 5229 1390 0121     		movs	r1, #1
 5230 1392 3C20     		movs	r0, #60
 5231 1394 FFF7FEFF 		bl	PCA9959_Write_2
 5232              	.LVL976:
1036:PCA9959.c     ****             PCA9959_Write_2(Ch9_Cf1, 0x01); 
 5233              		.loc 1 1036 0
 5234 1398 0121     		movs	r1, #1
 5235 139a 4020     		movs	r0, #64
 5236 139c FFF7FEFF 		bl	PCA9959_Write_2
 5237              	.LVL977:
1037:PCA9959.c     ****             PCA9959_Write_2(Ch10_Cf1, 0x01); 
 5238              		.loc 1 1037 0
 5239 13a0 0121     		movs	r1, #1
 5240 13a2 4420     		movs	r0, #68
 5241 13a4 FFF7FEFF 		bl	PCA9959_Write_2
ARM GAS  C:\Users\Revanth\AppData\Local\Temp\ccqs06ys.s 			page 134


 5242              	.LVL978:
1038:PCA9959.c     ****             PCA9959_Write_2(Ch11_Cf1, 0x01);
 5243              		.loc 1 1038 0
 5244 13a8 0121     		movs	r1, #1
 5245 13aa 4820     		movs	r0, #72
 5246 13ac FFF7FEFF 		bl	PCA9959_Write_2
 5247              	.LVL979:
1039:PCA9959.c     ****             
 5248              		.loc 1 1039 0
 5249 13b0 0121     		movs	r1, #1
 5250 13b2 4C20     		movs	r0, #76
 5251 13b4 FFF7FEFF 		bl	PCA9959_Write_2
 5252              	.LVL980:
1041:PCA9959.c     ****             PCA9959_Write_2(Ch13_Cf1, 0x01);
 5253              		.loc 1 1041 0
 5254 13b8 0121     		movs	r1, #1
 5255 13ba 5020     		movs	r0, #80
 5256 13bc FFF7FEFF 		bl	PCA9959_Write_2
 5257              	.LVL981:
1042:PCA9959.c     ****             PCA9959_Write_2(Ch14_Cf1, 0x01);
 5258              		.loc 1 1042 0
 5259 13c0 0121     		movs	r1, #1
 5260 13c2 5420     		movs	r0, #84
 5261 13c4 FFF7FEFF 		bl	PCA9959_Write_2
 5262              	.LVL982:
1043:PCA9959.c     ****             PCA9959_Write_2(Ch15_Cf1, 0x00);
 5263              		.loc 1 1043 0
 5264 13c8 0121     		movs	r1, #1
 5265 13ca 5820     		movs	r0, #88
 5266 13cc FFF7FEFF 		bl	PCA9959_Write_2
 5267              	.LVL983:
1044:PCA9959.c     ****             PCA9959_Write_2(Ch16_Cf1, 0x00);
 5268              		.loc 1 1044 0
 5269 13d0 0021     		movs	r1, #0
 5270 13d2 5C20     		movs	r0, #92
 5271 13d4 FFF7FEFF 		bl	PCA9959_Write_2
 5272              	.LVL984:
1045:PCA9959.c     ****             PCA9959_Write_2(Ch17_Cf1, 0x00);
 5273              		.loc 1 1045 0
 5274 13d8 0021     		movs	r1, #0
 5275 13da 6020     		movs	r0, #96
 5276 13dc FFF7FEFF 		bl	PCA9959_Write_2
 5277              	.LVL985:
1046:PCA9959.c     ****             PCA9959_Write_2(Ch18_Cf1, 0x00);
 5278              		.loc 1 1046 0
 5279 13e0 0021     		movs	r1, #0
 5280 13e2 6420     		movs	r0, #100
 5281 13e4 FFF7FEFF 		bl	PCA9959_Write_2
 5282              	.LVL986:
1047:PCA9959.c     ****             PCA9959_Write_2(Ch19_Cf1, 0x00);
 5283              		.loc 1 1047 0
 5284 13e8 0021     		movs	r1, #0
 5285 13ea 6820     		movs	r0, #104
 5286 13ec FFF7FEFF 		bl	PCA9959_Write_2
 5287              	.LVL987:
1048:PCA9959.c     ****             PCA9959_Write_2(Ch20_Cf1, 0x00);
 5288              		.loc 1 1048 0
ARM GAS  C:\Users\Revanth\AppData\Local\Temp\ccqs06ys.s 			page 135


 5289 13f0 0021     		movs	r1, #0
 5290 13f2 6C20     		movs	r0, #108
 5291 13f4 FFF7FEFF 		bl	PCA9959_Write_2
 5292              	.LVL988:
1049:PCA9959.c     ****             PCA9959_Write_2(Ch21_Cf1, 0x00);
 5293              		.loc 1 1049 0
 5294 13f8 0021     		movs	r1, #0
 5295 13fa 7020     		movs	r0, #112
 5296 13fc FFF7FEFF 		bl	PCA9959_Write_2
 5297              	.LVL989:
1050:PCA9959.c     ****             PCA9959_Write_2(Ch22_Cf1, 0x00);
 5298              		.loc 1 1050 0
 5299 1400 0021     		movs	r1, #0
 5300 1402 7420     		movs	r0, #116
 5301 1404 FFF7FEFF 		bl	PCA9959_Write_2
 5302              	.LVL990:
1051:PCA9959.c     ****             PCA9959_Write_2(Ch23_Cf1, 0x00);
 5303              		.loc 1 1051 0
 5304 1408 0021     		movs	r1, #0
 5305 140a 7820     		movs	r0, #120
 5306 140c FFF7FEFF 		bl	PCA9959_Write_2
 5307              	.LVL991:
1052:PCA9959.c     ****             
 5308              		.loc 1 1052 0
 5309 1410 0021     		movs	r1, #0
 5310 1412 7C20     		movs	r0, #124
 5311 1414 FFF7FEFF 		bl	PCA9959_Write_2
 5312              	.LVL992:
1056:PCA9959.c     ****             PCA9959_Write_2(Ch1_Cf2, Brg);
 5313              		.loc 1 1056 0
 5314 1418 2946     		mov	r1, r5
 5315 141a 2120     		movs	r0, #33
 5316 141c FFF7FEFF 		bl	PCA9959_Write_2
 5317              	.LVL993:
1057:PCA9959.c     ****             PCA9959_Write_2(Ch2_Cf2, Brg);
 5318              		.loc 1 1057 0
 5319 1420 2946     		mov	r1, r5
 5320 1422 2520     		movs	r0, #37
 5321 1424 FFF7FEFF 		bl	PCA9959_Write_2
 5322              	.LVL994:
1058:PCA9959.c     ****             PCA9959_Write_2(Ch3_Cf2, Brg);
 5323              		.loc 1 1058 0
 5324 1428 2946     		mov	r1, r5
 5325 142a 2920     		movs	r0, #41
 5326 142c FFF7FEFF 		bl	PCA9959_Write_2
 5327              	.LVL995:
1059:PCA9959.c     ****             PCA9959_Write_2(Ch4_Cf2, Brg);
 5328              		.loc 1 1059 0
 5329 1430 2946     		mov	r1, r5
 5330 1432 2D20     		movs	r0, #45
 5331 1434 FFF7FEFF 		bl	PCA9959_Write_2
 5332              	.LVL996:
1060:PCA9959.c     ****             PCA9959_Write_2(Ch5_Cf2, Brg);
 5333              		.loc 1 1060 0
 5334 1438 2946     		mov	r1, r5
 5335 143a 3120     		movs	r0, #49
 5336 143c FFF7FEFF 		bl	PCA9959_Write_2
ARM GAS  C:\Users\Revanth\AppData\Local\Temp\ccqs06ys.s 			page 136


 5337              	.LVL997:
1061:PCA9959.c     ****             PCA9959_Write_2(Ch6_Cf2, Brg);
 5338              		.loc 1 1061 0
 5339 1440 2946     		mov	r1, r5
 5340 1442 3520     		movs	r0, #53
 5341 1444 FFF7FEFF 		bl	PCA9959_Write_2
 5342              	.LVL998:
1062:PCA9959.c     ****             PCA9959_Write_2(Ch7_Cf2, Brg);
 5343              		.loc 1 1062 0
 5344 1448 2946     		mov	r1, r5
 5345 144a 3920     		movs	r0, #57
 5346 144c FFF7FEFF 		bl	PCA9959_Write_2
 5347              	.LVL999:
1063:PCA9959.c     ****             PCA9959_Write_2(Ch8_Cf2, Brg);
 5348              		.loc 1 1063 0
 5349 1450 2946     		mov	r1, r5
 5350 1452 3D20     		movs	r0, #61
 5351 1454 FFF7FEFF 		bl	PCA9959_Write_2
 5352              	.LVL1000:
1064:PCA9959.c     ****             PCA9959_Write_2(Ch9_Cf2, Brg);
 5353              		.loc 1 1064 0
 5354 1458 2946     		mov	r1, r5
 5355 145a 4120     		movs	r0, #65
 5356 145c FFF7FEFF 		bl	PCA9959_Write_2
 5357              	.LVL1001:
1065:PCA9959.c     ****             PCA9959_Write_2(Ch10_Cf2, Brg);
 5358              		.loc 1 1065 0
 5359 1460 2946     		mov	r1, r5
 5360 1462 4520     		movs	r0, #69
 5361 1464 FFF7FEFF 		bl	PCA9959_Write_2
 5362              	.LVL1002:
1066:PCA9959.c     ****             PCA9959_Write_2(Ch11_Cf2, Brg);
 5363              		.loc 1 1066 0
 5364 1468 2946     		mov	r1, r5
 5365 146a 4920     		movs	r0, #73
 5366 146c FFF7FEFF 		bl	PCA9959_Write_2
 5367              	.LVL1003:
1067:PCA9959.c     ****             
 5368              		.loc 1 1067 0
 5369 1470 2946     		mov	r1, r5
 5370 1472 4D20     		movs	r0, #77
 5371 1474 FFF7FEFF 		bl	PCA9959_Write_2
 5372              	.LVL1004:
1069:PCA9959.c     ****             PCA9959_Write_2(Ch13_Cf2, Brg);
 5373              		.loc 1 1069 0
 5374 1478 2946     		mov	r1, r5
 5375 147a 5120     		movs	r0, #81
 5376 147c FFF7FEFF 		bl	PCA9959_Write_2
 5377              	.LVL1005:
1070:PCA9959.c     ****             PCA9959_Write_2(Ch14_Cf2, Brg);
 5378              		.loc 1 1070 0
 5379 1480 2946     		mov	r1, r5
 5380 1482 5520     		movs	r0, #85
 5381 1484 FFF7FEFF 		bl	PCA9959_Write_2
 5382              	.LVL1006:
1071:PCA9959.c     ****             PCA9959_Write_2(Ch15_Cf2, 0x00);
 5383              		.loc 1 1071 0
ARM GAS  C:\Users\Revanth\AppData\Local\Temp\ccqs06ys.s 			page 137


 5384 1488 2946     		mov	r1, r5
 5385 148a 5920     		movs	r0, #89
 5386 148c FFF7FEFF 		bl	PCA9959_Write_2
 5387              	.LVL1007:
1072:PCA9959.c     ****             PCA9959_Write_2(Ch16_Cf2, 0x00);
 5388              		.loc 1 1072 0
 5389 1490 0021     		movs	r1, #0
 5390 1492 5D20     		movs	r0, #93
 5391 1494 FFF7FEFF 		bl	PCA9959_Write_2
 5392              	.LVL1008:
1073:PCA9959.c     ****             PCA9959_Write_2(Ch17_Cf2, 0x00);
 5393              		.loc 1 1073 0
 5394 1498 0021     		movs	r1, #0
 5395 149a 6120     		movs	r0, #97
 5396 149c FFF7FEFF 		bl	PCA9959_Write_2
 5397              	.LVL1009:
1074:PCA9959.c     ****             PCA9959_Write_2(Ch18_Cf2, 0x00);
 5398              		.loc 1 1074 0
 5399 14a0 0021     		movs	r1, #0
 5400 14a2 6520     		movs	r0, #101
 5401 14a4 FFF7FEFF 		bl	PCA9959_Write_2
 5402              	.LVL1010:
1075:PCA9959.c     ****             PCA9959_Write_2(Ch19_Cf2, 0x00);
 5403              		.loc 1 1075 0
 5404 14a8 0021     		movs	r1, #0
 5405 14aa 6920     		movs	r0, #105
 5406 14ac FFF7FEFF 		bl	PCA9959_Write_2
 5407              	.LVL1011:
1076:PCA9959.c     ****             PCA9959_Write_2(Ch20_Cf2, 0x00);
 5408              		.loc 1 1076 0
 5409 14b0 0021     		movs	r1, #0
 5410 14b2 6D20     		movs	r0, #109
 5411 14b4 FFF7FEFF 		bl	PCA9959_Write_2
 5412              	.LVL1012:
1077:PCA9959.c     ****             PCA9959_Write_2(Ch21_Cf2, 0x00);
 5413              		.loc 1 1077 0
 5414 14b8 0021     		movs	r1, #0
 5415 14ba 7120     		movs	r0, #113
 5416 14bc FFF7FEFF 		bl	PCA9959_Write_2
 5417              	.LVL1013:
1078:PCA9959.c     ****             PCA9959_Write_2(Ch22_Cf2, 0x00);
 5418              		.loc 1 1078 0
 5419 14c0 0021     		movs	r1, #0
 5420 14c2 7520     		movs	r0, #117
 5421 14c4 FFF7FEFF 		bl	PCA9959_Write_2
 5422              	.LVL1014:
1079:PCA9959.c     ****             PCA9959_Write_2(Ch23_Cf2, 0x00); 
 5423              		.loc 1 1079 0
 5424 14c8 0021     		movs	r1, #0
 5425 14ca 7920     		movs	r0, #121
 5426 14cc FFF7FEFF 		bl	PCA9959_Write_2
 5427              	.LVL1015:
1080:PCA9959.c     ****             
 5428              		.loc 1 1080 0
 5429 14d0 0021     		movs	r1, #0
 5430 14d2 7D20     		movs	r0, #125
 5431 14d4 FFF7FEFF 		bl	PCA9959_Write_2
ARM GAS  C:\Users\Revanth\AppData\Local\Temp\ccqs06ys.s 			page 138


 5432              	.LVL1016:
1082:PCA9959.c     ****         }
 5433              		.loc 1 1082 0
 5434 14d8 0020     		movs	r0, #0
 5435 14da FFF7FEFF 		bl	Pin_OE_PCA9959_2_Write
 5436              	.LVL1017:
 5437 14de 38BD     		pop	{r3, r4, r5, pc}
 5438              	.L88:
1088:PCA9959.c     ****         }
 5439              		.loc 1 1088 0
 5440 14e0 FFF7FEFF 		bl	PCA9959_clear
 5441              	.LVL1018:
 5442 14e4 38BD     		pop	{r3, r4, r5, pc}
 5443              		.cfi_endproc
 5444              	.LFE80:
 5445              		.size	PCA9959_ChnEn, .-PCA9959_ChnEn
 5446              		.global	PgSl
 5447              		.global	Op
 5448              		.global	Data
 5449              		.global	RegAddr
 5450              		.global	TX
 5451              		.global	RX
 5452 14e6 00BF     		.data
 5453              		.set	.LANCHOR0,. + 0
 5454              		.type	Op, %object
 5455              		.size	Op, 1
 5456              	Op:
 5457 0000 01       		.byte	1
 5458              		.bss
 5459              		.align	1
 5460              		.set	.LANCHOR1,. + 0
 5461              		.type	TX, %object
 5462              		.size	TX, 2
 5463              	TX:
 5464 0000 0000     		.space	2
 5465              		.type	RegAddr, %object
 5466              		.size	RegAddr, 1
 5467              	RegAddr:
 5468 0002 00       		.space	1
 5469              		.type	Data, %object
 5470              		.size	Data, 1
 5471              	Data:
 5472 0003 00       		.space	1
 5473              		.type	PgSl, %object
 5474              		.size	PgSl, 1
 5475              	PgSl:
 5476 0004 00       		.space	1
 5477 0005 00       		.space	1
 5478              		.type	RX, %object
 5479              		.size	RX, 2
 5480              	RX:
 5481 0006 0000     		.space	2
 5482              		.text
 5483              	.Letext0:
 5484              		.file 2 "c:\\program files (x86)\\cypress\\psoc creator\\4.4\\psoc creator\\import\\gnu\\arm\\5.4.
 5485              		.file 3 "c:\\program files (x86)\\cypress\\psoc creator\\4.4\\psoc creator\\import\\gnu\\arm\\5.4.
 5486              		.file 4 "Generated_Source\\PSoC5/cytypes.h"
ARM GAS  C:\Users\Revanth\AppData\Local\Temp\ccqs06ys.s 			page 139


 5487              		.file 5 "Generated_Source\\PSoC5/core_cm3.h"
 5488              		.file 6 "Generated_Source\\PSoC5/Pin_MOSI_PCA9959.h"
 5489              		.file 7 "Generated_Source\\PSoC5/Pin_SCK_PCA9959.h"
 5490              		.file 8 "Generated_Source\\PSoC5/CyLib.h"
 5491              		.file 9 "Generated_Source\\PSoC5/Pin_SS_PCA9959.h"
 5492              		.file 10 "Generated_Source\\PSoC5/Pin_OE_PCA9959_1.h"
 5493              		.file 11 "Generated_Source\\PSoC5/Pin_OE_PCA9959_2.h"
 5494              		.file 12 "Generated_Source\\PSoC5/Pin_OE_PCA9959_3.h"
 5495              		.file 13 "Generated_Source\\PSoC5/Pin_OE_PCA9959_4.h"
 5496              		.file 14 "Generated_Source\\PSoC5/Pin_RST_PCA9959.h"
 5497              		.section	.debug_info,"",%progbits
 5498              	.Ldebug_info0:
 5499 0000 F65F0000 		.4byte	0x5ff6
 5500 0004 0400     		.2byte	0x4
 5501 0006 00000000 		.4byte	.Ldebug_abbrev0
 5502 000a 04       		.byte	0x4
 5503 000b 01       		.uleb128 0x1
 5504 000c 62030000 		.4byte	.LASF60
 5505 0010 0C       		.byte	0xc
 5506 0011 8F000000 		.4byte	.LASF61
 5507 0015 99000000 		.4byte	.LASF62
 5508 0019 00000000 		.4byte	.Ldebug_ranges0+0
 5509 001d 00000000 		.4byte	0
 5510 0021 00000000 		.4byte	.Ldebug_line0
 5511 0025 02       		.uleb128 0x2
 5512 0026 01       		.byte	0x1
 5513 0027 06       		.byte	0x6
 5514 0028 18020000 		.4byte	.LASF0
 5515 002c 03       		.uleb128 0x3
 5516 002d C6010000 		.4byte	.LASF3
 5517 0031 02       		.byte	0x2
 5518 0032 1D       		.byte	0x1d
 5519 0033 37000000 		.4byte	0x37
 5520 0037 02       		.uleb128 0x2
 5521 0038 01       		.byte	0x1
 5522 0039 08       		.byte	0x8
 5523 003a 0A020000 		.4byte	.LASF1
 5524 003e 02       		.uleb128 0x2
 5525 003f 02       		.byte	0x2
 5526 0040 05       		.byte	0x5
 5527 0041 49000000 		.4byte	.LASF2
 5528 0045 03       		.uleb128 0x3
 5529 0046 84000000 		.4byte	.LASF4
 5530 004a 02       		.byte	0x2
 5531 004b 2B       		.byte	0x2b
 5532 004c 50000000 		.4byte	0x50
 5533 0050 02       		.uleb128 0x2
 5534 0051 02       		.byte	0x2
 5535 0052 07       		.byte	0x7
 5536 0053 78020000 		.4byte	.LASF5
 5537 0057 03       		.uleb128 0x3
 5538 0058 F1020000 		.4byte	.LASF6
 5539 005c 02       		.byte	0x2
 5540 005d 3F       		.byte	0x3f
 5541 005e 62000000 		.4byte	0x62
 5542 0062 02       		.uleb128 0x2
 5543 0063 04       		.byte	0x4
ARM GAS  C:\Users\Revanth\AppData\Local\Temp\ccqs06ys.s 			page 140


 5544 0064 05       		.byte	0x5
 5545 0065 90020000 		.4byte	.LASF7
 5546 0069 02       		.uleb128 0x2
 5547 006a 04       		.byte	0x4
 5548 006b 07       		.byte	0x7
 5549 006c BE020000 		.4byte	.LASF8
 5550 0070 02       		.uleb128 0x2
 5551 0071 08       		.byte	0x8
 5552 0072 05       		.byte	0x5
 5553 0073 52010000 		.4byte	.LASF9
 5554 0077 02       		.uleb128 0x2
 5555 0078 08       		.byte	0x8
 5556 0079 07       		.byte	0x7
 5557 007a 24020000 		.4byte	.LASF10
 5558 007e 04       		.uleb128 0x4
 5559 007f 04       		.byte	0x4
 5560 0080 05       		.byte	0x5
 5561 0081 696E7400 		.ascii	"int\000"
 5562 0085 02       		.uleb128 0x2
 5563 0086 04       		.byte	0x4
 5564 0087 07       		.byte	0x7
 5565 0088 49020000 		.4byte	.LASF11
 5566 008c 03       		.uleb128 0x3
 5567 008d EE000000 		.4byte	.LASF12
 5568 0091 03       		.byte	0x3
 5569 0092 18       		.byte	0x18
 5570 0093 2C000000 		.4byte	0x2c
 5571 0097 03       		.uleb128 0x3
 5572 0098 63020000 		.4byte	.LASF13
 5573 009c 03       		.byte	0x3
 5574 009d 24       		.byte	0x24
 5575 009e 45000000 		.4byte	0x45
 5576 00a2 03       		.uleb128 0x3
 5577 00a3 99020000 		.4byte	.LASF14
 5578 00a7 03       		.byte	0x3
 5579 00a8 2C       		.byte	0x2c
 5580 00a9 57000000 		.4byte	0x57
 5581 00ad 05       		.uleb128 0x5
 5582 00ae 0D010000 		.4byte	.LASF15
 5583 00b2 04       		.byte	0x4
 5584 00b3 E401     		.2byte	0x1e4
 5585 00b5 37000000 		.4byte	0x37
 5586 00b9 02       		.uleb128 0x2
 5587 00ba 04       		.byte	0x4
 5588 00bb 04       		.byte	0x4
 5589 00bc 37010000 		.4byte	.LASF16
 5590 00c0 02       		.uleb128 0x2
 5591 00c1 08       		.byte	0x8
 5592 00c2 04       		.byte	0x4
 5593 00c3 12030000 		.4byte	.LASF17
 5594 00c7 02       		.uleb128 0x2
 5595 00c8 01       		.byte	0x1
 5596 00c9 08       		.byte	0x8
 5597 00ca 8B020000 		.4byte	.LASF18
 5598 00ce 02       		.uleb128 0x2
 5599 00cf 08       		.byte	0x8
 5600 00d0 04       		.byte	0x4
ARM GAS  C:\Users\Revanth\AppData\Local\Temp\ccqs06ys.s 			page 141


 5601 00d1 EA010000 		.4byte	.LASF19
 5602 00d5 02       		.uleb128 0x2
 5603 00d6 04       		.byte	0x4
 5604 00d7 07       		.byte	0x7
 5605 00d8 53000000 		.4byte	.LASF20
 5606 00dc 06       		.uleb128 0x6
 5607 00dd 29010000 		.4byte	.LASF21
 5608 00e1 01       		.byte	0x1
 5609 00e2 3005     		.2byte	0x530
 5610 00e4 00000000 		.4byte	.LFB82
 5611 00e8 2E000000 		.4byte	.LFE82-.LFB82
 5612 00ec 01       		.uleb128 0x1
 5613 00ed 9C       		.byte	0x9c
 5614 00ee 5C010000 		.4byte	0x15c
 5615 00f2 07       		.uleb128 0x7
 5616 00f3 6900     		.ascii	"i\000"
 5617 00f5 01       		.byte	0x1
 5618 00f6 3205     		.2byte	0x532
 5619 00f8 8C000000 		.4byte	0x8c
 5620 00fc 00000000 		.4byte	.LLST0
 5621 0100 08       		.uleb128 0x8
 5622 0101 0C000000 		.4byte	.LVL2
 5623 0105 8B5F0000 		.4byte	0x5f8b
 5624 0109 13010000 		.4byte	0x113
 5625 010d 09       		.uleb128 0x9
 5626 010e 01       		.uleb128 0x1
 5627 010f 50       		.byte	0x50
 5628 0110 01       		.uleb128 0x1
 5629 0111 30       		.byte	0x30
 5630 0112 00       		.byte	0
 5631 0113 08       		.uleb128 0x8
 5632 0114 12000000 		.4byte	.LVL3
 5633 0118 965F0000 		.4byte	0x5f96
 5634 011c 26010000 		.4byte	0x126
 5635 0120 09       		.uleb128 0x9
 5636 0121 01       		.uleb128 0x1
 5637 0122 50       		.byte	0x50
 5638 0123 01       		.uleb128 0x1
 5639 0124 30       		.byte	0x30
 5640 0125 00       		.byte	0
 5641 0126 08       		.uleb128 0x8
 5642 0127 18000000 		.4byte	.LVL4
 5643 012b A15F0000 		.4byte	0x5fa1
 5644 012f 39010000 		.4byte	0x139
 5645 0133 09       		.uleb128 0x9
 5646 0134 01       		.uleb128 0x1
 5647 0135 50       		.byte	0x50
 5648 0136 01       		.uleb128 0x1
 5649 0137 31       		.byte	0x31
 5650 0138 00       		.byte	0
 5651 0139 08       		.uleb128 0x8
 5652 013a 1E000000 		.4byte	.LVL5
 5653 013e 965F0000 		.4byte	0x5f96
 5654 0142 4C010000 		.4byte	0x14c
 5655 0146 09       		.uleb128 0x9
 5656 0147 01       		.uleb128 0x1
 5657 0148 50       		.byte	0x50
ARM GAS  C:\Users\Revanth\AppData\Local\Temp\ccqs06ys.s 			page 142


 5658 0149 01       		.uleb128 0x1
 5659 014a 31       		.byte	0x31
 5660 014b 00       		.byte	0
 5661 014c 0A       		.uleb128 0xa
 5662 014d 24000000 		.4byte	.LVL6
 5663 0151 A15F0000 		.4byte	0x5fa1
 5664 0155 09       		.uleb128 0x9
 5665 0156 01       		.uleb128 0x1
 5666 0157 50       		.byte	0x50
 5667 0158 01       		.uleb128 0x1
 5668 0159 31       		.byte	0x31
 5669 015a 00       		.byte	0
 5670 015b 00       		.byte	0
 5671 015c 0B       		.uleb128 0xb
 5672 015d 00000000 		.4byte	.LASF22
 5673 0161 01       		.byte	0x1
 5674 0162 BB       		.byte	0xbb
 5675 0163 00000000 		.4byte	.LFB76
 5676 0167 60000000 		.4byte	.LFE76-.LFB76
 5677 016b 01       		.uleb128 0x1
 5678 016c 9C       		.byte	0x9c
 5679 016d 69020000 		.4byte	0x269
 5680 0171 0C       		.uleb128 0xc
 5681 0172 6C020000 		.4byte	.LASF24
 5682 0176 01       		.byte	0x1
 5683 0177 BB       		.byte	0xbb
 5684 0178 97000000 		.4byte	0x97
 5685 017c 2A000000 		.4byte	.LLST1
 5686 0180 0D       		.uleb128 0xd
 5687 0181 6900     		.ascii	"i\000"
 5688 0183 01       		.byte	0x1
 5689 0184 BD       		.byte	0xbd
 5690 0185 8C000000 		.4byte	0x8c
 5691 0189 4B000000 		.4byte	.LLST2
 5692 018d 08       		.uleb128 0x8
 5693 018e 0A000000 		.4byte	.LVL12
 5694 0192 965F0000 		.4byte	0x5f96
 5695 0196 A0010000 		.4byte	0x1a0
 5696 019a 09       		.uleb128 0x9
 5697 019b 01       		.uleb128 0x1
 5698 019c 50       		.byte	0x50
 5699 019d 01       		.uleb128 0x1
 5700 019e 30       		.byte	0x30
 5701 019f 00       		.byte	0
 5702 01a0 08       		.uleb128 0x8
 5703 01a1 10000000 		.4byte	.LVL13
 5704 01a5 AC5F0000 		.4byte	0x5fac
 5705 01a9 B3010000 		.4byte	0x1b3
 5706 01ad 09       		.uleb128 0x9
 5707 01ae 01       		.uleb128 0x1
 5708 01af 50       		.byte	0x50
 5709 01b0 01       		.uleb128 0x1
 5710 01b1 30       		.byte	0x30
 5711 01b2 00       		.byte	0
 5712 01b3 08       		.uleb128 0x8
 5713 01b4 16000000 		.4byte	.LVL14
 5714 01b8 A15F0000 		.4byte	0x5fa1
ARM GAS  C:\Users\Revanth\AppData\Local\Temp\ccqs06ys.s 			page 143


 5715 01bc C6010000 		.4byte	0x1c6
 5716 01c0 09       		.uleb128 0x9
 5717 01c1 01       		.uleb128 0x1
 5718 01c2 50       		.byte	0x50
 5719 01c3 01       		.uleb128 0x1
 5720 01c4 31       		.byte	0x31
 5721 01c5 00       		.byte	0
 5722 01c6 0E       		.uleb128 0xe
 5723 01c7 1A000000 		.4byte	.LVL15
 5724 01cb DC000000 		.4byte	0xdc
 5725 01cf 08       		.uleb128 0x8
 5726 01d0 2C000000 		.4byte	.LVL17
 5727 01d4 8B5F0000 		.4byte	0x5f8b
 5728 01d8 E8010000 		.4byte	0x1e8
 5729 01dc 09       		.uleb128 0x9
 5730 01dd 01       		.uleb128 0x1
 5731 01de 50       		.byte	0x50
 5732 01df 07       		.uleb128 0x7
 5733 01e0 75       		.byte	0x75
 5734 01e1 00       		.sleb128 0
 5735 01e2 74       		.byte	0x74
 5736 01e3 00       		.sleb128 0
 5737 01e4 26       		.byte	0x26
 5738 01e5 31       		.byte	0x31
 5739 01e6 1A       		.byte	0x1a
 5740 01e7 00       		.byte	0
 5741 01e8 08       		.uleb128 0x8
 5742 01e9 32000000 		.4byte	.LVL18
 5743 01ed 965F0000 		.4byte	0x5f96
 5744 01f1 FB010000 		.4byte	0x1fb
 5745 01f5 09       		.uleb128 0x9
 5746 01f6 01       		.uleb128 0x1
 5747 01f7 50       		.byte	0x50
 5748 01f8 01       		.uleb128 0x1
 5749 01f9 30       		.byte	0x30
 5750 01fa 00       		.byte	0
 5751 01fb 08       		.uleb128 0x8
 5752 01fc 38000000 		.4byte	.LVL19
 5753 0200 A15F0000 		.4byte	0x5fa1
 5754 0204 0E020000 		.4byte	0x20e
 5755 0208 09       		.uleb128 0x9
 5756 0209 01       		.uleb128 0x1
 5757 020a 50       		.byte	0x50
 5758 020b 01       		.uleb128 0x1
 5759 020c 31       		.byte	0x31
 5760 020d 00       		.byte	0
 5761 020e 08       		.uleb128 0x8
 5762 020f 3E000000 		.4byte	.LVL20
 5763 0213 965F0000 		.4byte	0x5f96
 5764 0217 21020000 		.4byte	0x221
 5765 021b 09       		.uleb128 0x9
 5766 021c 01       		.uleb128 0x1
 5767 021d 50       		.byte	0x50
 5768 021e 01       		.uleb128 0x1
 5769 021f 31       		.byte	0x31
 5770 0220 00       		.byte	0
 5771 0221 08       		.uleb128 0x8
ARM GAS  C:\Users\Revanth\AppData\Local\Temp\ccqs06ys.s 			page 144


 5772 0222 44000000 		.4byte	.LVL21
 5773 0226 A15F0000 		.4byte	0x5fa1
 5774 022a 34020000 		.4byte	0x234
 5775 022e 09       		.uleb128 0x9
 5776 022f 01       		.uleb128 0x1
 5777 0230 50       		.byte	0x50
 5778 0231 01       		.uleb128 0x1
 5779 0232 31       		.byte	0x31
 5780 0233 00       		.byte	0
 5781 0234 0E       		.uleb128 0xe
 5782 0235 4E000000 		.4byte	.LVL23
 5783 0239 DC000000 		.4byte	0xdc
 5784 023d 0E       		.uleb128 0xe
 5785 023e 52000000 		.4byte	.LVL24
 5786 0242 DC000000 		.4byte	0xdc
 5787 0246 08       		.uleb128 0x8
 5788 0247 58000000 		.4byte	.LVL25
 5789 024b 965F0000 		.4byte	0x5f96
 5790 024f 59020000 		.4byte	0x259
 5791 0253 09       		.uleb128 0x9
 5792 0254 01       		.uleb128 0x1
 5793 0255 50       		.byte	0x50
 5794 0256 01       		.uleb128 0x1
 5795 0257 30       		.byte	0x30
 5796 0258 00       		.byte	0
 5797 0259 0A       		.uleb128 0xa
 5798 025a 5E000000 		.4byte	.LVL26
 5799 025e AC5F0000 		.4byte	0x5fac
 5800 0262 09       		.uleb128 0x9
 5801 0263 01       		.uleb128 0x1
 5802 0264 50       		.byte	0x50
 5803 0265 01       		.uleb128 0x1
 5804 0266 31       		.byte	0x31
 5805 0267 00       		.byte	0
 5806 0268 00       		.byte	0
 5807 0269 0B       		.uleb128 0xb
 5808 026a 86010000 		.4byte	.LASF23
 5809 026e 01       		.byte	0x1
 5810 026f 95       		.byte	0x95
 5811 0270 00000000 		.4byte	.LFB72
 5812 0274 20000000 		.4byte	.LFE72-.LFB72
 5813 0278 01       		.uleb128 0x1
 5814 0279 9C       		.byte	0x9c
 5815 027a A6020000 		.4byte	0x2a6
 5816 027e 0C       		.uleb128 0xc
 5817 027f D0020000 		.4byte	.LASF25
 5818 0283 01       		.byte	0x1
 5819 0284 95       		.byte	0x95
 5820 0285 8C000000 		.4byte	0x8c
 5821 0289 81000000 		.4byte	.LLST3
 5822 028d 0C       		.uleb128 0xc
 5823 028e 3D010000 		.4byte	.LASF26
 5824 0292 01       		.byte	0x1
 5825 0293 95       		.byte	0x95
 5826 0294 8C000000 		.4byte	0x8c
 5827 0298 A2000000 		.4byte	.LLST4
 5828 029c 0E       		.uleb128 0xe
ARM GAS  C:\Users\Revanth\AppData\Local\Temp\ccqs06ys.s 			page 145


 5829 029d 16000000 		.4byte	.LVL29
 5830 02a1 5C010000 		.4byte	0x15c
 5831 02a5 00       		.byte	0
 5832 02a6 0B       		.uleb128 0xb
 5833 02a7 60010000 		.4byte	.LASF27
 5834 02ab 01       		.byte	0x1
 5835 02ac 1B       		.byte	0x1b
 5836 02ad 00000000 		.4byte	.LFB63
 5837 02b1 28000000 		.4byte	.LFE63-.LFB63
 5838 02b5 01       		.uleb128 0x1
 5839 02b6 9C       		.byte	0x9c
 5840 02b7 F8020000 		.4byte	0x2f8
 5841 02bb 0F       		.uleb128 0xf
 5842 02bc 53656C00 		.ascii	"Sel\000"
 5843 02c0 01       		.byte	0x1
 5844 02c1 1B       		.byte	0x1b
 5845 02c2 F8020000 		.4byte	0x2f8
 5846 02c6 C3000000 		.4byte	.LLST5
 5847 02ca 08       		.uleb128 0x8
 5848 02cb 12000000 		.4byte	.LVL32
 5849 02cf 69020000 		.4byte	0x269
 5850 02d3 E2020000 		.4byte	0x2e2
 5851 02d7 09       		.uleb128 0x9
 5852 02d8 01       		.uleb128 0x1
 5853 02d9 50       		.byte	0x50
 5854 02da 01       		.uleb128 0x1
 5855 02db 3B       		.byte	0x3b
 5856 02dc 09       		.uleb128 0x9
 5857 02dd 01       		.uleb128 0x1
 5858 02de 51       		.byte	0x51
 5859 02df 01       		.uleb128 0x1
 5860 02e0 30       		.byte	0x30
 5861 02e1 00       		.byte	0
 5862 02e2 0A       		.uleb128 0xa
 5863 02e3 22000000 		.4byte	.LVL35
 5864 02e7 69020000 		.4byte	0x269
 5865 02eb 09       		.uleb128 0x9
 5866 02ec 01       		.uleb128 0x1
 5867 02ed 50       		.byte	0x50
 5868 02ee 01       		.uleb128 0x1
 5869 02ef 3B       		.byte	0x3b
 5870 02f0 09       		.uleb128 0x9
 5871 02f1 01       		.uleb128 0x1
 5872 02f2 51       		.byte	0x51
 5873 02f3 02       		.uleb128 0x2
 5874 02f4 09       		.byte	0x9
 5875 02f5 80       		.byte	0x80
 5876 02f6 00       		.byte	0
 5877 02f7 00       		.byte	0
 5878 02f8 02       		.uleb128 0x2
 5879 02f9 01       		.byte	0x1
 5880 02fa 02       		.byte	0x2
 5881 02fb A1020000 		.4byte	.LASF28
 5882 02ff 0B       		.uleb128 0xb
 5883 0300 19030000 		.4byte	.LASF29
 5884 0304 01       		.byte	0x1
 5885 0305 5D       		.byte	0x5d
ARM GAS  C:\Users\Revanth\AppData\Local\Temp\ccqs06ys.s 			page 146


 5886 0306 00000000 		.4byte	.LFB67
 5887 030a 28000000 		.4byte	.LFE67-.LFB67
 5888 030e 01       		.uleb128 0x1
 5889 030f 9C       		.byte	0x9c
 5890 0310 80030000 		.4byte	0x380
 5891 0314 08       		.uleb128 0x8
 5892 0315 0A000000 		.4byte	.LVL36
 5893 0319 69020000 		.4byte	0x269
 5894 031d 2C030000 		.4byte	0x32c
 5895 0321 09       		.uleb128 0x9
 5896 0322 01       		.uleb128 0x1
 5897 0323 50       		.byte	0x50
 5898 0324 01       		.uleb128 0x1
 5899 0325 31       		.byte	0x31
 5900 0326 09       		.uleb128 0x9
 5901 0327 01       		.uleb128 0x1
 5902 0328 51       		.byte	0x51
 5903 0329 01       		.uleb128 0x1
 5904 032a 48       		.byte	0x48
 5905 032b 00       		.byte	0
 5906 032c 08       		.uleb128 0x8
 5907 032d 10000000 		.4byte	.LVL37
 5908 0331 B75F0000 		.4byte	0x5fb7
 5909 0335 3F030000 		.4byte	0x33f
 5910 0339 09       		.uleb128 0x9
 5911 033a 01       		.uleb128 0x1
 5912 033b 50       		.byte	0x50
 5913 033c 01       		.uleb128 0x1
 5914 033d 31       		.byte	0x31
 5915 033e 00       		.byte	0
 5916 033f 08       		.uleb128 0x8
 5917 0340 18000000 		.4byte	.LVL38
 5918 0344 69020000 		.4byte	0x269
 5919 0348 57030000 		.4byte	0x357
 5920 034c 09       		.uleb128 0x9
 5921 034d 01       		.uleb128 0x1
 5922 034e 50       		.byte	0x50
 5923 034f 01       		.uleb128 0x1
 5924 0350 3A       		.byte	0x3a
 5925 0351 09       		.uleb128 0x9
 5926 0352 01       		.uleb128 0x1
 5927 0353 51       		.byte	0x51
 5928 0354 01       		.uleb128 0x1
 5929 0355 30       		.byte	0x30
 5930 0356 00       		.byte	0
 5931 0357 08       		.uleb128 0x8
 5932 0358 1E000000 		.4byte	.LVL39
 5933 035c A6020000 		.4byte	0x2a6
 5934 0360 6A030000 		.4byte	0x36a
 5935 0364 09       		.uleb128 0x9
 5936 0365 01       		.uleb128 0x1
 5937 0366 50       		.byte	0x50
 5938 0367 01       		.uleb128 0x1
 5939 0368 30       		.byte	0x30
 5940 0369 00       		.byte	0
 5941 036a 0A       		.uleb128 0xa
 5942 036b 26000000 		.4byte	.LVL40
ARM GAS  C:\Users\Revanth\AppData\Local\Temp\ccqs06ys.s 			page 147


 5943 036f 69020000 		.4byte	0x269
 5944 0373 09       		.uleb128 0x9
 5945 0374 01       		.uleb128 0x1
 5946 0375 50       		.byte	0x50
 5947 0376 02       		.uleb128 0x2
 5948 0377 08       		.byte	0x8
 5949 0378 20       		.byte	0x20
 5950 0379 09       		.uleb128 0x9
 5951 037a 01       		.uleb128 0x1
 5952 037b 51       		.byte	0x51
 5953 037c 01       		.uleb128 0x1
 5954 037d 31       		.byte	0x31
 5955 037e 00       		.byte	0
 5956 037f 00       		.byte	0
 5957 0380 0B       		.uleb128 0xb
 5958 0381 11000000 		.4byte	.LASF30
 5959 0385 01       		.byte	0x1
 5960 0386 D5       		.byte	0xd5
 5961 0387 00000000 		.4byte	.LFB77
 5962 038b 60000000 		.4byte	.LFE77-.LFB77
 5963 038f 01       		.uleb128 0x1
 5964 0390 9C       		.byte	0x9c
 5965 0391 8D040000 		.4byte	0x48d
 5966 0395 0C       		.uleb128 0xc
 5967 0396 6C020000 		.4byte	.LASF24
 5968 039a 01       		.byte	0x1
 5969 039b D5       		.byte	0xd5
 5970 039c 97000000 		.4byte	0x97
 5971 03a0 FD000000 		.4byte	.LLST6
 5972 03a4 0D       		.uleb128 0xd
 5973 03a5 6900     		.ascii	"i\000"
 5974 03a7 01       		.byte	0x1
 5975 03a8 D7       		.byte	0xd7
 5976 03a9 8C000000 		.4byte	0x8c
 5977 03ad 1E010000 		.4byte	.LLST7
 5978 03b1 08       		.uleb128 0x8
 5979 03b2 0A000000 		.4byte	.LVL44
 5980 03b6 965F0000 		.4byte	0x5f96
 5981 03ba C4030000 		.4byte	0x3c4
 5982 03be 09       		.uleb128 0x9
 5983 03bf 01       		.uleb128 0x1
 5984 03c0 50       		.byte	0x50
 5985 03c1 01       		.uleb128 0x1
 5986 03c2 30       		.byte	0x30
 5987 03c3 00       		.byte	0
 5988 03c4 08       		.uleb128 0x8
 5989 03c5 10000000 		.4byte	.LVL45
 5990 03c9 AC5F0000 		.4byte	0x5fac
 5991 03cd D7030000 		.4byte	0x3d7
 5992 03d1 09       		.uleb128 0x9
 5993 03d2 01       		.uleb128 0x1
 5994 03d3 50       		.byte	0x50
 5995 03d4 01       		.uleb128 0x1
 5996 03d5 30       		.byte	0x30
 5997 03d6 00       		.byte	0
 5998 03d7 08       		.uleb128 0x8
 5999 03d8 16000000 		.4byte	.LVL46
ARM GAS  C:\Users\Revanth\AppData\Local\Temp\ccqs06ys.s 			page 148


 6000 03dc A15F0000 		.4byte	0x5fa1
 6001 03e0 EA030000 		.4byte	0x3ea
 6002 03e4 09       		.uleb128 0x9
 6003 03e5 01       		.uleb128 0x1
 6004 03e6 50       		.byte	0x50
 6005 03e7 01       		.uleb128 0x1
 6006 03e8 31       		.byte	0x31
 6007 03e9 00       		.byte	0
 6008 03ea 0E       		.uleb128 0xe
 6009 03eb 1A000000 		.4byte	.LVL47
 6010 03ef DC000000 		.4byte	0xdc
 6011 03f3 0E       		.uleb128 0xe
 6012 03f4 1E000000 		.4byte	.LVL48
 6013 03f8 DC000000 		.4byte	0xdc
 6014 03fc 0E       		.uleb128 0xe
 6015 03fd 22000000 		.4byte	.LVL49
 6016 0401 DC000000 		.4byte	0xdc
 6017 0405 08       		.uleb128 0x8
 6018 0406 34000000 		.4byte	.LVL51
 6019 040a 8B5F0000 		.4byte	0x5f8b
 6020 040e 1E040000 		.4byte	0x41e
 6021 0412 09       		.uleb128 0x9
 6022 0413 01       		.uleb128 0x1
 6023 0414 50       		.byte	0x50
 6024 0415 07       		.uleb128 0x7
 6025 0416 75       		.byte	0x75
 6026 0417 00       		.sleb128 0
 6027 0418 74       		.byte	0x74
 6028 0419 00       		.sleb128 0
 6029 041a 26       		.byte	0x26
 6030 041b 31       		.byte	0x31
 6031 041c 1A       		.byte	0x1a
 6032 041d 00       		.byte	0
 6033 041e 08       		.uleb128 0x8
 6034 041f 3A000000 		.4byte	.LVL52
 6035 0423 965F0000 		.4byte	0x5f96
 6036 0427 31040000 		.4byte	0x431
 6037 042b 09       		.uleb128 0x9
 6038 042c 01       		.uleb128 0x1
 6039 042d 50       		.byte	0x50
 6040 042e 01       		.uleb128 0x1
 6041 042f 30       		.byte	0x30
 6042 0430 00       		.byte	0
 6043 0431 08       		.uleb128 0x8
 6044 0432 40000000 		.4byte	.LVL53
 6045 0436 A15F0000 		.4byte	0x5fa1
 6046 043a 44040000 		.4byte	0x444
 6047 043e 09       		.uleb128 0x9
 6048 043f 01       		.uleb128 0x1
 6049 0440 50       		.byte	0x50
 6050 0441 01       		.uleb128 0x1
 6051 0442 31       		.byte	0x31
 6052 0443 00       		.byte	0
 6053 0444 08       		.uleb128 0x8
 6054 0445 46000000 		.4byte	.LVL54
 6055 0449 965F0000 		.4byte	0x5f96
 6056 044d 57040000 		.4byte	0x457
ARM GAS  C:\Users\Revanth\AppData\Local\Temp\ccqs06ys.s 			page 149


 6057 0451 09       		.uleb128 0x9
 6058 0452 01       		.uleb128 0x1
 6059 0453 50       		.byte	0x50
 6060 0454 01       		.uleb128 0x1
 6061 0455 31       		.byte	0x31
 6062 0456 00       		.byte	0
 6063 0457 08       		.uleb128 0x8
 6064 0458 4C000000 		.4byte	.LVL55
 6065 045c A15F0000 		.4byte	0x5fa1
 6066 0460 6A040000 		.4byte	0x46a
 6067 0464 09       		.uleb128 0x9
 6068 0465 01       		.uleb128 0x1
 6069 0466 50       		.byte	0x50
 6070 0467 01       		.uleb128 0x1
 6071 0468 31       		.byte	0x31
 6072 0469 00       		.byte	0
 6073 046a 08       		.uleb128 0x8
 6074 046b 58000000 		.4byte	.LVL57
 6075 046f 965F0000 		.4byte	0x5f96
 6076 0473 7D040000 		.4byte	0x47d
 6077 0477 09       		.uleb128 0x9
 6078 0478 01       		.uleb128 0x1
 6079 0479 50       		.byte	0x50
 6080 047a 01       		.uleb128 0x1
 6081 047b 30       		.byte	0x30
 6082 047c 00       		.byte	0
 6083 047d 0A       		.uleb128 0xa
 6084 047e 5E000000 		.4byte	.LVL58
 6085 0482 AC5F0000 		.4byte	0x5fac
 6086 0486 09       		.uleb128 0x9
 6087 0487 01       		.uleb128 0x1
 6088 0488 50       		.byte	0x50
 6089 0489 01       		.uleb128 0x1
 6090 048a 31       		.byte	0x31
 6091 048b 00       		.byte	0
 6092 048c 00       		.byte	0
 6093 048d 0B       		.uleb128 0xb
 6094 048e 96010000 		.4byte	.LASF31
 6095 0492 01       		.byte	0x1
 6096 0493 9E       		.byte	0x9e
 6097 0494 00000000 		.4byte	.LFB73
 6098 0498 20000000 		.4byte	.LFE73-.LFB73
 6099 049c 01       		.uleb128 0x1
 6100 049d 9C       		.byte	0x9c
 6101 049e CA040000 		.4byte	0x4ca
 6102 04a2 0C       		.uleb128 0xc
 6103 04a3 D0020000 		.4byte	.LASF25
 6104 04a7 01       		.byte	0x1
 6105 04a8 9E       		.byte	0x9e
 6106 04a9 8C000000 		.4byte	0x8c
 6107 04ad 54010000 		.4byte	.LLST8
 6108 04b1 0C       		.uleb128 0xc
 6109 04b2 3D010000 		.4byte	.LASF26
 6110 04b6 01       		.byte	0x1
 6111 04b7 9E       		.byte	0x9e
 6112 04b8 8C000000 		.4byte	0x8c
 6113 04bc 75010000 		.4byte	.LLST9
ARM GAS  C:\Users\Revanth\AppData\Local\Temp\ccqs06ys.s 			page 150


 6114 04c0 0E       		.uleb128 0xe
 6115 04c1 16000000 		.4byte	.LVL61
 6116 04c5 80030000 		.4byte	0x380
 6117 04c9 00       		.byte	0
 6118 04ca 0B       		.uleb128 0xb
 6119 04cb F6010000 		.4byte	.LASF32
 6120 04cf 01       		.byte	0x1
 6121 04d0 2B       		.byte	0x2b
 6122 04d1 00000000 		.4byte	.LFB64
 6123 04d5 28000000 		.4byte	.LFE64-.LFB64
 6124 04d9 01       		.uleb128 0x1
 6125 04da 9C       		.byte	0x9c
 6126 04db 1C050000 		.4byte	0x51c
 6127 04df 0F       		.uleb128 0xf
 6128 04e0 53656C00 		.ascii	"Sel\000"
 6129 04e4 01       		.byte	0x1
 6130 04e5 2B       		.byte	0x2b
 6131 04e6 F8020000 		.4byte	0x2f8
 6132 04ea 96010000 		.4byte	.LLST10
 6133 04ee 08       		.uleb128 0x8
 6134 04ef 12000000 		.4byte	.LVL64
 6135 04f3 8D040000 		.4byte	0x48d
 6136 04f7 06050000 		.4byte	0x506
 6137 04fb 09       		.uleb128 0x9
 6138 04fc 01       		.uleb128 0x1
 6139 04fd 50       		.byte	0x50
 6140 04fe 01       		.uleb128 0x1
 6141 04ff 3B       		.byte	0x3b
 6142 0500 09       		.uleb128 0x9
 6143 0501 01       		.uleb128 0x1
 6144 0502 51       		.byte	0x51
 6145 0503 01       		.uleb128 0x1
 6146 0504 30       		.byte	0x30
 6147 0505 00       		.byte	0
 6148 0506 0A       		.uleb128 0xa
 6149 0507 22000000 		.4byte	.LVL67
 6150 050b 8D040000 		.4byte	0x48d
 6151 050f 09       		.uleb128 0x9
 6152 0510 01       		.uleb128 0x1
 6153 0511 50       		.byte	0x50
 6154 0512 01       		.uleb128 0x1
 6155 0513 3B       		.byte	0x3b
 6156 0514 09       		.uleb128 0x9
 6157 0515 01       		.uleb128 0x1
 6158 0516 51       		.byte	0x51
 6159 0517 02       		.uleb128 0x2
 6160 0518 09       		.byte	0x9
 6161 0519 80       		.byte	0x80
 6162 051a 00       		.byte	0
 6163 051b 00       		.byte	0
 6164 051c 0B       		.uleb128 0xb
 6165 051d 28030000 		.4byte	.LASF33
 6166 0521 01       		.byte	0x1
 6167 0522 69       		.byte	0x69
 6168 0523 00000000 		.4byte	.LFB68
 6169 0527 28000000 		.4byte	.LFE68-.LFB68
 6170 052b 01       		.uleb128 0x1
ARM GAS  C:\Users\Revanth\AppData\Local\Temp\ccqs06ys.s 			page 151


 6171 052c 9C       		.byte	0x9c
 6172 052d 9D050000 		.4byte	0x59d
 6173 0531 08       		.uleb128 0x8
 6174 0532 0A000000 		.4byte	.LVL68
 6175 0536 8D040000 		.4byte	0x48d
 6176 053a 49050000 		.4byte	0x549
 6177 053e 09       		.uleb128 0x9
 6178 053f 01       		.uleb128 0x1
 6179 0540 50       		.byte	0x50
 6180 0541 01       		.uleb128 0x1
 6181 0542 31       		.byte	0x31
 6182 0543 09       		.uleb128 0x9
 6183 0544 01       		.uleb128 0x1
 6184 0545 51       		.byte	0x51
 6185 0546 01       		.uleb128 0x1
 6186 0547 48       		.byte	0x48
 6187 0548 00       		.byte	0
 6188 0549 08       		.uleb128 0x8
 6189 054a 10000000 		.4byte	.LVL69
 6190 054e C25F0000 		.4byte	0x5fc2
 6191 0552 5C050000 		.4byte	0x55c
 6192 0556 09       		.uleb128 0x9
 6193 0557 01       		.uleb128 0x1
 6194 0558 50       		.byte	0x50
 6195 0559 01       		.uleb128 0x1
 6196 055a 31       		.byte	0x31
 6197 055b 00       		.byte	0
 6198 055c 08       		.uleb128 0x8
 6199 055d 18000000 		.4byte	.LVL70
 6200 0561 8D040000 		.4byte	0x48d
 6201 0565 74050000 		.4byte	0x574
 6202 0569 09       		.uleb128 0x9
 6203 056a 01       		.uleb128 0x1
 6204 056b 50       		.byte	0x50
 6205 056c 01       		.uleb128 0x1
 6206 056d 3A       		.byte	0x3a
 6207 056e 09       		.uleb128 0x9
 6208 056f 01       		.uleb128 0x1
 6209 0570 51       		.byte	0x51
 6210 0571 01       		.uleb128 0x1
 6211 0572 30       		.byte	0x30
 6212 0573 00       		.byte	0
 6213 0574 08       		.uleb128 0x8
 6214 0575 1E000000 		.4byte	.LVL71
 6215 0579 CA040000 		.4byte	0x4ca
 6216 057d 87050000 		.4byte	0x587
 6217 0581 09       		.uleb128 0x9
 6218 0582 01       		.uleb128 0x1
 6219 0583 50       		.byte	0x50
 6220 0584 01       		.uleb128 0x1
 6221 0585 30       		.byte	0x30
 6222 0586 00       		.byte	0
 6223 0587 0A       		.uleb128 0xa
 6224 0588 26000000 		.4byte	.LVL72
 6225 058c 8D040000 		.4byte	0x48d
 6226 0590 09       		.uleb128 0x9
 6227 0591 01       		.uleb128 0x1
ARM GAS  C:\Users\Revanth\AppData\Local\Temp\ccqs06ys.s 			page 152


 6228 0592 50       		.byte	0x50
 6229 0593 02       		.uleb128 0x2
 6230 0594 08       		.byte	0x8
 6231 0595 20       		.byte	0x20
 6232 0596 09       		.uleb128 0x9
 6233 0597 01       		.uleb128 0x1
 6234 0598 51       		.byte	0x51
 6235 0599 01       		.uleb128 0x1
 6236 059a 31       		.byte	0x31
 6237 059b 00       		.byte	0
 6238 059c 00       		.byte	0
 6239 059d 0B       		.uleb128 0xb
 6240 059e 22000000 		.4byte	.LASF34
 6241 05a2 01       		.byte	0x1
 6242 05a3 ED       		.byte	0xed
 6243 05a4 00000000 		.4byte	.LFB78
 6244 05a8 60000000 		.4byte	.LFE78-.LFB78
 6245 05ac 01       		.uleb128 0x1
 6246 05ad 9C       		.byte	0x9c
 6247 05ae AA060000 		.4byte	0x6aa
 6248 05b2 0C       		.uleb128 0xc
 6249 05b3 6C020000 		.4byte	.LASF24
 6250 05b7 01       		.byte	0x1
 6251 05b8 ED       		.byte	0xed
 6252 05b9 97000000 		.4byte	0x97
 6253 05bd D0010000 		.4byte	.LLST11
 6254 05c1 0D       		.uleb128 0xd
 6255 05c2 6900     		.ascii	"i\000"
 6256 05c4 01       		.byte	0x1
 6257 05c5 EF       		.byte	0xef
 6258 05c6 8C000000 		.4byte	0x8c
 6259 05ca F1010000 		.4byte	.LLST12
 6260 05ce 08       		.uleb128 0x8
 6261 05cf 0A000000 		.4byte	.LVL76
 6262 05d3 965F0000 		.4byte	0x5f96
 6263 05d7 E1050000 		.4byte	0x5e1
 6264 05db 09       		.uleb128 0x9
 6265 05dc 01       		.uleb128 0x1
 6266 05dd 50       		.byte	0x50
 6267 05de 01       		.uleb128 0x1
 6268 05df 30       		.byte	0x30
 6269 05e0 00       		.byte	0
 6270 05e1 08       		.uleb128 0x8
 6271 05e2 10000000 		.4byte	.LVL77
 6272 05e6 AC5F0000 		.4byte	0x5fac
 6273 05ea F4050000 		.4byte	0x5f4
 6274 05ee 09       		.uleb128 0x9
 6275 05ef 01       		.uleb128 0x1
 6276 05f0 50       		.byte	0x50
 6277 05f1 01       		.uleb128 0x1
 6278 05f2 30       		.byte	0x30
 6279 05f3 00       		.byte	0
 6280 05f4 08       		.uleb128 0x8
 6281 05f5 16000000 		.4byte	.LVL78
 6282 05f9 A15F0000 		.4byte	0x5fa1
 6283 05fd 07060000 		.4byte	0x607
 6284 0601 09       		.uleb128 0x9
ARM GAS  C:\Users\Revanth\AppData\Local\Temp\ccqs06ys.s 			page 153


 6285 0602 01       		.uleb128 0x1
 6286 0603 50       		.byte	0x50
 6287 0604 01       		.uleb128 0x1
 6288 0605 31       		.byte	0x31
 6289 0606 00       		.byte	0
 6290 0607 08       		.uleb128 0x8
 6291 0608 28000000 		.4byte	.LVL80
 6292 060c 8B5F0000 		.4byte	0x5f8b
 6293 0610 20060000 		.4byte	0x620
 6294 0614 09       		.uleb128 0x9
 6295 0615 01       		.uleb128 0x1
 6296 0616 50       		.byte	0x50
 6297 0617 07       		.uleb128 0x7
 6298 0618 75       		.byte	0x75
 6299 0619 00       		.sleb128 0
 6300 061a 74       		.byte	0x74
 6301 061b 00       		.sleb128 0
 6302 061c 26       		.byte	0x26
 6303 061d 31       		.byte	0x31
 6304 061e 1A       		.byte	0x1a
 6305 061f 00       		.byte	0
 6306 0620 08       		.uleb128 0x8
 6307 0621 2E000000 		.4byte	.LVL81
 6308 0625 965F0000 		.4byte	0x5f96
 6309 0629 33060000 		.4byte	0x633
 6310 062d 09       		.uleb128 0x9
 6311 062e 01       		.uleb128 0x1
 6312 062f 50       		.byte	0x50
 6313 0630 01       		.uleb128 0x1
 6314 0631 30       		.byte	0x30
 6315 0632 00       		.byte	0
 6316 0633 08       		.uleb128 0x8
 6317 0634 34000000 		.4byte	.LVL82
 6318 0638 A15F0000 		.4byte	0x5fa1
 6319 063c 46060000 		.4byte	0x646
 6320 0640 09       		.uleb128 0x9
 6321 0641 01       		.uleb128 0x1
 6322 0642 50       		.byte	0x50
 6323 0643 01       		.uleb128 0x1
 6324 0644 31       		.byte	0x31
 6325 0645 00       		.byte	0
 6326 0646 08       		.uleb128 0x8
 6327 0647 3A000000 		.4byte	.LVL83
 6328 064b 965F0000 		.4byte	0x5f96
 6329 064f 59060000 		.4byte	0x659
 6330 0653 09       		.uleb128 0x9
 6331 0654 01       		.uleb128 0x1
 6332 0655 50       		.byte	0x50
 6333 0656 01       		.uleb128 0x1
 6334 0657 31       		.byte	0x31
 6335 0658 00       		.byte	0
 6336 0659 08       		.uleb128 0x8
 6337 065a 40000000 		.4byte	.LVL84
 6338 065e A15F0000 		.4byte	0x5fa1
 6339 0662 6C060000 		.4byte	0x66c
 6340 0666 09       		.uleb128 0x9
 6341 0667 01       		.uleb128 0x1
ARM GAS  C:\Users\Revanth\AppData\Local\Temp\ccqs06ys.s 			page 154


 6342 0668 50       		.byte	0x50
 6343 0669 01       		.uleb128 0x1
 6344 066a 31       		.byte	0x31
 6345 066b 00       		.byte	0
 6346 066c 0E       		.uleb128 0xe
 6347 066d 4A000000 		.4byte	.LVL86
 6348 0671 DC000000 		.4byte	0xdc
 6349 0675 0E       		.uleb128 0xe
 6350 0676 4E000000 		.4byte	.LVL87
 6351 067a DC000000 		.4byte	0xdc
 6352 067e 0E       		.uleb128 0xe
 6353 067f 52000000 		.4byte	.LVL88
 6354 0683 DC000000 		.4byte	0xdc
 6355 0687 08       		.uleb128 0x8
 6356 0688 58000000 		.4byte	.LVL89
 6357 068c 965F0000 		.4byte	0x5f96
 6358 0690 9A060000 		.4byte	0x69a
 6359 0694 09       		.uleb128 0x9
 6360 0695 01       		.uleb128 0x1
 6361 0696 50       		.byte	0x50
 6362 0697 01       		.uleb128 0x1
 6363 0698 30       		.byte	0x30
 6364 0699 00       		.byte	0
 6365 069a 0A       		.uleb128 0xa
 6366 069b 5E000000 		.4byte	.LVL90
 6367 069f AC5F0000 		.4byte	0x5fac
 6368 06a3 09       		.uleb128 0x9
 6369 06a4 01       		.uleb128 0x1
 6370 06a5 50       		.byte	0x50
 6371 06a6 01       		.uleb128 0x1
 6372 06a7 31       		.byte	0x31
 6373 06a8 00       		.byte	0
 6374 06a9 00       		.byte	0
 6375 06aa 0B       		.uleb128 0xb
 6376 06ab A6010000 		.4byte	.LASF35
 6377 06af 01       		.byte	0x1
 6378 06b0 A7       		.byte	0xa7
 6379 06b1 00000000 		.4byte	.LFB74
 6380 06b5 20000000 		.4byte	.LFE74-.LFB74
 6381 06b9 01       		.uleb128 0x1
 6382 06ba 9C       		.byte	0x9c
 6383 06bb E7060000 		.4byte	0x6e7
 6384 06bf 0C       		.uleb128 0xc
 6385 06c0 D0020000 		.4byte	.LASF25
 6386 06c4 01       		.byte	0x1
 6387 06c5 A7       		.byte	0xa7
 6388 06c6 8C000000 		.4byte	0x8c
 6389 06ca 27020000 		.4byte	.LLST13
 6390 06ce 0C       		.uleb128 0xc
 6391 06cf 3D010000 		.4byte	.LASF26
 6392 06d3 01       		.byte	0x1
 6393 06d4 A7       		.byte	0xa7
 6394 06d5 8C000000 		.4byte	0x8c
 6395 06d9 48020000 		.4byte	.LLST14
 6396 06dd 0E       		.uleb128 0xe
 6397 06de 16000000 		.4byte	.LVL93
 6398 06e2 9D050000 		.4byte	0x59d
ARM GAS  C:\Users\Revanth\AppData\Local\Temp\ccqs06ys.s 			page 155


 6399 06e6 00       		.byte	0
 6400 06e7 0B       		.uleb128 0xb
 6401 06e8 72010000 		.4byte	.LASF36
 6402 06ec 01       		.byte	0x1
 6403 06ed 3B       		.byte	0x3b
 6404 06ee 00000000 		.4byte	.LFB65
 6405 06f2 28000000 		.4byte	.LFE65-.LFB65
 6406 06f6 01       		.uleb128 0x1
 6407 06f7 9C       		.byte	0x9c
 6408 06f8 39070000 		.4byte	0x739
 6409 06fc 0F       		.uleb128 0xf
 6410 06fd 53656C00 		.ascii	"Sel\000"
 6411 0701 01       		.byte	0x1
 6412 0702 3B       		.byte	0x3b
 6413 0703 F8020000 		.4byte	0x2f8
 6414 0707 69020000 		.4byte	.LLST15
 6415 070b 08       		.uleb128 0x8
 6416 070c 12000000 		.4byte	.LVL96
 6417 0710 AA060000 		.4byte	0x6aa
 6418 0714 23070000 		.4byte	0x723
 6419 0718 09       		.uleb128 0x9
 6420 0719 01       		.uleb128 0x1
 6421 071a 50       		.byte	0x50
 6422 071b 01       		.uleb128 0x1
 6423 071c 3B       		.byte	0x3b
 6424 071d 09       		.uleb128 0x9
 6425 071e 01       		.uleb128 0x1
 6426 071f 51       		.byte	0x51
 6427 0720 01       		.uleb128 0x1
 6428 0721 30       		.byte	0x30
 6429 0722 00       		.byte	0
 6430 0723 0A       		.uleb128 0xa
 6431 0724 22000000 		.4byte	.LVL99
 6432 0728 AA060000 		.4byte	0x6aa
 6433 072c 09       		.uleb128 0x9
 6434 072d 01       		.uleb128 0x1
 6435 072e 50       		.byte	0x50
 6436 072f 01       		.uleb128 0x1
 6437 0730 3B       		.byte	0x3b
 6438 0731 09       		.uleb128 0x9
 6439 0732 01       		.uleb128 0x1
 6440 0733 51       		.byte	0x51
 6441 0734 02       		.uleb128 0x2
 6442 0735 09       		.byte	0x9
 6443 0736 80       		.byte	0x80
 6444 0737 00       		.byte	0
 6445 0738 00       		.byte	0
 6446 0739 0B       		.uleb128 0xb
 6447 073a 37030000 		.4byte	.LASF37
 6448 073e 01       		.byte	0x1
 6449 073f 74       		.byte	0x74
 6450 0740 00000000 		.4byte	.LFB69
 6451 0744 28000000 		.4byte	.LFE69-.LFB69
 6452 0748 01       		.uleb128 0x1
 6453 0749 9C       		.byte	0x9c
 6454 074a BA070000 		.4byte	0x7ba
 6455 074e 08       		.uleb128 0x8
ARM GAS  C:\Users\Revanth\AppData\Local\Temp\ccqs06ys.s 			page 156


 6456 074f 0A000000 		.4byte	.LVL100
 6457 0753 AA060000 		.4byte	0x6aa
 6458 0757 66070000 		.4byte	0x766
 6459 075b 09       		.uleb128 0x9
 6460 075c 01       		.uleb128 0x1
 6461 075d 50       		.byte	0x50
 6462 075e 01       		.uleb128 0x1
 6463 075f 31       		.byte	0x31
 6464 0760 09       		.uleb128 0x9
 6465 0761 01       		.uleb128 0x1
 6466 0762 51       		.byte	0x51
 6467 0763 01       		.uleb128 0x1
 6468 0764 48       		.byte	0x48
 6469 0765 00       		.byte	0
 6470 0766 08       		.uleb128 0x8
 6471 0767 10000000 		.4byte	.LVL101
 6472 076b CD5F0000 		.4byte	0x5fcd
 6473 076f 79070000 		.4byte	0x779
 6474 0773 09       		.uleb128 0x9
 6475 0774 01       		.uleb128 0x1
 6476 0775 50       		.byte	0x50
 6477 0776 01       		.uleb128 0x1
 6478 0777 31       		.byte	0x31
 6479 0778 00       		.byte	0
 6480 0779 08       		.uleb128 0x8
 6481 077a 18000000 		.4byte	.LVL102
 6482 077e AA060000 		.4byte	0x6aa
 6483 0782 91070000 		.4byte	0x791
 6484 0786 09       		.uleb128 0x9
 6485 0787 01       		.uleb128 0x1
 6486 0788 50       		.byte	0x50
 6487 0789 01       		.uleb128 0x1
 6488 078a 3A       		.byte	0x3a
 6489 078b 09       		.uleb128 0x9
 6490 078c 01       		.uleb128 0x1
 6491 078d 51       		.byte	0x51
 6492 078e 01       		.uleb128 0x1
 6493 078f 30       		.byte	0x30
 6494 0790 00       		.byte	0
 6495 0791 08       		.uleb128 0x8
 6496 0792 1E000000 		.4byte	.LVL103
 6497 0796 E7060000 		.4byte	0x6e7
 6498 079a A4070000 		.4byte	0x7a4
 6499 079e 09       		.uleb128 0x9
 6500 079f 01       		.uleb128 0x1
 6501 07a0 50       		.byte	0x50
 6502 07a1 01       		.uleb128 0x1
 6503 07a2 30       		.byte	0x30
 6504 07a3 00       		.byte	0
 6505 07a4 0A       		.uleb128 0xa
 6506 07a5 26000000 		.4byte	.LVL104
 6507 07a9 AA060000 		.4byte	0x6aa
 6508 07ad 09       		.uleb128 0x9
 6509 07ae 01       		.uleb128 0x1
 6510 07af 50       		.byte	0x50
 6511 07b0 02       		.uleb128 0x2
 6512 07b1 08       		.byte	0x8
ARM GAS  C:\Users\Revanth\AppData\Local\Temp\ccqs06ys.s 			page 157


 6513 07b2 20       		.byte	0x20
 6514 07b3 09       		.uleb128 0x9
 6515 07b4 01       		.uleb128 0x1
 6516 07b5 51       		.byte	0x51
 6517 07b6 01       		.uleb128 0x1
 6518 07b7 31       		.byte	0x31
 6519 07b8 00       		.byte	0
 6520 07b9 00       		.byte	0
 6521 07ba 06       		.uleb128 0x6
 6522 07bb 33000000 		.4byte	.LASF38
 6523 07bf 01       		.byte	0x1
 6524 07c0 0601     		.2byte	0x106
 6525 07c2 00000000 		.4byte	.LFB79
 6526 07c6 60000000 		.4byte	.LFE79-.LFB79
 6527 07ca 01       		.uleb128 0x1
 6528 07cb 9C       		.byte	0x9c
 6529 07cc CA080000 		.4byte	0x8ca
 6530 07d0 10       		.uleb128 0x10
 6531 07d1 6C020000 		.4byte	.LASF24
 6532 07d5 01       		.byte	0x1
 6533 07d6 0601     		.2byte	0x106
 6534 07d8 97000000 		.4byte	0x97
 6535 07dc A3020000 		.4byte	.LLST16
 6536 07e0 07       		.uleb128 0x7
 6537 07e1 6900     		.ascii	"i\000"
 6538 07e3 01       		.byte	0x1
 6539 07e4 0801     		.2byte	0x108
 6540 07e6 8C000000 		.4byte	0x8c
 6541 07ea C4020000 		.4byte	.LLST17
 6542 07ee 08       		.uleb128 0x8
 6543 07ef 0A000000 		.4byte	.LVL108
 6544 07f3 965F0000 		.4byte	0x5f96
 6545 07f7 01080000 		.4byte	0x801
 6546 07fb 09       		.uleb128 0x9
 6547 07fc 01       		.uleb128 0x1
 6548 07fd 50       		.byte	0x50
 6549 07fe 01       		.uleb128 0x1
 6550 07ff 30       		.byte	0x30
 6551 0800 00       		.byte	0
 6552 0801 08       		.uleb128 0x8
 6553 0802 10000000 		.4byte	.LVL109
 6554 0806 AC5F0000 		.4byte	0x5fac
 6555 080a 14080000 		.4byte	0x814
 6556 080e 09       		.uleb128 0x9
 6557 080f 01       		.uleb128 0x1
 6558 0810 50       		.byte	0x50
 6559 0811 01       		.uleb128 0x1
 6560 0812 30       		.byte	0x30
 6561 0813 00       		.byte	0
 6562 0814 08       		.uleb128 0x8
 6563 0815 16000000 		.4byte	.LVL110
 6564 0819 A15F0000 		.4byte	0x5fa1
 6565 081d 27080000 		.4byte	0x827
 6566 0821 09       		.uleb128 0x9
 6567 0822 01       		.uleb128 0x1
 6568 0823 50       		.byte	0x50
 6569 0824 01       		.uleb128 0x1
ARM GAS  C:\Users\Revanth\AppData\Local\Temp\ccqs06ys.s 			page 158


 6570 0825 31       		.byte	0x31
 6571 0826 00       		.byte	0
 6572 0827 0E       		.uleb128 0xe
 6573 0828 1A000000 		.4byte	.LVL111
 6574 082c DC000000 		.4byte	0xdc
 6575 0830 0E       		.uleb128 0xe
 6576 0831 1E000000 		.4byte	.LVL112
 6577 0835 DC000000 		.4byte	0xdc
 6578 0839 08       		.uleb128 0x8
 6579 083a 30000000 		.4byte	.LVL114
 6580 083e 8B5F0000 		.4byte	0x5f8b
 6581 0842 52080000 		.4byte	0x852
 6582 0846 09       		.uleb128 0x9
 6583 0847 01       		.uleb128 0x1
 6584 0848 50       		.byte	0x50
 6585 0849 07       		.uleb128 0x7
 6586 084a 75       		.byte	0x75
 6587 084b 00       		.sleb128 0
 6588 084c 74       		.byte	0x74
 6589 084d 00       		.sleb128 0
 6590 084e 26       		.byte	0x26
 6591 084f 31       		.byte	0x31
 6592 0850 1A       		.byte	0x1a
 6593 0851 00       		.byte	0
 6594 0852 08       		.uleb128 0x8
 6595 0853 36000000 		.4byte	.LVL115
 6596 0857 965F0000 		.4byte	0x5f96
 6597 085b 65080000 		.4byte	0x865
 6598 085f 09       		.uleb128 0x9
 6599 0860 01       		.uleb128 0x1
 6600 0861 50       		.byte	0x50
 6601 0862 01       		.uleb128 0x1
 6602 0863 30       		.byte	0x30
 6603 0864 00       		.byte	0
 6604 0865 08       		.uleb128 0x8
 6605 0866 3C000000 		.4byte	.LVL116
 6606 086a A15F0000 		.4byte	0x5fa1
 6607 086e 78080000 		.4byte	0x878
 6608 0872 09       		.uleb128 0x9
 6609 0873 01       		.uleb128 0x1
 6610 0874 50       		.byte	0x50
 6611 0875 01       		.uleb128 0x1
 6612 0876 31       		.byte	0x31
 6613 0877 00       		.byte	0
 6614 0878 08       		.uleb128 0x8
 6615 0879 42000000 		.4byte	.LVL117
 6616 087d 965F0000 		.4byte	0x5f96
 6617 0881 8B080000 		.4byte	0x88b
 6618 0885 09       		.uleb128 0x9
 6619 0886 01       		.uleb128 0x1
 6620 0887 50       		.byte	0x50
 6621 0888 01       		.uleb128 0x1
 6622 0889 31       		.byte	0x31
 6623 088a 00       		.byte	0
 6624 088b 08       		.uleb128 0x8
 6625 088c 48000000 		.4byte	.LVL118
 6626 0890 A15F0000 		.4byte	0x5fa1
ARM GAS  C:\Users\Revanth\AppData\Local\Temp\ccqs06ys.s 			page 159


 6627 0894 9E080000 		.4byte	0x89e
 6628 0898 09       		.uleb128 0x9
 6629 0899 01       		.uleb128 0x1
 6630 089a 50       		.byte	0x50
 6631 089b 01       		.uleb128 0x1
 6632 089c 31       		.byte	0x31
 6633 089d 00       		.byte	0
 6634 089e 0E       		.uleb128 0xe
 6635 089f 52000000 		.4byte	.LVL120
 6636 08a3 DC000000 		.4byte	0xdc
 6637 08a7 08       		.uleb128 0x8
 6638 08a8 58000000 		.4byte	.LVL121
 6639 08ac 965F0000 		.4byte	0x5f96
 6640 08b0 BA080000 		.4byte	0x8ba
 6641 08b4 09       		.uleb128 0x9
 6642 08b5 01       		.uleb128 0x1
 6643 08b6 50       		.byte	0x50
 6644 08b7 01       		.uleb128 0x1
 6645 08b8 30       		.byte	0x30
 6646 08b9 00       		.byte	0
 6647 08ba 0A       		.uleb128 0xa
 6648 08bb 5E000000 		.4byte	.LVL122
 6649 08bf AC5F0000 		.4byte	0x5fac
 6650 08c3 09       		.uleb128 0x9
 6651 08c4 01       		.uleb128 0x1
 6652 08c5 50       		.byte	0x50
 6653 08c6 01       		.uleb128 0x1
 6654 08c7 31       		.byte	0x31
 6655 08c8 00       		.byte	0
 6656 08c9 00       		.byte	0
 6657 08ca 0B       		.uleb128 0xb
 6658 08cb B6010000 		.4byte	.LASF39
 6659 08cf 01       		.byte	0x1
 6660 08d0 B0       		.byte	0xb0
 6661 08d1 00000000 		.4byte	.LFB75
 6662 08d5 20000000 		.4byte	.LFE75-.LFB75
 6663 08d9 01       		.uleb128 0x1
 6664 08da 9C       		.byte	0x9c
 6665 08db 07090000 		.4byte	0x907
 6666 08df 0C       		.uleb128 0xc
 6667 08e0 D0020000 		.4byte	.LASF25
 6668 08e4 01       		.byte	0x1
 6669 08e5 B0       		.byte	0xb0
 6670 08e6 8C000000 		.4byte	0x8c
 6671 08ea FA020000 		.4byte	.LLST18
 6672 08ee 0C       		.uleb128 0xc
 6673 08ef 3D010000 		.4byte	.LASF26
 6674 08f3 01       		.byte	0x1
 6675 08f4 B0       		.byte	0xb0
 6676 08f5 8C000000 		.4byte	0x8c
 6677 08f9 1B030000 		.4byte	.LLST19
 6678 08fd 0E       		.uleb128 0xe
 6679 08fe 16000000 		.4byte	.LVL125
 6680 0902 BA070000 		.4byte	0x7ba
 6681 0906 00       		.byte	0
 6682 0907 0B       		.uleb128 0xb
 6683 0908 7C010000 		.4byte	.LASF40
ARM GAS  C:\Users\Revanth\AppData\Local\Temp\ccqs06ys.s 			page 160


 6684 090c 01       		.byte	0x1
 6685 090d 4B       		.byte	0x4b
 6686 090e 00000000 		.4byte	.LFB66
 6687 0912 28000000 		.4byte	.LFE66-.LFB66
 6688 0916 01       		.uleb128 0x1
 6689 0917 9C       		.byte	0x9c
 6690 0918 59090000 		.4byte	0x959
 6691 091c 0F       		.uleb128 0xf
 6692 091d 53656C00 		.ascii	"Sel\000"
 6693 0921 01       		.byte	0x1
 6694 0922 4B       		.byte	0x4b
 6695 0923 F8020000 		.4byte	0x2f8
 6696 0927 3C030000 		.4byte	.LLST20
 6697 092b 08       		.uleb128 0x8
 6698 092c 12000000 		.4byte	.LVL128
 6699 0930 CA080000 		.4byte	0x8ca
 6700 0934 43090000 		.4byte	0x943
 6701 0938 09       		.uleb128 0x9
 6702 0939 01       		.uleb128 0x1
 6703 093a 50       		.byte	0x50
 6704 093b 01       		.uleb128 0x1
 6705 093c 3B       		.byte	0x3b
 6706 093d 09       		.uleb128 0x9
 6707 093e 01       		.uleb128 0x1
 6708 093f 51       		.byte	0x51
 6709 0940 01       		.uleb128 0x1
 6710 0941 30       		.byte	0x30
 6711 0942 00       		.byte	0
 6712 0943 0A       		.uleb128 0xa
 6713 0944 22000000 		.4byte	.LVL131
 6714 0948 CA080000 		.4byte	0x8ca
 6715 094c 09       		.uleb128 0x9
 6716 094d 01       		.uleb128 0x1
 6717 094e 50       		.byte	0x50
 6718 094f 01       		.uleb128 0x1
 6719 0950 3B       		.byte	0x3b
 6720 0951 09       		.uleb128 0x9
 6721 0952 01       		.uleb128 0x1
 6722 0953 51       		.byte	0x51
 6723 0954 02       		.uleb128 0x2
 6724 0955 09       		.byte	0x9
 6725 0956 80       		.byte	0x80
 6726 0957 00       		.byte	0
 6727 0958 00       		.byte	0
 6728 0959 0B       		.uleb128 0xb
 6729 095a 46030000 		.4byte	.LASF41
 6730 095e 01       		.byte	0x1
 6731 095f 7F       		.byte	0x7f
 6732 0960 00000000 		.4byte	.LFB70
 6733 0964 28000000 		.4byte	.LFE70-.LFB70
 6734 0968 01       		.uleb128 0x1
 6735 0969 9C       		.byte	0x9c
 6736 096a DA090000 		.4byte	0x9da
 6737 096e 08       		.uleb128 0x8
 6738 096f 0A000000 		.4byte	.LVL132
 6739 0973 CA080000 		.4byte	0x8ca
 6740 0977 86090000 		.4byte	0x986
ARM GAS  C:\Users\Revanth\AppData\Local\Temp\ccqs06ys.s 			page 161


 6741 097b 09       		.uleb128 0x9
 6742 097c 01       		.uleb128 0x1
 6743 097d 50       		.byte	0x50
 6744 097e 01       		.uleb128 0x1
 6745 097f 31       		.byte	0x31
 6746 0980 09       		.uleb128 0x9
 6747 0981 01       		.uleb128 0x1
 6748 0982 51       		.byte	0x51
 6749 0983 01       		.uleb128 0x1
 6750 0984 48       		.byte	0x48
 6751 0985 00       		.byte	0
 6752 0986 08       		.uleb128 0x8
 6753 0987 10000000 		.4byte	.LVL133
 6754 098b D85F0000 		.4byte	0x5fd8
 6755 098f 99090000 		.4byte	0x999
 6756 0993 09       		.uleb128 0x9
 6757 0994 01       		.uleb128 0x1
 6758 0995 50       		.byte	0x50
 6759 0996 01       		.uleb128 0x1
 6760 0997 31       		.byte	0x31
 6761 0998 00       		.byte	0
 6762 0999 08       		.uleb128 0x8
 6763 099a 18000000 		.4byte	.LVL134
 6764 099e CA080000 		.4byte	0x8ca
 6765 09a2 B1090000 		.4byte	0x9b1
 6766 09a6 09       		.uleb128 0x9
 6767 09a7 01       		.uleb128 0x1
 6768 09a8 50       		.byte	0x50
 6769 09a9 01       		.uleb128 0x1
 6770 09aa 3A       		.byte	0x3a
 6771 09ab 09       		.uleb128 0x9
 6772 09ac 01       		.uleb128 0x1
 6773 09ad 51       		.byte	0x51
 6774 09ae 01       		.uleb128 0x1
 6775 09af 30       		.byte	0x30
 6776 09b0 00       		.byte	0
 6777 09b1 08       		.uleb128 0x8
 6778 09b2 1E000000 		.4byte	.LVL135
 6779 09b6 07090000 		.4byte	0x907
 6780 09ba C4090000 		.4byte	0x9c4
 6781 09be 09       		.uleb128 0x9
 6782 09bf 01       		.uleb128 0x1
 6783 09c0 50       		.byte	0x50
 6784 09c1 01       		.uleb128 0x1
 6785 09c2 30       		.byte	0x30
 6786 09c3 00       		.byte	0
 6787 09c4 0A       		.uleb128 0xa
 6788 09c5 26000000 		.4byte	.LVL136
 6789 09c9 CA080000 		.4byte	0x8ca
 6790 09cd 09       		.uleb128 0x9
 6791 09ce 01       		.uleb128 0x1
 6792 09cf 50       		.byte	0x50
 6793 09d0 02       		.uleb128 0x2
 6794 09d1 08       		.byte	0x8
 6795 09d2 20       		.byte	0x20
 6796 09d3 09       		.uleb128 0x9
 6797 09d4 01       		.uleb128 0x1
ARM GAS  C:\Users\Revanth\AppData\Local\Temp\ccqs06ys.s 			page 162


 6798 09d5 51       		.byte	0x51
 6799 09d6 01       		.uleb128 0x1
 6800 09d7 31       		.byte	0x31
 6801 09d8 00       		.byte	0
 6802 09d9 00       		.byte	0
 6803 09da 06       		.uleb128 0x6
 6804 09db 44010000 		.4byte	.LASF42
 6805 09df 01       		.byte	0x1
 6806 09e0 4704     		.2byte	0x447
 6807 09e2 00000000 		.4byte	.LFB81
 6808 09e6 52060000 		.4byte	.LFE81-.LFB81
 6809 09ea 01       		.uleb128 0x1
 6810 09eb 9C       		.byte	0x9c
 6811 09ec A41D0000 		.4byte	0x1da4
 6812 09f0 08       		.uleb128 0x8
 6813 09f1 08000000 		.4byte	.LVL137
 6814 09f5 AC5F0000 		.4byte	0x5fac
 6815 09f9 030A0000 		.4byte	0xa03
 6816 09fd 09       		.uleb128 0x9
 6817 09fe 01       		.uleb128 0x1
 6818 09ff 50       		.byte	0x50
 6819 0a00 01       		.uleb128 0x1
 6820 0a01 31       		.byte	0x31
 6821 0a02 00       		.byte	0
 6822 0a03 08       		.uleb128 0x8
 6823 0a04 0E000000 		.4byte	.LVL138
 6824 0a08 B75F0000 		.4byte	0x5fb7
 6825 0a0c 160A0000 		.4byte	0xa16
 6826 0a10 09       		.uleb128 0x9
 6827 0a11 01       		.uleb128 0x1
 6828 0a12 50       		.byte	0x50
 6829 0a13 01       		.uleb128 0x1
 6830 0a14 31       		.byte	0x31
 6831 0a15 00       		.byte	0
 6832 0a16 08       		.uleb128 0x8
 6833 0a17 14000000 		.4byte	.LVL139
 6834 0a1b A6020000 		.4byte	0x2a6
 6835 0a1f 290A0000 		.4byte	0xa29
 6836 0a23 09       		.uleb128 0x9
 6837 0a24 01       		.uleb128 0x1
 6838 0a25 50       		.byte	0x50
 6839 0a26 01       		.uleb128 0x1
 6840 0a27 31       		.byte	0x31
 6841 0a28 00       		.byte	0
 6842 0a29 08       		.uleb128 0x8
 6843 0a2a 1C000000 		.4byte	.LVL140
 6844 0a2e 69020000 		.4byte	0x269
 6845 0a32 420A0000 		.4byte	0xa42
 6846 0a36 09       		.uleb128 0x9
 6847 0a37 01       		.uleb128 0x1
 6848 0a38 50       		.byte	0x50
 6849 0a39 02       		.uleb128 0x2
 6850 0a3a 08       		.byte	0x8
 6851 0a3b 20       		.byte	0x20
 6852 0a3c 09       		.uleb128 0x9
 6853 0a3d 01       		.uleb128 0x1
 6854 0a3e 51       		.byte	0x51
ARM GAS  C:\Users\Revanth\AppData\Local\Temp\ccqs06ys.s 			page 163


 6855 0a3f 01       		.uleb128 0x1
 6856 0a40 30       		.byte	0x30
 6857 0a41 00       		.byte	0
 6858 0a42 08       		.uleb128 0x8
 6859 0a43 24000000 		.4byte	.LVL141
 6860 0a47 69020000 		.4byte	0x269
 6861 0a4b 5B0A0000 		.4byte	0xa5b
 6862 0a4f 09       		.uleb128 0x9
 6863 0a50 01       		.uleb128 0x1
 6864 0a51 50       		.byte	0x50
 6865 0a52 02       		.uleb128 0x2
 6866 0a53 08       		.byte	0x8
 6867 0a54 24       		.byte	0x24
 6868 0a55 09       		.uleb128 0x9
 6869 0a56 01       		.uleb128 0x1
 6870 0a57 51       		.byte	0x51
 6871 0a58 01       		.uleb128 0x1
 6872 0a59 30       		.byte	0x30
 6873 0a5a 00       		.byte	0
 6874 0a5b 08       		.uleb128 0x8
 6875 0a5c 2C000000 		.4byte	.LVL142
 6876 0a60 69020000 		.4byte	0x269
 6877 0a64 740A0000 		.4byte	0xa74
 6878 0a68 09       		.uleb128 0x9
 6879 0a69 01       		.uleb128 0x1
 6880 0a6a 50       		.byte	0x50
 6881 0a6b 02       		.uleb128 0x2
 6882 0a6c 08       		.byte	0x8
 6883 0a6d 28       		.byte	0x28
 6884 0a6e 09       		.uleb128 0x9
 6885 0a6f 01       		.uleb128 0x1
 6886 0a70 51       		.byte	0x51
 6887 0a71 01       		.uleb128 0x1
 6888 0a72 30       		.byte	0x30
 6889 0a73 00       		.byte	0
 6890 0a74 08       		.uleb128 0x8
 6891 0a75 34000000 		.4byte	.LVL143
 6892 0a79 69020000 		.4byte	0x269
 6893 0a7d 8D0A0000 		.4byte	0xa8d
 6894 0a81 09       		.uleb128 0x9
 6895 0a82 01       		.uleb128 0x1
 6896 0a83 50       		.byte	0x50
 6897 0a84 02       		.uleb128 0x2
 6898 0a85 08       		.byte	0x8
 6899 0a86 2C       		.byte	0x2c
 6900 0a87 09       		.uleb128 0x9
 6901 0a88 01       		.uleb128 0x1
 6902 0a89 51       		.byte	0x51
 6903 0a8a 01       		.uleb128 0x1
 6904 0a8b 30       		.byte	0x30
 6905 0a8c 00       		.byte	0
 6906 0a8d 08       		.uleb128 0x8
 6907 0a8e 3C000000 		.4byte	.LVL144
 6908 0a92 69020000 		.4byte	0x269
 6909 0a96 A60A0000 		.4byte	0xaa6
 6910 0a9a 09       		.uleb128 0x9
 6911 0a9b 01       		.uleb128 0x1
ARM GAS  C:\Users\Revanth\AppData\Local\Temp\ccqs06ys.s 			page 164


 6912 0a9c 50       		.byte	0x50
 6913 0a9d 02       		.uleb128 0x2
 6914 0a9e 08       		.byte	0x8
 6915 0a9f 30       		.byte	0x30
 6916 0aa0 09       		.uleb128 0x9
 6917 0aa1 01       		.uleb128 0x1
 6918 0aa2 51       		.byte	0x51
 6919 0aa3 01       		.uleb128 0x1
 6920 0aa4 30       		.byte	0x30
 6921 0aa5 00       		.byte	0
 6922 0aa6 08       		.uleb128 0x8
 6923 0aa7 44000000 		.4byte	.LVL145
 6924 0aab 69020000 		.4byte	0x269
 6925 0aaf BF0A0000 		.4byte	0xabf
 6926 0ab3 09       		.uleb128 0x9
 6927 0ab4 01       		.uleb128 0x1
 6928 0ab5 50       		.byte	0x50
 6929 0ab6 02       		.uleb128 0x2
 6930 0ab7 08       		.byte	0x8
 6931 0ab8 34       		.byte	0x34
 6932 0ab9 09       		.uleb128 0x9
 6933 0aba 01       		.uleb128 0x1
 6934 0abb 51       		.byte	0x51
 6935 0abc 01       		.uleb128 0x1
 6936 0abd 30       		.byte	0x30
 6937 0abe 00       		.byte	0
 6938 0abf 08       		.uleb128 0x8
 6939 0ac0 4C000000 		.4byte	.LVL146
 6940 0ac4 69020000 		.4byte	0x269
 6941 0ac8 D80A0000 		.4byte	0xad8
 6942 0acc 09       		.uleb128 0x9
 6943 0acd 01       		.uleb128 0x1
 6944 0ace 50       		.byte	0x50
 6945 0acf 02       		.uleb128 0x2
 6946 0ad0 08       		.byte	0x8
 6947 0ad1 38       		.byte	0x38
 6948 0ad2 09       		.uleb128 0x9
 6949 0ad3 01       		.uleb128 0x1
 6950 0ad4 51       		.byte	0x51
 6951 0ad5 01       		.uleb128 0x1
 6952 0ad6 30       		.byte	0x30
 6953 0ad7 00       		.byte	0
 6954 0ad8 08       		.uleb128 0x8
 6955 0ad9 54000000 		.4byte	.LVL147
 6956 0add 69020000 		.4byte	0x269
 6957 0ae1 F10A0000 		.4byte	0xaf1
 6958 0ae5 09       		.uleb128 0x9
 6959 0ae6 01       		.uleb128 0x1
 6960 0ae7 50       		.byte	0x50
 6961 0ae8 02       		.uleb128 0x2
 6962 0ae9 08       		.byte	0x8
 6963 0aea 3C       		.byte	0x3c
 6964 0aeb 09       		.uleb128 0x9
 6965 0aec 01       		.uleb128 0x1
 6966 0aed 51       		.byte	0x51
 6967 0aee 01       		.uleb128 0x1
 6968 0aef 30       		.byte	0x30
ARM GAS  C:\Users\Revanth\AppData\Local\Temp\ccqs06ys.s 			page 165


 6969 0af0 00       		.byte	0
 6970 0af1 08       		.uleb128 0x8
 6971 0af2 5C000000 		.4byte	.LVL148
 6972 0af6 69020000 		.4byte	0x269
 6973 0afa 0A0B0000 		.4byte	0xb0a
 6974 0afe 09       		.uleb128 0x9
 6975 0aff 01       		.uleb128 0x1
 6976 0b00 50       		.byte	0x50
 6977 0b01 02       		.uleb128 0x2
 6978 0b02 08       		.byte	0x8
 6979 0b03 40       		.byte	0x40
 6980 0b04 09       		.uleb128 0x9
 6981 0b05 01       		.uleb128 0x1
 6982 0b06 51       		.byte	0x51
 6983 0b07 01       		.uleb128 0x1
 6984 0b08 30       		.byte	0x30
 6985 0b09 00       		.byte	0
 6986 0b0a 08       		.uleb128 0x8
 6987 0b0b 64000000 		.4byte	.LVL149
 6988 0b0f 69020000 		.4byte	0x269
 6989 0b13 230B0000 		.4byte	0xb23
 6990 0b17 09       		.uleb128 0x9
 6991 0b18 01       		.uleb128 0x1
 6992 0b19 50       		.byte	0x50
 6993 0b1a 02       		.uleb128 0x2
 6994 0b1b 08       		.byte	0x8
 6995 0b1c 44       		.byte	0x44
 6996 0b1d 09       		.uleb128 0x9
 6997 0b1e 01       		.uleb128 0x1
 6998 0b1f 51       		.byte	0x51
 6999 0b20 01       		.uleb128 0x1
 7000 0b21 30       		.byte	0x30
 7001 0b22 00       		.byte	0
 7002 0b23 08       		.uleb128 0x8
 7003 0b24 6C000000 		.4byte	.LVL150
 7004 0b28 69020000 		.4byte	0x269
 7005 0b2c 3C0B0000 		.4byte	0xb3c
 7006 0b30 09       		.uleb128 0x9
 7007 0b31 01       		.uleb128 0x1
 7008 0b32 50       		.byte	0x50
 7009 0b33 02       		.uleb128 0x2
 7010 0b34 08       		.byte	0x8
 7011 0b35 48       		.byte	0x48
 7012 0b36 09       		.uleb128 0x9
 7013 0b37 01       		.uleb128 0x1
 7014 0b38 51       		.byte	0x51
 7015 0b39 01       		.uleb128 0x1
 7016 0b3a 30       		.byte	0x30
 7017 0b3b 00       		.byte	0
 7018 0b3c 08       		.uleb128 0x8
 7019 0b3d 74000000 		.4byte	.LVL151
 7020 0b41 69020000 		.4byte	0x269
 7021 0b45 550B0000 		.4byte	0xb55
 7022 0b49 09       		.uleb128 0x9
 7023 0b4a 01       		.uleb128 0x1
 7024 0b4b 50       		.byte	0x50
 7025 0b4c 02       		.uleb128 0x2
ARM GAS  C:\Users\Revanth\AppData\Local\Temp\ccqs06ys.s 			page 166


 7026 0b4d 08       		.byte	0x8
 7027 0b4e 4C       		.byte	0x4c
 7028 0b4f 09       		.uleb128 0x9
 7029 0b50 01       		.uleb128 0x1
 7030 0b51 51       		.byte	0x51
 7031 0b52 01       		.uleb128 0x1
 7032 0b53 30       		.byte	0x30
 7033 0b54 00       		.byte	0
 7034 0b55 08       		.uleb128 0x8
 7035 0b56 7C000000 		.4byte	.LVL152
 7036 0b5a 69020000 		.4byte	0x269
 7037 0b5e 6E0B0000 		.4byte	0xb6e
 7038 0b62 09       		.uleb128 0x9
 7039 0b63 01       		.uleb128 0x1
 7040 0b64 50       		.byte	0x50
 7041 0b65 02       		.uleb128 0x2
 7042 0b66 08       		.byte	0x8
 7043 0b67 50       		.byte	0x50
 7044 0b68 09       		.uleb128 0x9
 7045 0b69 01       		.uleb128 0x1
 7046 0b6a 51       		.byte	0x51
 7047 0b6b 01       		.uleb128 0x1
 7048 0b6c 30       		.byte	0x30
 7049 0b6d 00       		.byte	0
 7050 0b6e 08       		.uleb128 0x8
 7051 0b6f 84000000 		.4byte	.LVL153
 7052 0b73 69020000 		.4byte	0x269
 7053 0b77 870B0000 		.4byte	0xb87
 7054 0b7b 09       		.uleb128 0x9
 7055 0b7c 01       		.uleb128 0x1
 7056 0b7d 50       		.byte	0x50
 7057 0b7e 02       		.uleb128 0x2
 7058 0b7f 08       		.byte	0x8
 7059 0b80 54       		.byte	0x54
 7060 0b81 09       		.uleb128 0x9
 7061 0b82 01       		.uleb128 0x1
 7062 0b83 51       		.byte	0x51
 7063 0b84 01       		.uleb128 0x1
 7064 0b85 30       		.byte	0x30
 7065 0b86 00       		.byte	0
 7066 0b87 08       		.uleb128 0x8
 7067 0b88 8C000000 		.4byte	.LVL154
 7068 0b8c 69020000 		.4byte	0x269
 7069 0b90 A00B0000 		.4byte	0xba0
 7070 0b94 09       		.uleb128 0x9
 7071 0b95 01       		.uleb128 0x1
 7072 0b96 50       		.byte	0x50
 7073 0b97 02       		.uleb128 0x2
 7074 0b98 08       		.byte	0x8
 7075 0b99 58       		.byte	0x58
 7076 0b9a 09       		.uleb128 0x9
 7077 0b9b 01       		.uleb128 0x1
 7078 0b9c 51       		.byte	0x51
 7079 0b9d 01       		.uleb128 0x1
 7080 0b9e 30       		.byte	0x30
 7081 0b9f 00       		.byte	0
 7082 0ba0 08       		.uleb128 0x8
ARM GAS  C:\Users\Revanth\AppData\Local\Temp\ccqs06ys.s 			page 167


 7083 0ba1 94000000 		.4byte	.LVL155
 7084 0ba5 69020000 		.4byte	0x269
 7085 0ba9 B90B0000 		.4byte	0xbb9
 7086 0bad 09       		.uleb128 0x9
 7087 0bae 01       		.uleb128 0x1
 7088 0baf 50       		.byte	0x50
 7089 0bb0 02       		.uleb128 0x2
 7090 0bb1 08       		.byte	0x8
 7091 0bb2 5C       		.byte	0x5c
 7092 0bb3 09       		.uleb128 0x9
 7093 0bb4 01       		.uleb128 0x1
 7094 0bb5 51       		.byte	0x51
 7095 0bb6 01       		.uleb128 0x1
 7096 0bb7 30       		.byte	0x30
 7097 0bb8 00       		.byte	0
 7098 0bb9 08       		.uleb128 0x8
 7099 0bba 9C000000 		.4byte	.LVL156
 7100 0bbe 69020000 		.4byte	0x269
 7101 0bc2 D20B0000 		.4byte	0xbd2
 7102 0bc6 09       		.uleb128 0x9
 7103 0bc7 01       		.uleb128 0x1
 7104 0bc8 50       		.byte	0x50
 7105 0bc9 02       		.uleb128 0x2
 7106 0bca 08       		.byte	0x8
 7107 0bcb 60       		.byte	0x60
 7108 0bcc 09       		.uleb128 0x9
 7109 0bcd 01       		.uleb128 0x1
 7110 0bce 51       		.byte	0x51
 7111 0bcf 01       		.uleb128 0x1
 7112 0bd0 30       		.byte	0x30
 7113 0bd1 00       		.byte	0
 7114 0bd2 08       		.uleb128 0x8
 7115 0bd3 A4000000 		.4byte	.LVL157
 7116 0bd7 69020000 		.4byte	0x269
 7117 0bdb EB0B0000 		.4byte	0xbeb
 7118 0bdf 09       		.uleb128 0x9
 7119 0be0 01       		.uleb128 0x1
 7120 0be1 50       		.byte	0x50
 7121 0be2 02       		.uleb128 0x2
 7122 0be3 08       		.byte	0x8
 7123 0be4 64       		.byte	0x64
 7124 0be5 09       		.uleb128 0x9
 7125 0be6 01       		.uleb128 0x1
 7126 0be7 51       		.byte	0x51
 7127 0be8 01       		.uleb128 0x1
 7128 0be9 30       		.byte	0x30
 7129 0bea 00       		.byte	0
 7130 0beb 08       		.uleb128 0x8
 7131 0bec AC000000 		.4byte	.LVL158
 7132 0bf0 69020000 		.4byte	0x269
 7133 0bf4 040C0000 		.4byte	0xc04
 7134 0bf8 09       		.uleb128 0x9
 7135 0bf9 01       		.uleb128 0x1
 7136 0bfa 50       		.byte	0x50
 7137 0bfb 02       		.uleb128 0x2
 7138 0bfc 08       		.byte	0x8
 7139 0bfd 68       		.byte	0x68
ARM GAS  C:\Users\Revanth\AppData\Local\Temp\ccqs06ys.s 			page 168


 7140 0bfe 09       		.uleb128 0x9
 7141 0bff 01       		.uleb128 0x1
 7142 0c00 51       		.byte	0x51
 7143 0c01 01       		.uleb128 0x1
 7144 0c02 30       		.byte	0x30
 7145 0c03 00       		.byte	0
 7146 0c04 08       		.uleb128 0x8
 7147 0c05 B4000000 		.4byte	.LVL159
 7148 0c09 69020000 		.4byte	0x269
 7149 0c0d 1D0C0000 		.4byte	0xc1d
 7150 0c11 09       		.uleb128 0x9
 7151 0c12 01       		.uleb128 0x1
 7152 0c13 50       		.byte	0x50
 7153 0c14 02       		.uleb128 0x2
 7154 0c15 08       		.byte	0x8
 7155 0c16 6C       		.byte	0x6c
 7156 0c17 09       		.uleb128 0x9
 7157 0c18 01       		.uleb128 0x1
 7158 0c19 51       		.byte	0x51
 7159 0c1a 01       		.uleb128 0x1
 7160 0c1b 30       		.byte	0x30
 7161 0c1c 00       		.byte	0
 7162 0c1d 08       		.uleb128 0x8
 7163 0c1e BC000000 		.4byte	.LVL160
 7164 0c22 69020000 		.4byte	0x269
 7165 0c26 360C0000 		.4byte	0xc36
 7166 0c2a 09       		.uleb128 0x9
 7167 0c2b 01       		.uleb128 0x1
 7168 0c2c 50       		.byte	0x50
 7169 0c2d 02       		.uleb128 0x2
 7170 0c2e 08       		.byte	0x8
 7171 0c2f 70       		.byte	0x70
 7172 0c30 09       		.uleb128 0x9
 7173 0c31 01       		.uleb128 0x1
 7174 0c32 51       		.byte	0x51
 7175 0c33 01       		.uleb128 0x1
 7176 0c34 30       		.byte	0x30
 7177 0c35 00       		.byte	0
 7178 0c36 08       		.uleb128 0x8
 7179 0c37 C4000000 		.4byte	.LVL161
 7180 0c3b 69020000 		.4byte	0x269
 7181 0c3f 4F0C0000 		.4byte	0xc4f
 7182 0c43 09       		.uleb128 0x9
 7183 0c44 01       		.uleb128 0x1
 7184 0c45 50       		.byte	0x50
 7185 0c46 02       		.uleb128 0x2
 7186 0c47 08       		.byte	0x8
 7187 0c48 74       		.byte	0x74
 7188 0c49 09       		.uleb128 0x9
 7189 0c4a 01       		.uleb128 0x1
 7190 0c4b 51       		.byte	0x51
 7191 0c4c 01       		.uleb128 0x1
 7192 0c4d 30       		.byte	0x30
 7193 0c4e 00       		.byte	0
 7194 0c4f 08       		.uleb128 0x8
 7195 0c50 CC000000 		.4byte	.LVL162
 7196 0c54 69020000 		.4byte	0x269
ARM GAS  C:\Users\Revanth\AppData\Local\Temp\ccqs06ys.s 			page 169


 7197 0c58 680C0000 		.4byte	0xc68
 7198 0c5c 09       		.uleb128 0x9
 7199 0c5d 01       		.uleb128 0x1
 7200 0c5e 50       		.byte	0x50
 7201 0c5f 02       		.uleb128 0x2
 7202 0c60 08       		.byte	0x8
 7203 0c61 78       		.byte	0x78
 7204 0c62 09       		.uleb128 0x9
 7205 0c63 01       		.uleb128 0x1
 7206 0c64 51       		.byte	0x51
 7207 0c65 01       		.uleb128 0x1
 7208 0c66 30       		.byte	0x30
 7209 0c67 00       		.byte	0
 7210 0c68 08       		.uleb128 0x8
 7211 0c69 D4000000 		.4byte	.LVL163
 7212 0c6d 69020000 		.4byte	0x269
 7213 0c71 810C0000 		.4byte	0xc81
 7214 0c75 09       		.uleb128 0x9
 7215 0c76 01       		.uleb128 0x1
 7216 0c77 50       		.byte	0x50
 7217 0c78 02       		.uleb128 0x2
 7218 0c79 08       		.byte	0x8
 7219 0c7a 7C       		.byte	0x7c
 7220 0c7b 09       		.uleb128 0x9
 7221 0c7c 01       		.uleb128 0x1
 7222 0c7d 51       		.byte	0x51
 7223 0c7e 01       		.uleb128 0x1
 7224 0c7f 30       		.byte	0x30
 7225 0c80 00       		.byte	0
 7226 0c81 08       		.uleb128 0x8
 7227 0c82 DC000000 		.4byte	.LVL164
 7228 0c86 69020000 		.4byte	0x269
 7229 0c8a 9A0C0000 		.4byte	0xc9a
 7230 0c8e 09       		.uleb128 0x9
 7231 0c8f 01       		.uleb128 0x1
 7232 0c90 50       		.byte	0x50
 7233 0c91 02       		.uleb128 0x2
 7234 0c92 08       		.byte	0x8
 7235 0c93 21       		.byte	0x21
 7236 0c94 09       		.uleb128 0x9
 7237 0c95 01       		.uleb128 0x1
 7238 0c96 51       		.byte	0x51
 7239 0c97 01       		.uleb128 0x1
 7240 0c98 30       		.byte	0x30
 7241 0c99 00       		.byte	0
 7242 0c9a 08       		.uleb128 0x8
 7243 0c9b E4000000 		.4byte	.LVL165
 7244 0c9f 69020000 		.4byte	0x269
 7245 0ca3 B30C0000 		.4byte	0xcb3
 7246 0ca7 09       		.uleb128 0x9
 7247 0ca8 01       		.uleb128 0x1
 7248 0ca9 50       		.byte	0x50
 7249 0caa 02       		.uleb128 0x2
 7250 0cab 08       		.byte	0x8
 7251 0cac 25       		.byte	0x25
 7252 0cad 09       		.uleb128 0x9
 7253 0cae 01       		.uleb128 0x1
ARM GAS  C:\Users\Revanth\AppData\Local\Temp\ccqs06ys.s 			page 170


 7254 0caf 51       		.byte	0x51
 7255 0cb0 01       		.uleb128 0x1
 7256 0cb1 30       		.byte	0x30
 7257 0cb2 00       		.byte	0
 7258 0cb3 08       		.uleb128 0x8
 7259 0cb4 EC000000 		.4byte	.LVL166
 7260 0cb8 69020000 		.4byte	0x269
 7261 0cbc CC0C0000 		.4byte	0xccc
 7262 0cc0 09       		.uleb128 0x9
 7263 0cc1 01       		.uleb128 0x1
 7264 0cc2 50       		.byte	0x50
 7265 0cc3 02       		.uleb128 0x2
 7266 0cc4 08       		.byte	0x8
 7267 0cc5 29       		.byte	0x29
 7268 0cc6 09       		.uleb128 0x9
 7269 0cc7 01       		.uleb128 0x1
 7270 0cc8 51       		.byte	0x51
 7271 0cc9 01       		.uleb128 0x1
 7272 0cca 30       		.byte	0x30
 7273 0ccb 00       		.byte	0
 7274 0ccc 08       		.uleb128 0x8
 7275 0ccd F4000000 		.4byte	.LVL167
 7276 0cd1 69020000 		.4byte	0x269
 7277 0cd5 E50C0000 		.4byte	0xce5
 7278 0cd9 09       		.uleb128 0x9
 7279 0cda 01       		.uleb128 0x1
 7280 0cdb 50       		.byte	0x50
 7281 0cdc 02       		.uleb128 0x2
 7282 0cdd 08       		.byte	0x8
 7283 0cde 2D       		.byte	0x2d
 7284 0cdf 09       		.uleb128 0x9
 7285 0ce0 01       		.uleb128 0x1
 7286 0ce1 51       		.byte	0x51
 7287 0ce2 01       		.uleb128 0x1
 7288 0ce3 30       		.byte	0x30
 7289 0ce4 00       		.byte	0
 7290 0ce5 08       		.uleb128 0x8
 7291 0ce6 FC000000 		.4byte	.LVL168
 7292 0cea 69020000 		.4byte	0x269
 7293 0cee FE0C0000 		.4byte	0xcfe
 7294 0cf2 09       		.uleb128 0x9
 7295 0cf3 01       		.uleb128 0x1
 7296 0cf4 50       		.byte	0x50
 7297 0cf5 02       		.uleb128 0x2
 7298 0cf6 08       		.byte	0x8
 7299 0cf7 31       		.byte	0x31
 7300 0cf8 09       		.uleb128 0x9
 7301 0cf9 01       		.uleb128 0x1
 7302 0cfa 51       		.byte	0x51
 7303 0cfb 01       		.uleb128 0x1
 7304 0cfc 30       		.byte	0x30
 7305 0cfd 00       		.byte	0
 7306 0cfe 08       		.uleb128 0x8
 7307 0cff 04010000 		.4byte	.LVL169
 7308 0d03 69020000 		.4byte	0x269
 7309 0d07 170D0000 		.4byte	0xd17
 7310 0d0b 09       		.uleb128 0x9
ARM GAS  C:\Users\Revanth\AppData\Local\Temp\ccqs06ys.s 			page 171


 7311 0d0c 01       		.uleb128 0x1
 7312 0d0d 50       		.byte	0x50
 7313 0d0e 02       		.uleb128 0x2
 7314 0d0f 08       		.byte	0x8
 7315 0d10 35       		.byte	0x35
 7316 0d11 09       		.uleb128 0x9
 7317 0d12 01       		.uleb128 0x1
 7318 0d13 51       		.byte	0x51
 7319 0d14 01       		.uleb128 0x1
 7320 0d15 30       		.byte	0x30
 7321 0d16 00       		.byte	0
 7322 0d17 08       		.uleb128 0x8
 7323 0d18 0C010000 		.4byte	.LVL170
 7324 0d1c 69020000 		.4byte	0x269
 7325 0d20 300D0000 		.4byte	0xd30
 7326 0d24 09       		.uleb128 0x9
 7327 0d25 01       		.uleb128 0x1
 7328 0d26 50       		.byte	0x50
 7329 0d27 02       		.uleb128 0x2
 7330 0d28 08       		.byte	0x8
 7331 0d29 39       		.byte	0x39
 7332 0d2a 09       		.uleb128 0x9
 7333 0d2b 01       		.uleb128 0x1
 7334 0d2c 51       		.byte	0x51
 7335 0d2d 01       		.uleb128 0x1
 7336 0d2e 30       		.byte	0x30
 7337 0d2f 00       		.byte	0
 7338 0d30 08       		.uleb128 0x8
 7339 0d31 14010000 		.4byte	.LVL171
 7340 0d35 69020000 		.4byte	0x269
 7341 0d39 490D0000 		.4byte	0xd49
 7342 0d3d 09       		.uleb128 0x9
 7343 0d3e 01       		.uleb128 0x1
 7344 0d3f 50       		.byte	0x50
 7345 0d40 02       		.uleb128 0x2
 7346 0d41 08       		.byte	0x8
 7347 0d42 3D       		.byte	0x3d
 7348 0d43 09       		.uleb128 0x9
 7349 0d44 01       		.uleb128 0x1
 7350 0d45 51       		.byte	0x51
 7351 0d46 01       		.uleb128 0x1
 7352 0d47 30       		.byte	0x30
 7353 0d48 00       		.byte	0
 7354 0d49 08       		.uleb128 0x8
 7355 0d4a 1C010000 		.4byte	.LVL172
 7356 0d4e 69020000 		.4byte	0x269
 7357 0d52 620D0000 		.4byte	0xd62
 7358 0d56 09       		.uleb128 0x9
 7359 0d57 01       		.uleb128 0x1
 7360 0d58 50       		.byte	0x50
 7361 0d59 02       		.uleb128 0x2
 7362 0d5a 08       		.byte	0x8
 7363 0d5b 41       		.byte	0x41
 7364 0d5c 09       		.uleb128 0x9
 7365 0d5d 01       		.uleb128 0x1
 7366 0d5e 51       		.byte	0x51
 7367 0d5f 01       		.uleb128 0x1
ARM GAS  C:\Users\Revanth\AppData\Local\Temp\ccqs06ys.s 			page 172


 7368 0d60 30       		.byte	0x30
 7369 0d61 00       		.byte	0
 7370 0d62 08       		.uleb128 0x8
 7371 0d63 24010000 		.4byte	.LVL173
 7372 0d67 69020000 		.4byte	0x269
 7373 0d6b 7B0D0000 		.4byte	0xd7b
 7374 0d6f 09       		.uleb128 0x9
 7375 0d70 01       		.uleb128 0x1
 7376 0d71 50       		.byte	0x50
 7377 0d72 02       		.uleb128 0x2
 7378 0d73 08       		.byte	0x8
 7379 0d74 45       		.byte	0x45
 7380 0d75 09       		.uleb128 0x9
 7381 0d76 01       		.uleb128 0x1
 7382 0d77 51       		.byte	0x51
 7383 0d78 01       		.uleb128 0x1
 7384 0d79 30       		.byte	0x30
 7385 0d7a 00       		.byte	0
 7386 0d7b 08       		.uleb128 0x8
 7387 0d7c 2C010000 		.4byte	.LVL174
 7388 0d80 69020000 		.4byte	0x269
 7389 0d84 940D0000 		.4byte	0xd94
 7390 0d88 09       		.uleb128 0x9
 7391 0d89 01       		.uleb128 0x1
 7392 0d8a 50       		.byte	0x50
 7393 0d8b 02       		.uleb128 0x2
 7394 0d8c 08       		.byte	0x8
 7395 0d8d 49       		.byte	0x49
 7396 0d8e 09       		.uleb128 0x9
 7397 0d8f 01       		.uleb128 0x1
 7398 0d90 51       		.byte	0x51
 7399 0d91 01       		.uleb128 0x1
 7400 0d92 30       		.byte	0x30
 7401 0d93 00       		.byte	0
 7402 0d94 08       		.uleb128 0x8
 7403 0d95 34010000 		.4byte	.LVL175
 7404 0d99 69020000 		.4byte	0x269
 7405 0d9d AD0D0000 		.4byte	0xdad
 7406 0da1 09       		.uleb128 0x9
 7407 0da2 01       		.uleb128 0x1
 7408 0da3 50       		.byte	0x50
 7409 0da4 02       		.uleb128 0x2
 7410 0da5 08       		.byte	0x8
 7411 0da6 4D       		.byte	0x4d
 7412 0da7 09       		.uleb128 0x9
 7413 0da8 01       		.uleb128 0x1
 7414 0da9 51       		.byte	0x51
 7415 0daa 01       		.uleb128 0x1
 7416 0dab 30       		.byte	0x30
 7417 0dac 00       		.byte	0
 7418 0dad 08       		.uleb128 0x8
 7419 0dae 3C010000 		.4byte	.LVL176
 7420 0db2 69020000 		.4byte	0x269
 7421 0db6 C60D0000 		.4byte	0xdc6
 7422 0dba 09       		.uleb128 0x9
 7423 0dbb 01       		.uleb128 0x1
 7424 0dbc 50       		.byte	0x50
ARM GAS  C:\Users\Revanth\AppData\Local\Temp\ccqs06ys.s 			page 173


 7425 0dbd 02       		.uleb128 0x2
 7426 0dbe 08       		.byte	0x8
 7427 0dbf 51       		.byte	0x51
 7428 0dc0 09       		.uleb128 0x9
 7429 0dc1 01       		.uleb128 0x1
 7430 0dc2 51       		.byte	0x51
 7431 0dc3 01       		.uleb128 0x1
 7432 0dc4 30       		.byte	0x30
 7433 0dc5 00       		.byte	0
 7434 0dc6 08       		.uleb128 0x8
 7435 0dc7 44010000 		.4byte	.LVL177
 7436 0dcb 69020000 		.4byte	0x269
 7437 0dcf DF0D0000 		.4byte	0xddf
 7438 0dd3 09       		.uleb128 0x9
 7439 0dd4 01       		.uleb128 0x1
 7440 0dd5 50       		.byte	0x50
 7441 0dd6 02       		.uleb128 0x2
 7442 0dd7 08       		.byte	0x8
 7443 0dd8 55       		.byte	0x55
 7444 0dd9 09       		.uleb128 0x9
 7445 0dda 01       		.uleb128 0x1
 7446 0ddb 51       		.byte	0x51
 7447 0ddc 01       		.uleb128 0x1
 7448 0ddd 30       		.byte	0x30
 7449 0dde 00       		.byte	0
 7450 0ddf 08       		.uleb128 0x8
 7451 0de0 4C010000 		.4byte	.LVL178
 7452 0de4 69020000 		.4byte	0x269
 7453 0de8 F80D0000 		.4byte	0xdf8
 7454 0dec 09       		.uleb128 0x9
 7455 0ded 01       		.uleb128 0x1
 7456 0dee 50       		.byte	0x50
 7457 0def 02       		.uleb128 0x2
 7458 0df0 08       		.byte	0x8
 7459 0df1 59       		.byte	0x59
 7460 0df2 09       		.uleb128 0x9
 7461 0df3 01       		.uleb128 0x1
 7462 0df4 51       		.byte	0x51
 7463 0df5 01       		.uleb128 0x1
 7464 0df6 30       		.byte	0x30
 7465 0df7 00       		.byte	0
 7466 0df8 08       		.uleb128 0x8
 7467 0df9 54010000 		.4byte	.LVL179
 7468 0dfd 69020000 		.4byte	0x269
 7469 0e01 110E0000 		.4byte	0xe11
 7470 0e05 09       		.uleb128 0x9
 7471 0e06 01       		.uleb128 0x1
 7472 0e07 50       		.byte	0x50
 7473 0e08 02       		.uleb128 0x2
 7474 0e09 08       		.byte	0x8
 7475 0e0a 5D       		.byte	0x5d
 7476 0e0b 09       		.uleb128 0x9
 7477 0e0c 01       		.uleb128 0x1
 7478 0e0d 51       		.byte	0x51
 7479 0e0e 01       		.uleb128 0x1
 7480 0e0f 30       		.byte	0x30
 7481 0e10 00       		.byte	0
ARM GAS  C:\Users\Revanth\AppData\Local\Temp\ccqs06ys.s 			page 174


 7482 0e11 08       		.uleb128 0x8
 7483 0e12 5C010000 		.4byte	.LVL180
 7484 0e16 69020000 		.4byte	0x269
 7485 0e1a 2A0E0000 		.4byte	0xe2a
 7486 0e1e 09       		.uleb128 0x9
 7487 0e1f 01       		.uleb128 0x1
 7488 0e20 50       		.byte	0x50
 7489 0e21 02       		.uleb128 0x2
 7490 0e22 08       		.byte	0x8
 7491 0e23 61       		.byte	0x61
 7492 0e24 09       		.uleb128 0x9
 7493 0e25 01       		.uleb128 0x1
 7494 0e26 51       		.byte	0x51
 7495 0e27 01       		.uleb128 0x1
 7496 0e28 30       		.byte	0x30
 7497 0e29 00       		.byte	0
 7498 0e2a 08       		.uleb128 0x8
 7499 0e2b 64010000 		.4byte	.LVL181
 7500 0e2f 69020000 		.4byte	0x269
 7501 0e33 430E0000 		.4byte	0xe43
 7502 0e37 09       		.uleb128 0x9
 7503 0e38 01       		.uleb128 0x1
 7504 0e39 50       		.byte	0x50
 7505 0e3a 02       		.uleb128 0x2
 7506 0e3b 08       		.byte	0x8
 7507 0e3c 65       		.byte	0x65
 7508 0e3d 09       		.uleb128 0x9
 7509 0e3e 01       		.uleb128 0x1
 7510 0e3f 51       		.byte	0x51
 7511 0e40 01       		.uleb128 0x1
 7512 0e41 30       		.byte	0x30
 7513 0e42 00       		.byte	0
 7514 0e43 08       		.uleb128 0x8
 7515 0e44 6C010000 		.4byte	.LVL182
 7516 0e48 69020000 		.4byte	0x269
 7517 0e4c 5C0E0000 		.4byte	0xe5c
 7518 0e50 09       		.uleb128 0x9
 7519 0e51 01       		.uleb128 0x1
 7520 0e52 50       		.byte	0x50
 7521 0e53 02       		.uleb128 0x2
 7522 0e54 08       		.byte	0x8
 7523 0e55 69       		.byte	0x69
 7524 0e56 09       		.uleb128 0x9
 7525 0e57 01       		.uleb128 0x1
 7526 0e58 51       		.byte	0x51
 7527 0e59 01       		.uleb128 0x1
 7528 0e5a 30       		.byte	0x30
 7529 0e5b 00       		.byte	0
 7530 0e5c 08       		.uleb128 0x8
 7531 0e5d 74010000 		.4byte	.LVL183
 7532 0e61 69020000 		.4byte	0x269
 7533 0e65 750E0000 		.4byte	0xe75
 7534 0e69 09       		.uleb128 0x9
 7535 0e6a 01       		.uleb128 0x1
 7536 0e6b 50       		.byte	0x50
 7537 0e6c 02       		.uleb128 0x2
 7538 0e6d 08       		.byte	0x8
ARM GAS  C:\Users\Revanth\AppData\Local\Temp\ccqs06ys.s 			page 175


 7539 0e6e 6D       		.byte	0x6d
 7540 0e6f 09       		.uleb128 0x9
 7541 0e70 01       		.uleb128 0x1
 7542 0e71 51       		.byte	0x51
 7543 0e72 01       		.uleb128 0x1
 7544 0e73 30       		.byte	0x30
 7545 0e74 00       		.byte	0
 7546 0e75 08       		.uleb128 0x8
 7547 0e76 7C010000 		.4byte	.LVL184
 7548 0e7a 69020000 		.4byte	0x269
 7549 0e7e 8E0E0000 		.4byte	0xe8e
 7550 0e82 09       		.uleb128 0x9
 7551 0e83 01       		.uleb128 0x1
 7552 0e84 50       		.byte	0x50
 7553 0e85 02       		.uleb128 0x2
 7554 0e86 08       		.byte	0x8
 7555 0e87 71       		.byte	0x71
 7556 0e88 09       		.uleb128 0x9
 7557 0e89 01       		.uleb128 0x1
 7558 0e8a 51       		.byte	0x51
 7559 0e8b 01       		.uleb128 0x1
 7560 0e8c 30       		.byte	0x30
 7561 0e8d 00       		.byte	0
 7562 0e8e 08       		.uleb128 0x8
 7563 0e8f 84010000 		.4byte	.LVL185
 7564 0e93 69020000 		.4byte	0x269
 7565 0e97 A70E0000 		.4byte	0xea7
 7566 0e9b 09       		.uleb128 0x9
 7567 0e9c 01       		.uleb128 0x1
 7568 0e9d 50       		.byte	0x50
 7569 0e9e 02       		.uleb128 0x2
 7570 0e9f 08       		.byte	0x8
 7571 0ea0 75       		.byte	0x75
 7572 0ea1 09       		.uleb128 0x9
 7573 0ea2 01       		.uleb128 0x1
 7574 0ea3 51       		.byte	0x51
 7575 0ea4 01       		.uleb128 0x1
 7576 0ea5 30       		.byte	0x30
 7577 0ea6 00       		.byte	0
 7578 0ea7 08       		.uleb128 0x8
 7579 0ea8 8C010000 		.4byte	.LVL186
 7580 0eac 69020000 		.4byte	0x269
 7581 0eb0 C00E0000 		.4byte	0xec0
 7582 0eb4 09       		.uleb128 0x9
 7583 0eb5 01       		.uleb128 0x1
 7584 0eb6 50       		.byte	0x50
 7585 0eb7 02       		.uleb128 0x2
 7586 0eb8 08       		.byte	0x8
 7587 0eb9 79       		.byte	0x79
 7588 0eba 09       		.uleb128 0x9
 7589 0ebb 01       		.uleb128 0x1
 7590 0ebc 51       		.byte	0x51
 7591 0ebd 01       		.uleb128 0x1
 7592 0ebe 30       		.byte	0x30
 7593 0ebf 00       		.byte	0
 7594 0ec0 08       		.uleb128 0x8
 7595 0ec1 94010000 		.4byte	.LVL187
ARM GAS  C:\Users\Revanth\AppData\Local\Temp\ccqs06ys.s 			page 176


 7596 0ec5 69020000 		.4byte	0x269
 7597 0ec9 D90E0000 		.4byte	0xed9
 7598 0ecd 09       		.uleb128 0x9
 7599 0ece 01       		.uleb128 0x1
 7600 0ecf 50       		.byte	0x50
 7601 0ed0 02       		.uleb128 0x2
 7602 0ed1 08       		.byte	0x8
 7603 0ed2 7D       		.byte	0x7d
 7604 0ed3 09       		.uleb128 0x9
 7605 0ed4 01       		.uleb128 0x1
 7606 0ed5 51       		.byte	0x51
 7607 0ed6 01       		.uleb128 0x1
 7608 0ed7 30       		.byte	0x30
 7609 0ed8 00       		.byte	0
 7610 0ed9 08       		.uleb128 0x8
 7611 0eda 9A010000 		.4byte	.LVL188
 7612 0ede B75F0000 		.4byte	0x5fb7
 7613 0ee2 EC0E0000 		.4byte	0xeec
 7614 0ee6 09       		.uleb128 0x9
 7615 0ee7 01       		.uleb128 0x1
 7616 0ee8 50       		.byte	0x50
 7617 0ee9 01       		.uleb128 0x1
 7618 0eea 31       		.byte	0x31
 7619 0eeb 00       		.byte	0
 7620 0eec 08       		.uleb128 0x8
 7621 0eed A0010000 		.4byte	.LVL189
 7622 0ef1 C25F0000 		.4byte	0x5fc2
 7623 0ef5 FF0E0000 		.4byte	0xeff
 7624 0ef9 09       		.uleb128 0x9
 7625 0efa 01       		.uleb128 0x1
 7626 0efb 50       		.byte	0x50
 7627 0efc 01       		.uleb128 0x1
 7628 0efd 31       		.byte	0x31
 7629 0efe 00       		.byte	0
 7630 0eff 08       		.uleb128 0x8
 7631 0f00 A6010000 		.4byte	.LVL190
 7632 0f04 CA040000 		.4byte	0x4ca
 7633 0f08 120F0000 		.4byte	0xf12
 7634 0f0c 09       		.uleb128 0x9
 7635 0f0d 01       		.uleb128 0x1
 7636 0f0e 50       		.byte	0x50
 7637 0f0f 01       		.uleb128 0x1
 7638 0f10 31       		.byte	0x31
 7639 0f11 00       		.byte	0
 7640 0f12 08       		.uleb128 0x8
 7641 0f13 AE010000 		.4byte	.LVL191
 7642 0f17 8D040000 		.4byte	0x48d
 7643 0f1b 2B0F0000 		.4byte	0xf2b
 7644 0f1f 09       		.uleb128 0x9
 7645 0f20 01       		.uleb128 0x1
 7646 0f21 50       		.byte	0x50
 7647 0f22 02       		.uleb128 0x2
 7648 0f23 08       		.byte	0x8
 7649 0f24 20       		.byte	0x20
 7650 0f25 09       		.uleb128 0x9
 7651 0f26 01       		.uleb128 0x1
 7652 0f27 51       		.byte	0x51
ARM GAS  C:\Users\Revanth\AppData\Local\Temp\ccqs06ys.s 			page 177


 7653 0f28 01       		.uleb128 0x1
 7654 0f29 30       		.byte	0x30
 7655 0f2a 00       		.byte	0
 7656 0f2b 08       		.uleb128 0x8
 7657 0f2c B6010000 		.4byte	.LVL192
 7658 0f30 8D040000 		.4byte	0x48d
 7659 0f34 440F0000 		.4byte	0xf44
 7660 0f38 09       		.uleb128 0x9
 7661 0f39 01       		.uleb128 0x1
 7662 0f3a 50       		.byte	0x50
 7663 0f3b 02       		.uleb128 0x2
 7664 0f3c 08       		.byte	0x8
 7665 0f3d 24       		.byte	0x24
 7666 0f3e 09       		.uleb128 0x9
 7667 0f3f 01       		.uleb128 0x1
 7668 0f40 51       		.byte	0x51
 7669 0f41 01       		.uleb128 0x1
 7670 0f42 30       		.byte	0x30
 7671 0f43 00       		.byte	0
 7672 0f44 08       		.uleb128 0x8
 7673 0f45 BE010000 		.4byte	.LVL193
 7674 0f49 8D040000 		.4byte	0x48d
 7675 0f4d 5D0F0000 		.4byte	0xf5d
 7676 0f51 09       		.uleb128 0x9
 7677 0f52 01       		.uleb128 0x1
 7678 0f53 50       		.byte	0x50
 7679 0f54 02       		.uleb128 0x2
 7680 0f55 08       		.byte	0x8
 7681 0f56 28       		.byte	0x28
 7682 0f57 09       		.uleb128 0x9
 7683 0f58 01       		.uleb128 0x1
 7684 0f59 51       		.byte	0x51
 7685 0f5a 01       		.uleb128 0x1
 7686 0f5b 30       		.byte	0x30
 7687 0f5c 00       		.byte	0
 7688 0f5d 08       		.uleb128 0x8
 7689 0f5e C6010000 		.4byte	.LVL194
 7690 0f62 8D040000 		.4byte	0x48d
 7691 0f66 760F0000 		.4byte	0xf76
 7692 0f6a 09       		.uleb128 0x9
 7693 0f6b 01       		.uleb128 0x1
 7694 0f6c 50       		.byte	0x50
 7695 0f6d 02       		.uleb128 0x2
 7696 0f6e 08       		.byte	0x8
 7697 0f6f 2C       		.byte	0x2c
 7698 0f70 09       		.uleb128 0x9
 7699 0f71 01       		.uleb128 0x1
 7700 0f72 51       		.byte	0x51
 7701 0f73 01       		.uleb128 0x1
 7702 0f74 30       		.byte	0x30
 7703 0f75 00       		.byte	0
 7704 0f76 08       		.uleb128 0x8
 7705 0f77 CE010000 		.4byte	.LVL195
 7706 0f7b 8D040000 		.4byte	0x48d
 7707 0f7f 8F0F0000 		.4byte	0xf8f
 7708 0f83 09       		.uleb128 0x9
 7709 0f84 01       		.uleb128 0x1
ARM GAS  C:\Users\Revanth\AppData\Local\Temp\ccqs06ys.s 			page 178


 7710 0f85 50       		.byte	0x50
 7711 0f86 02       		.uleb128 0x2
 7712 0f87 08       		.byte	0x8
 7713 0f88 30       		.byte	0x30
 7714 0f89 09       		.uleb128 0x9
 7715 0f8a 01       		.uleb128 0x1
 7716 0f8b 51       		.byte	0x51
 7717 0f8c 01       		.uleb128 0x1
 7718 0f8d 30       		.byte	0x30
 7719 0f8e 00       		.byte	0
 7720 0f8f 08       		.uleb128 0x8
 7721 0f90 D6010000 		.4byte	.LVL196
 7722 0f94 8D040000 		.4byte	0x48d
 7723 0f98 A80F0000 		.4byte	0xfa8
 7724 0f9c 09       		.uleb128 0x9
 7725 0f9d 01       		.uleb128 0x1
 7726 0f9e 50       		.byte	0x50
 7727 0f9f 02       		.uleb128 0x2
 7728 0fa0 08       		.byte	0x8
 7729 0fa1 34       		.byte	0x34
 7730 0fa2 09       		.uleb128 0x9
 7731 0fa3 01       		.uleb128 0x1
 7732 0fa4 51       		.byte	0x51
 7733 0fa5 01       		.uleb128 0x1
 7734 0fa6 30       		.byte	0x30
 7735 0fa7 00       		.byte	0
 7736 0fa8 08       		.uleb128 0x8
 7737 0fa9 DE010000 		.4byte	.LVL197
 7738 0fad 8D040000 		.4byte	0x48d
 7739 0fb1 C10F0000 		.4byte	0xfc1
 7740 0fb5 09       		.uleb128 0x9
 7741 0fb6 01       		.uleb128 0x1
 7742 0fb7 50       		.byte	0x50
 7743 0fb8 02       		.uleb128 0x2
 7744 0fb9 08       		.byte	0x8
 7745 0fba 38       		.byte	0x38
 7746 0fbb 09       		.uleb128 0x9
 7747 0fbc 01       		.uleb128 0x1
 7748 0fbd 51       		.byte	0x51
 7749 0fbe 01       		.uleb128 0x1
 7750 0fbf 30       		.byte	0x30
 7751 0fc0 00       		.byte	0
 7752 0fc1 08       		.uleb128 0x8
 7753 0fc2 E6010000 		.4byte	.LVL198
 7754 0fc6 8D040000 		.4byte	0x48d
 7755 0fca DA0F0000 		.4byte	0xfda
 7756 0fce 09       		.uleb128 0x9
 7757 0fcf 01       		.uleb128 0x1
 7758 0fd0 50       		.byte	0x50
 7759 0fd1 02       		.uleb128 0x2
 7760 0fd2 08       		.byte	0x8
 7761 0fd3 3C       		.byte	0x3c
 7762 0fd4 09       		.uleb128 0x9
 7763 0fd5 01       		.uleb128 0x1
 7764 0fd6 51       		.byte	0x51
 7765 0fd7 01       		.uleb128 0x1
 7766 0fd8 30       		.byte	0x30
ARM GAS  C:\Users\Revanth\AppData\Local\Temp\ccqs06ys.s 			page 179


 7767 0fd9 00       		.byte	0
 7768 0fda 08       		.uleb128 0x8
 7769 0fdb EE010000 		.4byte	.LVL199
 7770 0fdf 8D040000 		.4byte	0x48d
 7771 0fe3 F30F0000 		.4byte	0xff3
 7772 0fe7 09       		.uleb128 0x9
 7773 0fe8 01       		.uleb128 0x1
 7774 0fe9 50       		.byte	0x50
 7775 0fea 02       		.uleb128 0x2
 7776 0feb 08       		.byte	0x8
 7777 0fec 40       		.byte	0x40
 7778 0fed 09       		.uleb128 0x9
 7779 0fee 01       		.uleb128 0x1
 7780 0fef 51       		.byte	0x51
 7781 0ff0 01       		.uleb128 0x1
 7782 0ff1 30       		.byte	0x30
 7783 0ff2 00       		.byte	0
 7784 0ff3 08       		.uleb128 0x8
 7785 0ff4 F6010000 		.4byte	.LVL200
 7786 0ff8 8D040000 		.4byte	0x48d
 7787 0ffc 0C100000 		.4byte	0x100c
 7788 1000 09       		.uleb128 0x9
 7789 1001 01       		.uleb128 0x1
 7790 1002 50       		.byte	0x50
 7791 1003 02       		.uleb128 0x2
 7792 1004 08       		.byte	0x8
 7793 1005 44       		.byte	0x44
 7794 1006 09       		.uleb128 0x9
 7795 1007 01       		.uleb128 0x1
 7796 1008 51       		.byte	0x51
 7797 1009 01       		.uleb128 0x1
 7798 100a 30       		.byte	0x30
 7799 100b 00       		.byte	0
 7800 100c 08       		.uleb128 0x8
 7801 100d FE010000 		.4byte	.LVL201
 7802 1011 8D040000 		.4byte	0x48d
 7803 1015 25100000 		.4byte	0x1025
 7804 1019 09       		.uleb128 0x9
 7805 101a 01       		.uleb128 0x1
 7806 101b 50       		.byte	0x50
 7807 101c 02       		.uleb128 0x2
 7808 101d 08       		.byte	0x8
 7809 101e 48       		.byte	0x48
 7810 101f 09       		.uleb128 0x9
 7811 1020 01       		.uleb128 0x1
 7812 1021 51       		.byte	0x51
 7813 1022 01       		.uleb128 0x1
 7814 1023 30       		.byte	0x30
 7815 1024 00       		.byte	0
 7816 1025 08       		.uleb128 0x8
 7817 1026 06020000 		.4byte	.LVL202
 7818 102a 8D040000 		.4byte	0x48d
 7819 102e 3E100000 		.4byte	0x103e
 7820 1032 09       		.uleb128 0x9
 7821 1033 01       		.uleb128 0x1
 7822 1034 50       		.byte	0x50
 7823 1035 02       		.uleb128 0x2
ARM GAS  C:\Users\Revanth\AppData\Local\Temp\ccqs06ys.s 			page 180


 7824 1036 08       		.byte	0x8
 7825 1037 4C       		.byte	0x4c
 7826 1038 09       		.uleb128 0x9
 7827 1039 01       		.uleb128 0x1
 7828 103a 51       		.byte	0x51
 7829 103b 01       		.uleb128 0x1
 7830 103c 30       		.byte	0x30
 7831 103d 00       		.byte	0
 7832 103e 08       		.uleb128 0x8
 7833 103f 0E020000 		.4byte	.LVL203
 7834 1043 8D040000 		.4byte	0x48d
 7835 1047 57100000 		.4byte	0x1057
 7836 104b 09       		.uleb128 0x9
 7837 104c 01       		.uleb128 0x1
 7838 104d 50       		.byte	0x50
 7839 104e 02       		.uleb128 0x2
 7840 104f 08       		.byte	0x8
 7841 1050 50       		.byte	0x50
 7842 1051 09       		.uleb128 0x9
 7843 1052 01       		.uleb128 0x1
 7844 1053 51       		.byte	0x51
 7845 1054 01       		.uleb128 0x1
 7846 1055 30       		.byte	0x30
 7847 1056 00       		.byte	0
 7848 1057 08       		.uleb128 0x8
 7849 1058 16020000 		.4byte	.LVL204
 7850 105c 8D040000 		.4byte	0x48d
 7851 1060 70100000 		.4byte	0x1070
 7852 1064 09       		.uleb128 0x9
 7853 1065 01       		.uleb128 0x1
 7854 1066 50       		.byte	0x50
 7855 1067 02       		.uleb128 0x2
 7856 1068 08       		.byte	0x8
 7857 1069 54       		.byte	0x54
 7858 106a 09       		.uleb128 0x9
 7859 106b 01       		.uleb128 0x1
 7860 106c 51       		.byte	0x51
 7861 106d 01       		.uleb128 0x1
 7862 106e 30       		.byte	0x30
 7863 106f 00       		.byte	0
 7864 1070 08       		.uleb128 0x8
 7865 1071 1E020000 		.4byte	.LVL205
 7866 1075 8D040000 		.4byte	0x48d
 7867 1079 89100000 		.4byte	0x1089
 7868 107d 09       		.uleb128 0x9
 7869 107e 01       		.uleb128 0x1
 7870 107f 50       		.byte	0x50
 7871 1080 02       		.uleb128 0x2
 7872 1081 08       		.byte	0x8
 7873 1082 58       		.byte	0x58
 7874 1083 09       		.uleb128 0x9
 7875 1084 01       		.uleb128 0x1
 7876 1085 51       		.byte	0x51
 7877 1086 01       		.uleb128 0x1
 7878 1087 30       		.byte	0x30
 7879 1088 00       		.byte	0
 7880 1089 08       		.uleb128 0x8
ARM GAS  C:\Users\Revanth\AppData\Local\Temp\ccqs06ys.s 			page 181


 7881 108a 26020000 		.4byte	.LVL206
 7882 108e 8D040000 		.4byte	0x48d
 7883 1092 A2100000 		.4byte	0x10a2
 7884 1096 09       		.uleb128 0x9
 7885 1097 01       		.uleb128 0x1
 7886 1098 50       		.byte	0x50
 7887 1099 02       		.uleb128 0x2
 7888 109a 08       		.byte	0x8
 7889 109b 5C       		.byte	0x5c
 7890 109c 09       		.uleb128 0x9
 7891 109d 01       		.uleb128 0x1
 7892 109e 51       		.byte	0x51
 7893 109f 01       		.uleb128 0x1
 7894 10a0 30       		.byte	0x30
 7895 10a1 00       		.byte	0
 7896 10a2 08       		.uleb128 0x8
 7897 10a3 2E020000 		.4byte	.LVL207
 7898 10a7 8D040000 		.4byte	0x48d
 7899 10ab BB100000 		.4byte	0x10bb
 7900 10af 09       		.uleb128 0x9
 7901 10b0 01       		.uleb128 0x1
 7902 10b1 50       		.byte	0x50
 7903 10b2 02       		.uleb128 0x2
 7904 10b3 08       		.byte	0x8
 7905 10b4 60       		.byte	0x60
 7906 10b5 09       		.uleb128 0x9
 7907 10b6 01       		.uleb128 0x1
 7908 10b7 51       		.byte	0x51
 7909 10b8 01       		.uleb128 0x1
 7910 10b9 30       		.byte	0x30
 7911 10ba 00       		.byte	0
 7912 10bb 08       		.uleb128 0x8
 7913 10bc 36020000 		.4byte	.LVL208
 7914 10c0 8D040000 		.4byte	0x48d
 7915 10c4 D4100000 		.4byte	0x10d4
 7916 10c8 09       		.uleb128 0x9
 7917 10c9 01       		.uleb128 0x1
 7918 10ca 50       		.byte	0x50
 7919 10cb 02       		.uleb128 0x2
 7920 10cc 08       		.byte	0x8
 7921 10cd 64       		.byte	0x64
 7922 10ce 09       		.uleb128 0x9
 7923 10cf 01       		.uleb128 0x1
 7924 10d0 51       		.byte	0x51
 7925 10d1 01       		.uleb128 0x1
 7926 10d2 30       		.byte	0x30
 7927 10d3 00       		.byte	0
 7928 10d4 08       		.uleb128 0x8
 7929 10d5 3E020000 		.4byte	.LVL209
 7930 10d9 8D040000 		.4byte	0x48d
 7931 10dd ED100000 		.4byte	0x10ed
 7932 10e1 09       		.uleb128 0x9
 7933 10e2 01       		.uleb128 0x1
 7934 10e3 50       		.byte	0x50
 7935 10e4 02       		.uleb128 0x2
 7936 10e5 08       		.byte	0x8
 7937 10e6 68       		.byte	0x68
ARM GAS  C:\Users\Revanth\AppData\Local\Temp\ccqs06ys.s 			page 182


 7938 10e7 09       		.uleb128 0x9
 7939 10e8 01       		.uleb128 0x1
 7940 10e9 51       		.byte	0x51
 7941 10ea 01       		.uleb128 0x1
 7942 10eb 30       		.byte	0x30
 7943 10ec 00       		.byte	0
 7944 10ed 08       		.uleb128 0x8
 7945 10ee 46020000 		.4byte	.LVL210
 7946 10f2 8D040000 		.4byte	0x48d
 7947 10f6 06110000 		.4byte	0x1106
 7948 10fa 09       		.uleb128 0x9
 7949 10fb 01       		.uleb128 0x1
 7950 10fc 50       		.byte	0x50
 7951 10fd 02       		.uleb128 0x2
 7952 10fe 08       		.byte	0x8
 7953 10ff 6C       		.byte	0x6c
 7954 1100 09       		.uleb128 0x9
 7955 1101 01       		.uleb128 0x1
 7956 1102 51       		.byte	0x51
 7957 1103 01       		.uleb128 0x1
 7958 1104 30       		.byte	0x30
 7959 1105 00       		.byte	0
 7960 1106 08       		.uleb128 0x8
 7961 1107 4E020000 		.4byte	.LVL211
 7962 110b 8D040000 		.4byte	0x48d
 7963 110f 1F110000 		.4byte	0x111f
 7964 1113 09       		.uleb128 0x9
 7965 1114 01       		.uleb128 0x1
 7966 1115 50       		.byte	0x50
 7967 1116 02       		.uleb128 0x2
 7968 1117 08       		.byte	0x8
 7969 1118 70       		.byte	0x70
 7970 1119 09       		.uleb128 0x9
 7971 111a 01       		.uleb128 0x1
 7972 111b 51       		.byte	0x51
 7973 111c 01       		.uleb128 0x1
 7974 111d 30       		.byte	0x30
 7975 111e 00       		.byte	0
 7976 111f 08       		.uleb128 0x8
 7977 1120 56020000 		.4byte	.LVL212
 7978 1124 8D040000 		.4byte	0x48d
 7979 1128 38110000 		.4byte	0x1138
 7980 112c 09       		.uleb128 0x9
 7981 112d 01       		.uleb128 0x1
 7982 112e 50       		.byte	0x50
 7983 112f 02       		.uleb128 0x2
 7984 1130 08       		.byte	0x8
 7985 1131 74       		.byte	0x74
 7986 1132 09       		.uleb128 0x9
 7987 1133 01       		.uleb128 0x1
 7988 1134 51       		.byte	0x51
 7989 1135 01       		.uleb128 0x1
 7990 1136 30       		.byte	0x30
 7991 1137 00       		.byte	0
 7992 1138 08       		.uleb128 0x8
 7993 1139 5E020000 		.4byte	.LVL213
 7994 113d 8D040000 		.4byte	0x48d
ARM GAS  C:\Users\Revanth\AppData\Local\Temp\ccqs06ys.s 			page 183


 7995 1141 51110000 		.4byte	0x1151
 7996 1145 09       		.uleb128 0x9
 7997 1146 01       		.uleb128 0x1
 7998 1147 50       		.byte	0x50
 7999 1148 02       		.uleb128 0x2
 8000 1149 08       		.byte	0x8
 8001 114a 78       		.byte	0x78
 8002 114b 09       		.uleb128 0x9
 8003 114c 01       		.uleb128 0x1
 8004 114d 51       		.byte	0x51
 8005 114e 01       		.uleb128 0x1
 8006 114f 30       		.byte	0x30
 8007 1150 00       		.byte	0
 8008 1151 08       		.uleb128 0x8
 8009 1152 66020000 		.4byte	.LVL214
 8010 1156 8D040000 		.4byte	0x48d
 8011 115a 6A110000 		.4byte	0x116a
 8012 115e 09       		.uleb128 0x9
 8013 115f 01       		.uleb128 0x1
 8014 1160 50       		.byte	0x50
 8015 1161 02       		.uleb128 0x2
 8016 1162 08       		.byte	0x8
 8017 1163 7C       		.byte	0x7c
 8018 1164 09       		.uleb128 0x9
 8019 1165 01       		.uleb128 0x1
 8020 1166 51       		.byte	0x51
 8021 1167 01       		.uleb128 0x1
 8022 1168 30       		.byte	0x30
 8023 1169 00       		.byte	0
 8024 116a 08       		.uleb128 0x8
 8025 116b 6E020000 		.4byte	.LVL215
 8026 116f 8D040000 		.4byte	0x48d
 8027 1173 83110000 		.4byte	0x1183
 8028 1177 09       		.uleb128 0x9
 8029 1178 01       		.uleb128 0x1
 8030 1179 50       		.byte	0x50
 8031 117a 02       		.uleb128 0x2
 8032 117b 08       		.byte	0x8
 8033 117c 21       		.byte	0x21
 8034 117d 09       		.uleb128 0x9
 8035 117e 01       		.uleb128 0x1
 8036 117f 51       		.byte	0x51
 8037 1180 01       		.uleb128 0x1
 8038 1181 30       		.byte	0x30
 8039 1182 00       		.byte	0
 8040 1183 08       		.uleb128 0x8
 8041 1184 76020000 		.4byte	.LVL216
 8042 1188 8D040000 		.4byte	0x48d
 8043 118c 9C110000 		.4byte	0x119c
 8044 1190 09       		.uleb128 0x9
 8045 1191 01       		.uleb128 0x1
 8046 1192 50       		.byte	0x50
 8047 1193 02       		.uleb128 0x2
 8048 1194 08       		.byte	0x8
 8049 1195 25       		.byte	0x25
 8050 1196 09       		.uleb128 0x9
 8051 1197 01       		.uleb128 0x1
ARM GAS  C:\Users\Revanth\AppData\Local\Temp\ccqs06ys.s 			page 184


 8052 1198 51       		.byte	0x51
 8053 1199 01       		.uleb128 0x1
 8054 119a 30       		.byte	0x30
 8055 119b 00       		.byte	0
 8056 119c 08       		.uleb128 0x8
 8057 119d 7E020000 		.4byte	.LVL217
 8058 11a1 8D040000 		.4byte	0x48d
 8059 11a5 B5110000 		.4byte	0x11b5
 8060 11a9 09       		.uleb128 0x9
 8061 11aa 01       		.uleb128 0x1
 8062 11ab 50       		.byte	0x50
 8063 11ac 02       		.uleb128 0x2
 8064 11ad 08       		.byte	0x8
 8065 11ae 29       		.byte	0x29
 8066 11af 09       		.uleb128 0x9
 8067 11b0 01       		.uleb128 0x1
 8068 11b1 51       		.byte	0x51
 8069 11b2 01       		.uleb128 0x1
 8070 11b3 30       		.byte	0x30
 8071 11b4 00       		.byte	0
 8072 11b5 08       		.uleb128 0x8
 8073 11b6 86020000 		.4byte	.LVL218
 8074 11ba 8D040000 		.4byte	0x48d
 8075 11be CE110000 		.4byte	0x11ce
 8076 11c2 09       		.uleb128 0x9
 8077 11c3 01       		.uleb128 0x1
 8078 11c4 50       		.byte	0x50
 8079 11c5 02       		.uleb128 0x2
 8080 11c6 08       		.byte	0x8
 8081 11c7 2D       		.byte	0x2d
 8082 11c8 09       		.uleb128 0x9
 8083 11c9 01       		.uleb128 0x1
 8084 11ca 51       		.byte	0x51
 8085 11cb 01       		.uleb128 0x1
 8086 11cc 30       		.byte	0x30
 8087 11cd 00       		.byte	0
 8088 11ce 08       		.uleb128 0x8
 8089 11cf 8E020000 		.4byte	.LVL219
 8090 11d3 8D040000 		.4byte	0x48d
 8091 11d7 E7110000 		.4byte	0x11e7
 8092 11db 09       		.uleb128 0x9
 8093 11dc 01       		.uleb128 0x1
 8094 11dd 50       		.byte	0x50
 8095 11de 02       		.uleb128 0x2
 8096 11df 08       		.byte	0x8
 8097 11e0 31       		.byte	0x31
 8098 11e1 09       		.uleb128 0x9
 8099 11e2 01       		.uleb128 0x1
 8100 11e3 51       		.byte	0x51
 8101 11e4 01       		.uleb128 0x1
 8102 11e5 30       		.byte	0x30
 8103 11e6 00       		.byte	0
 8104 11e7 08       		.uleb128 0x8
 8105 11e8 96020000 		.4byte	.LVL220
 8106 11ec 8D040000 		.4byte	0x48d
 8107 11f0 00120000 		.4byte	0x1200
 8108 11f4 09       		.uleb128 0x9
ARM GAS  C:\Users\Revanth\AppData\Local\Temp\ccqs06ys.s 			page 185


 8109 11f5 01       		.uleb128 0x1
 8110 11f6 50       		.byte	0x50
 8111 11f7 02       		.uleb128 0x2
 8112 11f8 08       		.byte	0x8
 8113 11f9 35       		.byte	0x35
 8114 11fa 09       		.uleb128 0x9
 8115 11fb 01       		.uleb128 0x1
 8116 11fc 51       		.byte	0x51
 8117 11fd 01       		.uleb128 0x1
 8118 11fe 30       		.byte	0x30
 8119 11ff 00       		.byte	0
 8120 1200 08       		.uleb128 0x8
 8121 1201 9E020000 		.4byte	.LVL221
 8122 1205 8D040000 		.4byte	0x48d
 8123 1209 19120000 		.4byte	0x1219
 8124 120d 09       		.uleb128 0x9
 8125 120e 01       		.uleb128 0x1
 8126 120f 50       		.byte	0x50
 8127 1210 02       		.uleb128 0x2
 8128 1211 08       		.byte	0x8
 8129 1212 39       		.byte	0x39
 8130 1213 09       		.uleb128 0x9
 8131 1214 01       		.uleb128 0x1
 8132 1215 51       		.byte	0x51
 8133 1216 01       		.uleb128 0x1
 8134 1217 30       		.byte	0x30
 8135 1218 00       		.byte	0
 8136 1219 08       		.uleb128 0x8
 8137 121a A6020000 		.4byte	.LVL222
 8138 121e 8D040000 		.4byte	0x48d
 8139 1222 32120000 		.4byte	0x1232
 8140 1226 09       		.uleb128 0x9
 8141 1227 01       		.uleb128 0x1
 8142 1228 50       		.byte	0x50
 8143 1229 02       		.uleb128 0x2
 8144 122a 08       		.byte	0x8
 8145 122b 3D       		.byte	0x3d
 8146 122c 09       		.uleb128 0x9
 8147 122d 01       		.uleb128 0x1
 8148 122e 51       		.byte	0x51
 8149 122f 01       		.uleb128 0x1
 8150 1230 30       		.byte	0x30
 8151 1231 00       		.byte	0
 8152 1232 08       		.uleb128 0x8
 8153 1233 AE020000 		.4byte	.LVL223
 8154 1237 8D040000 		.4byte	0x48d
 8155 123b 4B120000 		.4byte	0x124b
 8156 123f 09       		.uleb128 0x9
 8157 1240 01       		.uleb128 0x1
 8158 1241 50       		.byte	0x50
 8159 1242 02       		.uleb128 0x2
 8160 1243 08       		.byte	0x8
 8161 1244 41       		.byte	0x41
 8162 1245 09       		.uleb128 0x9
 8163 1246 01       		.uleb128 0x1
 8164 1247 51       		.byte	0x51
 8165 1248 01       		.uleb128 0x1
ARM GAS  C:\Users\Revanth\AppData\Local\Temp\ccqs06ys.s 			page 186


 8166 1249 30       		.byte	0x30
 8167 124a 00       		.byte	0
 8168 124b 08       		.uleb128 0x8
 8169 124c B6020000 		.4byte	.LVL224
 8170 1250 8D040000 		.4byte	0x48d
 8171 1254 64120000 		.4byte	0x1264
 8172 1258 09       		.uleb128 0x9
 8173 1259 01       		.uleb128 0x1
 8174 125a 50       		.byte	0x50
 8175 125b 02       		.uleb128 0x2
 8176 125c 08       		.byte	0x8
 8177 125d 45       		.byte	0x45
 8178 125e 09       		.uleb128 0x9
 8179 125f 01       		.uleb128 0x1
 8180 1260 51       		.byte	0x51
 8181 1261 01       		.uleb128 0x1
 8182 1262 30       		.byte	0x30
 8183 1263 00       		.byte	0
 8184 1264 08       		.uleb128 0x8
 8185 1265 BE020000 		.4byte	.LVL225
 8186 1269 8D040000 		.4byte	0x48d
 8187 126d 7D120000 		.4byte	0x127d
 8188 1271 09       		.uleb128 0x9
 8189 1272 01       		.uleb128 0x1
 8190 1273 50       		.byte	0x50
 8191 1274 02       		.uleb128 0x2
 8192 1275 08       		.byte	0x8
 8193 1276 49       		.byte	0x49
 8194 1277 09       		.uleb128 0x9
 8195 1278 01       		.uleb128 0x1
 8196 1279 51       		.byte	0x51
 8197 127a 01       		.uleb128 0x1
 8198 127b 30       		.byte	0x30
 8199 127c 00       		.byte	0
 8200 127d 08       		.uleb128 0x8
 8201 127e C6020000 		.4byte	.LVL226
 8202 1282 8D040000 		.4byte	0x48d
 8203 1286 96120000 		.4byte	0x1296
 8204 128a 09       		.uleb128 0x9
 8205 128b 01       		.uleb128 0x1
 8206 128c 50       		.byte	0x50
 8207 128d 02       		.uleb128 0x2
 8208 128e 08       		.byte	0x8
 8209 128f 4D       		.byte	0x4d
 8210 1290 09       		.uleb128 0x9
 8211 1291 01       		.uleb128 0x1
 8212 1292 51       		.byte	0x51
 8213 1293 01       		.uleb128 0x1
 8214 1294 30       		.byte	0x30
 8215 1295 00       		.byte	0
 8216 1296 08       		.uleb128 0x8
 8217 1297 CE020000 		.4byte	.LVL227
 8218 129b 8D040000 		.4byte	0x48d
 8219 129f AF120000 		.4byte	0x12af
 8220 12a3 09       		.uleb128 0x9
 8221 12a4 01       		.uleb128 0x1
 8222 12a5 50       		.byte	0x50
ARM GAS  C:\Users\Revanth\AppData\Local\Temp\ccqs06ys.s 			page 187


 8223 12a6 02       		.uleb128 0x2
 8224 12a7 08       		.byte	0x8
 8225 12a8 51       		.byte	0x51
 8226 12a9 09       		.uleb128 0x9
 8227 12aa 01       		.uleb128 0x1
 8228 12ab 51       		.byte	0x51
 8229 12ac 01       		.uleb128 0x1
 8230 12ad 30       		.byte	0x30
 8231 12ae 00       		.byte	0
 8232 12af 08       		.uleb128 0x8
 8233 12b0 D6020000 		.4byte	.LVL228
 8234 12b4 8D040000 		.4byte	0x48d
 8235 12b8 C8120000 		.4byte	0x12c8
 8236 12bc 09       		.uleb128 0x9
 8237 12bd 01       		.uleb128 0x1
 8238 12be 50       		.byte	0x50
 8239 12bf 02       		.uleb128 0x2
 8240 12c0 08       		.byte	0x8
 8241 12c1 55       		.byte	0x55
 8242 12c2 09       		.uleb128 0x9
 8243 12c3 01       		.uleb128 0x1
 8244 12c4 51       		.byte	0x51
 8245 12c5 01       		.uleb128 0x1
 8246 12c6 30       		.byte	0x30
 8247 12c7 00       		.byte	0
 8248 12c8 08       		.uleb128 0x8
 8249 12c9 DE020000 		.4byte	.LVL229
 8250 12cd 8D040000 		.4byte	0x48d
 8251 12d1 E1120000 		.4byte	0x12e1
 8252 12d5 09       		.uleb128 0x9
 8253 12d6 01       		.uleb128 0x1
 8254 12d7 50       		.byte	0x50
 8255 12d8 02       		.uleb128 0x2
 8256 12d9 08       		.byte	0x8
 8257 12da 59       		.byte	0x59
 8258 12db 09       		.uleb128 0x9
 8259 12dc 01       		.uleb128 0x1
 8260 12dd 51       		.byte	0x51
 8261 12de 01       		.uleb128 0x1
 8262 12df 30       		.byte	0x30
 8263 12e0 00       		.byte	0
 8264 12e1 08       		.uleb128 0x8
 8265 12e2 E6020000 		.4byte	.LVL230
 8266 12e6 8D040000 		.4byte	0x48d
 8267 12ea FA120000 		.4byte	0x12fa
 8268 12ee 09       		.uleb128 0x9
 8269 12ef 01       		.uleb128 0x1
 8270 12f0 50       		.byte	0x50
 8271 12f1 02       		.uleb128 0x2
 8272 12f2 08       		.byte	0x8
 8273 12f3 5D       		.byte	0x5d
 8274 12f4 09       		.uleb128 0x9
 8275 12f5 01       		.uleb128 0x1
 8276 12f6 51       		.byte	0x51
 8277 12f7 01       		.uleb128 0x1
 8278 12f8 30       		.byte	0x30
 8279 12f9 00       		.byte	0
ARM GAS  C:\Users\Revanth\AppData\Local\Temp\ccqs06ys.s 			page 188


 8280 12fa 08       		.uleb128 0x8
 8281 12fb EE020000 		.4byte	.LVL231
 8282 12ff 8D040000 		.4byte	0x48d
 8283 1303 13130000 		.4byte	0x1313
 8284 1307 09       		.uleb128 0x9
 8285 1308 01       		.uleb128 0x1
 8286 1309 50       		.byte	0x50
 8287 130a 02       		.uleb128 0x2
 8288 130b 08       		.byte	0x8
 8289 130c 61       		.byte	0x61
 8290 130d 09       		.uleb128 0x9
 8291 130e 01       		.uleb128 0x1
 8292 130f 51       		.byte	0x51
 8293 1310 01       		.uleb128 0x1
 8294 1311 30       		.byte	0x30
 8295 1312 00       		.byte	0
 8296 1313 08       		.uleb128 0x8
 8297 1314 F6020000 		.4byte	.LVL232
 8298 1318 8D040000 		.4byte	0x48d
 8299 131c 2C130000 		.4byte	0x132c
 8300 1320 09       		.uleb128 0x9
 8301 1321 01       		.uleb128 0x1
 8302 1322 50       		.byte	0x50
 8303 1323 02       		.uleb128 0x2
 8304 1324 08       		.byte	0x8
 8305 1325 65       		.byte	0x65
 8306 1326 09       		.uleb128 0x9
 8307 1327 01       		.uleb128 0x1
 8308 1328 51       		.byte	0x51
 8309 1329 01       		.uleb128 0x1
 8310 132a 30       		.byte	0x30
 8311 132b 00       		.byte	0
 8312 132c 08       		.uleb128 0x8
 8313 132d FE020000 		.4byte	.LVL233
 8314 1331 8D040000 		.4byte	0x48d
 8315 1335 45130000 		.4byte	0x1345
 8316 1339 09       		.uleb128 0x9
 8317 133a 01       		.uleb128 0x1
 8318 133b 50       		.byte	0x50
 8319 133c 02       		.uleb128 0x2
 8320 133d 08       		.byte	0x8
 8321 133e 69       		.byte	0x69
 8322 133f 09       		.uleb128 0x9
 8323 1340 01       		.uleb128 0x1
 8324 1341 51       		.byte	0x51
 8325 1342 01       		.uleb128 0x1
 8326 1343 30       		.byte	0x30
 8327 1344 00       		.byte	0
 8328 1345 08       		.uleb128 0x8
 8329 1346 06030000 		.4byte	.LVL234
 8330 134a 8D040000 		.4byte	0x48d
 8331 134e 5E130000 		.4byte	0x135e
 8332 1352 09       		.uleb128 0x9
 8333 1353 01       		.uleb128 0x1
 8334 1354 50       		.byte	0x50
 8335 1355 02       		.uleb128 0x2
 8336 1356 08       		.byte	0x8
ARM GAS  C:\Users\Revanth\AppData\Local\Temp\ccqs06ys.s 			page 189


 8337 1357 6D       		.byte	0x6d
 8338 1358 09       		.uleb128 0x9
 8339 1359 01       		.uleb128 0x1
 8340 135a 51       		.byte	0x51
 8341 135b 01       		.uleb128 0x1
 8342 135c 30       		.byte	0x30
 8343 135d 00       		.byte	0
 8344 135e 08       		.uleb128 0x8
 8345 135f 0E030000 		.4byte	.LVL235
 8346 1363 8D040000 		.4byte	0x48d
 8347 1367 77130000 		.4byte	0x1377
 8348 136b 09       		.uleb128 0x9
 8349 136c 01       		.uleb128 0x1
 8350 136d 50       		.byte	0x50
 8351 136e 02       		.uleb128 0x2
 8352 136f 08       		.byte	0x8
 8353 1370 71       		.byte	0x71
 8354 1371 09       		.uleb128 0x9
 8355 1372 01       		.uleb128 0x1
 8356 1373 51       		.byte	0x51
 8357 1374 01       		.uleb128 0x1
 8358 1375 30       		.byte	0x30
 8359 1376 00       		.byte	0
 8360 1377 08       		.uleb128 0x8
 8361 1378 16030000 		.4byte	.LVL236
 8362 137c 8D040000 		.4byte	0x48d
 8363 1380 90130000 		.4byte	0x1390
 8364 1384 09       		.uleb128 0x9
 8365 1385 01       		.uleb128 0x1
 8366 1386 50       		.byte	0x50
 8367 1387 02       		.uleb128 0x2
 8368 1388 08       		.byte	0x8
 8369 1389 75       		.byte	0x75
 8370 138a 09       		.uleb128 0x9
 8371 138b 01       		.uleb128 0x1
 8372 138c 51       		.byte	0x51
 8373 138d 01       		.uleb128 0x1
 8374 138e 30       		.byte	0x30
 8375 138f 00       		.byte	0
 8376 1390 08       		.uleb128 0x8
 8377 1391 1E030000 		.4byte	.LVL237
 8378 1395 8D040000 		.4byte	0x48d
 8379 1399 A9130000 		.4byte	0x13a9
 8380 139d 09       		.uleb128 0x9
 8381 139e 01       		.uleb128 0x1
 8382 139f 50       		.byte	0x50
 8383 13a0 02       		.uleb128 0x2
 8384 13a1 08       		.byte	0x8
 8385 13a2 79       		.byte	0x79
 8386 13a3 09       		.uleb128 0x9
 8387 13a4 01       		.uleb128 0x1
 8388 13a5 51       		.byte	0x51
 8389 13a6 01       		.uleb128 0x1
 8390 13a7 30       		.byte	0x30
 8391 13a8 00       		.byte	0
 8392 13a9 08       		.uleb128 0x8
 8393 13aa 26030000 		.4byte	.LVL238
ARM GAS  C:\Users\Revanth\AppData\Local\Temp\ccqs06ys.s 			page 190


 8394 13ae 8D040000 		.4byte	0x48d
 8395 13b2 C2130000 		.4byte	0x13c2
 8396 13b6 09       		.uleb128 0x9
 8397 13b7 01       		.uleb128 0x1
 8398 13b8 50       		.byte	0x50
 8399 13b9 02       		.uleb128 0x2
 8400 13ba 08       		.byte	0x8
 8401 13bb 7D       		.byte	0x7d
 8402 13bc 09       		.uleb128 0x9
 8403 13bd 01       		.uleb128 0x1
 8404 13be 51       		.byte	0x51
 8405 13bf 01       		.uleb128 0x1
 8406 13c0 30       		.byte	0x30
 8407 13c1 00       		.byte	0
 8408 13c2 08       		.uleb128 0x8
 8409 13c3 2C030000 		.4byte	.LVL239
 8410 13c7 C25F0000 		.4byte	0x5fc2
 8411 13cb D5130000 		.4byte	0x13d5
 8412 13cf 09       		.uleb128 0x9
 8413 13d0 01       		.uleb128 0x1
 8414 13d1 50       		.byte	0x50
 8415 13d2 01       		.uleb128 0x1
 8416 13d3 31       		.byte	0x31
 8417 13d4 00       		.byte	0
 8418 13d5 08       		.uleb128 0x8
 8419 13d6 32030000 		.4byte	.LVL240
 8420 13da CD5F0000 		.4byte	0x5fcd
 8421 13de E8130000 		.4byte	0x13e8
 8422 13e2 09       		.uleb128 0x9
 8423 13e3 01       		.uleb128 0x1
 8424 13e4 50       		.byte	0x50
 8425 13e5 01       		.uleb128 0x1
 8426 13e6 31       		.byte	0x31
 8427 13e7 00       		.byte	0
 8428 13e8 08       		.uleb128 0x8
 8429 13e9 38030000 		.4byte	.LVL241
 8430 13ed E7060000 		.4byte	0x6e7
 8431 13f1 FB130000 		.4byte	0x13fb
 8432 13f5 09       		.uleb128 0x9
 8433 13f6 01       		.uleb128 0x1
 8434 13f7 50       		.byte	0x50
 8435 13f8 01       		.uleb128 0x1
 8436 13f9 31       		.byte	0x31
 8437 13fa 00       		.byte	0
 8438 13fb 08       		.uleb128 0x8
 8439 13fc 40030000 		.4byte	.LVL242
 8440 1400 AA060000 		.4byte	0x6aa
 8441 1404 14140000 		.4byte	0x1414
 8442 1408 09       		.uleb128 0x9
 8443 1409 01       		.uleb128 0x1
 8444 140a 50       		.byte	0x50
 8445 140b 02       		.uleb128 0x2
 8446 140c 08       		.byte	0x8
 8447 140d 20       		.byte	0x20
 8448 140e 09       		.uleb128 0x9
 8449 140f 01       		.uleb128 0x1
 8450 1410 51       		.byte	0x51
ARM GAS  C:\Users\Revanth\AppData\Local\Temp\ccqs06ys.s 			page 191


 8451 1411 01       		.uleb128 0x1
 8452 1412 30       		.byte	0x30
 8453 1413 00       		.byte	0
 8454 1414 08       		.uleb128 0x8
 8455 1415 48030000 		.4byte	.LVL243
 8456 1419 AA060000 		.4byte	0x6aa
 8457 141d 2D140000 		.4byte	0x142d
 8458 1421 09       		.uleb128 0x9
 8459 1422 01       		.uleb128 0x1
 8460 1423 50       		.byte	0x50
 8461 1424 02       		.uleb128 0x2
 8462 1425 08       		.byte	0x8
 8463 1426 24       		.byte	0x24
 8464 1427 09       		.uleb128 0x9
 8465 1428 01       		.uleb128 0x1
 8466 1429 51       		.byte	0x51
 8467 142a 01       		.uleb128 0x1
 8468 142b 30       		.byte	0x30
 8469 142c 00       		.byte	0
 8470 142d 08       		.uleb128 0x8
 8471 142e 50030000 		.4byte	.LVL244
 8472 1432 AA060000 		.4byte	0x6aa
 8473 1436 46140000 		.4byte	0x1446
 8474 143a 09       		.uleb128 0x9
 8475 143b 01       		.uleb128 0x1
 8476 143c 50       		.byte	0x50
 8477 143d 02       		.uleb128 0x2
 8478 143e 08       		.byte	0x8
 8479 143f 28       		.byte	0x28
 8480 1440 09       		.uleb128 0x9
 8481 1441 01       		.uleb128 0x1
 8482 1442 51       		.byte	0x51
 8483 1443 01       		.uleb128 0x1
 8484 1444 30       		.byte	0x30
 8485 1445 00       		.byte	0
 8486 1446 08       		.uleb128 0x8
 8487 1447 58030000 		.4byte	.LVL245
 8488 144b AA060000 		.4byte	0x6aa
 8489 144f 5F140000 		.4byte	0x145f
 8490 1453 09       		.uleb128 0x9
 8491 1454 01       		.uleb128 0x1
 8492 1455 50       		.byte	0x50
 8493 1456 02       		.uleb128 0x2
 8494 1457 08       		.byte	0x8
 8495 1458 2C       		.byte	0x2c
 8496 1459 09       		.uleb128 0x9
 8497 145a 01       		.uleb128 0x1
 8498 145b 51       		.byte	0x51
 8499 145c 01       		.uleb128 0x1
 8500 145d 30       		.byte	0x30
 8501 145e 00       		.byte	0
 8502 145f 08       		.uleb128 0x8
 8503 1460 60030000 		.4byte	.LVL246
 8504 1464 AA060000 		.4byte	0x6aa
 8505 1468 78140000 		.4byte	0x1478
 8506 146c 09       		.uleb128 0x9
 8507 146d 01       		.uleb128 0x1
ARM GAS  C:\Users\Revanth\AppData\Local\Temp\ccqs06ys.s 			page 192


 8508 146e 50       		.byte	0x50
 8509 146f 02       		.uleb128 0x2
 8510 1470 08       		.byte	0x8
 8511 1471 30       		.byte	0x30
 8512 1472 09       		.uleb128 0x9
 8513 1473 01       		.uleb128 0x1
 8514 1474 51       		.byte	0x51
 8515 1475 01       		.uleb128 0x1
 8516 1476 30       		.byte	0x30
 8517 1477 00       		.byte	0
 8518 1478 08       		.uleb128 0x8
 8519 1479 68030000 		.4byte	.LVL247
 8520 147d AA060000 		.4byte	0x6aa
 8521 1481 91140000 		.4byte	0x1491
 8522 1485 09       		.uleb128 0x9
 8523 1486 01       		.uleb128 0x1
 8524 1487 50       		.byte	0x50
 8525 1488 02       		.uleb128 0x2
 8526 1489 08       		.byte	0x8
 8527 148a 34       		.byte	0x34
 8528 148b 09       		.uleb128 0x9
 8529 148c 01       		.uleb128 0x1
 8530 148d 51       		.byte	0x51
 8531 148e 01       		.uleb128 0x1
 8532 148f 30       		.byte	0x30
 8533 1490 00       		.byte	0
 8534 1491 08       		.uleb128 0x8
 8535 1492 70030000 		.4byte	.LVL248
 8536 1496 AA060000 		.4byte	0x6aa
 8537 149a AA140000 		.4byte	0x14aa
 8538 149e 09       		.uleb128 0x9
 8539 149f 01       		.uleb128 0x1
 8540 14a0 50       		.byte	0x50
 8541 14a1 02       		.uleb128 0x2
 8542 14a2 08       		.byte	0x8
 8543 14a3 38       		.byte	0x38
 8544 14a4 09       		.uleb128 0x9
 8545 14a5 01       		.uleb128 0x1
 8546 14a6 51       		.byte	0x51
 8547 14a7 01       		.uleb128 0x1
 8548 14a8 30       		.byte	0x30
 8549 14a9 00       		.byte	0
 8550 14aa 08       		.uleb128 0x8
 8551 14ab 78030000 		.4byte	.LVL249
 8552 14af AA060000 		.4byte	0x6aa
 8553 14b3 C3140000 		.4byte	0x14c3
 8554 14b7 09       		.uleb128 0x9
 8555 14b8 01       		.uleb128 0x1
 8556 14b9 50       		.byte	0x50
 8557 14ba 02       		.uleb128 0x2
 8558 14bb 08       		.byte	0x8
 8559 14bc 3C       		.byte	0x3c
 8560 14bd 09       		.uleb128 0x9
 8561 14be 01       		.uleb128 0x1
 8562 14bf 51       		.byte	0x51
 8563 14c0 01       		.uleb128 0x1
 8564 14c1 30       		.byte	0x30
ARM GAS  C:\Users\Revanth\AppData\Local\Temp\ccqs06ys.s 			page 193


 8565 14c2 00       		.byte	0
 8566 14c3 08       		.uleb128 0x8
 8567 14c4 80030000 		.4byte	.LVL250
 8568 14c8 AA060000 		.4byte	0x6aa
 8569 14cc DC140000 		.4byte	0x14dc
 8570 14d0 09       		.uleb128 0x9
 8571 14d1 01       		.uleb128 0x1
 8572 14d2 50       		.byte	0x50
 8573 14d3 02       		.uleb128 0x2
 8574 14d4 08       		.byte	0x8
 8575 14d5 40       		.byte	0x40
 8576 14d6 09       		.uleb128 0x9
 8577 14d7 01       		.uleb128 0x1
 8578 14d8 51       		.byte	0x51
 8579 14d9 01       		.uleb128 0x1
 8580 14da 30       		.byte	0x30
 8581 14db 00       		.byte	0
 8582 14dc 08       		.uleb128 0x8
 8583 14dd 88030000 		.4byte	.LVL251
 8584 14e1 AA060000 		.4byte	0x6aa
 8585 14e5 F5140000 		.4byte	0x14f5
 8586 14e9 09       		.uleb128 0x9
 8587 14ea 01       		.uleb128 0x1
 8588 14eb 50       		.byte	0x50
 8589 14ec 02       		.uleb128 0x2
 8590 14ed 08       		.byte	0x8
 8591 14ee 44       		.byte	0x44
 8592 14ef 09       		.uleb128 0x9
 8593 14f0 01       		.uleb128 0x1
 8594 14f1 51       		.byte	0x51
 8595 14f2 01       		.uleb128 0x1
 8596 14f3 30       		.byte	0x30
 8597 14f4 00       		.byte	0
 8598 14f5 08       		.uleb128 0x8
 8599 14f6 90030000 		.4byte	.LVL252
 8600 14fa AA060000 		.4byte	0x6aa
 8601 14fe 0E150000 		.4byte	0x150e
 8602 1502 09       		.uleb128 0x9
 8603 1503 01       		.uleb128 0x1
 8604 1504 50       		.byte	0x50
 8605 1505 02       		.uleb128 0x2
 8606 1506 08       		.byte	0x8
 8607 1507 48       		.byte	0x48
 8608 1508 09       		.uleb128 0x9
 8609 1509 01       		.uleb128 0x1
 8610 150a 51       		.byte	0x51
 8611 150b 01       		.uleb128 0x1
 8612 150c 30       		.byte	0x30
 8613 150d 00       		.byte	0
 8614 150e 08       		.uleb128 0x8
 8615 150f 98030000 		.4byte	.LVL253
 8616 1513 AA060000 		.4byte	0x6aa
 8617 1517 27150000 		.4byte	0x1527
 8618 151b 09       		.uleb128 0x9
 8619 151c 01       		.uleb128 0x1
 8620 151d 50       		.byte	0x50
 8621 151e 02       		.uleb128 0x2
ARM GAS  C:\Users\Revanth\AppData\Local\Temp\ccqs06ys.s 			page 194


 8622 151f 08       		.byte	0x8
 8623 1520 4C       		.byte	0x4c
 8624 1521 09       		.uleb128 0x9
 8625 1522 01       		.uleb128 0x1
 8626 1523 51       		.byte	0x51
 8627 1524 01       		.uleb128 0x1
 8628 1525 30       		.byte	0x30
 8629 1526 00       		.byte	0
 8630 1527 08       		.uleb128 0x8
 8631 1528 A0030000 		.4byte	.LVL254
 8632 152c AA060000 		.4byte	0x6aa
 8633 1530 40150000 		.4byte	0x1540
 8634 1534 09       		.uleb128 0x9
 8635 1535 01       		.uleb128 0x1
 8636 1536 50       		.byte	0x50
 8637 1537 02       		.uleb128 0x2
 8638 1538 08       		.byte	0x8
 8639 1539 50       		.byte	0x50
 8640 153a 09       		.uleb128 0x9
 8641 153b 01       		.uleb128 0x1
 8642 153c 51       		.byte	0x51
 8643 153d 01       		.uleb128 0x1
 8644 153e 30       		.byte	0x30
 8645 153f 00       		.byte	0
 8646 1540 08       		.uleb128 0x8
 8647 1541 A8030000 		.4byte	.LVL255
 8648 1545 AA060000 		.4byte	0x6aa
 8649 1549 59150000 		.4byte	0x1559
 8650 154d 09       		.uleb128 0x9
 8651 154e 01       		.uleb128 0x1
 8652 154f 50       		.byte	0x50
 8653 1550 02       		.uleb128 0x2
 8654 1551 08       		.byte	0x8
 8655 1552 54       		.byte	0x54
 8656 1553 09       		.uleb128 0x9
 8657 1554 01       		.uleb128 0x1
 8658 1555 51       		.byte	0x51
 8659 1556 01       		.uleb128 0x1
 8660 1557 30       		.byte	0x30
 8661 1558 00       		.byte	0
 8662 1559 08       		.uleb128 0x8
 8663 155a B0030000 		.4byte	.LVL256
 8664 155e AA060000 		.4byte	0x6aa
 8665 1562 72150000 		.4byte	0x1572
 8666 1566 09       		.uleb128 0x9
 8667 1567 01       		.uleb128 0x1
 8668 1568 50       		.byte	0x50
 8669 1569 02       		.uleb128 0x2
 8670 156a 08       		.byte	0x8
 8671 156b 58       		.byte	0x58
 8672 156c 09       		.uleb128 0x9
 8673 156d 01       		.uleb128 0x1
 8674 156e 51       		.byte	0x51
 8675 156f 01       		.uleb128 0x1
 8676 1570 30       		.byte	0x30
 8677 1571 00       		.byte	0
 8678 1572 08       		.uleb128 0x8
ARM GAS  C:\Users\Revanth\AppData\Local\Temp\ccqs06ys.s 			page 195


 8679 1573 B8030000 		.4byte	.LVL257
 8680 1577 AA060000 		.4byte	0x6aa
 8681 157b 8B150000 		.4byte	0x158b
 8682 157f 09       		.uleb128 0x9
 8683 1580 01       		.uleb128 0x1
 8684 1581 50       		.byte	0x50
 8685 1582 02       		.uleb128 0x2
 8686 1583 08       		.byte	0x8
 8687 1584 5C       		.byte	0x5c
 8688 1585 09       		.uleb128 0x9
 8689 1586 01       		.uleb128 0x1
 8690 1587 51       		.byte	0x51
 8691 1588 01       		.uleb128 0x1
 8692 1589 30       		.byte	0x30
 8693 158a 00       		.byte	0
 8694 158b 08       		.uleb128 0x8
 8695 158c C0030000 		.4byte	.LVL258
 8696 1590 AA060000 		.4byte	0x6aa
 8697 1594 A4150000 		.4byte	0x15a4
 8698 1598 09       		.uleb128 0x9
 8699 1599 01       		.uleb128 0x1
 8700 159a 50       		.byte	0x50
 8701 159b 02       		.uleb128 0x2
 8702 159c 08       		.byte	0x8
 8703 159d 60       		.byte	0x60
 8704 159e 09       		.uleb128 0x9
 8705 159f 01       		.uleb128 0x1
 8706 15a0 51       		.byte	0x51
 8707 15a1 01       		.uleb128 0x1
 8708 15a2 30       		.byte	0x30
 8709 15a3 00       		.byte	0
 8710 15a4 08       		.uleb128 0x8
 8711 15a5 C8030000 		.4byte	.LVL259
 8712 15a9 AA060000 		.4byte	0x6aa
 8713 15ad BD150000 		.4byte	0x15bd
 8714 15b1 09       		.uleb128 0x9
 8715 15b2 01       		.uleb128 0x1
 8716 15b3 50       		.byte	0x50
 8717 15b4 02       		.uleb128 0x2
 8718 15b5 08       		.byte	0x8
 8719 15b6 64       		.byte	0x64
 8720 15b7 09       		.uleb128 0x9
 8721 15b8 01       		.uleb128 0x1
 8722 15b9 51       		.byte	0x51
 8723 15ba 01       		.uleb128 0x1
 8724 15bb 30       		.byte	0x30
 8725 15bc 00       		.byte	0
 8726 15bd 08       		.uleb128 0x8
 8727 15be D0030000 		.4byte	.LVL260
 8728 15c2 AA060000 		.4byte	0x6aa
 8729 15c6 D6150000 		.4byte	0x15d6
 8730 15ca 09       		.uleb128 0x9
 8731 15cb 01       		.uleb128 0x1
 8732 15cc 50       		.byte	0x50
 8733 15cd 02       		.uleb128 0x2
 8734 15ce 08       		.byte	0x8
 8735 15cf 68       		.byte	0x68
ARM GAS  C:\Users\Revanth\AppData\Local\Temp\ccqs06ys.s 			page 196


 8736 15d0 09       		.uleb128 0x9
 8737 15d1 01       		.uleb128 0x1
 8738 15d2 51       		.byte	0x51
 8739 15d3 01       		.uleb128 0x1
 8740 15d4 30       		.byte	0x30
 8741 15d5 00       		.byte	0
 8742 15d6 08       		.uleb128 0x8
 8743 15d7 D8030000 		.4byte	.LVL261
 8744 15db AA060000 		.4byte	0x6aa
 8745 15df EF150000 		.4byte	0x15ef
 8746 15e3 09       		.uleb128 0x9
 8747 15e4 01       		.uleb128 0x1
 8748 15e5 50       		.byte	0x50
 8749 15e6 02       		.uleb128 0x2
 8750 15e7 08       		.byte	0x8
 8751 15e8 6C       		.byte	0x6c
 8752 15e9 09       		.uleb128 0x9
 8753 15ea 01       		.uleb128 0x1
 8754 15eb 51       		.byte	0x51
 8755 15ec 01       		.uleb128 0x1
 8756 15ed 30       		.byte	0x30
 8757 15ee 00       		.byte	0
 8758 15ef 08       		.uleb128 0x8
 8759 15f0 E0030000 		.4byte	.LVL262
 8760 15f4 AA060000 		.4byte	0x6aa
 8761 15f8 08160000 		.4byte	0x1608
 8762 15fc 09       		.uleb128 0x9
 8763 15fd 01       		.uleb128 0x1
 8764 15fe 50       		.byte	0x50
 8765 15ff 02       		.uleb128 0x2
 8766 1600 08       		.byte	0x8
 8767 1601 70       		.byte	0x70
 8768 1602 09       		.uleb128 0x9
 8769 1603 01       		.uleb128 0x1
 8770 1604 51       		.byte	0x51
 8771 1605 01       		.uleb128 0x1
 8772 1606 30       		.byte	0x30
 8773 1607 00       		.byte	0
 8774 1608 08       		.uleb128 0x8
 8775 1609 E8030000 		.4byte	.LVL263
 8776 160d AA060000 		.4byte	0x6aa
 8777 1611 21160000 		.4byte	0x1621
 8778 1615 09       		.uleb128 0x9
 8779 1616 01       		.uleb128 0x1
 8780 1617 50       		.byte	0x50
 8781 1618 02       		.uleb128 0x2
 8782 1619 08       		.byte	0x8
 8783 161a 74       		.byte	0x74
 8784 161b 09       		.uleb128 0x9
 8785 161c 01       		.uleb128 0x1
 8786 161d 51       		.byte	0x51
 8787 161e 01       		.uleb128 0x1
 8788 161f 30       		.byte	0x30
 8789 1620 00       		.byte	0
 8790 1621 08       		.uleb128 0x8
 8791 1622 F0030000 		.4byte	.LVL264
 8792 1626 AA060000 		.4byte	0x6aa
ARM GAS  C:\Users\Revanth\AppData\Local\Temp\ccqs06ys.s 			page 197


 8793 162a 3A160000 		.4byte	0x163a
 8794 162e 09       		.uleb128 0x9
 8795 162f 01       		.uleb128 0x1
 8796 1630 50       		.byte	0x50
 8797 1631 02       		.uleb128 0x2
 8798 1632 08       		.byte	0x8
 8799 1633 78       		.byte	0x78
 8800 1634 09       		.uleb128 0x9
 8801 1635 01       		.uleb128 0x1
 8802 1636 51       		.byte	0x51
 8803 1637 01       		.uleb128 0x1
 8804 1638 30       		.byte	0x30
 8805 1639 00       		.byte	0
 8806 163a 08       		.uleb128 0x8
 8807 163b F8030000 		.4byte	.LVL265
 8808 163f AA060000 		.4byte	0x6aa
 8809 1643 53160000 		.4byte	0x1653
 8810 1647 09       		.uleb128 0x9
 8811 1648 01       		.uleb128 0x1
 8812 1649 50       		.byte	0x50
 8813 164a 02       		.uleb128 0x2
 8814 164b 08       		.byte	0x8
 8815 164c 7C       		.byte	0x7c
 8816 164d 09       		.uleb128 0x9
 8817 164e 01       		.uleb128 0x1
 8818 164f 51       		.byte	0x51
 8819 1650 01       		.uleb128 0x1
 8820 1651 30       		.byte	0x30
 8821 1652 00       		.byte	0
 8822 1653 08       		.uleb128 0x8
 8823 1654 00040000 		.4byte	.LVL266
 8824 1658 AA060000 		.4byte	0x6aa
 8825 165c 6C160000 		.4byte	0x166c
 8826 1660 09       		.uleb128 0x9
 8827 1661 01       		.uleb128 0x1
 8828 1662 50       		.byte	0x50
 8829 1663 02       		.uleb128 0x2
 8830 1664 08       		.byte	0x8
 8831 1665 21       		.byte	0x21
 8832 1666 09       		.uleb128 0x9
 8833 1667 01       		.uleb128 0x1
 8834 1668 51       		.byte	0x51
 8835 1669 01       		.uleb128 0x1
 8836 166a 30       		.byte	0x30
 8837 166b 00       		.byte	0
 8838 166c 08       		.uleb128 0x8
 8839 166d 08040000 		.4byte	.LVL267
 8840 1671 AA060000 		.4byte	0x6aa
 8841 1675 85160000 		.4byte	0x1685
 8842 1679 09       		.uleb128 0x9
 8843 167a 01       		.uleb128 0x1
 8844 167b 50       		.byte	0x50
 8845 167c 02       		.uleb128 0x2
 8846 167d 08       		.byte	0x8
 8847 167e 25       		.byte	0x25
 8848 167f 09       		.uleb128 0x9
 8849 1680 01       		.uleb128 0x1
ARM GAS  C:\Users\Revanth\AppData\Local\Temp\ccqs06ys.s 			page 198


 8850 1681 51       		.byte	0x51
 8851 1682 01       		.uleb128 0x1
 8852 1683 30       		.byte	0x30
 8853 1684 00       		.byte	0
 8854 1685 08       		.uleb128 0x8
 8855 1686 10040000 		.4byte	.LVL268
 8856 168a AA060000 		.4byte	0x6aa
 8857 168e 9E160000 		.4byte	0x169e
 8858 1692 09       		.uleb128 0x9
 8859 1693 01       		.uleb128 0x1
 8860 1694 50       		.byte	0x50
 8861 1695 02       		.uleb128 0x2
 8862 1696 08       		.byte	0x8
 8863 1697 29       		.byte	0x29
 8864 1698 09       		.uleb128 0x9
 8865 1699 01       		.uleb128 0x1
 8866 169a 51       		.byte	0x51
 8867 169b 01       		.uleb128 0x1
 8868 169c 30       		.byte	0x30
 8869 169d 00       		.byte	0
 8870 169e 08       		.uleb128 0x8
 8871 169f 18040000 		.4byte	.LVL269
 8872 16a3 AA060000 		.4byte	0x6aa
 8873 16a7 B7160000 		.4byte	0x16b7
 8874 16ab 09       		.uleb128 0x9
 8875 16ac 01       		.uleb128 0x1
 8876 16ad 50       		.byte	0x50
 8877 16ae 02       		.uleb128 0x2
 8878 16af 08       		.byte	0x8
 8879 16b0 2D       		.byte	0x2d
 8880 16b1 09       		.uleb128 0x9
 8881 16b2 01       		.uleb128 0x1
 8882 16b3 51       		.byte	0x51
 8883 16b4 01       		.uleb128 0x1
 8884 16b5 30       		.byte	0x30
 8885 16b6 00       		.byte	0
 8886 16b7 08       		.uleb128 0x8
 8887 16b8 20040000 		.4byte	.LVL270
 8888 16bc AA060000 		.4byte	0x6aa
 8889 16c0 D0160000 		.4byte	0x16d0
 8890 16c4 09       		.uleb128 0x9
 8891 16c5 01       		.uleb128 0x1
 8892 16c6 50       		.byte	0x50
 8893 16c7 02       		.uleb128 0x2
 8894 16c8 08       		.byte	0x8
 8895 16c9 31       		.byte	0x31
 8896 16ca 09       		.uleb128 0x9
 8897 16cb 01       		.uleb128 0x1
 8898 16cc 51       		.byte	0x51
 8899 16cd 01       		.uleb128 0x1
 8900 16ce 30       		.byte	0x30
 8901 16cf 00       		.byte	0
 8902 16d0 08       		.uleb128 0x8
 8903 16d1 28040000 		.4byte	.LVL271
 8904 16d5 AA060000 		.4byte	0x6aa
 8905 16d9 E9160000 		.4byte	0x16e9
 8906 16dd 09       		.uleb128 0x9
ARM GAS  C:\Users\Revanth\AppData\Local\Temp\ccqs06ys.s 			page 199


 8907 16de 01       		.uleb128 0x1
 8908 16df 50       		.byte	0x50
 8909 16e0 02       		.uleb128 0x2
 8910 16e1 08       		.byte	0x8
 8911 16e2 35       		.byte	0x35
 8912 16e3 09       		.uleb128 0x9
 8913 16e4 01       		.uleb128 0x1
 8914 16e5 51       		.byte	0x51
 8915 16e6 01       		.uleb128 0x1
 8916 16e7 30       		.byte	0x30
 8917 16e8 00       		.byte	0
 8918 16e9 08       		.uleb128 0x8
 8919 16ea 30040000 		.4byte	.LVL272
 8920 16ee AA060000 		.4byte	0x6aa
 8921 16f2 02170000 		.4byte	0x1702
 8922 16f6 09       		.uleb128 0x9
 8923 16f7 01       		.uleb128 0x1
 8924 16f8 50       		.byte	0x50
 8925 16f9 02       		.uleb128 0x2
 8926 16fa 08       		.byte	0x8
 8927 16fb 39       		.byte	0x39
 8928 16fc 09       		.uleb128 0x9
 8929 16fd 01       		.uleb128 0x1
 8930 16fe 51       		.byte	0x51
 8931 16ff 01       		.uleb128 0x1
 8932 1700 30       		.byte	0x30
 8933 1701 00       		.byte	0
 8934 1702 08       		.uleb128 0x8
 8935 1703 38040000 		.4byte	.LVL273
 8936 1707 AA060000 		.4byte	0x6aa
 8937 170b 1B170000 		.4byte	0x171b
 8938 170f 09       		.uleb128 0x9
 8939 1710 01       		.uleb128 0x1
 8940 1711 50       		.byte	0x50
 8941 1712 02       		.uleb128 0x2
 8942 1713 08       		.byte	0x8
 8943 1714 3D       		.byte	0x3d
 8944 1715 09       		.uleb128 0x9
 8945 1716 01       		.uleb128 0x1
 8946 1717 51       		.byte	0x51
 8947 1718 01       		.uleb128 0x1
 8948 1719 30       		.byte	0x30
 8949 171a 00       		.byte	0
 8950 171b 08       		.uleb128 0x8
 8951 171c 40040000 		.4byte	.LVL274
 8952 1720 AA060000 		.4byte	0x6aa
 8953 1724 34170000 		.4byte	0x1734
 8954 1728 09       		.uleb128 0x9
 8955 1729 01       		.uleb128 0x1
 8956 172a 50       		.byte	0x50
 8957 172b 02       		.uleb128 0x2
 8958 172c 08       		.byte	0x8
 8959 172d 41       		.byte	0x41
 8960 172e 09       		.uleb128 0x9
 8961 172f 01       		.uleb128 0x1
 8962 1730 51       		.byte	0x51
 8963 1731 01       		.uleb128 0x1
ARM GAS  C:\Users\Revanth\AppData\Local\Temp\ccqs06ys.s 			page 200


 8964 1732 30       		.byte	0x30
 8965 1733 00       		.byte	0
 8966 1734 08       		.uleb128 0x8
 8967 1735 48040000 		.4byte	.LVL275
 8968 1739 AA060000 		.4byte	0x6aa
 8969 173d 4D170000 		.4byte	0x174d
 8970 1741 09       		.uleb128 0x9
 8971 1742 01       		.uleb128 0x1
 8972 1743 50       		.byte	0x50
 8973 1744 02       		.uleb128 0x2
 8974 1745 08       		.byte	0x8
 8975 1746 45       		.byte	0x45
 8976 1747 09       		.uleb128 0x9
 8977 1748 01       		.uleb128 0x1
 8978 1749 51       		.byte	0x51
 8979 174a 01       		.uleb128 0x1
 8980 174b 30       		.byte	0x30
 8981 174c 00       		.byte	0
 8982 174d 08       		.uleb128 0x8
 8983 174e 50040000 		.4byte	.LVL276
 8984 1752 AA060000 		.4byte	0x6aa
 8985 1756 66170000 		.4byte	0x1766
 8986 175a 09       		.uleb128 0x9
 8987 175b 01       		.uleb128 0x1
 8988 175c 50       		.byte	0x50
 8989 175d 02       		.uleb128 0x2
 8990 175e 08       		.byte	0x8
 8991 175f 49       		.byte	0x49
 8992 1760 09       		.uleb128 0x9
 8993 1761 01       		.uleb128 0x1
 8994 1762 51       		.byte	0x51
 8995 1763 01       		.uleb128 0x1
 8996 1764 30       		.byte	0x30
 8997 1765 00       		.byte	0
 8998 1766 08       		.uleb128 0x8
 8999 1767 58040000 		.4byte	.LVL277
 9000 176b AA060000 		.4byte	0x6aa
 9001 176f 7F170000 		.4byte	0x177f
 9002 1773 09       		.uleb128 0x9
 9003 1774 01       		.uleb128 0x1
 9004 1775 50       		.byte	0x50
 9005 1776 02       		.uleb128 0x2
 9006 1777 08       		.byte	0x8
 9007 1778 4D       		.byte	0x4d
 9008 1779 09       		.uleb128 0x9
 9009 177a 01       		.uleb128 0x1
 9010 177b 51       		.byte	0x51
 9011 177c 01       		.uleb128 0x1
 9012 177d 30       		.byte	0x30
 9013 177e 00       		.byte	0
 9014 177f 08       		.uleb128 0x8
 9015 1780 60040000 		.4byte	.LVL278
 9016 1784 AA060000 		.4byte	0x6aa
 9017 1788 98170000 		.4byte	0x1798
 9018 178c 09       		.uleb128 0x9
 9019 178d 01       		.uleb128 0x1
 9020 178e 50       		.byte	0x50
ARM GAS  C:\Users\Revanth\AppData\Local\Temp\ccqs06ys.s 			page 201


 9021 178f 02       		.uleb128 0x2
 9022 1790 08       		.byte	0x8
 9023 1791 51       		.byte	0x51
 9024 1792 09       		.uleb128 0x9
 9025 1793 01       		.uleb128 0x1
 9026 1794 51       		.byte	0x51
 9027 1795 01       		.uleb128 0x1
 9028 1796 30       		.byte	0x30
 9029 1797 00       		.byte	0
 9030 1798 08       		.uleb128 0x8
 9031 1799 68040000 		.4byte	.LVL279
 9032 179d AA060000 		.4byte	0x6aa
 9033 17a1 B1170000 		.4byte	0x17b1
 9034 17a5 09       		.uleb128 0x9
 9035 17a6 01       		.uleb128 0x1
 9036 17a7 50       		.byte	0x50
 9037 17a8 02       		.uleb128 0x2
 9038 17a9 08       		.byte	0x8
 9039 17aa 55       		.byte	0x55
 9040 17ab 09       		.uleb128 0x9
 9041 17ac 01       		.uleb128 0x1
 9042 17ad 51       		.byte	0x51
 9043 17ae 01       		.uleb128 0x1
 9044 17af 30       		.byte	0x30
 9045 17b0 00       		.byte	0
 9046 17b1 08       		.uleb128 0x8
 9047 17b2 70040000 		.4byte	.LVL280
 9048 17b6 AA060000 		.4byte	0x6aa
 9049 17ba CA170000 		.4byte	0x17ca
 9050 17be 09       		.uleb128 0x9
 9051 17bf 01       		.uleb128 0x1
 9052 17c0 50       		.byte	0x50
 9053 17c1 02       		.uleb128 0x2
 9054 17c2 08       		.byte	0x8
 9055 17c3 59       		.byte	0x59
 9056 17c4 09       		.uleb128 0x9
 9057 17c5 01       		.uleb128 0x1
 9058 17c6 51       		.byte	0x51
 9059 17c7 01       		.uleb128 0x1
 9060 17c8 30       		.byte	0x30
 9061 17c9 00       		.byte	0
 9062 17ca 08       		.uleb128 0x8
 9063 17cb 78040000 		.4byte	.LVL281
 9064 17cf AA060000 		.4byte	0x6aa
 9065 17d3 E3170000 		.4byte	0x17e3
 9066 17d7 09       		.uleb128 0x9
 9067 17d8 01       		.uleb128 0x1
 9068 17d9 50       		.byte	0x50
 9069 17da 02       		.uleb128 0x2
 9070 17db 08       		.byte	0x8
 9071 17dc 5D       		.byte	0x5d
 9072 17dd 09       		.uleb128 0x9
 9073 17de 01       		.uleb128 0x1
 9074 17df 51       		.byte	0x51
 9075 17e0 01       		.uleb128 0x1
 9076 17e1 30       		.byte	0x30
 9077 17e2 00       		.byte	0
ARM GAS  C:\Users\Revanth\AppData\Local\Temp\ccqs06ys.s 			page 202


 9078 17e3 08       		.uleb128 0x8
 9079 17e4 80040000 		.4byte	.LVL282
 9080 17e8 AA060000 		.4byte	0x6aa
 9081 17ec FC170000 		.4byte	0x17fc
 9082 17f0 09       		.uleb128 0x9
 9083 17f1 01       		.uleb128 0x1
 9084 17f2 50       		.byte	0x50
 9085 17f3 02       		.uleb128 0x2
 9086 17f4 08       		.byte	0x8
 9087 17f5 61       		.byte	0x61
 9088 17f6 09       		.uleb128 0x9
 9089 17f7 01       		.uleb128 0x1
 9090 17f8 51       		.byte	0x51
 9091 17f9 01       		.uleb128 0x1
 9092 17fa 30       		.byte	0x30
 9093 17fb 00       		.byte	0
 9094 17fc 08       		.uleb128 0x8
 9095 17fd 88040000 		.4byte	.LVL283
 9096 1801 AA060000 		.4byte	0x6aa
 9097 1805 15180000 		.4byte	0x1815
 9098 1809 09       		.uleb128 0x9
 9099 180a 01       		.uleb128 0x1
 9100 180b 50       		.byte	0x50
 9101 180c 02       		.uleb128 0x2
 9102 180d 08       		.byte	0x8
 9103 180e 65       		.byte	0x65
 9104 180f 09       		.uleb128 0x9
 9105 1810 01       		.uleb128 0x1
 9106 1811 51       		.byte	0x51
 9107 1812 01       		.uleb128 0x1
 9108 1813 30       		.byte	0x30
 9109 1814 00       		.byte	0
 9110 1815 08       		.uleb128 0x8
 9111 1816 90040000 		.4byte	.LVL284
 9112 181a AA060000 		.4byte	0x6aa
 9113 181e 2E180000 		.4byte	0x182e
 9114 1822 09       		.uleb128 0x9
 9115 1823 01       		.uleb128 0x1
 9116 1824 50       		.byte	0x50
 9117 1825 02       		.uleb128 0x2
 9118 1826 08       		.byte	0x8
 9119 1827 69       		.byte	0x69
 9120 1828 09       		.uleb128 0x9
 9121 1829 01       		.uleb128 0x1
 9122 182a 51       		.byte	0x51
 9123 182b 01       		.uleb128 0x1
 9124 182c 30       		.byte	0x30
 9125 182d 00       		.byte	0
 9126 182e 08       		.uleb128 0x8
 9127 182f 98040000 		.4byte	.LVL285
 9128 1833 AA060000 		.4byte	0x6aa
 9129 1837 47180000 		.4byte	0x1847
 9130 183b 09       		.uleb128 0x9
 9131 183c 01       		.uleb128 0x1
 9132 183d 50       		.byte	0x50
 9133 183e 02       		.uleb128 0x2
 9134 183f 08       		.byte	0x8
ARM GAS  C:\Users\Revanth\AppData\Local\Temp\ccqs06ys.s 			page 203


 9135 1840 6D       		.byte	0x6d
 9136 1841 09       		.uleb128 0x9
 9137 1842 01       		.uleb128 0x1
 9138 1843 51       		.byte	0x51
 9139 1844 01       		.uleb128 0x1
 9140 1845 30       		.byte	0x30
 9141 1846 00       		.byte	0
 9142 1847 08       		.uleb128 0x8
 9143 1848 A0040000 		.4byte	.LVL286
 9144 184c AA060000 		.4byte	0x6aa
 9145 1850 60180000 		.4byte	0x1860
 9146 1854 09       		.uleb128 0x9
 9147 1855 01       		.uleb128 0x1
 9148 1856 50       		.byte	0x50
 9149 1857 02       		.uleb128 0x2
 9150 1858 08       		.byte	0x8
 9151 1859 71       		.byte	0x71
 9152 185a 09       		.uleb128 0x9
 9153 185b 01       		.uleb128 0x1
 9154 185c 51       		.byte	0x51
 9155 185d 01       		.uleb128 0x1
 9156 185e 30       		.byte	0x30
 9157 185f 00       		.byte	0
 9158 1860 08       		.uleb128 0x8
 9159 1861 A8040000 		.4byte	.LVL287
 9160 1865 AA060000 		.4byte	0x6aa
 9161 1869 79180000 		.4byte	0x1879
 9162 186d 09       		.uleb128 0x9
 9163 186e 01       		.uleb128 0x1
 9164 186f 50       		.byte	0x50
 9165 1870 02       		.uleb128 0x2
 9166 1871 08       		.byte	0x8
 9167 1872 75       		.byte	0x75
 9168 1873 09       		.uleb128 0x9
 9169 1874 01       		.uleb128 0x1
 9170 1875 51       		.byte	0x51
 9171 1876 01       		.uleb128 0x1
 9172 1877 30       		.byte	0x30
 9173 1878 00       		.byte	0
 9174 1879 08       		.uleb128 0x8
 9175 187a B0040000 		.4byte	.LVL288
 9176 187e AA060000 		.4byte	0x6aa
 9177 1882 92180000 		.4byte	0x1892
 9178 1886 09       		.uleb128 0x9
 9179 1887 01       		.uleb128 0x1
 9180 1888 50       		.byte	0x50
 9181 1889 02       		.uleb128 0x2
 9182 188a 08       		.byte	0x8
 9183 188b 79       		.byte	0x79
 9184 188c 09       		.uleb128 0x9
 9185 188d 01       		.uleb128 0x1
 9186 188e 51       		.byte	0x51
 9187 188f 01       		.uleb128 0x1
 9188 1890 30       		.byte	0x30
 9189 1891 00       		.byte	0
 9190 1892 08       		.uleb128 0x8
 9191 1893 B8040000 		.4byte	.LVL289
ARM GAS  C:\Users\Revanth\AppData\Local\Temp\ccqs06ys.s 			page 204


 9192 1897 AA060000 		.4byte	0x6aa
 9193 189b AB180000 		.4byte	0x18ab
 9194 189f 09       		.uleb128 0x9
 9195 18a0 01       		.uleb128 0x1
 9196 18a1 50       		.byte	0x50
 9197 18a2 02       		.uleb128 0x2
 9198 18a3 08       		.byte	0x8
 9199 18a4 7D       		.byte	0x7d
 9200 18a5 09       		.uleb128 0x9
 9201 18a6 01       		.uleb128 0x1
 9202 18a7 51       		.byte	0x51
 9203 18a8 01       		.uleb128 0x1
 9204 18a9 30       		.byte	0x30
 9205 18aa 00       		.byte	0
 9206 18ab 08       		.uleb128 0x8
 9207 18ac BE040000 		.4byte	.LVL290
 9208 18b0 CD5F0000 		.4byte	0x5fcd
 9209 18b4 BE180000 		.4byte	0x18be
 9210 18b8 09       		.uleb128 0x9
 9211 18b9 01       		.uleb128 0x1
 9212 18ba 50       		.byte	0x50
 9213 18bb 01       		.uleb128 0x1
 9214 18bc 31       		.byte	0x31
 9215 18bd 00       		.byte	0
 9216 18be 08       		.uleb128 0x8
 9217 18bf C4040000 		.4byte	.LVL291
 9218 18c3 D85F0000 		.4byte	0x5fd8
 9219 18c7 D1180000 		.4byte	0x18d1
 9220 18cb 09       		.uleb128 0x9
 9221 18cc 01       		.uleb128 0x1
 9222 18cd 50       		.byte	0x50
 9223 18ce 01       		.uleb128 0x1
 9224 18cf 31       		.byte	0x31
 9225 18d0 00       		.byte	0
 9226 18d1 08       		.uleb128 0x8
 9227 18d2 CA040000 		.4byte	.LVL292
 9228 18d6 07090000 		.4byte	0x907
 9229 18da E4180000 		.4byte	0x18e4
 9230 18de 09       		.uleb128 0x9
 9231 18df 01       		.uleb128 0x1
 9232 18e0 50       		.byte	0x50
 9233 18e1 01       		.uleb128 0x1
 9234 18e2 31       		.byte	0x31
 9235 18e3 00       		.byte	0
 9236 18e4 08       		.uleb128 0x8
 9237 18e5 D2040000 		.4byte	.LVL293
 9238 18e9 CA080000 		.4byte	0x8ca
 9239 18ed FD180000 		.4byte	0x18fd
 9240 18f1 09       		.uleb128 0x9
 9241 18f2 01       		.uleb128 0x1
 9242 18f3 50       		.byte	0x50
 9243 18f4 02       		.uleb128 0x2
 9244 18f5 08       		.byte	0x8
 9245 18f6 20       		.byte	0x20
 9246 18f7 09       		.uleb128 0x9
 9247 18f8 01       		.uleb128 0x1
 9248 18f9 51       		.byte	0x51
ARM GAS  C:\Users\Revanth\AppData\Local\Temp\ccqs06ys.s 			page 205


 9249 18fa 01       		.uleb128 0x1
 9250 18fb 30       		.byte	0x30
 9251 18fc 00       		.byte	0
 9252 18fd 08       		.uleb128 0x8
 9253 18fe DA040000 		.4byte	.LVL294
 9254 1902 CA080000 		.4byte	0x8ca
 9255 1906 16190000 		.4byte	0x1916
 9256 190a 09       		.uleb128 0x9
 9257 190b 01       		.uleb128 0x1
 9258 190c 50       		.byte	0x50
 9259 190d 02       		.uleb128 0x2
 9260 190e 08       		.byte	0x8
 9261 190f 24       		.byte	0x24
 9262 1910 09       		.uleb128 0x9
 9263 1911 01       		.uleb128 0x1
 9264 1912 51       		.byte	0x51
 9265 1913 01       		.uleb128 0x1
 9266 1914 30       		.byte	0x30
 9267 1915 00       		.byte	0
 9268 1916 08       		.uleb128 0x8
 9269 1917 E2040000 		.4byte	.LVL295
 9270 191b CA080000 		.4byte	0x8ca
 9271 191f 2F190000 		.4byte	0x192f
 9272 1923 09       		.uleb128 0x9
 9273 1924 01       		.uleb128 0x1
 9274 1925 50       		.byte	0x50
 9275 1926 02       		.uleb128 0x2
 9276 1927 08       		.byte	0x8
 9277 1928 28       		.byte	0x28
 9278 1929 09       		.uleb128 0x9
 9279 192a 01       		.uleb128 0x1
 9280 192b 51       		.byte	0x51
 9281 192c 01       		.uleb128 0x1
 9282 192d 30       		.byte	0x30
 9283 192e 00       		.byte	0
 9284 192f 08       		.uleb128 0x8
 9285 1930 EA040000 		.4byte	.LVL296
 9286 1934 CA080000 		.4byte	0x8ca
 9287 1938 48190000 		.4byte	0x1948
 9288 193c 09       		.uleb128 0x9
 9289 193d 01       		.uleb128 0x1
 9290 193e 50       		.byte	0x50
 9291 193f 02       		.uleb128 0x2
 9292 1940 08       		.byte	0x8
 9293 1941 2C       		.byte	0x2c
 9294 1942 09       		.uleb128 0x9
 9295 1943 01       		.uleb128 0x1
 9296 1944 51       		.byte	0x51
 9297 1945 01       		.uleb128 0x1
 9298 1946 30       		.byte	0x30
 9299 1947 00       		.byte	0
 9300 1948 08       		.uleb128 0x8
 9301 1949 F2040000 		.4byte	.LVL297
 9302 194d CA080000 		.4byte	0x8ca
 9303 1951 61190000 		.4byte	0x1961
 9304 1955 09       		.uleb128 0x9
 9305 1956 01       		.uleb128 0x1
ARM GAS  C:\Users\Revanth\AppData\Local\Temp\ccqs06ys.s 			page 206


 9306 1957 50       		.byte	0x50
 9307 1958 02       		.uleb128 0x2
 9308 1959 08       		.byte	0x8
 9309 195a 30       		.byte	0x30
 9310 195b 09       		.uleb128 0x9
 9311 195c 01       		.uleb128 0x1
 9312 195d 51       		.byte	0x51
 9313 195e 01       		.uleb128 0x1
 9314 195f 30       		.byte	0x30
 9315 1960 00       		.byte	0
 9316 1961 08       		.uleb128 0x8
 9317 1962 FA040000 		.4byte	.LVL298
 9318 1966 CA080000 		.4byte	0x8ca
 9319 196a 7A190000 		.4byte	0x197a
 9320 196e 09       		.uleb128 0x9
 9321 196f 01       		.uleb128 0x1
 9322 1970 50       		.byte	0x50
 9323 1971 02       		.uleb128 0x2
 9324 1972 08       		.byte	0x8
 9325 1973 34       		.byte	0x34
 9326 1974 09       		.uleb128 0x9
 9327 1975 01       		.uleb128 0x1
 9328 1976 51       		.byte	0x51
 9329 1977 01       		.uleb128 0x1
 9330 1978 30       		.byte	0x30
 9331 1979 00       		.byte	0
 9332 197a 08       		.uleb128 0x8
 9333 197b 02050000 		.4byte	.LVL299
 9334 197f CA080000 		.4byte	0x8ca
 9335 1983 93190000 		.4byte	0x1993
 9336 1987 09       		.uleb128 0x9
 9337 1988 01       		.uleb128 0x1
 9338 1989 50       		.byte	0x50
 9339 198a 02       		.uleb128 0x2
 9340 198b 08       		.byte	0x8
 9341 198c 38       		.byte	0x38
 9342 198d 09       		.uleb128 0x9
 9343 198e 01       		.uleb128 0x1
 9344 198f 51       		.byte	0x51
 9345 1990 01       		.uleb128 0x1
 9346 1991 30       		.byte	0x30
 9347 1992 00       		.byte	0
 9348 1993 08       		.uleb128 0x8
 9349 1994 0A050000 		.4byte	.LVL300
 9350 1998 CA080000 		.4byte	0x8ca
 9351 199c AC190000 		.4byte	0x19ac
 9352 19a0 09       		.uleb128 0x9
 9353 19a1 01       		.uleb128 0x1
 9354 19a2 50       		.byte	0x50
 9355 19a3 02       		.uleb128 0x2
 9356 19a4 08       		.byte	0x8
 9357 19a5 3C       		.byte	0x3c
 9358 19a6 09       		.uleb128 0x9
 9359 19a7 01       		.uleb128 0x1
 9360 19a8 51       		.byte	0x51
 9361 19a9 01       		.uleb128 0x1
 9362 19aa 30       		.byte	0x30
ARM GAS  C:\Users\Revanth\AppData\Local\Temp\ccqs06ys.s 			page 207


 9363 19ab 00       		.byte	0
 9364 19ac 08       		.uleb128 0x8
 9365 19ad 12050000 		.4byte	.LVL301
 9366 19b1 CA080000 		.4byte	0x8ca
 9367 19b5 C5190000 		.4byte	0x19c5
 9368 19b9 09       		.uleb128 0x9
 9369 19ba 01       		.uleb128 0x1
 9370 19bb 50       		.byte	0x50
 9371 19bc 02       		.uleb128 0x2
 9372 19bd 08       		.byte	0x8
 9373 19be 40       		.byte	0x40
 9374 19bf 09       		.uleb128 0x9
 9375 19c0 01       		.uleb128 0x1
 9376 19c1 51       		.byte	0x51
 9377 19c2 01       		.uleb128 0x1
 9378 19c3 30       		.byte	0x30
 9379 19c4 00       		.byte	0
 9380 19c5 08       		.uleb128 0x8
 9381 19c6 1A050000 		.4byte	.LVL302
 9382 19ca CA080000 		.4byte	0x8ca
 9383 19ce DE190000 		.4byte	0x19de
 9384 19d2 09       		.uleb128 0x9
 9385 19d3 01       		.uleb128 0x1
 9386 19d4 50       		.byte	0x50
 9387 19d5 02       		.uleb128 0x2
 9388 19d6 08       		.byte	0x8
 9389 19d7 44       		.byte	0x44
 9390 19d8 09       		.uleb128 0x9
 9391 19d9 01       		.uleb128 0x1
 9392 19da 51       		.byte	0x51
 9393 19db 01       		.uleb128 0x1
 9394 19dc 30       		.byte	0x30
 9395 19dd 00       		.byte	0
 9396 19de 08       		.uleb128 0x8
 9397 19df 22050000 		.4byte	.LVL303
 9398 19e3 CA080000 		.4byte	0x8ca
 9399 19e7 F7190000 		.4byte	0x19f7
 9400 19eb 09       		.uleb128 0x9
 9401 19ec 01       		.uleb128 0x1
 9402 19ed 50       		.byte	0x50
 9403 19ee 02       		.uleb128 0x2
 9404 19ef 08       		.byte	0x8
 9405 19f0 48       		.byte	0x48
 9406 19f1 09       		.uleb128 0x9
 9407 19f2 01       		.uleb128 0x1
 9408 19f3 51       		.byte	0x51
 9409 19f4 01       		.uleb128 0x1
 9410 19f5 30       		.byte	0x30
 9411 19f6 00       		.byte	0
 9412 19f7 08       		.uleb128 0x8
 9413 19f8 2A050000 		.4byte	.LVL304
 9414 19fc CA080000 		.4byte	0x8ca
 9415 1a00 101A0000 		.4byte	0x1a10
 9416 1a04 09       		.uleb128 0x9
 9417 1a05 01       		.uleb128 0x1
 9418 1a06 50       		.byte	0x50
 9419 1a07 02       		.uleb128 0x2
ARM GAS  C:\Users\Revanth\AppData\Local\Temp\ccqs06ys.s 			page 208


 9420 1a08 08       		.byte	0x8
 9421 1a09 4C       		.byte	0x4c
 9422 1a0a 09       		.uleb128 0x9
 9423 1a0b 01       		.uleb128 0x1
 9424 1a0c 51       		.byte	0x51
 9425 1a0d 01       		.uleb128 0x1
 9426 1a0e 30       		.byte	0x30
 9427 1a0f 00       		.byte	0
 9428 1a10 08       		.uleb128 0x8
 9429 1a11 32050000 		.4byte	.LVL305
 9430 1a15 CA080000 		.4byte	0x8ca
 9431 1a19 291A0000 		.4byte	0x1a29
 9432 1a1d 09       		.uleb128 0x9
 9433 1a1e 01       		.uleb128 0x1
 9434 1a1f 50       		.byte	0x50
 9435 1a20 02       		.uleb128 0x2
 9436 1a21 08       		.byte	0x8
 9437 1a22 50       		.byte	0x50
 9438 1a23 09       		.uleb128 0x9
 9439 1a24 01       		.uleb128 0x1
 9440 1a25 51       		.byte	0x51
 9441 1a26 01       		.uleb128 0x1
 9442 1a27 30       		.byte	0x30
 9443 1a28 00       		.byte	0
 9444 1a29 08       		.uleb128 0x8
 9445 1a2a 3A050000 		.4byte	.LVL306
 9446 1a2e CA080000 		.4byte	0x8ca
 9447 1a32 421A0000 		.4byte	0x1a42
 9448 1a36 09       		.uleb128 0x9
 9449 1a37 01       		.uleb128 0x1
 9450 1a38 50       		.byte	0x50
 9451 1a39 02       		.uleb128 0x2
 9452 1a3a 08       		.byte	0x8
 9453 1a3b 54       		.byte	0x54
 9454 1a3c 09       		.uleb128 0x9
 9455 1a3d 01       		.uleb128 0x1
 9456 1a3e 51       		.byte	0x51
 9457 1a3f 01       		.uleb128 0x1
 9458 1a40 30       		.byte	0x30
 9459 1a41 00       		.byte	0
 9460 1a42 08       		.uleb128 0x8
 9461 1a43 42050000 		.4byte	.LVL307
 9462 1a47 CA080000 		.4byte	0x8ca
 9463 1a4b 5B1A0000 		.4byte	0x1a5b
 9464 1a4f 09       		.uleb128 0x9
 9465 1a50 01       		.uleb128 0x1
 9466 1a51 50       		.byte	0x50
 9467 1a52 02       		.uleb128 0x2
 9468 1a53 08       		.byte	0x8
 9469 1a54 58       		.byte	0x58
 9470 1a55 09       		.uleb128 0x9
 9471 1a56 01       		.uleb128 0x1
 9472 1a57 51       		.byte	0x51
 9473 1a58 01       		.uleb128 0x1
 9474 1a59 30       		.byte	0x30
 9475 1a5a 00       		.byte	0
 9476 1a5b 08       		.uleb128 0x8
ARM GAS  C:\Users\Revanth\AppData\Local\Temp\ccqs06ys.s 			page 209


 9477 1a5c 4A050000 		.4byte	.LVL308
 9478 1a60 CA080000 		.4byte	0x8ca
 9479 1a64 741A0000 		.4byte	0x1a74
 9480 1a68 09       		.uleb128 0x9
 9481 1a69 01       		.uleb128 0x1
 9482 1a6a 50       		.byte	0x50
 9483 1a6b 02       		.uleb128 0x2
 9484 1a6c 08       		.byte	0x8
 9485 1a6d 5C       		.byte	0x5c
 9486 1a6e 09       		.uleb128 0x9
 9487 1a6f 01       		.uleb128 0x1
 9488 1a70 51       		.byte	0x51
 9489 1a71 01       		.uleb128 0x1
 9490 1a72 30       		.byte	0x30
 9491 1a73 00       		.byte	0
 9492 1a74 08       		.uleb128 0x8
 9493 1a75 52050000 		.4byte	.LVL309
 9494 1a79 CA080000 		.4byte	0x8ca
 9495 1a7d 8D1A0000 		.4byte	0x1a8d
 9496 1a81 09       		.uleb128 0x9
 9497 1a82 01       		.uleb128 0x1
 9498 1a83 50       		.byte	0x50
 9499 1a84 02       		.uleb128 0x2
 9500 1a85 08       		.byte	0x8
 9501 1a86 60       		.byte	0x60
 9502 1a87 09       		.uleb128 0x9
 9503 1a88 01       		.uleb128 0x1
 9504 1a89 51       		.byte	0x51
 9505 1a8a 01       		.uleb128 0x1
 9506 1a8b 30       		.byte	0x30
 9507 1a8c 00       		.byte	0
 9508 1a8d 08       		.uleb128 0x8
 9509 1a8e 5A050000 		.4byte	.LVL310
 9510 1a92 CA080000 		.4byte	0x8ca
 9511 1a96 A61A0000 		.4byte	0x1aa6
 9512 1a9a 09       		.uleb128 0x9
 9513 1a9b 01       		.uleb128 0x1
 9514 1a9c 50       		.byte	0x50
 9515 1a9d 02       		.uleb128 0x2
 9516 1a9e 08       		.byte	0x8
 9517 1a9f 64       		.byte	0x64
 9518 1aa0 09       		.uleb128 0x9
 9519 1aa1 01       		.uleb128 0x1
 9520 1aa2 51       		.byte	0x51
 9521 1aa3 01       		.uleb128 0x1
 9522 1aa4 30       		.byte	0x30
 9523 1aa5 00       		.byte	0
 9524 1aa6 08       		.uleb128 0x8
 9525 1aa7 62050000 		.4byte	.LVL311
 9526 1aab CA080000 		.4byte	0x8ca
 9527 1aaf BF1A0000 		.4byte	0x1abf
 9528 1ab3 09       		.uleb128 0x9
 9529 1ab4 01       		.uleb128 0x1
 9530 1ab5 50       		.byte	0x50
 9531 1ab6 02       		.uleb128 0x2
 9532 1ab7 08       		.byte	0x8
 9533 1ab8 68       		.byte	0x68
ARM GAS  C:\Users\Revanth\AppData\Local\Temp\ccqs06ys.s 			page 210


 9534 1ab9 09       		.uleb128 0x9
 9535 1aba 01       		.uleb128 0x1
 9536 1abb 51       		.byte	0x51
 9537 1abc 01       		.uleb128 0x1
 9538 1abd 30       		.byte	0x30
 9539 1abe 00       		.byte	0
 9540 1abf 08       		.uleb128 0x8
 9541 1ac0 6A050000 		.4byte	.LVL312
 9542 1ac4 CA080000 		.4byte	0x8ca
 9543 1ac8 D81A0000 		.4byte	0x1ad8
 9544 1acc 09       		.uleb128 0x9
 9545 1acd 01       		.uleb128 0x1
 9546 1ace 50       		.byte	0x50
 9547 1acf 02       		.uleb128 0x2
 9548 1ad0 08       		.byte	0x8
 9549 1ad1 6C       		.byte	0x6c
 9550 1ad2 09       		.uleb128 0x9
 9551 1ad3 01       		.uleb128 0x1
 9552 1ad4 51       		.byte	0x51
 9553 1ad5 01       		.uleb128 0x1
 9554 1ad6 30       		.byte	0x30
 9555 1ad7 00       		.byte	0
 9556 1ad8 08       		.uleb128 0x8
 9557 1ad9 72050000 		.4byte	.LVL313
 9558 1add CA080000 		.4byte	0x8ca
 9559 1ae1 F11A0000 		.4byte	0x1af1
 9560 1ae5 09       		.uleb128 0x9
 9561 1ae6 01       		.uleb128 0x1
 9562 1ae7 50       		.byte	0x50
 9563 1ae8 02       		.uleb128 0x2
 9564 1ae9 08       		.byte	0x8
 9565 1aea 70       		.byte	0x70
 9566 1aeb 09       		.uleb128 0x9
 9567 1aec 01       		.uleb128 0x1
 9568 1aed 51       		.byte	0x51
 9569 1aee 01       		.uleb128 0x1
 9570 1aef 30       		.byte	0x30
 9571 1af0 00       		.byte	0
 9572 1af1 08       		.uleb128 0x8
 9573 1af2 7A050000 		.4byte	.LVL314
 9574 1af6 CA080000 		.4byte	0x8ca
 9575 1afa 0A1B0000 		.4byte	0x1b0a
 9576 1afe 09       		.uleb128 0x9
 9577 1aff 01       		.uleb128 0x1
 9578 1b00 50       		.byte	0x50
 9579 1b01 02       		.uleb128 0x2
 9580 1b02 08       		.byte	0x8
 9581 1b03 74       		.byte	0x74
 9582 1b04 09       		.uleb128 0x9
 9583 1b05 01       		.uleb128 0x1
 9584 1b06 51       		.byte	0x51
 9585 1b07 01       		.uleb128 0x1
 9586 1b08 30       		.byte	0x30
 9587 1b09 00       		.byte	0
 9588 1b0a 08       		.uleb128 0x8
 9589 1b0b 82050000 		.4byte	.LVL315
 9590 1b0f CA080000 		.4byte	0x8ca
ARM GAS  C:\Users\Revanth\AppData\Local\Temp\ccqs06ys.s 			page 211


 9591 1b13 231B0000 		.4byte	0x1b23
 9592 1b17 09       		.uleb128 0x9
 9593 1b18 01       		.uleb128 0x1
 9594 1b19 50       		.byte	0x50
 9595 1b1a 02       		.uleb128 0x2
 9596 1b1b 08       		.byte	0x8
 9597 1b1c 78       		.byte	0x78
 9598 1b1d 09       		.uleb128 0x9
 9599 1b1e 01       		.uleb128 0x1
 9600 1b1f 51       		.byte	0x51
 9601 1b20 01       		.uleb128 0x1
 9602 1b21 30       		.byte	0x30
 9603 1b22 00       		.byte	0
 9604 1b23 08       		.uleb128 0x8
 9605 1b24 8A050000 		.4byte	.LVL316
 9606 1b28 CA080000 		.4byte	0x8ca
 9607 1b2c 3C1B0000 		.4byte	0x1b3c
 9608 1b30 09       		.uleb128 0x9
 9609 1b31 01       		.uleb128 0x1
 9610 1b32 50       		.byte	0x50
 9611 1b33 02       		.uleb128 0x2
 9612 1b34 08       		.byte	0x8
 9613 1b35 7C       		.byte	0x7c
 9614 1b36 09       		.uleb128 0x9
 9615 1b37 01       		.uleb128 0x1
 9616 1b38 51       		.byte	0x51
 9617 1b39 01       		.uleb128 0x1
 9618 1b3a 30       		.byte	0x30
 9619 1b3b 00       		.byte	0
 9620 1b3c 08       		.uleb128 0x8
 9621 1b3d 92050000 		.4byte	.LVL317
 9622 1b41 CA080000 		.4byte	0x8ca
 9623 1b45 551B0000 		.4byte	0x1b55
 9624 1b49 09       		.uleb128 0x9
 9625 1b4a 01       		.uleb128 0x1
 9626 1b4b 50       		.byte	0x50
 9627 1b4c 02       		.uleb128 0x2
 9628 1b4d 08       		.byte	0x8
 9629 1b4e 21       		.byte	0x21
 9630 1b4f 09       		.uleb128 0x9
 9631 1b50 01       		.uleb128 0x1
 9632 1b51 51       		.byte	0x51
 9633 1b52 01       		.uleb128 0x1
 9634 1b53 30       		.byte	0x30
 9635 1b54 00       		.byte	0
 9636 1b55 08       		.uleb128 0x8
 9637 1b56 9A050000 		.4byte	.LVL318
 9638 1b5a CA080000 		.4byte	0x8ca
 9639 1b5e 6E1B0000 		.4byte	0x1b6e
 9640 1b62 09       		.uleb128 0x9
 9641 1b63 01       		.uleb128 0x1
 9642 1b64 50       		.byte	0x50
 9643 1b65 02       		.uleb128 0x2
 9644 1b66 08       		.byte	0x8
 9645 1b67 25       		.byte	0x25
 9646 1b68 09       		.uleb128 0x9
 9647 1b69 01       		.uleb128 0x1
ARM GAS  C:\Users\Revanth\AppData\Local\Temp\ccqs06ys.s 			page 212


 9648 1b6a 51       		.byte	0x51
 9649 1b6b 01       		.uleb128 0x1
 9650 1b6c 30       		.byte	0x30
 9651 1b6d 00       		.byte	0
 9652 1b6e 08       		.uleb128 0x8
 9653 1b6f A2050000 		.4byte	.LVL319
 9654 1b73 CA080000 		.4byte	0x8ca
 9655 1b77 871B0000 		.4byte	0x1b87
 9656 1b7b 09       		.uleb128 0x9
 9657 1b7c 01       		.uleb128 0x1
 9658 1b7d 50       		.byte	0x50
 9659 1b7e 02       		.uleb128 0x2
 9660 1b7f 08       		.byte	0x8
 9661 1b80 29       		.byte	0x29
 9662 1b81 09       		.uleb128 0x9
 9663 1b82 01       		.uleb128 0x1
 9664 1b83 51       		.byte	0x51
 9665 1b84 01       		.uleb128 0x1
 9666 1b85 30       		.byte	0x30
 9667 1b86 00       		.byte	0
 9668 1b87 08       		.uleb128 0x8
 9669 1b88 AA050000 		.4byte	.LVL320
 9670 1b8c CA080000 		.4byte	0x8ca
 9671 1b90 A01B0000 		.4byte	0x1ba0
 9672 1b94 09       		.uleb128 0x9
 9673 1b95 01       		.uleb128 0x1
 9674 1b96 50       		.byte	0x50
 9675 1b97 02       		.uleb128 0x2
 9676 1b98 08       		.byte	0x8
 9677 1b99 2D       		.byte	0x2d
 9678 1b9a 09       		.uleb128 0x9
 9679 1b9b 01       		.uleb128 0x1
 9680 1b9c 51       		.byte	0x51
 9681 1b9d 01       		.uleb128 0x1
 9682 1b9e 30       		.byte	0x30
 9683 1b9f 00       		.byte	0
 9684 1ba0 08       		.uleb128 0x8
 9685 1ba1 B2050000 		.4byte	.LVL321
 9686 1ba5 CA080000 		.4byte	0x8ca
 9687 1ba9 B91B0000 		.4byte	0x1bb9
 9688 1bad 09       		.uleb128 0x9
 9689 1bae 01       		.uleb128 0x1
 9690 1baf 50       		.byte	0x50
 9691 1bb0 02       		.uleb128 0x2
 9692 1bb1 08       		.byte	0x8
 9693 1bb2 31       		.byte	0x31
 9694 1bb3 09       		.uleb128 0x9
 9695 1bb4 01       		.uleb128 0x1
 9696 1bb5 51       		.byte	0x51
 9697 1bb6 01       		.uleb128 0x1
 9698 1bb7 30       		.byte	0x30
 9699 1bb8 00       		.byte	0
 9700 1bb9 08       		.uleb128 0x8
 9701 1bba BA050000 		.4byte	.LVL322
 9702 1bbe CA080000 		.4byte	0x8ca
 9703 1bc2 D21B0000 		.4byte	0x1bd2
 9704 1bc6 09       		.uleb128 0x9
ARM GAS  C:\Users\Revanth\AppData\Local\Temp\ccqs06ys.s 			page 213


 9705 1bc7 01       		.uleb128 0x1
 9706 1bc8 50       		.byte	0x50
 9707 1bc9 02       		.uleb128 0x2
 9708 1bca 08       		.byte	0x8
 9709 1bcb 35       		.byte	0x35
 9710 1bcc 09       		.uleb128 0x9
 9711 1bcd 01       		.uleb128 0x1
 9712 1bce 51       		.byte	0x51
 9713 1bcf 01       		.uleb128 0x1
 9714 1bd0 30       		.byte	0x30
 9715 1bd1 00       		.byte	0
 9716 1bd2 08       		.uleb128 0x8
 9717 1bd3 C2050000 		.4byte	.LVL323
 9718 1bd7 CA080000 		.4byte	0x8ca
 9719 1bdb EB1B0000 		.4byte	0x1beb
 9720 1bdf 09       		.uleb128 0x9
 9721 1be0 01       		.uleb128 0x1
 9722 1be1 50       		.byte	0x50
 9723 1be2 02       		.uleb128 0x2
 9724 1be3 08       		.byte	0x8
 9725 1be4 39       		.byte	0x39
 9726 1be5 09       		.uleb128 0x9
 9727 1be6 01       		.uleb128 0x1
 9728 1be7 51       		.byte	0x51
 9729 1be8 01       		.uleb128 0x1
 9730 1be9 30       		.byte	0x30
 9731 1bea 00       		.byte	0
 9732 1beb 08       		.uleb128 0x8
 9733 1bec CA050000 		.4byte	.LVL324
 9734 1bf0 CA080000 		.4byte	0x8ca
 9735 1bf4 041C0000 		.4byte	0x1c04
 9736 1bf8 09       		.uleb128 0x9
 9737 1bf9 01       		.uleb128 0x1
 9738 1bfa 50       		.byte	0x50
 9739 1bfb 02       		.uleb128 0x2
 9740 1bfc 08       		.byte	0x8
 9741 1bfd 3D       		.byte	0x3d
 9742 1bfe 09       		.uleb128 0x9
 9743 1bff 01       		.uleb128 0x1
 9744 1c00 51       		.byte	0x51
 9745 1c01 01       		.uleb128 0x1
 9746 1c02 30       		.byte	0x30
 9747 1c03 00       		.byte	0
 9748 1c04 08       		.uleb128 0x8
 9749 1c05 D2050000 		.4byte	.LVL325
 9750 1c09 CA080000 		.4byte	0x8ca
 9751 1c0d 1D1C0000 		.4byte	0x1c1d
 9752 1c11 09       		.uleb128 0x9
 9753 1c12 01       		.uleb128 0x1
 9754 1c13 50       		.byte	0x50
 9755 1c14 02       		.uleb128 0x2
 9756 1c15 08       		.byte	0x8
 9757 1c16 41       		.byte	0x41
 9758 1c17 09       		.uleb128 0x9
 9759 1c18 01       		.uleb128 0x1
 9760 1c19 51       		.byte	0x51
 9761 1c1a 01       		.uleb128 0x1
ARM GAS  C:\Users\Revanth\AppData\Local\Temp\ccqs06ys.s 			page 214


 9762 1c1b 30       		.byte	0x30
 9763 1c1c 00       		.byte	0
 9764 1c1d 08       		.uleb128 0x8
 9765 1c1e DA050000 		.4byte	.LVL326
 9766 1c22 CA080000 		.4byte	0x8ca
 9767 1c26 361C0000 		.4byte	0x1c36
 9768 1c2a 09       		.uleb128 0x9
 9769 1c2b 01       		.uleb128 0x1
 9770 1c2c 50       		.byte	0x50
 9771 1c2d 02       		.uleb128 0x2
 9772 1c2e 08       		.byte	0x8
 9773 1c2f 45       		.byte	0x45
 9774 1c30 09       		.uleb128 0x9
 9775 1c31 01       		.uleb128 0x1
 9776 1c32 51       		.byte	0x51
 9777 1c33 01       		.uleb128 0x1
 9778 1c34 30       		.byte	0x30
 9779 1c35 00       		.byte	0
 9780 1c36 08       		.uleb128 0x8
 9781 1c37 E2050000 		.4byte	.LVL327
 9782 1c3b CA080000 		.4byte	0x8ca
 9783 1c3f 4F1C0000 		.4byte	0x1c4f
 9784 1c43 09       		.uleb128 0x9
 9785 1c44 01       		.uleb128 0x1
 9786 1c45 50       		.byte	0x50
 9787 1c46 02       		.uleb128 0x2
 9788 1c47 08       		.byte	0x8
 9789 1c48 49       		.byte	0x49
 9790 1c49 09       		.uleb128 0x9
 9791 1c4a 01       		.uleb128 0x1
 9792 1c4b 51       		.byte	0x51
 9793 1c4c 01       		.uleb128 0x1
 9794 1c4d 30       		.byte	0x30
 9795 1c4e 00       		.byte	0
 9796 1c4f 08       		.uleb128 0x8
 9797 1c50 EA050000 		.4byte	.LVL328
 9798 1c54 CA080000 		.4byte	0x8ca
 9799 1c58 681C0000 		.4byte	0x1c68
 9800 1c5c 09       		.uleb128 0x9
 9801 1c5d 01       		.uleb128 0x1
 9802 1c5e 50       		.byte	0x50
 9803 1c5f 02       		.uleb128 0x2
 9804 1c60 08       		.byte	0x8
 9805 1c61 4D       		.byte	0x4d
 9806 1c62 09       		.uleb128 0x9
 9807 1c63 01       		.uleb128 0x1
 9808 1c64 51       		.byte	0x51
 9809 1c65 01       		.uleb128 0x1
 9810 1c66 30       		.byte	0x30
 9811 1c67 00       		.byte	0
 9812 1c68 08       		.uleb128 0x8
 9813 1c69 F2050000 		.4byte	.LVL329
 9814 1c6d CA080000 		.4byte	0x8ca
 9815 1c71 811C0000 		.4byte	0x1c81
 9816 1c75 09       		.uleb128 0x9
 9817 1c76 01       		.uleb128 0x1
 9818 1c77 50       		.byte	0x50
ARM GAS  C:\Users\Revanth\AppData\Local\Temp\ccqs06ys.s 			page 215


 9819 1c78 02       		.uleb128 0x2
 9820 1c79 08       		.byte	0x8
 9821 1c7a 51       		.byte	0x51
 9822 1c7b 09       		.uleb128 0x9
 9823 1c7c 01       		.uleb128 0x1
 9824 1c7d 51       		.byte	0x51
 9825 1c7e 01       		.uleb128 0x1
 9826 1c7f 30       		.byte	0x30
 9827 1c80 00       		.byte	0
 9828 1c81 08       		.uleb128 0x8
 9829 1c82 FA050000 		.4byte	.LVL330
 9830 1c86 CA080000 		.4byte	0x8ca
 9831 1c8a 9A1C0000 		.4byte	0x1c9a
 9832 1c8e 09       		.uleb128 0x9
 9833 1c8f 01       		.uleb128 0x1
 9834 1c90 50       		.byte	0x50
 9835 1c91 02       		.uleb128 0x2
 9836 1c92 08       		.byte	0x8
 9837 1c93 55       		.byte	0x55
 9838 1c94 09       		.uleb128 0x9
 9839 1c95 01       		.uleb128 0x1
 9840 1c96 51       		.byte	0x51
 9841 1c97 01       		.uleb128 0x1
 9842 1c98 30       		.byte	0x30
 9843 1c99 00       		.byte	0
 9844 1c9a 08       		.uleb128 0x8
 9845 1c9b 02060000 		.4byte	.LVL331
 9846 1c9f CA080000 		.4byte	0x8ca
 9847 1ca3 B31C0000 		.4byte	0x1cb3
 9848 1ca7 09       		.uleb128 0x9
 9849 1ca8 01       		.uleb128 0x1
 9850 1ca9 50       		.byte	0x50
 9851 1caa 02       		.uleb128 0x2
 9852 1cab 08       		.byte	0x8
 9853 1cac 59       		.byte	0x59
 9854 1cad 09       		.uleb128 0x9
 9855 1cae 01       		.uleb128 0x1
 9856 1caf 51       		.byte	0x51
 9857 1cb0 01       		.uleb128 0x1
 9858 1cb1 30       		.byte	0x30
 9859 1cb2 00       		.byte	0
 9860 1cb3 08       		.uleb128 0x8
 9861 1cb4 0A060000 		.4byte	.LVL332
 9862 1cb8 CA080000 		.4byte	0x8ca
 9863 1cbc CC1C0000 		.4byte	0x1ccc
 9864 1cc0 09       		.uleb128 0x9
 9865 1cc1 01       		.uleb128 0x1
 9866 1cc2 50       		.byte	0x50
 9867 1cc3 02       		.uleb128 0x2
 9868 1cc4 08       		.byte	0x8
 9869 1cc5 5D       		.byte	0x5d
 9870 1cc6 09       		.uleb128 0x9
 9871 1cc7 01       		.uleb128 0x1
 9872 1cc8 51       		.byte	0x51
 9873 1cc9 01       		.uleb128 0x1
 9874 1cca 30       		.byte	0x30
 9875 1ccb 00       		.byte	0
ARM GAS  C:\Users\Revanth\AppData\Local\Temp\ccqs06ys.s 			page 216


 9876 1ccc 08       		.uleb128 0x8
 9877 1ccd 12060000 		.4byte	.LVL333
 9878 1cd1 CA080000 		.4byte	0x8ca
 9879 1cd5 E51C0000 		.4byte	0x1ce5
 9880 1cd9 09       		.uleb128 0x9
 9881 1cda 01       		.uleb128 0x1
 9882 1cdb 50       		.byte	0x50
 9883 1cdc 02       		.uleb128 0x2
 9884 1cdd 08       		.byte	0x8
 9885 1cde 61       		.byte	0x61
 9886 1cdf 09       		.uleb128 0x9
 9887 1ce0 01       		.uleb128 0x1
 9888 1ce1 51       		.byte	0x51
 9889 1ce2 01       		.uleb128 0x1
 9890 1ce3 30       		.byte	0x30
 9891 1ce4 00       		.byte	0
 9892 1ce5 08       		.uleb128 0x8
 9893 1ce6 1A060000 		.4byte	.LVL334
 9894 1cea CA080000 		.4byte	0x8ca
 9895 1cee FE1C0000 		.4byte	0x1cfe
 9896 1cf2 09       		.uleb128 0x9
 9897 1cf3 01       		.uleb128 0x1
 9898 1cf4 50       		.byte	0x50
 9899 1cf5 02       		.uleb128 0x2
 9900 1cf6 08       		.byte	0x8
 9901 1cf7 65       		.byte	0x65
 9902 1cf8 09       		.uleb128 0x9
 9903 1cf9 01       		.uleb128 0x1
 9904 1cfa 51       		.byte	0x51
 9905 1cfb 01       		.uleb128 0x1
 9906 1cfc 30       		.byte	0x30
 9907 1cfd 00       		.byte	0
 9908 1cfe 08       		.uleb128 0x8
 9909 1cff 22060000 		.4byte	.LVL335
 9910 1d03 CA080000 		.4byte	0x8ca
 9911 1d07 171D0000 		.4byte	0x1d17
 9912 1d0b 09       		.uleb128 0x9
 9913 1d0c 01       		.uleb128 0x1
 9914 1d0d 50       		.byte	0x50
 9915 1d0e 02       		.uleb128 0x2
 9916 1d0f 08       		.byte	0x8
 9917 1d10 69       		.byte	0x69
 9918 1d11 09       		.uleb128 0x9
 9919 1d12 01       		.uleb128 0x1
 9920 1d13 51       		.byte	0x51
 9921 1d14 01       		.uleb128 0x1
 9922 1d15 30       		.byte	0x30
 9923 1d16 00       		.byte	0
 9924 1d17 08       		.uleb128 0x8
 9925 1d18 2A060000 		.4byte	.LVL336
 9926 1d1c CA080000 		.4byte	0x8ca
 9927 1d20 301D0000 		.4byte	0x1d30
 9928 1d24 09       		.uleb128 0x9
 9929 1d25 01       		.uleb128 0x1
 9930 1d26 50       		.byte	0x50
 9931 1d27 02       		.uleb128 0x2
 9932 1d28 08       		.byte	0x8
ARM GAS  C:\Users\Revanth\AppData\Local\Temp\ccqs06ys.s 			page 217


 9933 1d29 6D       		.byte	0x6d
 9934 1d2a 09       		.uleb128 0x9
 9935 1d2b 01       		.uleb128 0x1
 9936 1d2c 51       		.byte	0x51
 9937 1d2d 01       		.uleb128 0x1
 9938 1d2e 30       		.byte	0x30
 9939 1d2f 00       		.byte	0
 9940 1d30 08       		.uleb128 0x8
 9941 1d31 32060000 		.4byte	.LVL337
 9942 1d35 CA080000 		.4byte	0x8ca
 9943 1d39 491D0000 		.4byte	0x1d49
 9944 1d3d 09       		.uleb128 0x9
 9945 1d3e 01       		.uleb128 0x1
 9946 1d3f 50       		.byte	0x50
 9947 1d40 02       		.uleb128 0x2
 9948 1d41 08       		.byte	0x8
 9949 1d42 71       		.byte	0x71
 9950 1d43 09       		.uleb128 0x9
 9951 1d44 01       		.uleb128 0x1
 9952 1d45 51       		.byte	0x51
 9953 1d46 01       		.uleb128 0x1
 9954 1d47 30       		.byte	0x30
 9955 1d48 00       		.byte	0
 9956 1d49 08       		.uleb128 0x8
 9957 1d4a 3A060000 		.4byte	.LVL338
 9958 1d4e CA080000 		.4byte	0x8ca
 9959 1d52 621D0000 		.4byte	0x1d62
 9960 1d56 09       		.uleb128 0x9
 9961 1d57 01       		.uleb128 0x1
 9962 1d58 50       		.byte	0x50
 9963 1d59 02       		.uleb128 0x2
 9964 1d5a 08       		.byte	0x8
 9965 1d5b 75       		.byte	0x75
 9966 1d5c 09       		.uleb128 0x9
 9967 1d5d 01       		.uleb128 0x1
 9968 1d5e 51       		.byte	0x51
 9969 1d5f 01       		.uleb128 0x1
 9970 1d60 30       		.byte	0x30
 9971 1d61 00       		.byte	0
 9972 1d62 08       		.uleb128 0x8
 9973 1d63 42060000 		.4byte	.LVL339
 9974 1d67 CA080000 		.4byte	0x8ca
 9975 1d6b 7B1D0000 		.4byte	0x1d7b
 9976 1d6f 09       		.uleb128 0x9
 9977 1d70 01       		.uleb128 0x1
 9978 1d71 50       		.byte	0x50
 9979 1d72 02       		.uleb128 0x2
 9980 1d73 08       		.byte	0x8
 9981 1d74 79       		.byte	0x79
 9982 1d75 09       		.uleb128 0x9
 9983 1d76 01       		.uleb128 0x1
 9984 1d77 51       		.byte	0x51
 9985 1d78 01       		.uleb128 0x1
 9986 1d79 30       		.byte	0x30
 9987 1d7a 00       		.byte	0
 9988 1d7b 08       		.uleb128 0x8
 9989 1d7c 4A060000 		.4byte	.LVL340
ARM GAS  C:\Users\Revanth\AppData\Local\Temp\ccqs06ys.s 			page 218


 9990 1d80 CA080000 		.4byte	0x8ca
 9991 1d84 941D0000 		.4byte	0x1d94
 9992 1d88 09       		.uleb128 0x9
 9993 1d89 01       		.uleb128 0x1
 9994 1d8a 50       		.byte	0x50
 9995 1d8b 02       		.uleb128 0x2
 9996 1d8c 08       		.byte	0x8
 9997 1d8d 7D       		.byte	0x7d
 9998 1d8e 09       		.uleb128 0x9
 9999 1d8f 01       		.uleb128 0x1
 10000 1d90 51       		.byte	0x51
 10001 1d91 01       		.uleb128 0x1
 10002 1d92 30       		.byte	0x30
 10003 1d93 00       		.byte	0
 10004 1d94 0A       		.uleb128 0xa
 10005 1d95 50060000 		.4byte	.LVL341
 10006 1d99 D85F0000 		.4byte	0x5fd8
 10007 1d9d 09       		.uleb128 0x9
 10008 1d9e 01       		.uleb128 0x1
 10009 1d9f 50       		.byte	0x50
 10010 1da0 01       		.uleb128 0x1
 10011 1da1 30       		.byte	0x30
 10012 1da2 00       		.byte	0
 10013 1da3 00       		.byte	0
 10014 1da4 06       		.uleb128 0x6
 10015 1da5 56020000 		.4byte	.LASF43
 10016 1da9 01       		.byte	0x1
 10017 1daa 3D05     		.2byte	0x53d
 10018 1dac 00000000 		.4byte	.LFB83
 10019 1db0 1C000000 		.4byte	.LFE83-.LFB83
 10020 1db4 01       		.uleb128 0x1
 10021 1db5 9C       		.byte	0x9c
 10022 1db6 031E0000 		.4byte	0x1e03
 10023 1dba 08       		.uleb128 0x8
 10024 1dbb 08000000 		.4byte	.LVL342
 10025 1dbf E35F0000 		.4byte	0x5fe3
 10026 1dc3 CD1D0000 		.4byte	0x1dcd
 10027 1dc7 09       		.uleb128 0x9
 10028 1dc8 01       		.uleb128 0x1
 10029 1dc9 50       		.byte	0x50
 10030 1dca 01       		.uleb128 0x1
 10031 1dcb 30       		.byte	0x30
 10032 1dcc 00       		.byte	0
 10033 1dcd 08       		.uleb128 0x8
 10034 1dce 0E000000 		.4byte	.LVL343
 10035 1dd2 A15F0000 		.4byte	0x5fa1
 10036 1dd6 E01D0000 		.4byte	0x1de0
 10037 1dda 09       		.uleb128 0x9
 10038 1ddb 01       		.uleb128 0x1
 10039 1ddc 50       		.byte	0x50
 10040 1ddd 01       		.uleb128 0x1
 10041 1dde 31       		.byte	0x31
 10042 1ddf 00       		.byte	0
 10043 1de0 08       		.uleb128 0x8
 10044 1de1 14000000 		.4byte	.LVL344
 10045 1de5 E35F0000 		.4byte	0x5fe3
 10046 1de9 F31D0000 		.4byte	0x1df3
ARM GAS  C:\Users\Revanth\AppData\Local\Temp\ccqs06ys.s 			page 219


 10047 1ded 09       		.uleb128 0x9
 10048 1dee 01       		.uleb128 0x1
 10049 1def 50       		.byte	0x50
 10050 1df0 01       		.uleb128 0x1
 10051 1df1 31       		.byte	0x31
 10052 1df2 00       		.byte	0
 10053 1df3 0A       		.uleb128 0xa
 10054 1df4 1A000000 		.4byte	.LVL345
 10055 1df8 A15F0000 		.4byte	0x5fa1
 10056 1dfc 09       		.uleb128 0x9
 10057 1dfd 01       		.uleb128 0x1
 10058 1dfe 50       		.byte	0x50
 10059 1dff 01       		.uleb128 0x1
 10060 1e00 31       		.byte	0x31
 10061 1e01 00       		.byte	0
 10062 1e02 00       		.byte	0
 10063 1e03 0B       		.uleb128 0xb
 10064 1e04 73000000 		.4byte	.LASF44
 10065 1e08 01       		.byte	0x1
 10066 1e09 8A       		.byte	0x8a
 10067 1e0a 00000000 		.4byte	.LFB71
 10068 1e0e 18000000 		.4byte	.LFE71-.LFB71
 10069 1e12 01       		.uleb128 0x1
 10070 1e13 9C       		.byte	0x9c
 10071 1e14 461E0000 		.4byte	0x1e46
 10072 1e18 0E       		.uleb128 0xe
 10073 1e19 06000000 		.4byte	.LVL346
 10074 1e1d A41D0000 		.4byte	0x1da4
 10075 1e21 0E       		.uleb128 0xe
 10076 1e22 0A000000 		.4byte	.LVL347
 10077 1e26 FF020000 		.4byte	0x2ff
 10078 1e2a 0E       		.uleb128 0xe
 10079 1e2b 0E000000 		.4byte	.LVL348
 10080 1e2f 1C050000 		.4byte	0x51c
 10081 1e33 0E       		.uleb128 0xe
 10082 1e34 12000000 		.4byte	.LVL349
 10083 1e38 39070000 		.4byte	0x739
 10084 1e3c 0E       		.uleb128 0xe
 10085 1e3d 16000000 		.4byte	.LVL350
 10086 1e41 59090000 		.4byte	0x959
 10087 1e45 00       		.byte	0
 10088 1e46 06       		.uleb128 0x6
 10089 1e47 3B020000 		.4byte	.LASF45
 10090 1e4b 01       		.byte	0x1
 10091 1e4c 2201     		.2byte	0x122
 10092 1e4e 00000000 		.4byte	.LFB80
 10093 1e52 E6140000 		.4byte	.LFE80-.LFB80
 10094 1e56 01       		.uleb128 0x1
 10095 1e57 9C       		.byte	0x9c
 10096 1e58 175F0000 		.4byte	0x5f17
 10097 1e5c 11       		.uleb128 0x11
 10098 1e5d 42726700 		.ascii	"Brg\000"
 10099 1e61 01       		.byte	0x1
 10100 1e62 2201     		.2byte	0x122
 10101 1e64 8C000000 		.4byte	0x8c
 10102 1e68 76030000 		.4byte	.LLST21
 10103 1e6c 11       		.uleb128 0x11
ARM GAS  C:\Users\Revanth\AppData\Local\Temp\ccqs06ys.s 			page 220


 10104 1e6d 53656C00 		.ascii	"Sel\000"
 10105 1e71 01       		.byte	0x1
 10106 1e72 2201     		.2byte	0x122
 10107 1e74 8C000000 		.4byte	0x8c
 10108 1e78 97030000 		.4byte	.LLST22
 10109 1e7c 0E       		.uleb128 0xe
 10110 1e7d 0A000000 		.4byte	.LVL352
 10111 1e81 031E0000 		.4byte	0x1e03
 10112 1e85 08       		.uleb128 0x8
 10113 1e86 10000000 		.4byte	.LVL353
 10114 1e8a A15F0000 		.4byte	0x5fa1
 10115 1e8e 981E0000 		.4byte	0x1e98
 10116 1e92 09       		.uleb128 0x9
 10117 1e93 01       		.uleb128 0x1
 10118 1e94 50       		.byte	0x50
 10119 1e95 01       		.uleb128 0x1
 10120 1e96 31       		.byte	0x31
 10121 1e97 00       		.byte	0
 10122 1e98 08       		.uleb128 0x8
 10123 1e99 1C000000 		.4byte	.LVL354
 10124 1e9d B75F0000 		.4byte	0x5fb7
 10125 1ea1 AB1E0000 		.4byte	0x1eab
 10126 1ea5 09       		.uleb128 0x9
 10127 1ea6 01       		.uleb128 0x1
 10128 1ea7 50       		.byte	0x50
 10129 1ea8 01       		.uleb128 0x1
 10130 1ea9 31       		.byte	0x31
 10131 1eaa 00       		.byte	0
 10132 1eab 08       		.uleb128 0x8
 10133 1eac 22000000 		.4byte	.LVL355
 10134 1eb0 A6020000 		.4byte	0x2a6
 10135 1eb4 BE1E0000 		.4byte	0x1ebe
 10136 1eb8 09       		.uleb128 0x9
 10137 1eb9 01       		.uleb128 0x1
 10138 1eba 50       		.byte	0x50
 10139 1ebb 01       		.uleb128 0x1
 10140 1ebc 31       		.byte	0x31
 10141 1ebd 00       		.byte	0
 10142 1ebe 08       		.uleb128 0x8
 10143 1ebf 2A000000 		.4byte	.LVL356
 10144 1ec3 69020000 		.4byte	0x269
 10145 1ec7 D71E0000 		.4byte	0x1ed7
 10146 1ecb 09       		.uleb128 0x9
 10147 1ecc 01       		.uleb128 0x1
 10148 1ecd 50       		.byte	0x50
 10149 1ece 02       		.uleb128 0x2
 10150 1ecf 08       		.byte	0x8
 10151 1ed0 20       		.byte	0x20
 10152 1ed1 09       		.uleb128 0x9
 10153 1ed2 01       		.uleb128 0x1
 10154 1ed3 51       		.byte	0x51
 10155 1ed4 01       		.uleb128 0x1
 10156 1ed5 30       		.byte	0x30
 10157 1ed6 00       		.byte	0
 10158 1ed7 08       		.uleb128 0x8
 10159 1ed8 32000000 		.4byte	.LVL357
 10160 1edc 69020000 		.4byte	0x269
ARM GAS  C:\Users\Revanth\AppData\Local\Temp\ccqs06ys.s 			page 221


 10161 1ee0 F01E0000 		.4byte	0x1ef0
 10162 1ee4 09       		.uleb128 0x9
 10163 1ee5 01       		.uleb128 0x1
 10164 1ee6 50       		.byte	0x50
 10165 1ee7 02       		.uleb128 0x2
 10166 1ee8 08       		.byte	0x8
 10167 1ee9 24       		.byte	0x24
 10168 1eea 09       		.uleb128 0x9
 10169 1eeb 01       		.uleb128 0x1
 10170 1eec 51       		.byte	0x51
 10171 1eed 01       		.uleb128 0x1
 10172 1eee 30       		.byte	0x30
 10173 1eef 00       		.byte	0
 10174 1ef0 08       		.uleb128 0x8
 10175 1ef1 3A000000 		.4byte	.LVL358
 10176 1ef5 69020000 		.4byte	0x269
 10177 1ef9 091F0000 		.4byte	0x1f09
 10178 1efd 09       		.uleb128 0x9
 10179 1efe 01       		.uleb128 0x1
 10180 1eff 50       		.byte	0x50
 10181 1f00 02       		.uleb128 0x2
 10182 1f01 08       		.byte	0x8
 10183 1f02 28       		.byte	0x28
 10184 1f03 09       		.uleb128 0x9
 10185 1f04 01       		.uleb128 0x1
 10186 1f05 51       		.byte	0x51
 10187 1f06 01       		.uleb128 0x1
 10188 1f07 30       		.byte	0x30
 10189 1f08 00       		.byte	0
 10190 1f09 08       		.uleb128 0x8
 10191 1f0a 42000000 		.4byte	.LVL359
 10192 1f0e 69020000 		.4byte	0x269
 10193 1f12 221F0000 		.4byte	0x1f22
 10194 1f16 09       		.uleb128 0x9
 10195 1f17 01       		.uleb128 0x1
 10196 1f18 50       		.byte	0x50
 10197 1f19 02       		.uleb128 0x2
 10198 1f1a 08       		.byte	0x8
 10199 1f1b 2C       		.byte	0x2c
 10200 1f1c 09       		.uleb128 0x9
 10201 1f1d 01       		.uleb128 0x1
 10202 1f1e 51       		.byte	0x51
 10203 1f1f 01       		.uleb128 0x1
 10204 1f20 30       		.byte	0x30
 10205 1f21 00       		.byte	0
 10206 1f22 08       		.uleb128 0x8
 10207 1f23 4A000000 		.4byte	.LVL360
 10208 1f27 69020000 		.4byte	0x269
 10209 1f2b 3B1F0000 		.4byte	0x1f3b
 10210 1f2f 09       		.uleb128 0x9
 10211 1f30 01       		.uleb128 0x1
 10212 1f31 50       		.byte	0x50
 10213 1f32 02       		.uleb128 0x2
 10214 1f33 08       		.byte	0x8
 10215 1f34 30       		.byte	0x30
 10216 1f35 09       		.uleb128 0x9
 10217 1f36 01       		.uleb128 0x1
ARM GAS  C:\Users\Revanth\AppData\Local\Temp\ccqs06ys.s 			page 222


 10218 1f37 51       		.byte	0x51
 10219 1f38 01       		.uleb128 0x1
 10220 1f39 30       		.byte	0x30
 10221 1f3a 00       		.byte	0
 10222 1f3b 08       		.uleb128 0x8
 10223 1f3c 52000000 		.4byte	.LVL361
 10224 1f40 69020000 		.4byte	0x269
 10225 1f44 541F0000 		.4byte	0x1f54
 10226 1f48 09       		.uleb128 0x9
 10227 1f49 01       		.uleb128 0x1
 10228 1f4a 50       		.byte	0x50
 10229 1f4b 02       		.uleb128 0x2
 10230 1f4c 08       		.byte	0x8
 10231 1f4d 34       		.byte	0x34
 10232 1f4e 09       		.uleb128 0x9
 10233 1f4f 01       		.uleb128 0x1
 10234 1f50 51       		.byte	0x51
 10235 1f51 01       		.uleb128 0x1
 10236 1f52 30       		.byte	0x30
 10237 1f53 00       		.byte	0
 10238 1f54 08       		.uleb128 0x8
 10239 1f55 5A000000 		.4byte	.LVL362
 10240 1f59 69020000 		.4byte	0x269
 10241 1f5d 6D1F0000 		.4byte	0x1f6d
 10242 1f61 09       		.uleb128 0x9
 10243 1f62 01       		.uleb128 0x1
 10244 1f63 50       		.byte	0x50
 10245 1f64 02       		.uleb128 0x2
 10246 1f65 08       		.byte	0x8
 10247 1f66 38       		.byte	0x38
 10248 1f67 09       		.uleb128 0x9
 10249 1f68 01       		.uleb128 0x1
 10250 1f69 51       		.byte	0x51
 10251 1f6a 01       		.uleb128 0x1
 10252 1f6b 30       		.byte	0x30
 10253 1f6c 00       		.byte	0
 10254 1f6d 08       		.uleb128 0x8
 10255 1f6e 62000000 		.4byte	.LVL363
 10256 1f72 69020000 		.4byte	0x269
 10257 1f76 861F0000 		.4byte	0x1f86
 10258 1f7a 09       		.uleb128 0x9
 10259 1f7b 01       		.uleb128 0x1
 10260 1f7c 50       		.byte	0x50
 10261 1f7d 02       		.uleb128 0x2
 10262 1f7e 08       		.byte	0x8
 10263 1f7f 3C       		.byte	0x3c
 10264 1f80 09       		.uleb128 0x9
 10265 1f81 01       		.uleb128 0x1
 10266 1f82 51       		.byte	0x51
 10267 1f83 01       		.uleb128 0x1
 10268 1f84 30       		.byte	0x30
 10269 1f85 00       		.byte	0
 10270 1f86 08       		.uleb128 0x8
 10271 1f87 6A000000 		.4byte	.LVL364
 10272 1f8b 69020000 		.4byte	0x269
 10273 1f8f 9F1F0000 		.4byte	0x1f9f
 10274 1f93 09       		.uleb128 0x9
ARM GAS  C:\Users\Revanth\AppData\Local\Temp\ccqs06ys.s 			page 223


 10275 1f94 01       		.uleb128 0x1
 10276 1f95 50       		.byte	0x50
 10277 1f96 02       		.uleb128 0x2
 10278 1f97 08       		.byte	0x8
 10279 1f98 40       		.byte	0x40
 10280 1f99 09       		.uleb128 0x9
 10281 1f9a 01       		.uleb128 0x1
 10282 1f9b 51       		.byte	0x51
 10283 1f9c 01       		.uleb128 0x1
 10284 1f9d 30       		.byte	0x30
 10285 1f9e 00       		.byte	0
 10286 1f9f 08       		.uleb128 0x8
 10287 1fa0 72000000 		.4byte	.LVL365
 10288 1fa4 69020000 		.4byte	0x269
 10289 1fa8 B81F0000 		.4byte	0x1fb8
 10290 1fac 09       		.uleb128 0x9
 10291 1fad 01       		.uleb128 0x1
 10292 1fae 50       		.byte	0x50
 10293 1faf 02       		.uleb128 0x2
 10294 1fb0 08       		.byte	0x8
 10295 1fb1 44       		.byte	0x44
 10296 1fb2 09       		.uleb128 0x9
 10297 1fb3 01       		.uleb128 0x1
 10298 1fb4 51       		.byte	0x51
 10299 1fb5 01       		.uleb128 0x1
 10300 1fb6 30       		.byte	0x30
 10301 1fb7 00       		.byte	0
 10302 1fb8 08       		.uleb128 0x8
 10303 1fb9 7A000000 		.4byte	.LVL366
 10304 1fbd 69020000 		.4byte	0x269
 10305 1fc1 D11F0000 		.4byte	0x1fd1
 10306 1fc5 09       		.uleb128 0x9
 10307 1fc6 01       		.uleb128 0x1
 10308 1fc7 50       		.byte	0x50
 10309 1fc8 02       		.uleb128 0x2
 10310 1fc9 08       		.byte	0x8
 10311 1fca 48       		.byte	0x48
 10312 1fcb 09       		.uleb128 0x9
 10313 1fcc 01       		.uleb128 0x1
 10314 1fcd 51       		.byte	0x51
 10315 1fce 01       		.uleb128 0x1
 10316 1fcf 31       		.byte	0x31
 10317 1fd0 00       		.byte	0
 10318 1fd1 08       		.uleb128 0x8
 10319 1fd2 82000000 		.4byte	.LVL367
 10320 1fd6 69020000 		.4byte	0x269
 10321 1fda EA1F0000 		.4byte	0x1fea
 10322 1fde 09       		.uleb128 0x9
 10323 1fdf 01       		.uleb128 0x1
 10324 1fe0 50       		.byte	0x50
 10325 1fe1 02       		.uleb128 0x2
 10326 1fe2 08       		.byte	0x8
 10327 1fe3 4C       		.byte	0x4c
 10328 1fe4 09       		.uleb128 0x9
 10329 1fe5 01       		.uleb128 0x1
 10330 1fe6 51       		.byte	0x51
 10331 1fe7 01       		.uleb128 0x1
ARM GAS  C:\Users\Revanth\AppData\Local\Temp\ccqs06ys.s 			page 224


 10332 1fe8 30       		.byte	0x30
 10333 1fe9 00       		.byte	0
 10334 1fea 08       		.uleb128 0x8
 10335 1feb 8A000000 		.4byte	.LVL368
 10336 1fef 69020000 		.4byte	0x269
 10337 1ff3 03200000 		.4byte	0x2003
 10338 1ff7 09       		.uleb128 0x9
 10339 1ff8 01       		.uleb128 0x1
 10340 1ff9 50       		.byte	0x50
 10341 1ffa 02       		.uleb128 0x2
 10342 1ffb 08       		.byte	0x8
 10343 1ffc 50       		.byte	0x50
 10344 1ffd 09       		.uleb128 0x9
 10345 1ffe 01       		.uleb128 0x1
 10346 1fff 51       		.byte	0x51
 10347 2000 01       		.uleb128 0x1
 10348 2001 30       		.byte	0x30
 10349 2002 00       		.byte	0
 10350 2003 08       		.uleb128 0x8
 10351 2004 92000000 		.4byte	.LVL369
 10352 2008 69020000 		.4byte	0x269
 10353 200c 1C200000 		.4byte	0x201c
 10354 2010 09       		.uleb128 0x9
 10355 2011 01       		.uleb128 0x1
 10356 2012 50       		.byte	0x50
 10357 2013 02       		.uleb128 0x2
 10358 2014 08       		.byte	0x8
 10359 2015 54       		.byte	0x54
 10360 2016 09       		.uleb128 0x9
 10361 2017 01       		.uleb128 0x1
 10362 2018 51       		.byte	0x51
 10363 2019 01       		.uleb128 0x1
 10364 201a 30       		.byte	0x30
 10365 201b 00       		.byte	0
 10366 201c 08       		.uleb128 0x8
 10367 201d 9A000000 		.4byte	.LVL370
 10368 2021 69020000 		.4byte	0x269
 10369 2025 35200000 		.4byte	0x2035
 10370 2029 09       		.uleb128 0x9
 10371 202a 01       		.uleb128 0x1
 10372 202b 50       		.byte	0x50
 10373 202c 02       		.uleb128 0x2
 10374 202d 08       		.byte	0x8
 10375 202e 58       		.byte	0x58
 10376 202f 09       		.uleb128 0x9
 10377 2030 01       		.uleb128 0x1
 10378 2031 51       		.byte	0x51
 10379 2032 01       		.uleb128 0x1
 10380 2033 30       		.byte	0x30
 10381 2034 00       		.byte	0
 10382 2035 08       		.uleb128 0x8
 10383 2036 A2000000 		.4byte	.LVL371
 10384 203a 69020000 		.4byte	0x269
 10385 203e 4E200000 		.4byte	0x204e
 10386 2042 09       		.uleb128 0x9
 10387 2043 01       		.uleb128 0x1
 10388 2044 50       		.byte	0x50
ARM GAS  C:\Users\Revanth\AppData\Local\Temp\ccqs06ys.s 			page 225


 10389 2045 02       		.uleb128 0x2
 10390 2046 08       		.byte	0x8
 10391 2047 5C       		.byte	0x5c
 10392 2048 09       		.uleb128 0x9
 10393 2049 01       		.uleb128 0x1
 10394 204a 51       		.byte	0x51
 10395 204b 01       		.uleb128 0x1
 10396 204c 30       		.byte	0x30
 10397 204d 00       		.byte	0
 10398 204e 08       		.uleb128 0x8
 10399 204f AA000000 		.4byte	.LVL372
 10400 2053 69020000 		.4byte	0x269
 10401 2057 67200000 		.4byte	0x2067
 10402 205b 09       		.uleb128 0x9
 10403 205c 01       		.uleb128 0x1
 10404 205d 50       		.byte	0x50
 10405 205e 02       		.uleb128 0x2
 10406 205f 08       		.byte	0x8
 10407 2060 60       		.byte	0x60
 10408 2061 09       		.uleb128 0x9
 10409 2062 01       		.uleb128 0x1
 10410 2063 51       		.byte	0x51
 10411 2064 01       		.uleb128 0x1
 10412 2065 30       		.byte	0x30
 10413 2066 00       		.byte	0
 10414 2067 08       		.uleb128 0x8
 10415 2068 B2000000 		.4byte	.LVL373
 10416 206c 69020000 		.4byte	0x269
 10417 2070 80200000 		.4byte	0x2080
 10418 2074 09       		.uleb128 0x9
 10419 2075 01       		.uleb128 0x1
 10420 2076 50       		.byte	0x50
 10421 2077 02       		.uleb128 0x2
 10422 2078 08       		.byte	0x8
 10423 2079 64       		.byte	0x64
 10424 207a 09       		.uleb128 0x9
 10425 207b 01       		.uleb128 0x1
 10426 207c 51       		.byte	0x51
 10427 207d 01       		.uleb128 0x1
 10428 207e 30       		.byte	0x30
 10429 207f 00       		.byte	0
 10430 2080 08       		.uleb128 0x8
 10431 2081 BA000000 		.4byte	.LVL374
 10432 2085 69020000 		.4byte	0x269
 10433 2089 99200000 		.4byte	0x2099
 10434 208d 09       		.uleb128 0x9
 10435 208e 01       		.uleb128 0x1
 10436 208f 50       		.byte	0x50
 10437 2090 02       		.uleb128 0x2
 10438 2091 08       		.byte	0x8
 10439 2092 68       		.byte	0x68
 10440 2093 09       		.uleb128 0x9
 10441 2094 01       		.uleb128 0x1
 10442 2095 51       		.byte	0x51
 10443 2096 01       		.uleb128 0x1
 10444 2097 30       		.byte	0x30
 10445 2098 00       		.byte	0
ARM GAS  C:\Users\Revanth\AppData\Local\Temp\ccqs06ys.s 			page 226


 10446 2099 08       		.uleb128 0x8
 10447 209a C2000000 		.4byte	.LVL375
 10448 209e 69020000 		.4byte	0x269
 10449 20a2 B2200000 		.4byte	0x20b2
 10450 20a6 09       		.uleb128 0x9
 10451 20a7 01       		.uleb128 0x1
 10452 20a8 50       		.byte	0x50
 10453 20a9 02       		.uleb128 0x2
 10454 20aa 08       		.byte	0x8
 10455 20ab 6C       		.byte	0x6c
 10456 20ac 09       		.uleb128 0x9
 10457 20ad 01       		.uleb128 0x1
 10458 20ae 51       		.byte	0x51
 10459 20af 01       		.uleb128 0x1
 10460 20b0 30       		.byte	0x30
 10461 20b1 00       		.byte	0
 10462 20b2 08       		.uleb128 0x8
 10463 20b3 CA000000 		.4byte	.LVL376
 10464 20b7 69020000 		.4byte	0x269
 10465 20bb CB200000 		.4byte	0x20cb
 10466 20bf 09       		.uleb128 0x9
 10467 20c0 01       		.uleb128 0x1
 10468 20c1 50       		.byte	0x50
 10469 20c2 02       		.uleb128 0x2
 10470 20c3 08       		.byte	0x8
 10471 20c4 70       		.byte	0x70
 10472 20c5 09       		.uleb128 0x9
 10473 20c6 01       		.uleb128 0x1
 10474 20c7 51       		.byte	0x51
 10475 20c8 01       		.uleb128 0x1
 10476 20c9 30       		.byte	0x30
 10477 20ca 00       		.byte	0
 10478 20cb 08       		.uleb128 0x8
 10479 20cc D2000000 		.4byte	.LVL377
 10480 20d0 69020000 		.4byte	0x269
 10481 20d4 E4200000 		.4byte	0x20e4
 10482 20d8 09       		.uleb128 0x9
 10483 20d9 01       		.uleb128 0x1
 10484 20da 50       		.byte	0x50
 10485 20db 02       		.uleb128 0x2
 10486 20dc 08       		.byte	0x8
 10487 20dd 74       		.byte	0x74
 10488 20de 09       		.uleb128 0x9
 10489 20df 01       		.uleb128 0x1
 10490 20e0 51       		.byte	0x51
 10491 20e1 01       		.uleb128 0x1
 10492 20e2 30       		.byte	0x30
 10493 20e3 00       		.byte	0
 10494 20e4 08       		.uleb128 0x8
 10495 20e5 DA000000 		.4byte	.LVL378
 10496 20e9 69020000 		.4byte	0x269
 10497 20ed FD200000 		.4byte	0x20fd
 10498 20f1 09       		.uleb128 0x9
 10499 20f2 01       		.uleb128 0x1
 10500 20f3 50       		.byte	0x50
 10501 20f4 02       		.uleb128 0x2
 10502 20f5 08       		.byte	0x8
ARM GAS  C:\Users\Revanth\AppData\Local\Temp\ccqs06ys.s 			page 227


 10503 20f6 78       		.byte	0x78
 10504 20f7 09       		.uleb128 0x9
 10505 20f8 01       		.uleb128 0x1
 10506 20f9 51       		.byte	0x51
 10507 20fa 01       		.uleb128 0x1
 10508 20fb 30       		.byte	0x30
 10509 20fc 00       		.byte	0
 10510 20fd 08       		.uleb128 0x8
 10511 20fe E2000000 		.4byte	.LVL379
 10512 2102 69020000 		.4byte	0x269
 10513 2106 16210000 		.4byte	0x2116
 10514 210a 09       		.uleb128 0x9
 10515 210b 01       		.uleb128 0x1
 10516 210c 50       		.byte	0x50
 10517 210d 02       		.uleb128 0x2
 10518 210e 08       		.byte	0x8
 10519 210f 7C       		.byte	0x7c
 10520 2110 09       		.uleb128 0x9
 10521 2111 01       		.uleb128 0x1
 10522 2112 51       		.byte	0x51
 10523 2113 01       		.uleb128 0x1
 10524 2114 30       		.byte	0x30
 10525 2115 00       		.byte	0
 10526 2116 08       		.uleb128 0x8
 10527 2117 EA000000 		.4byte	.LVL380
 10528 211b 69020000 		.4byte	0x269
 10529 211f 2F210000 		.4byte	0x212f
 10530 2123 09       		.uleb128 0x9
 10531 2124 01       		.uleb128 0x1
 10532 2125 50       		.byte	0x50
 10533 2126 02       		.uleb128 0x2
 10534 2127 08       		.byte	0x8
 10535 2128 21       		.byte	0x21
 10536 2129 09       		.uleb128 0x9
 10537 212a 01       		.uleb128 0x1
 10538 212b 51       		.byte	0x51
 10539 212c 01       		.uleb128 0x1
 10540 212d 30       		.byte	0x30
 10541 212e 00       		.byte	0
 10542 212f 08       		.uleb128 0x8
 10543 2130 F2000000 		.4byte	.LVL381
 10544 2134 69020000 		.4byte	0x269
 10545 2138 48210000 		.4byte	0x2148
 10546 213c 09       		.uleb128 0x9
 10547 213d 01       		.uleb128 0x1
 10548 213e 50       		.byte	0x50
 10549 213f 02       		.uleb128 0x2
 10550 2140 08       		.byte	0x8
 10551 2141 25       		.byte	0x25
 10552 2142 09       		.uleb128 0x9
 10553 2143 01       		.uleb128 0x1
 10554 2144 51       		.byte	0x51
 10555 2145 01       		.uleb128 0x1
 10556 2146 30       		.byte	0x30
 10557 2147 00       		.byte	0
 10558 2148 08       		.uleb128 0x8
 10559 2149 FA000000 		.4byte	.LVL382
ARM GAS  C:\Users\Revanth\AppData\Local\Temp\ccqs06ys.s 			page 228


 10560 214d 69020000 		.4byte	0x269
 10561 2151 61210000 		.4byte	0x2161
 10562 2155 09       		.uleb128 0x9
 10563 2156 01       		.uleb128 0x1
 10564 2157 50       		.byte	0x50
 10565 2158 02       		.uleb128 0x2
 10566 2159 08       		.byte	0x8
 10567 215a 29       		.byte	0x29
 10568 215b 09       		.uleb128 0x9
 10569 215c 01       		.uleb128 0x1
 10570 215d 51       		.byte	0x51
 10571 215e 01       		.uleb128 0x1
 10572 215f 30       		.byte	0x30
 10573 2160 00       		.byte	0
 10574 2161 08       		.uleb128 0x8
 10575 2162 02010000 		.4byte	.LVL383
 10576 2166 69020000 		.4byte	0x269
 10577 216a 7A210000 		.4byte	0x217a
 10578 216e 09       		.uleb128 0x9
 10579 216f 01       		.uleb128 0x1
 10580 2170 50       		.byte	0x50
 10581 2171 02       		.uleb128 0x2
 10582 2172 08       		.byte	0x8
 10583 2173 2D       		.byte	0x2d
 10584 2174 09       		.uleb128 0x9
 10585 2175 01       		.uleb128 0x1
 10586 2176 51       		.byte	0x51
 10587 2177 01       		.uleb128 0x1
 10588 2178 30       		.byte	0x30
 10589 2179 00       		.byte	0
 10590 217a 08       		.uleb128 0x8
 10591 217b 0A010000 		.4byte	.LVL384
 10592 217f 69020000 		.4byte	0x269
 10593 2183 93210000 		.4byte	0x2193
 10594 2187 09       		.uleb128 0x9
 10595 2188 01       		.uleb128 0x1
 10596 2189 50       		.byte	0x50
 10597 218a 02       		.uleb128 0x2
 10598 218b 08       		.byte	0x8
 10599 218c 31       		.byte	0x31
 10600 218d 09       		.uleb128 0x9
 10601 218e 01       		.uleb128 0x1
 10602 218f 51       		.byte	0x51
 10603 2190 01       		.uleb128 0x1
 10604 2191 30       		.byte	0x30
 10605 2192 00       		.byte	0
 10606 2193 08       		.uleb128 0x8
 10607 2194 12010000 		.4byte	.LVL385
 10608 2198 69020000 		.4byte	0x269
 10609 219c AC210000 		.4byte	0x21ac
 10610 21a0 09       		.uleb128 0x9
 10611 21a1 01       		.uleb128 0x1
 10612 21a2 50       		.byte	0x50
 10613 21a3 02       		.uleb128 0x2
 10614 21a4 08       		.byte	0x8
 10615 21a5 35       		.byte	0x35
 10616 21a6 09       		.uleb128 0x9
ARM GAS  C:\Users\Revanth\AppData\Local\Temp\ccqs06ys.s 			page 229


 10617 21a7 01       		.uleb128 0x1
 10618 21a8 51       		.byte	0x51
 10619 21a9 01       		.uleb128 0x1
 10620 21aa 30       		.byte	0x30
 10621 21ab 00       		.byte	0
 10622 21ac 08       		.uleb128 0x8
 10623 21ad 1A010000 		.4byte	.LVL386
 10624 21b1 69020000 		.4byte	0x269
 10625 21b5 C5210000 		.4byte	0x21c5
 10626 21b9 09       		.uleb128 0x9
 10627 21ba 01       		.uleb128 0x1
 10628 21bb 50       		.byte	0x50
 10629 21bc 02       		.uleb128 0x2
 10630 21bd 08       		.byte	0x8
 10631 21be 39       		.byte	0x39
 10632 21bf 09       		.uleb128 0x9
 10633 21c0 01       		.uleb128 0x1
 10634 21c1 51       		.byte	0x51
 10635 21c2 01       		.uleb128 0x1
 10636 21c3 30       		.byte	0x30
 10637 21c4 00       		.byte	0
 10638 21c5 08       		.uleb128 0x8
 10639 21c6 22010000 		.4byte	.LVL387
 10640 21ca 69020000 		.4byte	0x269
 10641 21ce DE210000 		.4byte	0x21de
 10642 21d2 09       		.uleb128 0x9
 10643 21d3 01       		.uleb128 0x1
 10644 21d4 50       		.byte	0x50
 10645 21d5 02       		.uleb128 0x2
 10646 21d6 08       		.byte	0x8
 10647 21d7 3D       		.byte	0x3d
 10648 21d8 09       		.uleb128 0x9
 10649 21d9 01       		.uleb128 0x1
 10650 21da 51       		.byte	0x51
 10651 21db 01       		.uleb128 0x1
 10652 21dc 30       		.byte	0x30
 10653 21dd 00       		.byte	0
 10654 21de 08       		.uleb128 0x8
 10655 21df 2A010000 		.4byte	.LVL388
 10656 21e3 69020000 		.4byte	0x269
 10657 21e7 F7210000 		.4byte	0x21f7
 10658 21eb 09       		.uleb128 0x9
 10659 21ec 01       		.uleb128 0x1
 10660 21ed 50       		.byte	0x50
 10661 21ee 02       		.uleb128 0x2
 10662 21ef 08       		.byte	0x8
 10663 21f0 41       		.byte	0x41
 10664 21f1 09       		.uleb128 0x9
 10665 21f2 01       		.uleb128 0x1
 10666 21f3 51       		.byte	0x51
 10667 21f4 01       		.uleb128 0x1
 10668 21f5 30       		.byte	0x30
 10669 21f6 00       		.byte	0
 10670 21f7 08       		.uleb128 0x8
 10671 21f8 32010000 		.4byte	.LVL389
 10672 21fc 69020000 		.4byte	0x269
 10673 2200 10220000 		.4byte	0x2210
ARM GAS  C:\Users\Revanth\AppData\Local\Temp\ccqs06ys.s 			page 230


 10674 2204 09       		.uleb128 0x9
 10675 2205 01       		.uleb128 0x1
 10676 2206 50       		.byte	0x50
 10677 2207 02       		.uleb128 0x2
 10678 2208 08       		.byte	0x8
 10679 2209 45       		.byte	0x45
 10680 220a 09       		.uleb128 0x9
 10681 220b 01       		.uleb128 0x1
 10682 220c 51       		.byte	0x51
 10683 220d 01       		.uleb128 0x1
 10684 220e 30       		.byte	0x30
 10685 220f 00       		.byte	0
 10686 2210 08       		.uleb128 0x8
 10687 2211 3A010000 		.4byte	.LVL390
 10688 2215 69020000 		.4byte	0x269
 10689 2219 2A220000 		.4byte	0x222a
 10690 221d 09       		.uleb128 0x9
 10691 221e 01       		.uleb128 0x1
 10692 221f 50       		.byte	0x50
 10693 2220 02       		.uleb128 0x2
 10694 2221 08       		.byte	0x8
 10695 2222 49       		.byte	0x49
 10696 2223 09       		.uleb128 0x9
 10697 2224 01       		.uleb128 0x1
 10698 2225 51       		.byte	0x51
 10699 2226 02       		.uleb128 0x2
 10700 2227 75       		.byte	0x75
 10701 2228 00       		.sleb128 0
 10702 2229 00       		.byte	0
 10703 222a 08       		.uleb128 0x8
 10704 222b 42010000 		.4byte	.LVL391
 10705 222f 69020000 		.4byte	0x269
 10706 2233 43220000 		.4byte	0x2243
 10707 2237 09       		.uleb128 0x9
 10708 2238 01       		.uleb128 0x1
 10709 2239 50       		.byte	0x50
 10710 223a 02       		.uleb128 0x2
 10711 223b 08       		.byte	0x8
 10712 223c 4D       		.byte	0x4d
 10713 223d 09       		.uleb128 0x9
 10714 223e 01       		.uleb128 0x1
 10715 223f 51       		.byte	0x51
 10716 2240 01       		.uleb128 0x1
 10717 2241 30       		.byte	0x30
 10718 2242 00       		.byte	0
 10719 2243 08       		.uleb128 0x8
 10720 2244 4A010000 		.4byte	.LVL392
 10721 2248 69020000 		.4byte	0x269
 10722 224c 5C220000 		.4byte	0x225c
 10723 2250 09       		.uleb128 0x9
 10724 2251 01       		.uleb128 0x1
 10725 2252 50       		.byte	0x50
 10726 2253 02       		.uleb128 0x2
 10727 2254 08       		.byte	0x8
 10728 2255 51       		.byte	0x51
 10729 2256 09       		.uleb128 0x9
 10730 2257 01       		.uleb128 0x1
ARM GAS  C:\Users\Revanth\AppData\Local\Temp\ccqs06ys.s 			page 231


 10731 2258 51       		.byte	0x51
 10732 2259 01       		.uleb128 0x1
 10733 225a 30       		.byte	0x30
 10734 225b 00       		.byte	0
 10735 225c 08       		.uleb128 0x8
 10736 225d 52010000 		.4byte	.LVL393
 10737 2261 69020000 		.4byte	0x269
 10738 2265 75220000 		.4byte	0x2275
 10739 2269 09       		.uleb128 0x9
 10740 226a 01       		.uleb128 0x1
 10741 226b 50       		.byte	0x50
 10742 226c 02       		.uleb128 0x2
 10743 226d 08       		.byte	0x8
 10744 226e 55       		.byte	0x55
 10745 226f 09       		.uleb128 0x9
 10746 2270 01       		.uleb128 0x1
 10747 2271 51       		.byte	0x51
 10748 2272 01       		.uleb128 0x1
 10749 2273 30       		.byte	0x30
 10750 2274 00       		.byte	0
 10751 2275 08       		.uleb128 0x8
 10752 2276 5A010000 		.4byte	.LVL394
 10753 227a 69020000 		.4byte	0x269
 10754 227e 8E220000 		.4byte	0x228e
 10755 2282 09       		.uleb128 0x9
 10756 2283 01       		.uleb128 0x1
 10757 2284 50       		.byte	0x50
 10758 2285 02       		.uleb128 0x2
 10759 2286 08       		.byte	0x8
 10760 2287 59       		.byte	0x59
 10761 2288 09       		.uleb128 0x9
 10762 2289 01       		.uleb128 0x1
 10763 228a 51       		.byte	0x51
 10764 228b 01       		.uleb128 0x1
 10765 228c 30       		.byte	0x30
 10766 228d 00       		.byte	0
 10767 228e 08       		.uleb128 0x8
 10768 228f 62010000 		.4byte	.LVL395
 10769 2293 69020000 		.4byte	0x269
 10770 2297 A7220000 		.4byte	0x22a7
 10771 229b 09       		.uleb128 0x9
 10772 229c 01       		.uleb128 0x1
 10773 229d 50       		.byte	0x50
 10774 229e 02       		.uleb128 0x2
 10775 229f 08       		.byte	0x8
 10776 22a0 5D       		.byte	0x5d
 10777 22a1 09       		.uleb128 0x9
 10778 22a2 01       		.uleb128 0x1
 10779 22a3 51       		.byte	0x51
 10780 22a4 01       		.uleb128 0x1
 10781 22a5 30       		.byte	0x30
 10782 22a6 00       		.byte	0
 10783 22a7 08       		.uleb128 0x8
 10784 22a8 6A010000 		.4byte	.LVL396
 10785 22ac 69020000 		.4byte	0x269
 10786 22b0 C0220000 		.4byte	0x22c0
 10787 22b4 09       		.uleb128 0x9
ARM GAS  C:\Users\Revanth\AppData\Local\Temp\ccqs06ys.s 			page 232


 10788 22b5 01       		.uleb128 0x1
 10789 22b6 50       		.byte	0x50
 10790 22b7 02       		.uleb128 0x2
 10791 22b8 08       		.byte	0x8
 10792 22b9 61       		.byte	0x61
 10793 22ba 09       		.uleb128 0x9
 10794 22bb 01       		.uleb128 0x1
 10795 22bc 51       		.byte	0x51
 10796 22bd 01       		.uleb128 0x1
 10797 22be 30       		.byte	0x30
 10798 22bf 00       		.byte	0
 10799 22c0 08       		.uleb128 0x8
 10800 22c1 72010000 		.4byte	.LVL397
 10801 22c5 69020000 		.4byte	0x269
 10802 22c9 D9220000 		.4byte	0x22d9
 10803 22cd 09       		.uleb128 0x9
 10804 22ce 01       		.uleb128 0x1
 10805 22cf 50       		.byte	0x50
 10806 22d0 02       		.uleb128 0x2
 10807 22d1 08       		.byte	0x8
 10808 22d2 65       		.byte	0x65
 10809 22d3 09       		.uleb128 0x9
 10810 22d4 01       		.uleb128 0x1
 10811 22d5 51       		.byte	0x51
 10812 22d6 01       		.uleb128 0x1
 10813 22d7 30       		.byte	0x30
 10814 22d8 00       		.byte	0
 10815 22d9 08       		.uleb128 0x8
 10816 22da 7A010000 		.4byte	.LVL398
 10817 22de 69020000 		.4byte	0x269
 10818 22e2 F2220000 		.4byte	0x22f2
 10819 22e6 09       		.uleb128 0x9
 10820 22e7 01       		.uleb128 0x1
 10821 22e8 50       		.byte	0x50
 10822 22e9 02       		.uleb128 0x2
 10823 22ea 08       		.byte	0x8
 10824 22eb 69       		.byte	0x69
 10825 22ec 09       		.uleb128 0x9
 10826 22ed 01       		.uleb128 0x1
 10827 22ee 51       		.byte	0x51
 10828 22ef 01       		.uleb128 0x1
 10829 22f0 30       		.byte	0x30
 10830 22f1 00       		.byte	0
 10831 22f2 08       		.uleb128 0x8
 10832 22f3 82010000 		.4byte	.LVL399
 10833 22f7 69020000 		.4byte	0x269
 10834 22fb 0B230000 		.4byte	0x230b
 10835 22ff 09       		.uleb128 0x9
 10836 2300 01       		.uleb128 0x1
 10837 2301 50       		.byte	0x50
 10838 2302 02       		.uleb128 0x2
 10839 2303 08       		.byte	0x8
 10840 2304 6D       		.byte	0x6d
 10841 2305 09       		.uleb128 0x9
 10842 2306 01       		.uleb128 0x1
 10843 2307 51       		.byte	0x51
 10844 2308 01       		.uleb128 0x1
ARM GAS  C:\Users\Revanth\AppData\Local\Temp\ccqs06ys.s 			page 233


 10845 2309 30       		.byte	0x30
 10846 230a 00       		.byte	0
 10847 230b 08       		.uleb128 0x8
 10848 230c 8A010000 		.4byte	.LVL400
 10849 2310 69020000 		.4byte	0x269
 10850 2314 24230000 		.4byte	0x2324
 10851 2318 09       		.uleb128 0x9
 10852 2319 01       		.uleb128 0x1
 10853 231a 50       		.byte	0x50
 10854 231b 02       		.uleb128 0x2
 10855 231c 08       		.byte	0x8
 10856 231d 71       		.byte	0x71
 10857 231e 09       		.uleb128 0x9
 10858 231f 01       		.uleb128 0x1
 10859 2320 51       		.byte	0x51
 10860 2321 01       		.uleb128 0x1
 10861 2322 30       		.byte	0x30
 10862 2323 00       		.byte	0
 10863 2324 08       		.uleb128 0x8
 10864 2325 92010000 		.4byte	.LVL401
 10865 2329 69020000 		.4byte	0x269
 10866 232d 3D230000 		.4byte	0x233d
 10867 2331 09       		.uleb128 0x9
 10868 2332 01       		.uleb128 0x1
 10869 2333 50       		.byte	0x50
 10870 2334 02       		.uleb128 0x2
 10871 2335 08       		.byte	0x8
 10872 2336 75       		.byte	0x75
 10873 2337 09       		.uleb128 0x9
 10874 2338 01       		.uleb128 0x1
 10875 2339 51       		.byte	0x51
 10876 233a 01       		.uleb128 0x1
 10877 233b 30       		.byte	0x30
 10878 233c 00       		.byte	0
 10879 233d 08       		.uleb128 0x8
 10880 233e 9A010000 		.4byte	.LVL402
 10881 2342 69020000 		.4byte	0x269
 10882 2346 56230000 		.4byte	0x2356
 10883 234a 09       		.uleb128 0x9
 10884 234b 01       		.uleb128 0x1
 10885 234c 50       		.byte	0x50
 10886 234d 02       		.uleb128 0x2
 10887 234e 08       		.byte	0x8
 10888 234f 79       		.byte	0x79
 10889 2350 09       		.uleb128 0x9
 10890 2351 01       		.uleb128 0x1
 10891 2352 51       		.byte	0x51
 10892 2353 01       		.uleb128 0x1
 10893 2354 30       		.byte	0x30
 10894 2355 00       		.byte	0
 10895 2356 08       		.uleb128 0x8
 10896 2357 A2010000 		.4byte	.LVL403
 10897 235b 69020000 		.4byte	0x269
 10898 235f 6F230000 		.4byte	0x236f
 10899 2363 09       		.uleb128 0x9
 10900 2364 01       		.uleb128 0x1
 10901 2365 50       		.byte	0x50
ARM GAS  C:\Users\Revanth\AppData\Local\Temp\ccqs06ys.s 			page 234


 10902 2366 02       		.uleb128 0x2
 10903 2367 08       		.byte	0x8
 10904 2368 7D       		.byte	0x7d
 10905 2369 09       		.uleb128 0x9
 10906 236a 01       		.uleb128 0x1
 10907 236b 51       		.byte	0x51
 10908 236c 01       		.uleb128 0x1
 10909 236d 30       		.byte	0x30
 10910 236e 00       		.byte	0
 10911 236f 08       		.uleb128 0x8
 10912 2370 A8010000 		.4byte	.LVL404
 10913 2374 B75F0000 		.4byte	0x5fb7
 10914 2378 82230000 		.4byte	0x2382
 10915 237c 09       		.uleb128 0x9
 10916 237d 01       		.uleb128 0x1
 10917 237e 50       		.byte	0x50
 10918 237f 01       		.uleb128 0x1
 10919 2380 30       		.byte	0x30
 10920 2381 00       		.byte	0
 10921 2382 08       		.uleb128 0x8
 10922 2383 B6010000 		.4byte	.LVL405
 10923 2387 B75F0000 		.4byte	0x5fb7
 10924 238b 95230000 		.4byte	0x2395
 10925 238f 09       		.uleb128 0x9
 10926 2390 01       		.uleb128 0x1
 10927 2391 50       		.byte	0x50
 10928 2392 01       		.uleb128 0x1
 10929 2393 31       		.byte	0x31
 10930 2394 00       		.byte	0
 10931 2395 08       		.uleb128 0x8
 10932 2396 BC010000 		.4byte	.LVL406
 10933 239a A6020000 		.4byte	0x2a6
 10934 239e A8230000 		.4byte	0x23a8
 10935 23a2 09       		.uleb128 0x9
 10936 23a3 01       		.uleb128 0x1
 10937 23a4 50       		.byte	0x50
 10938 23a5 01       		.uleb128 0x1
 10939 23a6 31       		.byte	0x31
 10940 23a7 00       		.byte	0
 10941 23a8 08       		.uleb128 0x8
 10942 23a9 C4010000 		.4byte	.LVL407
 10943 23ad 69020000 		.4byte	0x269
 10944 23b1 C1230000 		.4byte	0x23c1
 10945 23b5 09       		.uleb128 0x9
 10946 23b6 01       		.uleb128 0x1
 10947 23b7 50       		.byte	0x50
 10948 23b8 02       		.uleb128 0x2
 10949 23b9 08       		.byte	0x8
 10950 23ba 20       		.byte	0x20
 10951 23bb 09       		.uleb128 0x9
 10952 23bc 01       		.uleb128 0x1
 10953 23bd 51       		.byte	0x51
 10954 23be 01       		.uleb128 0x1
 10955 23bf 30       		.byte	0x30
 10956 23c0 00       		.byte	0
 10957 23c1 08       		.uleb128 0x8
 10958 23c2 CC010000 		.4byte	.LVL408
ARM GAS  C:\Users\Revanth\AppData\Local\Temp\ccqs06ys.s 			page 235


 10959 23c6 69020000 		.4byte	0x269
 10960 23ca DA230000 		.4byte	0x23da
 10961 23ce 09       		.uleb128 0x9
 10962 23cf 01       		.uleb128 0x1
 10963 23d0 50       		.byte	0x50
 10964 23d1 02       		.uleb128 0x2
 10965 23d2 08       		.byte	0x8
 10966 23d3 24       		.byte	0x24
 10967 23d4 09       		.uleb128 0x9
 10968 23d5 01       		.uleb128 0x1
 10969 23d6 51       		.byte	0x51
 10970 23d7 01       		.uleb128 0x1
 10971 23d8 30       		.byte	0x30
 10972 23d9 00       		.byte	0
 10973 23da 08       		.uleb128 0x8
 10974 23db D4010000 		.4byte	.LVL409
 10975 23df 69020000 		.4byte	0x269
 10976 23e3 F3230000 		.4byte	0x23f3
 10977 23e7 09       		.uleb128 0x9
 10978 23e8 01       		.uleb128 0x1
 10979 23e9 50       		.byte	0x50
 10980 23ea 02       		.uleb128 0x2
 10981 23eb 08       		.byte	0x8
 10982 23ec 28       		.byte	0x28
 10983 23ed 09       		.uleb128 0x9
 10984 23ee 01       		.uleb128 0x1
 10985 23ef 51       		.byte	0x51
 10986 23f0 01       		.uleb128 0x1
 10987 23f1 30       		.byte	0x30
 10988 23f2 00       		.byte	0
 10989 23f3 08       		.uleb128 0x8
 10990 23f4 DC010000 		.4byte	.LVL410
 10991 23f8 69020000 		.4byte	0x269
 10992 23fc 0C240000 		.4byte	0x240c
 10993 2400 09       		.uleb128 0x9
 10994 2401 01       		.uleb128 0x1
 10995 2402 50       		.byte	0x50
 10996 2403 02       		.uleb128 0x2
 10997 2404 08       		.byte	0x8
 10998 2405 2C       		.byte	0x2c
 10999 2406 09       		.uleb128 0x9
 11000 2407 01       		.uleb128 0x1
 11001 2408 51       		.byte	0x51
 11002 2409 01       		.uleb128 0x1
 11003 240a 30       		.byte	0x30
 11004 240b 00       		.byte	0
 11005 240c 08       		.uleb128 0x8
 11006 240d E4010000 		.4byte	.LVL411
 11007 2411 69020000 		.4byte	0x269
 11008 2415 25240000 		.4byte	0x2425
 11009 2419 09       		.uleb128 0x9
 11010 241a 01       		.uleb128 0x1
 11011 241b 50       		.byte	0x50
 11012 241c 02       		.uleb128 0x2
 11013 241d 08       		.byte	0x8
 11014 241e 30       		.byte	0x30
 11015 241f 09       		.uleb128 0x9
ARM GAS  C:\Users\Revanth\AppData\Local\Temp\ccqs06ys.s 			page 236


 11016 2420 01       		.uleb128 0x1
 11017 2421 51       		.byte	0x51
 11018 2422 01       		.uleb128 0x1
 11019 2423 30       		.byte	0x30
 11020 2424 00       		.byte	0
 11021 2425 08       		.uleb128 0x8
 11022 2426 EC010000 		.4byte	.LVL412
 11023 242a 69020000 		.4byte	0x269
 11024 242e 3E240000 		.4byte	0x243e
 11025 2432 09       		.uleb128 0x9
 11026 2433 01       		.uleb128 0x1
 11027 2434 50       		.byte	0x50
 11028 2435 02       		.uleb128 0x2
 11029 2436 08       		.byte	0x8
 11030 2437 34       		.byte	0x34
 11031 2438 09       		.uleb128 0x9
 11032 2439 01       		.uleb128 0x1
 11033 243a 51       		.byte	0x51
 11034 243b 01       		.uleb128 0x1
 11035 243c 30       		.byte	0x30
 11036 243d 00       		.byte	0
 11037 243e 08       		.uleb128 0x8
 11038 243f F4010000 		.4byte	.LVL413
 11039 2443 69020000 		.4byte	0x269
 11040 2447 57240000 		.4byte	0x2457
 11041 244b 09       		.uleb128 0x9
 11042 244c 01       		.uleb128 0x1
 11043 244d 50       		.byte	0x50
 11044 244e 02       		.uleb128 0x2
 11045 244f 08       		.byte	0x8
 11046 2450 38       		.byte	0x38
 11047 2451 09       		.uleb128 0x9
 11048 2452 01       		.uleb128 0x1
 11049 2453 51       		.byte	0x51
 11050 2454 01       		.uleb128 0x1
 11051 2455 31       		.byte	0x31
 11052 2456 00       		.byte	0
 11053 2457 08       		.uleb128 0x8
 11054 2458 FC010000 		.4byte	.LVL414
 11055 245c 69020000 		.4byte	0x269
 11056 2460 70240000 		.4byte	0x2470
 11057 2464 09       		.uleb128 0x9
 11058 2465 01       		.uleb128 0x1
 11059 2466 50       		.byte	0x50
 11060 2467 02       		.uleb128 0x2
 11061 2468 08       		.byte	0x8
 11062 2469 3C       		.byte	0x3c
 11063 246a 09       		.uleb128 0x9
 11064 246b 01       		.uleb128 0x1
 11065 246c 51       		.byte	0x51
 11066 246d 01       		.uleb128 0x1
 11067 246e 30       		.byte	0x30
 11068 246f 00       		.byte	0
 11069 2470 08       		.uleb128 0x8
 11070 2471 04020000 		.4byte	.LVL415
 11071 2475 69020000 		.4byte	0x269
 11072 2479 89240000 		.4byte	0x2489
ARM GAS  C:\Users\Revanth\AppData\Local\Temp\ccqs06ys.s 			page 237


 11073 247d 09       		.uleb128 0x9
 11074 247e 01       		.uleb128 0x1
 11075 247f 50       		.byte	0x50
 11076 2480 02       		.uleb128 0x2
 11077 2481 08       		.byte	0x8
 11078 2482 40       		.byte	0x40
 11079 2483 09       		.uleb128 0x9
 11080 2484 01       		.uleb128 0x1
 11081 2485 51       		.byte	0x51
 11082 2486 01       		.uleb128 0x1
 11083 2487 30       		.byte	0x30
 11084 2488 00       		.byte	0
 11085 2489 08       		.uleb128 0x8
 11086 248a 0C020000 		.4byte	.LVL416
 11087 248e 69020000 		.4byte	0x269
 11088 2492 A2240000 		.4byte	0x24a2
 11089 2496 09       		.uleb128 0x9
 11090 2497 01       		.uleb128 0x1
 11091 2498 50       		.byte	0x50
 11092 2499 02       		.uleb128 0x2
 11093 249a 08       		.byte	0x8
 11094 249b 44       		.byte	0x44
 11095 249c 09       		.uleb128 0x9
 11096 249d 01       		.uleb128 0x1
 11097 249e 51       		.byte	0x51
 11098 249f 01       		.uleb128 0x1
 11099 24a0 31       		.byte	0x31
 11100 24a1 00       		.byte	0
 11101 24a2 08       		.uleb128 0x8
 11102 24a3 14020000 		.4byte	.LVL417
 11103 24a7 69020000 		.4byte	0x269
 11104 24ab BB240000 		.4byte	0x24bb
 11105 24af 09       		.uleb128 0x9
 11106 24b0 01       		.uleb128 0x1
 11107 24b1 50       		.byte	0x50
 11108 24b2 02       		.uleb128 0x2
 11109 24b3 08       		.byte	0x8
 11110 24b4 48       		.byte	0x48
 11111 24b5 09       		.uleb128 0x9
 11112 24b6 01       		.uleb128 0x1
 11113 24b7 51       		.byte	0x51
 11114 24b8 01       		.uleb128 0x1
 11115 24b9 30       		.byte	0x30
 11116 24ba 00       		.byte	0
 11117 24bb 08       		.uleb128 0x8
 11118 24bc 1C020000 		.4byte	.LVL418
 11119 24c0 69020000 		.4byte	0x269
 11120 24c4 D4240000 		.4byte	0x24d4
 11121 24c8 09       		.uleb128 0x9
 11122 24c9 01       		.uleb128 0x1
 11123 24ca 50       		.byte	0x50
 11124 24cb 02       		.uleb128 0x2
 11125 24cc 08       		.byte	0x8
 11126 24cd 4C       		.byte	0x4c
 11127 24ce 09       		.uleb128 0x9
 11128 24cf 01       		.uleb128 0x1
 11129 24d0 51       		.byte	0x51
ARM GAS  C:\Users\Revanth\AppData\Local\Temp\ccqs06ys.s 			page 238


 11130 24d1 01       		.uleb128 0x1
 11131 24d2 30       		.byte	0x30
 11132 24d3 00       		.byte	0
 11133 24d4 08       		.uleb128 0x8
 11134 24d5 24020000 		.4byte	.LVL419
 11135 24d9 69020000 		.4byte	0x269
 11136 24dd ED240000 		.4byte	0x24ed
 11137 24e1 09       		.uleb128 0x9
 11138 24e2 01       		.uleb128 0x1
 11139 24e3 50       		.byte	0x50
 11140 24e4 02       		.uleb128 0x2
 11141 24e5 08       		.byte	0x8
 11142 24e6 50       		.byte	0x50
 11143 24e7 09       		.uleb128 0x9
 11144 24e8 01       		.uleb128 0x1
 11145 24e9 51       		.byte	0x51
 11146 24ea 01       		.uleb128 0x1
 11147 24eb 30       		.byte	0x30
 11148 24ec 00       		.byte	0
 11149 24ed 08       		.uleb128 0x8
 11150 24ee 2C020000 		.4byte	.LVL420
 11151 24f2 69020000 		.4byte	0x269
 11152 24f6 06250000 		.4byte	0x2506
 11153 24fa 09       		.uleb128 0x9
 11154 24fb 01       		.uleb128 0x1
 11155 24fc 50       		.byte	0x50
 11156 24fd 02       		.uleb128 0x2
 11157 24fe 08       		.byte	0x8
 11158 24ff 54       		.byte	0x54
 11159 2500 09       		.uleb128 0x9
 11160 2501 01       		.uleb128 0x1
 11161 2502 51       		.byte	0x51
 11162 2503 01       		.uleb128 0x1
 11163 2504 31       		.byte	0x31
 11164 2505 00       		.byte	0
 11165 2506 08       		.uleb128 0x8
 11166 2507 34020000 		.4byte	.LVL421
 11167 250b 69020000 		.4byte	0x269
 11168 250f 1F250000 		.4byte	0x251f
 11169 2513 09       		.uleb128 0x9
 11170 2514 01       		.uleb128 0x1
 11171 2515 50       		.byte	0x50
 11172 2516 02       		.uleb128 0x2
 11173 2517 08       		.byte	0x8
 11174 2518 58       		.byte	0x58
 11175 2519 09       		.uleb128 0x9
 11176 251a 01       		.uleb128 0x1
 11177 251b 51       		.byte	0x51
 11178 251c 01       		.uleb128 0x1
 11179 251d 30       		.byte	0x30
 11180 251e 00       		.byte	0
 11181 251f 08       		.uleb128 0x8
 11182 2520 3C020000 		.4byte	.LVL422
 11183 2524 69020000 		.4byte	0x269
 11184 2528 38250000 		.4byte	0x2538
 11185 252c 09       		.uleb128 0x9
 11186 252d 01       		.uleb128 0x1
ARM GAS  C:\Users\Revanth\AppData\Local\Temp\ccqs06ys.s 			page 239


 11187 252e 50       		.byte	0x50
 11188 252f 02       		.uleb128 0x2
 11189 2530 08       		.byte	0x8
 11190 2531 5C       		.byte	0x5c
 11191 2532 09       		.uleb128 0x9
 11192 2533 01       		.uleb128 0x1
 11193 2534 51       		.byte	0x51
 11194 2535 01       		.uleb128 0x1
 11195 2536 30       		.byte	0x30
 11196 2537 00       		.byte	0
 11197 2538 08       		.uleb128 0x8
 11198 2539 44020000 		.4byte	.LVL423
 11199 253d 69020000 		.4byte	0x269
 11200 2541 51250000 		.4byte	0x2551
 11201 2545 09       		.uleb128 0x9
 11202 2546 01       		.uleb128 0x1
 11203 2547 50       		.byte	0x50
 11204 2548 02       		.uleb128 0x2
 11205 2549 08       		.byte	0x8
 11206 254a 60       		.byte	0x60
 11207 254b 09       		.uleb128 0x9
 11208 254c 01       		.uleb128 0x1
 11209 254d 51       		.byte	0x51
 11210 254e 01       		.uleb128 0x1
 11211 254f 30       		.byte	0x30
 11212 2550 00       		.byte	0
 11213 2551 08       		.uleb128 0x8
 11214 2552 4C020000 		.4byte	.LVL424
 11215 2556 69020000 		.4byte	0x269
 11216 255a 6A250000 		.4byte	0x256a
 11217 255e 09       		.uleb128 0x9
 11218 255f 01       		.uleb128 0x1
 11219 2560 50       		.byte	0x50
 11220 2561 02       		.uleb128 0x2
 11221 2562 08       		.byte	0x8
 11222 2563 64       		.byte	0x64
 11223 2564 09       		.uleb128 0x9
 11224 2565 01       		.uleb128 0x1
 11225 2566 51       		.byte	0x51
 11226 2567 01       		.uleb128 0x1
 11227 2568 30       		.byte	0x30
 11228 2569 00       		.byte	0
 11229 256a 08       		.uleb128 0x8
 11230 256b 54020000 		.4byte	.LVL425
 11231 256f 69020000 		.4byte	0x269
 11232 2573 83250000 		.4byte	0x2583
 11233 2577 09       		.uleb128 0x9
 11234 2578 01       		.uleb128 0x1
 11235 2579 50       		.byte	0x50
 11236 257a 02       		.uleb128 0x2
 11237 257b 08       		.byte	0x8
 11238 257c 68       		.byte	0x68
 11239 257d 09       		.uleb128 0x9
 11240 257e 01       		.uleb128 0x1
 11241 257f 51       		.byte	0x51
 11242 2580 01       		.uleb128 0x1
 11243 2581 30       		.byte	0x30
ARM GAS  C:\Users\Revanth\AppData\Local\Temp\ccqs06ys.s 			page 240


 11244 2582 00       		.byte	0
 11245 2583 08       		.uleb128 0x8
 11246 2584 5C020000 		.4byte	.LVL426
 11247 2588 69020000 		.4byte	0x269
 11248 258c 9C250000 		.4byte	0x259c
 11249 2590 09       		.uleb128 0x9
 11250 2591 01       		.uleb128 0x1
 11251 2592 50       		.byte	0x50
 11252 2593 02       		.uleb128 0x2
 11253 2594 08       		.byte	0x8
 11254 2595 6C       		.byte	0x6c
 11255 2596 09       		.uleb128 0x9
 11256 2597 01       		.uleb128 0x1
 11257 2598 51       		.byte	0x51
 11258 2599 01       		.uleb128 0x1
 11259 259a 30       		.byte	0x30
 11260 259b 00       		.byte	0
 11261 259c 08       		.uleb128 0x8
 11262 259d 64020000 		.4byte	.LVL427
 11263 25a1 69020000 		.4byte	0x269
 11264 25a5 B5250000 		.4byte	0x25b5
 11265 25a9 09       		.uleb128 0x9
 11266 25aa 01       		.uleb128 0x1
 11267 25ab 50       		.byte	0x50
 11268 25ac 02       		.uleb128 0x2
 11269 25ad 08       		.byte	0x8
 11270 25ae 70       		.byte	0x70
 11271 25af 09       		.uleb128 0x9
 11272 25b0 01       		.uleb128 0x1
 11273 25b1 51       		.byte	0x51
 11274 25b2 01       		.uleb128 0x1
 11275 25b3 30       		.byte	0x30
 11276 25b4 00       		.byte	0
 11277 25b5 08       		.uleb128 0x8
 11278 25b6 6C020000 		.4byte	.LVL428
 11279 25ba 69020000 		.4byte	0x269
 11280 25be CE250000 		.4byte	0x25ce
 11281 25c2 09       		.uleb128 0x9
 11282 25c3 01       		.uleb128 0x1
 11283 25c4 50       		.byte	0x50
 11284 25c5 02       		.uleb128 0x2
 11285 25c6 08       		.byte	0x8
 11286 25c7 74       		.byte	0x74
 11287 25c8 09       		.uleb128 0x9
 11288 25c9 01       		.uleb128 0x1
 11289 25ca 51       		.byte	0x51
 11290 25cb 01       		.uleb128 0x1
 11291 25cc 30       		.byte	0x30
 11292 25cd 00       		.byte	0
 11293 25ce 08       		.uleb128 0x8
 11294 25cf 74020000 		.4byte	.LVL429
 11295 25d3 69020000 		.4byte	0x269
 11296 25d7 E7250000 		.4byte	0x25e7
 11297 25db 09       		.uleb128 0x9
 11298 25dc 01       		.uleb128 0x1
 11299 25dd 50       		.byte	0x50
 11300 25de 02       		.uleb128 0x2
ARM GAS  C:\Users\Revanth\AppData\Local\Temp\ccqs06ys.s 			page 241


 11301 25df 08       		.byte	0x8
 11302 25e0 78       		.byte	0x78
 11303 25e1 09       		.uleb128 0x9
 11304 25e2 01       		.uleb128 0x1
 11305 25e3 51       		.byte	0x51
 11306 25e4 01       		.uleb128 0x1
 11307 25e5 30       		.byte	0x30
 11308 25e6 00       		.byte	0
 11309 25e7 08       		.uleb128 0x8
 11310 25e8 7C020000 		.4byte	.LVL430
 11311 25ec 69020000 		.4byte	0x269
 11312 25f0 00260000 		.4byte	0x2600
 11313 25f4 09       		.uleb128 0x9
 11314 25f5 01       		.uleb128 0x1
 11315 25f6 50       		.byte	0x50
 11316 25f7 02       		.uleb128 0x2
 11317 25f8 08       		.byte	0x8
 11318 25f9 7C       		.byte	0x7c
 11319 25fa 09       		.uleb128 0x9
 11320 25fb 01       		.uleb128 0x1
 11321 25fc 51       		.byte	0x51
 11322 25fd 01       		.uleb128 0x1
 11323 25fe 30       		.byte	0x30
 11324 25ff 00       		.byte	0
 11325 2600 08       		.uleb128 0x8
 11326 2601 84020000 		.4byte	.LVL431
 11327 2605 69020000 		.4byte	0x269
 11328 2609 19260000 		.4byte	0x2619
 11329 260d 09       		.uleb128 0x9
 11330 260e 01       		.uleb128 0x1
 11331 260f 50       		.byte	0x50
 11332 2610 02       		.uleb128 0x2
 11333 2611 08       		.byte	0x8
 11334 2612 21       		.byte	0x21
 11335 2613 09       		.uleb128 0x9
 11336 2614 01       		.uleb128 0x1
 11337 2615 51       		.byte	0x51
 11338 2616 01       		.uleb128 0x1
 11339 2617 30       		.byte	0x30
 11340 2618 00       		.byte	0
 11341 2619 08       		.uleb128 0x8
 11342 261a 8C020000 		.4byte	.LVL432
 11343 261e 69020000 		.4byte	0x269
 11344 2622 32260000 		.4byte	0x2632
 11345 2626 09       		.uleb128 0x9
 11346 2627 01       		.uleb128 0x1
 11347 2628 50       		.byte	0x50
 11348 2629 02       		.uleb128 0x2
 11349 262a 08       		.byte	0x8
 11350 262b 25       		.byte	0x25
 11351 262c 09       		.uleb128 0x9
 11352 262d 01       		.uleb128 0x1
 11353 262e 51       		.byte	0x51
 11354 262f 01       		.uleb128 0x1
 11355 2630 30       		.byte	0x30
 11356 2631 00       		.byte	0
 11357 2632 08       		.uleb128 0x8
ARM GAS  C:\Users\Revanth\AppData\Local\Temp\ccqs06ys.s 			page 242


 11358 2633 94020000 		.4byte	.LVL433
 11359 2637 69020000 		.4byte	0x269
 11360 263b 4B260000 		.4byte	0x264b
 11361 263f 09       		.uleb128 0x9
 11362 2640 01       		.uleb128 0x1
 11363 2641 50       		.byte	0x50
 11364 2642 02       		.uleb128 0x2
 11365 2643 08       		.byte	0x8
 11366 2644 29       		.byte	0x29
 11367 2645 09       		.uleb128 0x9
 11368 2646 01       		.uleb128 0x1
 11369 2647 51       		.byte	0x51
 11370 2648 01       		.uleb128 0x1
 11371 2649 30       		.byte	0x30
 11372 264a 00       		.byte	0
 11373 264b 08       		.uleb128 0x8
 11374 264c 9C020000 		.4byte	.LVL434
 11375 2650 69020000 		.4byte	0x269
 11376 2654 64260000 		.4byte	0x2664
 11377 2658 09       		.uleb128 0x9
 11378 2659 01       		.uleb128 0x1
 11379 265a 50       		.byte	0x50
 11380 265b 02       		.uleb128 0x2
 11381 265c 08       		.byte	0x8
 11382 265d 2D       		.byte	0x2d
 11383 265e 09       		.uleb128 0x9
 11384 265f 01       		.uleb128 0x1
 11385 2660 51       		.byte	0x51
 11386 2661 01       		.uleb128 0x1
 11387 2662 30       		.byte	0x30
 11388 2663 00       		.byte	0
 11389 2664 08       		.uleb128 0x8
 11390 2665 A4020000 		.4byte	.LVL435
 11391 2669 69020000 		.4byte	0x269
 11392 266d 7D260000 		.4byte	0x267d
 11393 2671 09       		.uleb128 0x9
 11394 2672 01       		.uleb128 0x1
 11395 2673 50       		.byte	0x50
 11396 2674 02       		.uleb128 0x2
 11397 2675 08       		.byte	0x8
 11398 2676 31       		.byte	0x31
 11399 2677 09       		.uleb128 0x9
 11400 2678 01       		.uleb128 0x1
 11401 2679 51       		.byte	0x51
 11402 267a 01       		.uleb128 0x1
 11403 267b 30       		.byte	0x30
 11404 267c 00       		.byte	0
 11405 267d 08       		.uleb128 0x8
 11406 267e AC020000 		.4byte	.LVL436
 11407 2682 69020000 		.4byte	0x269
 11408 2686 96260000 		.4byte	0x2696
 11409 268a 09       		.uleb128 0x9
 11410 268b 01       		.uleb128 0x1
 11411 268c 50       		.byte	0x50
 11412 268d 02       		.uleb128 0x2
 11413 268e 08       		.byte	0x8
 11414 268f 35       		.byte	0x35
ARM GAS  C:\Users\Revanth\AppData\Local\Temp\ccqs06ys.s 			page 243


 11415 2690 09       		.uleb128 0x9
 11416 2691 01       		.uleb128 0x1
 11417 2692 51       		.byte	0x51
 11418 2693 01       		.uleb128 0x1
 11419 2694 30       		.byte	0x30
 11420 2695 00       		.byte	0
 11421 2696 08       		.uleb128 0x8
 11422 2697 B4020000 		.4byte	.LVL437
 11423 269b 69020000 		.4byte	0x269
 11424 269f B0260000 		.4byte	0x26b0
 11425 26a3 09       		.uleb128 0x9
 11426 26a4 01       		.uleb128 0x1
 11427 26a5 50       		.byte	0x50
 11428 26a6 02       		.uleb128 0x2
 11429 26a7 08       		.byte	0x8
 11430 26a8 39       		.byte	0x39
 11431 26a9 09       		.uleb128 0x9
 11432 26aa 01       		.uleb128 0x1
 11433 26ab 51       		.byte	0x51
 11434 26ac 02       		.uleb128 0x2
 11435 26ad 75       		.byte	0x75
 11436 26ae 00       		.sleb128 0
 11437 26af 00       		.byte	0
 11438 26b0 08       		.uleb128 0x8
 11439 26b1 BC020000 		.4byte	.LVL438
 11440 26b5 69020000 		.4byte	0x269
 11441 26b9 C9260000 		.4byte	0x26c9
 11442 26bd 09       		.uleb128 0x9
 11443 26be 01       		.uleb128 0x1
 11444 26bf 50       		.byte	0x50
 11445 26c0 02       		.uleb128 0x2
 11446 26c1 08       		.byte	0x8
 11447 26c2 3D       		.byte	0x3d
 11448 26c3 09       		.uleb128 0x9
 11449 26c4 01       		.uleb128 0x1
 11450 26c5 51       		.byte	0x51
 11451 26c6 01       		.uleb128 0x1
 11452 26c7 30       		.byte	0x30
 11453 26c8 00       		.byte	0
 11454 26c9 08       		.uleb128 0x8
 11455 26ca C4020000 		.4byte	.LVL439
 11456 26ce 69020000 		.4byte	0x269
 11457 26d2 E2260000 		.4byte	0x26e2
 11458 26d6 09       		.uleb128 0x9
 11459 26d7 01       		.uleb128 0x1
 11460 26d8 50       		.byte	0x50
 11461 26d9 02       		.uleb128 0x2
 11462 26da 08       		.byte	0x8
 11463 26db 41       		.byte	0x41
 11464 26dc 09       		.uleb128 0x9
 11465 26dd 01       		.uleb128 0x1
 11466 26de 51       		.byte	0x51
 11467 26df 01       		.uleb128 0x1
 11468 26e0 30       		.byte	0x30
 11469 26e1 00       		.byte	0
 11470 26e2 08       		.uleb128 0x8
 11471 26e3 CC020000 		.4byte	.LVL440
ARM GAS  C:\Users\Revanth\AppData\Local\Temp\ccqs06ys.s 			page 244


 11472 26e7 69020000 		.4byte	0x269
 11473 26eb FC260000 		.4byte	0x26fc
 11474 26ef 09       		.uleb128 0x9
 11475 26f0 01       		.uleb128 0x1
 11476 26f1 50       		.byte	0x50
 11477 26f2 02       		.uleb128 0x2
 11478 26f3 08       		.byte	0x8
 11479 26f4 45       		.byte	0x45
 11480 26f5 09       		.uleb128 0x9
 11481 26f6 01       		.uleb128 0x1
 11482 26f7 51       		.byte	0x51
 11483 26f8 02       		.uleb128 0x2
 11484 26f9 75       		.byte	0x75
 11485 26fa 00       		.sleb128 0
 11486 26fb 00       		.byte	0
 11487 26fc 08       		.uleb128 0x8
 11488 26fd D4020000 		.4byte	.LVL441
 11489 2701 69020000 		.4byte	0x269
 11490 2705 15270000 		.4byte	0x2715
 11491 2709 09       		.uleb128 0x9
 11492 270a 01       		.uleb128 0x1
 11493 270b 50       		.byte	0x50
 11494 270c 02       		.uleb128 0x2
 11495 270d 08       		.byte	0x8
 11496 270e 49       		.byte	0x49
 11497 270f 09       		.uleb128 0x9
 11498 2710 01       		.uleb128 0x1
 11499 2711 51       		.byte	0x51
 11500 2712 01       		.uleb128 0x1
 11501 2713 30       		.byte	0x30
 11502 2714 00       		.byte	0
 11503 2715 08       		.uleb128 0x8
 11504 2716 DC020000 		.4byte	.LVL442
 11505 271a 69020000 		.4byte	0x269
 11506 271e 2E270000 		.4byte	0x272e
 11507 2722 09       		.uleb128 0x9
 11508 2723 01       		.uleb128 0x1
 11509 2724 50       		.byte	0x50
 11510 2725 02       		.uleb128 0x2
 11511 2726 08       		.byte	0x8
 11512 2727 4D       		.byte	0x4d
 11513 2728 09       		.uleb128 0x9
 11514 2729 01       		.uleb128 0x1
 11515 272a 51       		.byte	0x51
 11516 272b 01       		.uleb128 0x1
 11517 272c 30       		.byte	0x30
 11518 272d 00       		.byte	0
 11519 272e 08       		.uleb128 0x8
 11520 272f E4020000 		.4byte	.LVL443
 11521 2733 69020000 		.4byte	0x269
 11522 2737 47270000 		.4byte	0x2747
 11523 273b 09       		.uleb128 0x9
 11524 273c 01       		.uleb128 0x1
 11525 273d 50       		.byte	0x50
 11526 273e 02       		.uleb128 0x2
 11527 273f 08       		.byte	0x8
 11528 2740 51       		.byte	0x51
ARM GAS  C:\Users\Revanth\AppData\Local\Temp\ccqs06ys.s 			page 245


 11529 2741 09       		.uleb128 0x9
 11530 2742 01       		.uleb128 0x1
 11531 2743 51       		.byte	0x51
 11532 2744 01       		.uleb128 0x1
 11533 2745 30       		.byte	0x30
 11534 2746 00       		.byte	0
 11535 2747 08       		.uleb128 0x8
 11536 2748 EC020000 		.4byte	.LVL444
 11537 274c 69020000 		.4byte	0x269
 11538 2750 61270000 		.4byte	0x2761
 11539 2754 09       		.uleb128 0x9
 11540 2755 01       		.uleb128 0x1
 11541 2756 50       		.byte	0x50
 11542 2757 02       		.uleb128 0x2
 11543 2758 08       		.byte	0x8
 11544 2759 55       		.byte	0x55
 11545 275a 09       		.uleb128 0x9
 11546 275b 01       		.uleb128 0x1
 11547 275c 51       		.byte	0x51
 11548 275d 02       		.uleb128 0x2
 11549 275e 75       		.byte	0x75
 11550 275f 00       		.sleb128 0
 11551 2760 00       		.byte	0
 11552 2761 08       		.uleb128 0x8
 11553 2762 F4020000 		.4byte	.LVL445
 11554 2766 69020000 		.4byte	0x269
 11555 276a 7A270000 		.4byte	0x277a
 11556 276e 09       		.uleb128 0x9
 11557 276f 01       		.uleb128 0x1
 11558 2770 50       		.byte	0x50
 11559 2771 02       		.uleb128 0x2
 11560 2772 08       		.byte	0x8
 11561 2773 59       		.byte	0x59
 11562 2774 09       		.uleb128 0x9
 11563 2775 01       		.uleb128 0x1
 11564 2776 51       		.byte	0x51
 11565 2777 01       		.uleb128 0x1
 11566 2778 30       		.byte	0x30
 11567 2779 00       		.byte	0
 11568 277a 08       		.uleb128 0x8
 11569 277b FC020000 		.4byte	.LVL446
 11570 277f 69020000 		.4byte	0x269
 11571 2783 93270000 		.4byte	0x2793
 11572 2787 09       		.uleb128 0x9
 11573 2788 01       		.uleb128 0x1
 11574 2789 50       		.byte	0x50
 11575 278a 02       		.uleb128 0x2
 11576 278b 08       		.byte	0x8
 11577 278c 5D       		.byte	0x5d
 11578 278d 09       		.uleb128 0x9
 11579 278e 01       		.uleb128 0x1
 11580 278f 51       		.byte	0x51
 11581 2790 01       		.uleb128 0x1
 11582 2791 30       		.byte	0x30
 11583 2792 00       		.byte	0
 11584 2793 08       		.uleb128 0x8
 11585 2794 04030000 		.4byte	.LVL447
ARM GAS  C:\Users\Revanth\AppData\Local\Temp\ccqs06ys.s 			page 246


 11586 2798 69020000 		.4byte	0x269
 11587 279c AC270000 		.4byte	0x27ac
 11588 27a0 09       		.uleb128 0x9
 11589 27a1 01       		.uleb128 0x1
 11590 27a2 50       		.byte	0x50
 11591 27a3 02       		.uleb128 0x2
 11592 27a4 08       		.byte	0x8
 11593 27a5 61       		.byte	0x61
 11594 27a6 09       		.uleb128 0x9
 11595 27a7 01       		.uleb128 0x1
 11596 27a8 51       		.byte	0x51
 11597 27a9 01       		.uleb128 0x1
 11598 27aa 30       		.byte	0x30
 11599 27ab 00       		.byte	0
 11600 27ac 08       		.uleb128 0x8
 11601 27ad 0C030000 		.4byte	.LVL448
 11602 27b1 69020000 		.4byte	0x269
 11603 27b5 C5270000 		.4byte	0x27c5
 11604 27b9 09       		.uleb128 0x9
 11605 27ba 01       		.uleb128 0x1
 11606 27bb 50       		.byte	0x50
 11607 27bc 02       		.uleb128 0x2
 11608 27bd 08       		.byte	0x8
 11609 27be 65       		.byte	0x65
 11610 27bf 09       		.uleb128 0x9
 11611 27c0 01       		.uleb128 0x1
 11612 27c1 51       		.byte	0x51
 11613 27c2 01       		.uleb128 0x1
 11614 27c3 30       		.byte	0x30
 11615 27c4 00       		.byte	0
 11616 27c5 08       		.uleb128 0x8
 11617 27c6 14030000 		.4byte	.LVL449
 11618 27ca 69020000 		.4byte	0x269
 11619 27ce DE270000 		.4byte	0x27de
 11620 27d2 09       		.uleb128 0x9
 11621 27d3 01       		.uleb128 0x1
 11622 27d4 50       		.byte	0x50
 11623 27d5 02       		.uleb128 0x2
 11624 27d6 08       		.byte	0x8
 11625 27d7 69       		.byte	0x69
 11626 27d8 09       		.uleb128 0x9
 11627 27d9 01       		.uleb128 0x1
 11628 27da 51       		.byte	0x51
 11629 27db 01       		.uleb128 0x1
 11630 27dc 30       		.byte	0x30
 11631 27dd 00       		.byte	0
 11632 27de 08       		.uleb128 0x8
 11633 27df 1C030000 		.4byte	.LVL450
 11634 27e3 69020000 		.4byte	0x269
 11635 27e7 F7270000 		.4byte	0x27f7
 11636 27eb 09       		.uleb128 0x9
 11637 27ec 01       		.uleb128 0x1
 11638 27ed 50       		.byte	0x50
 11639 27ee 02       		.uleb128 0x2
 11640 27ef 08       		.byte	0x8
 11641 27f0 6D       		.byte	0x6d
 11642 27f1 09       		.uleb128 0x9
ARM GAS  C:\Users\Revanth\AppData\Local\Temp\ccqs06ys.s 			page 247


 11643 27f2 01       		.uleb128 0x1
 11644 27f3 51       		.byte	0x51
 11645 27f4 01       		.uleb128 0x1
 11646 27f5 30       		.byte	0x30
 11647 27f6 00       		.byte	0
 11648 27f7 08       		.uleb128 0x8
 11649 27f8 24030000 		.4byte	.LVL451
 11650 27fc 69020000 		.4byte	0x269
 11651 2800 10280000 		.4byte	0x2810
 11652 2804 09       		.uleb128 0x9
 11653 2805 01       		.uleb128 0x1
 11654 2806 50       		.byte	0x50
 11655 2807 02       		.uleb128 0x2
 11656 2808 08       		.byte	0x8
 11657 2809 71       		.byte	0x71
 11658 280a 09       		.uleb128 0x9
 11659 280b 01       		.uleb128 0x1
 11660 280c 51       		.byte	0x51
 11661 280d 01       		.uleb128 0x1
 11662 280e 30       		.byte	0x30
 11663 280f 00       		.byte	0
 11664 2810 08       		.uleb128 0x8
 11665 2811 2C030000 		.4byte	.LVL452
 11666 2815 69020000 		.4byte	0x269
 11667 2819 29280000 		.4byte	0x2829
 11668 281d 09       		.uleb128 0x9
 11669 281e 01       		.uleb128 0x1
 11670 281f 50       		.byte	0x50
 11671 2820 02       		.uleb128 0x2
 11672 2821 08       		.byte	0x8
 11673 2822 75       		.byte	0x75
 11674 2823 09       		.uleb128 0x9
 11675 2824 01       		.uleb128 0x1
 11676 2825 51       		.byte	0x51
 11677 2826 01       		.uleb128 0x1
 11678 2827 30       		.byte	0x30
 11679 2828 00       		.byte	0
 11680 2829 08       		.uleb128 0x8
 11681 282a 34030000 		.4byte	.LVL453
 11682 282e 69020000 		.4byte	0x269
 11683 2832 42280000 		.4byte	0x2842
 11684 2836 09       		.uleb128 0x9
 11685 2837 01       		.uleb128 0x1
 11686 2838 50       		.byte	0x50
 11687 2839 02       		.uleb128 0x2
 11688 283a 08       		.byte	0x8
 11689 283b 79       		.byte	0x79
 11690 283c 09       		.uleb128 0x9
 11691 283d 01       		.uleb128 0x1
 11692 283e 51       		.byte	0x51
 11693 283f 01       		.uleb128 0x1
 11694 2840 30       		.byte	0x30
 11695 2841 00       		.byte	0
 11696 2842 08       		.uleb128 0x8
 11697 2843 3C030000 		.4byte	.LVL454
 11698 2847 69020000 		.4byte	0x269
 11699 284b 5B280000 		.4byte	0x285b
ARM GAS  C:\Users\Revanth\AppData\Local\Temp\ccqs06ys.s 			page 248


 11700 284f 09       		.uleb128 0x9
 11701 2850 01       		.uleb128 0x1
 11702 2851 50       		.byte	0x50
 11703 2852 02       		.uleb128 0x2
 11704 2853 08       		.byte	0x8
 11705 2854 7D       		.byte	0x7d
 11706 2855 09       		.uleb128 0x9
 11707 2856 01       		.uleb128 0x1
 11708 2857 51       		.byte	0x51
 11709 2858 01       		.uleb128 0x1
 11710 2859 30       		.byte	0x30
 11711 285a 00       		.byte	0
 11712 285b 08       		.uleb128 0x8
 11713 285c 42030000 		.4byte	.LVL455
 11714 2860 B75F0000 		.4byte	0x5fb7
 11715 2864 6E280000 		.4byte	0x286e
 11716 2868 09       		.uleb128 0x9
 11717 2869 01       		.uleb128 0x1
 11718 286a 50       		.byte	0x50
 11719 286b 01       		.uleb128 0x1
 11720 286c 30       		.byte	0x30
 11721 286d 00       		.byte	0
 11722 286e 08       		.uleb128 0x8
 11723 286f 50030000 		.4byte	.LVL456
 11724 2873 B75F0000 		.4byte	0x5fb7
 11725 2877 81280000 		.4byte	0x2881
 11726 287b 09       		.uleb128 0x9
 11727 287c 01       		.uleb128 0x1
 11728 287d 50       		.byte	0x50
 11729 287e 01       		.uleb128 0x1
 11730 287f 31       		.byte	0x31
 11731 2880 00       		.byte	0
 11732 2881 08       		.uleb128 0x8
 11733 2882 56030000 		.4byte	.LVL457
 11734 2886 A6020000 		.4byte	0x2a6
 11735 288a 94280000 		.4byte	0x2894
 11736 288e 09       		.uleb128 0x9
 11737 288f 01       		.uleb128 0x1
 11738 2890 50       		.byte	0x50
 11739 2891 01       		.uleb128 0x1
 11740 2892 31       		.byte	0x31
 11741 2893 00       		.byte	0
 11742 2894 08       		.uleb128 0x8
 11743 2895 5E030000 		.4byte	.LVL458
 11744 2899 69020000 		.4byte	0x269
 11745 289d AD280000 		.4byte	0x28ad
 11746 28a1 09       		.uleb128 0x9
 11747 28a2 01       		.uleb128 0x1
 11748 28a3 50       		.byte	0x50
 11749 28a4 02       		.uleb128 0x2
 11750 28a5 08       		.byte	0x8
 11751 28a6 20       		.byte	0x20
 11752 28a7 09       		.uleb128 0x9
 11753 28a8 01       		.uleb128 0x1
 11754 28a9 51       		.byte	0x51
 11755 28aa 01       		.uleb128 0x1
 11756 28ab 30       		.byte	0x30
ARM GAS  C:\Users\Revanth\AppData\Local\Temp\ccqs06ys.s 			page 249


 11757 28ac 00       		.byte	0
 11758 28ad 08       		.uleb128 0x8
 11759 28ae 66030000 		.4byte	.LVL459
 11760 28b2 69020000 		.4byte	0x269
 11761 28b6 C6280000 		.4byte	0x28c6
 11762 28ba 09       		.uleb128 0x9
 11763 28bb 01       		.uleb128 0x1
 11764 28bc 50       		.byte	0x50
 11765 28bd 02       		.uleb128 0x2
 11766 28be 08       		.byte	0x8
 11767 28bf 24       		.byte	0x24
 11768 28c0 09       		.uleb128 0x9
 11769 28c1 01       		.uleb128 0x1
 11770 28c2 51       		.byte	0x51
 11771 28c3 01       		.uleb128 0x1
 11772 28c4 30       		.byte	0x30
 11773 28c5 00       		.byte	0
 11774 28c6 08       		.uleb128 0x8
 11775 28c7 6E030000 		.4byte	.LVL460
 11776 28cb 69020000 		.4byte	0x269
 11777 28cf DF280000 		.4byte	0x28df
 11778 28d3 09       		.uleb128 0x9
 11779 28d4 01       		.uleb128 0x1
 11780 28d5 50       		.byte	0x50
 11781 28d6 02       		.uleb128 0x2
 11782 28d7 08       		.byte	0x8
 11783 28d8 28       		.byte	0x28
 11784 28d9 09       		.uleb128 0x9
 11785 28da 01       		.uleb128 0x1
 11786 28db 51       		.byte	0x51
 11787 28dc 01       		.uleb128 0x1
 11788 28dd 30       		.byte	0x30
 11789 28de 00       		.byte	0
 11790 28df 08       		.uleb128 0x8
 11791 28e0 76030000 		.4byte	.LVL461
 11792 28e4 69020000 		.4byte	0x269
 11793 28e8 F8280000 		.4byte	0x28f8
 11794 28ec 09       		.uleb128 0x9
 11795 28ed 01       		.uleb128 0x1
 11796 28ee 50       		.byte	0x50
 11797 28ef 02       		.uleb128 0x2
 11798 28f0 08       		.byte	0x8
 11799 28f1 2C       		.byte	0x2c
 11800 28f2 09       		.uleb128 0x9
 11801 28f3 01       		.uleb128 0x1
 11802 28f4 51       		.byte	0x51
 11803 28f5 01       		.uleb128 0x1
 11804 28f6 30       		.byte	0x30
 11805 28f7 00       		.byte	0
 11806 28f8 08       		.uleb128 0x8
 11807 28f9 7E030000 		.4byte	.LVL462
 11808 28fd 69020000 		.4byte	0x269
 11809 2901 11290000 		.4byte	0x2911
 11810 2905 09       		.uleb128 0x9
 11811 2906 01       		.uleb128 0x1
 11812 2907 50       		.byte	0x50
 11813 2908 02       		.uleb128 0x2
ARM GAS  C:\Users\Revanth\AppData\Local\Temp\ccqs06ys.s 			page 250


 11814 2909 08       		.byte	0x8
 11815 290a 30       		.byte	0x30
 11816 290b 09       		.uleb128 0x9
 11817 290c 01       		.uleb128 0x1
 11818 290d 51       		.byte	0x51
 11819 290e 01       		.uleb128 0x1
 11820 290f 30       		.byte	0x30
 11821 2910 00       		.byte	0
 11822 2911 08       		.uleb128 0x8
 11823 2912 86030000 		.4byte	.LVL463
 11824 2916 69020000 		.4byte	0x269
 11825 291a 2A290000 		.4byte	0x292a
 11826 291e 09       		.uleb128 0x9
 11827 291f 01       		.uleb128 0x1
 11828 2920 50       		.byte	0x50
 11829 2921 02       		.uleb128 0x2
 11830 2922 08       		.byte	0x8
 11831 2923 34       		.byte	0x34
 11832 2924 09       		.uleb128 0x9
 11833 2925 01       		.uleb128 0x1
 11834 2926 51       		.byte	0x51
 11835 2927 01       		.uleb128 0x1
 11836 2928 30       		.byte	0x30
 11837 2929 00       		.byte	0
 11838 292a 08       		.uleb128 0x8
 11839 292b 8E030000 		.4byte	.LVL464
 11840 292f 69020000 		.4byte	0x269
 11841 2933 43290000 		.4byte	0x2943
 11842 2937 09       		.uleb128 0x9
 11843 2938 01       		.uleb128 0x1
 11844 2939 50       		.byte	0x50
 11845 293a 02       		.uleb128 0x2
 11846 293b 08       		.byte	0x8
 11847 293c 38       		.byte	0x38
 11848 293d 09       		.uleb128 0x9
 11849 293e 01       		.uleb128 0x1
 11850 293f 51       		.byte	0x51
 11851 2940 01       		.uleb128 0x1
 11852 2941 30       		.byte	0x30
 11853 2942 00       		.byte	0
 11854 2943 08       		.uleb128 0x8
 11855 2944 96030000 		.4byte	.LVL465
 11856 2948 69020000 		.4byte	0x269
 11857 294c 5C290000 		.4byte	0x295c
 11858 2950 09       		.uleb128 0x9
 11859 2951 01       		.uleb128 0x1
 11860 2952 50       		.byte	0x50
 11861 2953 02       		.uleb128 0x2
 11862 2954 08       		.byte	0x8
 11863 2955 3C       		.byte	0x3c
 11864 2956 09       		.uleb128 0x9
 11865 2957 01       		.uleb128 0x1
 11866 2958 51       		.byte	0x51
 11867 2959 01       		.uleb128 0x1
 11868 295a 31       		.byte	0x31
 11869 295b 00       		.byte	0
 11870 295c 08       		.uleb128 0x8
ARM GAS  C:\Users\Revanth\AppData\Local\Temp\ccqs06ys.s 			page 251


 11871 295d 9E030000 		.4byte	.LVL466
 11872 2961 69020000 		.4byte	0x269
 11873 2965 75290000 		.4byte	0x2975
 11874 2969 09       		.uleb128 0x9
 11875 296a 01       		.uleb128 0x1
 11876 296b 50       		.byte	0x50
 11877 296c 02       		.uleb128 0x2
 11878 296d 08       		.byte	0x8
 11879 296e 40       		.byte	0x40
 11880 296f 09       		.uleb128 0x9
 11881 2970 01       		.uleb128 0x1
 11882 2971 51       		.byte	0x51
 11883 2972 01       		.uleb128 0x1
 11884 2973 30       		.byte	0x30
 11885 2974 00       		.byte	0
 11886 2975 08       		.uleb128 0x8
 11887 2976 A6030000 		.4byte	.LVL467
 11888 297a 69020000 		.4byte	0x269
 11889 297e 8E290000 		.4byte	0x298e
 11890 2982 09       		.uleb128 0x9
 11891 2983 01       		.uleb128 0x1
 11892 2984 50       		.byte	0x50
 11893 2985 02       		.uleb128 0x2
 11894 2986 08       		.byte	0x8
 11895 2987 44       		.byte	0x44
 11896 2988 09       		.uleb128 0x9
 11897 2989 01       		.uleb128 0x1
 11898 298a 51       		.byte	0x51
 11899 298b 01       		.uleb128 0x1
 11900 298c 30       		.byte	0x30
 11901 298d 00       		.byte	0
 11902 298e 08       		.uleb128 0x8
 11903 298f AE030000 		.4byte	.LVL468
 11904 2993 69020000 		.4byte	0x269
 11905 2997 A7290000 		.4byte	0x29a7
 11906 299b 09       		.uleb128 0x9
 11907 299c 01       		.uleb128 0x1
 11908 299d 50       		.byte	0x50
 11909 299e 02       		.uleb128 0x2
 11910 299f 08       		.byte	0x8
 11911 29a0 48       		.byte	0x48
 11912 29a1 09       		.uleb128 0x9
 11913 29a2 01       		.uleb128 0x1
 11914 29a3 51       		.byte	0x51
 11915 29a4 01       		.uleb128 0x1
 11916 29a5 30       		.byte	0x30
 11917 29a6 00       		.byte	0
 11918 29a7 08       		.uleb128 0x8
 11919 29a8 B6030000 		.4byte	.LVL469
 11920 29ac 69020000 		.4byte	0x269
 11921 29b0 C0290000 		.4byte	0x29c0
 11922 29b4 09       		.uleb128 0x9
 11923 29b5 01       		.uleb128 0x1
 11924 29b6 50       		.byte	0x50
 11925 29b7 02       		.uleb128 0x2
 11926 29b8 08       		.byte	0x8
 11927 29b9 4C       		.byte	0x4c
ARM GAS  C:\Users\Revanth\AppData\Local\Temp\ccqs06ys.s 			page 252


 11928 29ba 09       		.uleb128 0x9
 11929 29bb 01       		.uleb128 0x1
 11930 29bc 51       		.byte	0x51
 11931 29bd 01       		.uleb128 0x1
 11932 29be 31       		.byte	0x31
 11933 29bf 00       		.byte	0
 11934 29c0 08       		.uleb128 0x8
 11935 29c1 BE030000 		.4byte	.LVL470
 11936 29c5 69020000 		.4byte	0x269
 11937 29c9 D9290000 		.4byte	0x29d9
 11938 29cd 09       		.uleb128 0x9
 11939 29ce 01       		.uleb128 0x1
 11940 29cf 50       		.byte	0x50
 11941 29d0 02       		.uleb128 0x2
 11942 29d1 08       		.byte	0x8
 11943 29d2 50       		.byte	0x50
 11944 29d3 09       		.uleb128 0x9
 11945 29d4 01       		.uleb128 0x1
 11946 29d5 51       		.byte	0x51
 11947 29d6 01       		.uleb128 0x1
 11948 29d7 30       		.byte	0x30
 11949 29d8 00       		.byte	0
 11950 29d9 08       		.uleb128 0x8
 11951 29da C6030000 		.4byte	.LVL471
 11952 29de 69020000 		.4byte	0x269
 11953 29e2 F2290000 		.4byte	0x29f2
 11954 29e6 09       		.uleb128 0x9
 11955 29e7 01       		.uleb128 0x1
 11956 29e8 50       		.byte	0x50
 11957 29e9 02       		.uleb128 0x2
 11958 29ea 08       		.byte	0x8
 11959 29eb 54       		.byte	0x54
 11960 29ec 09       		.uleb128 0x9
 11961 29ed 01       		.uleb128 0x1
 11962 29ee 51       		.byte	0x51
 11963 29ef 01       		.uleb128 0x1
 11964 29f0 30       		.byte	0x30
 11965 29f1 00       		.byte	0
 11966 29f2 08       		.uleb128 0x8
 11967 29f3 CE030000 		.4byte	.LVL472
 11968 29f7 69020000 		.4byte	0x269
 11969 29fb 0B2A0000 		.4byte	0x2a0b
 11970 29ff 09       		.uleb128 0x9
 11971 2a00 01       		.uleb128 0x1
 11972 2a01 50       		.byte	0x50
 11973 2a02 02       		.uleb128 0x2
 11974 2a03 08       		.byte	0x8
 11975 2a04 58       		.byte	0x58
 11976 2a05 09       		.uleb128 0x9
 11977 2a06 01       		.uleb128 0x1
 11978 2a07 51       		.byte	0x51
 11979 2a08 01       		.uleb128 0x1
 11980 2a09 31       		.byte	0x31
 11981 2a0a 00       		.byte	0
 11982 2a0b 08       		.uleb128 0x8
 11983 2a0c D6030000 		.4byte	.LVL473
 11984 2a10 69020000 		.4byte	0x269
ARM GAS  C:\Users\Revanth\AppData\Local\Temp\ccqs06ys.s 			page 253


 11985 2a14 242A0000 		.4byte	0x2a24
 11986 2a18 09       		.uleb128 0x9
 11987 2a19 01       		.uleb128 0x1
 11988 2a1a 50       		.byte	0x50
 11989 2a1b 02       		.uleb128 0x2
 11990 2a1c 08       		.byte	0x8
 11991 2a1d 5C       		.byte	0x5c
 11992 2a1e 09       		.uleb128 0x9
 11993 2a1f 01       		.uleb128 0x1
 11994 2a20 51       		.byte	0x51
 11995 2a21 01       		.uleb128 0x1
 11996 2a22 30       		.byte	0x30
 11997 2a23 00       		.byte	0
 11998 2a24 08       		.uleb128 0x8
 11999 2a25 DE030000 		.4byte	.LVL474
 12000 2a29 69020000 		.4byte	0x269
 12001 2a2d 3D2A0000 		.4byte	0x2a3d
 12002 2a31 09       		.uleb128 0x9
 12003 2a32 01       		.uleb128 0x1
 12004 2a33 50       		.byte	0x50
 12005 2a34 02       		.uleb128 0x2
 12006 2a35 08       		.byte	0x8
 12007 2a36 60       		.byte	0x60
 12008 2a37 09       		.uleb128 0x9
 12009 2a38 01       		.uleb128 0x1
 12010 2a39 51       		.byte	0x51
 12011 2a3a 01       		.uleb128 0x1
 12012 2a3b 30       		.byte	0x30
 12013 2a3c 00       		.byte	0
 12014 2a3d 08       		.uleb128 0x8
 12015 2a3e E6030000 		.4byte	.LVL475
 12016 2a42 69020000 		.4byte	0x269
 12017 2a46 562A0000 		.4byte	0x2a56
 12018 2a4a 09       		.uleb128 0x9
 12019 2a4b 01       		.uleb128 0x1
 12020 2a4c 50       		.byte	0x50
 12021 2a4d 02       		.uleb128 0x2
 12022 2a4e 08       		.byte	0x8
 12023 2a4f 64       		.byte	0x64
 12024 2a50 09       		.uleb128 0x9
 12025 2a51 01       		.uleb128 0x1
 12026 2a52 51       		.byte	0x51
 12027 2a53 01       		.uleb128 0x1
 12028 2a54 30       		.byte	0x30
 12029 2a55 00       		.byte	0
 12030 2a56 08       		.uleb128 0x8
 12031 2a57 EE030000 		.4byte	.LVL476
 12032 2a5b 69020000 		.4byte	0x269
 12033 2a5f 6F2A0000 		.4byte	0x2a6f
 12034 2a63 09       		.uleb128 0x9
 12035 2a64 01       		.uleb128 0x1
 12036 2a65 50       		.byte	0x50
 12037 2a66 02       		.uleb128 0x2
 12038 2a67 08       		.byte	0x8
 12039 2a68 68       		.byte	0x68
 12040 2a69 09       		.uleb128 0x9
 12041 2a6a 01       		.uleb128 0x1
ARM GAS  C:\Users\Revanth\AppData\Local\Temp\ccqs06ys.s 			page 254


 12042 2a6b 51       		.byte	0x51
 12043 2a6c 01       		.uleb128 0x1
 12044 2a6d 30       		.byte	0x30
 12045 2a6e 00       		.byte	0
 12046 2a6f 08       		.uleb128 0x8
 12047 2a70 F6030000 		.4byte	.LVL477
 12048 2a74 69020000 		.4byte	0x269
 12049 2a78 882A0000 		.4byte	0x2a88
 12050 2a7c 09       		.uleb128 0x9
 12051 2a7d 01       		.uleb128 0x1
 12052 2a7e 50       		.byte	0x50
 12053 2a7f 02       		.uleb128 0x2
 12054 2a80 08       		.byte	0x8
 12055 2a81 6C       		.byte	0x6c
 12056 2a82 09       		.uleb128 0x9
 12057 2a83 01       		.uleb128 0x1
 12058 2a84 51       		.byte	0x51
 12059 2a85 01       		.uleb128 0x1
 12060 2a86 30       		.byte	0x30
 12061 2a87 00       		.byte	0
 12062 2a88 08       		.uleb128 0x8
 12063 2a89 FE030000 		.4byte	.LVL478
 12064 2a8d 69020000 		.4byte	0x269
 12065 2a91 A12A0000 		.4byte	0x2aa1
 12066 2a95 09       		.uleb128 0x9
 12067 2a96 01       		.uleb128 0x1
 12068 2a97 50       		.byte	0x50
 12069 2a98 02       		.uleb128 0x2
 12070 2a99 08       		.byte	0x8
 12071 2a9a 70       		.byte	0x70
 12072 2a9b 09       		.uleb128 0x9
 12073 2a9c 01       		.uleb128 0x1
 12074 2a9d 51       		.byte	0x51
 12075 2a9e 01       		.uleb128 0x1
 12076 2a9f 30       		.byte	0x30
 12077 2aa0 00       		.byte	0
 12078 2aa1 08       		.uleb128 0x8
 12079 2aa2 06040000 		.4byte	.LVL479
 12080 2aa6 69020000 		.4byte	0x269
 12081 2aaa BA2A0000 		.4byte	0x2aba
 12082 2aae 09       		.uleb128 0x9
 12083 2aaf 01       		.uleb128 0x1
 12084 2ab0 50       		.byte	0x50
 12085 2ab1 02       		.uleb128 0x2
 12086 2ab2 08       		.byte	0x8
 12087 2ab3 74       		.byte	0x74
 12088 2ab4 09       		.uleb128 0x9
 12089 2ab5 01       		.uleb128 0x1
 12090 2ab6 51       		.byte	0x51
 12091 2ab7 01       		.uleb128 0x1
 12092 2ab8 30       		.byte	0x30
 12093 2ab9 00       		.byte	0
 12094 2aba 08       		.uleb128 0x8
 12095 2abb 0E040000 		.4byte	.LVL480
 12096 2abf 69020000 		.4byte	0x269
 12097 2ac3 D32A0000 		.4byte	0x2ad3
 12098 2ac7 09       		.uleb128 0x9
ARM GAS  C:\Users\Revanth\AppData\Local\Temp\ccqs06ys.s 			page 255


 12099 2ac8 01       		.uleb128 0x1
 12100 2ac9 50       		.byte	0x50
 12101 2aca 02       		.uleb128 0x2
 12102 2acb 08       		.byte	0x8
 12103 2acc 78       		.byte	0x78
 12104 2acd 09       		.uleb128 0x9
 12105 2ace 01       		.uleb128 0x1
 12106 2acf 51       		.byte	0x51
 12107 2ad0 01       		.uleb128 0x1
 12108 2ad1 30       		.byte	0x30
 12109 2ad2 00       		.byte	0
 12110 2ad3 08       		.uleb128 0x8
 12111 2ad4 16040000 		.4byte	.LVL481
 12112 2ad8 69020000 		.4byte	0x269
 12113 2adc EC2A0000 		.4byte	0x2aec
 12114 2ae0 09       		.uleb128 0x9
 12115 2ae1 01       		.uleb128 0x1
 12116 2ae2 50       		.byte	0x50
 12117 2ae3 02       		.uleb128 0x2
 12118 2ae4 08       		.byte	0x8
 12119 2ae5 7C       		.byte	0x7c
 12120 2ae6 09       		.uleb128 0x9
 12121 2ae7 01       		.uleb128 0x1
 12122 2ae8 51       		.byte	0x51
 12123 2ae9 01       		.uleb128 0x1
 12124 2aea 30       		.byte	0x30
 12125 2aeb 00       		.byte	0
 12126 2aec 08       		.uleb128 0x8
 12127 2aed 1E040000 		.4byte	.LVL482
 12128 2af1 69020000 		.4byte	0x269
 12129 2af5 052B0000 		.4byte	0x2b05
 12130 2af9 09       		.uleb128 0x9
 12131 2afa 01       		.uleb128 0x1
 12132 2afb 50       		.byte	0x50
 12133 2afc 02       		.uleb128 0x2
 12134 2afd 08       		.byte	0x8
 12135 2afe 21       		.byte	0x21
 12136 2aff 09       		.uleb128 0x9
 12137 2b00 01       		.uleb128 0x1
 12138 2b01 51       		.byte	0x51
 12139 2b02 01       		.uleb128 0x1
 12140 2b03 30       		.byte	0x30
 12141 2b04 00       		.byte	0
 12142 2b05 08       		.uleb128 0x8
 12143 2b06 26040000 		.4byte	.LVL483
 12144 2b0a 69020000 		.4byte	0x269
 12145 2b0e 1E2B0000 		.4byte	0x2b1e
 12146 2b12 09       		.uleb128 0x9
 12147 2b13 01       		.uleb128 0x1
 12148 2b14 50       		.byte	0x50
 12149 2b15 02       		.uleb128 0x2
 12150 2b16 08       		.byte	0x8
 12151 2b17 25       		.byte	0x25
 12152 2b18 09       		.uleb128 0x9
 12153 2b19 01       		.uleb128 0x1
 12154 2b1a 51       		.byte	0x51
 12155 2b1b 01       		.uleb128 0x1
ARM GAS  C:\Users\Revanth\AppData\Local\Temp\ccqs06ys.s 			page 256


 12156 2b1c 30       		.byte	0x30
 12157 2b1d 00       		.byte	0
 12158 2b1e 08       		.uleb128 0x8
 12159 2b1f 2E040000 		.4byte	.LVL484
 12160 2b23 69020000 		.4byte	0x269
 12161 2b27 372B0000 		.4byte	0x2b37
 12162 2b2b 09       		.uleb128 0x9
 12163 2b2c 01       		.uleb128 0x1
 12164 2b2d 50       		.byte	0x50
 12165 2b2e 02       		.uleb128 0x2
 12166 2b2f 08       		.byte	0x8
 12167 2b30 29       		.byte	0x29
 12168 2b31 09       		.uleb128 0x9
 12169 2b32 01       		.uleb128 0x1
 12170 2b33 51       		.byte	0x51
 12171 2b34 01       		.uleb128 0x1
 12172 2b35 30       		.byte	0x30
 12173 2b36 00       		.byte	0
 12174 2b37 08       		.uleb128 0x8
 12175 2b38 36040000 		.4byte	.LVL485
 12176 2b3c 69020000 		.4byte	0x269
 12177 2b40 502B0000 		.4byte	0x2b50
 12178 2b44 09       		.uleb128 0x9
 12179 2b45 01       		.uleb128 0x1
 12180 2b46 50       		.byte	0x50
 12181 2b47 02       		.uleb128 0x2
 12182 2b48 08       		.byte	0x8
 12183 2b49 2D       		.byte	0x2d
 12184 2b4a 09       		.uleb128 0x9
 12185 2b4b 01       		.uleb128 0x1
 12186 2b4c 51       		.byte	0x51
 12187 2b4d 01       		.uleb128 0x1
 12188 2b4e 30       		.byte	0x30
 12189 2b4f 00       		.byte	0
 12190 2b50 08       		.uleb128 0x8
 12191 2b51 3E040000 		.4byte	.LVL486
 12192 2b55 69020000 		.4byte	0x269
 12193 2b59 692B0000 		.4byte	0x2b69
 12194 2b5d 09       		.uleb128 0x9
 12195 2b5e 01       		.uleb128 0x1
 12196 2b5f 50       		.byte	0x50
 12197 2b60 02       		.uleb128 0x2
 12198 2b61 08       		.byte	0x8
 12199 2b62 31       		.byte	0x31
 12200 2b63 09       		.uleb128 0x9
 12201 2b64 01       		.uleb128 0x1
 12202 2b65 51       		.byte	0x51
 12203 2b66 01       		.uleb128 0x1
 12204 2b67 30       		.byte	0x30
 12205 2b68 00       		.byte	0
 12206 2b69 08       		.uleb128 0x8
 12207 2b6a 46040000 		.4byte	.LVL487
 12208 2b6e 69020000 		.4byte	0x269
 12209 2b72 822B0000 		.4byte	0x2b82
 12210 2b76 09       		.uleb128 0x9
 12211 2b77 01       		.uleb128 0x1
 12212 2b78 50       		.byte	0x50
ARM GAS  C:\Users\Revanth\AppData\Local\Temp\ccqs06ys.s 			page 257


 12213 2b79 02       		.uleb128 0x2
 12214 2b7a 08       		.byte	0x8
 12215 2b7b 35       		.byte	0x35
 12216 2b7c 09       		.uleb128 0x9
 12217 2b7d 01       		.uleb128 0x1
 12218 2b7e 51       		.byte	0x51
 12219 2b7f 01       		.uleb128 0x1
 12220 2b80 30       		.byte	0x30
 12221 2b81 00       		.byte	0
 12222 2b82 08       		.uleb128 0x8
 12223 2b83 4E040000 		.4byte	.LVL488
 12224 2b87 69020000 		.4byte	0x269
 12225 2b8b 9B2B0000 		.4byte	0x2b9b
 12226 2b8f 09       		.uleb128 0x9
 12227 2b90 01       		.uleb128 0x1
 12228 2b91 50       		.byte	0x50
 12229 2b92 02       		.uleb128 0x2
 12230 2b93 08       		.byte	0x8
 12231 2b94 39       		.byte	0x39
 12232 2b95 09       		.uleb128 0x9
 12233 2b96 01       		.uleb128 0x1
 12234 2b97 51       		.byte	0x51
 12235 2b98 01       		.uleb128 0x1
 12236 2b99 30       		.byte	0x30
 12237 2b9a 00       		.byte	0
 12238 2b9b 08       		.uleb128 0x8
 12239 2b9c 56040000 		.4byte	.LVL489
 12240 2ba0 69020000 		.4byte	0x269
 12241 2ba4 B52B0000 		.4byte	0x2bb5
 12242 2ba8 09       		.uleb128 0x9
 12243 2ba9 01       		.uleb128 0x1
 12244 2baa 50       		.byte	0x50
 12245 2bab 02       		.uleb128 0x2
 12246 2bac 08       		.byte	0x8
 12247 2bad 3D       		.byte	0x3d
 12248 2bae 09       		.uleb128 0x9
 12249 2baf 01       		.uleb128 0x1
 12250 2bb0 51       		.byte	0x51
 12251 2bb1 02       		.uleb128 0x2
 12252 2bb2 75       		.byte	0x75
 12253 2bb3 00       		.sleb128 0
 12254 2bb4 00       		.byte	0
 12255 2bb5 08       		.uleb128 0x8
 12256 2bb6 5E040000 		.4byte	.LVL490
 12257 2bba 69020000 		.4byte	0x269
 12258 2bbe CE2B0000 		.4byte	0x2bce
 12259 2bc2 09       		.uleb128 0x9
 12260 2bc3 01       		.uleb128 0x1
 12261 2bc4 50       		.byte	0x50
 12262 2bc5 02       		.uleb128 0x2
 12263 2bc6 08       		.byte	0x8
 12264 2bc7 41       		.byte	0x41
 12265 2bc8 09       		.uleb128 0x9
 12266 2bc9 01       		.uleb128 0x1
 12267 2bca 51       		.byte	0x51
 12268 2bcb 01       		.uleb128 0x1
 12269 2bcc 30       		.byte	0x30
ARM GAS  C:\Users\Revanth\AppData\Local\Temp\ccqs06ys.s 			page 258


 12270 2bcd 00       		.byte	0
 12271 2bce 08       		.uleb128 0x8
 12272 2bcf 66040000 		.4byte	.LVL491
 12273 2bd3 69020000 		.4byte	0x269
 12274 2bd7 E72B0000 		.4byte	0x2be7
 12275 2bdb 09       		.uleb128 0x9
 12276 2bdc 01       		.uleb128 0x1
 12277 2bdd 50       		.byte	0x50
 12278 2bde 02       		.uleb128 0x2
 12279 2bdf 08       		.byte	0x8
 12280 2be0 45       		.byte	0x45
 12281 2be1 09       		.uleb128 0x9
 12282 2be2 01       		.uleb128 0x1
 12283 2be3 51       		.byte	0x51
 12284 2be4 01       		.uleb128 0x1
 12285 2be5 30       		.byte	0x30
 12286 2be6 00       		.byte	0
 12287 2be7 08       		.uleb128 0x8
 12288 2be8 6E040000 		.4byte	.LVL492
 12289 2bec 69020000 		.4byte	0x269
 12290 2bf0 002C0000 		.4byte	0x2c00
 12291 2bf4 09       		.uleb128 0x9
 12292 2bf5 01       		.uleb128 0x1
 12293 2bf6 50       		.byte	0x50
 12294 2bf7 02       		.uleb128 0x2
 12295 2bf8 08       		.byte	0x8
 12296 2bf9 49       		.byte	0x49
 12297 2bfa 09       		.uleb128 0x9
 12298 2bfb 01       		.uleb128 0x1
 12299 2bfc 51       		.byte	0x51
 12300 2bfd 01       		.uleb128 0x1
 12301 2bfe 30       		.byte	0x30
 12302 2bff 00       		.byte	0
 12303 2c00 08       		.uleb128 0x8
 12304 2c01 76040000 		.4byte	.LVL493
 12305 2c05 69020000 		.4byte	0x269
 12306 2c09 1A2C0000 		.4byte	0x2c1a
 12307 2c0d 09       		.uleb128 0x9
 12308 2c0e 01       		.uleb128 0x1
 12309 2c0f 50       		.byte	0x50
 12310 2c10 02       		.uleb128 0x2
 12311 2c11 08       		.byte	0x8
 12312 2c12 4D       		.byte	0x4d
 12313 2c13 09       		.uleb128 0x9
 12314 2c14 01       		.uleb128 0x1
 12315 2c15 51       		.byte	0x51
 12316 2c16 02       		.uleb128 0x2
 12317 2c17 75       		.byte	0x75
 12318 2c18 00       		.sleb128 0
 12319 2c19 00       		.byte	0
 12320 2c1a 08       		.uleb128 0x8
 12321 2c1b 7E040000 		.4byte	.LVL494
 12322 2c1f 69020000 		.4byte	0x269
 12323 2c23 332C0000 		.4byte	0x2c33
 12324 2c27 09       		.uleb128 0x9
 12325 2c28 01       		.uleb128 0x1
 12326 2c29 50       		.byte	0x50
ARM GAS  C:\Users\Revanth\AppData\Local\Temp\ccqs06ys.s 			page 259


 12327 2c2a 02       		.uleb128 0x2
 12328 2c2b 08       		.byte	0x8
 12329 2c2c 51       		.byte	0x51
 12330 2c2d 09       		.uleb128 0x9
 12331 2c2e 01       		.uleb128 0x1
 12332 2c2f 51       		.byte	0x51
 12333 2c30 01       		.uleb128 0x1
 12334 2c31 30       		.byte	0x30
 12335 2c32 00       		.byte	0
 12336 2c33 08       		.uleb128 0x8
 12337 2c34 86040000 		.4byte	.LVL495
 12338 2c38 69020000 		.4byte	0x269
 12339 2c3c 4C2C0000 		.4byte	0x2c4c
 12340 2c40 09       		.uleb128 0x9
 12341 2c41 01       		.uleb128 0x1
 12342 2c42 50       		.byte	0x50
 12343 2c43 02       		.uleb128 0x2
 12344 2c44 08       		.byte	0x8
 12345 2c45 55       		.byte	0x55
 12346 2c46 09       		.uleb128 0x9
 12347 2c47 01       		.uleb128 0x1
 12348 2c48 51       		.byte	0x51
 12349 2c49 01       		.uleb128 0x1
 12350 2c4a 30       		.byte	0x30
 12351 2c4b 00       		.byte	0
 12352 2c4c 08       		.uleb128 0x8
 12353 2c4d 8E040000 		.4byte	.LVL496
 12354 2c51 69020000 		.4byte	0x269
 12355 2c55 662C0000 		.4byte	0x2c66
 12356 2c59 09       		.uleb128 0x9
 12357 2c5a 01       		.uleb128 0x1
 12358 2c5b 50       		.byte	0x50
 12359 2c5c 02       		.uleb128 0x2
 12360 2c5d 08       		.byte	0x8
 12361 2c5e 59       		.byte	0x59
 12362 2c5f 09       		.uleb128 0x9
 12363 2c60 01       		.uleb128 0x1
 12364 2c61 51       		.byte	0x51
 12365 2c62 02       		.uleb128 0x2
 12366 2c63 75       		.byte	0x75
 12367 2c64 00       		.sleb128 0
 12368 2c65 00       		.byte	0
 12369 2c66 08       		.uleb128 0x8
 12370 2c67 96040000 		.4byte	.LVL497
 12371 2c6b 69020000 		.4byte	0x269
 12372 2c6f 7F2C0000 		.4byte	0x2c7f
 12373 2c73 09       		.uleb128 0x9
 12374 2c74 01       		.uleb128 0x1
 12375 2c75 50       		.byte	0x50
 12376 2c76 02       		.uleb128 0x2
 12377 2c77 08       		.byte	0x8
 12378 2c78 5D       		.byte	0x5d
 12379 2c79 09       		.uleb128 0x9
 12380 2c7a 01       		.uleb128 0x1
 12381 2c7b 51       		.byte	0x51
 12382 2c7c 01       		.uleb128 0x1
 12383 2c7d 30       		.byte	0x30
ARM GAS  C:\Users\Revanth\AppData\Local\Temp\ccqs06ys.s 			page 260


 12384 2c7e 00       		.byte	0
 12385 2c7f 08       		.uleb128 0x8
 12386 2c80 9E040000 		.4byte	.LVL498
 12387 2c84 69020000 		.4byte	0x269
 12388 2c88 982C0000 		.4byte	0x2c98
 12389 2c8c 09       		.uleb128 0x9
 12390 2c8d 01       		.uleb128 0x1
 12391 2c8e 50       		.byte	0x50
 12392 2c8f 02       		.uleb128 0x2
 12393 2c90 08       		.byte	0x8
 12394 2c91 61       		.byte	0x61
 12395 2c92 09       		.uleb128 0x9
 12396 2c93 01       		.uleb128 0x1
 12397 2c94 51       		.byte	0x51
 12398 2c95 01       		.uleb128 0x1
 12399 2c96 30       		.byte	0x30
 12400 2c97 00       		.byte	0
 12401 2c98 08       		.uleb128 0x8
 12402 2c99 A6040000 		.4byte	.LVL499
 12403 2c9d 69020000 		.4byte	0x269
 12404 2ca1 B12C0000 		.4byte	0x2cb1
 12405 2ca5 09       		.uleb128 0x9
 12406 2ca6 01       		.uleb128 0x1
 12407 2ca7 50       		.byte	0x50
 12408 2ca8 02       		.uleb128 0x2
 12409 2ca9 08       		.byte	0x8
 12410 2caa 65       		.byte	0x65
 12411 2cab 09       		.uleb128 0x9
 12412 2cac 01       		.uleb128 0x1
 12413 2cad 51       		.byte	0x51
 12414 2cae 01       		.uleb128 0x1
 12415 2caf 30       		.byte	0x30
 12416 2cb0 00       		.byte	0
 12417 2cb1 08       		.uleb128 0x8
 12418 2cb2 AE040000 		.4byte	.LVL500
 12419 2cb6 69020000 		.4byte	0x269
 12420 2cba CA2C0000 		.4byte	0x2cca
 12421 2cbe 09       		.uleb128 0x9
 12422 2cbf 01       		.uleb128 0x1
 12423 2cc0 50       		.byte	0x50
 12424 2cc1 02       		.uleb128 0x2
 12425 2cc2 08       		.byte	0x8
 12426 2cc3 69       		.byte	0x69
 12427 2cc4 09       		.uleb128 0x9
 12428 2cc5 01       		.uleb128 0x1
 12429 2cc6 51       		.byte	0x51
 12430 2cc7 01       		.uleb128 0x1
 12431 2cc8 30       		.byte	0x30
 12432 2cc9 00       		.byte	0
 12433 2cca 08       		.uleb128 0x8
 12434 2ccb B6040000 		.4byte	.LVL501
 12435 2ccf 69020000 		.4byte	0x269
 12436 2cd3 E32C0000 		.4byte	0x2ce3
 12437 2cd7 09       		.uleb128 0x9
 12438 2cd8 01       		.uleb128 0x1
 12439 2cd9 50       		.byte	0x50
 12440 2cda 02       		.uleb128 0x2
ARM GAS  C:\Users\Revanth\AppData\Local\Temp\ccqs06ys.s 			page 261


 12441 2cdb 08       		.byte	0x8
 12442 2cdc 6D       		.byte	0x6d
 12443 2cdd 09       		.uleb128 0x9
 12444 2cde 01       		.uleb128 0x1
 12445 2cdf 51       		.byte	0x51
 12446 2ce0 01       		.uleb128 0x1
 12447 2ce1 30       		.byte	0x30
 12448 2ce2 00       		.byte	0
 12449 2ce3 08       		.uleb128 0x8
 12450 2ce4 BE040000 		.4byte	.LVL502
 12451 2ce8 69020000 		.4byte	0x269
 12452 2cec FC2C0000 		.4byte	0x2cfc
 12453 2cf0 09       		.uleb128 0x9
 12454 2cf1 01       		.uleb128 0x1
 12455 2cf2 50       		.byte	0x50
 12456 2cf3 02       		.uleb128 0x2
 12457 2cf4 08       		.byte	0x8
 12458 2cf5 71       		.byte	0x71
 12459 2cf6 09       		.uleb128 0x9
 12460 2cf7 01       		.uleb128 0x1
 12461 2cf8 51       		.byte	0x51
 12462 2cf9 01       		.uleb128 0x1
 12463 2cfa 30       		.byte	0x30
 12464 2cfb 00       		.byte	0
 12465 2cfc 08       		.uleb128 0x8
 12466 2cfd C6040000 		.4byte	.LVL503
 12467 2d01 69020000 		.4byte	0x269
 12468 2d05 152D0000 		.4byte	0x2d15
 12469 2d09 09       		.uleb128 0x9
 12470 2d0a 01       		.uleb128 0x1
 12471 2d0b 50       		.byte	0x50
 12472 2d0c 02       		.uleb128 0x2
 12473 2d0d 08       		.byte	0x8
 12474 2d0e 75       		.byte	0x75
 12475 2d0f 09       		.uleb128 0x9
 12476 2d10 01       		.uleb128 0x1
 12477 2d11 51       		.byte	0x51
 12478 2d12 01       		.uleb128 0x1
 12479 2d13 30       		.byte	0x30
 12480 2d14 00       		.byte	0
 12481 2d15 08       		.uleb128 0x8
 12482 2d16 CE040000 		.4byte	.LVL504
 12483 2d1a 69020000 		.4byte	0x269
 12484 2d1e 2E2D0000 		.4byte	0x2d2e
 12485 2d22 09       		.uleb128 0x9
 12486 2d23 01       		.uleb128 0x1
 12487 2d24 50       		.byte	0x50
 12488 2d25 02       		.uleb128 0x2
 12489 2d26 08       		.byte	0x8
 12490 2d27 79       		.byte	0x79
 12491 2d28 09       		.uleb128 0x9
 12492 2d29 01       		.uleb128 0x1
 12493 2d2a 51       		.byte	0x51
 12494 2d2b 01       		.uleb128 0x1
 12495 2d2c 30       		.byte	0x30
 12496 2d2d 00       		.byte	0
 12497 2d2e 08       		.uleb128 0x8
ARM GAS  C:\Users\Revanth\AppData\Local\Temp\ccqs06ys.s 			page 262


 12498 2d2f D6040000 		.4byte	.LVL505
 12499 2d33 69020000 		.4byte	0x269
 12500 2d37 472D0000 		.4byte	0x2d47
 12501 2d3b 09       		.uleb128 0x9
 12502 2d3c 01       		.uleb128 0x1
 12503 2d3d 50       		.byte	0x50
 12504 2d3e 02       		.uleb128 0x2
 12505 2d3f 08       		.byte	0x8
 12506 2d40 7D       		.byte	0x7d
 12507 2d41 09       		.uleb128 0x9
 12508 2d42 01       		.uleb128 0x1
 12509 2d43 51       		.byte	0x51
 12510 2d44 01       		.uleb128 0x1
 12511 2d45 30       		.byte	0x30
 12512 2d46 00       		.byte	0
 12513 2d47 08       		.uleb128 0x8
 12514 2d48 DC040000 		.4byte	.LVL506
 12515 2d4c B75F0000 		.4byte	0x5fb7
 12516 2d50 5A2D0000 		.4byte	0x2d5a
 12517 2d54 09       		.uleb128 0x9
 12518 2d55 01       		.uleb128 0x1
 12519 2d56 50       		.byte	0x50
 12520 2d57 01       		.uleb128 0x1
 12521 2d58 30       		.byte	0x30
 12522 2d59 00       		.byte	0
 12523 2d5a 08       		.uleb128 0x8
 12524 2d5b EA040000 		.4byte	.LVL507
 12525 2d5f B75F0000 		.4byte	0x5fb7
 12526 2d63 6D2D0000 		.4byte	0x2d6d
 12527 2d67 09       		.uleb128 0x9
 12528 2d68 01       		.uleb128 0x1
 12529 2d69 50       		.byte	0x50
 12530 2d6a 01       		.uleb128 0x1
 12531 2d6b 31       		.byte	0x31
 12532 2d6c 00       		.byte	0
 12533 2d6d 08       		.uleb128 0x8
 12534 2d6e F0040000 		.4byte	.LVL508
 12535 2d72 A6020000 		.4byte	0x2a6
 12536 2d76 802D0000 		.4byte	0x2d80
 12537 2d7a 09       		.uleb128 0x9
 12538 2d7b 01       		.uleb128 0x1
 12539 2d7c 50       		.byte	0x50
 12540 2d7d 01       		.uleb128 0x1
 12541 2d7e 31       		.byte	0x31
 12542 2d7f 00       		.byte	0
 12543 2d80 08       		.uleb128 0x8
 12544 2d81 F8040000 		.4byte	.LVL509
 12545 2d85 69020000 		.4byte	0x269
 12546 2d89 992D0000 		.4byte	0x2d99
 12547 2d8d 09       		.uleb128 0x9
 12548 2d8e 01       		.uleb128 0x1
 12549 2d8f 50       		.byte	0x50
 12550 2d90 02       		.uleb128 0x2
 12551 2d91 08       		.byte	0x8
 12552 2d92 20       		.byte	0x20
 12553 2d93 09       		.uleb128 0x9
 12554 2d94 01       		.uleb128 0x1
ARM GAS  C:\Users\Revanth\AppData\Local\Temp\ccqs06ys.s 			page 263


 12555 2d95 51       		.byte	0x51
 12556 2d96 01       		.uleb128 0x1
 12557 2d97 30       		.byte	0x30
 12558 2d98 00       		.byte	0
 12559 2d99 08       		.uleb128 0x8
 12560 2d9a 00050000 		.4byte	.LVL510
 12561 2d9e 69020000 		.4byte	0x269
 12562 2da2 B22D0000 		.4byte	0x2db2
 12563 2da6 09       		.uleb128 0x9
 12564 2da7 01       		.uleb128 0x1
 12565 2da8 50       		.byte	0x50
 12566 2da9 02       		.uleb128 0x2
 12567 2daa 08       		.byte	0x8
 12568 2dab 24       		.byte	0x24
 12569 2dac 09       		.uleb128 0x9
 12570 2dad 01       		.uleb128 0x1
 12571 2dae 51       		.byte	0x51
 12572 2daf 01       		.uleb128 0x1
 12573 2db0 30       		.byte	0x30
 12574 2db1 00       		.byte	0
 12575 2db2 08       		.uleb128 0x8
 12576 2db3 08050000 		.4byte	.LVL511
 12577 2db7 69020000 		.4byte	0x269
 12578 2dbb CB2D0000 		.4byte	0x2dcb
 12579 2dbf 09       		.uleb128 0x9
 12580 2dc0 01       		.uleb128 0x1
 12581 2dc1 50       		.byte	0x50
 12582 2dc2 02       		.uleb128 0x2
 12583 2dc3 08       		.byte	0x8
 12584 2dc4 28       		.byte	0x28
 12585 2dc5 09       		.uleb128 0x9
 12586 2dc6 01       		.uleb128 0x1
 12587 2dc7 51       		.byte	0x51
 12588 2dc8 01       		.uleb128 0x1
 12589 2dc9 30       		.byte	0x30
 12590 2dca 00       		.byte	0
 12591 2dcb 08       		.uleb128 0x8
 12592 2dcc 10050000 		.4byte	.LVL512
 12593 2dd0 69020000 		.4byte	0x269
 12594 2dd4 E42D0000 		.4byte	0x2de4
 12595 2dd8 09       		.uleb128 0x9
 12596 2dd9 01       		.uleb128 0x1
 12597 2dda 50       		.byte	0x50
 12598 2ddb 02       		.uleb128 0x2
 12599 2ddc 08       		.byte	0x8
 12600 2ddd 2C       		.byte	0x2c
 12601 2dde 09       		.uleb128 0x9
 12602 2ddf 01       		.uleb128 0x1
 12603 2de0 51       		.byte	0x51
 12604 2de1 01       		.uleb128 0x1
 12605 2de2 30       		.byte	0x30
 12606 2de3 00       		.byte	0
 12607 2de4 08       		.uleb128 0x8
 12608 2de5 18050000 		.4byte	.LVL513
 12609 2de9 69020000 		.4byte	0x269
 12610 2ded FD2D0000 		.4byte	0x2dfd
 12611 2df1 09       		.uleb128 0x9
ARM GAS  C:\Users\Revanth\AppData\Local\Temp\ccqs06ys.s 			page 264


 12612 2df2 01       		.uleb128 0x1
 12613 2df3 50       		.byte	0x50
 12614 2df4 02       		.uleb128 0x2
 12615 2df5 08       		.byte	0x8
 12616 2df6 30       		.byte	0x30
 12617 2df7 09       		.uleb128 0x9
 12618 2df8 01       		.uleb128 0x1
 12619 2df9 51       		.byte	0x51
 12620 2dfa 01       		.uleb128 0x1
 12621 2dfb 30       		.byte	0x30
 12622 2dfc 00       		.byte	0
 12623 2dfd 08       		.uleb128 0x8
 12624 2dfe 20050000 		.4byte	.LVL514
 12625 2e02 69020000 		.4byte	0x269
 12626 2e06 162E0000 		.4byte	0x2e16
 12627 2e0a 09       		.uleb128 0x9
 12628 2e0b 01       		.uleb128 0x1
 12629 2e0c 50       		.byte	0x50
 12630 2e0d 02       		.uleb128 0x2
 12631 2e0e 08       		.byte	0x8
 12632 2e0f 34       		.byte	0x34
 12633 2e10 09       		.uleb128 0x9
 12634 2e11 01       		.uleb128 0x1
 12635 2e12 51       		.byte	0x51
 12636 2e13 01       		.uleb128 0x1
 12637 2e14 30       		.byte	0x30
 12638 2e15 00       		.byte	0
 12639 2e16 08       		.uleb128 0x8
 12640 2e17 28050000 		.4byte	.LVL515
 12641 2e1b 69020000 		.4byte	0x269
 12642 2e1f 2F2E0000 		.4byte	0x2e2f
 12643 2e23 09       		.uleb128 0x9
 12644 2e24 01       		.uleb128 0x1
 12645 2e25 50       		.byte	0x50
 12646 2e26 02       		.uleb128 0x2
 12647 2e27 08       		.byte	0x8
 12648 2e28 38       		.byte	0x38
 12649 2e29 09       		.uleb128 0x9
 12650 2e2a 01       		.uleb128 0x1
 12651 2e2b 51       		.byte	0x51
 12652 2e2c 01       		.uleb128 0x1
 12653 2e2d 31       		.byte	0x31
 12654 2e2e 00       		.byte	0
 12655 2e2f 08       		.uleb128 0x8
 12656 2e30 30050000 		.4byte	.LVL516
 12657 2e34 69020000 		.4byte	0x269
 12658 2e38 482E0000 		.4byte	0x2e48
 12659 2e3c 09       		.uleb128 0x9
 12660 2e3d 01       		.uleb128 0x1
 12661 2e3e 50       		.byte	0x50
 12662 2e3f 02       		.uleb128 0x2
 12663 2e40 08       		.byte	0x8
 12664 2e41 3C       		.byte	0x3c
 12665 2e42 09       		.uleb128 0x9
 12666 2e43 01       		.uleb128 0x1
 12667 2e44 51       		.byte	0x51
 12668 2e45 01       		.uleb128 0x1
ARM GAS  C:\Users\Revanth\AppData\Local\Temp\ccqs06ys.s 			page 265


 12669 2e46 31       		.byte	0x31
 12670 2e47 00       		.byte	0
 12671 2e48 08       		.uleb128 0x8
 12672 2e49 38050000 		.4byte	.LVL517
 12673 2e4d 69020000 		.4byte	0x269
 12674 2e51 612E0000 		.4byte	0x2e61
 12675 2e55 09       		.uleb128 0x9
 12676 2e56 01       		.uleb128 0x1
 12677 2e57 50       		.byte	0x50
 12678 2e58 02       		.uleb128 0x2
 12679 2e59 08       		.byte	0x8
 12680 2e5a 40       		.byte	0x40
 12681 2e5b 09       		.uleb128 0x9
 12682 2e5c 01       		.uleb128 0x1
 12683 2e5d 51       		.byte	0x51
 12684 2e5e 01       		.uleb128 0x1
 12685 2e5f 30       		.byte	0x30
 12686 2e60 00       		.byte	0
 12687 2e61 08       		.uleb128 0x8
 12688 2e62 40050000 		.4byte	.LVL518
 12689 2e66 69020000 		.4byte	0x269
 12690 2e6a 7A2E0000 		.4byte	0x2e7a
 12691 2e6e 09       		.uleb128 0x9
 12692 2e6f 01       		.uleb128 0x1
 12693 2e70 50       		.byte	0x50
 12694 2e71 02       		.uleb128 0x2
 12695 2e72 08       		.byte	0x8
 12696 2e73 44       		.byte	0x44
 12697 2e74 09       		.uleb128 0x9
 12698 2e75 01       		.uleb128 0x1
 12699 2e76 51       		.byte	0x51
 12700 2e77 01       		.uleb128 0x1
 12701 2e78 31       		.byte	0x31
 12702 2e79 00       		.byte	0
 12703 2e7a 08       		.uleb128 0x8
 12704 2e7b 48050000 		.4byte	.LVL519
 12705 2e7f 69020000 		.4byte	0x269
 12706 2e83 932E0000 		.4byte	0x2e93
 12707 2e87 09       		.uleb128 0x9
 12708 2e88 01       		.uleb128 0x1
 12709 2e89 50       		.byte	0x50
 12710 2e8a 02       		.uleb128 0x2
 12711 2e8b 08       		.byte	0x8
 12712 2e8c 48       		.byte	0x48
 12713 2e8d 09       		.uleb128 0x9
 12714 2e8e 01       		.uleb128 0x1
 12715 2e8f 51       		.byte	0x51
 12716 2e90 01       		.uleb128 0x1
 12717 2e91 31       		.byte	0x31
 12718 2e92 00       		.byte	0
 12719 2e93 08       		.uleb128 0x8
 12720 2e94 50050000 		.4byte	.LVL520
 12721 2e98 69020000 		.4byte	0x269
 12722 2e9c AC2E0000 		.4byte	0x2eac
 12723 2ea0 09       		.uleb128 0x9
 12724 2ea1 01       		.uleb128 0x1
 12725 2ea2 50       		.byte	0x50
ARM GAS  C:\Users\Revanth\AppData\Local\Temp\ccqs06ys.s 			page 266


 12726 2ea3 02       		.uleb128 0x2
 12727 2ea4 08       		.byte	0x8
 12728 2ea5 4C       		.byte	0x4c
 12729 2ea6 09       		.uleb128 0x9
 12730 2ea7 01       		.uleb128 0x1
 12731 2ea8 51       		.byte	0x51
 12732 2ea9 01       		.uleb128 0x1
 12733 2eaa 31       		.byte	0x31
 12734 2eab 00       		.byte	0
 12735 2eac 08       		.uleb128 0x8
 12736 2ead 58050000 		.4byte	.LVL521
 12737 2eb1 69020000 		.4byte	0x269
 12738 2eb5 C52E0000 		.4byte	0x2ec5
 12739 2eb9 09       		.uleb128 0x9
 12740 2eba 01       		.uleb128 0x1
 12741 2ebb 50       		.byte	0x50
 12742 2ebc 02       		.uleb128 0x2
 12743 2ebd 08       		.byte	0x8
 12744 2ebe 50       		.byte	0x50
 12745 2ebf 09       		.uleb128 0x9
 12746 2ec0 01       		.uleb128 0x1
 12747 2ec1 51       		.byte	0x51
 12748 2ec2 01       		.uleb128 0x1
 12749 2ec3 30       		.byte	0x30
 12750 2ec4 00       		.byte	0
 12751 2ec5 08       		.uleb128 0x8
 12752 2ec6 60050000 		.4byte	.LVL522
 12753 2eca 69020000 		.4byte	0x269
 12754 2ece DE2E0000 		.4byte	0x2ede
 12755 2ed2 09       		.uleb128 0x9
 12756 2ed3 01       		.uleb128 0x1
 12757 2ed4 50       		.byte	0x50
 12758 2ed5 02       		.uleb128 0x2
 12759 2ed6 08       		.byte	0x8
 12760 2ed7 54       		.byte	0x54
 12761 2ed8 09       		.uleb128 0x9
 12762 2ed9 01       		.uleb128 0x1
 12763 2eda 51       		.byte	0x51
 12764 2edb 01       		.uleb128 0x1
 12765 2edc 31       		.byte	0x31
 12766 2edd 00       		.byte	0
 12767 2ede 08       		.uleb128 0x8
 12768 2edf 68050000 		.4byte	.LVL523
 12769 2ee3 69020000 		.4byte	0x269
 12770 2ee7 F72E0000 		.4byte	0x2ef7
 12771 2eeb 09       		.uleb128 0x9
 12772 2eec 01       		.uleb128 0x1
 12773 2eed 50       		.byte	0x50
 12774 2eee 02       		.uleb128 0x2
 12775 2eef 08       		.byte	0x8
 12776 2ef0 58       		.byte	0x58
 12777 2ef1 09       		.uleb128 0x9
 12778 2ef2 01       		.uleb128 0x1
 12779 2ef3 51       		.byte	0x51
 12780 2ef4 01       		.uleb128 0x1
 12781 2ef5 31       		.byte	0x31
 12782 2ef6 00       		.byte	0
ARM GAS  C:\Users\Revanth\AppData\Local\Temp\ccqs06ys.s 			page 267


 12783 2ef7 08       		.uleb128 0x8
 12784 2ef8 70050000 		.4byte	.LVL524
 12785 2efc 69020000 		.4byte	0x269
 12786 2f00 102F0000 		.4byte	0x2f10
 12787 2f04 09       		.uleb128 0x9
 12788 2f05 01       		.uleb128 0x1
 12789 2f06 50       		.byte	0x50
 12790 2f07 02       		.uleb128 0x2
 12791 2f08 08       		.byte	0x8
 12792 2f09 5C       		.byte	0x5c
 12793 2f0a 09       		.uleb128 0x9
 12794 2f0b 01       		.uleb128 0x1
 12795 2f0c 51       		.byte	0x51
 12796 2f0d 01       		.uleb128 0x1
 12797 2f0e 30       		.byte	0x30
 12798 2f0f 00       		.byte	0
 12799 2f10 08       		.uleb128 0x8
 12800 2f11 78050000 		.4byte	.LVL525
 12801 2f15 69020000 		.4byte	0x269
 12802 2f19 292F0000 		.4byte	0x2f29
 12803 2f1d 09       		.uleb128 0x9
 12804 2f1e 01       		.uleb128 0x1
 12805 2f1f 50       		.byte	0x50
 12806 2f20 02       		.uleb128 0x2
 12807 2f21 08       		.byte	0x8
 12808 2f22 60       		.byte	0x60
 12809 2f23 09       		.uleb128 0x9
 12810 2f24 01       		.uleb128 0x1
 12811 2f25 51       		.byte	0x51
 12812 2f26 01       		.uleb128 0x1
 12813 2f27 30       		.byte	0x30
 12814 2f28 00       		.byte	0
 12815 2f29 08       		.uleb128 0x8
 12816 2f2a 80050000 		.4byte	.LVL526
 12817 2f2e 69020000 		.4byte	0x269
 12818 2f32 422F0000 		.4byte	0x2f42
 12819 2f36 09       		.uleb128 0x9
 12820 2f37 01       		.uleb128 0x1
 12821 2f38 50       		.byte	0x50
 12822 2f39 02       		.uleb128 0x2
 12823 2f3a 08       		.byte	0x8
 12824 2f3b 64       		.byte	0x64
 12825 2f3c 09       		.uleb128 0x9
 12826 2f3d 01       		.uleb128 0x1
 12827 2f3e 51       		.byte	0x51
 12828 2f3f 01       		.uleb128 0x1
 12829 2f40 30       		.byte	0x30
 12830 2f41 00       		.byte	0
 12831 2f42 08       		.uleb128 0x8
 12832 2f43 88050000 		.4byte	.LVL527
 12833 2f47 69020000 		.4byte	0x269
 12834 2f4b 5B2F0000 		.4byte	0x2f5b
 12835 2f4f 09       		.uleb128 0x9
 12836 2f50 01       		.uleb128 0x1
 12837 2f51 50       		.byte	0x50
 12838 2f52 02       		.uleb128 0x2
 12839 2f53 08       		.byte	0x8
ARM GAS  C:\Users\Revanth\AppData\Local\Temp\ccqs06ys.s 			page 268


 12840 2f54 68       		.byte	0x68
 12841 2f55 09       		.uleb128 0x9
 12842 2f56 01       		.uleb128 0x1
 12843 2f57 51       		.byte	0x51
 12844 2f58 01       		.uleb128 0x1
 12845 2f59 30       		.byte	0x30
 12846 2f5a 00       		.byte	0
 12847 2f5b 08       		.uleb128 0x8
 12848 2f5c 90050000 		.4byte	.LVL528
 12849 2f60 69020000 		.4byte	0x269
 12850 2f64 742F0000 		.4byte	0x2f74
 12851 2f68 09       		.uleb128 0x9
 12852 2f69 01       		.uleb128 0x1
 12853 2f6a 50       		.byte	0x50
 12854 2f6b 02       		.uleb128 0x2
 12855 2f6c 08       		.byte	0x8
 12856 2f6d 6C       		.byte	0x6c
 12857 2f6e 09       		.uleb128 0x9
 12858 2f6f 01       		.uleb128 0x1
 12859 2f70 51       		.byte	0x51
 12860 2f71 01       		.uleb128 0x1
 12861 2f72 30       		.byte	0x30
 12862 2f73 00       		.byte	0
 12863 2f74 08       		.uleb128 0x8
 12864 2f75 98050000 		.4byte	.LVL529
 12865 2f79 69020000 		.4byte	0x269
 12866 2f7d 8D2F0000 		.4byte	0x2f8d
 12867 2f81 09       		.uleb128 0x9
 12868 2f82 01       		.uleb128 0x1
 12869 2f83 50       		.byte	0x50
 12870 2f84 02       		.uleb128 0x2
 12871 2f85 08       		.byte	0x8
 12872 2f86 70       		.byte	0x70
 12873 2f87 09       		.uleb128 0x9
 12874 2f88 01       		.uleb128 0x1
 12875 2f89 51       		.byte	0x51
 12876 2f8a 01       		.uleb128 0x1
 12877 2f8b 30       		.byte	0x30
 12878 2f8c 00       		.byte	0
 12879 2f8d 08       		.uleb128 0x8
 12880 2f8e A0050000 		.4byte	.LVL530
 12881 2f92 69020000 		.4byte	0x269
 12882 2f96 A62F0000 		.4byte	0x2fa6
 12883 2f9a 09       		.uleb128 0x9
 12884 2f9b 01       		.uleb128 0x1
 12885 2f9c 50       		.byte	0x50
 12886 2f9d 02       		.uleb128 0x2
 12887 2f9e 08       		.byte	0x8
 12888 2f9f 74       		.byte	0x74
 12889 2fa0 09       		.uleb128 0x9
 12890 2fa1 01       		.uleb128 0x1
 12891 2fa2 51       		.byte	0x51
 12892 2fa3 01       		.uleb128 0x1
 12893 2fa4 30       		.byte	0x30
 12894 2fa5 00       		.byte	0
 12895 2fa6 08       		.uleb128 0x8
 12896 2fa7 A8050000 		.4byte	.LVL531
ARM GAS  C:\Users\Revanth\AppData\Local\Temp\ccqs06ys.s 			page 269


 12897 2fab 69020000 		.4byte	0x269
 12898 2faf BF2F0000 		.4byte	0x2fbf
 12899 2fb3 09       		.uleb128 0x9
 12900 2fb4 01       		.uleb128 0x1
 12901 2fb5 50       		.byte	0x50
 12902 2fb6 02       		.uleb128 0x2
 12903 2fb7 08       		.byte	0x8
 12904 2fb8 78       		.byte	0x78
 12905 2fb9 09       		.uleb128 0x9
 12906 2fba 01       		.uleb128 0x1
 12907 2fbb 51       		.byte	0x51
 12908 2fbc 01       		.uleb128 0x1
 12909 2fbd 30       		.byte	0x30
 12910 2fbe 00       		.byte	0
 12911 2fbf 08       		.uleb128 0x8
 12912 2fc0 B0050000 		.4byte	.LVL532
 12913 2fc4 69020000 		.4byte	0x269
 12914 2fc8 D82F0000 		.4byte	0x2fd8
 12915 2fcc 09       		.uleb128 0x9
 12916 2fcd 01       		.uleb128 0x1
 12917 2fce 50       		.byte	0x50
 12918 2fcf 02       		.uleb128 0x2
 12919 2fd0 08       		.byte	0x8
 12920 2fd1 7C       		.byte	0x7c
 12921 2fd2 09       		.uleb128 0x9
 12922 2fd3 01       		.uleb128 0x1
 12923 2fd4 51       		.byte	0x51
 12924 2fd5 01       		.uleb128 0x1
 12925 2fd6 30       		.byte	0x30
 12926 2fd7 00       		.byte	0
 12927 2fd8 08       		.uleb128 0x8
 12928 2fd9 B8050000 		.4byte	.LVL533
 12929 2fdd 69020000 		.4byte	0x269
 12930 2fe1 F12F0000 		.4byte	0x2ff1
 12931 2fe5 09       		.uleb128 0x9
 12932 2fe6 01       		.uleb128 0x1
 12933 2fe7 50       		.byte	0x50
 12934 2fe8 02       		.uleb128 0x2
 12935 2fe9 08       		.byte	0x8
 12936 2fea 21       		.byte	0x21
 12937 2feb 09       		.uleb128 0x9
 12938 2fec 01       		.uleb128 0x1
 12939 2fed 51       		.byte	0x51
 12940 2fee 01       		.uleb128 0x1
 12941 2fef 30       		.byte	0x30
 12942 2ff0 00       		.byte	0
 12943 2ff1 08       		.uleb128 0x8
 12944 2ff2 C0050000 		.4byte	.LVL534
 12945 2ff6 69020000 		.4byte	0x269
 12946 2ffa 0A300000 		.4byte	0x300a
 12947 2ffe 09       		.uleb128 0x9
 12948 2fff 01       		.uleb128 0x1
 12949 3000 50       		.byte	0x50
 12950 3001 02       		.uleb128 0x2
 12951 3002 08       		.byte	0x8
 12952 3003 25       		.byte	0x25
 12953 3004 09       		.uleb128 0x9
ARM GAS  C:\Users\Revanth\AppData\Local\Temp\ccqs06ys.s 			page 270


 12954 3005 01       		.uleb128 0x1
 12955 3006 51       		.byte	0x51
 12956 3007 01       		.uleb128 0x1
 12957 3008 30       		.byte	0x30
 12958 3009 00       		.byte	0
 12959 300a 08       		.uleb128 0x8
 12960 300b C8050000 		.4byte	.LVL535
 12961 300f 69020000 		.4byte	0x269
 12962 3013 23300000 		.4byte	0x3023
 12963 3017 09       		.uleb128 0x9
 12964 3018 01       		.uleb128 0x1
 12965 3019 50       		.byte	0x50
 12966 301a 02       		.uleb128 0x2
 12967 301b 08       		.byte	0x8
 12968 301c 29       		.byte	0x29
 12969 301d 09       		.uleb128 0x9
 12970 301e 01       		.uleb128 0x1
 12971 301f 51       		.byte	0x51
 12972 3020 01       		.uleb128 0x1
 12973 3021 30       		.byte	0x30
 12974 3022 00       		.byte	0
 12975 3023 08       		.uleb128 0x8
 12976 3024 D0050000 		.4byte	.LVL536
 12977 3028 69020000 		.4byte	0x269
 12978 302c 3C300000 		.4byte	0x303c
 12979 3030 09       		.uleb128 0x9
 12980 3031 01       		.uleb128 0x1
 12981 3032 50       		.byte	0x50
 12982 3033 02       		.uleb128 0x2
 12983 3034 08       		.byte	0x8
 12984 3035 2D       		.byte	0x2d
 12985 3036 09       		.uleb128 0x9
 12986 3037 01       		.uleb128 0x1
 12987 3038 51       		.byte	0x51
 12988 3039 01       		.uleb128 0x1
 12989 303a 30       		.byte	0x30
 12990 303b 00       		.byte	0
 12991 303c 08       		.uleb128 0x8
 12992 303d D8050000 		.4byte	.LVL537
 12993 3041 69020000 		.4byte	0x269
 12994 3045 55300000 		.4byte	0x3055
 12995 3049 09       		.uleb128 0x9
 12996 304a 01       		.uleb128 0x1
 12997 304b 50       		.byte	0x50
 12998 304c 02       		.uleb128 0x2
 12999 304d 08       		.byte	0x8
 13000 304e 31       		.byte	0x31
 13001 304f 09       		.uleb128 0x9
 13002 3050 01       		.uleb128 0x1
 13003 3051 51       		.byte	0x51
 13004 3052 01       		.uleb128 0x1
 13005 3053 30       		.byte	0x30
 13006 3054 00       		.byte	0
 13007 3055 08       		.uleb128 0x8
 13008 3056 E0050000 		.4byte	.LVL538
 13009 305a 69020000 		.4byte	0x269
 13010 305e 6E300000 		.4byte	0x306e
ARM GAS  C:\Users\Revanth\AppData\Local\Temp\ccqs06ys.s 			page 271


 13011 3062 09       		.uleb128 0x9
 13012 3063 01       		.uleb128 0x1
 13013 3064 50       		.byte	0x50
 13014 3065 02       		.uleb128 0x2
 13015 3066 08       		.byte	0x8
 13016 3067 35       		.byte	0x35
 13017 3068 09       		.uleb128 0x9
 13018 3069 01       		.uleb128 0x1
 13019 306a 51       		.byte	0x51
 13020 306b 01       		.uleb128 0x1
 13021 306c 30       		.byte	0x30
 13022 306d 00       		.byte	0
 13023 306e 08       		.uleb128 0x8
 13024 306f E8050000 		.4byte	.LVL539
 13025 3073 69020000 		.4byte	0x269
 13026 3077 88300000 		.4byte	0x3088
 13027 307b 09       		.uleb128 0x9
 13028 307c 01       		.uleb128 0x1
 13029 307d 50       		.byte	0x50
 13030 307e 02       		.uleb128 0x2
 13031 307f 08       		.byte	0x8
 13032 3080 39       		.byte	0x39
 13033 3081 09       		.uleb128 0x9
 13034 3082 01       		.uleb128 0x1
 13035 3083 51       		.byte	0x51
 13036 3084 02       		.uleb128 0x2
 13037 3085 75       		.byte	0x75
 13038 3086 00       		.sleb128 0
 13039 3087 00       		.byte	0
 13040 3088 08       		.uleb128 0x8
 13041 3089 F0050000 		.4byte	.LVL540
 13042 308d 69020000 		.4byte	0x269
 13043 3091 A2300000 		.4byte	0x30a2
 13044 3095 09       		.uleb128 0x9
 13045 3096 01       		.uleb128 0x1
 13046 3097 50       		.byte	0x50
 13047 3098 02       		.uleb128 0x2
 13048 3099 08       		.byte	0x8
 13049 309a 3D       		.byte	0x3d
 13050 309b 09       		.uleb128 0x9
 13051 309c 01       		.uleb128 0x1
 13052 309d 51       		.byte	0x51
 13053 309e 02       		.uleb128 0x2
 13054 309f 75       		.byte	0x75
 13055 30a0 00       		.sleb128 0
 13056 30a1 00       		.byte	0
 13057 30a2 08       		.uleb128 0x8
 13058 30a3 F8050000 		.4byte	.LVL541
 13059 30a7 69020000 		.4byte	0x269
 13060 30ab BB300000 		.4byte	0x30bb
 13061 30af 09       		.uleb128 0x9
 13062 30b0 01       		.uleb128 0x1
 13063 30b1 50       		.byte	0x50
 13064 30b2 02       		.uleb128 0x2
 13065 30b3 08       		.byte	0x8
 13066 30b4 41       		.byte	0x41
 13067 30b5 09       		.uleb128 0x9
ARM GAS  C:\Users\Revanth\AppData\Local\Temp\ccqs06ys.s 			page 272


 13068 30b6 01       		.uleb128 0x1
 13069 30b7 51       		.byte	0x51
 13070 30b8 01       		.uleb128 0x1
 13071 30b9 30       		.byte	0x30
 13072 30ba 00       		.byte	0
 13073 30bb 08       		.uleb128 0x8
 13074 30bc 00060000 		.4byte	.LVL542
 13075 30c0 69020000 		.4byte	0x269
 13076 30c4 D5300000 		.4byte	0x30d5
 13077 30c8 09       		.uleb128 0x9
 13078 30c9 01       		.uleb128 0x1
 13079 30ca 50       		.byte	0x50
 13080 30cb 02       		.uleb128 0x2
 13081 30cc 08       		.byte	0x8
 13082 30cd 45       		.byte	0x45
 13083 30ce 09       		.uleb128 0x9
 13084 30cf 01       		.uleb128 0x1
 13085 30d0 51       		.byte	0x51
 13086 30d1 02       		.uleb128 0x2
 13087 30d2 75       		.byte	0x75
 13088 30d3 00       		.sleb128 0
 13089 30d4 00       		.byte	0
 13090 30d5 08       		.uleb128 0x8
 13091 30d6 08060000 		.4byte	.LVL543
 13092 30da 69020000 		.4byte	0x269
 13093 30de EF300000 		.4byte	0x30ef
 13094 30e2 09       		.uleb128 0x9
 13095 30e3 01       		.uleb128 0x1
 13096 30e4 50       		.byte	0x50
 13097 30e5 02       		.uleb128 0x2
 13098 30e6 08       		.byte	0x8
 13099 30e7 49       		.byte	0x49
 13100 30e8 09       		.uleb128 0x9
 13101 30e9 01       		.uleb128 0x1
 13102 30ea 51       		.byte	0x51
 13103 30eb 02       		.uleb128 0x2
 13104 30ec 75       		.byte	0x75
 13105 30ed 00       		.sleb128 0
 13106 30ee 00       		.byte	0
 13107 30ef 08       		.uleb128 0x8
 13108 30f0 10060000 		.4byte	.LVL544
 13109 30f4 69020000 		.4byte	0x269
 13110 30f8 09310000 		.4byte	0x3109
 13111 30fc 09       		.uleb128 0x9
 13112 30fd 01       		.uleb128 0x1
 13113 30fe 50       		.byte	0x50
 13114 30ff 02       		.uleb128 0x2
 13115 3100 08       		.byte	0x8
 13116 3101 4D       		.byte	0x4d
 13117 3102 09       		.uleb128 0x9
 13118 3103 01       		.uleb128 0x1
 13119 3104 51       		.byte	0x51
 13120 3105 02       		.uleb128 0x2
 13121 3106 75       		.byte	0x75
 13122 3107 00       		.sleb128 0
 13123 3108 00       		.byte	0
 13124 3109 08       		.uleb128 0x8
ARM GAS  C:\Users\Revanth\AppData\Local\Temp\ccqs06ys.s 			page 273


 13125 310a 18060000 		.4byte	.LVL545
 13126 310e 69020000 		.4byte	0x269
 13127 3112 22310000 		.4byte	0x3122
 13128 3116 09       		.uleb128 0x9
 13129 3117 01       		.uleb128 0x1
 13130 3118 50       		.byte	0x50
 13131 3119 02       		.uleb128 0x2
 13132 311a 08       		.byte	0x8
 13133 311b 51       		.byte	0x51
 13134 311c 09       		.uleb128 0x9
 13135 311d 01       		.uleb128 0x1
 13136 311e 51       		.byte	0x51
 13137 311f 01       		.uleb128 0x1
 13138 3120 30       		.byte	0x30
 13139 3121 00       		.byte	0
 13140 3122 08       		.uleb128 0x8
 13141 3123 20060000 		.4byte	.LVL546
 13142 3127 69020000 		.4byte	0x269
 13143 312b 3C310000 		.4byte	0x313c
 13144 312f 09       		.uleb128 0x9
 13145 3130 01       		.uleb128 0x1
 13146 3131 50       		.byte	0x50
 13147 3132 02       		.uleb128 0x2
 13148 3133 08       		.byte	0x8
 13149 3134 55       		.byte	0x55
 13150 3135 09       		.uleb128 0x9
 13151 3136 01       		.uleb128 0x1
 13152 3137 51       		.byte	0x51
 13153 3138 02       		.uleb128 0x2
 13154 3139 75       		.byte	0x75
 13155 313a 00       		.sleb128 0
 13156 313b 00       		.byte	0
 13157 313c 08       		.uleb128 0x8
 13158 313d 28060000 		.4byte	.LVL547
 13159 3141 69020000 		.4byte	0x269
 13160 3145 56310000 		.4byte	0x3156
 13161 3149 09       		.uleb128 0x9
 13162 314a 01       		.uleb128 0x1
 13163 314b 50       		.byte	0x50
 13164 314c 02       		.uleb128 0x2
 13165 314d 08       		.byte	0x8
 13166 314e 59       		.byte	0x59
 13167 314f 09       		.uleb128 0x9
 13168 3150 01       		.uleb128 0x1
 13169 3151 51       		.byte	0x51
 13170 3152 02       		.uleb128 0x2
 13171 3153 75       		.byte	0x75
 13172 3154 00       		.sleb128 0
 13173 3155 00       		.byte	0
 13174 3156 08       		.uleb128 0x8
 13175 3157 30060000 		.4byte	.LVL548
 13176 315b 69020000 		.4byte	0x269
 13177 315f 6F310000 		.4byte	0x316f
 13178 3163 09       		.uleb128 0x9
 13179 3164 01       		.uleb128 0x1
 13180 3165 50       		.byte	0x50
 13181 3166 02       		.uleb128 0x2
ARM GAS  C:\Users\Revanth\AppData\Local\Temp\ccqs06ys.s 			page 274


 13182 3167 08       		.byte	0x8
 13183 3168 5D       		.byte	0x5d
 13184 3169 09       		.uleb128 0x9
 13185 316a 01       		.uleb128 0x1
 13186 316b 51       		.byte	0x51
 13187 316c 01       		.uleb128 0x1
 13188 316d 30       		.byte	0x30
 13189 316e 00       		.byte	0
 13190 316f 08       		.uleb128 0x8
 13191 3170 38060000 		.4byte	.LVL549
 13192 3174 69020000 		.4byte	0x269
 13193 3178 88310000 		.4byte	0x3188
 13194 317c 09       		.uleb128 0x9
 13195 317d 01       		.uleb128 0x1
 13196 317e 50       		.byte	0x50
 13197 317f 02       		.uleb128 0x2
 13198 3180 08       		.byte	0x8
 13199 3181 61       		.byte	0x61
 13200 3182 09       		.uleb128 0x9
 13201 3183 01       		.uleb128 0x1
 13202 3184 51       		.byte	0x51
 13203 3185 01       		.uleb128 0x1
 13204 3186 30       		.byte	0x30
 13205 3187 00       		.byte	0
 13206 3188 08       		.uleb128 0x8
 13207 3189 40060000 		.4byte	.LVL550
 13208 318d 69020000 		.4byte	0x269
 13209 3191 A1310000 		.4byte	0x31a1
 13210 3195 09       		.uleb128 0x9
 13211 3196 01       		.uleb128 0x1
 13212 3197 50       		.byte	0x50
 13213 3198 02       		.uleb128 0x2
 13214 3199 08       		.byte	0x8
 13215 319a 65       		.byte	0x65
 13216 319b 09       		.uleb128 0x9
 13217 319c 01       		.uleb128 0x1
 13218 319d 51       		.byte	0x51
 13219 319e 01       		.uleb128 0x1
 13220 319f 30       		.byte	0x30
 13221 31a0 00       		.byte	0
 13222 31a1 08       		.uleb128 0x8
 13223 31a2 48060000 		.4byte	.LVL551
 13224 31a6 69020000 		.4byte	0x269
 13225 31aa BA310000 		.4byte	0x31ba
 13226 31ae 09       		.uleb128 0x9
 13227 31af 01       		.uleb128 0x1
 13228 31b0 50       		.byte	0x50
 13229 31b1 02       		.uleb128 0x2
 13230 31b2 08       		.byte	0x8
 13231 31b3 69       		.byte	0x69
 13232 31b4 09       		.uleb128 0x9
 13233 31b5 01       		.uleb128 0x1
 13234 31b6 51       		.byte	0x51
 13235 31b7 01       		.uleb128 0x1
 13236 31b8 30       		.byte	0x30
 13237 31b9 00       		.byte	0
 13238 31ba 08       		.uleb128 0x8
ARM GAS  C:\Users\Revanth\AppData\Local\Temp\ccqs06ys.s 			page 275


 13239 31bb 50060000 		.4byte	.LVL552
 13240 31bf 69020000 		.4byte	0x269
 13241 31c3 D3310000 		.4byte	0x31d3
 13242 31c7 09       		.uleb128 0x9
 13243 31c8 01       		.uleb128 0x1
 13244 31c9 50       		.byte	0x50
 13245 31ca 02       		.uleb128 0x2
 13246 31cb 08       		.byte	0x8
 13247 31cc 6D       		.byte	0x6d
 13248 31cd 09       		.uleb128 0x9
 13249 31ce 01       		.uleb128 0x1
 13250 31cf 51       		.byte	0x51
 13251 31d0 01       		.uleb128 0x1
 13252 31d1 30       		.byte	0x30
 13253 31d2 00       		.byte	0
 13254 31d3 08       		.uleb128 0x8
 13255 31d4 58060000 		.4byte	.LVL553
 13256 31d8 69020000 		.4byte	0x269
 13257 31dc EC310000 		.4byte	0x31ec
 13258 31e0 09       		.uleb128 0x9
 13259 31e1 01       		.uleb128 0x1
 13260 31e2 50       		.byte	0x50
 13261 31e3 02       		.uleb128 0x2
 13262 31e4 08       		.byte	0x8
 13263 31e5 71       		.byte	0x71
 13264 31e6 09       		.uleb128 0x9
 13265 31e7 01       		.uleb128 0x1
 13266 31e8 51       		.byte	0x51
 13267 31e9 01       		.uleb128 0x1
 13268 31ea 30       		.byte	0x30
 13269 31eb 00       		.byte	0
 13270 31ec 08       		.uleb128 0x8
 13271 31ed 60060000 		.4byte	.LVL554
 13272 31f1 69020000 		.4byte	0x269
 13273 31f5 05320000 		.4byte	0x3205
 13274 31f9 09       		.uleb128 0x9
 13275 31fa 01       		.uleb128 0x1
 13276 31fb 50       		.byte	0x50
 13277 31fc 02       		.uleb128 0x2
 13278 31fd 08       		.byte	0x8
 13279 31fe 75       		.byte	0x75
 13280 31ff 09       		.uleb128 0x9
 13281 3200 01       		.uleb128 0x1
 13282 3201 51       		.byte	0x51
 13283 3202 01       		.uleb128 0x1
 13284 3203 30       		.byte	0x30
 13285 3204 00       		.byte	0
 13286 3205 08       		.uleb128 0x8
 13287 3206 68060000 		.4byte	.LVL555
 13288 320a 69020000 		.4byte	0x269
 13289 320e 1E320000 		.4byte	0x321e
 13290 3212 09       		.uleb128 0x9
 13291 3213 01       		.uleb128 0x1
 13292 3214 50       		.byte	0x50
 13293 3215 02       		.uleb128 0x2
 13294 3216 08       		.byte	0x8
 13295 3217 79       		.byte	0x79
ARM GAS  C:\Users\Revanth\AppData\Local\Temp\ccqs06ys.s 			page 276


 13296 3218 09       		.uleb128 0x9
 13297 3219 01       		.uleb128 0x1
 13298 321a 51       		.byte	0x51
 13299 321b 01       		.uleb128 0x1
 13300 321c 30       		.byte	0x30
 13301 321d 00       		.byte	0
 13302 321e 08       		.uleb128 0x8
 13303 321f 70060000 		.4byte	.LVL556
 13304 3223 69020000 		.4byte	0x269
 13305 3227 37320000 		.4byte	0x3237
 13306 322b 09       		.uleb128 0x9
 13307 322c 01       		.uleb128 0x1
 13308 322d 50       		.byte	0x50
 13309 322e 02       		.uleb128 0x2
 13310 322f 08       		.byte	0x8
 13311 3230 7D       		.byte	0x7d
 13312 3231 09       		.uleb128 0x9
 13313 3232 01       		.uleb128 0x1
 13314 3233 51       		.byte	0x51
 13315 3234 01       		.uleb128 0x1
 13316 3235 30       		.byte	0x30
 13317 3236 00       		.byte	0
 13318 3237 08       		.uleb128 0x8
 13319 3238 76060000 		.4byte	.LVL557
 13320 323c B75F0000 		.4byte	0x5fb7
 13321 3240 4A320000 		.4byte	0x324a
 13322 3244 09       		.uleb128 0x9
 13323 3245 01       		.uleb128 0x1
 13324 3246 50       		.byte	0x50
 13325 3247 01       		.uleb128 0x1
 13326 3248 30       		.byte	0x30
 13327 3249 00       		.byte	0
 13328 324a 08       		.uleb128 0x8
 13329 324b 84060000 		.4byte	.LVL558
 13330 324f B75F0000 		.4byte	0x5fb7
 13331 3253 5D320000 		.4byte	0x325d
 13332 3257 09       		.uleb128 0x9
 13333 3258 01       		.uleb128 0x1
 13334 3259 50       		.byte	0x50
 13335 325a 01       		.uleb128 0x1
 13336 325b 31       		.byte	0x31
 13337 325c 00       		.byte	0
 13338 325d 08       		.uleb128 0x8
 13339 325e 8A060000 		.4byte	.LVL559
 13340 3262 A6020000 		.4byte	0x2a6
 13341 3266 70320000 		.4byte	0x3270
 13342 326a 09       		.uleb128 0x9
 13343 326b 01       		.uleb128 0x1
 13344 326c 50       		.byte	0x50
 13345 326d 01       		.uleb128 0x1
 13346 326e 31       		.byte	0x31
 13347 326f 00       		.byte	0
 13348 3270 08       		.uleb128 0x8
 13349 3271 92060000 		.4byte	.LVL560
 13350 3275 69020000 		.4byte	0x269
 13351 3279 89320000 		.4byte	0x3289
 13352 327d 09       		.uleb128 0x9
ARM GAS  C:\Users\Revanth\AppData\Local\Temp\ccqs06ys.s 			page 277


 13353 327e 01       		.uleb128 0x1
 13354 327f 50       		.byte	0x50
 13355 3280 02       		.uleb128 0x2
 13356 3281 08       		.byte	0x8
 13357 3282 20       		.byte	0x20
 13358 3283 09       		.uleb128 0x9
 13359 3284 01       		.uleb128 0x1
 13360 3285 51       		.byte	0x51
 13361 3286 01       		.uleb128 0x1
 13362 3287 30       		.byte	0x30
 13363 3288 00       		.byte	0
 13364 3289 08       		.uleb128 0x8
 13365 328a 9A060000 		.4byte	.LVL561
 13366 328e 69020000 		.4byte	0x269
 13367 3292 A2320000 		.4byte	0x32a2
 13368 3296 09       		.uleb128 0x9
 13369 3297 01       		.uleb128 0x1
 13370 3298 50       		.byte	0x50
 13371 3299 02       		.uleb128 0x2
 13372 329a 08       		.byte	0x8
 13373 329b 24       		.byte	0x24
 13374 329c 09       		.uleb128 0x9
 13375 329d 01       		.uleb128 0x1
 13376 329e 51       		.byte	0x51
 13377 329f 01       		.uleb128 0x1
 13378 32a0 31       		.byte	0x31
 13379 32a1 00       		.byte	0
 13380 32a2 08       		.uleb128 0x8
 13381 32a3 A2060000 		.4byte	.LVL562
 13382 32a7 69020000 		.4byte	0x269
 13383 32ab BB320000 		.4byte	0x32bb
 13384 32af 09       		.uleb128 0x9
 13385 32b0 01       		.uleb128 0x1
 13386 32b1 50       		.byte	0x50
 13387 32b2 02       		.uleb128 0x2
 13388 32b3 08       		.byte	0x8
 13389 32b4 28       		.byte	0x28
 13390 32b5 09       		.uleb128 0x9
 13391 32b6 01       		.uleb128 0x1
 13392 32b7 51       		.byte	0x51
 13393 32b8 01       		.uleb128 0x1
 13394 32b9 30       		.byte	0x30
 13395 32ba 00       		.byte	0
 13396 32bb 08       		.uleb128 0x8
 13397 32bc AA060000 		.4byte	.LVL563
 13398 32c0 69020000 		.4byte	0x269
 13399 32c4 D4320000 		.4byte	0x32d4
 13400 32c8 09       		.uleb128 0x9
 13401 32c9 01       		.uleb128 0x1
 13402 32ca 50       		.byte	0x50
 13403 32cb 02       		.uleb128 0x2
 13404 32cc 08       		.byte	0x8
 13405 32cd 2C       		.byte	0x2c
 13406 32ce 09       		.uleb128 0x9
 13407 32cf 01       		.uleb128 0x1
 13408 32d0 51       		.byte	0x51
 13409 32d1 01       		.uleb128 0x1
ARM GAS  C:\Users\Revanth\AppData\Local\Temp\ccqs06ys.s 			page 278


 13410 32d2 31       		.byte	0x31
 13411 32d3 00       		.byte	0
 13412 32d4 08       		.uleb128 0x8
 13413 32d5 B2060000 		.4byte	.LVL564
 13414 32d9 69020000 		.4byte	0x269
 13415 32dd ED320000 		.4byte	0x32ed
 13416 32e1 09       		.uleb128 0x9
 13417 32e2 01       		.uleb128 0x1
 13418 32e3 50       		.byte	0x50
 13419 32e4 02       		.uleb128 0x2
 13420 32e5 08       		.byte	0x8
 13421 32e6 30       		.byte	0x30
 13422 32e7 09       		.uleb128 0x9
 13423 32e8 01       		.uleb128 0x1
 13424 32e9 51       		.byte	0x51
 13425 32ea 01       		.uleb128 0x1
 13426 32eb 30       		.byte	0x30
 13427 32ec 00       		.byte	0
 13428 32ed 08       		.uleb128 0x8
 13429 32ee BA060000 		.4byte	.LVL565
 13430 32f2 69020000 		.4byte	0x269
 13431 32f6 06330000 		.4byte	0x3306
 13432 32fa 09       		.uleb128 0x9
 13433 32fb 01       		.uleb128 0x1
 13434 32fc 50       		.byte	0x50
 13435 32fd 02       		.uleb128 0x2
 13436 32fe 08       		.byte	0x8
 13437 32ff 34       		.byte	0x34
 13438 3300 09       		.uleb128 0x9
 13439 3301 01       		.uleb128 0x1
 13440 3302 51       		.byte	0x51
 13441 3303 01       		.uleb128 0x1
 13442 3304 31       		.byte	0x31
 13443 3305 00       		.byte	0
 13444 3306 08       		.uleb128 0x8
 13445 3307 C2060000 		.4byte	.LVL566
 13446 330b 69020000 		.4byte	0x269
 13447 330f 1F330000 		.4byte	0x331f
 13448 3313 09       		.uleb128 0x9
 13449 3314 01       		.uleb128 0x1
 13450 3315 50       		.byte	0x50
 13451 3316 02       		.uleb128 0x2
 13452 3317 08       		.byte	0x8
 13453 3318 38       		.byte	0x38
 13454 3319 09       		.uleb128 0x9
 13455 331a 01       		.uleb128 0x1
 13456 331b 51       		.byte	0x51
 13457 331c 01       		.uleb128 0x1
 13458 331d 30       		.byte	0x30
 13459 331e 00       		.byte	0
 13460 331f 08       		.uleb128 0x8
 13461 3320 CA060000 		.4byte	.LVL567
 13462 3324 69020000 		.4byte	0x269
 13463 3328 38330000 		.4byte	0x3338
 13464 332c 09       		.uleb128 0x9
 13465 332d 01       		.uleb128 0x1
 13466 332e 50       		.byte	0x50
ARM GAS  C:\Users\Revanth\AppData\Local\Temp\ccqs06ys.s 			page 279


 13467 332f 02       		.uleb128 0x2
 13468 3330 08       		.byte	0x8
 13469 3331 3C       		.byte	0x3c
 13470 3332 09       		.uleb128 0x9
 13471 3333 01       		.uleb128 0x1
 13472 3334 51       		.byte	0x51
 13473 3335 01       		.uleb128 0x1
 13474 3336 30       		.byte	0x30
 13475 3337 00       		.byte	0
 13476 3338 08       		.uleb128 0x8
 13477 3339 D2060000 		.4byte	.LVL568
 13478 333d 69020000 		.4byte	0x269
 13479 3341 51330000 		.4byte	0x3351
 13480 3345 09       		.uleb128 0x9
 13481 3346 01       		.uleb128 0x1
 13482 3347 50       		.byte	0x50
 13483 3348 02       		.uleb128 0x2
 13484 3349 08       		.byte	0x8
 13485 334a 40       		.byte	0x40
 13486 334b 09       		.uleb128 0x9
 13487 334c 01       		.uleb128 0x1
 13488 334d 51       		.byte	0x51
 13489 334e 01       		.uleb128 0x1
 13490 334f 30       		.byte	0x30
 13491 3350 00       		.byte	0
 13492 3351 08       		.uleb128 0x8
 13493 3352 DA060000 		.4byte	.LVL569
 13494 3356 69020000 		.4byte	0x269
 13495 335a 6A330000 		.4byte	0x336a
 13496 335e 09       		.uleb128 0x9
 13497 335f 01       		.uleb128 0x1
 13498 3360 50       		.byte	0x50
 13499 3361 02       		.uleb128 0x2
 13500 3362 08       		.byte	0x8
 13501 3363 44       		.byte	0x44
 13502 3364 09       		.uleb128 0x9
 13503 3365 01       		.uleb128 0x1
 13504 3366 51       		.byte	0x51
 13505 3367 01       		.uleb128 0x1
 13506 3368 30       		.byte	0x30
 13507 3369 00       		.byte	0
 13508 336a 08       		.uleb128 0x8
 13509 336b E2060000 		.4byte	.LVL570
 13510 336f 69020000 		.4byte	0x269
 13511 3373 83330000 		.4byte	0x3383
 13512 3377 09       		.uleb128 0x9
 13513 3378 01       		.uleb128 0x1
 13514 3379 50       		.byte	0x50
 13515 337a 02       		.uleb128 0x2
 13516 337b 08       		.byte	0x8
 13517 337c 48       		.byte	0x48
 13518 337d 09       		.uleb128 0x9
 13519 337e 01       		.uleb128 0x1
 13520 337f 51       		.byte	0x51
 13521 3380 01       		.uleb128 0x1
 13522 3381 30       		.byte	0x30
 13523 3382 00       		.byte	0
ARM GAS  C:\Users\Revanth\AppData\Local\Temp\ccqs06ys.s 			page 280


 13524 3383 08       		.uleb128 0x8
 13525 3384 EA060000 		.4byte	.LVL571
 13526 3388 69020000 		.4byte	0x269
 13527 338c 9C330000 		.4byte	0x339c
 13528 3390 09       		.uleb128 0x9
 13529 3391 01       		.uleb128 0x1
 13530 3392 50       		.byte	0x50
 13531 3393 02       		.uleb128 0x2
 13532 3394 08       		.byte	0x8
 13533 3395 4C       		.byte	0x4c
 13534 3396 09       		.uleb128 0x9
 13535 3397 01       		.uleb128 0x1
 13536 3398 51       		.byte	0x51
 13537 3399 01       		.uleb128 0x1
 13538 339a 30       		.byte	0x30
 13539 339b 00       		.byte	0
 13540 339c 08       		.uleb128 0x8
 13541 339d F2060000 		.4byte	.LVL572
 13542 33a1 69020000 		.4byte	0x269
 13543 33a5 B5330000 		.4byte	0x33b5
 13544 33a9 09       		.uleb128 0x9
 13545 33aa 01       		.uleb128 0x1
 13546 33ab 50       		.byte	0x50
 13547 33ac 02       		.uleb128 0x2
 13548 33ad 08       		.byte	0x8
 13549 33ae 50       		.byte	0x50
 13550 33af 09       		.uleb128 0x9
 13551 33b0 01       		.uleb128 0x1
 13552 33b1 51       		.byte	0x51
 13553 33b2 01       		.uleb128 0x1
 13554 33b3 31       		.byte	0x31
 13555 33b4 00       		.byte	0
 13556 33b5 08       		.uleb128 0x8
 13557 33b6 FA060000 		.4byte	.LVL573
 13558 33ba 69020000 		.4byte	0x269
 13559 33be CE330000 		.4byte	0x33ce
 13560 33c2 09       		.uleb128 0x9
 13561 33c3 01       		.uleb128 0x1
 13562 33c4 50       		.byte	0x50
 13563 33c5 02       		.uleb128 0x2
 13564 33c6 08       		.byte	0x8
 13565 33c7 54       		.byte	0x54
 13566 33c8 09       		.uleb128 0x9
 13567 33c9 01       		.uleb128 0x1
 13568 33ca 51       		.byte	0x51
 13569 33cb 01       		.uleb128 0x1
 13570 33cc 30       		.byte	0x30
 13571 33cd 00       		.byte	0
 13572 33ce 08       		.uleb128 0x8
 13573 33cf 02070000 		.4byte	.LVL574
 13574 33d3 69020000 		.4byte	0x269
 13575 33d7 E7330000 		.4byte	0x33e7
 13576 33db 09       		.uleb128 0x9
 13577 33dc 01       		.uleb128 0x1
 13578 33dd 50       		.byte	0x50
 13579 33de 02       		.uleb128 0x2
 13580 33df 08       		.byte	0x8
ARM GAS  C:\Users\Revanth\AppData\Local\Temp\ccqs06ys.s 			page 281


 13581 33e0 58       		.byte	0x58
 13582 33e1 09       		.uleb128 0x9
 13583 33e2 01       		.uleb128 0x1
 13584 33e3 51       		.byte	0x51
 13585 33e4 01       		.uleb128 0x1
 13586 33e5 30       		.byte	0x30
 13587 33e6 00       		.byte	0
 13588 33e7 08       		.uleb128 0x8
 13589 33e8 0A070000 		.4byte	.LVL575
 13590 33ec 69020000 		.4byte	0x269
 13591 33f0 00340000 		.4byte	0x3400
 13592 33f4 09       		.uleb128 0x9
 13593 33f5 01       		.uleb128 0x1
 13594 33f6 50       		.byte	0x50
 13595 33f7 02       		.uleb128 0x2
 13596 33f8 08       		.byte	0x8
 13597 33f9 5C       		.byte	0x5c
 13598 33fa 09       		.uleb128 0x9
 13599 33fb 01       		.uleb128 0x1
 13600 33fc 51       		.byte	0x51
 13601 33fd 01       		.uleb128 0x1
 13602 33fe 30       		.byte	0x30
 13603 33ff 00       		.byte	0
 13604 3400 08       		.uleb128 0x8
 13605 3401 12070000 		.4byte	.LVL576
 13606 3405 69020000 		.4byte	0x269
 13607 3409 19340000 		.4byte	0x3419
 13608 340d 09       		.uleb128 0x9
 13609 340e 01       		.uleb128 0x1
 13610 340f 50       		.byte	0x50
 13611 3410 02       		.uleb128 0x2
 13612 3411 08       		.byte	0x8
 13613 3412 60       		.byte	0x60
 13614 3413 09       		.uleb128 0x9
 13615 3414 01       		.uleb128 0x1
 13616 3415 51       		.byte	0x51
 13617 3416 01       		.uleb128 0x1
 13618 3417 31       		.byte	0x31
 13619 3418 00       		.byte	0
 13620 3419 08       		.uleb128 0x8
 13621 341a 1A070000 		.4byte	.LVL577
 13622 341e 69020000 		.4byte	0x269
 13623 3422 32340000 		.4byte	0x3432
 13624 3426 09       		.uleb128 0x9
 13625 3427 01       		.uleb128 0x1
 13626 3428 50       		.byte	0x50
 13627 3429 02       		.uleb128 0x2
 13628 342a 08       		.byte	0x8
 13629 342b 64       		.byte	0x64
 13630 342c 09       		.uleb128 0x9
 13631 342d 01       		.uleb128 0x1
 13632 342e 51       		.byte	0x51
 13633 342f 01       		.uleb128 0x1
 13634 3430 30       		.byte	0x30
 13635 3431 00       		.byte	0
 13636 3432 08       		.uleb128 0x8
 13637 3433 22070000 		.4byte	.LVL578
ARM GAS  C:\Users\Revanth\AppData\Local\Temp\ccqs06ys.s 			page 282


 13638 3437 69020000 		.4byte	0x269
 13639 343b 4B340000 		.4byte	0x344b
 13640 343f 09       		.uleb128 0x9
 13641 3440 01       		.uleb128 0x1
 13642 3441 50       		.byte	0x50
 13643 3442 02       		.uleb128 0x2
 13644 3443 08       		.byte	0x8
 13645 3444 68       		.byte	0x68
 13646 3445 09       		.uleb128 0x9
 13647 3446 01       		.uleb128 0x1
 13648 3447 51       		.byte	0x51
 13649 3448 01       		.uleb128 0x1
 13650 3449 31       		.byte	0x31
 13651 344a 00       		.byte	0
 13652 344b 08       		.uleb128 0x8
 13653 344c 2A070000 		.4byte	.LVL579
 13654 3450 69020000 		.4byte	0x269
 13655 3454 64340000 		.4byte	0x3464
 13656 3458 09       		.uleb128 0x9
 13657 3459 01       		.uleb128 0x1
 13658 345a 50       		.byte	0x50
 13659 345b 02       		.uleb128 0x2
 13660 345c 08       		.byte	0x8
 13661 345d 6C       		.byte	0x6c
 13662 345e 09       		.uleb128 0x9
 13663 345f 01       		.uleb128 0x1
 13664 3460 51       		.byte	0x51
 13665 3461 01       		.uleb128 0x1
 13666 3462 30       		.byte	0x30
 13667 3463 00       		.byte	0
 13668 3464 08       		.uleb128 0x8
 13669 3465 32070000 		.4byte	.LVL580
 13670 3469 69020000 		.4byte	0x269
 13671 346d 7D340000 		.4byte	0x347d
 13672 3471 09       		.uleb128 0x9
 13673 3472 01       		.uleb128 0x1
 13674 3473 50       		.byte	0x50
 13675 3474 02       		.uleb128 0x2
 13676 3475 08       		.byte	0x8
 13677 3476 70       		.byte	0x70
 13678 3477 09       		.uleb128 0x9
 13679 3478 01       		.uleb128 0x1
 13680 3479 51       		.byte	0x51
 13681 347a 01       		.uleb128 0x1
 13682 347b 30       		.byte	0x30
 13683 347c 00       		.byte	0
 13684 347d 08       		.uleb128 0x8
 13685 347e 3A070000 		.4byte	.LVL581
 13686 3482 69020000 		.4byte	0x269
 13687 3486 96340000 		.4byte	0x3496
 13688 348a 09       		.uleb128 0x9
 13689 348b 01       		.uleb128 0x1
 13690 348c 50       		.byte	0x50
 13691 348d 02       		.uleb128 0x2
 13692 348e 08       		.byte	0x8
 13693 348f 74       		.byte	0x74
 13694 3490 09       		.uleb128 0x9
ARM GAS  C:\Users\Revanth\AppData\Local\Temp\ccqs06ys.s 			page 283


 13695 3491 01       		.uleb128 0x1
 13696 3492 51       		.byte	0x51
 13697 3493 01       		.uleb128 0x1
 13698 3494 30       		.byte	0x30
 13699 3495 00       		.byte	0
 13700 3496 08       		.uleb128 0x8
 13701 3497 42070000 		.4byte	.LVL582
 13702 349b 69020000 		.4byte	0x269
 13703 349f AF340000 		.4byte	0x34af
 13704 34a3 09       		.uleb128 0x9
 13705 34a4 01       		.uleb128 0x1
 13706 34a5 50       		.byte	0x50
 13707 34a6 02       		.uleb128 0x2
 13708 34a7 08       		.byte	0x8
 13709 34a8 78       		.byte	0x78
 13710 34a9 09       		.uleb128 0x9
 13711 34aa 01       		.uleb128 0x1
 13712 34ab 51       		.byte	0x51
 13713 34ac 01       		.uleb128 0x1
 13714 34ad 30       		.byte	0x30
 13715 34ae 00       		.byte	0
 13716 34af 08       		.uleb128 0x8
 13717 34b0 4A070000 		.4byte	.LVL583
 13718 34b4 69020000 		.4byte	0x269
 13719 34b8 C8340000 		.4byte	0x34c8
 13720 34bc 09       		.uleb128 0x9
 13721 34bd 01       		.uleb128 0x1
 13722 34be 50       		.byte	0x50
 13723 34bf 02       		.uleb128 0x2
 13724 34c0 08       		.byte	0x8
 13725 34c1 7C       		.byte	0x7c
 13726 34c2 09       		.uleb128 0x9
 13727 34c3 01       		.uleb128 0x1
 13728 34c4 51       		.byte	0x51
 13729 34c5 01       		.uleb128 0x1
 13730 34c6 30       		.byte	0x30
 13731 34c7 00       		.byte	0
 13732 34c8 08       		.uleb128 0x8
 13733 34c9 52070000 		.4byte	.LVL584
 13734 34cd 69020000 		.4byte	0x269
 13735 34d1 E1340000 		.4byte	0x34e1
 13736 34d5 09       		.uleb128 0x9
 13737 34d6 01       		.uleb128 0x1
 13738 34d7 50       		.byte	0x50
 13739 34d8 02       		.uleb128 0x2
 13740 34d9 08       		.byte	0x8
 13741 34da 21       		.byte	0x21
 13742 34db 09       		.uleb128 0x9
 13743 34dc 01       		.uleb128 0x1
 13744 34dd 51       		.byte	0x51
 13745 34de 01       		.uleb128 0x1
 13746 34df 30       		.byte	0x30
 13747 34e0 00       		.byte	0
 13748 34e1 08       		.uleb128 0x8
 13749 34e2 5A070000 		.4byte	.LVL585
 13750 34e6 69020000 		.4byte	0x269
 13751 34ea FB340000 		.4byte	0x34fb
ARM GAS  C:\Users\Revanth\AppData\Local\Temp\ccqs06ys.s 			page 284


 13752 34ee 09       		.uleb128 0x9
 13753 34ef 01       		.uleb128 0x1
 13754 34f0 50       		.byte	0x50
 13755 34f1 02       		.uleb128 0x2
 13756 34f2 08       		.byte	0x8
 13757 34f3 25       		.byte	0x25
 13758 34f4 09       		.uleb128 0x9
 13759 34f5 01       		.uleb128 0x1
 13760 34f6 51       		.byte	0x51
 13761 34f7 02       		.uleb128 0x2
 13762 34f8 75       		.byte	0x75
 13763 34f9 00       		.sleb128 0
 13764 34fa 00       		.byte	0
 13765 34fb 08       		.uleb128 0x8
 13766 34fc 62070000 		.4byte	.LVL586
 13767 3500 69020000 		.4byte	0x269
 13768 3504 14350000 		.4byte	0x3514
 13769 3508 09       		.uleb128 0x9
 13770 3509 01       		.uleb128 0x1
 13771 350a 50       		.byte	0x50
 13772 350b 02       		.uleb128 0x2
 13773 350c 08       		.byte	0x8
 13774 350d 29       		.byte	0x29
 13775 350e 09       		.uleb128 0x9
 13776 350f 01       		.uleb128 0x1
 13777 3510 51       		.byte	0x51
 13778 3511 01       		.uleb128 0x1
 13779 3512 30       		.byte	0x30
 13780 3513 00       		.byte	0
 13781 3514 08       		.uleb128 0x8
 13782 3515 6A070000 		.4byte	.LVL587
 13783 3519 69020000 		.4byte	0x269
 13784 351d 2E350000 		.4byte	0x352e
 13785 3521 09       		.uleb128 0x9
 13786 3522 01       		.uleb128 0x1
 13787 3523 50       		.byte	0x50
 13788 3524 02       		.uleb128 0x2
 13789 3525 08       		.byte	0x8
 13790 3526 2D       		.byte	0x2d
 13791 3527 09       		.uleb128 0x9
 13792 3528 01       		.uleb128 0x1
 13793 3529 51       		.byte	0x51
 13794 352a 02       		.uleb128 0x2
 13795 352b 75       		.byte	0x75
 13796 352c 00       		.sleb128 0
 13797 352d 00       		.byte	0
 13798 352e 08       		.uleb128 0x8
 13799 352f 72070000 		.4byte	.LVL588
 13800 3533 69020000 		.4byte	0x269
 13801 3537 47350000 		.4byte	0x3547
 13802 353b 09       		.uleb128 0x9
 13803 353c 01       		.uleb128 0x1
 13804 353d 50       		.byte	0x50
 13805 353e 02       		.uleb128 0x2
 13806 353f 08       		.byte	0x8
 13807 3540 31       		.byte	0x31
 13808 3541 09       		.uleb128 0x9
ARM GAS  C:\Users\Revanth\AppData\Local\Temp\ccqs06ys.s 			page 285


 13809 3542 01       		.uleb128 0x1
 13810 3543 51       		.byte	0x51
 13811 3544 01       		.uleb128 0x1
 13812 3545 30       		.byte	0x30
 13813 3546 00       		.byte	0
 13814 3547 08       		.uleb128 0x8
 13815 3548 7A070000 		.4byte	.LVL589
 13816 354c 69020000 		.4byte	0x269
 13817 3550 61350000 		.4byte	0x3561
 13818 3554 09       		.uleb128 0x9
 13819 3555 01       		.uleb128 0x1
 13820 3556 50       		.byte	0x50
 13821 3557 02       		.uleb128 0x2
 13822 3558 08       		.byte	0x8
 13823 3559 35       		.byte	0x35
 13824 355a 09       		.uleb128 0x9
 13825 355b 01       		.uleb128 0x1
 13826 355c 51       		.byte	0x51
 13827 355d 02       		.uleb128 0x2
 13828 355e 75       		.byte	0x75
 13829 355f 00       		.sleb128 0
 13830 3560 00       		.byte	0
 13831 3561 08       		.uleb128 0x8
 13832 3562 82070000 		.4byte	.LVL590
 13833 3566 69020000 		.4byte	0x269
 13834 356a 7A350000 		.4byte	0x357a
 13835 356e 09       		.uleb128 0x9
 13836 356f 01       		.uleb128 0x1
 13837 3570 50       		.byte	0x50
 13838 3571 02       		.uleb128 0x2
 13839 3572 08       		.byte	0x8
 13840 3573 39       		.byte	0x39
 13841 3574 09       		.uleb128 0x9
 13842 3575 01       		.uleb128 0x1
 13843 3576 51       		.byte	0x51
 13844 3577 01       		.uleb128 0x1
 13845 3578 30       		.byte	0x30
 13846 3579 00       		.byte	0
 13847 357a 08       		.uleb128 0x8
 13848 357b 8A070000 		.4byte	.LVL591
 13849 357f 69020000 		.4byte	0x269
 13850 3583 93350000 		.4byte	0x3593
 13851 3587 09       		.uleb128 0x9
 13852 3588 01       		.uleb128 0x1
 13853 3589 50       		.byte	0x50
 13854 358a 02       		.uleb128 0x2
 13855 358b 08       		.byte	0x8
 13856 358c 3D       		.byte	0x3d
 13857 358d 09       		.uleb128 0x9
 13858 358e 01       		.uleb128 0x1
 13859 358f 51       		.byte	0x51
 13860 3590 01       		.uleb128 0x1
 13861 3591 30       		.byte	0x30
 13862 3592 00       		.byte	0
 13863 3593 08       		.uleb128 0x8
 13864 3594 92070000 		.4byte	.LVL592
 13865 3598 69020000 		.4byte	0x269
ARM GAS  C:\Users\Revanth\AppData\Local\Temp\ccqs06ys.s 			page 286


 13866 359c AC350000 		.4byte	0x35ac
 13867 35a0 09       		.uleb128 0x9
 13868 35a1 01       		.uleb128 0x1
 13869 35a2 50       		.byte	0x50
 13870 35a3 02       		.uleb128 0x2
 13871 35a4 08       		.byte	0x8
 13872 35a5 41       		.byte	0x41
 13873 35a6 09       		.uleb128 0x9
 13874 35a7 01       		.uleb128 0x1
 13875 35a8 51       		.byte	0x51
 13876 35a9 01       		.uleb128 0x1
 13877 35aa 30       		.byte	0x30
 13878 35ab 00       		.byte	0
 13879 35ac 08       		.uleb128 0x8
 13880 35ad 9A070000 		.4byte	.LVL593
 13881 35b1 69020000 		.4byte	0x269
 13882 35b5 C5350000 		.4byte	0x35c5
 13883 35b9 09       		.uleb128 0x9
 13884 35ba 01       		.uleb128 0x1
 13885 35bb 50       		.byte	0x50
 13886 35bc 02       		.uleb128 0x2
 13887 35bd 08       		.byte	0x8
 13888 35be 45       		.byte	0x45
 13889 35bf 09       		.uleb128 0x9
 13890 35c0 01       		.uleb128 0x1
 13891 35c1 51       		.byte	0x51
 13892 35c2 01       		.uleb128 0x1
 13893 35c3 30       		.byte	0x30
 13894 35c4 00       		.byte	0
 13895 35c5 08       		.uleb128 0x8
 13896 35c6 A2070000 		.4byte	.LVL594
 13897 35ca 69020000 		.4byte	0x269
 13898 35ce DE350000 		.4byte	0x35de
 13899 35d2 09       		.uleb128 0x9
 13900 35d3 01       		.uleb128 0x1
 13901 35d4 50       		.byte	0x50
 13902 35d5 02       		.uleb128 0x2
 13903 35d6 08       		.byte	0x8
 13904 35d7 49       		.byte	0x49
 13905 35d8 09       		.uleb128 0x9
 13906 35d9 01       		.uleb128 0x1
 13907 35da 51       		.byte	0x51
 13908 35db 01       		.uleb128 0x1
 13909 35dc 30       		.byte	0x30
 13910 35dd 00       		.byte	0
 13911 35de 08       		.uleb128 0x8
 13912 35df AA070000 		.4byte	.LVL595
 13913 35e3 69020000 		.4byte	0x269
 13914 35e7 F7350000 		.4byte	0x35f7
 13915 35eb 09       		.uleb128 0x9
 13916 35ec 01       		.uleb128 0x1
 13917 35ed 50       		.byte	0x50
 13918 35ee 02       		.uleb128 0x2
 13919 35ef 08       		.byte	0x8
 13920 35f0 4D       		.byte	0x4d
 13921 35f1 09       		.uleb128 0x9
 13922 35f2 01       		.uleb128 0x1
ARM GAS  C:\Users\Revanth\AppData\Local\Temp\ccqs06ys.s 			page 287


 13923 35f3 51       		.byte	0x51
 13924 35f4 01       		.uleb128 0x1
 13925 35f5 30       		.byte	0x30
 13926 35f6 00       		.byte	0
 13927 35f7 08       		.uleb128 0x8
 13928 35f8 B2070000 		.4byte	.LVL596
 13929 35fc 69020000 		.4byte	0x269
 13930 3600 11360000 		.4byte	0x3611
 13931 3604 09       		.uleb128 0x9
 13932 3605 01       		.uleb128 0x1
 13933 3606 50       		.byte	0x50
 13934 3607 02       		.uleb128 0x2
 13935 3608 08       		.byte	0x8
 13936 3609 51       		.byte	0x51
 13937 360a 09       		.uleb128 0x9
 13938 360b 01       		.uleb128 0x1
 13939 360c 51       		.byte	0x51
 13940 360d 02       		.uleb128 0x2
 13941 360e 75       		.byte	0x75
 13942 360f 00       		.sleb128 0
 13943 3610 00       		.byte	0
 13944 3611 08       		.uleb128 0x8
 13945 3612 BA070000 		.4byte	.LVL597
 13946 3616 69020000 		.4byte	0x269
 13947 361a 2A360000 		.4byte	0x362a
 13948 361e 09       		.uleb128 0x9
 13949 361f 01       		.uleb128 0x1
 13950 3620 50       		.byte	0x50
 13951 3621 02       		.uleb128 0x2
 13952 3622 08       		.byte	0x8
 13953 3623 55       		.byte	0x55
 13954 3624 09       		.uleb128 0x9
 13955 3625 01       		.uleb128 0x1
 13956 3626 51       		.byte	0x51
 13957 3627 01       		.uleb128 0x1
 13958 3628 30       		.byte	0x30
 13959 3629 00       		.byte	0
 13960 362a 08       		.uleb128 0x8
 13961 362b C2070000 		.4byte	.LVL598
 13962 362f 69020000 		.4byte	0x269
 13963 3633 43360000 		.4byte	0x3643
 13964 3637 09       		.uleb128 0x9
 13965 3638 01       		.uleb128 0x1
 13966 3639 50       		.byte	0x50
 13967 363a 02       		.uleb128 0x2
 13968 363b 08       		.byte	0x8
 13969 363c 59       		.byte	0x59
 13970 363d 09       		.uleb128 0x9
 13971 363e 01       		.uleb128 0x1
 13972 363f 51       		.byte	0x51
 13973 3640 01       		.uleb128 0x1
 13974 3641 30       		.byte	0x30
 13975 3642 00       		.byte	0
 13976 3643 08       		.uleb128 0x8
 13977 3644 CA070000 		.4byte	.LVL599
 13978 3648 69020000 		.4byte	0x269
 13979 364c 5C360000 		.4byte	0x365c
ARM GAS  C:\Users\Revanth\AppData\Local\Temp\ccqs06ys.s 			page 288


 13980 3650 09       		.uleb128 0x9
 13981 3651 01       		.uleb128 0x1
 13982 3652 50       		.byte	0x50
 13983 3653 02       		.uleb128 0x2
 13984 3654 08       		.byte	0x8
 13985 3655 5D       		.byte	0x5d
 13986 3656 09       		.uleb128 0x9
 13987 3657 01       		.uleb128 0x1
 13988 3658 51       		.byte	0x51
 13989 3659 01       		.uleb128 0x1
 13990 365a 30       		.byte	0x30
 13991 365b 00       		.byte	0
 13992 365c 08       		.uleb128 0x8
 13993 365d D2070000 		.4byte	.LVL600
 13994 3661 69020000 		.4byte	0x269
 13995 3665 76360000 		.4byte	0x3676
 13996 3669 09       		.uleb128 0x9
 13997 366a 01       		.uleb128 0x1
 13998 366b 50       		.byte	0x50
 13999 366c 02       		.uleb128 0x2
 14000 366d 08       		.byte	0x8
 14001 366e 61       		.byte	0x61
 14002 366f 09       		.uleb128 0x9
 14003 3670 01       		.uleb128 0x1
 14004 3671 51       		.byte	0x51
 14005 3672 02       		.uleb128 0x2
 14006 3673 75       		.byte	0x75
 14007 3674 00       		.sleb128 0
 14008 3675 00       		.byte	0
 14009 3676 08       		.uleb128 0x8
 14010 3677 DA070000 		.4byte	.LVL601
 14011 367b 69020000 		.4byte	0x269
 14012 367f 8F360000 		.4byte	0x368f
 14013 3683 09       		.uleb128 0x9
 14014 3684 01       		.uleb128 0x1
 14015 3685 50       		.byte	0x50
 14016 3686 02       		.uleb128 0x2
 14017 3687 08       		.byte	0x8
 14018 3688 65       		.byte	0x65
 14019 3689 09       		.uleb128 0x9
 14020 368a 01       		.uleb128 0x1
 14021 368b 51       		.byte	0x51
 14022 368c 01       		.uleb128 0x1
 14023 368d 30       		.byte	0x30
 14024 368e 00       		.byte	0
 14025 368f 08       		.uleb128 0x8
 14026 3690 E2070000 		.4byte	.LVL602
 14027 3694 69020000 		.4byte	0x269
 14028 3698 A9360000 		.4byte	0x36a9
 14029 369c 09       		.uleb128 0x9
 14030 369d 01       		.uleb128 0x1
 14031 369e 50       		.byte	0x50
 14032 369f 02       		.uleb128 0x2
 14033 36a0 08       		.byte	0x8
 14034 36a1 69       		.byte	0x69
 14035 36a2 09       		.uleb128 0x9
 14036 36a3 01       		.uleb128 0x1
ARM GAS  C:\Users\Revanth\AppData\Local\Temp\ccqs06ys.s 			page 289


 14037 36a4 51       		.byte	0x51
 14038 36a5 02       		.uleb128 0x2
 14039 36a6 75       		.byte	0x75
 14040 36a7 00       		.sleb128 0
 14041 36a8 00       		.byte	0
 14042 36a9 08       		.uleb128 0x8
 14043 36aa EA070000 		.4byte	.LVL603
 14044 36ae 69020000 		.4byte	0x269
 14045 36b2 C2360000 		.4byte	0x36c2
 14046 36b6 09       		.uleb128 0x9
 14047 36b7 01       		.uleb128 0x1
 14048 36b8 50       		.byte	0x50
 14049 36b9 02       		.uleb128 0x2
 14050 36ba 08       		.byte	0x8
 14051 36bb 6D       		.byte	0x6d
 14052 36bc 09       		.uleb128 0x9
 14053 36bd 01       		.uleb128 0x1
 14054 36be 51       		.byte	0x51
 14055 36bf 01       		.uleb128 0x1
 14056 36c0 30       		.byte	0x30
 14057 36c1 00       		.byte	0
 14058 36c2 08       		.uleb128 0x8
 14059 36c3 F2070000 		.4byte	.LVL604
 14060 36c7 69020000 		.4byte	0x269
 14061 36cb DB360000 		.4byte	0x36db
 14062 36cf 09       		.uleb128 0x9
 14063 36d0 01       		.uleb128 0x1
 14064 36d1 50       		.byte	0x50
 14065 36d2 02       		.uleb128 0x2
 14066 36d3 08       		.byte	0x8
 14067 36d4 71       		.byte	0x71
 14068 36d5 09       		.uleb128 0x9
 14069 36d6 01       		.uleb128 0x1
 14070 36d7 51       		.byte	0x51
 14071 36d8 01       		.uleb128 0x1
 14072 36d9 30       		.byte	0x30
 14073 36da 00       		.byte	0
 14074 36db 08       		.uleb128 0x8
 14075 36dc FA070000 		.4byte	.LVL605
 14076 36e0 69020000 		.4byte	0x269
 14077 36e4 F4360000 		.4byte	0x36f4
 14078 36e8 09       		.uleb128 0x9
 14079 36e9 01       		.uleb128 0x1
 14080 36ea 50       		.byte	0x50
 14081 36eb 02       		.uleb128 0x2
 14082 36ec 08       		.byte	0x8
 14083 36ed 75       		.byte	0x75
 14084 36ee 09       		.uleb128 0x9
 14085 36ef 01       		.uleb128 0x1
 14086 36f0 51       		.byte	0x51
 14087 36f1 01       		.uleb128 0x1
 14088 36f2 30       		.byte	0x30
 14089 36f3 00       		.byte	0
 14090 36f4 08       		.uleb128 0x8
 14091 36f5 02080000 		.4byte	.LVL606
 14092 36f9 69020000 		.4byte	0x269
 14093 36fd 0D370000 		.4byte	0x370d
ARM GAS  C:\Users\Revanth\AppData\Local\Temp\ccqs06ys.s 			page 290


 14094 3701 09       		.uleb128 0x9
 14095 3702 01       		.uleb128 0x1
 14096 3703 50       		.byte	0x50
 14097 3704 02       		.uleb128 0x2
 14098 3705 08       		.byte	0x8
 14099 3706 79       		.byte	0x79
 14100 3707 09       		.uleb128 0x9
 14101 3708 01       		.uleb128 0x1
 14102 3709 51       		.byte	0x51
 14103 370a 01       		.uleb128 0x1
 14104 370b 30       		.byte	0x30
 14105 370c 00       		.byte	0
 14106 370d 08       		.uleb128 0x8
 14107 370e 0A080000 		.4byte	.LVL607
 14108 3712 69020000 		.4byte	0x269
 14109 3716 26370000 		.4byte	0x3726
 14110 371a 09       		.uleb128 0x9
 14111 371b 01       		.uleb128 0x1
 14112 371c 50       		.byte	0x50
 14113 371d 02       		.uleb128 0x2
 14114 371e 08       		.byte	0x8
 14115 371f 7D       		.byte	0x7d
 14116 3720 09       		.uleb128 0x9
 14117 3721 01       		.uleb128 0x1
 14118 3722 51       		.byte	0x51
 14119 3723 01       		.uleb128 0x1
 14120 3724 30       		.byte	0x30
 14121 3725 00       		.byte	0
 14122 3726 08       		.uleb128 0x8
 14123 3727 10080000 		.4byte	.LVL608
 14124 372b B75F0000 		.4byte	0x5fb7
 14125 372f 39370000 		.4byte	0x3739
 14126 3733 09       		.uleb128 0x9
 14127 3734 01       		.uleb128 0x1
 14128 3735 50       		.byte	0x50
 14129 3736 01       		.uleb128 0x1
 14130 3737 30       		.byte	0x30
 14131 3738 00       		.byte	0
 14132 3739 08       		.uleb128 0x8
 14133 373a 1E080000 		.4byte	.LVL609
 14134 373e B75F0000 		.4byte	0x5fb7
 14135 3742 4C370000 		.4byte	0x374c
 14136 3746 09       		.uleb128 0x9
 14137 3747 01       		.uleb128 0x1
 14138 3748 50       		.byte	0x50
 14139 3749 01       		.uleb128 0x1
 14140 374a 31       		.byte	0x31
 14141 374b 00       		.byte	0
 14142 374c 08       		.uleb128 0x8
 14143 374d 24080000 		.4byte	.LVL610
 14144 3751 A6020000 		.4byte	0x2a6
 14145 3755 5F370000 		.4byte	0x375f
 14146 3759 09       		.uleb128 0x9
 14147 375a 01       		.uleb128 0x1
 14148 375b 50       		.byte	0x50
 14149 375c 01       		.uleb128 0x1
 14150 375d 31       		.byte	0x31
ARM GAS  C:\Users\Revanth\AppData\Local\Temp\ccqs06ys.s 			page 291


 14151 375e 00       		.byte	0
 14152 375f 08       		.uleb128 0x8
 14153 3760 2C080000 		.4byte	.LVL611
 14154 3764 69020000 		.4byte	0x269
 14155 3768 78370000 		.4byte	0x3778
 14156 376c 09       		.uleb128 0x9
 14157 376d 01       		.uleb128 0x1
 14158 376e 50       		.byte	0x50
 14159 376f 02       		.uleb128 0x2
 14160 3770 08       		.byte	0x8
 14161 3771 20       		.byte	0x20
 14162 3772 09       		.uleb128 0x9
 14163 3773 01       		.uleb128 0x1
 14164 3774 51       		.byte	0x51
 14165 3775 01       		.uleb128 0x1
 14166 3776 31       		.byte	0x31
 14167 3777 00       		.byte	0
 14168 3778 08       		.uleb128 0x8
 14169 3779 34080000 		.4byte	.LVL612
 14170 377d 69020000 		.4byte	0x269
 14171 3781 91370000 		.4byte	0x3791
 14172 3785 09       		.uleb128 0x9
 14173 3786 01       		.uleb128 0x1
 14174 3787 50       		.byte	0x50
 14175 3788 02       		.uleb128 0x2
 14176 3789 08       		.byte	0x8
 14177 378a 24       		.byte	0x24
 14178 378b 09       		.uleb128 0x9
 14179 378c 01       		.uleb128 0x1
 14180 378d 51       		.byte	0x51
 14181 378e 01       		.uleb128 0x1
 14182 378f 30       		.byte	0x30
 14183 3790 00       		.byte	0
 14184 3791 08       		.uleb128 0x8
 14185 3792 3C080000 		.4byte	.LVL613
 14186 3796 69020000 		.4byte	0x269
 14187 379a AA370000 		.4byte	0x37aa
 14188 379e 09       		.uleb128 0x9
 14189 379f 01       		.uleb128 0x1
 14190 37a0 50       		.byte	0x50
 14191 37a1 02       		.uleb128 0x2
 14192 37a2 08       		.byte	0x8
 14193 37a3 28       		.byte	0x28
 14194 37a4 09       		.uleb128 0x9
 14195 37a5 01       		.uleb128 0x1
 14196 37a6 51       		.byte	0x51
 14197 37a7 01       		.uleb128 0x1
 14198 37a8 31       		.byte	0x31
 14199 37a9 00       		.byte	0
 14200 37aa 08       		.uleb128 0x8
 14201 37ab 44080000 		.4byte	.LVL614
 14202 37af 69020000 		.4byte	0x269
 14203 37b3 C3370000 		.4byte	0x37c3
 14204 37b7 09       		.uleb128 0x9
 14205 37b8 01       		.uleb128 0x1
 14206 37b9 50       		.byte	0x50
 14207 37ba 02       		.uleb128 0x2
ARM GAS  C:\Users\Revanth\AppData\Local\Temp\ccqs06ys.s 			page 292


 14208 37bb 08       		.byte	0x8
 14209 37bc 2C       		.byte	0x2c
 14210 37bd 09       		.uleb128 0x9
 14211 37be 01       		.uleb128 0x1
 14212 37bf 51       		.byte	0x51
 14213 37c0 01       		.uleb128 0x1
 14214 37c1 30       		.byte	0x30
 14215 37c2 00       		.byte	0
 14216 37c3 08       		.uleb128 0x8
 14217 37c4 4C080000 		.4byte	.LVL615
 14218 37c8 69020000 		.4byte	0x269
 14219 37cc DC370000 		.4byte	0x37dc
 14220 37d0 09       		.uleb128 0x9
 14221 37d1 01       		.uleb128 0x1
 14222 37d2 50       		.byte	0x50
 14223 37d3 02       		.uleb128 0x2
 14224 37d4 08       		.byte	0x8
 14225 37d5 30       		.byte	0x30
 14226 37d6 09       		.uleb128 0x9
 14227 37d7 01       		.uleb128 0x1
 14228 37d8 51       		.byte	0x51
 14229 37d9 01       		.uleb128 0x1
 14230 37da 31       		.byte	0x31
 14231 37db 00       		.byte	0
 14232 37dc 08       		.uleb128 0x8
 14233 37dd 54080000 		.4byte	.LVL616
 14234 37e1 69020000 		.4byte	0x269
 14235 37e5 F5370000 		.4byte	0x37f5
 14236 37e9 09       		.uleb128 0x9
 14237 37ea 01       		.uleb128 0x1
 14238 37eb 50       		.byte	0x50
 14239 37ec 02       		.uleb128 0x2
 14240 37ed 08       		.byte	0x8
 14241 37ee 34       		.byte	0x34
 14242 37ef 09       		.uleb128 0x9
 14243 37f0 01       		.uleb128 0x1
 14244 37f1 51       		.byte	0x51
 14245 37f2 01       		.uleb128 0x1
 14246 37f3 30       		.byte	0x30
 14247 37f4 00       		.byte	0
 14248 37f5 08       		.uleb128 0x8
 14249 37f6 5C080000 		.4byte	.LVL617
 14250 37fa 69020000 		.4byte	0x269
 14251 37fe 0E380000 		.4byte	0x380e
 14252 3802 09       		.uleb128 0x9
 14253 3803 01       		.uleb128 0x1
 14254 3804 50       		.byte	0x50
 14255 3805 02       		.uleb128 0x2
 14256 3806 08       		.byte	0x8
 14257 3807 38       		.byte	0x38
 14258 3808 09       		.uleb128 0x9
 14259 3809 01       		.uleb128 0x1
 14260 380a 51       		.byte	0x51
 14261 380b 01       		.uleb128 0x1
 14262 380c 30       		.byte	0x30
 14263 380d 00       		.byte	0
 14264 380e 08       		.uleb128 0x8
ARM GAS  C:\Users\Revanth\AppData\Local\Temp\ccqs06ys.s 			page 293


 14265 380f 64080000 		.4byte	.LVL618
 14266 3813 69020000 		.4byte	0x269
 14267 3817 27380000 		.4byte	0x3827
 14268 381b 09       		.uleb128 0x9
 14269 381c 01       		.uleb128 0x1
 14270 381d 50       		.byte	0x50
 14271 381e 02       		.uleb128 0x2
 14272 381f 08       		.byte	0x8
 14273 3820 3C       		.byte	0x3c
 14274 3821 09       		.uleb128 0x9
 14275 3822 01       		.uleb128 0x1
 14276 3823 51       		.byte	0x51
 14277 3824 01       		.uleb128 0x1
 14278 3825 30       		.byte	0x30
 14279 3826 00       		.byte	0
 14280 3827 08       		.uleb128 0x8
 14281 3828 6C080000 		.4byte	.LVL619
 14282 382c 69020000 		.4byte	0x269
 14283 3830 40380000 		.4byte	0x3840
 14284 3834 09       		.uleb128 0x9
 14285 3835 01       		.uleb128 0x1
 14286 3836 50       		.byte	0x50
 14287 3837 02       		.uleb128 0x2
 14288 3838 08       		.byte	0x8
 14289 3839 40       		.byte	0x40
 14290 383a 09       		.uleb128 0x9
 14291 383b 01       		.uleb128 0x1
 14292 383c 51       		.byte	0x51
 14293 383d 01       		.uleb128 0x1
 14294 383e 31       		.byte	0x31
 14295 383f 00       		.byte	0
 14296 3840 08       		.uleb128 0x8
 14297 3841 74080000 		.4byte	.LVL620
 14298 3845 69020000 		.4byte	0x269
 14299 3849 59380000 		.4byte	0x3859
 14300 384d 09       		.uleb128 0x9
 14301 384e 01       		.uleb128 0x1
 14302 384f 50       		.byte	0x50
 14303 3850 02       		.uleb128 0x2
 14304 3851 08       		.byte	0x8
 14305 3852 44       		.byte	0x44
 14306 3853 09       		.uleb128 0x9
 14307 3854 01       		.uleb128 0x1
 14308 3855 51       		.byte	0x51
 14309 3856 01       		.uleb128 0x1
 14310 3857 30       		.byte	0x30
 14311 3858 00       		.byte	0
 14312 3859 08       		.uleb128 0x8
 14313 385a 7C080000 		.4byte	.LVL621
 14314 385e 69020000 		.4byte	0x269
 14315 3862 72380000 		.4byte	0x3872
 14316 3866 09       		.uleb128 0x9
 14317 3867 01       		.uleb128 0x1
 14318 3868 50       		.byte	0x50
 14319 3869 02       		.uleb128 0x2
 14320 386a 08       		.byte	0x8
 14321 386b 48       		.byte	0x48
ARM GAS  C:\Users\Revanth\AppData\Local\Temp\ccqs06ys.s 			page 294


 14322 386c 09       		.uleb128 0x9
 14323 386d 01       		.uleb128 0x1
 14324 386e 51       		.byte	0x51
 14325 386f 01       		.uleb128 0x1
 14326 3870 30       		.byte	0x30
 14327 3871 00       		.byte	0
 14328 3872 08       		.uleb128 0x8
 14329 3873 84080000 		.4byte	.LVL622
 14330 3877 69020000 		.4byte	0x269
 14331 387b 8B380000 		.4byte	0x388b
 14332 387f 09       		.uleb128 0x9
 14333 3880 01       		.uleb128 0x1
 14334 3881 50       		.byte	0x50
 14335 3882 02       		.uleb128 0x2
 14336 3883 08       		.byte	0x8
 14337 3884 4C       		.byte	0x4c
 14338 3885 09       		.uleb128 0x9
 14339 3886 01       		.uleb128 0x1
 14340 3887 51       		.byte	0x51
 14341 3888 01       		.uleb128 0x1
 14342 3889 30       		.byte	0x30
 14343 388a 00       		.byte	0
 14344 388b 08       		.uleb128 0x8
 14345 388c 8C080000 		.4byte	.LVL623
 14346 3890 69020000 		.4byte	0x269
 14347 3894 A4380000 		.4byte	0x38a4
 14348 3898 09       		.uleb128 0x9
 14349 3899 01       		.uleb128 0x1
 14350 389a 50       		.byte	0x50
 14351 389b 02       		.uleb128 0x2
 14352 389c 08       		.byte	0x8
 14353 389d 50       		.byte	0x50
 14354 389e 09       		.uleb128 0x9
 14355 389f 01       		.uleb128 0x1
 14356 38a0 51       		.byte	0x51
 14357 38a1 01       		.uleb128 0x1
 14358 38a2 30       		.byte	0x30
 14359 38a3 00       		.byte	0
 14360 38a4 08       		.uleb128 0x8
 14361 38a5 94080000 		.4byte	.LVL624
 14362 38a9 69020000 		.4byte	0x269
 14363 38ad BD380000 		.4byte	0x38bd
 14364 38b1 09       		.uleb128 0x9
 14365 38b2 01       		.uleb128 0x1
 14366 38b3 50       		.byte	0x50
 14367 38b4 02       		.uleb128 0x2
 14368 38b5 08       		.byte	0x8
 14369 38b6 54       		.byte	0x54
 14370 38b7 09       		.uleb128 0x9
 14371 38b8 01       		.uleb128 0x1
 14372 38b9 51       		.byte	0x51
 14373 38ba 01       		.uleb128 0x1
 14374 38bb 30       		.byte	0x30
 14375 38bc 00       		.byte	0
 14376 38bd 08       		.uleb128 0x8
 14377 38be 9C080000 		.4byte	.LVL625
 14378 38c2 69020000 		.4byte	0x269
ARM GAS  C:\Users\Revanth\AppData\Local\Temp\ccqs06ys.s 			page 295


 14379 38c6 D6380000 		.4byte	0x38d6
 14380 38ca 09       		.uleb128 0x9
 14381 38cb 01       		.uleb128 0x1
 14382 38cc 50       		.byte	0x50
 14383 38cd 02       		.uleb128 0x2
 14384 38ce 08       		.byte	0x8
 14385 38cf 58       		.byte	0x58
 14386 38d0 09       		.uleb128 0x9
 14387 38d1 01       		.uleb128 0x1
 14388 38d2 51       		.byte	0x51
 14389 38d3 01       		.uleb128 0x1
 14390 38d4 30       		.byte	0x30
 14391 38d5 00       		.byte	0
 14392 38d6 08       		.uleb128 0x8
 14393 38d7 A4080000 		.4byte	.LVL626
 14394 38db 69020000 		.4byte	0x269
 14395 38df EF380000 		.4byte	0x38ef
 14396 38e3 09       		.uleb128 0x9
 14397 38e4 01       		.uleb128 0x1
 14398 38e5 50       		.byte	0x50
 14399 38e6 02       		.uleb128 0x2
 14400 38e7 08       		.byte	0x8
 14401 38e8 5C       		.byte	0x5c
 14402 38e9 09       		.uleb128 0x9
 14403 38ea 01       		.uleb128 0x1
 14404 38eb 51       		.byte	0x51
 14405 38ec 01       		.uleb128 0x1
 14406 38ed 31       		.byte	0x31
 14407 38ee 00       		.byte	0
 14408 38ef 08       		.uleb128 0x8
 14409 38f0 AC080000 		.4byte	.LVL627
 14410 38f4 69020000 		.4byte	0x269
 14411 38f8 08390000 		.4byte	0x3908
 14412 38fc 09       		.uleb128 0x9
 14413 38fd 01       		.uleb128 0x1
 14414 38fe 50       		.byte	0x50
 14415 38ff 02       		.uleb128 0x2
 14416 3900 08       		.byte	0x8
 14417 3901 60       		.byte	0x60
 14418 3902 09       		.uleb128 0x9
 14419 3903 01       		.uleb128 0x1
 14420 3904 51       		.byte	0x51
 14421 3905 01       		.uleb128 0x1
 14422 3906 30       		.byte	0x30
 14423 3907 00       		.byte	0
 14424 3908 08       		.uleb128 0x8
 14425 3909 B4080000 		.4byte	.LVL628
 14426 390d 69020000 		.4byte	0x269
 14427 3911 21390000 		.4byte	0x3921
 14428 3915 09       		.uleb128 0x9
 14429 3916 01       		.uleb128 0x1
 14430 3917 50       		.byte	0x50
 14431 3918 02       		.uleb128 0x2
 14432 3919 08       		.byte	0x8
 14433 391a 64       		.byte	0x64
 14434 391b 09       		.uleb128 0x9
 14435 391c 01       		.uleb128 0x1
ARM GAS  C:\Users\Revanth\AppData\Local\Temp\ccqs06ys.s 			page 296


 14436 391d 51       		.byte	0x51
 14437 391e 01       		.uleb128 0x1
 14438 391f 31       		.byte	0x31
 14439 3920 00       		.byte	0
 14440 3921 08       		.uleb128 0x8
 14441 3922 BC080000 		.4byte	.LVL629
 14442 3926 69020000 		.4byte	0x269
 14443 392a 3A390000 		.4byte	0x393a
 14444 392e 09       		.uleb128 0x9
 14445 392f 01       		.uleb128 0x1
 14446 3930 50       		.byte	0x50
 14447 3931 02       		.uleb128 0x2
 14448 3932 08       		.byte	0x8
 14449 3933 68       		.byte	0x68
 14450 3934 09       		.uleb128 0x9
 14451 3935 01       		.uleb128 0x1
 14452 3936 51       		.byte	0x51
 14453 3937 01       		.uleb128 0x1
 14454 3938 30       		.byte	0x30
 14455 3939 00       		.byte	0
 14456 393a 08       		.uleb128 0x8
 14457 393b C4080000 		.4byte	.LVL630
 14458 393f 69020000 		.4byte	0x269
 14459 3943 53390000 		.4byte	0x3953
 14460 3947 09       		.uleb128 0x9
 14461 3948 01       		.uleb128 0x1
 14462 3949 50       		.byte	0x50
 14463 394a 02       		.uleb128 0x2
 14464 394b 08       		.byte	0x8
 14465 394c 6C       		.byte	0x6c
 14466 394d 09       		.uleb128 0x9
 14467 394e 01       		.uleb128 0x1
 14468 394f 51       		.byte	0x51
 14469 3950 01       		.uleb128 0x1
 14470 3951 30       		.byte	0x30
 14471 3952 00       		.byte	0
 14472 3953 08       		.uleb128 0x8
 14473 3954 CC080000 		.4byte	.LVL631
 14474 3958 69020000 		.4byte	0x269
 14475 395c 6C390000 		.4byte	0x396c
 14476 3960 09       		.uleb128 0x9
 14477 3961 01       		.uleb128 0x1
 14478 3962 50       		.byte	0x50
 14479 3963 02       		.uleb128 0x2
 14480 3964 08       		.byte	0x8
 14481 3965 70       		.byte	0x70
 14482 3966 09       		.uleb128 0x9
 14483 3967 01       		.uleb128 0x1
 14484 3968 51       		.byte	0x51
 14485 3969 01       		.uleb128 0x1
 14486 396a 30       		.byte	0x30
 14487 396b 00       		.byte	0
 14488 396c 08       		.uleb128 0x8
 14489 396d D4080000 		.4byte	.LVL632
 14490 3971 69020000 		.4byte	0x269
 14491 3975 85390000 		.4byte	0x3985
 14492 3979 09       		.uleb128 0x9
ARM GAS  C:\Users\Revanth\AppData\Local\Temp\ccqs06ys.s 			page 297


 14493 397a 01       		.uleb128 0x1
 14494 397b 50       		.byte	0x50
 14495 397c 02       		.uleb128 0x2
 14496 397d 08       		.byte	0x8
 14497 397e 74       		.byte	0x74
 14498 397f 09       		.uleb128 0x9
 14499 3980 01       		.uleb128 0x1
 14500 3981 51       		.byte	0x51
 14501 3982 01       		.uleb128 0x1
 14502 3983 30       		.byte	0x30
 14503 3984 00       		.byte	0
 14504 3985 08       		.uleb128 0x8
 14505 3986 DC080000 		.4byte	.LVL633
 14506 398a 69020000 		.4byte	0x269
 14507 398e 9E390000 		.4byte	0x399e
 14508 3992 09       		.uleb128 0x9
 14509 3993 01       		.uleb128 0x1
 14510 3994 50       		.byte	0x50
 14511 3995 02       		.uleb128 0x2
 14512 3996 08       		.byte	0x8
 14513 3997 78       		.byte	0x78
 14514 3998 09       		.uleb128 0x9
 14515 3999 01       		.uleb128 0x1
 14516 399a 51       		.byte	0x51
 14517 399b 01       		.uleb128 0x1
 14518 399c 30       		.byte	0x30
 14519 399d 00       		.byte	0
 14520 399e 08       		.uleb128 0x8
 14521 399f E4080000 		.4byte	.LVL634
 14522 39a3 69020000 		.4byte	0x269
 14523 39a7 B7390000 		.4byte	0x39b7
 14524 39ab 09       		.uleb128 0x9
 14525 39ac 01       		.uleb128 0x1
 14526 39ad 50       		.byte	0x50
 14527 39ae 02       		.uleb128 0x2
 14528 39af 08       		.byte	0x8
 14529 39b0 7C       		.byte	0x7c
 14530 39b1 09       		.uleb128 0x9
 14531 39b2 01       		.uleb128 0x1
 14532 39b3 51       		.byte	0x51
 14533 39b4 01       		.uleb128 0x1
 14534 39b5 30       		.byte	0x30
 14535 39b6 00       		.byte	0
 14536 39b7 08       		.uleb128 0x8
 14537 39b8 EC080000 		.4byte	.LVL635
 14538 39bc 69020000 		.4byte	0x269
 14539 39c0 D1390000 		.4byte	0x39d1
 14540 39c4 09       		.uleb128 0x9
 14541 39c5 01       		.uleb128 0x1
 14542 39c6 50       		.byte	0x50
 14543 39c7 02       		.uleb128 0x2
 14544 39c8 08       		.byte	0x8
 14545 39c9 21       		.byte	0x21
 14546 39ca 09       		.uleb128 0x9
 14547 39cb 01       		.uleb128 0x1
 14548 39cc 51       		.byte	0x51
 14549 39cd 02       		.uleb128 0x2
ARM GAS  C:\Users\Revanth\AppData\Local\Temp\ccqs06ys.s 			page 298


 14550 39ce 75       		.byte	0x75
 14551 39cf 00       		.sleb128 0
 14552 39d0 00       		.byte	0
 14553 39d1 08       		.uleb128 0x8
 14554 39d2 F4080000 		.4byte	.LVL636
 14555 39d6 69020000 		.4byte	0x269
 14556 39da EA390000 		.4byte	0x39ea
 14557 39de 09       		.uleb128 0x9
 14558 39df 01       		.uleb128 0x1
 14559 39e0 50       		.byte	0x50
 14560 39e1 02       		.uleb128 0x2
 14561 39e2 08       		.byte	0x8
 14562 39e3 25       		.byte	0x25
 14563 39e4 09       		.uleb128 0x9
 14564 39e5 01       		.uleb128 0x1
 14565 39e6 51       		.byte	0x51
 14566 39e7 01       		.uleb128 0x1
 14567 39e8 30       		.byte	0x30
 14568 39e9 00       		.byte	0
 14569 39ea 08       		.uleb128 0x8
 14570 39eb FC080000 		.4byte	.LVL637
 14571 39ef 69020000 		.4byte	0x269
 14572 39f3 043A0000 		.4byte	0x3a04
 14573 39f7 09       		.uleb128 0x9
 14574 39f8 01       		.uleb128 0x1
 14575 39f9 50       		.byte	0x50
 14576 39fa 02       		.uleb128 0x2
 14577 39fb 08       		.byte	0x8
 14578 39fc 29       		.byte	0x29
 14579 39fd 09       		.uleb128 0x9
 14580 39fe 01       		.uleb128 0x1
 14581 39ff 51       		.byte	0x51
 14582 3a00 02       		.uleb128 0x2
 14583 3a01 75       		.byte	0x75
 14584 3a02 00       		.sleb128 0
 14585 3a03 00       		.byte	0
 14586 3a04 08       		.uleb128 0x8
 14587 3a05 04090000 		.4byte	.LVL638
 14588 3a09 69020000 		.4byte	0x269
 14589 3a0d 1D3A0000 		.4byte	0x3a1d
 14590 3a11 09       		.uleb128 0x9
 14591 3a12 01       		.uleb128 0x1
 14592 3a13 50       		.byte	0x50
 14593 3a14 02       		.uleb128 0x2
 14594 3a15 08       		.byte	0x8
 14595 3a16 2D       		.byte	0x2d
 14596 3a17 09       		.uleb128 0x9
 14597 3a18 01       		.uleb128 0x1
 14598 3a19 51       		.byte	0x51
 14599 3a1a 01       		.uleb128 0x1
 14600 3a1b 30       		.byte	0x30
 14601 3a1c 00       		.byte	0
 14602 3a1d 08       		.uleb128 0x8
 14603 3a1e 0C090000 		.4byte	.LVL639
 14604 3a22 69020000 		.4byte	0x269
 14605 3a26 373A0000 		.4byte	0x3a37
 14606 3a2a 09       		.uleb128 0x9
ARM GAS  C:\Users\Revanth\AppData\Local\Temp\ccqs06ys.s 			page 299


 14607 3a2b 01       		.uleb128 0x1
 14608 3a2c 50       		.byte	0x50
 14609 3a2d 02       		.uleb128 0x2
 14610 3a2e 08       		.byte	0x8
 14611 3a2f 31       		.byte	0x31
 14612 3a30 09       		.uleb128 0x9
 14613 3a31 01       		.uleb128 0x1
 14614 3a32 51       		.byte	0x51
 14615 3a33 02       		.uleb128 0x2
 14616 3a34 75       		.byte	0x75
 14617 3a35 00       		.sleb128 0
 14618 3a36 00       		.byte	0
 14619 3a37 08       		.uleb128 0x8
 14620 3a38 14090000 		.4byte	.LVL640
 14621 3a3c 69020000 		.4byte	0x269
 14622 3a40 503A0000 		.4byte	0x3a50
 14623 3a44 09       		.uleb128 0x9
 14624 3a45 01       		.uleb128 0x1
 14625 3a46 50       		.byte	0x50
 14626 3a47 02       		.uleb128 0x2
 14627 3a48 08       		.byte	0x8
 14628 3a49 35       		.byte	0x35
 14629 3a4a 09       		.uleb128 0x9
 14630 3a4b 01       		.uleb128 0x1
 14631 3a4c 51       		.byte	0x51
 14632 3a4d 01       		.uleb128 0x1
 14633 3a4e 30       		.byte	0x30
 14634 3a4f 00       		.byte	0
 14635 3a50 08       		.uleb128 0x8
 14636 3a51 1C090000 		.4byte	.LVL641
 14637 3a55 69020000 		.4byte	0x269
 14638 3a59 693A0000 		.4byte	0x3a69
 14639 3a5d 09       		.uleb128 0x9
 14640 3a5e 01       		.uleb128 0x1
 14641 3a5f 50       		.byte	0x50
 14642 3a60 02       		.uleb128 0x2
 14643 3a61 08       		.byte	0x8
 14644 3a62 39       		.byte	0x39
 14645 3a63 09       		.uleb128 0x9
 14646 3a64 01       		.uleb128 0x1
 14647 3a65 51       		.byte	0x51
 14648 3a66 01       		.uleb128 0x1
 14649 3a67 30       		.byte	0x30
 14650 3a68 00       		.byte	0
 14651 3a69 08       		.uleb128 0x8
 14652 3a6a 24090000 		.4byte	.LVL642
 14653 3a6e 69020000 		.4byte	0x269
 14654 3a72 823A0000 		.4byte	0x3a82
 14655 3a76 09       		.uleb128 0x9
 14656 3a77 01       		.uleb128 0x1
 14657 3a78 50       		.byte	0x50
 14658 3a79 02       		.uleb128 0x2
 14659 3a7a 08       		.byte	0x8
 14660 3a7b 3D       		.byte	0x3d
 14661 3a7c 09       		.uleb128 0x9
 14662 3a7d 01       		.uleb128 0x1
 14663 3a7e 51       		.byte	0x51
ARM GAS  C:\Users\Revanth\AppData\Local\Temp\ccqs06ys.s 			page 300


 14664 3a7f 01       		.uleb128 0x1
 14665 3a80 30       		.byte	0x30
 14666 3a81 00       		.byte	0
 14667 3a82 08       		.uleb128 0x8
 14668 3a83 2C090000 		.4byte	.LVL643
 14669 3a87 69020000 		.4byte	0x269
 14670 3a8b 9C3A0000 		.4byte	0x3a9c
 14671 3a8f 09       		.uleb128 0x9
 14672 3a90 01       		.uleb128 0x1
 14673 3a91 50       		.byte	0x50
 14674 3a92 02       		.uleb128 0x2
 14675 3a93 08       		.byte	0x8
 14676 3a94 41       		.byte	0x41
 14677 3a95 09       		.uleb128 0x9
 14678 3a96 01       		.uleb128 0x1
 14679 3a97 51       		.byte	0x51
 14680 3a98 02       		.uleb128 0x2
 14681 3a99 75       		.byte	0x75
 14682 3a9a 00       		.sleb128 0
 14683 3a9b 00       		.byte	0
 14684 3a9c 08       		.uleb128 0x8
 14685 3a9d 34090000 		.4byte	.LVL644
 14686 3aa1 69020000 		.4byte	0x269
 14687 3aa5 B53A0000 		.4byte	0x3ab5
 14688 3aa9 09       		.uleb128 0x9
 14689 3aaa 01       		.uleb128 0x1
 14690 3aab 50       		.byte	0x50
 14691 3aac 02       		.uleb128 0x2
 14692 3aad 08       		.byte	0x8
 14693 3aae 45       		.byte	0x45
 14694 3aaf 09       		.uleb128 0x9
 14695 3ab0 01       		.uleb128 0x1
 14696 3ab1 51       		.byte	0x51
 14697 3ab2 01       		.uleb128 0x1
 14698 3ab3 30       		.byte	0x30
 14699 3ab4 00       		.byte	0
 14700 3ab5 08       		.uleb128 0x8
 14701 3ab6 3C090000 		.4byte	.LVL645
 14702 3aba 69020000 		.4byte	0x269
 14703 3abe CE3A0000 		.4byte	0x3ace
 14704 3ac2 09       		.uleb128 0x9
 14705 3ac3 01       		.uleb128 0x1
 14706 3ac4 50       		.byte	0x50
 14707 3ac5 02       		.uleb128 0x2
 14708 3ac6 08       		.byte	0x8
 14709 3ac7 49       		.byte	0x49
 14710 3ac8 09       		.uleb128 0x9
 14711 3ac9 01       		.uleb128 0x1
 14712 3aca 51       		.byte	0x51
 14713 3acb 01       		.uleb128 0x1
 14714 3acc 30       		.byte	0x30
 14715 3acd 00       		.byte	0
 14716 3ace 08       		.uleb128 0x8
 14717 3acf 44090000 		.4byte	.LVL646
 14718 3ad3 69020000 		.4byte	0x269
 14719 3ad7 E73A0000 		.4byte	0x3ae7
 14720 3adb 09       		.uleb128 0x9
ARM GAS  C:\Users\Revanth\AppData\Local\Temp\ccqs06ys.s 			page 301


 14721 3adc 01       		.uleb128 0x1
 14722 3add 50       		.byte	0x50
 14723 3ade 02       		.uleb128 0x2
 14724 3adf 08       		.byte	0x8
 14725 3ae0 4D       		.byte	0x4d
 14726 3ae1 09       		.uleb128 0x9
 14727 3ae2 01       		.uleb128 0x1
 14728 3ae3 51       		.byte	0x51
 14729 3ae4 01       		.uleb128 0x1
 14730 3ae5 30       		.byte	0x30
 14731 3ae6 00       		.byte	0
 14732 3ae7 08       		.uleb128 0x8
 14733 3ae8 4C090000 		.4byte	.LVL647
 14734 3aec 69020000 		.4byte	0x269
 14735 3af0 003B0000 		.4byte	0x3b00
 14736 3af4 09       		.uleb128 0x9
 14737 3af5 01       		.uleb128 0x1
 14738 3af6 50       		.byte	0x50
 14739 3af7 02       		.uleb128 0x2
 14740 3af8 08       		.byte	0x8
 14741 3af9 51       		.byte	0x51
 14742 3afa 09       		.uleb128 0x9
 14743 3afb 01       		.uleb128 0x1
 14744 3afc 51       		.byte	0x51
 14745 3afd 01       		.uleb128 0x1
 14746 3afe 30       		.byte	0x30
 14747 3aff 00       		.byte	0
 14748 3b00 08       		.uleb128 0x8
 14749 3b01 54090000 		.4byte	.LVL648
 14750 3b05 69020000 		.4byte	0x269
 14751 3b09 193B0000 		.4byte	0x3b19
 14752 3b0d 09       		.uleb128 0x9
 14753 3b0e 01       		.uleb128 0x1
 14754 3b0f 50       		.byte	0x50
 14755 3b10 02       		.uleb128 0x2
 14756 3b11 08       		.byte	0x8
 14757 3b12 55       		.byte	0x55
 14758 3b13 09       		.uleb128 0x9
 14759 3b14 01       		.uleb128 0x1
 14760 3b15 51       		.byte	0x51
 14761 3b16 01       		.uleb128 0x1
 14762 3b17 30       		.byte	0x30
 14763 3b18 00       		.byte	0
 14764 3b19 08       		.uleb128 0x8
 14765 3b1a 5C090000 		.4byte	.LVL649
 14766 3b1e 69020000 		.4byte	0x269
 14767 3b22 323B0000 		.4byte	0x3b32
 14768 3b26 09       		.uleb128 0x9
 14769 3b27 01       		.uleb128 0x1
 14770 3b28 50       		.byte	0x50
 14771 3b29 02       		.uleb128 0x2
 14772 3b2a 08       		.byte	0x8
 14773 3b2b 59       		.byte	0x59
 14774 3b2c 09       		.uleb128 0x9
 14775 3b2d 01       		.uleb128 0x1
 14776 3b2e 51       		.byte	0x51
 14777 3b2f 01       		.uleb128 0x1
ARM GAS  C:\Users\Revanth\AppData\Local\Temp\ccqs06ys.s 			page 302


 14778 3b30 30       		.byte	0x30
 14779 3b31 00       		.byte	0
 14780 3b32 08       		.uleb128 0x8
 14781 3b33 64090000 		.4byte	.LVL650
 14782 3b37 69020000 		.4byte	0x269
 14783 3b3b 4C3B0000 		.4byte	0x3b4c
 14784 3b3f 09       		.uleb128 0x9
 14785 3b40 01       		.uleb128 0x1
 14786 3b41 50       		.byte	0x50
 14787 3b42 02       		.uleb128 0x2
 14788 3b43 08       		.byte	0x8
 14789 3b44 5D       		.byte	0x5d
 14790 3b45 09       		.uleb128 0x9
 14791 3b46 01       		.uleb128 0x1
 14792 3b47 51       		.byte	0x51
 14793 3b48 02       		.uleb128 0x2
 14794 3b49 75       		.byte	0x75
 14795 3b4a 00       		.sleb128 0
 14796 3b4b 00       		.byte	0
 14797 3b4c 08       		.uleb128 0x8
 14798 3b4d 6C090000 		.4byte	.LVL651
 14799 3b51 69020000 		.4byte	0x269
 14800 3b55 653B0000 		.4byte	0x3b65
 14801 3b59 09       		.uleb128 0x9
 14802 3b5a 01       		.uleb128 0x1
 14803 3b5b 50       		.byte	0x50
 14804 3b5c 02       		.uleb128 0x2
 14805 3b5d 08       		.byte	0x8
 14806 3b5e 61       		.byte	0x61
 14807 3b5f 09       		.uleb128 0x9
 14808 3b60 01       		.uleb128 0x1
 14809 3b61 51       		.byte	0x51
 14810 3b62 01       		.uleb128 0x1
 14811 3b63 30       		.byte	0x30
 14812 3b64 00       		.byte	0
 14813 3b65 08       		.uleb128 0x8
 14814 3b66 74090000 		.4byte	.LVL652
 14815 3b6a 69020000 		.4byte	0x269
 14816 3b6e 7F3B0000 		.4byte	0x3b7f
 14817 3b72 09       		.uleb128 0x9
 14818 3b73 01       		.uleb128 0x1
 14819 3b74 50       		.byte	0x50
 14820 3b75 02       		.uleb128 0x2
 14821 3b76 08       		.byte	0x8
 14822 3b77 65       		.byte	0x65
 14823 3b78 09       		.uleb128 0x9
 14824 3b79 01       		.uleb128 0x1
 14825 3b7a 51       		.byte	0x51
 14826 3b7b 02       		.uleb128 0x2
 14827 3b7c 75       		.byte	0x75
 14828 3b7d 00       		.sleb128 0
 14829 3b7e 00       		.byte	0
 14830 3b7f 08       		.uleb128 0x8
 14831 3b80 7C090000 		.4byte	.LVL653
 14832 3b84 69020000 		.4byte	0x269
 14833 3b88 983B0000 		.4byte	0x3b98
 14834 3b8c 09       		.uleb128 0x9
ARM GAS  C:\Users\Revanth\AppData\Local\Temp\ccqs06ys.s 			page 303


 14835 3b8d 01       		.uleb128 0x1
 14836 3b8e 50       		.byte	0x50
 14837 3b8f 02       		.uleb128 0x2
 14838 3b90 08       		.byte	0x8
 14839 3b91 69       		.byte	0x69
 14840 3b92 09       		.uleb128 0x9
 14841 3b93 01       		.uleb128 0x1
 14842 3b94 51       		.byte	0x51
 14843 3b95 01       		.uleb128 0x1
 14844 3b96 30       		.byte	0x30
 14845 3b97 00       		.byte	0
 14846 3b98 08       		.uleb128 0x8
 14847 3b99 84090000 		.4byte	.LVL654
 14848 3b9d 69020000 		.4byte	0x269
 14849 3ba1 B13B0000 		.4byte	0x3bb1
 14850 3ba5 09       		.uleb128 0x9
 14851 3ba6 01       		.uleb128 0x1
 14852 3ba7 50       		.byte	0x50
 14853 3ba8 02       		.uleb128 0x2
 14854 3ba9 08       		.byte	0x8
 14855 3baa 6D       		.byte	0x6d
 14856 3bab 09       		.uleb128 0x9
 14857 3bac 01       		.uleb128 0x1
 14858 3bad 51       		.byte	0x51
 14859 3bae 01       		.uleb128 0x1
 14860 3baf 30       		.byte	0x30
 14861 3bb0 00       		.byte	0
 14862 3bb1 08       		.uleb128 0x8
 14863 3bb2 8C090000 		.4byte	.LVL655
 14864 3bb6 69020000 		.4byte	0x269
 14865 3bba CA3B0000 		.4byte	0x3bca
 14866 3bbe 09       		.uleb128 0x9
 14867 3bbf 01       		.uleb128 0x1
 14868 3bc0 50       		.byte	0x50
 14869 3bc1 02       		.uleb128 0x2
 14870 3bc2 08       		.byte	0x8
 14871 3bc3 71       		.byte	0x71
 14872 3bc4 09       		.uleb128 0x9
 14873 3bc5 01       		.uleb128 0x1
 14874 3bc6 51       		.byte	0x51
 14875 3bc7 01       		.uleb128 0x1
 14876 3bc8 30       		.byte	0x30
 14877 3bc9 00       		.byte	0
 14878 3bca 08       		.uleb128 0x8
 14879 3bcb 94090000 		.4byte	.LVL656
 14880 3bcf 69020000 		.4byte	0x269
 14881 3bd3 E33B0000 		.4byte	0x3be3
 14882 3bd7 09       		.uleb128 0x9
 14883 3bd8 01       		.uleb128 0x1
 14884 3bd9 50       		.byte	0x50
 14885 3bda 02       		.uleb128 0x2
 14886 3bdb 08       		.byte	0x8
 14887 3bdc 75       		.byte	0x75
 14888 3bdd 09       		.uleb128 0x9
 14889 3bde 01       		.uleb128 0x1
 14890 3bdf 51       		.byte	0x51
 14891 3be0 01       		.uleb128 0x1
ARM GAS  C:\Users\Revanth\AppData\Local\Temp\ccqs06ys.s 			page 304


 14892 3be1 30       		.byte	0x30
 14893 3be2 00       		.byte	0
 14894 3be3 08       		.uleb128 0x8
 14895 3be4 9C090000 		.4byte	.LVL657
 14896 3be8 69020000 		.4byte	0x269
 14897 3bec FC3B0000 		.4byte	0x3bfc
 14898 3bf0 09       		.uleb128 0x9
 14899 3bf1 01       		.uleb128 0x1
 14900 3bf2 50       		.byte	0x50
 14901 3bf3 02       		.uleb128 0x2
 14902 3bf4 08       		.byte	0x8
 14903 3bf5 79       		.byte	0x79
 14904 3bf6 09       		.uleb128 0x9
 14905 3bf7 01       		.uleb128 0x1
 14906 3bf8 51       		.byte	0x51
 14907 3bf9 01       		.uleb128 0x1
 14908 3bfa 30       		.byte	0x30
 14909 3bfb 00       		.byte	0
 14910 3bfc 08       		.uleb128 0x8
 14911 3bfd A4090000 		.4byte	.LVL658
 14912 3c01 69020000 		.4byte	0x269
 14913 3c05 153C0000 		.4byte	0x3c15
 14914 3c09 09       		.uleb128 0x9
 14915 3c0a 01       		.uleb128 0x1
 14916 3c0b 50       		.byte	0x50
 14917 3c0c 02       		.uleb128 0x2
 14918 3c0d 08       		.byte	0x8
 14919 3c0e 7D       		.byte	0x7d
 14920 3c0f 09       		.uleb128 0x9
 14921 3c10 01       		.uleb128 0x1
 14922 3c11 51       		.byte	0x51
 14923 3c12 01       		.uleb128 0x1
 14924 3c13 30       		.byte	0x30
 14925 3c14 00       		.byte	0
 14926 3c15 08       		.uleb128 0x8
 14927 3c16 AA090000 		.4byte	.LVL659
 14928 3c1a B75F0000 		.4byte	0x5fb7
 14929 3c1e 283C0000 		.4byte	0x3c28
 14930 3c22 09       		.uleb128 0x9
 14931 3c23 01       		.uleb128 0x1
 14932 3c24 50       		.byte	0x50
 14933 3c25 01       		.uleb128 0x1
 14934 3c26 30       		.byte	0x30
 14935 3c27 00       		.byte	0
 14936 3c28 08       		.uleb128 0x8
 14937 3c29 B8090000 		.4byte	.LVL660
 14938 3c2d B75F0000 		.4byte	0x5fb7
 14939 3c31 3B3C0000 		.4byte	0x3c3b
 14940 3c35 09       		.uleb128 0x9
 14941 3c36 01       		.uleb128 0x1
 14942 3c37 50       		.byte	0x50
 14943 3c38 01       		.uleb128 0x1
 14944 3c39 31       		.byte	0x31
 14945 3c3a 00       		.byte	0
 14946 3c3b 08       		.uleb128 0x8
 14947 3c3c BE090000 		.4byte	.LVL661
 14948 3c40 A6020000 		.4byte	0x2a6
ARM GAS  C:\Users\Revanth\AppData\Local\Temp\ccqs06ys.s 			page 305


 14949 3c44 4E3C0000 		.4byte	0x3c4e
 14950 3c48 09       		.uleb128 0x9
 14951 3c49 01       		.uleb128 0x1
 14952 3c4a 50       		.byte	0x50
 14953 3c4b 01       		.uleb128 0x1
 14954 3c4c 31       		.byte	0x31
 14955 3c4d 00       		.byte	0
 14956 3c4e 08       		.uleb128 0x8
 14957 3c4f C6090000 		.4byte	.LVL662
 14958 3c53 69020000 		.4byte	0x269
 14959 3c57 673C0000 		.4byte	0x3c67
 14960 3c5b 09       		.uleb128 0x9
 14961 3c5c 01       		.uleb128 0x1
 14962 3c5d 50       		.byte	0x50
 14963 3c5e 02       		.uleb128 0x2
 14964 3c5f 08       		.byte	0x8
 14965 3c60 20       		.byte	0x20
 14966 3c61 09       		.uleb128 0x9
 14967 3c62 01       		.uleb128 0x1
 14968 3c63 51       		.byte	0x51
 14969 3c64 01       		.uleb128 0x1
 14970 3c65 31       		.byte	0x31
 14971 3c66 00       		.byte	0
 14972 3c67 08       		.uleb128 0x8
 14973 3c68 CE090000 		.4byte	.LVL663
 14974 3c6c 69020000 		.4byte	0x269
 14975 3c70 803C0000 		.4byte	0x3c80
 14976 3c74 09       		.uleb128 0x9
 14977 3c75 01       		.uleb128 0x1
 14978 3c76 50       		.byte	0x50
 14979 3c77 02       		.uleb128 0x2
 14980 3c78 08       		.byte	0x8
 14981 3c79 24       		.byte	0x24
 14982 3c7a 09       		.uleb128 0x9
 14983 3c7b 01       		.uleb128 0x1
 14984 3c7c 51       		.byte	0x51
 14985 3c7d 01       		.uleb128 0x1
 14986 3c7e 31       		.byte	0x31
 14987 3c7f 00       		.byte	0
 14988 3c80 08       		.uleb128 0x8
 14989 3c81 D6090000 		.4byte	.LVL664
 14990 3c85 69020000 		.4byte	0x269
 14991 3c89 993C0000 		.4byte	0x3c99
 14992 3c8d 09       		.uleb128 0x9
 14993 3c8e 01       		.uleb128 0x1
 14994 3c8f 50       		.byte	0x50
 14995 3c90 02       		.uleb128 0x2
 14996 3c91 08       		.byte	0x8
 14997 3c92 28       		.byte	0x28
 14998 3c93 09       		.uleb128 0x9
 14999 3c94 01       		.uleb128 0x1
 15000 3c95 51       		.byte	0x51
 15001 3c96 01       		.uleb128 0x1
 15002 3c97 31       		.byte	0x31
 15003 3c98 00       		.byte	0
 15004 3c99 08       		.uleb128 0x8
 15005 3c9a DE090000 		.4byte	.LVL665
ARM GAS  C:\Users\Revanth\AppData\Local\Temp\ccqs06ys.s 			page 306


 15006 3c9e 69020000 		.4byte	0x269
 15007 3ca2 B23C0000 		.4byte	0x3cb2
 15008 3ca6 09       		.uleb128 0x9
 15009 3ca7 01       		.uleb128 0x1
 15010 3ca8 50       		.byte	0x50
 15011 3ca9 02       		.uleb128 0x2
 15012 3caa 08       		.byte	0x8
 15013 3cab 2C       		.byte	0x2c
 15014 3cac 09       		.uleb128 0x9
 15015 3cad 01       		.uleb128 0x1
 15016 3cae 51       		.byte	0x51
 15017 3caf 01       		.uleb128 0x1
 15018 3cb0 31       		.byte	0x31
 15019 3cb1 00       		.byte	0
 15020 3cb2 08       		.uleb128 0x8
 15021 3cb3 E6090000 		.4byte	.LVL666
 15022 3cb7 69020000 		.4byte	0x269
 15023 3cbb CB3C0000 		.4byte	0x3ccb
 15024 3cbf 09       		.uleb128 0x9
 15025 3cc0 01       		.uleb128 0x1
 15026 3cc1 50       		.byte	0x50
 15027 3cc2 02       		.uleb128 0x2
 15028 3cc3 08       		.byte	0x8
 15029 3cc4 30       		.byte	0x30
 15030 3cc5 09       		.uleb128 0x9
 15031 3cc6 01       		.uleb128 0x1
 15032 3cc7 51       		.byte	0x51
 15033 3cc8 01       		.uleb128 0x1
 15034 3cc9 31       		.byte	0x31
 15035 3cca 00       		.byte	0
 15036 3ccb 08       		.uleb128 0x8
 15037 3ccc EE090000 		.4byte	.LVL667
 15038 3cd0 69020000 		.4byte	0x269
 15039 3cd4 E43C0000 		.4byte	0x3ce4
 15040 3cd8 09       		.uleb128 0x9
 15041 3cd9 01       		.uleb128 0x1
 15042 3cda 50       		.byte	0x50
 15043 3cdb 02       		.uleb128 0x2
 15044 3cdc 08       		.byte	0x8
 15045 3cdd 34       		.byte	0x34
 15046 3cde 09       		.uleb128 0x9
 15047 3cdf 01       		.uleb128 0x1
 15048 3ce0 51       		.byte	0x51
 15049 3ce1 01       		.uleb128 0x1
 15050 3ce2 31       		.byte	0x31
 15051 3ce3 00       		.byte	0
 15052 3ce4 08       		.uleb128 0x8
 15053 3ce5 F6090000 		.4byte	.LVL668
 15054 3ce9 69020000 		.4byte	0x269
 15055 3ced FD3C0000 		.4byte	0x3cfd
 15056 3cf1 09       		.uleb128 0x9
 15057 3cf2 01       		.uleb128 0x1
 15058 3cf3 50       		.byte	0x50
 15059 3cf4 02       		.uleb128 0x2
 15060 3cf5 08       		.byte	0x8
 15061 3cf6 38       		.byte	0x38
 15062 3cf7 09       		.uleb128 0x9
ARM GAS  C:\Users\Revanth\AppData\Local\Temp\ccqs06ys.s 			page 307


 15063 3cf8 01       		.uleb128 0x1
 15064 3cf9 51       		.byte	0x51
 15065 3cfa 01       		.uleb128 0x1
 15066 3cfb 30       		.byte	0x30
 15067 3cfc 00       		.byte	0
 15068 3cfd 08       		.uleb128 0x8
 15069 3cfe FE090000 		.4byte	.LVL669
 15070 3d02 69020000 		.4byte	0x269
 15071 3d06 163D0000 		.4byte	0x3d16
 15072 3d0a 09       		.uleb128 0x9
 15073 3d0b 01       		.uleb128 0x1
 15074 3d0c 50       		.byte	0x50
 15075 3d0d 02       		.uleb128 0x2
 15076 3d0e 08       		.byte	0x8
 15077 3d0f 3C       		.byte	0x3c
 15078 3d10 09       		.uleb128 0x9
 15079 3d11 01       		.uleb128 0x1
 15080 3d12 51       		.byte	0x51
 15081 3d13 01       		.uleb128 0x1
 15082 3d14 30       		.byte	0x30
 15083 3d15 00       		.byte	0
 15084 3d16 08       		.uleb128 0x8
 15085 3d17 060A0000 		.4byte	.LVL670
 15086 3d1b 69020000 		.4byte	0x269
 15087 3d1f 2F3D0000 		.4byte	0x3d2f
 15088 3d23 09       		.uleb128 0x9
 15089 3d24 01       		.uleb128 0x1
 15090 3d25 50       		.byte	0x50
 15091 3d26 02       		.uleb128 0x2
 15092 3d27 08       		.byte	0x8
 15093 3d28 40       		.byte	0x40
 15094 3d29 09       		.uleb128 0x9
 15095 3d2a 01       		.uleb128 0x1
 15096 3d2b 51       		.byte	0x51
 15097 3d2c 01       		.uleb128 0x1
 15098 3d2d 31       		.byte	0x31
 15099 3d2e 00       		.byte	0
 15100 3d2f 08       		.uleb128 0x8
 15101 3d30 0E0A0000 		.4byte	.LVL671
 15102 3d34 69020000 		.4byte	0x269
 15103 3d38 483D0000 		.4byte	0x3d48
 15104 3d3c 09       		.uleb128 0x9
 15105 3d3d 01       		.uleb128 0x1
 15106 3d3e 50       		.byte	0x50
 15107 3d3f 02       		.uleb128 0x2
 15108 3d40 08       		.byte	0x8
 15109 3d41 44       		.byte	0x44
 15110 3d42 09       		.uleb128 0x9
 15111 3d43 01       		.uleb128 0x1
 15112 3d44 51       		.byte	0x51
 15113 3d45 01       		.uleb128 0x1
 15114 3d46 30       		.byte	0x30
 15115 3d47 00       		.byte	0
 15116 3d48 08       		.uleb128 0x8
 15117 3d49 160A0000 		.4byte	.LVL672
 15118 3d4d 69020000 		.4byte	0x269
 15119 3d51 613D0000 		.4byte	0x3d61
ARM GAS  C:\Users\Revanth\AppData\Local\Temp\ccqs06ys.s 			page 308


 15120 3d55 09       		.uleb128 0x9
 15121 3d56 01       		.uleb128 0x1
 15122 3d57 50       		.byte	0x50
 15123 3d58 02       		.uleb128 0x2
 15124 3d59 08       		.byte	0x8
 15125 3d5a 48       		.byte	0x48
 15126 3d5b 09       		.uleb128 0x9
 15127 3d5c 01       		.uleb128 0x1
 15128 3d5d 51       		.byte	0x51
 15129 3d5e 01       		.uleb128 0x1
 15130 3d5f 30       		.byte	0x30
 15131 3d60 00       		.byte	0
 15132 3d61 08       		.uleb128 0x8
 15133 3d62 1E0A0000 		.4byte	.LVL673
 15134 3d66 69020000 		.4byte	0x269
 15135 3d6a 7A3D0000 		.4byte	0x3d7a
 15136 3d6e 09       		.uleb128 0x9
 15137 3d6f 01       		.uleb128 0x1
 15138 3d70 50       		.byte	0x50
 15139 3d71 02       		.uleb128 0x2
 15140 3d72 08       		.byte	0x8
 15141 3d73 4C       		.byte	0x4c
 15142 3d74 09       		.uleb128 0x9
 15143 3d75 01       		.uleb128 0x1
 15144 3d76 51       		.byte	0x51
 15145 3d77 01       		.uleb128 0x1
 15146 3d78 30       		.byte	0x30
 15147 3d79 00       		.byte	0
 15148 3d7a 08       		.uleb128 0x8
 15149 3d7b 260A0000 		.4byte	.LVL674
 15150 3d7f 69020000 		.4byte	0x269
 15151 3d83 933D0000 		.4byte	0x3d93
 15152 3d87 09       		.uleb128 0x9
 15153 3d88 01       		.uleb128 0x1
 15154 3d89 50       		.byte	0x50
 15155 3d8a 02       		.uleb128 0x2
 15156 3d8b 08       		.byte	0x8
 15157 3d8c 50       		.byte	0x50
 15158 3d8d 09       		.uleb128 0x9
 15159 3d8e 01       		.uleb128 0x1
 15160 3d8f 51       		.byte	0x51
 15161 3d90 01       		.uleb128 0x1
 15162 3d91 31       		.byte	0x31
 15163 3d92 00       		.byte	0
 15164 3d93 08       		.uleb128 0x8
 15165 3d94 2E0A0000 		.4byte	.LVL675
 15166 3d98 69020000 		.4byte	0x269
 15167 3d9c AC3D0000 		.4byte	0x3dac
 15168 3da0 09       		.uleb128 0x9
 15169 3da1 01       		.uleb128 0x1
 15170 3da2 50       		.byte	0x50
 15171 3da3 02       		.uleb128 0x2
 15172 3da4 08       		.byte	0x8
 15173 3da5 54       		.byte	0x54
 15174 3da6 09       		.uleb128 0x9
 15175 3da7 01       		.uleb128 0x1
 15176 3da8 51       		.byte	0x51
ARM GAS  C:\Users\Revanth\AppData\Local\Temp\ccqs06ys.s 			page 309


 15177 3da9 01       		.uleb128 0x1
 15178 3daa 30       		.byte	0x30
 15179 3dab 00       		.byte	0
 15180 3dac 08       		.uleb128 0x8
 15181 3dad 360A0000 		.4byte	.LVL676
 15182 3db1 69020000 		.4byte	0x269
 15183 3db5 C53D0000 		.4byte	0x3dc5
 15184 3db9 09       		.uleb128 0x9
 15185 3dba 01       		.uleb128 0x1
 15186 3dbb 50       		.byte	0x50
 15187 3dbc 02       		.uleb128 0x2
 15188 3dbd 08       		.byte	0x8
 15189 3dbe 58       		.byte	0x58
 15190 3dbf 09       		.uleb128 0x9
 15191 3dc0 01       		.uleb128 0x1
 15192 3dc1 51       		.byte	0x51
 15193 3dc2 01       		.uleb128 0x1
 15194 3dc3 30       		.byte	0x30
 15195 3dc4 00       		.byte	0
 15196 3dc5 08       		.uleb128 0x8
 15197 3dc6 3E0A0000 		.4byte	.LVL677
 15198 3dca 69020000 		.4byte	0x269
 15199 3dce DE3D0000 		.4byte	0x3dde
 15200 3dd2 09       		.uleb128 0x9
 15201 3dd3 01       		.uleb128 0x1
 15202 3dd4 50       		.byte	0x50
 15203 3dd5 02       		.uleb128 0x2
 15204 3dd6 08       		.byte	0x8
 15205 3dd7 5C       		.byte	0x5c
 15206 3dd8 09       		.uleb128 0x9
 15207 3dd9 01       		.uleb128 0x1
 15208 3dda 51       		.byte	0x51
 15209 3ddb 01       		.uleb128 0x1
 15210 3ddc 31       		.byte	0x31
 15211 3ddd 00       		.byte	0
 15212 3dde 08       		.uleb128 0x8
 15213 3ddf 460A0000 		.4byte	.LVL678
 15214 3de3 69020000 		.4byte	0x269
 15215 3de7 F73D0000 		.4byte	0x3df7
 15216 3deb 09       		.uleb128 0x9
 15217 3dec 01       		.uleb128 0x1
 15218 3ded 50       		.byte	0x50
 15219 3dee 02       		.uleb128 0x2
 15220 3def 08       		.byte	0x8
 15221 3df0 60       		.byte	0x60
 15222 3df1 09       		.uleb128 0x9
 15223 3df2 01       		.uleb128 0x1
 15224 3df3 51       		.byte	0x51
 15225 3df4 01       		.uleb128 0x1
 15226 3df5 31       		.byte	0x31
 15227 3df6 00       		.byte	0
 15228 3df7 08       		.uleb128 0x8
 15229 3df8 4E0A0000 		.4byte	.LVL679
 15230 3dfc 69020000 		.4byte	0x269
 15231 3e00 103E0000 		.4byte	0x3e10
 15232 3e04 09       		.uleb128 0x9
 15233 3e05 01       		.uleb128 0x1
ARM GAS  C:\Users\Revanth\AppData\Local\Temp\ccqs06ys.s 			page 310


 15234 3e06 50       		.byte	0x50
 15235 3e07 02       		.uleb128 0x2
 15236 3e08 08       		.byte	0x8
 15237 3e09 64       		.byte	0x64
 15238 3e0a 09       		.uleb128 0x9
 15239 3e0b 01       		.uleb128 0x1
 15240 3e0c 51       		.byte	0x51
 15241 3e0d 01       		.uleb128 0x1
 15242 3e0e 31       		.byte	0x31
 15243 3e0f 00       		.byte	0
 15244 3e10 08       		.uleb128 0x8
 15245 3e11 560A0000 		.4byte	.LVL680
 15246 3e15 69020000 		.4byte	0x269
 15247 3e19 293E0000 		.4byte	0x3e29
 15248 3e1d 09       		.uleb128 0x9
 15249 3e1e 01       		.uleb128 0x1
 15250 3e1f 50       		.byte	0x50
 15251 3e20 02       		.uleb128 0x2
 15252 3e21 08       		.byte	0x8
 15253 3e22 68       		.byte	0x68
 15254 3e23 09       		.uleb128 0x9
 15255 3e24 01       		.uleb128 0x1
 15256 3e25 51       		.byte	0x51
 15257 3e26 01       		.uleb128 0x1
 15258 3e27 31       		.byte	0x31
 15259 3e28 00       		.byte	0
 15260 3e29 08       		.uleb128 0x8
 15261 3e2a 5E0A0000 		.4byte	.LVL681
 15262 3e2e 69020000 		.4byte	0x269
 15263 3e32 423E0000 		.4byte	0x3e42
 15264 3e36 09       		.uleb128 0x9
 15265 3e37 01       		.uleb128 0x1
 15266 3e38 50       		.byte	0x50
 15267 3e39 02       		.uleb128 0x2
 15268 3e3a 08       		.byte	0x8
 15269 3e3b 6C       		.byte	0x6c
 15270 3e3c 09       		.uleb128 0x9
 15271 3e3d 01       		.uleb128 0x1
 15272 3e3e 51       		.byte	0x51
 15273 3e3f 01       		.uleb128 0x1
 15274 3e40 30       		.byte	0x30
 15275 3e41 00       		.byte	0
 15276 3e42 08       		.uleb128 0x8
 15277 3e43 660A0000 		.4byte	.LVL682
 15278 3e47 69020000 		.4byte	0x269
 15279 3e4b 5B3E0000 		.4byte	0x3e5b
 15280 3e4f 09       		.uleb128 0x9
 15281 3e50 01       		.uleb128 0x1
 15282 3e51 50       		.byte	0x50
 15283 3e52 02       		.uleb128 0x2
 15284 3e53 08       		.byte	0x8
 15285 3e54 70       		.byte	0x70
 15286 3e55 09       		.uleb128 0x9
 15287 3e56 01       		.uleb128 0x1
 15288 3e57 51       		.byte	0x51
 15289 3e58 01       		.uleb128 0x1
 15290 3e59 30       		.byte	0x30
ARM GAS  C:\Users\Revanth\AppData\Local\Temp\ccqs06ys.s 			page 311


 15291 3e5a 00       		.byte	0
 15292 3e5b 08       		.uleb128 0x8
 15293 3e5c 6E0A0000 		.4byte	.LVL683
 15294 3e60 69020000 		.4byte	0x269
 15295 3e64 743E0000 		.4byte	0x3e74
 15296 3e68 09       		.uleb128 0x9
 15297 3e69 01       		.uleb128 0x1
 15298 3e6a 50       		.byte	0x50
 15299 3e6b 02       		.uleb128 0x2
 15300 3e6c 08       		.byte	0x8
 15301 3e6d 74       		.byte	0x74
 15302 3e6e 09       		.uleb128 0x9
 15303 3e6f 01       		.uleb128 0x1
 15304 3e70 51       		.byte	0x51
 15305 3e71 01       		.uleb128 0x1
 15306 3e72 30       		.byte	0x30
 15307 3e73 00       		.byte	0
 15308 3e74 08       		.uleb128 0x8
 15309 3e75 760A0000 		.4byte	.LVL684
 15310 3e79 69020000 		.4byte	0x269
 15311 3e7d 8D3E0000 		.4byte	0x3e8d
 15312 3e81 09       		.uleb128 0x9
 15313 3e82 01       		.uleb128 0x1
 15314 3e83 50       		.byte	0x50
 15315 3e84 02       		.uleb128 0x2
 15316 3e85 08       		.byte	0x8
 15317 3e86 78       		.byte	0x78
 15318 3e87 09       		.uleb128 0x9
 15319 3e88 01       		.uleb128 0x1
 15320 3e89 51       		.byte	0x51
 15321 3e8a 01       		.uleb128 0x1
 15322 3e8b 30       		.byte	0x30
 15323 3e8c 00       		.byte	0
 15324 3e8d 08       		.uleb128 0x8
 15325 3e8e 7E0A0000 		.4byte	.LVL685
 15326 3e92 69020000 		.4byte	0x269
 15327 3e96 A63E0000 		.4byte	0x3ea6
 15328 3e9a 09       		.uleb128 0x9
 15329 3e9b 01       		.uleb128 0x1
 15330 3e9c 50       		.byte	0x50
 15331 3e9d 02       		.uleb128 0x2
 15332 3e9e 08       		.byte	0x8
 15333 3e9f 7C       		.byte	0x7c
 15334 3ea0 09       		.uleb128 0x9
 15335 3ea1 01       		.uleb128 0x1
 15336 3ea2 51       		.byte	0x51
 15337 3ea3 01       		.uleb128 0x1
 15338 3ea4 30       		.byte	0x30
 15339 3ea5 00       		.byte	0
 15340 3ea6 08       		.uleb128 0x8
 15341 3ea7 860A0000 		.4byte	.LVL686
 15342 3eab 69020000 		.4byte	0x269
 15343 3eaf C03E0000 		.4byte	0x3ec0
 15344 3eb3 09       		.uleb128 0x9
 15345 3eb4 01       		.uleb128 0x1
 15346 3eb5 50       		.byte	0x50
 15347 3eb6 02       		.uleb128 0x2
ARM GAS  C:\Users\Revanth\AppData\Local\Temp\ccqs06ys.s 			page 312


 15348 3eb7 08       		.byte	0x8
 15349 3eb8 21       		.byte	0x21
 15350 3eb9 09       		.uleb128 0x9
 15351 3eba 01       		.uleb128 0x1
 15352 3ebb 51       		.byte	0x51
 15353 3ebc 02       		.uleb128 0x2
 15354 3ebd 75       		.byte	0x75
 15355 3ebe 00       		.sleb128 0
 15356 3ebf 00       		.byte	0
 15357 3ec0 08       		.uleb128 0x8
 15358 3ec1 8E0A0000 		.4byte	.LVL687
 15359 3ec5 69020000 		.4byte	0x269
 15360 3ec9 DA3E0000 		.4byte	0x3eda
 15361 3ecd 09       		.uleb128 0x9
 15362 3ece 01       		.uleb128 0x1
 15363 3ecf 50       		.byte	0x50
 15364 3ed0 02       		.uleb128 0x2
 15365 3ed1 08       		.byte	0x8
 15366 3ed2 25       		.byte	0x25
 15367 3ed3 09       		.uleb128 0x9
 15368 3ed4 01       		.uleb128 0x1
 15369 3ed5 51       		.byte	0x51
 15370 3ed6 02       		.uleb128 0x2
 15371 3ed7 75       		.byte	0x75
 15372 3ed8 00       		.sleb128 0
 15373 3ed9 00       		.byte	0
 15374 3eda 08       		.uleb128 0x8
 15375 3edb 960A0000 		.4byte	.LVL688
 15376 3edf 69020000 		.4byte	0x269
 15377 3ee3 F43E0000 		.4byte	0x3ef4
 15378 3ee7 09       		.uleb128 0x9
 15379 3ee8 01       		.uleb128 0x1
 15380 3ee9 50       		.byte	0x50
 15381 3eea 02       		.uleb128 0x2
 15382 3eeb 08       		.byte	0x8
 15383 3eec 29       		.byte	0x29
 15384 3eed 09       		.uleb128 0x9
 15385 3eee 01       		.uleb128 0x1
 15386 3eef 51       		.byte	0x51
 15387 3ef0 02       		.uleb128 0x2
 15388 3ef1 75       		.byte	0x75
 15389 3ef2 00       		.sleb128 0
 15390 3ef3 00       		.byte	0
 15391 3ef4 08       		.uleb128 0x8
 15392 3ef5 9E0A0000 		.4byte	.LVL689
 15393 3ef9 69020000 		.4byte	0x269
 15394 3efd 0E3F0000 		.4byte	0x3f0e
 15395 3f01 09       		.uleb128 0x9
 15396 3f02 01       		.uleb128 0x1
 15397 3f03 50       		.byte	0x50
 15398 3f04 02       		.uleb128 0x2
 15399 3f05 08       		.byte	0x8
 15400 3f06 2D       		.byte	0x2d
 15401 3f07 09       		.uleb128 0x9
 15402 3f08 01       		.uleb128 0x1
 15403 3f09 51       		.byte	0x51
 15404 3f0a 02       		.uleb128 0x2
ARM GAS  C:\Users\Revanth\AppData\Local\Temp\ccqs06ys.s 			page 313


 15405 3f0b 75       		.byte	0x75
 15406 3f0c 00       		.sleb128 0
 15407 3f0d 00       		.byte	0
 15408 3f0e 08       		.uleb128 0x8
 15409 3f0f A60A0000 		.4byte	.LVL690
 15410 3f13 69020000 		.4byte	0x269
 15411 3f17 283F0000 		.4byte	0x3f28
 15412 3f1b 09       		.uleb128 0x9
 15413 3f1c 01       		.uleb128 0x1
 15414 3f1d 50       		.byte	0x50
 15415 3f1e 02       		.uleb128 0x2
 15416 3f1f 08       		.byte	0x8
 15417 3f20 31       		.byte	0x31
 15418 3f21 09       		.uleb128 0x9
 15419 3f22 01       		.uleb128 0x1
 15420 3f23 51       		.byte	0x51
 15421 3f24 02       		.uleb128 0x2
 15422 3f25 75       		.byte	0x75
 15423 3f26 00       		.sleb128 0
 15424 3f27 00       		.byte	0
 15425 3f28 08       		.uleb128 0x8
 15426 3f29 AE0A0000 		.4byte	.LVL691
 15427 3f2d 69020000 		.4byte	0x269
 15428 3f31 423F0000 		.4byte	0x3f42
 15429 3f35 09       		.uleb128 0x9
 15430 3f36 01       		.uleb128 0x1
 15431 3f37 50       		.byte	0x50
 15432 3f38 02       		.uleb128 0x2
 15433 3f39 08       		.byte	0x8
 15434 3f3a 35       		.byte	0x35
 15435 3f3b 09       		.uleb128 0x9
 15436 3f3c 01       		.uleb128 0x1
 15437 3f3d 51       		.byte	0x51
 15438 3f3e 02       		.uleb128 0x2
 15439 3f3f 75       		.byte	0x75
 15440 3f40 00       		.sleb128 0
 15441 3f41 00       		.byte	0
 15442 3f42 08       		.uleb128 0x8
 15443 3f43 B60A0000 		.4byte	.LVL692
 15444 3f47 69020000 		.4byte	0x269
 15445 3f4b 5B3F0000 		.4byte	0x3f5b
 15446 3f4f 09       		.uleb128 0x9
 15447 3f50 01       		.uleb128 0x1
 15448 3f51 50       		.byte	0x50
 15449 3f52 02       		.uleb128 0x2
 15450 3f53 08       		.byte	0x8
 15451 3f54 39       		.byte	0x39
 15452 3f55 09       		.uleb128 0x9
 15453 3f56 01       		.uleb128 0x1
 15454 3f57 51       		.byte	0x51
 15455 3f58 01       		.uleb128 0x1
 15456 3f59 30       		.byte	0x30
 15457 3f5a 00       		.byte	0
 15458 3f5b 08       		.uleb128 0x8
 15459 3f5c BE0A0000 		.4byte	.LVL693
 15460 3f60 69020000 		.4byte	0x269
 15461 3f64 743F0000 		.4byte	0x3f74
ARM GAS  C:\Users\Revanth\AppData\Local\Temp\ccqs06ys.s 			page 314


 15462 3f68 09       		.uleb128 0x9
 15463 3f69 01       		.uleb128 0x1
 15464 3f6a 50       		.byte	0x50
 15465 3f6b 02       		.uleb128 0x2
 15466 3f6c 08       		.byte	0x8
 15467 3f6d 3D       		.byte	0x3d
 15468 3f6e 09       		.uleb128 0x9
 15469 3f6f 01       		.uleb128 0x1
 15470 3f70 51       		.byte	0x51
 15471 3f71 01       		.uleb128 0x1
 15472 3f72 30       		.byte	0x30
 15473 3f73 00       		.byte	0
 15474 3f74 08       		.uleb128 0x8
 15475 3f75 C60A0000 		.4byte	.LVL694
 15476 3f79 69020000 		.4byte	0x269
 15477 3f7d 8E3F0000 		.4byte	0x3f8e
 15478 3f81 09       		.uleb128 0x9
 15479 3f82 01       		.uleb128 0x1
 15480 3f83 50       		.byte	0x50
 15481 3f84 02       		.uleb128 0x2
 15482 3f85 08       		.byte	0x8
 15483 3f86 41       		.byte	0x41
 15484 3f87 09       		.uleb128 0x9
 15485 3f88 01       		.uleb128 0x1
 15486 3f89 51       		.byte	0x51
 15487 3f8a 02       		.uleb128 0x2
 15488 3f8b 75       		.byte	0x75
 15489 3f8c 00       		.sleb128 0
 15490 3f8d 00       		.byte	0
 15491 3f8e 08       		.uleb128 0x8
 15492 3f8f CE0A0000 		.4byte	.LVL695
 15493 3f93 69020000 		.4byte	0x269
 15494 3f97 A73F0000 		.4byte	0x3fa7
 15495 3f9b 09       		.uleb128 0x9
 15496 3f9c 01       		.uleb128 0x1
 15497 3f9d 50       		.byte	0x50
 15498 3f9e 02       		.uleb128 0x2
 15499 3f9f 08       		.byte	0x8
 15500 3fa0 45       		.byte	0x45
 15501 3fa1 09       		.uleb128 0x9
 15502 3fa2 01       		.uleb128 0x1
 15503 3fa3 51       		.byte	0x51
 15504 3fa4 01       		.uleb128 0x1
 15505 3fa5 30       		.byte	0x30
 15506 3fa6 00       		.byte	0
 15507 3fa7 08       		.uleb128 0x8
 15508 3fa8 D60A0000 		.4byte	.LVL696
 15509 3fac 69020000 		.4byte	0x269
 15510 3fb0 C03F0000 		.4byte	0x3fc0
 15511 3fb4 09       		.uleb128 0x9
 15512 3fb5 01       		.uleb128 0x1
 15513 3fb6 50       		.byte	0x50
 15514 3fb7 02       		.uleb128 0x2
 15515 3fb8 08       		.byte	0x8
 15516 3fb9 49       		.byte	0x49
 15517 3fba 09       		.uleb128 0x9
 15518 3fbb 01       		.uleb128 0x1
ARM GAS  C:\Users\Revanth\AppData\Local\Temp\ccqs06ys.s 			page 315


 15519 3fbc 51       		.byte	0x51
 15520 3fbd 01       		.uleb128 0x1
 15521 3fbe 30       		.byte	0x30
 15522 3fbf 00       		.byte	0
 15523 3fc0 08       		.uleb128 0x8
 15524 3fc1 DE0A0000 		.4byte	.LVL697
 15525 3fc5 69020000 		.4byte	0x269
 15526 3fc9 D93F0000 		.4byte	0x3fd9
 15527 3fcd 09       		.uleb128 0x9
 15528 3fce 01       		.uleb128 0x1
 15529 3fcf 50       		.byte	0x50
 15530 3fd0 02       		.uleb128 0x2
 15531 3fd1 08       		.byte	0x8
 15532 3fd2 4D       		.byte	0x4d
 15533 3fd3 09       		.uleb128 0x9
 15534 3fd4 01       		.uleb128 0x1
 15535 3fd5 51       		.byte	0x51
 15536 3fd6 01       		.uleb128 0x1
 15537 3fd7 30       		.byte	0x30
 15538 3fd8 00       		.byte	0
 15539 3fd9 08       		.uleb128 0x8
 15540 3fda E60A0000 		.4byte	.LVL698
 15541 3fde 69020000 		.4byte	0x269
 15542 3fe2 F33F0000 		.4byte	0x3ff3
 15543 3fe6 09       		.uleb128 0x9
 15544 3fe7 01       		.uleb128 0x1
 15545 3fe8 50       		.byte	0x50
 15546 3fe9 02       		.uleb128 0x2
 15547 3fea 08       		.byte	0x8
 15548 3feb 51       		.byte	0x51
 15549 3fec 09       		.uleb128 0x9
 15550 3fed 01       		.uleb128 0x1
 15551 3fee 51       		.byte	0x51
 15552 3fef 02       		.uleb128 0x2
 15553 3ff0 75       		.byte	0x75
 15554 3ff1 00       		.sleb128 0
 15555 3ff2 00       		.byte	0
 15556 3ff3 08       		.uleb128 0x8
 15557 3ff4 EE0A0000 		.4byte	.LVL699
 15558 3ff8 69020000 		.4byte	0x269
 15559 3ffc 0C400000 		.4byte	0x400c
 15560 4000 09       		.uleb128 0x9
 15561 4001 01       		.uleb128 0x1
 15562 4002 50       		.byte	0x50
 15563 4003 02       		.uleb128 0x2
 15564 4004 08       		.byte	0x8
 15565 4005 55       		.byte	0x55
 15566 4006 09       		.uleb128 0x9
 15567 4007 01       		.uleb128 0x1
 15568 4008 51       		.byte	0x51
 15569 4009 01       		.uleb128 0x1
 15570 400a 30       		.byte	0x30
 15571 400b 00       		.byte	0
 15572 400c 08       		.uleb128 0x8
 15573 400d F60A0000 		.4byte	.LVL700
 15574 4011 69020000 		.4byte	0x269
 15575 4015 25400000 		.4byte	0x4025
ARM GAS  C:\Users\Revanth\AppData\Local\Temp\ccqs06ys.s 			page 316


 15576 4019 09       		.uleb128 0x9
 15577 401a 01       		.uleb128 0x1
 15578 401b 50       		.byte	0x50
 15579 401c 02       		.uleb128 0x2
 15580 401d 08       		.byte	0x8
 15581 401e 59       		.byte	0x59
 15582 401f 09       		.uleb128 0x9
 15583 4020 01       		.uleb128 0x1
 15584 4021 51       		.byte	0x51
 15585 4022 01       		.uleb128 0x1
 15586 4023 30       		.byte	0x30
 15587 4024 00       		.byte	0
 15588 4025 08       		.uleb128 0x8
 15589 4026 FE0A0000 		.4byte	.LVL701
 15590 402a 69020000 		.4byte	0x269
 15591 402e 3F400000 		.4byte	0x403f
 15592 4032 09       		.uleb128 0x9
 15593 4033 01       		.uleb128 0x1
 15594 4034 50       		.byte	0x50
 15595 4035 02       		.uleb128 0x2
 15596 4036 08       		.byte	0x8
 15597 4037 5D       		.byte	0x5d
 15598 4038 09       		.uleb128 0x9
 15599 4039 01       		.uleb128 0x1
 15600 403a 51       		.byte	0x51
 15601 403b 02       		.uleb128 0x2
 15602 403c 75       		.byte	0x75
 15603 403d 00       		.sleb128 0
 15604 403e 00       		.byte	0
 15605 403f 08       		.uleb128 0x8
 15606 4040 060B0000 		.4byte	.LVL702
 15607 4044 69020000 		.4byte	0x269
 15608 4048 59400000 		.4byte	0x4059
 15609 404c 09       		.uleb128 0x9
 15610 404d 01       		.uleb128 0x1
 15611 404e 50       		.byte	0x50
 15612 404f 02       		.uleb128 0x2
 15613 4050 08       		.byte	0x8
 15614 4051 61       		.byte	0x61
 15615 4052 09       		.uleb128 0x9
 15616 4053 01       		.uleb128 0x1
 15617 4054 51       		.byte	0x51
 15618 4055 02       		.uleb128 0x2
 15619 4056 75       		.byte	0x75
 15620 4057 00       		.sleb128 0
 15621 4058 00       		.byte	0
 15622 4059 08       		.uleb128 0x8
 15623 405a 0E0B0000 		.4byte	.LVL703
 15624 405e 69020000 		.4byte	0x269
 15625 4062 73400000 		.4byte	0x4073
 15626 4066 09       		.uleb128 0x9
 15627 4067 01       		.uleb128 0x1
 15628 4068 50       		.byte	0x50
 15629 4069 02       		.uleb128 0x2
 15630 406a 08       		.byte	0x8
 15631 406b 65       		.byte	0x65
 15632 406c 09       		.uleb128 0x9
ARM GAS  C:\Users\Revanth\AppData\Local\Temp\ccqs06ys.s 			page 317


 15633 406d 01       		.uleb128 0x1
 15634 406e 51       		.byte	0x51
 15635 406f 02       		.uleb128 0x2
 15636 4070 75       		.byte	0x75
 15637 4071 00       		.sleb128 0
 15638 4072 00       		.byte	0
 15639 4073 08       		.uleb128 0x8
 15640 4074 160B0000 		.4byte	.LVL704
 15641 4078 69020000 		.4byte	0x269
 15642 407c 8D400000 		.4byte	0x408d
 15643 4080 09       		.uleb128 0x9
 15644 4081 01       		.uleb128 0x1
 15645 4082 50       		.byte	0x50
 15646 4083 02       		.uleb128 0x2
 15647 4084 08       		.byte	0x8
 15648 4085 69       		.byte	0x69
 15649 4086 09       		.uleb128 0x9
 15650 4087 01       		.uleb128 0x1
 15651 4088 51       		.byte	0x51
 15652 4089 02       		.uleb128 0x2
 15653 408a 75       		.byte	0x75
 15654 408b 00       		.sleb128 0
 15655 408c 00       		.byte	0
 15656 408d 08       		.uleb128 0x8
 15657 408e 1E0B0000 		.4byte	.LVL705
 15658 4092 69020000 		.4byte	0x269
 15659 4096 A6400000 		.4byte	0x40a6
 15660 409a 09       		.uleb128 0x9
 15661 409b 01       		.uleb128 0x1
 15662 409c 50       		.byte	0x50
 15663 409d 02       		.uleb128 0x2
 15664 409e 08       		.byte	0x8
 15665 409f 6D       		.byte	0x6d
 15666 40a0 09       		.uleb128 0x9
 15667 40a1 01       		.uleb128 0x1
 15668 40a2 51       		.byte	0x51
 15669 40a3 01       		.uleb128 0x1
 15670 40a4 30       		.byte	0x30
 15671 40a5 00       		.byte	0
 15672 40a6 08       		.uleb128 0x8
 15673 40a7 260B0000 		.4byte	.LVL706
 15674 40ab 69020000 		.4byte	0x269
 15675 40af BF400000 		.4byte	0x40bf
 15676 40b3 09       		.uleb128 0x9
 15677 40b4 01       		.uleb128 0x1
 15678 40b5 50       		.byte	0x50
 15679 40b6 02       		.uleb128 0x2
 15680 40b7 08       		.byte	0x8
 15681 40b8 71       		.byte	0x71
 15682 40b9 09       		.uleb128 0x9
 15683 40ba 01       		.uleb128 0x1
 15684 40bb 51       		.byte	0x51
 15685 40bc 01       		.uleb128 0x1
 15686 40bd 30       		.byte	0x30
 15687 40be 00       		.byte	0
 15688 40bf 08       		.uleb128 0x8
 15689 40c0 2E0B0000 		.4byte	.LVL707
ARM GAS  C:\Users\Revanth\AppData\Local\Temp\ccqs06ys.s 			page 318


 15690 40c4 69020000 		.4byte	0x269
 15691 40c8 D8400000 		.4byte	0x40d8
 15692 40cc 09       		.uleb128 0x9
 15693 40cd 01       		.uleb128 0x1
 15694 40ce 50       		.byte	0x50
 15695 40cf 02       		.uleb128 0x2
 15696 40d0 08       		.byte	0x8
 15697 40d1 75       		.byte	0x75
 15698 40d2 09       		.uleb128 0x9
 15699 40d3 01       		.uleb128 0x1
 15700 40d4 51       		.byte	0x51
 15701 40d5 01       		.uleb128 0x1
 15702 40d6 30       		.byte	0x30
 15703 40d7 00       		.byte	0
 15704 40d8 08       		.uleb128 0x8
 15705 40d9 360B0000 		.4byte	.LVL708
 15706 40dd 69020000 		.4byte	0x269
 15707 40e1 F1400000 		.4byte	0x40f1
 15708 40e5 09       		.uleb128 0x9
 15709 40e6 01       		.uleb128 0x1
 15710 40e7 50       		.byte	0x50
 15711 40e8 02       		.uleb128 0x2
 15712 40e9 08       		.byte	0x8
 15713 40ea 79       		.byte	0x79
 15714 40eb 09       		.uleb128 0x9
 15715 40ec 01       		.uleb128 0x1
 15716 40ed 51       		.byte	0x51
 15717 40ee 01       		.uleb128 0x1
 15718 40ef 30       		.byte	0x30
 15719 40f0 00       		.byte	0
 15720 40f1 08       		.uleb128 0x8
 15721 40f2 3E0B0000 		.4byte	.LVL709
 15722 40f6 69020000 		.4byte	0x269
 15723 40fa 0A410000 		.4byte	0x410a
 15724 40fe 09       		.uleb128 0x9
 15725 40ff 01       		.uleb128 0x1
 15726 4100 50       		.byte	0x50
 15727 4101 02       		.uleb128 0x2
 15728 4102 08       		.byte	0x8
 15729 4103 7D       		.byte	0x7d
 15730 4104 09       		.uleb128 0x9
 15731 4105 01       		.uleb128 0x1
 15732 4106 51       		.byte	0x51
 15733 4107 01       		.uleb128 0x1
 15734 4108 30       		.byte	0x30
 15735 4109 00       		.byte	0
 15736 410a 08       		.uleb128 0x8
 15737 410b 440B0000 		.4byte	.LVL710
 15738 410f B75F0000 		.4byte	0x5fb7
 15739 4113 1D410000 		.4byte	0x411d
 15740 4117 09       		.uleb128 0x9
 15741 4118 01       		.uleb128 0x1
 15742 4119 50       		.byte	0x50
 15743 411a 01       		.uleb128 0x1
 15744 411b 30       		.byte	0x30
 15745 411c 00       		.byte	0
 15746 411d 08       		.uleb128 0x8
ARM GAS  C:\Users\Revanth\AppData\Local\Temp\ccqs06ys.s 			page 319


 15747 411e 520B0000 		.4byte	.LVL711
 15748 4122 B75F0000 		.4byte	0x5fb7
 15749 4126 30410000 		.4byte	0x4130
 15750 412a 09       		.uleb128 0x9
 15751 412b 01       		.uleb128 0x1
 15752 412c 50       		.byte	0x50
 15753 412d 01       		.uleb128 0x1
 15754 412e 31       		.byte	0x31
 15755 412f 00       		.byte	0
 15756 4130 08       		.uleb128 0x8
 15757 4131 580B0000 		.4byte	.LVL712
 15758 4135 A6020000 		.4byte	0x2a6
 15759 4139 43410000 		.4byte	0x4143
 15760 413d 09       		.uleb128 0x9
 15761 413e 01       		.uleb128 0x1
 15762 413f 50       		.byte	0x50
 15763 4140 01       		.uleb128 0x1
 15764 4141 31       		.byte	0x31
 15765 4142 00       		.byte	0
 15766 4143 08       		.uleb128 0x8
 15767 4144 600B0000 		.4byte	.LVL713
 15768 4148 69020000 		.4byte	0x269
 15769 414c 5C410000 		.4byte	0x415c
 15770 4150 09       		.uleb128 0x9
 15771 4151 01       		.uleb128 0x1
 15772 4152 50       		.byte	0x50
 15773 4153 02       		.uleb128 0x2
 15774 4154 08       		.byte	0x8
 15775 4155 20       		.byte	0x20
 15776 4156 09       		.uleb128 0x9
 15777 4157 01       		.uleb128 0x1
 15778 4158 51       		.byte	0x51
 15779 4159 01       		.uleb128 0x1
 15780 415a 31       		.byte	0x31
 15781 415b 00       		.byte	0
 15782 415c 08       		.uleb128 0x8
 15783 415d 680B0000 		.4byte	.LVL714
 15784 4161 69020000 		.4byte	0x269
 15785 4165 75410000 		.4byte	0x4175
 15786 4169 09       		.uleb128 0x9
 15787 416a 01       		.uleb128 0x1
 15788 416b 50       		.byte	0x50
 15789 416c 02       		.uleb128 0x2
 15790 416d 08       		.byte	0x8
 15791 416e 24       		.byte	0x24
 15792 416f 09       		.uleb128 0x9
 15793 4170 01       		.uleb128 0x1
 15794 4171 51       		.byte	0x51
 15795 4172 01       		.uleb128 0x1
 15796 4173 31       		.byte	0x31
 15797 4174 00       		.byte	0
 15798 4175 08       		.uleb128 0x8
 15799 4176 700B0000 		.4byte	.LVL715
 15800 417a 69020000 		.4byte	0x269
 15801 417e 8E410000 		.4byte	0x418e
 15802 4182 09       		.uleb128 0x9
 15803 4183 01       		.uleb128 0x1
ARM GAS  C:\Users\Revanth\AppData\Local\Temp\ccqs06ys.s 			page 320


 15804 4184 50       		.byte	0x50
 15805 4185 02       		.uleb128 0x2
 15806 4186 08       		.byte	0x8
 15807 4187 28       		.byte	0x28
 15808 4188 09       		.uleb128 0x9
 15809 4189 01       		.uleb128 0x1
 15810 418a 51       		.byte	0x51
 15811 418b 01       		.uleb128 0x1
 15812 418c 31       		.byte	0x31
 15813 418d 00       		.byte	0
 15814 418e 08       		.uleb128 0x8
 15815 418f 780B0000 		.4byte	.LVL716
 15816 4193 69020000 		.4byte	0x269
 15817 4197 A7410000 		.4byte	0x41a7
 15818 419b 09       		.uleb128 0x9
 15819 419c 01       		.uleb128 0x1
 15820 419d 50       		.byte	0x50
 15821 419e 02       		.uleb128 0x2
 15822 419f 08       		.byte	0x8
 15823 41a0 2C       		.byte	0x2c
 15824 41a1 09       		.uleb128 0x9
 15825 41a2 01       		.uleb128 0x1
 15826 41a3 51       		.byte	0x51
 15827 41a4 01       		.uleb128 0x1
 15828 41a5 31       		.byte	0x31
 15829 41a6 00       		.byte	0
 15830 41a7 08       		.uleb128 0x8
 15831 41a8 800B0000 		.4byte	.LVL717
 15832 41ac 69020000 		.4byte	0x269
 15833 41b0 C0410000 		.4byte	0x41c0
 15834 41b4 09       		.uleb128 0x9
 15835 41b5 01       		.uleb128 0x1
 15836 41b6 50       		.byte	0x50
 15837 41b7 02       		.uleb128 0x2
 15838 41b8 08       		.byte	0x8
 15839 41b9 30       		.byte	0x30
 15840 41ba 09       		.uleb128 0x9
 15841 41bb 01       		.uleb128 0x1
 15842 41bc 51       		.byte	0x51
 15843 41bd 01       		.uleb128 0x1
 15844 41be 31       		.byte	0x31
 15845 41bf 00       		.byte	0
 15846 41c0 08       		.uleb128 0x8
 15847 41c1 880B0000 		.4byte	.LVL718
 15848 41c5 69020000 		.4byte	0x269
 15849 41c9 D9410000 		.4byte	0x41d9
 15850 41cd 09       		.uleb128 0x9
 15851 41ce 01       		.uleb128 0x1
 15852 41cf 50       		.byte	0x50
 15853 41d0 02       		.uleb128 0x2
 15854 41d1 08       		.byte	0x8
 15855 41d2 34       		.byte	0x34
 15856 41d3 09       		.uleb128 0x9
 15857 41d4 01       		.uleb128 0x1
 15858 41d5 51       		.byte	0x51
 15859 41d6 01       		.uleb128 0x1
 15860 41d7 31       		.byte	0x31
ARM GAS  C:\Users\Revanth\AppData\Local\Temp\ccqs06ys.s 			page 321


 15861 41d8 00       		.byte	0
 15862 41d9 08       		.uleb128 0x8
 15863 41da 900B0000 		.4byte	.LVL719
 15864 41de 69020000 		.4byte	0x269
 15865 41e2 F2410000 		.4byte	0x41f2
 15866 41e6 09       		.uleb128 0x9
 15867 41e7 01       		.uleb128 0x1
 15868 41e8 50       		.byte	0x50
 15869 41e9 02       		.uleb128 0x2
 15870 41ea 08       		.byte	0x8
 15871 41eb 38       		.byte	0x38
 15872 41ec 09       		.uleb128 0x9
 15873 41ed 01       		.uleb128 0x1
 15874 41ee 51       		.byte	0x51
 15875 41ef 01       		.uleb128 0x1
 15876 41f0 31       		.byte	0x31
 15877 41f1 00       		.byte	0
 15878 41f2 08       		.uleb128 0x8
 15879 41f3 980B0000 		.4byte	.LVL720
 15880 41f7 69020000 		.4byte	0x269
 15881 41fb 0B420000 		.4byte	0x420b
 15882 41ff 09       		.uleb128 0x9
 15883 4200 01       		.uleb128 0x1
 15884 4201 50       		.byte	0x50
 15885 4202 02       		.uleb128 0x2
 15886 4203 08       		.byte	0x8
 15887 4204 3C       		.byte	0x3c
 15888 4205 09       		.uleb128 0x9
 15889 4206 01       		.uleb128 0x1
 15890 4207 51       		.byte	0x51
 15891 4208 01       		.uleb128 0x1
 15892 4209 31       		.byte	0x31
 15893 420a 00       		.byte	0
 15894 420b 08       		.uleb128 0x8
 15895 420c A00B0000 		.4byte	.LVL721
 15896 4210 69020000 		.4byte	0x269
 15897 4214 24420000 		.4byte	0x4224
 15898 4218 09       		.uleb128 0x9
 15899 4219 01       		.uleb128 0x1
 15900 421a 50       		.byte	0x50
 15901 421b 02       		.uleb128 0x2
 15902 421c 08       		.byte	0x8
 15903 421d 40       		.byte	0x40
 15904 421e 09       		.uleb128 0x9
 15905 421f 01       		.uleb128 0x1
 15906 4220 51       		.byte	0x51
 15907 4221 01       		.uleb128 0x1
 15908 4222 31       		.byte	0x31
 15909 4223 00       		.byte	0
 15910 4224 08       		.uleb128 0x8
 15911 4225 A80B0000 		.4byte	.LVL722
 15912 4229 69020000 		.4byte	0x269
 15913 422d 3D420000 		.4byte	0x423d
 15914 4231 09       		.uleb128 0x9
 15915 4232 01       		.uleb128 0x1
 15916 4233 50       		.byte	0x50
 15917 4234 02       		.uleb128 0x2
ARM GAS  C:\Users\Revanth\AppData\Local\Temp\ccqs06ys.s 			page 322


 15918 4235 08       		.byte	0x8
 15919 4236 44       		.byte	0x44
 15920 4237 09       		.uleb128 0x9
 15921 4238 01       		.uleb128 0x1
 15922 4239 51       		.byte	0x51
 15923 423a 01       		.uleb128 0x1
 15924 423b 31       		.byte	0x31
 15925 423c 00       		.byte	0
 15926 423d 08       		.uleb128 0x8
 15927 423e B00B0000 		.4byte	.LVL723
 15928 4242 69020000 		.4byte	0x269
 15929 4246 56420000 		.4byte	0x4256
 15930 424a 09       		.uleb128 0x9
 15931 424b 01       		.uleb128 0x1
 15932 424c 50       		.byte	0x50
 15933 424d 02       		.uleb128 0x2
 15934 424e 08       		.byte	0x8
 15935 424f 48       		.byte	0x48
 15936 4250 09       		.uleb128 0x9
 15937 4251 01       		.uleb128 0x1
 15938 4252 51       		.byte	0x51
 15939 4253 01       		.uleb128 0x1
 15940 4254 31       		.byte	0x31
 15941 4255 00       		.byte	0
 15942 4256 08       		.uleb128 0x8
 15943 4257 B80B0000 		.4byte	.LVL724
 15944 425b 69020000 		.4byte	0x269
 15945 425f 6F420000 		.4byte	0x426f
 15946 4263 09       		.uleb128 0x9
 15947 4264 01       		.uleb128 0x1
 15948 4265 50       		.byte	0x50
 15949 4266 02       		.uleb128 0x2
 15950 4267 08       		.byte	0x8
 15951 4268 4C       		.byte	0x4c
 15952 4269 09       		.uleb128 0x9
 15953 426a 01       		.uleb128 0x1
 15954 426b 51       		.byte	0x51
 15955 426c 01       		.uleb128 0x1
 15956 426d 31       		.byte	0x31
 15957 426e 00       		.byte	0
 15958 426f 08       		.uleb128 0x8
 15959 4270 C00B0000 		.4byte	.LVL725
 15960 4274 69020000 		.4byte	0x269
 15961 4278 88420000 		.4byte	0x4288
 15962 427c 09       		.uleb128 0x9
 15963 427d 01       		.uleb128 0x1
 15964 427e 50       		.byte	0x50
 15965 427f 02       		.uleb128 0x2
 15966 4280 08       		.byte	0x8
 15967 4281 50       		.byte	0x50
 15968 4282 09       		.uleb128 0x9
 15969 4283 01       		.uleb128 0x1
 15970 4284 51       		.byte	0x51
 15971 4285 01       		.uleb128 0x1
 15972 4286 31       		.byte	0x31
 15973 4287 00       		.byte	0
 15974 4288 08       		.uleb128 0x8
ARM GAS  C:\Users\Revanth\AppData\Local\Temp\ccqs06ys.s 			page 323


 15975 4289 C80B0000 		.4byte	.LVL726
 15976 428d 69020000 		.4byte	0x269
 15977 4291 A1420000 		.4byte	0x42a1
 15978 4295 09       		.uleb128 0x9
 15979 4296 01       		.uleb128 0x1
 15980 4297 50       		.byte	0x50
 15981 4298 02       		.uleb128 0x2
 15982 4299 08       		.byte	0x8
 15983 429a 54       		.byte	0x54
 15984 429b 09       		.uleb128 0x9
 15985 429c 01       		.uleb128 0x1
 15986 429d 51       		.byte	0x51
 15987 429e 01       		.uleb128 0x1
 15988 429f 31       		.byte	0x31
 15989 42a0 00       		.byte	0
 15990 42a1 08       		.uleb128 0x8
 15991 42a2 D00B0000 		.4byte	.LVL727
 15992 42a6 69020000 		.4byte	0x269
 15993 42aa BA420000 		.4byte	0x42ba
 15994 42ae 09       		.uleb128 0x9
 15995 42af 01       		.uleb128 0x1
 15996 42b0 50       		.byte	0x50
 15997 42b1 02       		.uleb128 0x2
 15998 42b2 08       		.byte	0x8
 15999 42b3 58       		.byte	0x58
 16000 42b4 09       		.uleb128 0x9
 16001 42b5 01       		.uleb128 0x1
 16002 42b6 51       		.byte	0x51
 16003 42b7 01       		.uleb128 0x1
 16004 42b8 31       		.byte	0x31
 16005 42b9 00       		.byte	0
 16006 42ba 08       		.uleb128 0x8
 16007 42bb D80B0000 		.4byte	.LVL728
 16008 42bf 69020000 		.4byte	0x269
 16009 42c3 D3420000 		.4byte	0x42d3
 16010 42c7 09       		.uleb128 0x9
 16011 42c8 01       		.uleb128 0x1
 16012 42c9 50       		.byte	0x50
 16013 42ca 02       		.uleb128 0x2
 16014 42cb 08       		.byte	0x8
 16015 42cc 5C       		.byte	0x5c
 16016 42cd 09       		.uleb128 0x9
 16017 42ce 01       		.uleb128 0x1
 16018 42cf 51       		.byte	0x51
 16019 42d0 01       		.uleb128 0x1
 16020 42d1 31       		.byte	0x31
 16021 42d2 00       		.byte	0
 16022 42d3 08       		.uleb128 0x8
 16023 42d4 E00B0000 		.4byte	.LVL729
 16024 42d8 69020000 		.4byte	0x269
 16025 42dc EC420000 		.4byte	0x42ec
 16026 42e0 09       		.uleb128 0x9
 16027 42e1 01       		.uleb128 0x1
 16028 42e2 50       		.byte	0x50
 16029 42e3 02       		.uleb128 0x2
 16030 42e4 08       		.byte	0x8
 16031 42e5 60       		.byte	0x60
ARM GAS  C:\Users\Revanth\AppData\Local\Temp\ccqs06ys.s 			page 324


 16032 42e6 09       		.uleb128 0x9
 16033 42e7 01       		.uleb128 0x1
 16034 42e8 51       		.byte	0x51
 16035 42e9 01       		.uleb128 0x1
 16036 42ea 31       		.byte	0x31
 16037 42eb 00       		.byte	0
 16038 42ec 08       		.uleb128 0x8
 16039 42ed E80B0000 		.4byte	.LVL730
 16040 42f1 69020000 		.4byte	0x269
 16041 42f5 05430000 		.4byte	0x4305
 16042 42f9 09       		.uleb128 0x9
 16043 42fa 01       		.uleb128 0x1
 16044 42fb 50       		.byte	0x50
 16045 42fc 02       		.uleb128 0x2
 16046 42fd 08       		.byte	0x8
 16047 42fe 64       		.byte	0x64
 16048 42ff 09       		.uleb128 0x9
 16049 4300 01       		.uleb128 0x1
 16050 4301 51       		.byte	0x51
 16051 4302 01       		.uleb128 0x1
 16052 4303 31       		.byte	0x31
 16053 4304 00       		.byte	0
 16054 4305 08       		.uleb128 0x8
 16055 4306 F00B0000 		.4byte	.LVL731
 16056 430a 69020000 		.4byte	0x269
 16057 430e 1E430000 		.4byte	0x431e
 16058 4312 09       		.uleb128 0x9
 16059 4313 01       		.uleb128 0x1
 16060 4314 50       		.byte	0x50
 16061 4315 02       		.uleb128 0x2
 16062 4316 08       		.byte	0x8
 16063 4317 68       		.byte	0x68
 16064 4318 09       		.uleb128 0x9
 16065 4319 01       		.uleb128 0x1
 16066 431a 51       		.byte	0x51
 16067 431b 01       		.uleb128 0x1
 16068 431c 31       		.byte	0x31
 16069 431d 00       		.byte	0
 16070 431e 08       		.uleb128 0x8
 16071 431f F80B0000 		.4byte	.LVL732
 16072 4323 69020000 		.4byte	0x269
 16073 4327 37430000 		.4byte	0x4337
 16074 432b 09       		.uleb128 0x9
 16075 432c 01       		.uleb128 0x1
 16076 432d 50       		.byte	0x50
 16077 432e 02       		.uleb128 0x2
 16078 432f 08       		.byte	0x8
 16079 4330 6C       		.byte	0x6c
 16080 4331 09       		.uleb128 0x9
 16081 4332 01       		.uleb128 0x1
 16082 4333 51       		.byte	0x51
 16083 4334 01       		.uleb128 0x1
 16084 4335 31       		.byte	0x31
 16085 4336 00       		.byte	0
 16086 4337 08       		.uleb128 0x8
 16087 4338 000C0000 		.4byte	.LVL733
 16088 433c 69020000 		.4byte	0x269
ARM GAS  C:\Users\Revanth\AppData\Local\Temp\ccqs06ys.s 			page 325


 16089 4340 50430000 		.4byte	0x4350
 16090 4344 09       		.uleb128 0x9
 16091 4345 01       		.uleb128 0x1
 16092 4346 50       		.byte	0x50
 16093 4347 02       		.uleb128 0x2
 16094 4348 08       		.byte	0x8
 16095 4349 70       		.byte	0x70
 16096 434a 09       		.uleb128 0x9
 16097 434b 01       		.uleb128 0x1
 16098 434c 51       		.byte	0x51
 16099 434d 01       		.uleb128 0x1
 16100 434e 31       		.byte	0x31
 16101 434f 00       		.byte	0
 16102 4350 08       		.uleb128 0x8
 16103 4351 080C0000 		.4byte	.LVL734
 16104 4355 69020000 		.4byte	0x269
 16105 4359 69430000 		.4byte	0x4369
 16106 435d 09       		.uleb128 0x9
 16107 435e 01       		.uleb128 0x1
 16108 435f 50       		.byte	0x50
 16109 4360 02       		.uleb128 0x2
 16110 4361 08       		.byte	0x8
 16111 4362 74       		.byte	0x74
 16112 4363 09       		.uleb128 0x9
 16113 4364 01       		.uleb128 0x1
 16114 4365 51       		.byte	0x51
 16115 4366 01       		.uleb128 0x1
 16116 4367 31       		.byte	0x31
 16117 4368 00       		.byte	0
 16118 4369 08       		.uleb128 0x8
 16119 436a 100C0000 		.4byte	.LVL735
 16120 436e 69020000 		.4byte	0x269
 16121 4372 82430000 		.4byte	0x4382
 16122 4376 09       		.uleb128 0x9
 16123 4377 01       		.uleb128 0x1
 16124 4378 50       		.byte	0x50
 16125 4379 02       		.uleb128 0x2
 16126 437a 08       		.byte	0x8
 16127 437b 78       		.byte	0x78
 16128 437c 09       		.uleb128 0x9
 16129 437d 01       		.uleb128 0x1
 16130 437e 51       		.byte	0x51
 16131 437f 01       		.uleb128 0x1
 16132 4380 31       		.byte	0x31
 16133 4381 00       		.byte	0
 16134 4382 08       		.uleb128 0x8
 16135 4383 180C0000 		.4byte	.LVL736
 16136 4387 69020000 		.4byte	0x269
 16137 438b 9B430000 		.4byte	0x439b
 16138 438f 09       		.uleb128 0x9
 16139 4390 01       		.uleb128 0x1
 16140 4391 50       		.byte	0x50
 16141 4392 02       		.uleb128 0x2
 16142 4393 08       		.byte	0x8
 16143 4394 7C       		.byte	0x7c
 16144 4395 09       		.uleb128 0x9
 16145 4396 01       		.uleb128 0x1
ARM GAS  C:\Users\Revanth\AppData\Local\Temp\ccqs06ys.s 			page 326


 16146 4397 51       		.byte	0x51
 16147 4398 01       		.uleb128 0x1
 16148 4399 31       		.byte	0x31
 16149 439a 00       		.byte	0
 16150 439b 08       		.uleb128 0x8
 16151 439c 200C0000 		.4byte	.LVL737
 16152 43a0 69020000 		.4byte	0x269
 16153 43a4 B5430000 		.4byte	0x43b5
 16154 43a8 09       		.uleb128 0x9
 16155 43a9 01       		.uleb128 0x1
 16156 43aa 50       		.byte	0x50
 16157 43ab 02       		.uleb128 0x2
 16158 43ac 08       		.byte	0x8
 16159 43ad 21       		.byte	0x21
 16160 43ae 09       		.uleb128 0x9
 16161 43af 01       		.uleb128 0x1
 16162 43b0 51       		.byte	0x51
 16163 43b1 02       		.uleb128 0x2
 16164 43b2 75       		.byte	0x75
 16165 43b3 00       		.sleb128 0
 16166 43b4 00       		.byte	0
 16167 43b5 08       		.uleb128 0x8
 16168 43b6 280C0000 		.4byte	.LVL738
 16169 43ba 69020000 		.4byte	0x269
 16170 43be CF430000 		.4byte	0x43cf
 16171 43c2 09       		.uleb128 0x9
 16172 43c3 01       		.uleb128 0x1
 16173 43c4 50       		.byte	0x50
 16174 43c5 02       		.uleb128 0x2
 16175 43c6 08       		.byte	0x8
 16176 43c7 25       		.byte	0x25
 16177 43c8 09       		.uleb128 0x9
 16178 43c9 01       		.uleb128 0x1
 16179 43ca 51       		.byte	0x51
 16180 43cb 02       		.uleb128 0x2
 16181 43cc 75       		.byte	0x75
 16182 43cd 00       		.sleb128 0
 16183 43ce 00       		.byte	0
 16184 43cf 08       		.uleb128 0x8
 16185 43d0 300C0000 		.4byte	.LVL739
 16186 43d4 69020000 		.4byte	0x269
 16187 43d8 E9430000 		.4byte	0x43e9
 16188 43dc 09       		.uleb128 0x9
 16189 43dd 01       		.uleb128 0x1
 16190 43de 50       		.byte	0x50
 16191 43df 02       		.uleb128 0x2
 16192 43e0 08       		.byte	0x8
 16193 43e1 29       		.byte	0x29
 16194 43e2 09       		.uleb128 0x9
 16195 43e3 01       		.uleb128 0x1
 16196 43e4 51       		.byte	0x51
 16197 43e5 02       		.uleb128 0x2
 16198 43e6 75       		.byte	0x75
 16199 43e7 00       		.sleb128 0
 16200 43e8 00       		.byte	0
 16201 43e9 08       		.uleb128 0x8
 16202 43ea 380C0000 		.4byte	.LVL740
ARM GAS  C:\Users\Revanth\AppData\Local\Temp\ccqs06ys.s 			page 327


 16203 43ee 69020000 		.4byte	0x269
 16204 43f2 03440000 		.4byte	0x4403
 16205 43f6 09       		.uleb128 0x9
 16206 43f7 01       		.uleb128 0x1
 16207 43f8 50       		.byte	0x50
 16208 43f9 02       		.uleb128 0x2
 16209 43fa 08       		.byte	0x8
 16210 43fb 2D       		.byte	0x2d
 16211 43fc 09       		.uleb128 0x9
 16212 43fd 01       		.uleb128 0x1
 16213 43fe 51       		.byte	0x51
 16214 43ff 02       		.uleb128 0x2
 16215 4400 75       		.byte	0x75
 16216 4401 00       		.sleb128 0
 16217 4402 00       		.byte	0
 16218 4403 08       		.uleb128 0x8
 16219 4404 400C0000 		.4byte	.LVL741
 16220 4408 69020000 		.4byte	0x269
 16221 440c 1D440000 		.4byte	0x441d
 16222 4410 09       		.uleb128 0x9
 16223 4411 01       		.uleb128 0x1
 16224 4412 50       		.byte	0x50
 16225 4413 02       		.uleb128 0x2
 16226 4414 08       		.byte	0x8
 16227 4415 31       		.byte	0x31
 16228 4416 09       		.uleb128 0x9
 16229 4417 01       		.uleb128 0x1
 16230 4418 51       		.byte	0x51
 16231 4419 02       		.uleb128 0x2
 16232 441a 75       		.byte	0x75
 16233 441b 00       		.sleb128 0
 16234 441c 00       		.byte	0
 16235 441d 08       		.uleb128 0x8
 16236 441e 480C0000 		.4byte	.LVL742
 16237 4422 69020000 		.4byte	0x269
 16238 4426 37440000 		.4byte	0x4437
 16239 442a 09       		.uleb128 0x9
 16240 442b 01       		.uleb128 0x1
 16241 442c 50       		.byte	0x50
 16242 442d 02       		.uleb128 0x2
 16243 442e 08       		.byte	0x8
 16244 442f 35       		.byte	0x35
 16245 4430 09       		.uleb128 0x9
 16246 4431 01       		.uleb128 0x1
 16247 4432 51       		.byte	0x51
 16248 4433 02       		.uleb128 0x2
 16249 4434 75       		.byte	0x75
 16250 4435 00       		.sleb128 0
 16251 4436 00       		.byte	0
 16252 4437 08       		.uleb128 0x8
 16253 4438 500C0000 		.4byte	.LVL743
 16254 443c 69020000 		.4byte	0x269
 16255 4440 51440000 		.4byte	0x4451
 16256 4444 09       		.uleb128 0x9
 16257 4445 01       		.uleb128 0x1
 16258 4446 50       		.byte	0x50
 16259 4447 02       		.uleb128 0x2
ARM GAS  C:\Users\Revanth\AppData\Local\Temp\ccqs06ys.s 			page 328


 16260 4448 08       		.byte	0x8
 16261 4449 39       		.byte	0x39
 16262 444a 09       		.uleb128 0x9
 16263 444b 01       		.uleb128 0x1
 16264 444c 51       		.byte	0x51
 16265 444d 02       		.uleb128 0x2
 16266 444e 75       		.byte	0x75
 16267 444f 00       		.sleb128 0
 16268 4450 00       		.byte	0
 16269 4451 08       		.uleb128 0x8
 16270 4452 580C0000 		.4byte	.LVL744
 16271 4456 69020000 		.4byte	0x269
 16272 445a 6B440000 		.4byte	0x446b
 16273 445e 09       		.uleb128 0x9
 16274 445f 01       		.uleb128 0x1
 16275 4460 50       		.byte	0x50
 16276 4461 02       		.uleb128 0x2
 16277 4462 08       		.byte	0x8
 16278 4463 3D       		.byte	0x3d
 16279 4464 09       		.uleb128 0x9
 16280 4465 01       		.uleb128 0x1
 16281 4466 51       		.byte	0x51
 16282 4467 02       		.uleb128 0x2
 16283 4468 75       		.byte	0x75
 16284 4469 00       		.sleb128 0
 16285 446a 00       		.byte	0
 16286 446b 08       		.uleb128 0x8
 16287 446c 600C0000 		.4byte	.LVL745
 16288 4470 69020000 		.4byte	0x269
 16289 4474 85440000 		.4byte	0x4485
 16290 4478 09       		.uleb128 0x9
 16291 4479 01       		.uleb128 0x1
 16292 447a 50       		.byte	0x50
 16293 447b 02       		.uleb128 0x2
 16294 447c 08       		.byte	0x8
 16295 447d 41       		.byte	0x41
 16296 447e 09       		.uleb128 0x9
 16297 447f 01       		.uleb128 0x1
 16298 4480 51       		.byte	0x51
 16299 4481 02       		.uleb128 0x2
 16300 4482 75       		.byte	0x75
 16301 4483 00       		.sleb128 0
 16302 4484 00       		.byte	0
 16303 4485 08       		.uleb128 0x8
 16304 4486 680C0000 		.4byte	.LVL746
 16305 448a 69020000 		.4byte	0x269
 16306 448e 9F440000 		.4byte	0x449f
 16307 4492 09       		.uleb128 0x9
 16308 4493 01       		.uleb128 0x1
 16309 4494 50       		.byte	0x50
 16310 4495 02       		.uleb128 0x2
 16311 4496 08       		.byte	0x8
 16312 4497 45       		.byte	0x45
 16313 4498 09       		.uleb128 0x9
 16314 4499 01       		.uleb128 0x1
 16315 449a 51       		.byte	0x51
 16316 449b 02       		.uleb128 0x2
ARM GAS  C:\Users\Revanth\AppData\Local\Temp\ccqs06ys.s 			page 329


 16317 449c 75       		.byte	0x75
 16318 449d 00       		.sleb128 0
 16319 449e 00       		.byte	0
 16320 449f 08       		.uleb128 0x8
 16321 44a0 700C0000 		.4byte	.LVL747
 16322 44a4 69020000 		.4byte	0x269
 16323 44a8 B9440000 		.4byte	0x44b9
 16324 44ac 09       		.uleb128 0x9
 16325 44ad 01       		.uleb128 0x1
 16326 44ae 50       		.byte	0x50
 16327 44af 02       		.uleb128 0x2
 16328 44b0 08       		.byte	0x8
 16329 44b1 49       		.byte	0x49
 16330 44b2 09       		.uleb128 0x9
 16331 44b3 01       		.uleb128 0x1
 16332 44b4 51       		.byte	0x51
 16333 44b5 02       		.uleb128 0x2
 16334 44b6 75       		.byte	0x75
 16335 44b7 00       		.sleb128 0
 16336 44b8 00       		.byte	0
 16337 44b9 08       		.uleb128 0x8
 16338 44ba 780C0000 		.4byte	.LVL748
 16339 44be 69020000 		.4byte	0x269
 16340 44c2 D3440000 		.4byte	0x44d3
 16341 44c6 09       		.uleb128 0x9
 16342 44c7 01       		.uleb128 0x1
 16343 44c8 50       		.byte	0x50
 16344 44c9 02       		.uleb128 0x2
 16345 44ca 08       		.byte	0x8
 16346 44cb 4D       		.byte	0x4d
 16347 44cc 09       		.uleb128 0x9
 16348 44cd 01       		.uleb128 0x1
 16349 44ce 51       		.byte	0x51
 16350 44cf 02       		.uleb128 0x2
 16351 44d0 75       		.byte	0x75
 16352 44d1 00       		.sleb128 0
 16353 44d2 00       		.byte	0
 16354 44d3 08       		.uleb128 0x8
 16355 44d4 800C0000 		.4byte	.LVL749
 16356 44d8 69020000 		.4byte	0x269
 16357 44dc ED440000 		.4byte	0x44ed
 16358 44e0 09       		.uleb128 0x9
 16359 44e1 01       		.uleb128 0x1
 16360 44e2 50       		.byte	0x50
 16361 44e3 02       		.uleb128 0x2
 16362 44e4 08       		.byte	0x8
 16363 44e5 51       		.byte	0x51
 16364 44e6 09       		.uleb128 0x9
 16365 44e7 01       		.uleb128 0x1
 16366 44e8 51       		.byte	0x51
 16367 44e9 02       		.uleb128 0x2
 16368 44ea 75       		.byte	0x75
 16369 44eb 00       		.sleb128 0
 16370 44ec 00       		.byte	0
 16371 44ed 08       		.uleb128 0x8
 16372 44ee 880C0000 		.4byte	.LVL750
 16373 44f2 69020000 		.4byte	0x269
ARM GAS  C:\Users\Revanth\AppData\Local\Temp\ccqs06ys.s 			page 330


 16374 44f6 07450000 		.4byte	0x4507
 16375 44fa 09       		.uleb128 0x9
 16376 44fb 01       		.uleb128 0x1
 16377 44fc 50       		.byte	0x50
 16378 44fd 02       		.uleb128 0x2
 16379 44fe 08       		.byte	0x8
 16380 44ff 55       		.byte	0x55
 16381 4500 09       		.uleb128 0x9
 16382 4501 01       		.uleb128 0x1
 16383 4502 51       		.byte	0x51
 16384 4503 02       		.uleb128 0x2
 16385 4504 75       		.byte	0x75
 16386 4505 00       		.sleb128 0
 16387 4506 00       		.byte	0
 16388 4507 08       		.uleb128 0x8
 16389 4508 900C0000 		.4byte	.LVL751
 16390 450c 69020000 		.4byte	0x269
 16391 4510 21450000 		.4byte	0x4521
 16392 4514 09       		.uleb128 0x9
 16393 4515 01       		.uleb128 0x1
 16394 4516 50       		.byte	0x50
 16395 4517 02       		.uleb128 0x2
 16396 4518 08       		.byte	0x8
 16397 4519 59       		.byte	0x59
 16398 451a 09       		.uleb128 0x9
 16399 451b 01       		.uleb128 0x1
 16400 451c 51       		.byte	0x51
 16401 451d 02       		.uleb128 0x2
 16402 451e 75       		.byte	0x75
 16403 451f 00       		.sleb128 0
 16404 4520 00       		.byte	0
 16405 4521 08       		.uleb128 0x8
 16406 4522 980C0000 		.4byte	.LVL752
 16407 4526 69020000 		.4byte	0x269
 16408 452a 3B450000 		.4byte	0x453b
 16409 452e 09       		.uleb128 0x9
 16410 452f 01       		.uleb128 0x1
 16411 4530 50       		.byte	0x50
 16412 4531 02       		.uleb128 0x2
 16413 4532 08       		.byte	0x8
 16414 4533 5D       		.byte	0x5d
 16415 4534 09       		.uleb128 0x9
 16416 4535 01       		.uleb128 0x1
 16417 4536 51       		.byte	0x51
 16418 4537 02       		.uleb128 0x2
 16419 4538 75       		.byte	0x75
 16420 4539 00       		.sleb128 0
 16421 453a 00       		.byte	0
 16422 453b 08       		.uleb128 0x8
 16423 453c A00C0000 		.4byte	.LVL753
 16424 4540 69020000 		.4byte	0x269
 16425 4544 55450000 		.4byte	0x4555
 16426 4548 09       		.uleb128 0x9
 16427 4549 01       		.uleb128 0x1
 16428 454a 50       		.byte	0x50
 16429 454b 02       		.uleb128 0x2
 16430 454c 08       		.byte	0x8
ARM GAS  C:\Users\Revanth\AppData\Local\Temp\ccqs06ys.s 			page 331


 16431 454d 61       		.byte	0x61
 16432 454e 09       		.uleb128 0x9
 16433 454f 01       		.uleb128 0x1
 16434 4550 51       		.byte	0x51
 16435 4551 02       		.uleb128 0x2
 16436 4552 75       		.byte	0x75
 16437 4553 00       		.sleb128 0
 16438 4554 00       		.byte	0
 16439 4555 08       		.uleb128 0x8
 16440 4556 A80C0000 		.4byte	.LVL754
 16441 455a 69020000 		.4byte	0x269
 16442 455e 6F450000 		.4byte	0x456f
 16443 4562 09       		.uleb128 0x9
 16444 4563 01       		.uleb128 0x1
 16445 4564 50       		.byte	0x50
 16446 4565 02       		.uleb128 0x2
 16447 4566 08       		.byte	0x8
 16448 4567 65       		.byte	0x65
 16449 4568 09       		.uleb128 0x9
 16450 4569 01       		.uleb128 0x1
 16451 456a 51       		.byte	0x51
 16452 456b 02       		.uleb128 0x2
 16453 456c 75       		.byte	0x75
 16454 456d 00       		.sleb128 0
 16455 456e 00       		.byte	0
 16456 456f 08       		.uleb128 0x8
 16457 4570 B00C0000 		.4byte	.LVL755
 16458 4574 69020000 		.4byte	0x269
 16459 4578 89450000 		.4byte	0x4589
 16460 457c 09       		.uleb128 0x9
 16461 457d 01       		.uleb128 0x1
 16462 457e 50       		.byte	0x50
 16463 457f 02       		.uleb128 0x2
 16464 4580 08       		.byte	0x8
 16465 4581 69       		.byte	0x69
 16466 4582 09       		.uleb128 0x9
 16467 4583 01       		.uleb128 0x1
 16468 4584 51       		.byte	0x51
 16469 4585 02       		.uleb128 0x2
 16470 4586 75       		.byte	0x75
 16471 4587 00       		.sleb128 0
 16472 4588 00       		.byte	0
 16473 4589 08       		.uleb128 0x8
 16474 458a B80C0000 		.4byte	.LVL756
 16475 458e 69020000 		.4byte	0x269
 16476 4592 A3450000 		.4byte	0x45a3
 16477 4596 09       		.uleb128 0x9
 16478 4597 01       		.uleb128 0x1
 16479 4598 50       		.byte	0x50
 16480 4599 02       		.uleb128 0x2
 16481 459a 08       		.byte	0x8
 16482 459b 6D       		.byte	0x6d
 16483 459c 09       		.uleb128 0x9
 16484 459d 01       		.uleb128 0x1
 16485 459e 51       		.byte	0x51
 16486 459f 02       		.uleb128 0x2
 16487 45a0 75       		.byte	0x75
ARM GAS  C:\Users\Revanth\AppData\Local\Temp\ccqs06ys.s 			page 332


 16488 45a1 00       		.sleb128 0
 16489 45a2 00       		.byte	0
 16490 45a3 08       		.uleb128 0x8
 16491 45a4 C00C0000 		.4byte	.LVL757
 16492 45a8 69020000 		.4byte	0x269
 16493 45ac BD450000 		.4byte	0x45bd
 16494 45b0 09       		.uleb128 0x9
 16495 45b1 01       		.uleb128 0x1
 16496 45b2 50       		.byte	0x50
 16497 45b3 02       		.uleb128 0x2
 16498 45b4 08       		.byte	0x8
 16499 45b5 71       		.byte	0x71
 16500 45b6 09       		.uleb128 0x9
 16501 45b7 01       		.uleb128 0x1
 16502 45b8 51       		.byte	0x51
 16503 45b9 02       		.uleb128 0x2
 16504 45ba 75       		.byte	0x75
 16505 45bb 00       		.sleb128 0
 16506 45bc 00       		.byte	0
 16507 45bd 08       		.uleb128 0x8
 16508 45be C80C0000 		.4byte	.LVL758
 16509 45c2 69020000 		.4byte	0x269
 16510 45c6 D7450000 		.4byte	0x45d7
 16511 45ca 09       		.uleb128 0x9
 16512 45cb 01       		.uleb128 0x1
 16513 45cc 50       		.byte	0x50
 16514 45cd 02       		.uleb128 0x2
 16515 45ce 08       		.byte	0x8
 16516 45cf 75       		.byte	0x75
 16517 45d0 09       		.uleb128 0x9
 16518 45d1 01       		.uleb128 0x1
 16519 45d2 51       		.byte	0x51
 16520 45d3 02       		.uleb128 0x2
 16521 45d4 75       		.byte	0x75
 16522 45d5 00       		.sleb128 0
 16523 45d6 00       		.byte	0
 16524 45d7 08       		.uleb128 0x8
 16525 45d8 D00C0000 		.4byte	.LVL759
 16526 45dc 69020000 		.4byte	0x269
 16527 45e0 F1450000 		.4byte	0x45f1
 16528 45e4 09       		.uleb128 0x9
 16529 45e5 01       		.uleb128 0x1
 16530 45e6 50       		.byte	0x50
 16531 45e7 02       		.uleb128 0x2
 16532 45e8 08       		.byte	0x8
 16533 45e9 79       		.byte	0x79
 16534 45ea 09       		.uleb128 0x9
 16535 45eb 01       		.uleb128 0x1
 16536 45ec 51       		.byte	0x51
 16537 45ed 02       		.uleb128 0x2
 16538 45ee 75       		.byte	0x75
 16539 45ef 00       		.sleb128 0
 16540 45f0 00       		.byte	0
 16541 45f1 08       		.uleb128 0x8
 16542 45f2 D80C0000 		.4byte	.LVL760
 16543 45f6 69020000 		.4byte	0x269
 16544 45fa 0B460000 		.4byte	0x460b
ARM GAS  C:\Users\Revanth\AppData\Local\Temp\ccqs06ys.s 			page 333


 16545 45fe 09       		.uleb128 0x9
 16546 45ff 01       		.uleb128 0x1
 16547 4600 50       		.byte	0x50
 16548 4601 02       		.uleb128 0x2
 16549 4602 08       		.byte	0x8
 16550 4603 7D       		.byte	0x7d
 16551 4604 09       		.uleb128 0x9
 16552 4605 01       		.uleb128 0x1
 16553 4606 51       		.byte	0x51
 16554 4607 02       		.uleb128 0x2
 16555 4608 75       		.byte	0x75
 16556 4609 00       		.sleb128 0
 16557 460a 00       		.byte	0
 16558 460b 08       		.uleb128 0x8
 16559 460c DE0C0000 		.4byte	.LVL761
 16560 4610 B75F0000 		.4byte	0x5fb7
 16561 4614 1E460000 		.4byte	0x461e
 16562 4618 09       		.uleb128 0x9
 16563 4619 01       		.uleb128 0x1
 16564 461a 50       		.byte	0x50
 16565 461b 01       		.uleb128 0x1
 16566 461c 30       		.byte	0x30
 16567 461d 00       		.byte	0
 16568 461e 08       		.uleb128 0x8
 16569 461f EC0C0000 		.4byte	.LVL762
 16570 4623 D85F0000 		.4byte	0x5fd8
 16571 4627 31460000 		.4byte	0x4631
 16572 462b 09       		.uleb128 0x9
 16573 462c 01       		.uleb128 0x1
 16574 462d 50       		.byte	0x50
 16575 462e 01       		.uleb128 0x1
 16576 462f 31       		.byte	0x31
 16577 4630 00       		.byte	0
 16578 4631 08       		.uleb128 0x8
 16579 4632 F20C0000 		.4byte	.LVL763
 16580 4636 07090000 		.4byte	0x907
 16581 463a 44460000 		.4byte	0x4644
 16582 463e 09       		.uleb128 0x9
 16583 463f 01       		.uleb128 0x1
 16584 4640 50       		.byte	0x50
 16585 4641 01       		.uleb128 0x1
 16586 4642 31       		.byte	0x31
 16587 4643 00       		.byte	0
 16588 4644 08       		.uleb128 0x8
 16589 4645 FA0C0000 		.4byte	.LVL764
 16590 4649 CA080000 		.4byte	0x8ca
 16591 464d 5D460000 		.4byte	0x465d
 16592 4651 09       		.uleb128 0x9
 16593 4652 01       		.uleb128 0x1
 16594 4653 50       		.byte	0x50
 16595 4654 02       		.uleb128 0x2
 16596 4655 08       		.byte	0x8
 16597 4656 20       		.byte	0x20
 16598 4657 09       		.uleb128 0x9
 16599 4658 01       		.uleb128 0x1
 16600 4659 51       		.byte	0x51
 16601 465a 01       		.uleb128 0x1
ARM GAS  C:\Users\Revanth\AppData\Local\Temp\ccqs06ys.s 			page 334


 16602 465b 31       		.byte	0x31
 16603 465c 00       		.byte	0
 16604 465d 08       		.uleb128 0x8
 16605 465e 020D0000 		.4byte	.LVL765
 16606 4662 CA080000 		.4byte	0x8ca
 16607 4666 76460000 		.4byte	0x4676
 16608 466a 09       		.uleb128 0x9
 16609 466b 01       		.uleb128 0x1
 16610 466c 50       		.byte	0x50
 16611 466d 02       		.uleb128 0x2
 16612 466e 08       		.byte	0x8
 16613 466f 24       		.byte	0x24
 16614 4670 09       		.uleb128 0x9
 16615 4671 01       		.uleb128 0x1
 16616 4672 51       		.byte	0x51
 16617 4673 01       		.uleb128 0x1
 16618 4674 30       		.byte	0x30
 16619 4675 00       		.byte	0
 16620 4676 08       		.uleb128 0x8
 16621 4677 0A0D0000 		.4byte	.LVL766
 16622 467b CA080000 		.4byte	0x8ca
 16623 467f 8F460000 		.4byte	0x468f
 16624 4683 09       		.uleb128 0x9
 16625 4684 01       		.uleb128 0x1
 16626 4685 50       		.byte	0x50
 16627 4686 02       		.uleb128 0x2
 16628 4687 08       		.byte	0x8
 16629 4688 28       		.byte	0x28
 16630 4689 09       		.uleb128 0x9
 16631 468a 01       		.uleb128 0x1
 16632 468b 51       		.byte	0x51
 16633 468c 01       		.uleb128 0x1
 16634 468d 31       		.byte	0x31
 16635 468e 00       		.byte	0
 16636 468f 08       		.uleb128 0x8
 16637 4690 120D0000 		.4byte	.LVL767
 16638 4694 CA080000 		.4byte	0x8ca
 16639 4698 A8460000 		.4byte	0x46a8
 16640 469c 09       		.uleb128 0x9
 16641 469d 01       		.uleb128 0x1
 16642 469e 50       		.byte	0x50
 16643 469f 02       		.uleb128 0x2
 16644 46a0 08       		.byte	0x8
 16645 46a1 2C       		.byte	0x2c
 16646 46a2 09       		.uleb128 0x9
 16647 46a3 01       		.uleb128 0x1
 16648 46a4 51       		.byte	0x51
 16649 46a5 01       		.uleb128 0x1
 16650 46a6 30       		.byte	0x30
 16651 46a7 00       		.byte	0
 16652 46a8 08       		.uleb128 0x8
 16653 46a9 1A0D0000 		.4byte	.LVL768
 16654 46ad CA080000 		.4byte	0x8ca
 16655 46b1 C1460000 		.4byte	0x46c1
 16656 46b5 09       		.uleb128 0x9
 16657 46b6 01       		.uleb128 0x1
 16658 46b7 50       		.byte	0x50
ARM GAS  C:\Users\Revanth\AppData\Local\Temp\ccqs06ys.s 			page 335


 16659 46b8 02       		.uleb128 0x2
 16660 46b9 08       		.byte	0x8
 16661 46ba 30       		.byte	0x30
 16662 46bb 09       		.uleb128 0x9
 16663 46bc 01       		.uleb128 0x1
 16664 46bd 51       		.byte	0x51
 16665 46be 01       		.uleb128 0x1
 16666 46bf 31       		.byte	0x31
 16667 46c0 00       		.byte	0
 16668 46c1 08       		.uleb128 0x8
 16669 46c2 220D0000 		.4byte	.LVL769
 16670 46c6 CA080000 		.4byte	0x8ca
 16671 46ca DA460000 		.4byte	0x46da
 16672 46ce 09       		.uleb128 0x9
 16673 46cf 01       		.uleb128 0x1
 16674 46d0 50       		.byte	0x50
 16675 46d1 02       		.uleb128 0x2
 16676 46d2 08       		.byte	0x8
 16677 46d3 34       		.byte	0x34
 16678 46d4 09       		.uleb128 0x9
 16679 46d5 01       		.uleb128 0x1
 16680 46d6 51       		.byte	0x51
 16681 46d7 01       		.uleb128 0x1
 16682 46d8 30       		.byte	0x30
 16683 46d9 00       		.byte	0
 16684 46da 08       		.uleb128 0x8
 16685 46db 2A0D0000 		.4byte	.LVL770
 16686 46df CA080000 		.4byte	0x8ca
 16687 46e3 F3460000 		.4byte	0x46f3
 16688 46e7 09       		.uleb128 0x9
 16689 46e8 01       		.uleb128 0x1
 16690 46e9 50       		.byte	0x50
 16691 46ea 02       		.uleb128 0x2
 16692 46eb 08       		.byte	0x8
 16693 46ec 38       		.byte	0x38
 16694 46ed 09       		.uleb128 0x9
 16695 46ee 01       		.uleb128 0x1
 16696 46ef 51       		.byte	0x51
 16697 46f0 01       		.uleb128 0x1
 16698 46f1 31       		.byte	0x31
 16699 46f2 00       		.byte	0
 16700 46f3 08       		.uleb128 0x8
 16701 46f4 320D0000 		.4byte	.LVL771
 16702 46f8 CA080000 		.4byte	0x8ca
 16703 46fc 0C470000 		.4byte	0x470c
 16704 4700 09       		.uleb128 0x9
 16705 4701 01       		.uleb128 0x1
 16706 4702 50       		.byte	0x50
 16707 4703 02       		.uleb128 0x2
 16708 4704 08       		.byte	0x8
 16709 4705 3C       		.byte	0x3c
 16710 4706 09       		.uleb128 0x9
 16711 4707 01       		.uleb128 0x1
 16712 4708 51       		.byte	0x51
 16713 4709 01       		.uleb128 0x1
 16714 470a 30       		.byte	0x30
 16715 470b 00       		.byte	0
ARM GAS  C:\Users\Revanth\AppData\Local\Temp\ccqs06ys.s 			page 336


 16716 470c 08       		.uleb128 0x8
 16717 470d 3A0D0000 		.4byte	.LVL772
 16718 4711 CA080000 		.4byte	0x8ca
 16719 4715 25470000 		.4byte	0x4725
 16720 4719 09       		.uleb128 0x9
 16721 471a 01       		.uleb128 0x1
 16722 471b 50       		.byte	0x50
 16723 471c 02       		.uleb128 0x2
 16724 471d 08       		.byte	0x8
 16725 471e 40       		.byte	0x40
 16726 471f 09       		.uleb128 0x9
 16727 4720 01       		.uleb128 0x1
 16728 4721 51       		.byte	0x51
 16729 4722 01       		.uleb128 0x1
 16730 4723 31       		.byte	0x31
 16731 4724 00       		.byte	0
 16732 4725 08       		.uleb128 0x8
 16733 4726 420D0000 		.4byte	.LVL773
 16734 472a CA080000 		.4byte	0x8ca
 16735 472e 3E470000 		.4byte	0x473e
 16736 4732 09       		.uleb128 0x9
 16737 4733 01       		.uleb128 0x1
 16738 4734 50       		.byte	0x50
 16739 4735 02       		.uleb128 0x2
 16740 4736 08       		.byte	0x8
 16741 4737 44       		.byte	0x44
 16742 4738 09       		.uleb128 0x9
 16743 4739 01       		.uleb128 0x1
 16744 473a 51       		.byte	0x51
 16745 473b 01       		.uleb128 0x1
 16746 473c 30       		.byte	0x30
 16747 473d 00       		.byte	0
 16748 473e 08       		.uleb128 0x8
 16749 473f 4A0D0000 		.4byte	.LVL774
 16750 4743 CA080000 		.4byte	0x8ca
 16751 4747 57470000 		.4byte	0x4757
 16752 474b 09       		.uleb128 0x9
 16753 474c 01       		.uleb128 0x1
 16754 474d 50       		.byte	0x50
 16755 474e 02       		.uleb128 0x2
 16756 474f 08       		.byte	0x8
 16757 4750 48       		.byte	0x48
 16758 4751 09       		.uleb128 0x9
 16759 4752 01       		.uleb128 0x1
 16760 4753 51       		.byte	0x51
 16761 4754 01       		.uleb128 0x1
 16762 4755 31       		.byte	0x31
 16763 4756 00       		.byte	0
 16764 4757 08       		.uleb128 0x8
 16765 4758 520D0000 		.4byte	.LVL775
 16766 475c CA080000 		.4byte	0x8ca
 16767 4760 70470000 		.4byte	0x4770
 16768 4764 09       		.uleb128 0x9
 16769 4765 01       		.uleb128 0x1
 16770 4766 50       		.byte	0x50
 16771 4767 02       		.uleb128 0x2
 16772 4768 08       		.byte	0x8
ARM GAS  C:\Users\Revanth\AppData\Local\Temp\ccqs06ys.s 			page 337


 16773 4769 4C       		.byte	0x4c
 16774 476a 09       		.uleb128 0x9
 16775 476b 01       		.uleb128 0x1
 16776 476c 51       		.byte	0x51
 16777 476d 01       		.uleb128 0x1
 16778 476e 30       		.byte	0x30
 16779 476f 00       		.byte	0
 16780 4770 08       		.uleb128 0x8
 16781 4771 5A0D0000 		.4byte	.LVL776
 16782 4775 CA080000 		.4byte	0x8ca
 16783 4779 89470000 		.4byte	0x4789
 16784 477d 09       		.uleb128 0x9
 16785 477e 01       		.uleb128 0x1
 16786 477f 50       		.byte	0x50
 16787 4780 02       		.uleb128 0x2
 16788 4781 08       		.byte	0x8
 16789 4782 50       		.byte	0x50
 16790 4783 09       		.uleb128 0x9
 16791 4784 01       		.uleb128 0x1
 16792 4785 51       		.byte	0x51
 16793 4786 01       		.uleb128 0x1
 16794 4787 31       		.byte	0x31
 16795 4788 00       		.byte	0
 16796 4789 08       		.uleb128 0x8
 16797 478a 620D0000 		.4byte	.LVL777
 16798 478e CA080000 		.4byte	0x8ca
 16799 4792 A2470000 		.4byte	0x47a2
 16800 4796 09       		.uleb128 0x9
 16801 4797 01       		.uleb128 0x1
 16802 4798 50       		.byte	0x50
 16803 4799 02       		.uleb128 0x2
 16804 479a 08       		.byte	0x8
 16805 479b 54       		.byte	0x54
 16806 479c 09       		.uleb128 0x9
 16807 479d 01       		.uleb128 0x1
 16808 479e 51       		.byte	0x51
 16809 479f 01       		.uleb128 0x1
 16810 47a0 30       		.byte	0x30
 16811 47a1 00       		.byte	0
 16812 47a2 08       		.uleb128 0x8
 16813 47a3 6A0D0000 		.4byte	.LVL778
 16814 47a7 CA080000 		.4byte	0x8ca
 16815 47ab BB470000 		.4byte	0x47bb
 16816 47af 09       		.uleb128 0x9
 16817 47b0 01       		.uleb128 0x1
 16818 47b1 50       		.byte	0x50
 16819 47b2 02       		.uleb128 0x2
 16820 47b3 08       		.byte	0x8
 16821 47b4 58       		.byte	0x58
 16822 47b5 09       		.uleb128 0x9
 16823 47b6 01       		.uleb128 0x1
 16824 47b7 51       		.byte	0x51
 16825 47b8 01       		.uleb128 0x1
 16826 47b9 31       		.byte	0x31
 16827 47ba 00       		.byte	0
 16828 47bb 08       		.uleb128 0x8
 16829 47bc 720D0000 		.4byte	.LVL779
ARM GAS  C:\Users\Revanth\AppData\Local\Temp\ccqs06ys.s 			page 338


 16830 47c0 CA080000 		.4byte	0x8ca
 16831 47c4 D4470000 		.4byte	0x47d4
 16832 47c8 09       		.uleb128 0x9
 16833 47c9 01       		.uleb128 0x1
 16834 47ca 50       		.byte	0x50
 16835 47cb 02       		.uleb128 0x2
 16836 47cc 08       		.byte	0x8
 16837 47cd 5C       		.byte	0x5c
 16838 47ce 09       		.uleb128 0x9
 16839 47cf 01       		.uleb128 0x1
 16840 47d0 51       		.byte	0x51
 16841 47d1 01       		.uleb128 0x1
 16842 47d2 30       		.byte	0x30
 16843 47d3 00       		.byte	0
 16844 47d4 08       		.uleb128 0x8
 16845 47d5 7A0D0000 		.4byte	.LVL780
 16846 47d9 CA080000 		.4byte	0x8ca
 16847 47dd ED470000 		.4byte	0x47ed
 16848 47e1 09       		.uleb128 0x9
 16849 47e2 01       		.uleb128 0x1
 16850 47e3 50       		.byte	0x50
 16851 47e4 02       		.uleb128 0x2
 16852 47e5 08       		.byte	0x8
 16853 47e6 60       		.byte	0x60
 16854 47e7 09       		.uleb128 0x9
 16855 47e8 01       		.uleb128 0x1
 16856 47e9 51       		.byte	0x51
 16857 47ea 01       		.uleb128 0x1
 16858 47eb 31       		.byte	0x31
 16859 47ec 00       		.byte	0
 16860 47ed 08       		.uleb128 0x8
 16861 47ee 820D0000 		.4byte	.LVL781
 16862 47f2 CA080000 		.4byte	0x8ca
 16863 47f6 06480000 		.4byte	0x4806
 16864 47fa 09       		.uleb128 0x9
 16865 47fb 01       		.uleb128 0x1
 16866 47fc 50       		.byte	0x50
 16867 47fd 02       		.uleb128 0x2
 16868 47fe 08       		.byte	0x8
 16869 47ff 64       		.byte	0x64
 16870 4800 09       		.uleb128 0x9
 16871 4801 01       		.uleb128 0x1
 16872 4802 51       		.byte	0x51
 16873 4803 01       		.uleb128 0x1
 16874 4804 30       		.byte	0x30
 16875 4805 00       		.byte	0
 16876 4806 08       		.uleb128 0x8
 16877 4807 8A0D0000 		.4byte	.LVL782
 16878 480b CA080000 		.4byte	0x8ca
 16879 480f 1F480000 		.4byte	0x481f
 16880 4813 09       		.uleb128 0x9
 16881 4814 01       		.uleb128 0x1
 16882 4815 50       		.byte	0x50
 16883 4816 02       		.uleb128 0x2
 16884 4817 08       		.byte	0x8
 16885 4818 68       		.byte	0x68
 16886 4819 09       		.uleb128 0x9
ARM GAS  C:\Users\Revanth\AppData\Local\Temp\ccqs06ys.s 			page 339


 16887 481a 01       		.uleb128 0x1
 16888 481b 51       		.byte	0x51
 16889 481c 01       		.uleb128 0x1
 16890 481d 31       		.byte	0x31
 16891 481e 00       		.byte	0
 16892 481f 08       		.uleb128 0x8
 16893 4820 920D0000 		.4byte	.LVL783
 16894 4824 CA080000 		.4byte	0x8ca
 16895 4828 38480000 		.4byte	0x4838
 16896 482c 09       		.uleb128 0x9
 16897 482d 01       		.uleb128 0x1
 16898 482e 50       		.byte	0x50
 16899 482f 02       		.uleb128 0x2
 16900 4830 08       		.byte	0x8
 16901 4831 6C       		.byte	0x6c
 16902 4832 09       		.uleb128 0x9
 16903 4833 01       		.uleb128 0x1
 16904 4834 51       		.byte	0x51
 16905 4835 01       		.uleb128 0x1
 16906 4836 30       		.byte	0x30
 16907 4837 00       		.byte	0
 16908 4838 08       		.uleb128 0x8
 16909 4839 9A0D0000 		.4byte	.LVL784
 16910 483d CA080000 		.4byte	0x8ca
 16911 4841 51480000 		.4byte	0x4851
 16912 4845 09       		.uleb128 0x9
 16913 4846 01       		.uleb128 0x1
 16914 4847 50       		.byte	0x50
 16915 4848 02       		.uleb128 0x2
 16916 4849 08       		.byte	0x8
 16917 484a 70       		.byte	0x70
 16918 484b 09       		.uleb128 0x9
 16919 484c 01       		.uleb128 0x1
 16920 484d 51       		.byte	0x51
 16921 484e 01       		.uleb128 0x1
 16922 484f 31       		.byte	0x31
 16923 4850 00       		.byte	0
 16924 4851 08       		.uleb128 0x8
 16925 4852 A20D0000 		.4byte	.LVL785
 16926 4856 CA080000 		.4byte	0x8ca
 16927 485a 6A480000 		.4byte	0x486a
 16928 485e 09       		.uleb128 0x9
 16929 485f 01       		.uleb128 0x1
 16930 4860 50       		.byte	0x50
 16931 4861 02       		.uleb128 0x2
 16932 4862 08       		.byte	0x8
 16933 4863 74       		.byte	0x74
 16934 4864 09       		.uleb128 0x9
 16935 4865 01       		.uleb128 0x1
 16936 4866 51       		.byte	0x51
 16937 4867 01       		.uleb128 0x1
 16938 4868 30       		.byte	0x30
 16939 4869 00       		.byte	0
 16940 486a 08       		.uleb128 0x8
 16941 486b AA0D0000 		.4byte	.LVL786
 16942 486f CA080000 		.4byte	0x8ca
 16943 4873 83480000 		.4byte	0x4883
ARM GAS  C:\Users\Revanth\AppData\Local\Temp\ccqs06ys.s 			page 340


 16944 4877 09       		.uleb128 0x9
 16945 4878 01       		.uleb128 0x1
 16946 4879 50       		.byte	0x50
 16947 487a 02       		.uleb128 0x2
 16948 487b 08       		.byte	0x8
 16949 487c 78       		.byte	0x78
 16950 487d 09       		.uleb128 0x9
 16951 487e 01       		.uleb128 0x1
 16952 487f 51       		.byte	0x51
 16953 4880 01       		.uleb128 0x1
 16954 4881 31       		.byte	0x31
 16955 4882 00       		.byte	0
 16956 4883 08       		.uleb128 0x8
 16957 4884 B20D0000 		.4byte	.LVL787
 16958 4888 CA080000 		.4byte	0x8ca
 16959 488c 9C480000 		.4byte	0x489c
 16960 4890 09       		.uleb128 0x9
 16961 4891 01       		.uleb128 0x1
 16962 4892 50       		.byte	0x50
 16963 4893 02       		.uleb128 0x2
 16964 4894 08       		.byte	0x8
 16965 4895 7C       		.byte	0x7c
 16966 4896 09       		.uleb128 0x9
 16967 4897 01       		.uleb128 0x1
 16968 4898 51       		.byte	0x51
 16969 4899 01       		.uleb128 0x1
 16970 489a 30       		.byte	0x30
 16971 489b 00       		.byte	0
 16972 489c 08       		.uleb128 0x8
 16973 489d BA0D0000 		.4byte	.LVL788
 16974 48a1 CA080000 		.4byte	0x8ca
 16975 48a5 B6480000 		.4byte	0x48b6
 16976 48a9 09       		.uleb128 0x9
 16977 48aa 01       		.uleb128 0x1
 16978 48ab 50       		.byte	0x50
 16979 48ac 02       		.uleb128 0x2
 16980 48ad 08       		.byte	0x8
 16981 48ae 21       		.byte	0x21
 16982 48af 09       		.uleb128 0x9
 16983 48b0 01       		.uleb128 0x1
 16984 48b1 51       		.byte	0x51
 16985 48b2 02       		.uleb128 0x2
 16986 48b3 75       		.byte	0x75
 16987 48b4 00       		.sleb128 0
 16988 48b5 00       		.byte	0
 16989 48b6 08       		.uleb128 0x8
 16990 48b7 C20D0000 		.4byte	.LVL789
 16991 48bb CA080000 		.4byte	0x8ca
 16992 48bf CF480000 		.4byte	0x48cf
 16993 48c3 09       		.uleb128 0x9
 16994 48c4 01       		.uleb128 0x1
 16995 48c5 50       		.byte	0x50
 16996 48c6 02       		.uleb128 0x2
 16997 48c7 08       		.byte	0x8
 16998 48c8 25       		.byte	0x25
 16999 48c9 09       		.uleb128 0x9
 17000 48ca 01       		.uleb128 0x1
ARM GAS  C:\Users\Revanth\AppData\Local\Temp\ccqs06ys.s 			page 341


 17001 48cb 51       		.byte	0x51
 17002 48cc 01       		.uleb128 0x1
 17003 48cd 30       		.byte	0x30
 17004 48ce 00       		.byte	0
 17005 48cf 08       		.uleb128 0x8
 17006 48d0 CA0D0000 		.4byte	.LVL790
 17007 48d4 CA080000 		.4byte	0x8ca
 17008 48d8 E9480000 		.4byte	0x48e9
 17009 48dc 09       		.uleb128 0x9
 17010 48dd 01       		.uleb128 0x1
 17011 48de 50       		.byte	0x50
 17012 48df 02       		.uleb128 0x2
 17013 48e0 08       		.byte	0x8
 17014 48e1 29       		.byte	0x29
 17015 48e2 09       		.uleb128 0x9
 17016 48e3 01       		.uleb128 0x1
 17017 48e4 51       		.byte	0x51
 17018 48e5 02       		.uleb128 0x2
 17019 48e6 75       		.byte	0x75
 17020 48e7 00       		.sleb128 0
 17021 48e8 00       		.byte	0
 17022 48e9 08       		.uleb128 0x8
 17023 48ea D20D0000 		.4byte	.LVL791
 17024 48ee CA080000 		.4byte	0x8ca
 17025 48f2 02490000 		.4byte	0x4902
 17026 48f6 09       		.uleb128 0x9
 17027 48f7 01       		.uleb128 0x1
 17028 48f8 50       		.byte	0x50
 17029 48f9 02       		.uleb128 0x2
 17030 48fa 08       		.byte	0x8
 17031 48fb 2D       		.byte	0x2d
 17032 48fc 09       		.uleb128 0x9
 17033 48fd 01       		.uleb128 0x1
 17034 48fe 51       		.byte	0x51
 17035 48ff 01       		.uleb128 0x1
 17036 4900 30       		.byte	0x30
 17037 4901 00       		.byte	0
 17038 4902 08       		.uleb128 0x8
 17039 4903 DA0D0000 		.4byte	.LVL792
 17040 4907 CA080000 		.4byte	0x8ca
 17041 490b 1C490000 		.4byte	0x491c
 17042 490f 09       		.uleb128 0x9
 17043 4910 01       		.uleb128 0x1
 17044 4911 50       		.byte	0x50
 17045 4912 02       		.uleb128 0x2
 17046 4913 08       		.byte	0x8
 17047 4914 31       		.byte	0x31
 17048 4915 09       		.uleb128 0x9
 17049 4916 01       		.uleb128 0x1
 17050 4917 51       		.byte	0x51
 17051 4918 02       		.uleb128 0x2
 17052 4919 75       		.byte	0x75
 17053 491a 00       		.sleb128 0
 17054 491b 00       		.byte	0
 17055 491c 08       		.uleb128 0x8
 17056 491d E20D0000 		.4byte	.LVL793
 17057 4921 CA080000 		.4byte	0x8ca
ARM GAS  C:\Users\Revanth\AppData\Local\Temp\ccqs06ys.s 			page 342


 17058 4925 35490000 		.4byte	0x4935
 17059 4929 09       		.uleb128 0x9
 17060 492a 01       		.uleb128 0x1
 17061 492b 50       		.byte	0x50
 17062 492c 02       		.uleb128 0x2
 17063 492d 08       		.byte	0x8
 17064 492e 35       		.byte	0x35
 17065 492f 09       		.uleb128 0x9
 17066 4930 01       		.uleb128 0x1
 17067 4931 51       		.byte	0x51
 17068 4932 01       		.uleb128 0x1
 17069 4933 30       		.byte	0x30
 17070 4934 00       		.byte	0
 17071 4935 08       		.uleb128 0x8
 17072 4936 EA0D0000 		.4byte	.LVL794
 17073 493a CA080000 		.4byte	0x8ca
 17074 493e 4F490000 		.4byte	0x494f
 17075 4942 09       		.uleb128 0x9
 17076 4943 01       		.uleb128 0x1
 17077 4944 50       		.byte	0x50
 17078 4945 02       		.uleb128 0x2
 17079 4946 08       		.byte	0x8
 17080 4947 39       		.byte	0x39
 17081 4948 09       		.uleb128 0x9
 17082 4949 01       		.uleb128 0x1
 17083 494a 51       		.byte	0x51
 17084 494b 02       		.uleb128 0x2
 17085 494c 75       		.byte	0x75
 17086 494d 00       		.sleb128 0
 17087 494e 00       		.byte	0
 17088 494f 08       		.uleb128 0x8
 17089 4950 F20D0000 		.4byte	.LVL795
 17090 4954 CA080000 		.4byte	0x8ca
 17091 4958 68490000 		.4byte	0x4968
 17092 495c 09       		.uleb128 0x9
 17093 495d 01       		.uleb128 0x1
 17094 495e 50       		.byte	0x50
 17095 495f 02       		.uleb128 0x2
 17096 4960 08       		.byte	0x8
 17097 4961 3D       		.byte	0x3d
 17098 4962 09       		.uleb128 0x9
 17099 4963 01       		.uleb128 0x1
 17100 4964 51       		.byte	0x51
 17101 4965 01       		.uleb128 0x1
 17102 4966 30       		.byte	0x30
 17103 4967 00       		.byte	0
 17104 4968 08       		.uleb128 0x8
 17105 4969 FA0D0000 		.4byte	.LVL796
 17106 496d CA080000 		.4byte	0x8ca
 17107 4971 82490000 		.4byte	0x4982
 17108 4975 09       		.uleb128 0x9
 17109 4976 01       		.uleb128 0x1
 17110 4977 50       		.byte	0x50
 17111 4978 02       		.uleb128 0x2
 17112 4979 08       		.byte	0x8
 17113 497a 41       		.byte	0x41
 17114 497b 09       		.uleb128 0x9
ARM GAS  C:\Users\Revanth\AppData\Local\Temp\ccqs06ys.s 			page 343


 17115 497c 01       		.uleb128 0x1
 17116 497d 51       		.byte	0x51
 17117 497e 02       		.uleb128 0x2
 17118 497f 75       		.byte	0x75
 17119 4980 00       		.sleb128 0
 17120 4981 00       		.byte	0
 17121 4982 08       		.uleb128 0x8
 17122 4983 020E0000 		.4byte	.LVL797
 17123 4987 CA080000 		.4byte	0x8ca
 17124 498b 9B490000 		.4byte	0x499b
 17125 498f 09       		.uleb128 0x9
 17126 4990 01       		.uleb128 0x1
 17127 4991 50       		.byte	0x50
 17128 4992 02       		.uleb128 0x2
 17129 4993 08       		.byte	0x8
 17130 4994 45       		.byte	0x45
 17131 4995 09       		.uleb128 0x9
 17132 4996 01       		.uleb128 0x1
 17133 4997 51       		.byte	0x51
 17134 4998 01       		.uleb128 0x1
 17135 4999 30       		.byte	0x30
 17136 499a 00       		.byte	0
 17137 499b 08       		.uleb128 0x8
 17138 499c 0A0E0000 		.4byte	.LVL798
 17139 49a0 CA080000 		.4byte	0x8ca
 17140 49a4 B5490000 		.4byte	0x49b5
 17141 49a8 09       		.uleb128 0x9
 17142 49a9 01       		.uleb128 0x1
 17143 49aa 50       		.byte	0x50
 17144 49ab 02       		.uleb128 0x2
 17145 49ac 08       		.byte	0x8
 17146 49ad 49       		.byte	0x49
 17147 49ae 09       		.uleb128 0x9
 17148 49af 01       		.uleb128 0x1
 17149 49b0 51       		.byte	0x51
 17150 49b1 02       		.uleb128 0x2
 17151 49b2 75       		.byte	0x75
 17152 49b3 00       		.sleb128 0
 17153 49b4 00       		.byte	0
 17154 49b5 08       		.uleb128 0x8
 17155 49b6 120E0000 		.4byte	.LVL799
 17156 49ba CA080000 		.4byte	0x8ca
 17157 49be CE490000 		.4byte	0x49ce
 17158 49c2 09       		.uleb128 0x9
 17159 49c3 01       		.uleb128 0x1
 17160 49c4 50       		.byte	0x50
 17161 49c5 02       		.uleb128 0x2
 17162 49c6 08       		.byte	0x8
 17163 49c7 4D       		.byte	0x4d
 17164 49c8 09       		.uleb128 0x9
 17165 49c9 01       		.uleb128 0x1
 17166 49ca 51       		.byte	0x51
 17167 49cb 01       		.uleb128 0x1
 17168 49cc 30       		.byte	0x30
 17169 49cd 00       		.byte	0
 17170 49ce 08       		.uleb128 0x8
 17171 49cf 1A0E0000 		.4byte	.LVL800
ARM GAS  C:\Users\Revanth\AppData\Local\Temp\ccqs06ys.s 			page 344


 17172 49d3 CA080000 		.4byte	0x8ca
 17173 49d7 E8490000 		.4byte	0x49e8
 17174 49db 09       		.uleb128 0x9
 17175 49dc 01       		.uleb128 0x1
 17176 49dd 50       		.byte	0x50
 17177 49de 02       		.uleb128 0x2
 17178 49df 08       		.byte	0x8
 17179 49e0 51       		.byte	0x51
 17180 49e1 09       		.uleb128 0x9
 17181 49e2 01       		.uleb128 0x1
 17182 49e3 51       		.byte	0x51
 17183 49e4 02       		.uleb128 0x2
 17184 49e5 75       		.byte	0x75
 17185 49e6 00       		.sleb128 0
 17186 49e7 00       		.byte	0
 17187 49e8 08       		.uleb128 0x8
 17188 49e9 220E0000 		.4byte	.LVL801
 17189 49ed CA080000 		.4byte	0x8ca
 17190 49f1 014A0000 		.4byte	0x4a01
 17191 49f5 09       		.uleb128 0x9
 17192 49f6 01       		.uleb128 0x1
 17193 49f7 50       		.byte	0x50
 17194 49f8 02       		.uleb128 0x2
 17195 49f9 08       		.byte	0x8
 17196 49fa 55       		.byte	0x55
 17197 49fb 09       		.uleb128 0x9
 17198 49fc 01       		.uleb128 0x1
 17199 49fd 51       		.byte	0x51
 17200 49fe 01       		.uleb128 0x1
 17201 49ff 30       		.byte	0x30
 17202 4a00 00       		.byte	0
 17203 4a01 08       		.uleb128 0x8
 17204 4a02 2A0E0000 		.4byte	.LVL802
 17205 4a06 CA080000 		.4byte	0x8ca
 17206 4a0a 1B4A0000 		.4byte	0x4a1b
 17207 4a0e 09       		.uleb128 0x9
 17208 4a0f 01       		.uleb128 0x1
 17209 4a10 50       		.byte	0x50
 17210 4a11 02       		.uleb128 0x2
 17211 4a12 08       		.byte	0x8
 17212 4a13 59       		.byte	0x59
 17213 4a14 09       		.uleb128 0x9
 17214 4a15 01       		.uleb128 0x1
 17215 4a16 51       		.byte	0x51
 17216 4a17 02       		.uleb128 0x2
 17217 4a18 75       		.byte	0x75
 17218 4a19 00       		.sleb128 0
 17219 4a1a 00       		.byte	0
 17220 4a1b 08       		.uleb128 0x8
 17221 4a1c 320E0000 		.4byte	.LVL803
 17222 4a20 CA080000 		.4byte	0x8ca
 17223 4a24 344A0000 		.4byte	0x4a34
 17224 4a28 09       		.uleb128 0x9
 17225 4a29 01       		.uleb128 0x1
 17226 4a2a 50       		.byte	0x50
 17227 4a2b 02       		.uleb128 0x2
 17228 4a2c 08       		.byte	0x8
ARM GAS  C:\Users\Revanth\AppData\Local\Temp\ccqs06ys.s 			page 345


 17229 4a2d 5D       		.byte	0x5d
 17230 4a2e 09       		.uleb128 0x9
 17231 4a2f 01       		.uleb128 0x1
 17232 4a30 51       		.byte	0x51
 17233 4a31 01       		.uleb128 0x1
 17234 4a32 30       		.byte	0x30
 17235 4a33 00       		.byte	0
 17236 4a34 08       		.uleb128 0x8
 17237 4a35 3A0E0000 		.4byte	.LVL804
 17238 4a39 CA080000 		.4byte	0x8ca
 17239 4a3d 4E4A0000 		.4byte	0x4a4e
 17240 4a41 09       		.uleb128 0x9
 17241 4a42 01       		.uleb128 0x1
 17242 4a43 50       		.byte	0x50
 17243 4a44 02       		.uleb128 0x2
 17244 4a45 08       		.byte	0x8
 17245 4a46 61       		.byte	0x61
 17246 4a47 09       		.uleb128 0x9
 17247 4a48 01       		.uleb128 0x1
 17248 4a49 51       		.byte	0x51
 17249 4a4a 02       		.uleb128 0x2
 17250 4a4b 75       		.byte	0x75
 17251 4a4c 00       		.sleb128 0
 17252 4a4d 00       		.byte	0
 17253 4a4e 08       		.uleb128 0x8
 17254 4a4f 420E0000 		.4byte	.LVL805
 17255 4a53 CA080000 		.4byte	0x8ca
 17256 4a57 674A0000 		.4byte	0x4a67
 17257 4a5b 09       		.uleb128 0x9
 17258 4a5c 01       		.uleb128 0x1
 17259 4a5d 50       		.byte	0x50
 17260 4a5e 02       		.uleb128 0x2
 17261 4a5f 08       		.byte	0x8
 17262 4a60 65       		.byte	0x65
 17263 4a61 09       		.uleb128 0x9
 17264 4a62 01       		.uleb128 0x1
 17265 4a63 51       		.byte	0x51
 17266 4a64 01       		.uleb128 0x1
 17267 4a65 30       		.byte	0x30
 17268 4a66 00       		.byte	0
 17269 4a67 08       		.uleb128 0x8
 17270 4a68 4A0E0000 		.4byte	.LVL806
 17271 4a6c CA080000 		.4byte	0x8ca
 17272 4a70 814A0000 		.4byte	0x4a81
 17273 4a74 09       		.uleb128 0x9
 17274 4a75 01       		.uleb128 0x1
 17275 4a76 50       		.byte	0x50
 17276 4a77 02       		.uleb128 0x2
 17277 4a78 08       		.byte	0x8
 17278 4a79 69       		.byte	0x69
 17279 4a7a 09       		.uleb128 0x9
 17280 4a7b 01       		.uleb128 0x1
 17281 4a7c 51       		.byte	0x51
 17282 4a7d 02       		.uleb128 0x2
 17283 4a7e 75       		.byte	0x75
 17284 4a7f 00       		.sleb128 0
 17285 4a80 00       		.byte	0
ARM GAS  C:\Users\Revanth\AppData\Local\Temp\ccqs06ys.s 			page 346


 17286 4a81 08       		.uleb128 0x8
 17287 4a82 520E0000 		.4byte	.LVL807
 17288 4a86 CA080000 		.4byte	0x8ca
 17289 4a8a 9A4A0000 		.4byte	0x4a9a
 17290 4a8e 09       		.uleb128 0x9
 17291 4a8f 01       		.uleb128 0x1
 17292 4a90 50       		.byte	0x50
 17293 4a91 02       		.uleb128 0x2
 17294 4a92 08       		.byte	0x8
 17295 4a93 6D       		.byte	0x6d
 17296 4a94 09       		.uleb128 0x9
 17297 4a95 01       		.uleb128 0x1
 17298 4a96 51       		.byte	0x51
 17299 4a97 01       		.uleb128 0x1
 17300 4a98 30       		.byte	0x30
 17301 4a99 00       		.byte	0
 17302 4a9a 08       		.uleb128 0x8
 17303 4a9b 5A0E0000 		.4byte	.LVL808
 17304 4a9f CA080000 		.4byte	0x8ca
 17305 4aa3 B44A0000 		.4byte	0x4ab4
 17306 4aa7 09       		.uleb128 0x9
 17307 4aa8 01       		.uleb128 0x1
 17308 4aa9 50       		.byte	0x50
 17309 4aaa 02       		.uleb128 0x2
 17310 4aab 08       		.byte	0x8
 17311 4aac 71       		.byte	0x71
 17312 4aad 09       		.uleb128 0x9
 17313 4aae 01       		.uleb128 0x1
 17314 4aaf 51       		.byte	0x51
 17315 4ab0 02       		.uleb128 0x2
 17316 4ab1 75       		.byte	0x75
 17317 4ab2 00       		.sleb128 0
 17318 4ab3 00       		.byte	0
 17319 4ab4 08       		.uleb128 0x8
 17320 4ab5 620E0000 		.4byte	.LVL809
 17321 4ab9 CA080000 		.4byte	0x8ca
 17322 4abd CD4A0000 		.4byte	0x4acd
 17323 4ac1 09       		.uleb128 0x9
 17324 4ac2 01       		.uleb128 0x1
 17325 4ac3 50       		.byte	0x50
 17326 4ac4 02       		.uleb128 0x2
 17327 4ac5 08       		.byte	0x8
 17328 4ac6 75       		.byte	0x75
 17329 4ac7 09       		.uleb128 0x9
 17330 4ac8 01       		.uleb128 0x1
 17331 4ac9 51       		.byte	0x51
 17332 4aca 01       		.uleb128 0x1
 17333 4acb 30       		.byte	0x30
 17334 4acc 00       		.byte	0
 17335 4acd 08       		.uleb128 0x8
 17336 4ace 6A0E0000 		.4byte	.LVL810
 17337 4ad2 CA080000 		.4byte	0x8ca
 17338 4ad6 E74A0000 		.4byte	0x4ae7
 17339 4ada 09       		.uleb128 0x9
 17340 4adb 01       		.uleb128 0x1
 17341 4adc 50       		.byte	0x50
 17342 4add 02       		.uleb128 0x2
ARM GAS  C:\Users\Revanth\AppData\Local\Temp\ccqs06ys.s 			page 347


 17343 4ade 08       		.byte	0x8
 17344 4adf 79       		.byte	0x79
 17345 4ae0 09       		.uleb128 0x9
 17346 4ae1 01       		.uleb128 0x1
 17347 4ae2 51       		.byte	0x51
 17348 4ae3 02       		.uleb128 0x2
 17349 4ae4 75       		.byte	0x75
 17350 4ae5 00       		.sleb128 0
 17351 4ae6 00       		.byte	0
 17352 4ae7 08       		.uleb128 0x8
 17353 4ae8 720E0000 		.4byte	.LVL811
 17354 4aec CA080000 		.4byte	0x8ca
 17355 4af0 004B0000 		.4byte	0x4b00
 17356 4af4 09       		.uleb128 0x9
 17357 4af5 01       		.uleb128 0x1
 17358 4af6 50       		.byte	0x50
 17359 4af7 02       		.uleb128 0x2
 17360 4af8 08       		.byte	0x8
 17361 4af9 7D       		.byte	0x7d
 17362 4afa 09       		.uleb128 0x9
 17363 4afb 01       		.uleb128 0x1
 17364 4afc 51       		.byte	0x51
 17365 4afd 01       		.uleb128 0x1
 17366 4afe 30       		.byte	0x30
 17367 4aff 00       		.byte	0
 17368 4b00 08       		.uleb128 0x8
 17369 4b01 780E0000 		.4byte	.LVL812
 17370 4b05 D85F0000 		.4byte	0x5fd8
 17371 4b09 134B0000 		.4byte	0x4b13
 17372 4b0d 09       		.uleb128 0x9
 17373 4b0e 01       		.uleb128 0x1
 17374 4b0f 50       		.byte	0x50
 17375 4b10 01       		.uleb128 0x1
 17376 4b11 30       		.byte	0x30
 17377 4b12 00       		.byte	0
 17378 4b13 08       		.uleb128 0x8
 17379 4b14 860E0000 		.4byte	.LVL813
 17380 4b18 D85F0000 		.4byte	0x5fd8
 17381 4b1c 264B0000 		.4byte	0x4b26
 17382 4b20 09       		.uleb128 0x9
 17383 4b21 01       		.uleb128 0x1
 17384 4b22 50       		.byte	0x50
 17385 4b23 01       		.uleb128 0x1
 17386 4b24 31       		.byte	0x31
 17387 4b25 00       		.byte	0
 17388 4b26 08       		.uleb128 0x8
 17389 4b27 8C0E0000 		.4byte	.LVL814
 17390 4b2b 07090000 		.4byte	0x907
 17391 4b2f 394B0000 		.4byte	0x4b39
 17392 4b33 09       		.uleb128 0x9
 17393 4b34 01       		.uleb128 0x1
 17394 4b35 50       		.byte	0x50
 17395 4b36 01       		.uleb128 0x1
 17396 4b37 31       		.byte	0x31
 17397 4b38 00       		.byte	0
 17398 4b39 08       		.uleb128 0x8
 17399 4b3a 940E0000 		.4byte	.LVL815
ARM GAS  C:\Users\Revanth\AppData\Local\Temp\ccqs06ys.s 			page 348


 17400 4b3e CA080000 		.4byte	0x8ca
 17401 4b42 524B0000 		.4byte	0x4b52
 17402 4b46 09       		.uleb128 0x9
 17403 4b47 01       		.uleb128 0x1
 17404 4b48 50       		.byte	0x50
 17405 4b49 02       		.uleb128 0x2
 17406 4b4a 08       		.byte	0x8
 17407 4b4b 20       		.byte	0x20
 17408 4b4c 09       		.uleb128 0x9
 17409 4b4d 01       		.uleb128 0x1
 17410 4b4e 51       		.byte	0x51
 17411 4b4f 01       		.uleb128 0x1
 17412 4b50 30       		.byte	0x30
 17413 4b51 00       		.byte	0
 17414 4b52 08       		.uleb128 0x8
 17415 4b53 9C0E0000 		.4byte	.LVL816
 17416 4b57 CA080000 		.4byte	0x8ca
 17417 4b5b 6B4B0000 		.4byte	0x4b6b
 17418 4b5f 09       		.uleb128 0x9
 17419 4b60 01       		.uleb128 0x1
 17420 4b61 50       		.byte	0x50
 17421 4b62 02       		.uleb128 0x2
 17422 4b63 08       		.byte	0x8
 17423 4b64 24       		.byte	0x24
 17424 4b65 09       		.uleb128 0x9
 17425 4b66 01       		.uleb128 0x1
 17426 4b67 51       		.byte	0x51
 17427 4b68 01       		.uleb128 0x1
 17428 4b69 31       		.byte	0x31
 17429 4b6a 00       		.byte	0
 17430 4b6b 08       		.uleb128 0x8
 17431 4b6c A40E0000 		.4byte	.LVL817
 17432 4b70 CA080000 		.4byte	0x8ca
 17433 4b74 844B0000 		.4byte	0x4b84
 17434 4b78 09       		.uleb128 0x9
 17435 4b79 01       		.uleb128 0x1
 17436 4b7a 50       		.byte	0x50
 17437 4b7b 02       		.uleb128 0x2
 17438 4b7c 08       		.byte	0x8
 17439 4b7d 28       		.byte	0x28
 17440 4b7e 09       		.uleb128 0x9
 17441 4b7f 01       		.uleb128 0x1
 17442 4b80 51       		.byte	0x51
 17443 4b81 01       		.uleb128 0x1
 17444 4b82 30       		.byte	0x30
 17445 4b83 00       		.byte	0
 17446 4b84 08       		.uleb128 0x8
 17447 4b85 AC0E0000 		.4byte	.LVL818
 17448 4b89 CA080000 		.4byte	0x8ca
 17449 4b8d 9D4B0000 		.4byte	0x4b9d
 17450 4b91 09       		.uleb128 0x9
 17451 4b92 01       		.uleb128 0x1
 17452 4b93 50       		.byte	0x50
 17453 4b94 02       		.uleb128 0x2
 17454 4b95 08       		.byte	0x8
 17455 4b96 2C       		.byte	0x2c
 17456 4b97 09       		.uleb128 0x9
ARM GAS  C:\Users\Revanth\AppData\Local\Temp\ccqs06ys.s 			page 349


 17457 4b98 01       		.uleb128 0x1
 17458 4b99 51       		.byte	0x51
 17459 4b9a 01       		.uleb128 0x1
 17460 4b9b 31       		.byte	0x31
 17461 4b9c 00       		.byte	0
 17462 4b9d 08       		.uleb128 0x8
 17463 4b9e B40E0000 		.4byte	.LVL819
 17464 4ba2 CA080000 		.4byte	0x8ca
 17465 4ba6 B64B0000 		.4byte	0x4bb6
 17466 4baa 09       		.uleb128 0x9
 17467 4bab 01       		.uleb128 0x1
 17468 4bac 50       		.byte	0x50
 17469 4bad 02       		.uleb128 0x2
 17470 4bae 08       		.byte	0x8
 17471 4baf 30       		.byte	0x30
 17472 4bb0 09       		.uleb128 0x9
 17473 4bb1 01       		.uleb128 0x1
 17474 4bb2 51       		.byte	0x51
 17475 4bb3 01       		.uleb128 0x1
 17476 4bb4 30       		.byte	0x30
 17477 4bb5 00       		.byte	0
 17478 4bb6 08       		.uleb128 0x8
 17479 4bb7 BC0E0000 		.4byte	.LVL820
 17480 4bbb CA080000 		.4byte	0x8ca
 17481 4bbf CF4B0000 		.4byte	0x4bcf
 17482 4bc3 09       		.uleb128 0x9
 17483 4bc4 01       		.uleb128 0x1
 17484 4bc5 50       		.byte	0x50
 17485 4bc6 02       		.uleb128 0x2
 17486 4bc7 08       		.byte	0x8
 17487 4bc8 34       		.byte	0x34
 17488 4bc9 09       		.uleb128 0x9
 17489 4bca 01       		.uleb128 0x1
 17490 4bcb 51       		.byte	0x51
 17491 4bcc 01       		.uleb128 0x1
 17492 4bcd 31       		.byte	0x31
 17493 4bce 00       		.byte	0
 17494 4bcf 08       		.uleb128 0x8
 17495 4bd0 C40E0000 		.4byte	.LVL821
 17496 4bd4 CA080000 		.4byte	0x8ca
 17497 4bd8 E84B0000 		.4byte	0x4be8
 17498 4bdc 09       		.uleb128 0x9
 17499 4bdd 01       		.uleb128 0x1
 17500 4bde 50       		.byte	0x50
 17501 4bdf 02       		.uleb128 0x2
 17502 4be0 08       		.byte	0x8
 17503 4be1 38       		.byte	0x38
 17504 4be2 09       		.uleb128 0x9
 17505 4be3 01       		.uleb128 0x1
 17506 4be4 51       		.byte	0x51
 17507 4be5 01       		.uleb128 0x1
 17508 4be6 30       		.byte	0x30
 17509 4be7 00       		.byte	0
 17510 4be8 08       		.uleb128 0x8
 17511 4be9 CC0E0000 		.4byte	.LVL822
 17512 4bed CA080000 		.4byte	0x8ca
 17513 4bf1 014C0000 		.4byte	0x4c01
ARM GAS  C:\Users\Revanth\AppData\Local\Temp\ccqs06ys.s 			page 350


 17514 4bf5 09       		.uleb128 0x9
 17515 4bf6 01       		.uleb128 0x1
 17516 4bf7 50       		.byte	0x50
 17517 4bf8 02       		.uleb128 0x2
 17518 4bf9 08       		.byte	0x8
 17519 4bfa 3C       		.byte	0x3c
 17520 4bfb 09       		.uleb128 0x9
 17521 4bfc 01       		.uleb128 0x1
 17522 4bfd 51       		.byte	0x51
 17523 4bfe 01       		.uleb128 0x1
 17524 4bff 31       		.byte	0x31
 17525 4c00 00       		.byte	0
 17526 4c01 08       		.uleb128 0x8
 17527 4c02 D40E0000 		.4byte	.LVL823
 17528 4c06 CA080000 		.4byte	0x8ca
 17529 4c0a 1A4C0000 		.4byte	0x4c1a
 17530 4c0e 09       		.uleb128 0x9
 17531 4c0f 01       		.uleb128 0x1
 17532 4c10 50       		.byte	0x50
 17533 4c11 02       		.uleb128 0x2
 17534 4c12 08       		.byte	0x8
 17535 4c13 40       		.byte	0x40
 17536 4c14 09       		.uleb128 0x9
 17537 4c15 01       		.uleb128 0x1
 17538 4c16 51       		.byte	0x51
 17539 4c17 01       		.uleb128 0x1
 17540 4c18 30       		.byte	0x30
 17541 4c19 00       		.byte	0
 17542 4c1a 08       		.uleb128 0x8
 17543 4c1b DC0E0000 		.4byte	.LVL824
 17544 4c1f CA080000 		.4byte	0x8ca
 17545 4c23 334C0000 		.4byte	0x4c33
 17546 4c27 09       		.uleb128 0x9
 17547 4c28 01       		.uleb128 0x1
 17548 4c29 50       		.byte	0x50
 17549 4c2a 02       		.uleb128 0x2
 17550 4c2b 08       		.byte	0x8
 17551 4c2c 44       		.byte	0x44
 17552 4c2d 09       		.uleb128 0x9
 17553 4c2e 01       		.uleb128 0x1
 17554 4c2f 51       		.byte	0x51
 17555 4c30 01       		.uleb128 0x1
 17556 4c31 31       		.byte	0x31
 17557 4c32 00       		.byte	0
 17558 4c33 08       		.uleb128 0x8
 17559 4c34 E40E0000 		.4byte	.LVL825
 17560 4c38 CA080000 		.4byte	0x8ca
 17561 4c3c 4C4C0000 		.4byte	0x4c4c
 17562 4c40 09       		.uleb128 0x9
 17563 4c41 01       		.uleb128 0x1
 17564 4c42 50       		.byte	0x50
 17565 4c43 02       		.uleb128 0x2
 17566 4c44 08       		.byte	0x8
 17567 4c45 48       		.byte	0x48
 17568 4c46 09       		.uleb128 0x9
 17569 4c47 01       		.uleb128 0x1
 17570 4c48 51       		.byte	0x51
ARM GAS  C:\Users\Revanth\AppData\Local\Temp\ccqs06ys.s 			page 351


 17571 4c49 01       		.uleb128 0x1
 17572 4c4a 30       		.byte	0x30
 17573 4c4b 00       		.byte	0
 17574 4c4c 08       		.uleb128 0x8
 17575 4c4d EC0E0000 		.4byte	.LVL826
 17576 4c51 CA080000 		.4byte	0x8ca
 17577 4c55 654C0000 		.4byte	0x4c65
 17578 4c59 09       		.uleb128 0x9
 17579 4c5a 01       		.uleb128 0x1
 17580 4c5b 50       		.byte	0x50
 17581 4c5c 02       		.uleb128 0x2
 17582 4c5d 08       		.byte	0x8
 17583 4c5e 4C       		.byte	0x4c
 17584 4c5f 09       		.uleb128 0x9
 17585 4c60 01       		.uleb128 0x1
 17586 4c61 51       		.byte	0x51
 17587 4c62 01       		.uleb128 0x1
 17588 4c63 31       		.byte	0x31
 17589 4c64 00       		.byte	0
 17590 4c65 08       		.uleb128 0x8
 17591 4c66 F40E0000 		.4byte	.LVL827
 17592 4c6a CA080000 		.4byte	0x8ca
 17593 4c6e 7E4C0000 		.4byte	0x4c7e
 17594 4c72 09       		.uleb128 0x9
 17595 4c73 01       		.uleb128 0x1
 17596 4c74 50       		.byte	0x50
 17597 4c75 02       		.uleb128 0x2
 17598 4c76 08       		.byte	0x8
 17599 4c77 50       		.byte	0x50
 17600 4c78 09       		.uleb128 0x9
 17601 4c79 01       		.uleb128 0x1
 17602 4c7a 51       		.byte	0x51
 17603 4c7b 01       		.uleb128 0x1
 17604 4c7c 30       		.byte	0x30
 17605 4c7d 00       		.byte	0
 17606 4c7e 08       		.uleb128 0x8
 17607 4c7f FC0E0000 		.4byte	.LVL828
 17608 4c83 CA080000 		.4byte	0x8ca
 17609 4c87 974C0000 		.4byte	0x4c97
 17610 4c8b 09       		.uleb128 0x9
 17611 4c8c 01       		.uleb128 0x1
 17612 4c8d 50       		.byte	0x50
 17613 4c8e 02       		.uleb128 0x2
 17614 4c8f 08       		.byte	0x8
 17615 4c90 54       		.byte	0x54
 17616 4c91 09       		.uleb128 0x9
 17617 4c92 01       		.uleb128 0x1
 17618 4c93 51       		.byte	0x51
 17619 4c94 01       		.uleb128 0x1
 17620 4c95 31       		.byte	0x31
 17621 4c96 00       		.byte	0
 17622 4c97 08       		.uleb128 0x8
 17623 4c98 040F0000 		.4byte	.LVL829
 17624 4c9c CA080000 		.4byte	0x8ca
 17625 4ca0 B04C0000 		.4byte	0x4cb0
 17626 4ca4 09       		.uleb128 0x9
 17627 4ca5 01       		.uleb128 0x1
ARM GAS  C:\Users\Revanth\AppData\Local\Temp\ccqs06ys.s 			page 352


 17628 4ca6 50       		.byte	0x50
 17629 4ca7 02       		.uleb128 0x2
 17630 4ca8 08       		.byte	0x8
 17631 4ca9 58       		.byte	0x58
 17632 4caa 09       		.uleb128 0x9
 17633 4cab 01       		.uleb128 0x1
 17634 4cac 51       		.byte	0x51
 17635 4cad 01       		.uleb128 0x1
 17636 4cae 30       		.byte	0x30
 17637 4caf 00       		.byte	0
 17638 4cb0 08       		.uleb128 0x8
 17639 4cb1 0C0F0000 		.4byte	.LVL830
 17640 4cb5 CA080000 		.4byte	0x8ca
 17641 4cb9 C94C0000 		.4byte	0x4cc9
 17642 4cbd 09       		.uleb128 0x9
 17643 4cbe 01       		.uleb128 0x1
 17644 4cbf 50       		.byte	0x50
 17645 4cc0 02       		.uleb128 0x2
 17646 4cc1 08       		.byte	0x8
 17647 4cc2 5C       		.byte	0x5c
 17648 4cc3 09       		.uleb128 0x9
 17649 4cc4 01       		.uleb128 0x1
 17650 4cc5 51       		.byte	0x51
 17651 4cc6 01       		.uleb128 0x1
 17652 4cc7 31       		.byte	0x31
 17653 4cc8 00       		.byte	0
 17654 4cc9 08       		.uleb128 0x8
 17655 4cca 140F0000 		.4byte	.LVL831
 17656 4cce CA080000 		.4byte	0x8ca
 17657 4cd2 E24C0000 		.4byte	0x4ce2
 17658 4cd6 09       		.uleb128 0x9
 17659 4cd7 01       		.uleb128 0x1
 17660 4cd8 50       		.byte	0x50
 17661 4cd9 02       		.uleb128 0x2
 17662 4cda 08       		.byte	0x8
 17663 4cdb 60       		.byte	0x60
 17664 4cdc 09       		.uleb128 0x9
 17665 4cdd 01       		.uleb128 0x1
 17666 4cde 51       		.byte	0x51
 17667 4cdf 01       		.uleb128 0x1
 17668 4ce0 30       		.byte	0x30
 17669 4ce1 00       		.byte	0
 17670 4ce2 08       		.uleb128 0x8
 17671 4ce3 1C0F0000 		.4byte	.LVL832
 17672 4ce7 CA080000 		.4byte	0x8ca
 17673 4ceb FB4C0000 		.4byte	0x4cfb
 17674 4cef 09       		.uleb128 0x9
 17675 4cf0 01       		.uleb128 0x1
 17676 4cf1 50       		.byte	0x50
 17677 4cf2 02       		.uleb128 0x2
 17678 4cf3 08       		.byte	0x8
 17679 4cf4 64       		.byte	0x64
 17680 4cf5 09       		.uleb128 0x9
 17681 4cf6 01       		.uleb128 0x1
 17682 4cf7 51       		.byte	0x51
 17683 4cf8 01       		.uleb128 0x1
 17684 4cf9 31       		.byte	0x31
ARM GAS  C:\Users\Revanth\AppData\Local\Temp\ccqs06ys.s 			page 353


 17685 4cfa 00       		.byte	0
 17686 4cfb 08       		.uleb128 0x8
 17687 4cfc 240F0000 		.4byte	.LVL833
 17688 4d00 CA080000 		.4byte	0x8ca
 17689 4d04 144D0000 		.4byte	0x4d14
 17690 4d08 09       		.uleb128 0x9
 17691 4d09 01       		.uleb128 0x1
 17692 4d0a 50       		.byte	0x50
 17693 4d0b 02       		.uleb128 0x2
 17694 4d0c 08       		.byte	0x8
 17695 4d0d 68       		.byte	0x68
 17696 4d0e 09       		.uleb128 0x9
 17697 4d0f 01       		.uleb128 0x1
 17698 4d10 51       		.byte	0x51
 17699 4d11 01       		.uleb128 0x1
 17700 4d12 30       		.byte	0x30
 17701 4d13 00       		.byte	0
 17702 4d14 08       		.uleb128 0x8
 17703 4d15 2C0F0000 		.4byte	.LVL834
 17704 4d19 CA080000 		.4byte	0x8ca
 17705 4d1d 2D4D0000 		.4byte	0x4d2d
 17706 4d21 09       		.uleb128 0x9
 17707 4d22 01       		.uleb128 0x1
 17708 4d23 50       		.byte	0x50
 17709 4d24 02       		.uleb128 0x2
 17710 4d25 08       		.byte	0x8
 17711 4d26 6C       		.byte	0x6c
 17712 4d27 09       		.uleb128 0x9
 17713 4d28 01       		.uleb128 0x1
 17714 4d29 51       		.byte	0x51
 17715 4d2a 01       		.uleb128 0x1
 17716 4d2b 31       		.byte	0x31
 17717 4d2c 00       		.byte	0
 17718 4d2d 08       		.uleb128 0x8
 17719 4d2e 340F0000 		.4byte	.LVL835
 17720 4d32 CA080000 		.4byte	0x8ca
 17721 4d36 464D0000 		.4byte	0x4d46
 17722 4d3a 09       		.uleb128 0x9
 17723 4d3b 01       		.uleb128 0x1
 17724 4d3c 50       		.byte	0x50
 17725 4d3d 02       		.uleb128 0x2
 17726 4d3e 08       		.byte	0x8
 17727 4d3f 70       		.byte	0x70
 17728 4d40 09       		.uleb128 0x9
 17729 4d41 01       		.uleb128 0x1
 17730 4d42 51       		.byte	0x51
 17731 4d43 01       		.uleb128 0x1
 17732 4d44 30       		.byte	0x30
 17733 4d45 00       		.byte	0
 17734 4d46 08       		.uleb128 0x8
 17735 4d47 3C0F0000 		.4byte	.LVL836
 17736 4d4b CA080000 		.4byte	0x8ca
 17737 4d4f 5F4D0000 		.4byte	0x4d5f
 17738 4d53 09       		.uleb128 0x9
 17739 4d54 01       		.uleb128 0x1
 17740 4d55 50       		.byte	0x50
 17741 4d56 02       		.uleb128 0x2
ARM GAS  C:\Users\Revanth\AppData\Local\Temp\ccqs06ys.s 			page 354


 17742 4d57 08       		.byte	0x8
 17743 4d58 74       		.byte	0x74
 17744 4d59 09       		.uleb128 0x9
 17745 4d5a 01       		.uleb128 0x1
 17746 4d5b 51       		.byte	0x51
 17747 4d5c 01       		.uleb128 0x1
 17748 4d5d 31       		.byte	0x31
 17749 4d5e 00       		.byte	0
 17750 4d5f 08       		.uleb128 0x8
 17751 4d60 440F0000 		.4byte	.LVL837
 17752 4d64 CA080000 		.4byte	0x8ca
 17753 4d68 784D0000 		.4byte	0x4d78
 17754 4d6c 09       		.uleb128 0x9
 17755 4d6d 01       		.uleb128 0x1
 17756 4d6e 50       		.byte	0x50
 17757 4d6f 02       		.uleb128 0x2
 17758 4d70 08       		.byte	0x8
 17759 4d71 78       		.byte	0x78
 17760 4d72 09       		.uleb128 0x9
 17761 4d73 01       		.uleb128 0x1
 17762 4d74 51       		.byte	0x51
 17763 4d75 01       		.uleb128 0x1
 17764 4d76 30       		.byte	0x30
 17765 4d77 00       		.byte	0
 17766 4d78 08       		.uleb128 0x8
 17767 4d79 4C0F0000 		.4byte	.LVL838
 17768 4d7d CA080000 		.4byte	0x8ca
 17769 4d81 914D0000 		.4byte	0x4d91
 17770 4d85 09       		.uleb128 0x9
 17771 4d86 01       		.uleb128 0x1
 17772 4d87 50       		.byte	0x50
 17773 4d88 02       		.uleb128 0x2
 17774 4d89 08       		.byte	0x8
 17775 4d8a 7C       		.byte	0x7c
 17776 4d8b 09       		.uleb128 0x9
 17777 4d8c 01       		.uleb128 0x1
 17778 4d8d 51       		.byte	0x51
 17779 4d8e 01       		.uleb128 0x1
 17780 4d8f 31       		.byte	0x31
 17781 4d90 00       		.byte	0
 17782 4d91 08       		.uleb128 0x8
 17783 4d92 540F0000 		.4byte	.LVL839
 17784 4d96 CA080000 		.4byte	0x8ca
 17785 4d9a AA4D0000 		.4byte	0x4daa
 17786 4d9e 09       		.uleb128 0x9
 17787 4d9f 01       		.uleb128 0x1
 17788 4da0 50       		.byte	0x50
 17789 4da1 02       		.uleb128 0x2
 17790 4da2 08       		.byte	0x8
 17791 4da3 21       		.byte	0x21
 17792 4da4 09       		.uleb128 0x9
 17793 4da5 01       		.uleb128 0x1
 17794 4da6 51       		.byte	0x51
 17795 4da7 01       		.uleb128 0x1
 17796 4da8 30       		.byte	0x30
 17797 4da9 00       		.byte	0
 17798 4daa 08       		.uleb128 0x8
ARM GAS  C:\Users\Revanth\AppData\Local\Temp\ccqs06ys.s 			page 355


 17799 4dab 5C0F0000 		.4byte	.LVL840
 17800 4daf CA080000 		.4byte	0x8ca
 17801 4db3 C44D0000 		.4byte	0x4dc4
 17802 4db7 09       		.uleb128 0x9
 17803 4db8 01       		.uleb128 0x1
 17804 4db9 50       		.byte	0x50
 17805 4dba 02       		.uleb128 0x2
 17806 4dbb 08       		.byte	0x8
 17807 4dbc 25       		.byte	0x25
 17808 4dbd 09       		.uleb128 0x9
 17809 4dbe 01       		.uleb128 0x1
 17810 4dbf 51       		.byte	0x51
 17811 4dc0 02       		.uleb128 0x2
 17812 4dc1 75       		.byte	0x75
 17813 4dc2 00       		.sleb128 0
 17814 4dc3 00       		.byte	0
 17815 4dc4 08       		.uleb128 0x8
 17816 4dc5 640F0000 		.4byte	.LVL841
 17817 4dc9 CA080000 		.4byte	0x8ca
 17818 4dcd DD4D0000 		.4byte	0x4ddd
 17819 4dd1 09       		.uleb128 0x9
 17820 4dd2 01       		.uleb128 0x1
 17821 4dd3 50       		.byte	0x50
 17822 4dd4 02       		.uleb128 0x2
 17823 4dd5 08       		.byte	0x8
 17824 4dd6 29       		.byte	0x29
 17825 4dd7 09       		.uleb128 0x9
 17826 4dd8 01       		.uleb128 0x1
 17827 4dd9 51       		.byte	0x51
 17828 4dda 01       		.uleb128 0x1
 17829 4ddb 30       		.byte	0x30
 17830 4ddc 00       		.byte	0
 17831 4ddd 08       		.uleb128 0x8
 17832 4dde 6C0F0000 		.4byte	.LVL842
 17833 4de2 CA080000 		.4byte	0x8ca
 17834 4de6 F74D0000 		.4byte	0x4df7
 17835 4dea 09       		.uleb128 0x9
 17836 4deb 01       		.uleb128 0x1
 17837 4dec 50       		.byte	0x50
 17838 4ded 02       		.uleb128 0x2
 17839 4dee 08       		.byte	0x8
 17840 4def 2D       		.byte	0x2d
 17841 4df0 09       		.uleb128 0x9
 17842 4df1 01       		.uleb128 0x1
 17843 4df2 51       		.byte	0x51
 17844 4df3 02       		.uleb128 0x2
 17845 4df4 75       		.byte	0x75
 17846 4df5 00       		.sleb128 0
 17847 4df6 00       		.byte	0
 17848 4df7 08       		.uleb128 0x8
 17849 4df8 740F0000 		.4byte	.LVL843
 17850 4dfc CA080000 		.4byte	0x8ca
 17851 4e00 104E0000 		.4byte	0x4e10
 17852 4e04 09       		.uleb128 0x9
 17853 4e05 01       		.uleb128 0x1
 17854 4e06 50       		.byte	0x50
 17855 4e07 02       		.uleb128 0x2
ARM GAS  C:\Users\Revanth\AppData\Local\Temp\ccqs06ys.s 			page 356


 17856 4e08 08       		.byte	0x8
 17857 4e09 31       		.byte	0x31
 17858 4e0a 09       		.uleb128 0x9
 17859 4e0b 01       		.uleb128 0x1
 17860 4e0c 51       		.byte	0x51
 17861 4e0d 01       		.uleb128 0x1
 17862 4e0e 30       		.byte	0x30
 17863 4e0f 00       		.byte	0
 17864 4e10 08       		.uleb128 0x8
 17865 4e11 7C0F0000 		.4byte	.LVL844
 17866 4e15 CA080000 		.4byte	0x8ca
 17867 4e19 2A4E0000 		.4byte	0x4e2a
 17868 4e1d 09       		.uleb128 0x9
 17869 4e1e 01       		.uleb128 0x1
 17870 4e1f 50       		.byte	0x50
 17871 4e20 02       		.uleb128 0x2
 17872 4e21 08       		.byte	0x8
 17873 4e22 35       		.byte	0x35
 17874 4e23 09       		.uleb128 0x9
 17875 4e24 01       		.uleb128 0x1
 17876 4e25 51       		.byte	0x51
 17877 4e26 02       		.uleb128 0x2
 17878 4e27 75       		.byte	0x75
 17879 4e28 00       		.sleb128 0
 17880 4e29 00       		.byte	0
 17881 4e2a 08       		.uleb128 0x8
 17882 4e2b 840F0000 		.4byte	.LVL845
 17883 4e2f CA080000 		.4byte	0x8ca
 17884 4e33 434E0000 		.4byte	0x4e43
 17885 4e37 09       		.uleb128 0x9
 17886 4e38 01       		.uleb128 0x1
 17887 4e39 50       		.byte	0x50
 17888 4e3a 02       		.uleb128 0x2
 17889 4e3b 08       		.byte	0x8
 17890 4e3c 39       		.byte	0x39
 17891 4e3d 09       		.uleb128 0x9
 17892 4e3e 01       		.uleb128 0x1
 17893 4e3f 51       		.byte	0x51
 17894 4e40 01       		.uleb128 0x1
 17895 4e41 30       		.byte	0x30
 17896 4e42 00       		.byte	0
 17897 4e43 08       		.uleb128 0x8
 17898 4e44 8C0F0000 		.4byte	.LVL846
 17899 4e48 CA080000 		.4byte	0x8ca
 17900 4e4c 5D4E0000 		.4byte	0x4e5d
 17901 4e50 09       		.uleb128 0x9
 17902 4e51 01       		.uleb128 0x1
 17903 4e52 50       		.byte	0x50
 17904 4e53 02       		.uleb128 0x2
 17905 4e54 08       		.byte	0x8
 17906 4e55 3D       		.byte	0x3d
 17907 4e56 09       		.uleb128 0x9
 17908 4e57 01       		.uleb128 0x1
 17909 4e58 51       		.byte	0x51
 17910 4e59 02       		.uleb128 0x2
 17911 4e5a 75       		.byte	0x75
 17912 4e5b 00       		.sleb128 0
ARM GAS  C:\Users\Revanth\AppData\Local\Temp\ccqs06ys.s 			page 357


 17913 4e5c 00       		.byte	0
 17914 4e5d 08       		.uleb128 0x8
 17915 4e5e 940F0000 		.4byte	.LVL847
 17916 4e62 CA080000 		.4byte	0x8ca
 17917 4e66 764E0000 		.4byte	0x4e76
 17918 4e6a 09       		.uleb128 0x9
 17919 4e6b 01       		.uleb128 0x1
 17920 4e6c 50       		.byte	0x50
 17921 4e6d 02       		.uleb128 0x2
 17922 4e6e 08       		.byte	0x8
 17923 4e6f 41       		.byte	0x41
 17924 4e70 09       		.uleb128 0x9
 17925 4e71 01       		.uleb128 0x1
 17926 4e72 51       		.byte	0x51
 17927 4e73 01       		.uleb128 0x1
 17928 4e74 30       		.byte	0x30
 17929 4e75 00       		.byte	0
 17930 4e76 08       		.uleb128 0x8
 17931 4e77 9C0F0000 		.4byte	.LVL848
 17932 4e7b CA080000 		.4byte	0x8ca
 17933 4e7f 904E0000 		.4byte	0x4e90
 17934 4e83 09       		.uleb128 0x9
 17935 4e84 01       		.uleb128 0x1
 17936 4e85 50       		.byte	0x50
 17937 4e86 02       		.uleb128 0x2
 17938 4e87 08       		.byte	0x8
 17939 4e88 45       		.byte	0x45
 17940 4e89 09       		.uleb128 0x9
 17941 4e8a 01       		.uleb128 0x1
 17942 4e8b 51       		.byte	0x51
 17943 4e8c 02       		.uleb128 0x2
 17944 4e8d 75       		.byte	0x75
 17945 4e8e 00       		.sleb128 0
 17946 4e8f 00       		.byte	0
 17947 4e90 08       		.uleb128 0x8
 17948 4e91 A40F0000 		.4byte	.LVL849
 17949 4e95 CA080000 		.4byte	0x8ca
 17950 4e99 A94E0000 		.4byte	0x4ea9
 17951 4e9d 09       		.uleb128 0x9
 17952 4e9e 01       		.uleb128 0x1
 17953 4e9f 50       		.byte	0x50
 17954 4ea0 02       		.uleb128 0x2
 17955 4ea1 08       		.byte	0x8
 17956 4ea2 49       		.byte	0x49
 17957 4ea3 09       		.uleb128 0x9
 17958 4ea4 01       		.uleb128 0x1
 17959 4ea5 51       		.byte	0x51
 17960 4ea6 01       		.uleb128 0x1
 17961 4ea7 30       		.byte	0x30
 17962 4ea8 00       		.byte	0
 17963 4ea9 08       		.uleb128 0x8
 17964 4eaa AC0F0000 		.4byte	.LVL850
 17965 4eae CA080000 		.4byte	0x8ca
 17966 4eb2 C34E0000 		.4byte	0x4ec3
 17967 4eb6 09       		.uleb128 0x9
 17968 4eb7 01       		.uleb128 0x1
 17969 4eb8 50       		.byte	0x50
ARM GAS  C:\Users\Revanth\AppData\Local\Temp\ccqs06ys.s 			page 358


 17970 4eb9 02       		.uleb128 0x2
 17971 4eba 08       		.byte	0x8
 17972 4ebb 4D       		.byte	0x4d
 17973 4ebc 09       		.uleb128 0x9
 17974 4ebd 01       		.uleb128 0x1
 17975 4ebe 51       		.byte	0x51
 17976 4ebf 02       		.uleb128 0x2
 17977 4ec0 75       		.byte	0x75
 17978 4ec1 00       		.sleb128 0
 17979 4ec2 00       		.byte	0
 17980 4ec3 08       		.uleb128 0x8
 17981 4ec4 B40F0000 		.4byte	.LVL851
 17982 4ec8 CA080000 		.4byte	0x8ca
 17983 4ecc DC4E0000 		.4byte	0x4edc
 17984 4ed0 09       		.uleb128 0x9
 17985 4ed1 01       		.uleb128 0x1
 17986 4ed2 50       		.byte	0x50
 17987 4ed3 02       		.uleb128 0x2
 17988 4ed4 08       		.byte	0x8
 17989 4ed5 51       		.byte	0x51
 17990 4ed6 09       		.uleb128 0x9
 17991 4ed7 01       		.uleb128 0x1
 17992 4ed8 51       		.byte	0x51
 17993 4ed9 01       		.uleb128 0x1
 17994 4eda 30       		.byte	0x30
 17995 4edb 00       		.byte	0
 17996 4edc 08       		.uleb128 0x8
 17997 4edd BC0F0000 		.4byte	.LVL852
 17998 4ee1 CA080000 		.4byte	0x8ca
 17999 4ee5 F64E0000 		.4byte	0x4ef6
 18000 4ee9 09       		.uleb128 0x9
 18001 4eea 01       		.uleb128 0x1
 18002 4eeb 50       		.byte	0x50
 18003 4eec 02       		.uleb128 0x2
 18004 4eed 08       		.byte	0x8
 18005 4eee 55       		.byte	0x55
 18006 4eef 09       		.uleb128 0x9
 18007 4ef0 01       		.uleb128 0x1
 18008 4ef1 51       		.byte	0x51
 18009 4ef2 02       		.uleb128 0x2
 18010 4ef3 75       		.byte	0x75
 18011 4ef4 00       		.sleb128 0
 18012 4ef5 00       		.byte	0
 18013 4ef6 08       		.uleb128 0x8
 18014 4ef7 C40F0000 		.4byte	.LVL853
 18015 4efb CA080000 		.4byte	0x8ca
 18016 4eff 0F4F0000 		.4byte	0x4f0f
 18017 4f03 09       		.uleb128 0x9
 18018 4f04 01       		.uleb128 0x1
 18019 4f05 50       		.byte	0x50
 18020 4f06 02       		.uleb128 0x2
 18021 4f07 08       		.byte	0x8
 18022 4f08 59       		.byte	0x59
 18023 4f09 09       		.uleb128 0x9
 18024 4f0a 01       		.uleb128 0x1
 18025 4f0b 51       		.byte	0x51
 18026 4f0c 01       		.uleb128 0x1
ARM GAS  C:\Users\Revanth\AppData\Local\Temp\ccqs06ys.s 			page 359


 18027 4f0d 30       		.byte	0x30
 18028 4f0e 00       		.byte	0
 18029 4f0f 08       		.uleb128 0x8
 18030 4f10 CC0F0000 		.4byte	.LVL854
 18031 4f14 CA080000 		.4byte	0x8ca
 18032 4f18 294F0000 		.4byte	0x4f29
 18033 4f1c 09       		.uleb128 0x9
 18034 4f1d 01       		.uleb128 0x1
 18035 4f1e 50       		.byte	0x50
 18036 4f1f 02       		.uleb128 0x2
 18037 4f20 08       		.byte	0x8
 18038 4f21 5D       		.byte	0x5d
 18039 4f22 09       		.uleb128 0x9
 18040 4f23 01       		.uleb128 0x1
 18041 4f24 51       		.byte	0x51
 18042 4f25 02       		.uleb128 0x2
 18043 4f26 75       		.byte	0x75
 18044 4f27 00       		.sleb128 0
 18045 4f28 00       		.byte	0
 18046 4f29 08       		.uleb128 0x8
 18047 4f2a D40F0000 		.4byte	.LVL855
 18048 4f2e CA080000 		.4byte	0x8ca
 18049 4f32 424F0000 		.4byte	0x4f42
 18050 4f36 09       		.uleb128 0x9
 18051 4f37 01       		.uleb128 0x1
 18052 4f38 50       		.byte	0x50
 18053 4f39 02       		.uleb128 0x2
 18054 4f3a 08       		.byte	0x8
 18055 4f3b 61       		.byte	0x61
 18056 4f3c 09       		.uleb128 0x9
 18057 4f3d 01       		.uleb128 0x1
 18058 4f3e 51       		.byte	0x51
 18059 4f3f 01       		.uleb128 0x1
 18060 4f40 30       		.byte	0x30
 18061 4f41 00       		.byte	0
 18062 4f42 08       		.uleb128 0x8
 18063 4f43 DC0F0000 		.4byte	.LVL856
 18064 4f47 CA080000 		.4byte	0x8ca
 18065 4f4b 5C4F0000 		.4byte	0x4f5c
 18066 4f4f 09       		.uleb128 0x9
 18067 4f50 01       		.uleb128 0x1
 18068 4f51 50       		.byte	0x50
 18069 4f52 02       		.uleb128 0x2
 18070 4f53 08       		.byte	0x8
 18071 4f54 65       		.byte	0x65
 18072 4f55 09       		.uleb128 0x9
 18073 4f56 01       		.uleb128 0x1
 18074 4f57 51       		.byte	0x51
 18075 4f58 02       		.uleb128 0x2
 18076 4f59 75       		.byte	0x75
 18077 4f5a 00       		.sleb128 0
 18078 4f5b 00       		.byte	0
 18079 4f5c 08       		.uleb128 0x8
 18080 4f5d E40F0000 		.4byte	.LVL857
 18081 4f61 CA080000 		.4byte	0x8ca
 18082 4f65 754F0000 		.4byte	0x4f75
 18083 4f69 09       		.uleb128 0x9
ARM GAS  C:\Users\Revanth\AppData\Local\Temp\ccqs06ys.s 			page 360


 18084 4f6a 01       		.uleb128 0x1
 18085 4f6b 50       		.byte	0x50
 18086 4f6c 02       		.uleb128 0x2
 18087 4f6d 08       		.byte	0x8
 18088 4f6e 69       		.byte	0x69
 18089 4f6f 09       		.uleb128 0x9
 18090 4f70 01       		.uleb128 0x1
 18091 4f71 51       		.byte	0x51
 18092 4f72 01       		.uleb128 0x1
 18093 4f73 30       		.byte	0x30
 18094 4f74 00       		.byte	0
 18095 4f75 08       		.uleb128 0x8
 18096 4f76 EC0F0000 		.4byte	.LVL858
 18097 4f7a CA080000 		.4byte	0x8ca
 18098 4f7e 8F4F0000 		.4byte	0x4f8f
 18099 4f82 09       		.uleb128 0x9
 18100 4f83 01       		.uleb128 0x1
 18101 4f84 50       		.byte	0x50
 18102 4f85 02       		.uleb128 0x2
 18103 4f86 08       		.byte	0x8
 18104 4f87 6D       		.byte	0x6d
 18105 4f88 09       		.uleb128 0x9
 18106 4f89 01       		.uleb128 0x1
 18107 4f8a 51       		.byte	0x51
 18108 4f8b 02       		.uleb128 0x2
 18109 4f8c 75       		.byte	0x75
 18110 4f8d 00       		.sleb128 0
 18111 4f8e 00       		.byte	0
 18112 4f8f 08       		.uleb128 0x8
 18113 4f90 F40F0000 		.4byte	.LVL859
 18114 4f94 CA080000 		.4byte	0x8ca
 18115 4f98 A84F0000 		.4byte	0x4fa8
 18116 4f9c 09       		.uleb128 0x9
 18117 4f9d 01       		.uleb128 0x1
 18118 4f9e 50       		.byte	0x50
 18119 4f9f 02       		.uleb128 0x2
 18120 4fa0 08       		.byte	0x8
 18121 4fa1 71       		.byte	0x71
 18122 4fa2 09       		.uleb128 0x9
 18123 4fa3 01       		.uleb128 0x1
 18124 4fa4 51       		.byte	0x51
 18125 4fa5 01       		.uleb128 0x1
 18126 4fa6 30       		.byte	0x30
 18127 4fa7 00       		.byte	0
 18128 4fa8 08       		.uleb128 0x8
 18129 4fa9 FC0F0000 		.4byte	.LVL860
 18130 4fad CA080000 		.4byte	0x8ca
 18131 4fb1 C24F0000 		.4byte	0x4fc2
 18132 4fb5 09       		.uleb128 0x9
 18133 4fb6 01       		.uleb128 0x1
 18134 4fb7 50       		.byte	0x50
 18135 4fb8 02       		.uleb128 0x2
 18136 4fb9 08       		.byte	0x8
 18137 4fba 75       		.byte	0x75
 18138 4fbb 09       		.uleb128 0x9
 18139 4fbc 01       		.uleb128 0x1
 18140 4fbd 51       		.byte	0x51
ARM GAS  C:\Users\Revanth\AppData\Local\Temp\ccqs06ys.s 			page 361


 18141 4fbe 02       		.uleb128 0x2
 18142 4fbf 75       		.byte	0x75
 18143 4fc0 00       		.sleb128 0
 18144 4fc1 00       		.byte	0
 18145 4fc2 08       		.uleb128 0x8
 18146 4fc3 04100000 		.4byte	.LVL861
 18147 4fc7 CA080000 		.4byte	0x8ca
 18148 4fcb DB4F0000 		.4byte	0x4fdb
 18149 4fcf 09       		.uleb128 0x9
 18150 4fd0 01       		.uleb128 0x1
 18151 4fd1 50       		.byte	0x50
 18152 4fd2 02       		.uleb128 0x2
 18153 4fd3 08       		.byte	0x8
 18154 4fd4 79       		.byte	0x79
 18155 4fd5 09       		.uleb128 0x9
 18156 4fd6 01       		.uleb128 0x1
 18157 4fd7 51       		.byte	0x51
 18158 4fd8 01       		.uleb128 0x1
 18159 4fd9 30       		.byte	0x30
 18160 4fda 00       		.byte	0
 18161 4fdb 08       		.uleb128 0x8
 18162 4fdc 0C100000 		.4byte	.LVL862
 18163 4fe0 CA080000 		.4byte	0x8ca
 18164 4fe4 F54F0000 		.4byte	0x4ff5
 18165 4fe8 09       		.uleb128 0x9
 18166 4fe9 01       		.uleb128 0x1
 18167 4fea 50       		.byte	0x50
 18168 4feb 02       		.uleb128 0x2
 18169 4fec 08       		.byte	0x8
 18170 4fed 7D       		.byte	0x7d
 18171 4fee 09       		.uleb128 0x9
 18172 4fef 01       		.uleb128 0x1
 18173 4ff0 51       		.byte	0x51
 18174 4ff1 02       		.uleb128 0x2
 18175 4ff2 75       		.byte	0x75
 18176 4ff3 00       		.sleb128 0
 18177 4ff4 00       		.byte	0
 18178 4ff5 08       		.uleb128 0x8
 18179 4ff6 12100000 		.4byte	.LVL863
 18180 4ffa D85F0000 		.4byte	0x5fd8
 18181 4ffe 08500000 		.4byte	0x5008
 18182 5002 09       		.uleb128 0x9
 18183 5003 01       		.uleb128 0x1
 18184 5004 50       		.byte	0x50
 18185 5005 01       		.uleb128 0x1
 18186 5006 30       		.byte	0x30
 18187 5007 00       		.byte	0
 18188 5008 08       		.uleb128 0x8
 18189 5009 20100000 		.4byte	.LVL864
 18190 500d D85F0000 		.4byte	0x5fd8
 18191 5011 1B500000 		.4byte	0x501b
 18192 5015 09       		.uleb128 0x9
 18193 5016 01       		.uleb128 0x1
 18194 5017 50       		.byte	0x50
 18195 5018 01       		.uleb128 0x1
 18196 5019 31       		.byte	0x31
 18197 501a 00       		.byte	0
ARM GAS  C:\Users\Revanth\AppData\Local\Temp\ccqs06ys.s 			page 362


 18198 501b 08       		.uleb128 0x8
 18199 501c 26100000 		.4byte	.LVL865
 18200 5020 07090000 		.4byte	0x907
 18201 5024 2E500000 		.4byte	0x502e
 18202 5028 09       		.uleb128 0x9
 18203 5029 01       		.uleb128 0x1
 18204 502a 50       		.byte	0x50
 18205 502b 01       		.uleb128 0x1
 18206 502c 31       		.byte	0x31
 18207 502d 00       		.byte	0
 18208 502e 08       		.uleb128 0x8
 18209 502f 2E100000 		.4byte	.LVL866
 18210 5033 CA080000 		.4byte	0x8ca
 18211 5037 47500000 		.4byte	0x5047
 18212 503b 09       		.uleb128 0x9
 18213 503c 01       		.uleb128 0x1
 18214 503d 50       		.byte	0x50
 18215 503e 02       		.uleb128 0x2
 18216 503f 08       		.byte	0x8
 18217 5040 20       		.byte	0x20
 18218 5041 09       		.uleb128 0x9
 18219 5042 01       		.uleb128 0x1
 18220 5043 51       		.byte	0x51
 18221 5044 01       		.uleb128 0x1
 18222 5045 31       		.byte	0x31
 18223 5046 00       		.byte	0
 18224 5047 08       		.uleb128 0x8
 18225 5048 36100000 		.4byte	.LVL867
 18226 504c CA080000 		.4byte	0x8ca
 18227 5050 60500000 		.4byte	0x5060
 18228 5054 09       		.uleb128 0x9
 18229 5055 01       		.uleb128 0x1
 18230 5056 50       		.byte	0x50
 18231 5057 02       		.uleb128 0x2
 18232 5058 08       		.byte	0x8
 18233 5059 24       		.byte	0x24
 18234 505a 09       		.uleb128 0x9
 18235 505b 01       		.uleb128 0x1
 18236 505c 51       		.byte	0x51
 18237 505d 01       		.uleb128 0x1
 18238 505e 31       		.byte	0x31
 18239 505f 00       		.byte	0
 18240 5060 08       		.uleb128 0x8
 18241 5061 3E100000 		.4byte	.LVL868
 18242 5065 CA080000 		.4byte	0x8ca
 18243 5069 79500000 		.4byte	0x5079
 18244 506d 09       		.uleb128 0x9
 18245 506e 01       		.uleb128 0x1
 18246 506f 50       		.byte	0x50
 18247 5070 02       		.uleb128 0x2
 18248 5071 08       		.byte	0x8
 18249 5072 28       		.byte	0x28
 18250 5073 09       		.uleb128 0x9
 18251 5074 01       		.uleb128 0x1
 18252 5075 51       		.byte	0x51
 18253 5076 01       		.uleb128 0x1
 18254 5077 31       		.byte	0x31
ARM GAS  C:\Users\Revanth\AppData\Local\Temp\ccqs06ys.s 			page 363


 18255 5078 00       		.byte	0
 18256 5079 08       		.uleb128 0x8
 18257 507a 46100000 		.4byte	.LVL869
 18258 507e CA080000 		.4byte	0x8ca
 18259 5082 92500000 		.4byte	0x5092
 18260 5086 09       		.uleb128 0x9
 18261 5087 01       		.uleb128 0x1
 18262 5088 50       		.byte	0x50
 18263 5089 02       		.uleb128 0x2
 18264 508a 08       		.byte	0x8
 18265 508b 2C       		.byte	0x2c
 18266 508c 09       		.uleb128 0x9
 18267 508d 01       		.uleb128 0x1
 18268 508e 51       		.byte	0x51
 18269 508f 01       		.uleb128 0x1
 18270 5090 31       		.byte	0x31
 18271 5091 00       		.byte	0
 18272 5092 08       		.uleb128 0x8
 18273 5093 4E100000 		.4byte	.LVL870
 18274 5097 CA080000 		.4byte	0x8ca
 18275 509b AB500000 		.4byte	0x50ab
 18276 509f 09       		.uleb128 0x9
 18277 50a0 01       		.uleb128 0x1
 18278 50a1 50       		.byte	0x50
 18279 50a2 02       		.uleb128 0x2
 18280 50a3 08       		.byte	0x8
 18281 50a4 30       		.byte	0x30
 18282 50a5 09       		.uleb128 0x9
 18283 50a6 01       		.uleb128 0x1
 18284 50a7 51       		.byte	0x51
 18285 50a8 01       		.uleb128 0x1
 18286 50a9 31       		.byte	0x31
 18287 50aa 00       		.byte	0
 18288 50ab 08       		.uleb128 0x8
 18289 50ac 56100000 		.4byte	.LVL871
 18290 50b0 CA080000 		.4byte	0x8ca
 18291 50b4 C4500000 		.4byte	0x50c4
 18292 50b8 09       		.uleb128 0x9
 18293 50b9 01       		.uleb128 0x1
 18294 50ba 50       		.byte	0x50
 18295 50bb 02       		.uleb128 0x2
 18296 50bc 08       		.byte	0x8
 18297 50bd 34       		.byte	0x34
 18298 50be 09       		.uleb128 0x9
 18299 50bf 01       		.uleb128 0x1
 18300 50c0 51       		.byte	0x51
 18301 50c1 01       		.uleb128 0x1
 18302 50c2 31       		.byte	0x31
 18303 50c3 00       		.byte	0
 18304 50c4 08       		.uleb128 0x8
 18305 50c5 5E100000 		.4byte	.LVL872
 18306 50c9 CA080000 		.4byte	0x8ca
 18307 50cd DD500000 		.4byte	0x50dd
 18308 50d1 09       		.uleb128 0x9
 18309 50d2 01       		.uleb128 0x1
 18310 50d3 50       		.byte	0x50
 18311 50d4 02       		.uleb128 0x2
ARM GAS  C:\Users\Revanth\AppData\Local\Temp\ccqs06ys.s 			page 364


 18312 50d5 08       		.byte	0x8
 18313 50d6 38       		.byte	0x38
 18314 50d7 09       		.uleb128 0x9
 18315 50d8 01       		.uleb128 0x1
 18316 50d9 51       		.byte	0x51
 18317 50da 01       		.uleb128 0x1
 18318 50db 31       		.byte	0x31
 18319 50dc 00       		.byte	0
 18320 50dd 08       		.uleb128 0x8
 18321 50de 66100000 		.4byte	.LVL873
 18322 50e2 CA080000 		.4byte	0x8ca
 18323 50e6 F6500000 		.4byte	0x50f6
 18324 50ea 09       		.uleb128 0x9
 18325 50eb 01       		.uleb128 0x1
 18326 50ec 50       		.byte	0x50
 18327 50ed 02       		.uleb128 0x2
 18328 50ee 08       		.byte	0x8
 18329 50ef 3C       		.byte	0x3c
 18330 50f0 09       		.uleb128 0x9
 18331 50f1 01       		.uleb128 0x1
 18332 50f2 51       		.byte	0x51
 18333 50f3 01       		.uleb128 0x1
 18334 50f4 31       		.byte	0x31
 18335 50f5 00       		.byte	0
 18336 50f6 08       		.uleb128 0x8
 18337 50f7 6E100000 		.4byte	.LVL874
 18338 50fb CA080000 		.4byte	0x8ca
 18339 50ff 0F510000 		.4byte	0x510f
 18340 5103 09       		.uleb128 0x9
 18341 5104 01       		.uleb128 0x1
 18342 5105 50       		.byte	0x50
 18343 5106 02       		.uleb128 0x2
 18344 5107 08       		.byte	0x8
 18345 5108 40       		.byte	0x40
 18346 5109 09       		.uleb128 0x9
 18347 510a 01       		.uleb128 0x1
 18348 510b 51       		.byte	0x51
 18349 510c 01       		.uleb128 0x1
 18350 510d 31       		.byte	0x31
 18351 510e 00       		.byte	0
 18352 510f 08       		.uleb128 0x8
 18353 5110 76100000 		.4byte	.LVL875
 18354 5114 CA080000 		.4byte	0x8ca
 18355 5118 28510000 		.4byte	0x5128
 18356 511c 09       		.uleb128 0x9
 18357 511d 01       		.uleb128 0x1
 18358 511e 50       		.byte	0x50
 18359 511f 02       		.uleb128 0x2
 18360 5120 08       		.byte	0x8
 18361 5121 44       		.byte	0x44
 18362 5122 09       		.uleb128 0x9
 18363 5123 01       		.uleb128 0x1
 18364 5124 51       		.byte	0x51
 18365 5125 01       		.uleb128 0x1
 18366 5126 31       		.byte	0x31
 18367 5127 00       		.byte	0
 18368 5128 08       		.uleb128 0x8
ARM GAS  C:\Users\Revanth\AppData\Local\Temp\ccqs06ys.s 			page 365


 18369 5129 7E100000 		.4byte	.LVL876
 18370 512d CA080000 		.4byte	0x8ca
 18371 5131 41510000 		.4byte	0x5141
 18372 5135 09       		.uleb128 0x9
 18373 5136 01       		.uleb128 0x1
 18374 5137 50       		.byte	0x50
 18375 5138 02       		.uleb128 0x2
 18376 5139 08       		.byte	0x8
 18377 513a 48       		.byte	0x48
 18378 513b 09       		.uleb128 0x9
 18379 513c 01       		.uleb128 0x1
 18380 513d 51       		.byte	0x51
 18381 513e 01       		.uleb128 0x1
 18382 513f 31       		.byte	0x31
 18383 5140 00       		.byte	0
 18384 5141 08       		.uleb128 0x8
 18385 5142 86100000 		.4byte	.LVL877
 18386 5146 CA080000 		.4byte	0x8ca
 18387 514a 5A510000 		.4byte	0x515a
 18388 514e 09       		.uleb128 0x9
 18389 514f 01       		.uleb128 0x1
 18390 5150 50       		.byte	0x50
 18391 5151 02       		.uleb128 0x2
 18392 5152 08       		.byte	0x8
 18393 5153 4C       		.byte	0x4c
 18394 5154 09       		.uleb128 0x9
 18395 5155 01       		.uleb128 0x1
 18396 5156 51       		.byte	0x51
 18397 5157 01       		.uleb128 0x1
 18398 5158 31       		.byte	0x31
 18399 5159 00       		.byte	0
 18400 515a 08       		.uleb128 0x8
 18401 515b 8E100000 		.4byte	.LVL878
 18402 515f CA080000 		.4byte	0x8ca
 18403 5163 73510000 		.4byte	0x5173
 18404 5167 09       		.uleb128 0x9
 18405 5168 01       		.uleb128 0x1
 18406 5169 50       		.byte	0x50
 18407 516a 02       		.uleb128 0x2
 18408 516b 08       		.byte	0x8
 18409 516c 50       		.byte	0x50
 18410 516d 09       		.uleb128 0x9
 18411 516e 01       		.uleb128 0x1
 18412 516f 51       		.byte	0x51
 18413 5170 01       		.uleb128 0x1
 18414 5171 31       		.byte	0x31
 18415 5172 00       		.byte	0
 18416 5173 08       		.uleb128 0x8
 18417 5174 96100000 		.4byte	.LVL879
 18418 5178 CA080000 		.4byte	0x8ca
 18419 517c 8C510000 		.4byte	0x518c
 18420 5180 09       		.uleb128 0x9
 18421 5181 01       		.uleb128 0x1
 18422 5182 50       		.byte	0x50
 18423 5183 02       		.uleb128 0x2
 18424 5184 08       		.byte	0x8
 18425 5185 54       		.byte	0x54
ARM GAS  C:\Users\Revanth\AppData\Local\Temp\ccqs06ys.s 			page 366


 18426 5186 09       		.uleb128 0x9
 18427 5187 01       		.uleb128 0x1
 18428 5188 51       		.byte	0x51
 18429 5189 01       		.uleb128 0x1
 18430 518a 31       		.byte	0x31
 18431 518b 00       		.byte	0
 18432 518c 08       		.uleb128 0x8
 18433 518d 9E100000 		.4byte	.LVL880
 18434 5191 CA080000 		.4byte	0x8ca
 18435 5195 A5510000 		.4byte	0x51a5
 18436 5199 09       		.uleb128 0x9
 18437 519a 01       		.uleb128 0x1
 18438 519b 50       		.byte	0x50
 18439 519c 02       		.uleb128 0x2
 18440 519d 08       		.byte	0x8
 18441 519e 58       		.byte	0x58
 18442 519f 09       		.uleb128 0x9
 18443 51a0 01       		.uleb128 0x1
 18444 51a1 51       		.byte	0x51
 18445 51a2 01       		.uleb128 0x1
 18446 51a3 31       		.byte	0x31
 18447 51a4 00       		.byte	0
 18448 51a5 08       		.uleb128 0x8
 18449 51a6 A6100000 		.4byte	.LVL881
 18450 51aa CA080000 		.4byte	0x8ca
 18451 51ae BE510000 		.4byte	0x51be
 18452 51b2 09       		.uleb128 0x9
 18453 51b3 01       		.uleb128 0x1
 18454 51b4 50       		.byte	0x50
 18455 51b5 02       		.uleb128 0x2
 18456 51b6 08       		.byte	0x8
 18457 51b7 5C       		.byte	0x5c
 18458 51b8 09       		.uleb128 0x9
 18459 51b9 01       		.uleb128 0x1
 18460 51ba 51       		.byte	0x51
 18461 51bb 01       		.uleb128 0x1
 18462 51bc 31       		.byte	0x31
 18463 51bd 00       		.byte	0
 18464 51be 08       		.uleb128 0x8
 18465 51bf AE100000 		.4byte	.LVL882
 18466 51c3 CA080000 		.4byte	0x8ca
 18467 51c7 D7510000 		.4byte	0x51d7
 18468 51cb 09       		.uleb128 0x9
 18469 51cc 01       		.uleb128 0x1
 18470 51cd 50       		.byte	0x50
 18471 51ce 02       		.uleb128 0x2
 18472 51cf 08       		.byte	0x8
 18473 51d0 60       		.byte	0x60
 18474 51d1 09       		.uleb128 0x9
 18475 51d2 01       		.uleb128 0x1
 18476 51d3 51       		.byte	0x51
 18477 51d4 01       		.uleb128 0x1
 18478 51d5 31       		.byte	0x31
 18479 51d6 00       		.byte	0
 18480 51d7 08       		.uleb128 0x8
 18481 51d8 B6100000 		.4byte	.LVL883
 18482 51dc CA080000 		.4byte	0x8ca
ARM GAS  C:\Users\Revanth\AppData\Local\Temp\ccqs06ys.s 			page 367


 18483 51e0 F0510000 		.4byte	0x51f0
 18484 51e4 09       		.uleb128 0x9
 18485 51e5 01       		.uleb128 0x1
 18486 51e6 50       		.byte	0x50
 18487 51e7 02       		.uleb128 0x2
 18488 51e8 08       		.byte	0x8
 18489 51e9 64       		.byte	0x64
 18490 51ea 09       		.uleb128 0x9
 18491 51eb 01       		.uleb128 0x1
 18492 51ec 51       		.byte	0x51
 18493 51ed 01       		.uleb128 0x1
 18494 51ee 31       		.byte	0x31
 18495 51ef 00       		.byte	0
 18496 51f0 08       		.uleb128 0x8
 18497 51f1 BE100000 		.4byte	.LVL884
 18498 51f5 CA080000 		.4byte	0x8ca
 18499 51f9 09520000 		.4byte	0x5209
 18500 51fd 09       		.uleb128 0x9
 18501 51fe 01       		.uleb128 0x1
 18502 51ff 50       		.byte	0x50
 18503 5200 02       		.uleb128 0x2
 18504 5201 08       		.byte	0x8
 18505 5202 68       		.byte	0x68
 18506 5203 09       		.uleb128 0x9
 18507 5204 01       		.uleb128 0x1
 18508 5205 51       		.byte	0x51
 18509 5206 01       		.uleb128 0x1
 18510 5207 31       		.byte	0x31
 18511 5208 00       		.byte	0
 18512 5209 08       		.uleb128 0x8
 18513 520a C6100000 		.4byte	.LVL885
 18514 520e CA080000 		.4byte	0x8ca
 18515 5212 22520000 		.4byte	0x5222
 18516 5216 09       		.uleb128 0x9
 18517 5217 01       		.uleb128 0x1
 18518 5218 50       		.byte	0x50
 18519 5219 02       		.uleb128 0x2
 18520 521a 08       		.byte	0x8
 18521 521b 6C       		.byte	0x6c
 18522 521c 09       		.uleb128 0x9
 18523 521d 01       		.uleb128 0x1
 18524 521e 51       		.byte	0x51
 18525 521f 01       		.uleb128 0x1
 18526 5220 31       		.byte	0x31
 18527 5221 00       		.byte	0
 18528 5222 08       		.uleb128 0x8
 18529 5223 CE100000 		.4byte	.LVL886
 18530 5227 CA080000 		.4byte	0x8ca
 18531 522b 3B520000 		.4byte	0x523b
 18532 522f 09       		.uleb128 0x9
 18533 5230 01       		.uleb128 0x1
 18534 5231 50       		.byte	0x50
 18535 5232 02       		.uleb128 0x2
 18536 5233 08       		.byte	0x8
 18537 5234 70       		.byte	0x70
 18538 5235 09       		.uleb128 0x9
 18539 5236 01       		.uleb128 0x1
ARM GAS  C:\Users\Revanth\AppData\Local\Temp\ccqs06ys.s 			page 368


 18540 5237 51       		.byte	0x51
 18541 5238 01       		.uleb128 0x1
 18542 5239 31       		.byte	0x31
 18543 523a 00       		.byte	0
 18544 523b 08       		.uleb128 0x8
 18545 523c D6100000 		.4byte	.LVL887
 18546 5240 CA080000 		.4byte	0x8ca
 18547 5244 54520000 		.4byte	0x5254
 18548 5248 09       		.uleb128 0x9
 18549 5249 01       		.uleb128 0x1
 18550 524a 50       		.byte	0x50
 18551 524b 02       		.uleb128 0x2
 18552 524c 08       		.byte	0x8
 18553 524d 74       		.byte	0x74
 18554 524e 09       		.uleb128 0x9
 18555 524f 01       		.uleb128 0x1
 18556 5250 51       		.byte	0x51
 18557 5251 01       		.uleb128 0x1
 18558 5252 31       		.byte	0x31
 18559 5253 00       		.byte	0
 18560 5254 08       		.uleb128 0x8
 18561 5255 DE100000 		.4byte	.LVL888
 18562 5259 CA080000 		.4byte	0x8ca
 18563 525d 6D520000 		.4byte	0x526d
 18564 5261 09       		.uleb128 0x9
 18565 5262 01       		.uleb128 0x1
 18566 5263 50       		.byte	0x50
 18567 5264 02       		.uleb128 0x2
 18568 5265 08       		.byte	0x8
 18569 5266 78       		.byte	0x78
 18570 5267 09       		.uleb128 0x9
 18571 5268 01       		.uleb128 0x1
 18572 5269 51       		.byte	0x51
 18573 526a 01       		.uleb128 0x1
 18574 526b 31       		.byte	0x31
 18575 526c 00       		.byte	0
 18576 526d 08       		.uleb128 0x8
 18577 526e E6100000 		.4byte	.LVL889
 18578 5272 CA080000 		.4byte	0x8ca
 18579 5276 86520000 		.4byte	0x5286
 18580 527a 09       		.uleb128 0x9
 18581 527b 01       		.uleb128 0x1
 18582 527c 50       		.byte	0x50
 18583 527d 02       		.uleb128 0x2
 18584 527e 08       		.byte	0x8
 18585 527f 7C       		.byte	0x7c
 18586 5280 09       		.uleb128 0x9
 18587 5281 01       		.uleb128 0x1
 18588 5282 51       		.byte	0x51
 18589 5283 01       		.uleb128 0x1
 18590 5284 31       		.byte	0x31
 18591 5285 00       		.byte	0
 18592 5286 08       		.uleb128 0x8
 18593 5287 EE100000 		.4byte	.LVL890
 18594 528b CA080000 		.4byte	0x8ca
 18595 528f A0520000 		.4byte	0x52a0
 18596 5293 09       		.uleb128 0x9
ARM GAS  C:\Users\Revanth\AppData\Local\Temp\ccqs06ys.s 			page 369


 18597 5294 01       		.uleb128 0x1
 18598 5295 50       		.byte	0x50
 18599 5296 02       		.uleb128 0x2
 18600 5297 08       		.byte	0x8
 18601 5298 21       		.byte	0x21
 18602 5299 09       		.uleb128 0x9
 18603 529a 01       		.uleb128 0x1
 18604 529b 51       		.byte	0x51
 18605 529c 02       		.uleb128 0x2
 18606 529d 75       		.byte	0x75
 18607 529e 00       		.sleb128 0
 18608 529f 00       		.byte	0
 18609 52a0 08       		.uleb128 0x8
 18610 52a1 F6100000 		.4byte	.LVL891
 18611 52a5 CA080000 		.4byte	0x8ca
 18612 52a9 BA520000 		.4byte	0x52ba
 18613 52ad 09       		.uleb128 0x9
 18614 52ae 01       		.uleb128 0x1
 18615 52af 50       		.byte	0x50
 18616 52b0 02       		.uleb128 0x2
 18617 52b1 08       		.byte	0x8
 18618 52b2 25       		.byte	0x25
 18619 52b3 09       		.uleb128 0x9
 18620 52b4 01       		.uleb128 0x1
 18621 52b5 51       		.byte	0x51
 18622 52b6 02       		.uleb128 0x2
 18623 52b7 75       		.byte	0x75
 18624 52b8 00       		.sleb128 0
 18625 52b9 00       		.byte	0
 18626 52ba 08       		.uleb128 0x8
 18627 52bb FE100000 		.4byte	.LVL892
 18628 52bf CA080000 		.4byte	0x8ca
 18629 52c3 D4520000 		.4byte	0x52d4
 18630 52c7 09       		.uleb128 0x9
 18631 52c8 01       		.uleb128 0x1
 18632 52c9 50       		.byte	0x50
 18633 52ca 02       		.uleb128 0x2
 18634 52cb 08       		.byte	0x8
 18635 52cc 29       		.byte	0x29
 18636 52cd 09       		.uleb128 0x9
 18637 52ce 01       		.uleb128 0x1
 18638 52cf 51       		.byte	0x51
 18639 52d0 02       		.uleb128 0x2
 18640 52d1 75       		.byte	0x75
 18641 52d2 00       		.sleb128 0
 18642 52d3 00       		.byte	0
 18643 52d4 08       		.uleb128 0x8
 18644 52d5 06110000 		.4byte	.LVL893
 18645 52d9 CA080000 		.4byte	0x8ca
 18646 52dd EE520000 		.4byte	0x52ee
 18647 52e1 09       		.uleb128 0x9
 18648 52e2 01       		.uleb128 0x1
 18649 52e3 50       		.byte	0x50
 18650 52e4 02       		.uleb128 0x2
 18651 52e5 08       		.byte	0x8
 18652 52e6 2D       		.byte	0x2d
 18653 52e7 09       		.uleb128 0x9
ARM GAS  C:\Users\Revanth\AppData\Local\Temp\ccqs06ys.s 			page 370


 18654 52e8 01       		.uleb128 0x1
 18655 52e9 51       		.byte	0x51
 18656 52ea 02       		.uleb128 0x2
 18657 52eb 75       		.byte	0x75
 18658 52ec 00       		.sleb128 0
 18659 52ed 00       		.byte	0
 18660 52ee 08       		.uleb128 0x8
 18661 52ef 0E110000 		.4byte	.LVL894
 18662 52f3 CA080000 		.4byte	0x8ca
 18663 52f7 08530000 		.4byte	0x5308
 18664 52fb 09       		.uleb128 0x9
 18665 52fc 01       		.uleb128 0x1
 18666 52fd 50       		.byte	0x50
 18667 52fe 02       		.uleb128 0x2
 18668 52ff 08       		.byte	0x8
 18669 5300 31       		.byte	0x31
 18670 5301 09       		.uleb128 0x9
 18671 5302 01       		.uleb128 0x1
 18672 5303 51       		.byte	0x51
 18673 5304 02       		.uleb128 0x2
 18674 5305 75       		.byte	0x75
 18675 5306 00       		.sleb128 0
 18676 5307 00       		.byte	0
 18677 5308 08       		.uleb128 0x8
 18678 5309 16110000 		.4byte	.LVL895
 18679 530d CA080000 		.4byte	0x8ca
 18680 5311 22530000 		.4byte	0x5322
 18681 5315 09       		.uleb128 0x9
 18682 5316 01       		.uleb128 0x1
 18683 5317 50       		.byte	0x50
 18684 5318 02       		.uleb128 0x2
 18685 5319 08       		.byte	0x8
 18686 531a 35       		.byte	0x35
 18687 531b 09       		.uleb128 0x9
 18688 531c 01       		.uleb128 0x1
 18689 531d 51       		.byte	0x51
 18690 531e 02       		.uleb128 0x2
 18691 531f 75       		.byte	0x75
 18692 5320 00       		.sleb128 0
 18693 5321 00       		.byte	0
 18694 5322 08       		.uleb128 0x8
 18695 5323 1E110000 		.4byte	.LVL896
 18696 5327 CA080000 		.4byte	0x8ca
 18697 532b 3C530000 		.4byte	0x533c
 18698 532f 09       		.uleb128 0x9
 18699 5330 01       		.uleb128 0x1
 18700 5331 50       		.byte	0x50
 18701 5332 02       		.uleb128 0x2
 18702 5333 08       		.byte	0x8
 18703 5334 39       		.byte	0x39
 18704 5335 09       		.uleb128 0x9
 18705 5336 01       		.uleb128 0x1
 18706 5337 51       		.byte	0x51
 18707 5338 02       		.uleb128 0x2
 18708 5339 75       		.byte	0x75
 18709 533a 00       		.sleb128 0
 18710 533b 00       		.byte	0
ARM GAS  C:\Users\Revanth\AppData\Local\Temp\ccqs06ys.s 			page 371


 18711 533c 08       		.uleb128 0x8
 18712 533d 26110000 		.4byte	.LVL897
 18713 5341 CA080000 		.4byte	0x8ca
 18714 5345 56530000 		.4byte	0x5356
 18715 5349 09       		.uleb128 0x9
 18716 534a 01       		.uleb128 0x1
 18717 534b 50       		.byte	0x50
 18718 534c 02       		.uleb128 0x2
 18719 534d 08       		.byte	0x8
 18720 534e 3D       		.byte	0x3d
 18721 534f 09       		.uleb128 0x9
 18722 5350 01       		.uleb128 0x1
 18723 5351 51       		.byte	0x51
 18724 5352 02       		.uleb128 0x2
 18725 5353 75       		.byte	0x75
 18726 5354 00       		.sleb128 0
 18727 5355 00       		.byte	0
 18728 5356 08       		.uleb128 0x8
 18729 5357 2E110000 		.4byte	.LVL898
 18730 535b CA080000 		.4byte	0x8ca
 18731 535f 70530000 		.4byte	0x5370
 18732 5363 09       		.uleb128 0x9
 18733 5364 01       		.uleb128 0x1
 18734 5365 50       		.byte	0x50
 18735 5366 02       		.uleb128 0x2
 18736 5367 08       		.byte	0x8
 18737 5368 41       		.byte	0x41
 18738 5369 09       		.uleb128 0x9
 18739 536a 01       		.uleb128 0x1
 18740 536b 51       		.byte	0x51
 18741 536c 02       		.uleb128 0x2
 18742 536d 75       		.byte	0x75
 18743 536e 00       		.sleb128 0
 18744 536f 00       		.byte	0
 18745 5370 08       		.uleb128 0x8
 18746 5371 36110000 		.4byte	.LVL899
 18747 5375 CA080000 		.4byte	0x8ca
 18748 5379 8A530000 		.4byte	0x538a
 18749 537d 09       		.uleb128 0x9
 18750 537e 01       		.uleb128 0x1
 18751 537f 50       		.byte	0x50
 18752 5380 02       		.uleb128 0x2
 18753 5381 08       		.byte	0x8
 18754 5382 45       		.byte	0x45
 18755 5383 09       		.uleb128 0x9
 18756 5384 01       		.uleb128 0x1
 18757 5385 51       		.byte	0x51
 18758 5386 02       		.uleb128 0x2
 18759 5387 75       		.byte	0x75
 18760 5388 00       		.sleb128 0
 18761 5389 00       		.byte	0
 18762 538a 08       		.uleb128 0x8
 18763 538b 3E110000 		.4byte	.LVL900
 18764 538f CA080000 		.4byte	0x8ca
 18765 5393 A4530000 		.4byte	0x53a4
 18766 5397 09       		.uleb128 0x9
 18767 5398 01       		.uleb128 0x1
ARM GAS  C:\Users\Revanth\AppData\Local\Temp\ccqs06ys.s 			page 372


 18768 5399 50       		.byte	0x50
 18769 539a 02       		.uleb128 0x2
 18770 539b 08       		.byte	0x8
 18771 539c 49       		.byte	0x49
 18772 539d 09       		.uleb128 0x9
 18773 539e 01       		.uleb128 0x1
 18774 539f 51       		.byte	0x51
 18775 53a0 02       		.uleb128 0x2
 18776 53a1 75       		.byte	0x75
 18777 53a2 00       		.sleb128 0
 18778 53a3 00       		.byte	0
 18779 53a4 08       		.uleb128 0x8
 18780 53a5 46110000 		.4byte	.LVL901
 18781 53a9 CA080000 		.4byte	0x8ca
 18782 53ad BE530000 		.4byte	0x53be
 18783 53b1 09       		.uleb128 0x9
 18784 53b2 01       		.uleb128 0x1
 18785 53b3 50       		.byte	0x50
 18786 53b4 02       		.uleb128 0x2
 18787 53b5 08       		.byte	0x8
 18788 53b6 4D       		.byte	0x4d
 18789 53b7 09       		.uleb128 0x9
 18790 53b8 01       		.uleb128 0x1
 18791 53b9 51       		.byte	0x51
 18792 53ba 02       		.uleb128 0x2
 18793 53bb 75       		.byte	0x75
 18794 53bc 00       		.sleb128 0
 18795 53bd 00       		.byte	0
 18796 53be 08       		.uleb128 0x8
 18797 53bf 4E110000 		.4byte	.LVL902
 18798 53c3 CA080000 		.4byte	0x8ca
 18799 53c7 D8530000 		.4byte	0x53d8
 18800 53cb 09       		.uleb128 0x9
 18801 53cc 01       		.uleb128 0x1
 18802 53cd 50       		.byte	0x50
 18803 53ce 02       		.uleb128 0x2
 18804 53cf 08       		.byte	0x8
 18805 53d0 51       		.byte	0x51
 18806 53d1 09       		.uleb128 0x9
 18807 53d2 01       		.uleb128 0x1
 18808 53d3 51       		.byte	0x51
 18809 53d4 02       		.uleb128 0x2
 18810 53d5 75       		.byte	0x75
 18811 53d6 00       		.sleb128 0
 18812 53d7 00       		.byte	0
 18813 53d8 08       		.uleb128 0x8
 18814 53d9 56110000 		.4byte	.LVL903
 18815 53dd CA080000 		.4byte	0x8ca
 18816 53e1 F2530000 		.4byte	0x53f2
 18817 53e5 09       		.uleb128 0x9
 18818 53e6 01       		.uleb128 0x1
 18819 53e7 50       		.byte	0x50
 18820 53e8 02       		.uleb128 0x2
 18821 53e9 08       		.byte	0x8
 18822 53ea 55       		.byte	0x55
 18823 53eb 09       		.uleb128 0x9
 18824 53ec 01       		.uleb128 0x1
ARM GAS  C:\Users\Revanth\AppData\Local\Temp\ccqs06ys.s 			page 373


 18825 53ed 51       		.byte	0x51
 18826 53ee 02       		.uleb128 0x2
 18827 53ef 75       		.byte	0x75
 18828 53f0 00       		.sleb128 0
 18829 53f1 00       		.byte	0
 18830 53f2 08       		.uleb128 0x8
 18831 53f3 5E110000 		.4byte	.LVL904
 18832 53f7 CA080000 		.4byte	0x8ca
 18833 53fb 0C540000 		.4byte	0x540c
 18834 53ff 09       		.uleb128 0x9
 18835 5400 01       		.uleb128 0x1
 18836 5401 50       		.byte	0x50
 18837 5402 02       		.uleb128 0x2
 18838 5403 08       		.byte	0x8
 18839 5404 59       		.byte	0x59
 18840 5405 09       		.uleb128 0x9
 18841 5406 01       		.uleb128 0x1
 18842 5407 51       		.byte	0x51
 18843 5408 02       		.uleb128 0x2
 18844 5409 75       		.byte	0x75
 18845 540a 00       		.sleb128 0
 18846 540b 00       		.byte	0
 18847 540c 08       		.uleb128 0x8
 18848 540d 66110000 		.4byte	.LVL905
 18849 5411 CA080000 		.4byte	0x8ca
 18850 5415 26540000 		.4byte	0x5426
 18851 5419 09       		.uleb128 0x9
 18852 541a 01       		.uleb128 0x1
 18853 541b 50       		.byte	0x50
 18854 541c 02       		.uleb128 0x2
 18855 541d 08       		.byte	0x8
 18856 541e 5D       		.byte	0x5d
 18857 541f 09       		.uleb128 0x9
 18858 5420 01       		.uleb128 0x1
 18859 5421 51       		.byte	0x51
 18860 5422 02       		.uleb128 0x2
 18861 5423 75       		.byte	0x75
 18862 5424 00       		.sleb128 0
 18863 5425 00       		.byte	0
 18864 5426 08       		.uleb128 0x8
 18865 5427 6E110000 		.4byte	.LVL906
 18866 542b CA080000 		.4byte	0x8ca
 18867 542f 40540000 		.4byte	0x5440
 18868 5433 09       		.uleb128 0x9
 18869 5434 01       		.uleb128 0x1
 18870 5435 50       		.byte	0x50
 18871 5436 02       		.uleb128 0x2
 18872 5437 08       		.byte	0x8
 18873 5438 61       		.byte	0x61
 18874 5439 09       		.uleb128 0x9
 18875 543a 01       		.uleb128 0x1
 18876 543b 51       		.byte	0x51
 18877 543c 02       		.uleb128 0x2
 18878 543d 75       		.byte	0x75
 18879 543e 00       		.sleb128 0
 18880 543f 00       		.byte	0
 18881 5440 08       		.uleb128 0x8
ARM GAS  C:\Users\Revanth\AppData\Local\Temp\ccqs06ys.s 			page 374


 18882 5441 76110000 		.4byte	.LVL907
 18883 5445 CA080000 		.4byte	0x8ca
 18884 5449 5A540000 		.4byte	0x545a
 18885 544d 09       		.uleb128 0x9
 18886 544e 01       		.uleb128 0x1
 18887 544f 50       		.byte	0x50
 18888 5450 02       		.uleb128 0x2
 18889 5451 08       		.byte	0x8
 18890 5452 65       		.byte	0x65
 18891 5453 09       		.uleb128 0x9
 18892 5454 01       		.uleb128 0x1
 18893 5455 51       		.byte	0x51
 18894 5456 02       		.uleb128 0x2
 18895 5457 75       		.byte	0x75
 18896 5458 00       		.sleb128 0
 18897 5459 00       		.byte	0
 18898 545a 08       		.uleb128 0x8
 18899 545b 7E110000 		.4byte	.LVL908
 18900 545f CA080000 		.4byte	0x8ca
 18901 5463 74540000 		.4byte	0x5474
 18902 5467 09       		.uleb128 0x9
 18903 5468 01       		.uleb128 0x1
 18904 5469 50       		.byte	0x50
 18905 546a 02       		.uleb128 0x2
 18906 546b 08       		.byte	0x8
 18907 546c 69       		.byte	0x69
 18908 546d 09       		.uleb128 0x9
 18909 546e 01       		.uleb128 0x1
 18910 546f 51       		.byte	0x51
 18911 5470 02       		.uleb128 0x2
 18912 5471 75       		.byte	0x75
 18913 5472 00       		.sleb128 0
 18914 5473 00       		.byte	0
 18915 5474 08       		.uleb128 0x8
 18916 5475 86110000 		.4byte	.LVL909
 18917 5479 CA080000 		.4byte	0x8ca
 18918 547d 8E540000 		.4byte	0x548e
 18919 5481 09       		.uleb128 0x9
 18920 5482 01       		.uleb128 0x1
 18921 5483 50       		.byte	0x50
 18922 5484 02       		.uleb128 0x2
 18923 5485 08       		.byte	0x8
 18924 5486 6D       		.byte	0x6d
 18925 5487 09       		.uleb128 0x9
 18926 5488 01       		.uleb128 0x1
 18927 5489 51       		.byte	0x51
 18928 548a 02       		.uleb128 0x2
 18929 548b 75       		.byte	0x75
 18930 548c 00       		.sleb128 0
 18931 548d 00       		.byte	0
 18932 548e 08       		.uleb128 0x8
 18933 548f 8E110000 		.4byte	.LVL910
 18934 5493 CA080000 		.4byte	0x8ca
 18935 5497 A8540000 		.4byte	0x54a8
 18936 549b 09       		.uleb128 0x9
 18937 549c 01       		.uleb128 0x1
 18938 549d 50       		.byte	0x50
ARM GAS  C:\Users\Revanth\AppData\Local\Temp\ccqs06ys.s 			page 375


 18939 549e 02       		.uleb128 0x2
 18940 549f 08       		.byte	0x8
 18941 54a0 71       		.byte	0x71
 18942 54a1 09       		.uleb128 0x9
 18943 54a2 01       		.uleb128 0x1
 18944 54a3 51       		.byte	0x51
 18945 54a4 02       		.uleb128 0x2
 18946 54a5 75       		.byte	0x75
 18947 54a6 00       		.sleb128 0
 18948 54a7 00       		.byte	0
 18949 54a8 08       		.uleb128 0x8
 18950 54a9 96110000 		.4byte	.LVL911
 18951 54ad CA080000 		.4byte	0x8ca
 18952 54b1 C2540000 		.4byte	0x54c2
 18953 54b5 09       		.uleb128 0x9
 18954 54b6 01       		.uleb128 0x1
 18955 54b7 50       		.byte	0x50
 18956 54b8 02       		.uleb128 0x2
 18957 54b9 08       		.byte	0x8
 18958 54ba 75       		.byte	0x75
 18959 54bb 09       		.uleb128 0x9
 18960 54bc 01       		.uleb128 0x1
 18961 54bd 51       		.byte	0x51
 18962 54be 02       		.uleb128 0x2
 18963 54bf 75       		.byte	0x75
 18964 54c0 00       		.sleb128 0
 18965 54c1 00       		.byte	0
 18966 54c2 08       		.uleb128 0x8
 18967 54c3 9E110000 		.4byte	.LVL912
 18968 54c7 CA080000 		.4byte	0x8ca
 18969 54cb DC540000 		.4byte	0x54dc
 18970 54cf 09       		.uleb128 0x9
 18971 54d0 01       		.uleb128 0x1
 18972 54d1 50       		.byte	0x50
 18973 54d2 02       		.uleb128 0x2
 18974 54d3 08       		.byte	0x8
 18975 54d4 79       		.byte	0x79
 18976 54d5 09       		.uleb128 0x9
 18977 54d6 01       		.uleb128 0x1
 18978 54d7 51       		.byte	0x51
 18979 54d8 02       		.uleb128 0x2
 18980 54d9 75       		.byte	0x75
 18981 54da 00       		.sleb128 0
 18982 54db 00       		.byte	0
 18983 54dc 08       		.uleb128 0x8
 18984 54dd A6110000 		.4byte	.LVL913
 18985 54e1 CA080000 		.4byte	0x8ca
 18986 54e5 F6540000 		.4byte	0x54f6
 18987 54e9 09       		.uleb128 0x9
 18988 54ea 01       		.uleb128 0x1
 18989 54eb 50       		.byte	0x50
 18990 54ec 02       		.uleb128 0x2
 18991 54ed 08       		.byte	0x8
 18992 54ee 7D       		.byte	0x7d
 18993 54ef 09       		.uleb128 0x9
 18994 54f0 01       		.uleb128 0x1
 18995 54f1 51       		.byte	0x51
ARM GAS  C:\Users\Revanth\AppData\Local\Temp\ccqs06ys.s 			page 376


 18996 54f2 02       		.uleb128 0x2
 18997 54f3 75       		.byte	0x75
 18998 54f4 00       		.sleb128 0
 18999 54f5 00       		.byte	0
 19000 54f6 08       		.uleb128 0x8
 19001 54f7 AC110000 		.4byte	.LVL914
 19002 54fb EE5F0000 		.4byte	0x5fee
 19003 54ff 0A550000 		.4byte	0x550a
 19004 5503 09       		.uleb128 0x9
 19005 5504 01       		.uleb128 0x1
 19006 5505 50       		.byte	0x50
 19007 5506 02       		.uleb128 0x2
 19008 5507 08       		.byte	0x8
 19009 5508 64       		.byte	0x64
 19010 5509 00       		.byte	0
 19011 550a 08       		.uleb128 0x8
 19012 550b B2110000 		.4byte	.LVL915
 19013 550f D85F0000 		.4byte	0x5fd8
 19014 5513 1D550000 		.4byte	0x551d
 19015 5517 09       		.uleb128 0x9
 19016 5518 01       		.uleb128 0x1
 19017 5519 50       		.byte	0x50
 19018 551a 01       		.uleb128 0x1
 19019 551b 30       		.byte	0x30
 19020 551c 00       		.byte	0
 19021 551d 08       		.uleb128 0x8
 19022 551e C0110000 		.4byte	.LVL916
 19023 5522 CD5F0000 		.4byte	0x5fcd
 19024 5526 30550000 		.4byte	0x5530
 19025 552a 09       		.uleb128 0x9
 19026 552b 01       		.uleb128 0x1
 19027 552c 50       		.byte	0x50
 19028 552d 01       		.uleb128 0x1
 19029 552e 31       		.byte	0x31
 19030 552f 00       		.byte	0
 19031 5530 08       		.uleb128 0x8
 19032 5531 C6110000 		.4byte	.LVL917
 19033 5535 E7060000 		.4byte	0x6e7
 19034 5539 43550000 		.4byte	0x5543
 19035 553d 09       		.uleb128 0x9
 19036 553e 01       		.uleb128 0x1
 19037 553f 50       		.byte	0x50
 19038 5540 01       		.uleb128 0x1
 19039 5541 31       		.byte	0x31
 19040 5542 00       		.byte	0
 19041 5543 08       		.uleb128 0x8
 19042 5544 CE110000 		.4byte	.LVL918
 19043 5548 AA060000 		.4byte	0x6aa
 19044 554c 5C550000 		.4byte	0x555c
 19045 5550 09       		.uleb128 0x9
 19046 5551 01       		.uleb128 0x1
 19047 5552 50       		.byte	0x50
 19048 5553 02       		.uleb128 0x2
 19049 5554 08       		.byte	0x8
 19050 5555 20       		.byte	0x20
 19051 5556 09       		.uleb128 0x9
 19052 5557 01       		.uleb128 0x1
ARM GAS  C:\Users\Revanth\AppData\Local\Temp\ccqs06ys.s 			page 377


 19053 5558 51       		.byte	0x51
 19054 5559 01       		.uleb128 0x1
 19055 555a 31       		.byte	0x31
 19056 555b 00       		.byte	0
 19057 555c 08       		.uleb128 0x8
 19058 555d D6110000 		.4byte	.LVL919
 19059 5561 AA060000 		.4byte	0x6aa
 19060 5565 75550000 		.4byte	0x5575
 19061 5569 09       		.uleb128 0x9
 19062 556a 01       		.uleb128 0x1
 19063 556b 50       		.byte	0x50
 19064 556c 02       		.uleb128 0x2
 19065 556d 08       		.byte	0x8
 19066 556e 24       		.byte	0x24
 19067 556f 09       		.uleb128 0x9
 19068 5570 01       		.uleb128 0x1
 19069 5571 51       		.byte	0x51
 19070 5572 01       		.uleb128 0x1
 19071 5573 31       		.byte	0x31
 19072 5574 00       		.byte	0
 19073 5575 08       		.uleb128 0x8
 19074 5576 DE110000 		.4byte	.LVL920
 19075 557a AA060000 		.4byte	0x6aa
 19076 557e 8E550000 		.4byte	0x558e
 19077 5582 09       		.uleb128 0x9
 19078 5583 01       		.uleb128 0x1
 19079 5584 50       		.byte	0x50
 19080 5585 02       		.uleb128 0x2
 19081 5586 08       		.byte	0x8
 19082 5587 28       		.byte	0x28
 19083 5588 09       		.uleb128 0x9
 19084 5589 01       		.uleb128 0x1
 19085 558a 51       		.byte	0x51
 19086 558b 01       		.uleb128 0x1
 19087 558c 31       		.byte	0x31
 19088 558d 00       		.byte	0
 19089 558e 08       		.uleb128 0x8
 19090 558f E6110000 		.4byte	.LVL921
 19091 5593 AA060000 		.4byte	0x6aa
 19092 5597 A7550000 		.4byte	0x55a7
 19093 559b 09       		.uleb128 0x9
 19094 559c 01       		.uleb128 0x1
 19095 559d 50       		.byte	0x50
 19096 559e 02       		.uleb128 0x2
 19097 559f 08       		.byte	0x8
 19098 55a0 2C       		.byte	0x2c
 19099 55a1 09       		.uleb128 0x9
 19100 55a2 01       		.uleb128 0x1
 19101 55a3 51       		.byte	0x51
 19102 55a4 01       		.uleb128 0x1
 19103 55a5 31       		.byte	0x31
 19104 55a6 00       		.byte	0
 19105 55a7 08       		.uleb128 0x8
 19106 55a8 EE110000 		.4byte	.LVL922
 19107 55ac AA060000 		.4byte	0x6aa
 19108 55b0 C0550000 		.4byte	0x55c0
 19109 55b4 09       		.uleb128 0x9
ARM GAS  C:\Users\Revanth\AppData\Local\Temp\ccqs06ys.s 			page 378


 19110 55b5 01       		.uleb128 0x1
 19111 55b6 50       		.byte	0x50
 19112 55b7 02       		.uleb128 0x2
 19113 55b8 08       		.byte	0x8
 19114 55b9 30       		.byte	0x30
 19115 55ba 09       		.uleb128 0x9
 19116 55bb 01       		.uleb128 0x1
 19117 55bc 51       		.byte	0x51
 19118 55bd 01       		.uleb128 0x1
 19119 55be 31       		.byte	0x31
 19120 55bf 00       		.byte	0
 19121 55c0 08       		.uleb128 0x8
 19122 55c1 F6110000 		.4byte	.LVL923
 19123 55c5 AA060000 		.4byte	0x6aa
 19124 55c9 D9550000 		.4byte	0x55d9
 19125 55cd 09       		.uleb128 0x9
 19126 55ce 01       		.uleb128 0x1
 19127 55cf 50       		.byte	0x50
 19128 55d0 02       		.uleb128 0x2
 19129 55d1 08       		.byte	0x8
 19130 55d2 34       		.byte	0x34
 19131 55d3 09       		.uleb128 0x9
 19132 55d4 01       		.uleb128 0x1
 19133 55d5 51       		.byte	0x51
 19134 55d6 01       		.uleb128 0x1
 19135 55d7 31       		.byte	0x31
 19136 55d8 00       		.byte	0
 19137 55d9 08       		.uleb128 0x8
 19138 55da FE110000 		.4byte	.LVL924
 19139 55de AA060000 		.4byte	0x6aa
 19140 55e2 F2550000 		.4byte	0x55f2
 19141 55e6 09       		.uleb128 0x9
 19142 55e7 01       		.uleb128 0x1
 19143 55e8 50       		.byte	0x50
 19144 55e9 02       		.uleb128 0x2
 19145 55ea 08       		.byte	0x8
 19146 55eb 38       		.byte	0x38
 19147 55ec 09       		.uleb128 0x9
 19148 55ed 01       		.uleb128 0x1
 19149 55ee 51       		.byte	0x51
 19150 55ef 01       		.uleb128 0x1
 19151 55f0 31       		.byte	0x31
 19152 55f1 00       		.byte	0
 19153 55f2 08       		.uleb128 0x8
 19154 55f3 06120000 		.4byte	.LVL925
 19155 55f7 AA060000 		.4byte	0x6aa
 19156 55fb 0B560000 		.4byte	0x560b
 19157 55ff 09       		.uleb128 0x9
 19158 5600 01       		.uleb128 0x1
 19159 5601 50       		.byte	0x50
 19160 5602 02       		.uleb128 0x2
 19161 5603 08       		.byte	0x8
 19162 5604 3C       		.byte	0x3c
 19163 5605 09       		.uleb128 0x9
 19164 5606 01       		.uleb128 0x1
 19165 5607 51       		.byte	0x51
 19166 5608 01       		.uleb128 0x1
ARM GAS  C:\Users\Revanth\AppData\Local\Temp\ccqs06ys.s 			page 379


 19167 5609 31       		.byte	0x31
 19168 560a 00       		.byte	0
 19169 560b 08       		.uleb128 0x8
 19170 560c 0E120000 		.4byte	.LVL926
 19171 5610 AA060000 		.4byte	0x6aa
 19172 5614 24560000 		.4byte	0x5624
 19173 5618 09       		.uleb128 0x9
 19174 5619 01       		.uleb128 0x1
 19175 561a 50       		.byte	0x50
 19176 561b 02       		.uleb128 0x2
 19177 561c 08       		.byte	0x8
 19178 561d 40       		.byte	0x40
 19179 561e 09       		.uleb128 0x9
 19180 561f 01       		.uleb128 0x1
 19181 5620 51       		.byte	0x51
 19182 5621 01       		.uleb128 0x1
 19183 5622 31       		.byte	0x31
 19184 5623 00       		.byte	0
 19185 5624 08       		.uleb128 0x8
 19186 5625 16120000 		.4byte	.LVL927
 19187 5629 AA060000 		.4byte	0x6aa
 19188 562d 3D560000 		.4byte	0x563d
 19189 5631 09       		.uleb128 0x9
 19190 5632 01       		.uleb128 0x1
 19191 5633 50       		.byte	0x50
 19192 5634 02       		.uleb128 0x2
 19193 5635 08       		.byte	0x8
 19194 5636 44       		.byte	0x44
 19195 5637 09       		.uleb128 0x9
 19196 5638 01       		.uleb128 0x1
 19197 5639 51       		.byte	0x51
 19198 563a 01       		.uleb128 0x1
 19199 563b 31       		.byte	0x31
 19200 563c 00       		.byte	0
 19201 563d 08       		.uleb128 0x8
 19202 563e 1E120000 		.4byte	.LVL928
 19203 5642 AA060000 		.4byte	0x6aa
 19204 5646 56560000 		.4byte	0x5656
 19205 564a 09       		.uleb128 0x9
 19206 564b 01       		.uleb128 0x1
 19207 564c 50       		.byte	0x50
 19208 564d 02       		.uleb128 0x2
 19209 564e 08       		.byte	0x8
 19210 564f 48       		.byte	0x48
 19211 5650 09       		.uleb128 0x9
 19212 5651 01       		.uleb128 0x1
 19213 5652 51       		.byte	0x51
 19214 5653 01       		.uleb128 0x1
 19215 5654 31       		.byte	0x31
 19216 5655 00       		.byte	0
 19217 5656 08       		.uleb128 0x8
 19218 5657 26120000 		.4byte	.LVL929
 19219 565b AA060000 		.4byte	0x6aa
 19220 565f 6F560000 		.4byte	0x566f
 19221 5663 09       		.uleb128 0x9
 19222 5664 01       		.uleb128 0x1
 19223 5665 50       		.byte	0x50
ARM GAS  C:\Users\Revanth\AppData\Local\Temp\ccqs06ys.s 			page 380


 19224 5666 02       		.uleb128 0x2
 19225 5667 08       		.byte	0x8
 19226 5668 4C       		.byte	0x4c
 19227 5669 09       		.uleb128 0x9
 19228 566a 01       		.uleb128 0x1
 19229 566b 51       		.byte	0x51
 19230 566c 01       		.uleb128 0x1
 19231 566d 31       		.byte	0x31
 19232 566e 00       		.byte	0
 19233 566f 08       		.uleb128 0x8
 19234 5670 2E120000 		.4byte	.LVL930
 19235 5674 AA060000 		.4byte	0x6aa
 19236 5678 88560000 		.4byte	0x5688
 19237 567c 09       		.uleb128 0x9
 19238 567d 01       		.uleb128 0x1
 19239 567e 50       		.byte	0x50
 19240 567f 02       		.uleb128 0x2
 19241 5680 08       		.byte	0x8
 19242 5681 50       		.byte	0x50
 19243 5682 09       		.uleb128 0x9
 19244 5683 01       		.uleb128 0x1
 19245 5684 51       		.byte	0x51
 19246 5685 01       		.uleb128 0x1
 19247 5686 31       		.byte	0x31
 19248 5687 00       		.byte	0
 19249 5688 08       		.uleb128 0x8
 19250 5689 36120000 		.4byte	.LVL931
 19251 568d AA060000 		.4byte	0x6aa
 19252 5691 A1560000 		.4byte	0x56a1
 19253 5695 09       		.uleb128 0x9
 19254 5696 01       		.uleb128 0x1
 19255 5697 50       		.byte	0x50
 19256 5698 02       		.uleb128 0x2
 19257 5699 08       		.byte	0x8
 19258 569a 54       		.byte	0x54
 19259 569b 09       		.uleb128 0x9
 19260 569c 01       		.uleb128 0x1
 19261 569d 51       		.byte	0x51
 19262 569e 01       		.uleb128 0x1
 19263 569f 31       		.byte	0x31
 19264 56a0 00       		.byte	0
 19265 56a1 08       		.uleb128 0x8
 19266 56a2 3E120000 		.4byte	.LVL932
 19267 56a6 AA060000 		.4byte	0x6aa
 19268 56aa BA560000 		.4byte	0x56ba
 19269 56ae 09       		.uleb128 0x9
 19270 56af 01       		.uleb128 0x1
 19271 56b0 50       		.byte	0x50
 19272 56b1 02       		.uleb128 0x2
 19273 56b2 08       		.byte	0x8
 19274 56b3 58       		.byte	0x58
 19275 56b4 09       		.uleb128 0x9
 19276 56b5 01       		.uleb128 0x1
 19277 56b6 51       		.byte	0x51
 19278 56b7 01       		.uleb128 0x1
 19279 56b8 31       		.byte	0x31
 19280 56b9 00       		.byte	0
ARM GAS  C:\Users\Revanth\AppData\Local\Temp\ccqs06ys.s 			page 381


 19281 56ba 08       		.uleb128 0x8
 19282 56bb 46120000 		.4byte	.LVL933
 19283 56bf AA060000 		.4byte	0x6aa
 19284 56c3 D3560000 		.4byte	0x56d3
 19285 56c7 09       		.uleb128 0x9
 19286 56c8 01       		.uleb128 0x1
 19287 56c9 50       		.byte	0x50
 19288 56ca 02       		.uleb128 0x2
 19289 56cb 08       		.byte	0x8
 19290 56cc 5C       		.byte	0x5c
 19291 56cd 09       		.uleb128 0x9
 19292 56ce 01       		.uleb128 0x1
 19293 56cf 51       		.byte	0x51
 19294 56d0 01       		.uleb128 0x1
 19295 56d1 30       		.byte	0x30
 19296 56d2 00       		.byte	0
 19297 56d3 08       		.uleb128 0x8
 19298 56d4 4E120000 		.4byte	.LVL934
 19299 56d8 AA060000 		.4byte	0x6aa
 19300 56dc EC560000 		.4byte	0x56ec
 19301 56e0 09       		.uleb128 0x9
 19302 56e1 01       		.uleb128 0x1
 19303 56e2 50       		.byte	0x50
 19304 56e3 02       		.uleb128 0x2
 19305 56e4 08       		.byte	0x8
 19306 56e5 60       		.byte	0x60
 19307 56e6 09       		.uleb128 0x9
 19308 56e7 01       		.uleb128 0x1
 19309 56e8 51       		.byte	0x51
 19310 56e9 01       		.uleb128 0x1
 19311 56ea 30       		.byte	0x30
 19312 56eb 00       		.byte	0
 19313 56ec 08       		.uleb128 0x8
 19314 56ed 56120000 		.4byte	.LVL935
 19315 56f1 AA060000 		.4byte	0x6aa
 19316 56f5 05570000 		.4byte	0x5705
 19317 56f9 09       		.uleb128 0x9
 19318 56fa 01       		.uleb128 0x1
 19319 56fb 50       		.byte	0x50
 19320 56fc 02       		.uleb128 0x2
 19321 56fd 08       		.byte	0x8
 19322 56fe 64       		.byte	0x64
 19323 56ff 09       		.uleb128 0x9
 19324 5700 01       		.uleb128 0x1
 19325 5701 51       		.byte	0x51
 19326 5702 01       		.uleb128 0x1
 19327 5703 30       		.byte	0x30
 19328 5704 00       		.byte	0
 19329 5705 08       		.uleb128 0x8
 19330 5706 5E120000 		.4byte	.LVL936
 19331 570a AA060000 		.4byte	0x6aa
 19332 570e 1E570000 		.4byte	0x571e
 19333 5712 09       		.uleb128 0x9
 19334 5713 01       		.uleb128 0x1
 19335 5714 50       		.byte	0x50
 19336 5715 02       		.uleb128 0x2
 19337 5716 08       		.byte	0x8
ARM GAS  C:\Users\Revanth\AppData\Local\Temp\ccqs06ys.s 			page 382


 19338 5717 68       		.byte	0x68
 19339 5718 09       		.uleb128 0x9
 19340 5719 01       		.uleb128 0x1
 19341 571a 51       		.byte	0x51
 19342 571b 01       		.uleb128 0x1
 19343 571c 30       		.byte	0x30
 19344 571d 00       		.byte	0
 19345 571e 08       		.uleb128 0x8
 19346 571f 66120000 		.4byte	.LVL937
 19347 5723 AA060000 		.4byte	0x6aa
 19348 5727 37570000 		.4byte	0x5737
 19349 572b 09       		.uleb128 0x9
 19350 572c 01       		.uleb128 0x1
 19351 572d 50       		.byte	0x50
 19352 572e 02       		.uleb128 0x2
 19353 572f 08       		.byte	0x8
 19354 5730 6C       		.byte	0x6c
 19355 5731 09       		.uleb128 0x9
 19356 5732 01       		.uleb128 0x1
 19357 5733 51       		.byte	0x51
 19358 5734 01       		.uleb128 0x1
 19359 5735 30       		.byte	0x30
 19360 5736 00       		.byte	0
 19361 5737 08       		.uleb128 0x8
 19362 5738 6E120000 		.4byte	.LVL938
 19363 573c AA060000 		.4byte	0x6aa
 19364 5740 50570000 		.4byte	0x5750
 19365 5744 09       		.uleb128 0x9
 19366 5745 01       		.uleb128 0x1
 19367 5746 50       		.byte	0x50
 19368 5747 02       		.uleb128 0x2
 19369 5748 08       		.byte	0x8
 19370 5749 70       		.byte	0x70
 19371 574a 09       		.uleb128 0x9
 19372 574b 01       		.uleb128 0x1
 19373 574c 51       		.byte	0x51
 19374 574d 01       		.uleb128 0x1
 19375 574e 30       		.byte	0x30
 19376 574f 00       		.byte	0
 19377 5750 08       		.uleb128 0x8
 19378 5751 76120000 		.4byte	.LVL939
 19379 5755 AA060000 		.4byte	0x6aa
 19380 5759 69570000 		.4byte	0x5769
 19381 575d 09       		.uleb128 0x9
 19382 575e 01       		.uleb128 0x1
 19383 575f 50       		.byte	0x50
 19384 5760 02       		.uleb128 0x2
 19385 5761 08       		.byte	0x8
 19386 5762 74       		.byte	0x74
 19387 5763 09       		.uleb128 0x9
 19388 5764 01       		.uleb128 0x1
 19389 5765 51       		.byte	0x51
 19390 5766 01       		.uleb128 0x1
 19391 5767 30       		.byte	0x30
 19392 5768 00       		.byte	0
 19393 5769 08       		.uleb128 0x8
 19394 576a 7E120000 		.4byte	.LVL940
ARM GAS  C:\Users\Revanth\AppData\Local\Temp\ccqs06ys.s 			page 383


 19395 576e AA060000 		.4byte	0x6aa
 19396 5772 82570000 		.4byte	0x5782
 19397 5776 09       		.uleb128 0x9
 19398 5777 01       		.uleb128 0x1
 19399 5778 50       		.byte	0x50
 19400 5779 02       		.uleb128 0x2
 19401 577a 08       		.byte	0x8
 19402 577b 78       		.byte	0x78
 19403 577c 09       		.uleb128 0x9
 19404 577d 01       		.uleb128 0x1
 19405 577e 51       		.byte	0x51
 19406 577f 01       		.uleb128 0x1
 19407 5780 30       		.byte	0x30
 19408 5781 00       		.byte	0
 19409 5782 08       		.uleb128 0x8
 19410 5783 86120000 		.4byte	.LVL941
 19411 5787 AA060000 		.4byte	0x6aa
 19412 578b 9B570000 		.4byte	0x579b
 19413 578f 09       		.uleb128 0x9
 19414 5790 01       		.uleb128 0x1
 19415 5791 50       		.byte	0x50
 19416 5792 02       		.uleb128 0x2
 19417 5793 08       		.byte	0x8
 19418 5794 7C       		.byte	0x7c
 19419 5795 09       		.uleb128 0x9
 19420 5796 01       		.uleb128 0x1
 19421 5797 51       		.byte	0x51
 19422 5798 01       		.uleb128 0x1
 19423 5799 30       		.byte	0x30
 19424 579a 00       		.byte	0
 19425 579b 08       		.uleb128 0x8
 19426 579c 8E120000 		.4byte	.LVL942
 19427 57a0 AA060000 		.4byte	0x6aa
 19428 57a4 B5570000 		.4byte	0x57b5
 19429 57a8 09       		.uleb128 0x9
 19430 57a9 01       		.uleb128 0x1
 19431 57aa 50       		.byte	0x50
 19432 57ab 02       		.uleb128 0x2
 19433 57ac 08       		.byte	0x8
 19434 57ad 21       		.byte	0x21
 19435 57ae 09       		.uleb128 0x9
 19436 57af 01       		.uleb128 0x1
 19437 57b0 51       		.byte	0x51
 19438 57b1 02       		.uleb128 0x2
 19439 57b2 75       		.byte	0x75
 19440 57b3 00       		.sleb128 0
 19441 57b4 00       		.byte	0
 19442 57b5 08       		.uleb128 0x8
 19443 57b6 96120000 		.4byte	.LVL943
 19444 57ba AA060000 		.4byte	0x6aa
 19445 57be CF570000 		.4byte	0x57cf
 19446 57c2 09       		.uleb128 0x9
 19447 57c3 01       		.uleb128 0x1
 19448 57c4 50       		.byte	0x50
 19449 57c5 02       		.uleb128 0x2
 19450 57c6 08       		.byte	0x8
 19451 57c7 25       		.byte	0x25
ARM GAS  C:\Users\Revanth\AppData\Local\Temp\ccqs06ys.s 			page 384


 19452 57c8 09       		.uleb128 0x9
 19453 57c9 01       		.uleb128 0x1
 19454 57ca 51       		.byte	0x51
 19455 57cb 02       		.uleb128 0x2
 19456 57cc 75       		.byte	0x75
 19457 57cd 00       		.sleb128 0
 19458 57ce 00       		.byte	0
 19459 57cf 08       		.uleb128 0x8
 19460 57d0 9E120000 		.4byte	.LVL944
 19461 57d4 AA060000 		.4byte	0x6aa
 19462 57d8 E9570000 		.4byte	0x57e9
 19463 57dc 09       		.uleb128 0x9
 19464 57dd 01       		.uleb128 0x1
 19465 57de 50       		.byte	0x50
 19466 57df 02       		.uleb128 0x2
 19467 57e0 08       		.byte	0x8
 19468 57e1 29       		.byte	0x29
 19469 57e2 09       		.uleb128 0x9
 19470 57e3 01       		.uleb128 0x1
 19471 57e4 51       		.byte	0x51
 19472 57e5 02       		.uleb128 0x2
 19473 57e6 75       		.byte	0x75
 19474 57e7 00       		.sleb128 0
 19475 57e8 00       		.byte	0
 19476 57e9 08       		.uleb128 0x8
 19477 57ea A6120000 		.4byte	.LVL945
 19478 57ee AA060000 		.4byte	0x6aa
 19479 57f2 03580000 		.4byte	0x5803
 19480 57f6 09       		.uleb128 0x9
 19481 57f7 01       		.uleb128 0x1
 19482 57f8 50       		.byte	0x50
 19483 57f9 02       		.uleb128 0x2
 19484 57fa 08       		.byte	0x8
 19485 57fb 2D       		.byte	0x2d
 19486 57fc 09       		.uleb128 0x9
 19487 57fd 01       		.uleb128 0x1
 19488 57fe 51       		.byte	0x51
 19489 57ff 02       		.uleb128 0x2
 19490 5800 75       		.byte	0x75
 19491 5801 00       		.sleb128 0
 19492 5802 00       		.byte	0
 19493 5803 08       		.uleb128 0x8
 19494 5804 AE120000 		.4byte	.LVL946
 19495 5808 AA060000 		.4byte	0x6aa
 19496 580c 1D580000 		.4byte	0x581d
 19497 5810 09       		.uleb128 0x9
 19498 5811 01       		.uleb128 0x1
 19499 5812 50       		.byte	0x50
 19500 5813 02       		.uleb128 0x2
 19501 5814 08       		.byte	0x8
 19502 5815 31       		.byte	0x31
 19503 5816 09       		.uleb128 0x9
 19504 5817 01       		.uleb128 0x1
 19505 5818 51       		.byte	0x51
 19506 5819 02       		.uleb128 0x2
 19507 581a 75       		.byte	0x75
 19508 581b 00       		.sleb128 0
ARM GAS  C:\Users\Revanth\AppData\Local\Temp\ccqs06ys.s 			page 385


 19509 581c 00       		.byte	0
 19510 581d 08       		.uleb128 0x8
 19511 581e B6120000 		.4byte	.LVL947
 19512 5822 AA060000 		.4byte	0x6aa
 19513 5826 37580000 		.4byte	0x5837
 19514 582a 09       		.uleb128 0x9
 19515 582b 01       		.uleb128 0x1
 19516 582c 50       		.byte	0x50
 19517 582d 02       		.uleb128 0x2
 19518 582e 08       		.byte	0x8
 19519 582f 35       		.byte	0x35
 19520 5830 09       		.uleb128 0x9
 19521 5831 01       		.uleb128 0x1
 19522 5832 51       		.byte	0x51
 19523 5833 02       		.uleb128 0x2
 19524 5834 75       		.byte	0x75
 19525 5835 00       		.sleb128 0
 19526 5836 00       		.byte	0
 19527 5837 08       		.uleb128 0x8
 19528 5838 BE120000 		.4byte	.LVL948
 19529 583c AA060000 		.4byte	0x6aa
 19530 5840 51580000 		.4byte	0x5851
 19531 5844 09       		.uleb128 0x9
 19532 5845 01       		.uleb128 0x1
 19533 5846 50       		.byte	0x50
 19534 5847 02       		.uleb128 0x2
 19535 5848 08       		.byte	0x8
 19536 5849 39       		.byte	0x39
 19537 584a 09       		.uleb128 0x9
 19538 584b 01       		.uleb128 0x1
 19539 584c 51       		.byte	0x51
 19540 584d 02       		.uleb128 0x2
 19541 584e 75       		.byte	0x75
 19542 584f 00       		.sleb128 0
 19543 5850 00       		.byte	0
 19544 5851 08       		.uleb128 0x8
 19545 5852 C6120000 		.4byte	.LVL949
 19546 5856 AA060000 		.4byte	0x6aa
 19547 585a 6B580000 		.4byte	0x586b
 19548 585e 09       		.uleb128 0x9
 19549 585f 01       		.uleb128 0x1
 19550 5860 50       		.byte	0x50
 19551 5861 02       		.uleb128 0x2
 19552 5862 08       		.byte	0x8
 19553 5863 3D       		.byte	0x3d
 19554 5864 09       		.uleb128 0x9
 19555 5865 01       		.uleb128 0x1
 19556 5866 51       		.byte	0x51
 19557 5867 02       		.uleb128 0x2
 19558 5868 75       		.byte	0x75
 19559 5869 00       		.sleb128 0
 19560 586a 00       		.byte	0
 19561 586b 08       		.uleb128 0x8
 19562 586c CE120000 		.4byte	.LVL950
 19563 5870 AA060000 		.4byte	0x6aa
 19564 5874 85580000 		.4byte	0x5885
 19565 5878 09       		.uleb128 0x9
ARM GAS  C:\Users\Revanth\AppData\Local\Temp\ccqs06ys.s 			page 386


 19566 5879 01       		.uleb128 0x1
 19567 587a 50       		.byte	0x50
 19568 587b 02       		.uleb128 0x2
 19569 587c 08       		.byte	0x8
 19570 587d 41       		.byte	0x41
 19571 587e 09       		.uleb128 0x9
 19572 587f 01       		.uleb128 0x1
 19573 5880 51       		.byte	0x51
 19574 5881 02       		.uleb128 0x2
 19575 5882 75       		.byte	0x75
 19576 5883 00       		.sleb128 0
 19577 5884 00       		.byte	0
 19578 5885 08       		.uleb128 0x8
 19579 5886 D6120000 		.4byte	.LVL951
 19580 588a AA060000 		.4byte	0x6aa
 19581 588e 9F580000 		.4byte	0x589f
 19582 5892 09       		.uleb128 0x9
 19583 5893 01       		.uleb128 0x1
 19584 5894 50       		.byte	0x50
 19585 5895 02       		.uleb128 0x2
 19586 5896 08       		.byte	0x8
 19587 5897 45       		.byte	0x45
 19588 5898 09       		.uleb128 0x9
 19589 5899 01       		.uleb128 0x1
 19590 589a 51       		.byte	0x51
 19591 589b 02       		.uleb128 0x2
 19592 589c 75       		.byte	0x75
 19593 589d 00       		.sleb128 0
 19594 589e 00       		.byte	0
 19595 589f 08       		.uleb128 0x8
 19596 58a0 DE120000 		.4byte	.LVL952
 19597 58a4 AA060000 		.4byte	0x6aa
 19598 58a8 B9580000 		.4byte	0x58b9
 19599 58ac 09       		.uleb128 0x9
 19600 58ad 01       		.uleb128 0x1
 19601 58ae 50       		.byte	0x50
 19602 58af 02       		.uleb128 0x2
 19603 58b0 08       		.byte	0x8
 19604 58b1 49       		.byte	0x49
 19605 58b2 09       		.uleb128 0x9
 19606 58b3 01       		.uleb128 0x1
 19607 58b4 51       		.byte	0x51
 19608 58b5 02       		.uleb128 0x2
 19609 58b6 75       		.byte	0x75
 19610 58b7 00       		.sleb128 0
 19611 58b8 00       		.byte	0
 19612 58b9 08       		.uleb128 0x8
 19613 58ba E6120000 		.4byte	.LVL953
 19614 58be AA060000 		.4byte	0x6aa
 19615 58c2 D3580000 		.4byte	0x58d3
 19616 58c6 09       		.uleb128 0x9
 19617 58c7 01       		.uleb128 0x1
 19618 58c8 50       		.byte	0x50
 19619 58c9 02       		.uleb128 0x2
 19620 58ca 08       		.byte	0x8
 19621 58cb 4D       		.byte	0x4d
 19622 58cc 09       		.uleb128 0x9
ARM GAS  C:\Users\Revanth\AppData\Local\Temp\ccqs06ys.s 			page 387


 19623 58cd 01       		.uleb128 0x1
 19624 58ce 51       		.byte	0x51
 19625 58cf 02       		.uleb128 0x2
 19626 58d0 75       		.byte	0x75
 19627 58d1 00       		.sleb128 0
 19628 58d2 00       		.byte	0
 19629 58d3 08       		.uleb128 0x8
 19630 58d4 EE120000 		.4byte	.LVL954
 19631 58d8 AA060000 		.4byte	0x6aa
 19632 58dc ED580000 		.4byte	0x58ed
 19633 58e0 09       		.uleb128 0x9
 19634 58e1 01       		.uleb128 0x1
 19635 58e2 50       		.byte	0x50
 19636 58e3 02       		.uleb128 0x2
 19637 58e4 08       		.byte	0x8
 19638 58e5 51       		.byte	0x51
 19639 58e6 09       		.uleb128 0x9
 19640 58e7 01       		.uleb128 0x1
 19641 58e8 51       		.byte	0x51
 19642 58e9 02       		.uleb128 0x2
 19643 58ea 75       		.byte	0x75
 19644 58eb 00       		.sleb128 0
 19645 58ec 00       		.byte	0
 19646 58ed 08       		.uleb128 0x8
 19647 58ee F6120000 		.4byte	.LVL955
 19648 58f2 AA060000 		.4byte	0x6aa
 19649 58f6 07590000 		.4byte	0x5907
 19650 58fa 09       		.uleb128 0x9
 19651 58fb 01       		.uleb128 0x1
 19652 58fc 50       		.byte	0x50
 19653 58fd 02       		.uleb128 0x2
 19654 58fe 08       		.byte	0x8
 19655 58ff 55       		.byte	0x55
 19656 5900 09       		.uleb128 0x9
 19657 5901 01       		.uleb128 0x1
 19658 5902 51       		.byte	0x51
 19659 5903 02       		.uleb128 0x2
 19660 5904 75       		.byte	0x75
 19661 5905 00       		.sleb128 0
 19662 5906 00       		.byte	0
 19663 5907 08       		.uleb128 0x8
 19664 5908 FE120000 		.4byte	.LVL956
 19665 590c AA060000 		.4byte	0x6aa
 19666 5910 21590000 		.4byte	0x5921
 19667 5914 09       		.uleb128 0x9
 19668 5915 01       		.uleb128 0x1
 19669 5916 50       		.byte	0x50
 19670 5917 02       		.uleb128 0x2
 19671 5918 08       		.byte	0x8
 19672 5919 59       		.byte	0x59
 19673 591a 09       		.uleb128 0x9
 19674 591b 01       		.uleb128 0x1
 19675 591c 51       		.byte	0x51
 19676 591d 02       		.uleb128 0x2
 19677 591e 75       		.byte	0x75
 19678 591f 00       		.sleb128 0
 19679 5920 00       		.byte	0
ARM GAS  C:\Users\Revanth\AppData\Local\Temp\ccqs06ys.s 			page 388


 19680 5921 08       		.uleb128 0x8
 19681 5922 06130000 		.4byte	.LVL957
 19682 5926 AA060000 		.4byte	0x6aa
 19683 592a 3A590000 		.4byte	0x593a
 19684 592e 09       		.uleb128 0x9
 19685 592f 01       		.uleb128 0x1
 19686 5930 50       		.byte	0x50
 19687 5931 02       		.uleb128 0x2
 19688 5932 08       		.byte	0x8
 19689 5933 5D       		.byte	0x5d
 19690 5934 09       		.uleb128 0x9
 19691 5935 01       		.uleb128 0x1
 19692 5936 51       		.byte	0x51
 19693 5937 01       		.uleb128 0x1
 19694 5938 30       		.byte	0x30
 19695 5939 00       		.byte	0
 19696 593a 08       		.uleb128 0x8
 19697 593b 0E130000 		.4byte	.LVL958
 19698 593f AA060000 		.4byte	0x6aa
 19699 5943 53590000 		.4byte	0x5953
 19700 5947 09       		.uleb128 0x9
 19701 5948 01       		.uleb128 0x1
 19702 5949 50       		.byte	0x50
 19703 594a 02       		.uleb128 0x2
 19704 594b 08       		.byte	0x8
 19705 594c 61       		.byte	0x61
 19706 594d 09       		.uleb128 0x9
 19707 594e 01       		.uleb128 0x1
 19708 594f 51       		.byte	0x51
 19709 5950 01       		.uleb128 0x1
 19710 5951 30       		.byte	0x30
 19711 5952 00       		.byte	0
 19712 5953 08       		.uleb128 0x8
 19713 5954 16130000 		.4byte	.LVL959
 19714 5958 AA060000 		.4byte	0x6aa
 19715 595c 6C590000 		.4byte	0x596c
 19716 5960 09       		.uleb128 0x9
 19717 5961 01       		.uleb128 0x1
 19718 5962 50       		.byte	0x50
 19719 5963 02       		.uleb128 0x2
 19720 5964 08       		.byte	0x8
 19721 5965 65       		.byte	0x65
 19722 5966 09       		.uleb128 0x9
 19723 5967 01       		.uleb128 0x1
 19724 5968 51       		.byte	0x51
 19725 5969 01       		.uleb128 0x1
 19726 596a 30       		.byte	0x30
 19727 596b 00       		.byte	0
 19728 596c 08       		.uleb128 0x8
 19729 596d 1E130000 		.4byte	.LVL960
 19730 5971 AA060000 		.4byte	0x6aa
 19731 5975 85590000 		.4byte	0x5985
 19732 5979 09       		.uleb128 0x9
 19733 597a 01       		.uleb128 0x1
 19734 597b 50       		.byte	0x50
 19735 597c 02       		.uleb128 0x2
 19736 597d 08       		.byte	0x8
ARM GAS  C:\Users\Revanth\AppData\Local\Temp\ccqs06ys.s 			page 389


 19737 597e 69       		.byte	0x69
 19738 597f 09       		.uleb128 0x9
 19739 5980 01       		.uleb128 0x1
 19740 5981 51       		.byte	0x51
 19741 5982 01       		.uleb128 0x1
 19742 5983 30       		.byte	0x30
 19743 5984 00       		.byte	0
 19744 5985 08       		.uleb128 0x8
 19745 5986 26130000 		.4byte	.LVL961
 19746 598a AA060000 		.4byte	0x6aa
 19747 598e 9E590000 		.4byte	0x599e
 19748 5992 09       		.uleb128 0x9
 19749 5993 01       		.uleb128 0x1
 19750 5994 50       		.byte	0x50
 19751 5995 02       		.uleb128 0x2
 19752 5996 08       		.byte	0x8
 19753 5997 6D       		.byte	0x6d
 19754 5998 09       		.uleb128 0x9
 19755 5999 01       		.uleb128 0x1
 19756 599a 51       		.byte	0x51
 19757 599b 01       		.uleb128 0x1
 19758 599c 30       		.byte	0x30
 19759 599d 00       		.byte	0
 19760 599e 08       		.uleb128 0x8
 19761 599f 2E130000 		.4byte	.LVL962
 19762 59a3 AA060000 		.4byte	0x6aa
 19763 59a7 B7590000 		.4byte	0x59b7
 19764 59ab 09       		.uleb128 0x9
 19765 59ac 01       		.uleb128 0x1
 19766 59ad 50       		.byte	0x50
 19767 59ae 02       		.uleb128 0x2
 19768 59af 08       		.byte	0x8
 19769 59b0 71       		.byte	0x71
 19770 59b1 09       		.uleb128 0x9
 19771 59b2 01       		.uleb128 0x1
 19772 59b3 51       		.byte	0x51
 19773 59b4 01       		.uleb128 0x1
 19774 59b5 30       		.byte	0x30
 19775 59b6 00       		.byte	0
 19776 59b7 08       		.uleb128 0x8
 19777 59b8 36130000 		.4byte	.LVL963
 19778 59bc AA060000 		.4byte	0x6aa
 19779 59c0 D0590000 		.4byte	0x59d0
 19780 59c4 09       		.uleb128 0x9
 19781 59c5 01       		.uleb128 0x1
 19782 59c6 50       		.byte	0x50
 19783 59c7 02       		.uleb128 0x2
 19784 59c8 08       		.byte	0x8
 19785 59c9 75       		.byte	0x75
 19786 59ca 09       		.uleb128 0x9
 19787 59cb 01       		.uleb128 0x1
 19788 59cc 51       		.byte	0x51
 19789 59cd 01       		.uleb128 0x1
 19790 59ce 30       		.byte	0x30
 19791 59cf 00       		.byte	0
 19792 59d0 08       		.uleb128 0x8
 19793 59d1 3E130000 		.4byte	.LVL964
ARM GAS  C:\Users\Revanth\AppData\Local\Temp\ccqs06ys.s 			page 390


 19794 59d5 AA060000 		.4byte	0x6aa
 19795 59d9 E9590000 		.4byte	0x59e9
 19796 59dd 09       		.uleb128 0x9
 19797 59de 01       		.uleb128 0x1
 19798 59df 50       		.byte	0x50
 19799 59e0 02       		.uleb128 0x2
 19800 59e1 08       		.byte	0x8
 19801 59e2 79       		.byte	0x79
 19802 59e3 09       		.uleb128 0x9
 19803 59e4 01       		.uleb128 0x1
 19804 59e5 51       		.byte	0x51
 19805 59e6 01       		.uleb128 0x1
 19806 59e7 30       		.byte	0x30
 19807 59e8 00       		.byte	0
 19808 59e9 08       		.uleb128 0x8
 19809 59ea 46130000 		.4byte	.LVL965
 19810 59ee AA060000 		.4byte	0x6aa
 19811 59f2 025A0000 		.4byte	0x5a02
 19812 59f6 09       		.uleb128 0x9
 19813 59f7 01       		.uleb128 0x1
 19814 59f8 50       		.byte	0x50
 19815 59f9 02       		.uleb128 0x2
 19816 59fa 08       		.byte	0x8
 19817 59fb 7D       		.byte	0x7d
 19818 59fc 09       		.uleb128 0x9
 19819 59fd 01       		.uleb128 0x1
 19820 59fe 51       		.byte	0x51
 19821 59ff 01       		.uleb128 0x1
 19822 5a00 30       		.byte	0x30
 19823 5a01 00       		.byte	0
 19824 5a02 08       		.uleb128 0x8
 19825 5a03 4C130000 		.4byte	.LVL966
 19826 5a07 CD5F0000 		.4byte	0x5fcd
 19827 5a0b 155A0000 		.4byte	0x5a15
 19828 5a0f 09       		.uleb128 0x9
 19829 5a10 01       		.uleb128 0x1
 19830 5a11 50       		.byte	0x50
 19831 5a12 01       		.uleb128 0x1
 19832 5a13 30       		.byte	0x30
 19833 5a14 00       		.byte	0
 19834 5a15 08       		.uleb128 0x8
 19835 5a16 52130000 		.4byte	.LVL967
 19836 5a1a C25F0000 		.4byte	0x5fc2
 19837 5a1e 285A0000 		.4byte	0x5a28
 19838 5a22 09       		.uleb128 0x9
 19839 5a23 01       		.uleb128 0x1
 19840 5a24 50       		.byte	0x50
 19841 5a25 01       		.uleb128 0x1
 19842 5a26 31       		.byte	0x31
 19843 5a27 00       		.byte	0
 19844 5a28 08       		.uleb128 0x8
 19845 5a29 58130000 		.4byte	.LVL968
 19846 5a2d CA040000 		.4byte	0x4ca
 19847 5a31 3B5A0000 		.4byte	0x5a3b
 19848 5a35 09       		.uleb128 0x9
 19849 5a36 01       		.uleb128 0x1
 19850 5a37 50       		.byte	0x50
ARM GAS  C:\Users\Revanth\AppData\Local\Temp\ccqs06ys.s 			page 391


 19851 5a38 01       		.uleb128 0x1
 19852 5a39 31       		.byte	0x31
 19853 5a3a 00       		.byte	0
 19854 5a3b 08       		.uleb128 0x8
 19855 5a3c 60130000 		.4byte	.LVL969
 19856 5a40 8D040000 		.4byte	0x48d
 19857 5a44 545A0000 		.4byte	0x5a54
 19858 5a48 09       		.uleb128 0x9
 19859 5a49 01       		.uleb128 0x1
 19860 5a4a 50       		.byte	0x50
 19861 5a4b 02       		.uleb128 0x2
 19862 5a4c 08       		.byte	0x8
 19863 5a4d 20       		.byte	0x20
 19864 5a4e 09       		.uleb128 0x9
 19865 5a4f 01       		.uleb128 0x1
 19866 5a50 51       		.byte	0x51
 19867 5a51 01       		.uleb128 0x1
 19868 5a52 31       		.byte	0x31
 19869 5a53 00       		.byte	0
 19870 5a54 08       		.uleb128 0x8
 19871 5a55 68130000 		.4byte	.LVL970
 19872 5a59 8D040000 		.4byte	0x48d
 19873 5a5d 6D5A0000 		.4byte	0x5a6d
 19874 5a61 09       		.uleb128 0x9
 19875 5a62 01       		.uleb128 0x1
 19876 5a63 50       		.byte	0x50
 19877 5a64 02       		.uleb128 0x2
 19878 5a65 08       		.byte	0x8
 19879 5a66 24       		.byte	0x24
 19880 5a67 09       		.uleb128 0x9
 19881 5a68 01       		.uleb128 0x1
 19882 5a69 51       		.byte	0x51
 19883 5a6a 01       		.uleb128 0x1
 19884 5a6b 31       		.byte	0x31
 19885 5a6c 00       		.byte	0
 19886 5a6d 08       		.uleb128 0x8
 19887 5a6e 70130000 		.4byte	.LVL971
 19888 5a72 8D040000 		.4byte	0x48d
 19889 5a76 865A0000 		.4byte	0x5a86
 19890 5a7a 09       		.uleb128 0x9
 19891 5a7b 01       		.uleb128 0x1
 19892 5a7c 50       		.byte	0x50
 19893 5a7d 02       		.uleb128 0x2
 19894 5a7e 08       		.byte	0x8
 19895 5a7f 28       		.byte	0x28
 19896 5a80 09       		.uleb128 0x9
 19897 5a81 01       		.uleb128 0x1
 19898 5a82 51       		.byte	0x51
 19899 5a83 01       		.uleb128 0x1
 19900 5a84 31       		.byte	0x31
 19901 5a85 00       		.byte	0
 19902 5a86 08       		.uleb128 0x8
 19903 5a87 78130000 		.4byte	.LVL972
 19904 5a8b 8D040000 		.4byte	0x48d
 19905 5a8f 9F5A0000 		.4byte	0x5a9f
 19906 5a93 09       		.uleb128 0x9
 19907 5a94 01       		.uleb128 0x1
ARM GAS  C:\Users\Revanth\AppData\Local\Temp\ccqs06ys.s 			page 392


 19908 5a95 50       		.byte	0x50
 19909 5a96 02       		.uleb128 0x2
 19910 5a97 08       		.byte	0x8
 19911 5a98 2C       		.byte	0x2c
 19912 5a99 09       		.uleb128 0x9
 19913 5a9a 01       		.uleb128 0x1
 19914 5a9b 51       		.byte	0x51
 19915 5a9c 01       		.uleb128 0x1
 19916 5a9d 31       		.byte	0x31
 19917 5a9e 00       		.byte	0
 19918 5a9f 08       		.uleb128 0x8
 19919 5aa0 80130000 		.4byte	.LVL973
 19920 5aa4 8D040000 		.4byte	0x48d
 19921 5aa8 B85A0000 		.4byte	0x5ab8
 19922 5aac 09       		.uleb128 0x9
 19923 5aad 01       		.uleb128 0x1
 19924 5aae 50       		.byte	0x50
 19925 5aaf 02       		.uleb128 0x2
 19926 5ab0 08       		.byte	0x8
 19927 5ab1 30       		.byte	0x30
 19928 5ab2 09       		.uleb128 0x9
 19929 5ab3 01       		.uleb128 0x1
 19930 5ab4 51       		.byte	0x51
 19931 5ab5 01       		.uleb128 0x1
 19932 5ab6 31       		.byte	0x31
 19933 5ab7 00       		.byte	0
 19934 5ab8 08       		.uleb128 0x8
 19935 5ab9 88130000 		.4byte	.LVL974
 19936 5abd 8D040000 		.4byte	0x48d
 19937 5ac1 D15A0000 		.4byte	0x5ad1
 19938 5ac5 09       		.uleb128 0x9
 19939 5ac6 01       		.uleb128 0x1
 19940 5ac7 50       		.byte	0x50
 19941 5ac8 02       		.uleb128 0x2
 19942 5ac9 08       		.byte	0x8
 19943 5aca 34       		.byte	0x34
 19944 5acb 09       		.uleb128 0x9
 19945 5acc 01       		.uleb128 0x1
 19946 5acd 51       		.byte	0x51
 19947 5ace 01       		.uleb128 0x1
 19948 5acf 31       		.byte	0x31
 19949 5ad0 00       		.byte	0
 19950 5ad1 08       		.uleb128 0x8
 19951 5ad2 90130000 		.4byte	.LVL975
 19952 5ad6 8D040000 		.4byte	0x48d
 19953 5ada EA5A0000 		.4byte	0x5aea
 19954 5ade 09       		.uleb128 0x9
 19955 5adf 01       		.uleb128 0x1
 19956 5ae0 50       		.byte	0x50
 19957 5ae1 02       		.uleb128 0x2
 19958 5ae2 08       		.byte	0x8
 19959 5ae3 38       		.byte	0x38
 19960 5ae4 09       		.uleb128 0x9
 19961 5ae5 01       		.uleb128 0x1
 19962 5ae6 51       		.byte	0x51
 19963 5ae7 01       		.uleb128 0x1
 19964 5ae8 31       		.byte	0x31
ARM GAS  C:\Users\Revanth\AppData\Local\Temp\ccqs06ys.s 			page 393


 19965 5ae9 00       		.byte	0
 19966 5aea 08       		.uleb128 0x8
 19967 5aeb 98130000 		.4byte	.LVL976
 19968 5aef 8D040000 		.4byte	0x48d
 19969 5af3 035B0000 		.4byte	0x5b03
 19970 5af7 09       		.uleb128 0x9
 19971 5af8 01       		.uleb128 0x1
 19972 5af9 50       		.byte	0x50
 19973 5afa 02       		.uleb128 0x2
 19974 5afb 08       		.byte	0x8
 19975 5afc 3C       		.byte	0x3c
 19976 5afd 09       		.uleb128 0x9
 19977 5afe 01       		.uleb128 0x1
 19978 5aff 51       		.byte	0x51
 19979 5b00 01       		.uleb128 0x1
 19980 5b01 31       		.byte	0x31
 19981 5b02 00       		.byte	0
 19982 5b03 08       		.uleb128 0x8
 19983 5b04 A0130000 		.4byte	.LVL977
 19984 5b08 8D040000 		.4byte	0x48d
 19985 5b0c 1C5B0000 		.4byte	0x5b1c
 19986 5b10 09       		.uleb128 0x9
 19987 5b11 01       		.uleb128 0x1
 19988 5b12 50       		.byte	0x50
 19989 5b13 02       		.uleb128 0x2
 19990 5b14 08       		.byte	0x8
 19991 5b15 40       		.byte	0x40
 19992 5b16 09       		.uleb128 0x9
 19993 5b17 01       		.uleb128 0x1
 19994 5b18 51       		.byte	0x51
 19995 5b19 01       		.uleb128 0x1
 19996 5b1a 31       		.byte	0x31
 19997 5b1b 00       		.byte	0
 19998 5b1c 08       		.uleb128 0x8
 19999 5b1d A8130000 		.4byte	.LVL978
 20000 5b21 8D040000 		.4byte	0x48d
 20001 5b25 355B0000 		.4byte	0x5b35
 20002 5b29 09       		.uleb128 0x9
 20003 5b2a 01       		.uleb128 0x1
 20004 5b2b 50       		.byte	0x50
 20005 5b2c 02       		.uleb128 0x2
 20006 5b2d 08       		.byte	0x8
 20007 5b2e 44       		.byte	0x44
 20008 5b2f 09       		.uleb128 0x9
 20009 5b30 01       		.uleb128 0x1
 20010 5b31 51       		.byte	0x51
 20011 5b32 01       		.uleb128 0x1
 20012 5b33 31       		.byte	0x31
 20013 5b34 00       		.byte	0
 20014 5b35 08       		.uleb128 0x8
 20015 5b36 B0130000 		.4byte	.LVL979
 20016 5b3a 8D040000 		.4byte	0x48d
 20017 5b3e 4E5B0000 		.4byte	0x5b4e
 20018 5b42 09       		.uleb128 0x9
 20019 5b43 01       		.uleb128 0x1
 20020 5b44 50       		.byte	0x50
 20021 5b45 02       		.uleb128 0x2
ARM GAS  C:\Users\Revanth\AppData\Local\Temp\ccqs06ys.s 			page 394


 20022 5b46 08       		.byte	0x8
 20023 5b47 48       		.byte	0x48
 20024 5b48 09       		.uleb128 0x9
 20025 5b49 01       		.uleb128 0x1
 20026 5b4a 51       		.byte	0x51
 20027 5b4b 01       		.uleb128 0x1
 20028 5b4c 31       		.byte	0x31
 20029 5b4d 00       		.byte	0
 20030 5b4e 08       		.uleb128 0x8
 20031 5b4f B8130000 		.4byte	.LVL980
 20032 5b53 8D040000 		.4byte	0x48d
 20033 5b57 675B0000 		.4byte	0x5b67
 20034 5b5b 09       		.uleb128 0x9
 20035 5b5c 01       		.uleb128 0x1
 20036 5b5d 50       		.byte	0x50
 20037 5b5e 02       		.uleb128 0x2
 20038 5b5f 08       		.byte	0x8
 20039 5b60 4C       		.byte	0x4c
 20040 5b61 09       		.uleb128 0x9
 20041 5b62 01       		.uleb128 0x1
 20042 5b63 51       		.byte	0x51
 20043 5b64 01       		.uleb128 0x1
 20044 5b65 31       		.byte	0x31
 20045 5b66 00       		.byte	0
 20046 5b67 08       		.uleb128 0x8
 20047 5b68 C0130000 		.4byte	.LVL981
 20048 5b6c 8D040000 		.4byte	0x48d
 20049 5b70 805B0000 		.4byte	0x5b80
 20050 5b74 09       		.uleb128 0x9
 20051 5b75 01       		.uleb128 0x1
 20052 5b76 50       		.byte	0x50
 20053 5b77 02       		.uleb128 0x2
 20054 5b78 08       		.byte	0x8
 20055 5b79 50       		.byte	0x50
 20056 5b7a 09       		.uleb128 0x9
 20057 5b7b 01       		.uleb128 0x1
 20058 5b7c 51       		.byte	0x51
 20059 5b7d 01       		.uleb128 0x1
 20060 5b7e 31       		.byte	0x31
 20061 5b7f 00       		.byte	0
 20062 5b80 08       		.uleb128 0x8
 20063 5b81 C8130000 		.4byte	.LVL982
 20064 5b85 8D040000 		.4byte	0x48d
 20065 5b89 995B0000 		.4byte	0x5b99
 20066 5b8d 09       		.uleb128 0x9
 20067 5b8e 01       		.uleb128 0x1
 20068 5b8f 50       		.byte	0x50
 20069 5b90 02       		.uleb128 0x2
 20070 5b91 08       		.byte	0x8
 20071 5b92 54       		.byte	0x54
 20072 5b93 09       		.uleb128 0x9
 20073 5b94 01       		.uleb128 0x1
 20074 5b95 51       		.byte	0x51
 20075 5b96 01       		.uleb128 0x1
 20076 5b97 31       		.byte	0x31
 20077 5b98 00       		.byte	0
 20078 5b99 08       		.uleb128 0x8
ARM GAS  C:\Users\Revanth\AppData\Local\Temp\ccqs06ys.s 			page 395


 20079 5b9a D0130000 		.4byte	.LVL983
 20080 5b9e 8D040000 		.4byte	0x48d
 20081 5ba2 B25B0000 		.4byte	0x5bb2
 20082 5ba6 09       		.uleb128 0x9
 20083 5ba7 01       		.uleb128 0x1
 20084 5ba8 50       		.byte	0x50
 20085 5ba9 02       		.uleb128 0x2
 20086 5baa 08       		.byte	0x8
 20087 5bab 58       		.byte	0x58
 20088 5bac 09       		.uleb128 0x9
 20089 5bad 01       		.uleb128 0x1
 20090 5bae 51       		.byte	0x51
 20091 5baf 01       		.uleb128 0x1
 20092 5bb0 31       		.byte	0x31
 20093 5bb1 00       		.byte	0
 20094 5bb2 08       		.uleb128 0x8
 20095 5bb3 D8130000 		.4byte	.LVL984
 20096 5bb7 8D040000 		.4byte	0x48d
 20097 5bbb CB5B0000 		.4byte	0x5bcb
 20098 5bbf 09       		.uleb128 0x9
 20099 5bc0 01       		.uleb128 0x1
 20100 5bc1 50       		.byte	0x50
 20101 5bc2 02       		.uleb128 0x2
 20102 5bc3 08       		.byte	0x8
 20103 5bc4 5C       		.byte	0x5c
 20104 5bc5 09       		.uleb128 0x9
 20105 5bc6 01       		.uleb128 0x1
 20106 5bc7 51       		.byte	0x51
 20107 5bc8 01       		.uleb128 0x1
 20108 5bc9 30       		.byte	0x30
 20109 5bca 00       		.byte	0
 20110 5bcb 08       		.uleb128 0x8
 20111 5bcc E0130000 		.4byte	.LVL985
 20112 5bd0 8D040000 		.4byte	0x48d
 20113 5bd4 E45B0000 		.4byte	0x5be4
 20114 5bd8 09       		.uleb128 0x9
 20115 5bd9 01       		.uleb128 0x1
 20116 5bda 50       		.byte	0x50
 20117 5bdb 02       		.uleb128 0x2
 20118 5bdc 08       		.byte	0x8
 20119 5bdd 60       		.byte	0x60
 20120 5bde 09       		.uleb128 0x9
 20121 5bdf 01       		.uleb128 0x1
 20122 5be0 51       		.byte	0x51
 20123 5be1 01       		.uleb128 0x1
 20124 5be2 30       		.byte	0x30
 20125 5be3 00       		.byte	0
 20126 5be4 08       		.uleb128 0x8
 20127 5be5 E8130000 		.4byte	.LVL986
 20128 5be9 8D040000 		.4byte	0x48d
 20129 5bed FD5B0000 		.4byte	0x5bfd
 20130 5bf1 09       		.uleb128 0x9
 20131 5bf2 01       		.uleb128 0x1
 20132 5bf3 50       		.byte	0x50
 20133 5bf4 02       		.uleb128 0x2
 20134 5bf5 08       		.byte	0x8
 20135 5bf6 64       		.byte	0x64
ARM GAS  C:\Users\Revanth\AppData\Local\Temp\ccqs06ys.s 			page 396


 20136 5bf7 09       		.uleb128 0x9
 20137 5bf8 01       		.uleb128 0x1
 20138 5bf9 51       		.byte	0x51
 20139 5bfa 01       		.uleb128 0x1
 20140 5bfb 30       		.byte	0x30
 20141 5bfc 00       		.byte	0
 20142 5bfd 08       		.uleb128 0x8
 20143 5bfe F0130000 		.4byte	.LVL987
 20144 5c02 8D040000 		.4byte	0x48d
 20145 5c06 165C0000 		.4byte	0x5c16
 20146 5c0a 09       		.uleb128 0x9
 20147 5c0b 01       		.uleb128 0x1
 20148 5c0c 50       		.byte	0x50
 20149 5c0d 02       		.uleb128 0x2
 20150 5c0e 08       		.byte	0x8
 20151 5c0f 68       		.byte	0x68
 20152 5c10 09       		.uleb128 0x9
 20153 5c11 01       		.uleb128 0x1
 20154 5c12 51       		.byte	0x51
 20155 5c13 01       		.uleb128 0x1
 20156 5c14 30       		.byte	0x30
 20157 5c15 00       		.byte	0
 20158 5c16 08       		.uleb128 0x8
 20159 5c17 F8130000 		.4byte	.LVL988
 20160 5c1b 8D040000 		.4byte	0x48d
 20161 5c1f 2F5C0000 		.4byte	0x5c2f
 20162 5c23 09       		.uleb128 0x9
 20163 5c24 01       		.uleb128 0x1
 20164 5c25 50       		.byte	0x50
 20165 5c26 02       		.uleb128 0x2
 20166 5c27 08       		.byte	0x8
 20167 5c28 6C       		.byte	0x6c
 20168 5c29 09       		.uleb128 0x9
 20169 5c2a 01       		.uleb128 0x1
 20170 5c2b 51       		.byte	0x51
 20171 5c2c 01       		.uleb128 0x1
 20172 5c2d 30       		.byte	0x30
 20173 5c2e 00       		.byte	0
 20174 5c2f 08       		.uleb128 0x8
 20175 5c30 00140000 		.4byte	.LVL989
 20176 5c34 8D040000 		.4byte	0x48d
 20177 5c38 485C0000 		.4byte	0x5c48
 20178 5c3c 09       		.uleb128 0x9
 20179 5c3d 01       		.uleb128 0x1
 20180 5c3e 50       		.byte	0x50
 20181 5c3f 02       		.uleb128 0x2
 20182 5c40 08       		.byte	0x8
 20183 5c41 70       		.byte	0x70
 20184 5c42 09       		.uleb128 0x9
 20185 5c43 01       		.uleb128 0x1
 20186 5c44 51       		.byte	0x51
 20187 5c45 01       		.uleb128 0x1
 20188 5c46 30       		.byte	0x30
 20189 5c47 00       		.byte	0
 20190 5c48 08       		.uleb128 0x8
 20191 5c49 08140000 		.4byte	.LVL990
 20192 5c4d 8D040000 		.4byte	0x48d
ARM GAS  C:\Users\Revanth\AppData\Local\Temp\ccqs06ys.s 			page 397


 20193 5c51 615C0000 		.4byte	0x5c61
 20194 5c55 09       		.uleb128 0x9
 20195 5c56 01       		.uleb128 0x1
 20196 5c57 50       		.byte	0x50
 20197 5c58 02       		.uleb128 0x2
 20198 5c59 08       		.byte	0x8
 20199 5c5a 74       		.byte	0x74
 20200 5c5b 09       		.uleb128 0x9
 20201 5c5c 01       		.uleb128 0x1
 20202 5c5d 51       		.byte	0x51
 20203 5c5e 01       		.uleb128 0x1
 20204 5c5f 30       		.byte	0x30
 20205 5c60 00       		.byte	0
 20206 5c61 08       		.uleb128 0x8
 20207 5c62 10140000 		.4byte	.LVL991
 20208 5c66 8D040000 		.4byte	0x48d
 20209 5c6a 7A5C0000 		.4byte	0x5c7a
 20210 5c6e 09       		.uleb128 0x9
 20211 5c6f 01       		.uleb128 0x1
 20212 5c70 50       		.byte	0x50
 20213 5c71 02       		.uleb128 0x2
 20214 5c72 08       		.byte	0x8
 20215 5c73 78       		.byte	0x78
 20216 5c74 09       		.uleb128 0x9
 20217 5c75 01       		.uleb128 0x1
 20218 5c76 51       		.byte	0x51
 20219 5c77 01       		.uleb128 0x1
 20220 5c78 30       		.byte	0x30
 20221 5c79 00       		.byte	0
 20222 5c7a 08       		.uleb128 0x8
 20223 5c7b 18140000 		.4byte	.LVL992
 20224 5c7f 8D040000 		.4byte	0x48d
 20225 5c83 935C0000 		.4byte	0x5c93
 20226 5c87 09       		.uleb128 0x9
 20227 5c88 01       		.uleb128 0x1
 20228 5c89 50       		.byte	0x50
 20229 5c8a 02       		.uleb128 0x2
 20230 5c8b 08       		.byte	0x8
 20231 5c8c 7C       		.byte	0x7c
 20232 5c8d 09       		.uleb128 0x9
 20233 5c8e 01       		.uleb128 0x1
 20234 5c8f 51       		.byte	0x51
 20235 5c90 01       		.uleb128 0x1
 20236 5c91 30       		.byte	0x30
 20237 5c92 00       		.byte	0
 20238 5c93 08       		.uleb128 0x8
 20239 5c94 20140000 		.4byte	.LVL993
 20240 5c98 8D040000 		.4byte	0x48d
 20241 5c9c AD5C0000 		.4byte	0x5cad
 20242 5ca0 09       		.uleb128 0x9
 20243 5ca1 01       		.uleb128 0x1
 20244 5ca2 50       		.byte	0x50
 20245 5ca3 02       		.uleb128 0x2
 20246 5ca4 08       		.byte	0x8
 20247 5ca5 21       		.byte	0x21
 20248 5ca6 09       		.uleb128 0x9
 20249 5ca7 01       		.uleb128 0x1
ARM GAS  C:\Users\Revanth\AppData\Local\Temp\ccqs06ys.s 			page 398


 20250 5ca8 51       		.byte	0x51
 20251 5ca9 02       		.uleb128 0x2
 20252 5caa 75       		.byte	0x75
 20253 5cab 00       		.sleb128 0
 20254 5cac 00       		.byte	0
 20255 5cad 08       		.uleb128 0x8
 20256 5cae 28140000 		.4byte	.LVL994
 20257 5cb2 8D040000 		.4byte	0x48d
 20258 5cb6 C75C0000 		.4byte	0x5cc7
 20259 5cba 09       		.uleb128 0x9
 20260 5cbb 01       		.uleb128 0x1
 20261 5cbc 50       		.byte	0x50
 20262 5cbd 02       		.uleb128 0x2
 20263 5cbe 08       		.byte	0x8
 20264 5cbf 25       		.byte	0x25
 20265 5cc0 09       		.uleb128 0x9
 20266 5cc1 01       		.uleb128 0x1
 20267 5cc2 51       		.byte	0x51
 20268 5cc3 02       		.uleb128 0x2
 20269 5cc4 75       		.byte	0x75
 20270 5cc5 00       		.sleb128 0
 20271 5cc6 00       		.byte	0
 20272 5cc7 08       		.uleb128 0x8
 20273 5cc8 30140000 		.4byte	.LVL995
 20274 5ccc 8D040000 		.4byte	0x48d
 20275 5cd0 E15C0000 		.4byte	0x5ce1
 20276 5cd4 09       		.uleb128 0x9
 20277 5cd5 01       		.uleb128 0x1
 20278 5cd6 50       		.byte	0x50
 20279 5cd7 02       		.uleb128 0x2
 20280 5cd8 08       		.byte	0x8
 20281 5cd9 29       		.byte	0x29
 20282 5cda 09       		.uleb128 0x9
 20283 5cdb 01       		.uleb128 0x1
 20284 5cdc 51       		.byte	0x51
 20285 5cdd 02       		.uleb128 0x2
 20286 5cde 75       		.byte	0x75
 20287 5cdf 00       		.sleb128 0
 20288 5ce0 00       		.byte	0
 20289 5ce1 08       		.uleb128 0x8
 20290 5ce2 38140000 		.4byte	.LVL996
 20291 5ce6 8D040000 		.4byte	0x48d
 20292 5cea FB5C0000 		.4byte	0x5cfb
 20293 5cee 09       		.uleb128 0x9
 20294 5cef 01       		.uleb128 0x1
 20295 5cf0 50       		.byte	0x50
 20296 5cf1 02       		.uleb128 0x2
 20297 5cf2 08       		.byte	0x8
 20298 5cf3 2D       		.byte	0x2d
 20299 5cf4 09       		.uleb128 0x9
 20300 5cf5 01       		.uleb128 0x1
 20301 5cf6 51       		.byte	0x51
 20302 5cf7 02       		.uleb128 0x2
 20303 5cf8 75       		.byte	0x75
 20304 5cf9 00       		.sleb128 0
 20305 5cfa 00       		.byte	0
 20306 5cfb 08       		.uleb128 0x8
ARM GAS  C:\Users\Revanth\AppData\Local\Temp\ccqs06ys.s 			page 399


 20307 5cfc 40140000 		.4byte	.LVL997
 20308 5d00 8D040000 		.4byte	0x48d
 20309 5d04 155D0000 		.4byte	0x5d15
 20310 5d08 09       		.uleb128 0x9
 20311 5d09 01       		.uleb128 0x1
 20312 5d0a 50       		.byte	0x50
 20313 5d0b 02       		.uleb128 0x2
 20314 5d0c 08       		.byte	0x8
 20315 5d0d 31       		.byte	0x31
 20316 5d0e 09       		.uleb128 0x9
 20317 5d0f 01       		.uleb128 0x1
 20318 5d10 51       		.byte	0x51
 20319 5d11 02       		.uleb128 0x2
 20320 5d12 75       		.byte	0x75
 20321 5d13 00       		.sleb128 0
 20322 5d14 00       		.byte	0
 20323 5d15 08       		.uleb128 0x8
 20324 5d16 48140000 		.4byte	.LVL998
 20325 5d1a 8D040000 		.4byte	0x48d
 20326 5d1e 2F5D0000 		.4byte	0x5d2f
 20327 5d22 09       		.uleb128 0x9
 20328 5d23 01       		.uleb128 0x1
 20329 5d24 50       		.byte	0x50
 20330 5d25 02       		.uleb128 0x2
 20331 5d26 08       		.byte	0x8
 20332 5d27 35       		.byte	0x35
 20333 5d28 09       		.uleb128 0x9
 20334 5d29 01       		.uleb128 0x1
 20335 5d2a 51       		.byte	0x51
 20336 5d2b 02       		.uleb128 0x2
 20337 5d2c 75       		.byte	0x75
 20338 5d2d 00       		.sleb128 0
 20339 5d2e 00       		.byte	0
 20340 5d2f 08       		.uleb128 0x8
 20341 5d30 50140000 		.4byte	.LVL999
 20342 5d34 8D040000 		.4byte	0x48d
 20343 5d38 495D0000 		.4byte	0x5d49
 20344 5d3c 09       		.uleb128 0x9
 20345 5d3d 01       		.uleb128 0x1
 20346 5d3e 50       		.byte	0x50
 20347 5d3f 02       		.uleb128 0x2
 20348 5d40 08       		.byte	0x8
 20349 5d41 39       		.byte	0x39
 20350 5d42 09       		.uleb128 0x9
 20351 5d43 01       		.uleb128 0x1
 20352 5d44 51       		.byte	0x51
 20353 5d45 02       		.uleb128 0x2
 20354 5d46 75       		.byte	0x75
 20355 5d47 00       		.sleb128 0
 20356 5d48 00       		.byte	0
 20357 5d49 08       		.uleb128 0x8
 20358 5d4a 58140000 		.4byte	.LVL1000
 20359 5d4e 8D040000 		.4byte	0x48d
 20360 5d52 635D0000 		.4byte	0x5d63
 20361 5d56 09       		.uleb128 0x9
 20362 5d57 01       		.uleb128 0x1
 20363 5d58 50       		.byte	0x50
ARM GAS  C:\Users\Revanth\AppData\Local\Temp\ccqs06ys.s 			page 400


 20364 5d59 02       		.uleb128 0x2
 20365 5d5a 08       		.byte	0x8
 20366 5d5b 3D       		.byte	0x3d
 20367 5d5c 09       		.uleb128 0x9
 20368 5d5d 01       		.uleb128 0x1
 20369 5d5e 51       		.byte	0x51
 20370 5d5f 02       		.uleb128 0x2
 20371 5d60 75       		.byte	0x75
 20372 5d61 00       		.sleb128 0
 20373 5d62 00       		.byte	0
 20374 5d63 08       		.uleb128 0x8
 20375 5d64 60140000 		.4byte	.LVL1001
 20376 5d68 8D040000 		.4byte	0x48d
 20377 5d6c 7D5D0000 		.4byte	0x5d7d
 20378 5d70 09       		.uleb128 0x9
 20379 5d71 01       		.uleb128 0x1
 20380 5d72 50       		.byte	0x50
 20381 5d73 02       		.uleb128 0x2
 20382 5d74 08       		.byte	0x8
 20383 5d75 41       		.byte	0x41
 20384 5d76 09       		.uleb128 0x9
 20385 5d77 01       		.uleb128 0x1
 20386 5d78 51       		.byte	0x51
 20387 5d79 02       		.uleb128 0x2
 20388 5d7a 75       		.byte	0x75
 20389 5d7b 00       		.sleb128 0
 20390 5d7c 00       		.byte	0
 20391 5d7d 08       		.uleb128 0x8
 20392 5d7e 68140000 		.4byte	.LVL1002
 20393 5d82 8D040000 		.4byte	0x48d
 20394 5d86 975D0000 		.4byte	0x5d97
 20395 5d8a 09       		.uleb128 0x9
 20396 5d8b 01       		.uleb128 0x1
 20397 5d8c 50       		.byte	0x50
 20398 5d8d 02       		.uleb128 0x2
 20399 5d8e 08       		.byte	0x8
 20400 5d8f 45       		.byte	0x45
 20401 5d90 09       		.uleb128 0x9
 20402 5d91 01       		.uleb128 0x1
 20403 5d92 51       		.byte	0x51
 20404 5d93 02       		.uleb128 0x2
 20405 5d94 75       		.byte	0x75
 20406 5d95 00       		.sleb128 0
 20407 5d96 00       		.byte	0
 20408 5d97 08       		.uleb128 0x8
 20409 5d98 70140000 		.4byte	.LVL1003
 20410 5d9c 8D040000 		.4byte	0x48d
 20411 5da0 B15D0000 		.4byte	0x5db1
 20412 5da4 09       		.uleb128 0x9
 20413 5da5 01       		.uleb128 0x1
 20414 5da6 50       		.byte	0x50
 20415 5da7 02       		.uleb128 0x2
 20416 5da8 08       		.byte	0x8
 20417 5da9 49       		.byte	0x49
 20418 5daa 09       		.uleb128 0x9
 20419 5dab 01       		.uleb128 0x1
 20420 5dac 51       		.byte	0x51
ARM GAS  C:\Users\Revanth\AppData\Local\Temp\ccqs06ys.s 			page 401


 20421 5dad 02       		.uleb128 0x2
 20422 5dae 75       		.byte	0x75
 20423 5daf 00       		.sleb128 0
 20424 5db0 00       		.byte	0
 20425 5db1 08       		.uleb128 0x8
 20426 5db2 78140000 		.4byte	.LVL1004
 20427 5db6 8D040000 		.4byte	0x48d
 20428 5dba CB5D0000 		.4byte	0x5dcb
 20429 5dbe 09       		.uleb128 0x9
 20430 5dbf 01       		.uleb128 0x1
 20431 5dc0 50       		.byte	0x50
 20432 5dc1 02       		.uleb128 0x2
 20433 5dc2 08       		.byte	0x8
 20434 5dc3 4D       		.byte	0x4d
 20435 5dc4 09       		.uleb128 0x9
 20436 5dc5 01       		.uleb128 0x1
 20437 5dc6 51       		.byte	0x51
 20438 5dc7 02       		.uleb128 0x2
 20439 5dc8 75       		.byte	0x75
 20440 5dc9 00       		.sleb128 0
 20441 5dca 00       		.byte	0
 20442 5dcb 08       		.uleb128 0x8
 20443 5dcc 80140000 		.4byte	.LVL1005
 20444 5dd0 8D040000 		.4byte	0x48d
 20445 5dd4 E55D0000 		.4byte	0x5de5
 20446 5dd8 09       		.uleb128 0x9
 20447 5dd9 01       		.uleb128 0x1
 20448 5dda 50       		.byte	0x50
 20449 5ddb 02       		.uleb128 0x2
 20450 5ddc 08       		.byte	0x8
 20451 5ddd 51       		.byte	0x51
 20452 5dde 09       		.uleb128 0x9
 20453 5ddf 01       		.uleb128 0x1
 20454 5de0 51       		.byte	0x51
 20455 5de1 02       		.uleb128 0x2
 20456 5de2 75       		.byte	0x75
 20457 5de3 00       		.sleb128 0
 20458 5de4 00       		.byte	0
 20459 5de5 08       		.uleb128 0x8
 20460 5de6 88140000 		.4byte	.LVL1006
 20461 5dea 8D040000 		.4byte	0x48d
 20462 5dee FF5D0000 		.4byte	0x5dff
 20463 5df2 09       		.uleb128 0x9
 20464 5df3 01       		.uleb128 0x1
 20465 5df4 50       		.byte	0x50
 20466 5df5 02       		.uleb128 0x2
 20467 5df6 08       		.byte	0x8
 20468 5df7 55       		.byte	0x55
 20469 5df8 09       		.uleb128 0x9
 20470 5df9 01       		.uleb128 0x1
 20471 5dfa 51       		.byte	0x51
 20472 5dfb 02       		.uleb128 0x2
 20473 5dfc 75       		.byte	0x75
 20474 5dfd 00       		.sleb128 0
 20475 5dfe 00       		.byte	0
 20476 5dff 08       		.uleb128 0x8
 20477 5e00 90140000 		.4byte	.LVL1007
ARM GAS  C:\Users\Revanth\AppData\Local\Temp\ccqs06ys.s 			page 402


 20478 5e04 8D040000 		.4byte	0x48d
 20479 5e08 195E0000 		.4byte	0x5e19
 20480 5e0c 09       		.uleb128 0x9
 20481 5e0d 01       		.uleb128 0x1
 20482 5e0e 50       		.byte	0x50
 20483 5e0f 02       		.uleb128 0x2
 20484 5e10 08       		.byte	0x8
 20485 5e11 59       		.byte	0x59
 20486 5e12 09       		.uleb128 0x9
 20487 5e13 01       		.uleb128 0x1
 20488 5e14 51       		.byte	0x51
 20489 5e15 02       		.uleb128 0x2
 20490 5e16 75       		.byte	0x75
 20491 5e17 00       		.sleb128 0
 20492 5e18 00       		.byte	0
 20493 5e19 08       		.uleb128 0x8
 20494 5e1a 98140000 		.4byte	.LVL1008
 20495 5e1e 8D040000 		.4byte	0x48d
 20496 5e22 325E0000 		.4byte	0x5e32
 20497 5e26 09       		.uleb128 0x9
 20498 5e27 01       		.uleb128 0x1
 20499 5e28 50       		.byte	0x50
 20500 5e29 02       		.uleb128 0x2
 20501 5e2a 08       		.byte	0x8
 20502 5e2b 5D       		.byte	0x5d
 20503 5e2c 09       		.uleb128 0x9
 20504 5e2d 01       		.uleb128 0x1
 20505 5e2e 51       		.byte	0x51
 20506 5e2f 01       		.uleb128 0x1
 20507 5e30 30       		.byte	0x30
 20508 5e31 00       		.byte	0
 20509 5e32 08       		.uleb128 0x8
 20510 5e33 A0140000 		.4byte	.LVL1009
 20511 5e37 8D040000 		.4byte	0x48d
 20512 5e3b 4B5E0000 		.4byte	0x5e4b
 20513 5e3f 09       		.uleb128 0x9
 20514 5e40 01       		.uleb128 0x1
 20515 5e41 50       		.byte	0x50
 20516 5e42 02       		.uleb128 0x2
 20517 5e43 08       		.byte	0x8
 20518 5e44 61       		.byte	0x61
 20519 5e45 09       		.uleb128 0x9
 20520 5e46 01       		.uleb128 0x1
 20521 5e47 51       		.byte	0x51
 20522 5e48 01       		.uleb128 0x1
 20523 5e49 30       		.byte	0x30
 20524 5e4a 00       		.byte	0
 20525 5e4b 08       		.uleb128 0x8
 20526 5e4c A8140000 		.4byte	.LVL1010
 20527 5e50 8D040000 		.4byte	0x48d
 20528 5e54 645E0000 		.4byte	0x5e64
 20529 5e58 09       		.uleb128 0x9
 20530 5e59 01       		.uleb128 0x1
 20531 5e5a 50       		.byte	0x50
 20532 5e5b 02       		.uleb128 0x2
 20533 5e5c 08       		.byte	0x8
 20534 5e5d 65       		.byte	0x65
ARM GAS  C:\Users\Revanth\AppData\Local\Temp\ccqs06ys.s 			page 403


 20535 5e5e 09       		.uleb128 0x9
 20536 5e5f 01       		.uleb128 0x1
 20537 5e60 51       		.byte	0x51
 20538 5e61 01       		.uleb128 0x1
 20539 5e62 30       		.byte	0x30
 20540 5e63 00       		.byte	0
 20541 5e64 08       		.uleb128 0x8
 20542 5e65 B0140000 		.4byte	.LVL1011
 20543 5e69 8D040000 		.4byte	0x48d
 20544 5e6d 7D5E0000 		.4byte	0x5e7d
 20545 5e71 09       		.uleb128 0x9
 20546 5e72 01       		.uleb128 0x1
 20547 5e73 50       		.byte	0x50
 20548 5e74 02       		.uleb128 0x2
 20549 5e75 08       		.byte	0x8
 20550 5e76 69       		.byte	0x69
 20551 5e77 09       		.uleb128 0x9
 20552 5e78 01       		.uleb128 0x1
 20553 5e79 51       		.byte	0x51
 20554 5e7a 01       		.uleb128 0x1
 20555 5e7b 30       		.byte	0x30
 20556 5e7c 00       		.byte	0
 20557 5e7d 08       		.uleb128 0x8
 20558 5e7e B8140000 		.4byte	.LVL1012
 20559 5e82 8D040000 		.4byte	0x48d
 20560 5e86 965E0000 		.4byte	0x5e96
 20561 5e8a 09       		.uleb128 0x9
 20562 5e8b 01       		.uleb128 0x1
 20563 5e8c 50       		.byte	0x50
 20564 5e8d 02       		.uleb128 0x2
 20565 5e8e 08       		.byte	0x8
 20566 5e8f 6D       		.byte	0x6d
 20567 5e90 09       		.uleb128 0x9
 20568 5e91 01       		.uleb128 0x1
 20569 5e92 51       		.byte	0x51
 20570 5e93 01       		.uleb128 0x1
 20571 5e94 30       		.byte	0x30
 20572 5e95 00       		.byte	0
 20573 5e96 08       		.uleb128 0x8
 20574 5e97 C0140000 		.4byte	.LVL1013
 20575 5e9b 8D040000 		.4byte	0x48d
 20576 5e9f AF5E0000 		.4byte	0x5eaf
 20577 5ea3 09       		.uleb128 0x9
 20578 5ea4 01       		.uleb128 0x1
 20579 5ea5 50       		.byte	0x50
 20580 5ea6 02       		.uleb128 0x2
 20581 5ea7 08       		.byte	0x8
 20582 5ea8 71       		.byte	0x71
 20583 5ea9 09       		.uleb128 0x9
 20584 5eaa 01       		.uleb128 0x1
 20585 5eab 51       		.byte	0x51
 20586 5eac 01       		.uleb128 0x1
 20587 5ead 30       		.byte	0x30
 20588 5eae 00       		.byte	0
 20589 5eaf 08       		.uleb128 0x8
 20590 5eb0 C8140000 		.4byte	.LVL1014
 20591 5eb4 8D040000 		.4byte	0x48d
ARM GAS  C:\Users\Revanth\AppData\Local\Temp\ccqs06ys.s 			page 404


 20592 5eb8 C85E0000 		.4byte	0x5ec8
 20593 5ebc 09       		.uleb128 0x9
 20594 5ebd 01       		.uleb128 0x1
 20595 5ebe 50       		.byte	0x50
 20596 5ebf 02       		.uleb128 0x2
 20597 5ec0 08       		.byte	0x8
 20598 5ec1 75       		.byte	0x75
 20599 5ec2 09       		.uleb128 0x9
 20600 5ec3 01       		.uleb128 0x1
 20601 5ec4 51       		.byte	0x51
 20602 5ec5 01       		.uleb128 0x1
 20603 5ec6 30       		.byte	0x30
 20604 5ec7 00       		.byte	0
 20605 5ec8 08       		.uleb128 0x8
 20606 5ec9 D0140000 		.4byte	.LVL1015
 20607 5ecd 8D040000 		.4byte	0x48d
 20608 5ed1 E15E0000 		.4byte	0x5ee1
 20609 5ed5 09       		.uleb128 0x9
 20610 5ed6 01       		.uleb128 0x1
 20611 5ed7 50       		.byte	0x50
 20612 5ed8 02       		.uleb128 0x2
 20613 5ed9 08       		.byte	0x8
 20614 5eda 79       		.byte	0x79
 20615 5edb 09       		.uleb128 0x9
 20616 5edc 01       		.uleb128 0x1
 20617 5edd 51       		.byte	0x51
 20618 5ede 01       		.uleb128 0x1
 20619 5edf 30       		.byte	0x30
 20620 5ee0 00       		.byte	0
 20621 5ee1 08       		.uleb128 0x8
 20622 5ee2 D8140000 		.4byte	.LVL1016
 20623 5ee6 8D040000 		.4byte	0x48d
 20624 5eea FA5E0000 		.4byte	0x5efa
 20625 5eee 09       		.uleb128 0x9
 20626 5eef 01       		.uleb128 0x1
 20627 5ef0 50       		.byte	0x50
 20628 5ef1 02       		.uleb128 0x2
 20629 5ef2 08       		.byte	0x8
 20630 5ef3 7D       		.byte	0x7d
 20631 5ef4 09       		.uleb128 0x9
 20632 5ef5 01       		.uleb128 0x1
 20633 5ef6 51       		.byte	0x51
 20634 5ef7 01       		.uleb128 0x1
 20635 5ef8 30       		.byte	0x30
 20636 5ef9 00       		.byte	0
 20637 5efa 08       		.uleb128 0x8
 20638 5efb DE140000 		.4byte	.LVL1017
 20639 5eff C25F0000 		.4byte	0x5fc2
 20640 5f03 0D5F0000 		.4byte	0x5f0d
 20641 5f07 09       		.uleb128 0x9
 20642 5f08 01       		.uleb128 0x1
 20643 5f09 50       		.byte	0x50
 20644 5f0a 01       		.uleb128 0x1
 20645 5f0b 30       		.byte	0x30
 20646 5f0c 00       		.byte	0
 20647 5f0d 0E       		.uleb128 0xe
 20648 5f0e E4140000 		.4byte	.LVL1018
ARM GAS  C:\Users\Revanth\AppData\Local\Temp\ccqs06ys.s 			page 405


 20649 5f12 DA090000 		.4byte	0x9da
 20650 5f16 00       		.byte	0
 20651 5f17 12       		.uleb128 0x12
 20652 5f18 55030000 		.4byte	.LASF46
 20653 5f1c 05       		.byte	0x5
 20654 5f1d 1207     		.2byte	0x712
 20655 5f1f 235F0000 		.4byte	0x5f23
 20656 5f23 13       		.uleb128 0x13
 20657 5f24 A2000000 		.4byte	0xa2
 20658 5f28 14       		.uleb128 0x14
 20659 5f29 525800   		.ascii	"RX\000"
 20660 5f2c 01       		.byte	0x1
 20661 5f2d 12       		.byte	0x12
 20662 5f2e 97000000 		.4byte	0x97
 20663 5f32 05       		.uleb128 0x5
 20664 5f33 03       		.byte	0x3
 20665 5f34 00000000 		.4byte	RX
 20666 5f38 14       		.uleb128 0x14
 20667 5f39 545800   		.ascii	"TX\000"
 20668 5f3c 01       		.byte	0x1
 20669 5f3d 13       		.byte	0x13
 20670 5f3e 97000000 		.4byte	0x97
 20671 5f42 05       		.uleb128 0x5
 20672 5f43 03       		.byte	0x3
 20673 5f44 00000000 		.4byte	TX
 20674 5f48 15       		.uleb128 0x15
 20675 5f49 6A010000 		.4byte	.LASF47
 20676 5f4d 01       		.byte	0x1
 20677 5f4e 14       		.byte	0x14
 20678 5f4f 8C000000 		.4byte	0x8c
 20679 5f53 05       		.uleb128 0x5
 20680 5f54 03       		.byte	0x3
 20681 5f55 00000000 		.4byte	RegAddr
 20682 5f59 15       		.uleb128 0x15
 20683 5f5a D0010000 		.4byte	.LASF48
 20684 5f5e 01       		.byte	0x1
 20685 5f5f 15       		.byte	0x15
 20686 5f60 8C000000 		.4byte	0x8c
 20687 5f64 05       		.uleb128 0x5
 20688 5f65 03       		.byte	0x3
 20689 5f66 00000000 		.4byte	Data
 20690 5f6a 14       		.uleb128 0x14
 20691 5f6b 4F7000   		.ascii	"Op\000"
 20692 5f6e 01       		.byte	0x1
 20693 5f6f 16       		.byte	0x16
 20694 5f70 F8020000 		.4byte	0x2f8
 20695 5f74 05       		.uleb128 0x5
 20696 5f75 03       		.byte	0x3
 20697 5f76 00000000 		.4byte	Op
 20698 5f7a 15       		.uleb128 0x15
 20699 5f7b 44000000 		.4byte	.LASF49
 20700 5f7f 01       		.byte	0x1
 20701 5f80 17       		.byte	0x17
 20702 5f81 8C000000 		.4byte	0x8c
 20703 5f85 05       		.uleb128 0x5
 20704 5f86 03       		.byte	0x3
 20705 5f87 00000000 		.4byte	PgSl
ARM GAS  C:\Users\Revanth\AppData\Local\Temp\ccqs06ys.s 			page 406


 20706 5f8b 16       		.uleb128 0x16
 20707 5f8c FB020000 		.4byte	.LASF50
 20708 5f90 FB020000 		.4byte	.LASF50
 20709 5f94 06       		.byte	0x6
 20710 5f95 26       		.byte	0x26
 20711 5f96 16       		.uleb128 0x16
 20712 5f97 13010000 		.4byte	.LASF51
 20713 5f9b 13010000 		.4byte	.LASF51
 20714 5f9f 07       		.byte	0x7
 20715 5fa0 26       		.byte	0x26
 20716 5fa1 16       		.uleb128 0x16
 20717 5fa2 00020000 		.4byte	.LASF52
 20718 5fa6 00020000 		.4byte	.LASF52
 20719 5faa 08       		.byte	0x8
 20720 5fab 77       		.byte	0x77
 20721 5fac 16       		.uleb128 0x16
 20722 5fad D5010000 		.4byte	.LASF53
 20723 5fb1 D5010000 		.4byte	.LASF53
 20724 5fb5 09       		.byte	0x9
 20725 5fb6 26       		.byte	0x26
 20726 5fb7 16       		.uleb128 0x16
 20727 5fb8 5C000000 		.4byte	.LASF54
 20728 5fbc 5C000000 		.4byte	.LASF54
 20729 5fc0 0A       		.byte	0xa
 20730 5fc1 26       		.byte	0x26
 20731 5fc2 16       		.uleb128 0x16
 20732 5fc3 A7020000 		.4byte	.LASF55
 20733 5fc7 A7020000 		.4byte	.LASF55
 20734 5fcb 0B       		.byte	0xb
 20735 5fcc 26       		.byte	0x26
 20736 5fcd 16       		.uleb128 0x16
 20737 5fce F6000000 		.4byte	.LASF56
 20738 5fd2 F6000000 		.4byte	.LASF56
 20739 5fd6 0C       		.byte	0xc
 20740 5fd7 26       		.byte	0x26
 20741 5fd8 16       		.uleb128 0x16
 20742 5fd9 DA020000 		.4byte	.LASF57
 20743 5fdd DA020000 		.4byte	.LASF57
 20744 5fe1 0D       		.byte	0xd
 20745 5fe2 26       		.byte	0x26
 20746 5fe3 16       		.uleb128 0x16
 20747 5fe4 F8030000 		.4byte	.LASF58
 20748 5fe8 F8030000 		.4byte	.LASF58
 20749 5fec 0E       		.byte	0xe
 20750 5fed 26       		.byte	0x26
 20751 5fee 16       		.uleb128 0x16
 20752 5fef F0030000 		.4byte	.LASF59
 20753 5ff3 F0030000 		.4byte	.LASF59
 20754 5ff7 08       		.byte	0x8
 20755 5ff8 76       		.byte	0x76
 20756 5ff9 00       		.byte	0
 20757              		.section	.debug_abbrev,"",%progbits
 20758              	.Ldebug_abbrev0:
 20759 0000 01       		.uleb128 0x1
 20760 0001 11       		.uleb128 0x11
 20761 0002 01       		.byte	0x1
 20762 0003 25       		.uleb128 0x25
ARM GAS  C:\Users\Revanth\AppData\Local\Temp\ccqs06ys.s 			page 407


 20763 0004 0E       		.uleb128 0xe
 20764 0005 13       		.uleb128 0x13
 20765 0006 0B       		.uleb128 0xb
 20766 0007 03       		.uleb128 0x3
 20767 0008 0E       		.uleb128 0xe
 20768 0009 1B       		.uleb128 0x1b
 20769 000a 0E       		.uleb128 0xe
 20770 000b 55       		.uleb128 0x55
 20771 000c 17       		.uleb128 0x17
 20772 000d 11       		.uleb128 0x11
 20773 000e 01       		.uleb128 0x1
 20774 000f 10       		.uleb128 0x10
 20775 0010 17       		.uleb128 0x17
 20776 0011 00       		.byte	0
 20777 0012 00       		.byte	0
 20778 0013 02       		.uleb128 0x2
 20779 0014 24       		.uleb128 0x24
 20780 0015 00       		.byte	0
 20781 0016 0B       		.uleb128 0xb
 20782 0017 0B       		.uleb128 0xb
 20783 0018 3E       		.uleb128 0x3e
 20784 0019 0B       		.uleb128 0xb
 20785 001a 03       		.uleb128 0x3
 20786 001b 0E       		.uleb128 0xe
 20787 001c 00       		.byte	0
 20788 001d 00       		.byte	0
 20789 001e 03       		.uleb128 0x3
 20790 001f 16       		.uleb128 0x16
 20791 0020 00       		.byte	0
 20792 0021 03       		.uleb128 0x3
 20793 0022 0E       		.uleb128 0xe
 20794 0023 3A       		.uleb128 0x3a
 20795 0024 0B       		.uleb128 0xb
 20796 0025 3B       		.uleb128 0x3b
 20797 0026 0B       		.uleb128 0xb
 20798 0027 49       		.uleb128 0x49
 20799 0028 13       		.uleb128 0x13
 20800 0029 00       		.byte	0
 20801 002a 00       		.byte	0
 20802 002b 04       		.uleb128 0x4
 20803 002c 24       		.uleb128 0x24
 20804 002d 00       		.byte	0
 20805 002e 0B       		.uleb128 0xb
 20806 002f 0B       		.uleb128 0xb
 20807 0030 3E       		.uleb128 0x3e
 20808 0031 0B       		.uleb128 0xb
 20809 0032 03       		.uleb128 0x3
 20810 0033 08       		.uleb128 0x8
 20811 0034 00       		.byte	0
 20812 0035 00       		.byte	0
 20813 0036 05       		.uleb128 0x5
 20814 0037 16       		.uleb128 0x16
 20815 0038 00       		.byte	0
 20816 0039 03       		.uleb128 0x3
 20817 003a 0E       		.uleb128 0xe
 20818 003b 3A       		.uleb128 0x3a
 20819 003c 0B       		.uleb128 0xb
ARM GAS  C:\Users\Revanth\AppData\Local\Temp\ccqs06ys.s 			page 408


 20820 003d 3B       		.uleb128 0x3b
 20821 003e 05       		.uleb128 0x5
 20822 003f 49       		.uleb128 0x49
 20823 0040 13       		.uleb128 0x13
 20824 0041 00       		.byte	0
 20825 0042 00       		.byte	0
 20826 0043 06       		.uleb128 0x6
 20827 0044 2E       		.uleb128 0x2e
 20828 0045 01       		.byte	0x1
 20829 0046 3F       		.uleb128 0x3f
 20830 0047 19       		.uleb128 0x19
 20831 0048 03       		.uleb128 0x3
 20832 0049 0E       		.uleb128 0xe
 20833 004a 3A       		.uleb128 0x3a
 20834 004b 0B       		.uleb128 0xb
 20835 004c 3B       		.uleb128 0x3b
 20836 004d 05       		.uleb128 0x5
 20837 004e 27       		.uleb128 0x27
 20838 004f 19       		.uleb128 0x19
 20839 0050 11       		.uleb128 0x11
 20840 0051 01       		.uleb128 0x1
 20841 0052 12       		.uleb128 0x12
 20842 0053 06       		.uleb128 0x6
 20843 0054 40       		.uleb128 0x40
 20844 0055 18       		.uleb128 0x18
 20845 0056 9742     		.uleb128 0x2117
 20846 0058 19       		.uleb128 0x19
 20847 0059 01       		.uleb128 0x1
 20848 005a 13       		.uleb128 0x13
 20849 005b 00       		.byte	0
 20850 005c 00       		.byte	0
 20851 005d 07       		.uleb128 0x7
 20852 005e 34       		.uleb128 0x34
 20853 005f 00       		.byte	0
 20854 0060 03       		.uleb128 0x3
 20855 0061 08       		.uleb128 0x8
 20856 0062 3A       		.uleb128 0x3a
 20857 0063 0B       		.uleb128 0xb
 20858 0064 3B       		.uleb128 0x3b
 20859 0065 05       		.uleb128 0x5
 20860 0066 49       		.uleb128 0x49
 20861 0067 13       		.uleb128 0x13
 20862 0068 02       		.uleb128 0x2
 20863 0069 17       		.uleb128 0x17
 20864 006a 00       		.byte	0
 20865 006b 00       		.byte	0
 20866 006c 08       		.uleb128 0x8
 20867 006d 898201   		.uleb128 0x4109
 20868 0070 01       		.byte	0x1
 20869 0071 11       		.uleb128 0x11
 20870 0072 01       		.uleb128 0x1
 20871 0073 31       		.uleb128 0x31
 20872 0074 13       		.uleb128 0x13
 20873 0075 01       		.uleb128 0x1
 20874 0076 13       		.uleb128 0x13
 20875 0077 00       		.byte	0
 20876 0078 00       		.byte	0
ARM GAS  C:\Users\Revanth\AppData\Local\Temp\ccqs06ys.s 			page 409


 20877 0079 09       		.uleb128 0x9
 20878 007a 8A8201   		.uleb128 0x410a
 20879 007d 00       		.byte	0
 20880 007e 02       		.uleb128 0x2
 20881 007f 18       		.uleb128 0x18
 20882 0080 9142     		.uleb128 0x2111
 20883 0082 18       		.uleb128 0x18
 20884 0083 00       		.byte	0
 20885 0084 00       		.byte	0
 20886 0085 0A       		.uleb128 0xa
 20887 0086 898201   		.uleb128 0x4109
 20888 0089 01       		.byte	0x1
 20889 008a 11       		.uleb128 0x11
 20890 008b 01       		.uleb128 0x1
 20891 008c 31       		.uleb128 0x31
 20892 008d 13       		.uleb128 0x13
 20893 008e 00       		.byte	0
 20894 008f 00       		.byte	0
 20895 0090 0B       		.uleb128 0xb
 20896 0091 2E       		.uleb128 0x2e
 20897 0092 01       		.byte	0x1
 20898 0093 3F       		.uleb128 0x3f
 20899 0094 19       		.uleb128 0x19
 20900 0095 03       		.uleb128 0x3
 20901 0096 0E       		.uleb128 0xe
 20902 0097 3A       		.uleb128 0x3a
 20903 0098 0B       		.uleb128 0xb
 20904 0099 3B       		.uleb128 0x3b
 20905 009a 0B       		.uleb128 0xb
 20906 009b 27       		.uleb128 0x27
 20907 009c 19       		.uleb128 0x19
 20908 009d 11       		.uleb128 0x11
 20909 009e 01       		.uleb128 0x1
 20910 009f 12       		.uleb128 0x12
 20911 00a0 06       		.uleb128 0x6
 20912 00a1 40       		.uleb128 0x40
 20913 00a2 18       		.uleb128 0x18
 20914 00a3 9742     		.uleb128 0x2117
 20915 00a5 19       		.uleb128 0x19
 20916 00a6 01       		.uleb128 0x1
 20917 00a7 13       		.uleb128 0x13
 20918 00a8 00       		.byte	0
 20919 00a9 00       		.byte	0
 20920 00aa 0C       		.uleb128 0xc
 20921 00ab 05       		.uleb128 0x5
 20922 00ac 00       		.byte	0
 20923 00ad 03       		.uleb128 0x3
 20924 00ae 0E       		.uleb128 0xe
 20925 00af 3A       		.uleb128 0x3a
 20926 00b0 0B       		.uleb128 0xb
 20927 00b1 3B       		.uleb128 0x3b
 20928 00b2 0B       		.uleb128 0xb
 20929 00b3 49       		.uleb128 0x49
 20930 00b4 13       		.uleb128 0x13
 20931 00b5 02       		.uleb128 0x2
 20932 00b6 17       		.uleb128 0x17
 20933 00b7 00       		.byte	0
ARM GAS  C:\Users\Revanth\AppData\Local\Temp\ccqs06ys.s 			page 410


 20934 00b8 00       		.byte	0
 20935 00b9 0D       		.uleb128 0xd
 20936 00ba 34       		.uleb128 0x34
 20937 00bb 00       		.byte	0
 20938 00bc 03       		.uleb128 0x3
 20939 00bd 08       		.uleb128 0x8
 20940 00be 3A       		.uleb128 0x3a
 20941 00bf 0B       		.uleb128 0xb
 20942 00c0 3B       		.uleb128 0x3b
 20943 00c1 0B       		.uleb128 0xb
 20944 00c2 49       		.uleb128 0x49
 20945 00c3 13       		.uleb128 0x13
 20946 00c4 02       		.uleb128 0x2
 20947 00c5 17       		.uleb128 0x17
 20948 00c6 00       		.byte	0
 20949 00c7 00       		.byte	0
 20950 00c8 0E       		.uleb128 0xe
 20951 00c9 898201   		.uleb128 0x4109
 20952 00cc 00       		.byte	0
 20953 00cd 11       		.uleb128 0x11
 20954 00ce 01       		.uleb128 0x1
 20955 00cf 31       		.uleb128 0x31
 20956 00d0 13       		.uleb128 0x13
 20957 00d1 00       		.byte	0
 20958 00d2 00       		.byte	0
 20959 00d3 0F       		.uleb128 0xf
 20960 00d4 05       		.uleb128 0x5
 20961 00d5 00       		.byte	0
 20962 00d6 03       		.uleb128 0x3
 20963 00d7 08       		.uleb128 0x8
 20964 00d8 3A       		.uleb128 0x3a
 20965 00d9 0B       		.uleb128 0xb
 20966 00da 3B       		.uleb128 0x3b
 20967 00db 0B       		.uleb128 0xb
 20968 00dc 49       		.uleb128 0x49
 20969 00dd 13       		.uleb128 0x13
 20970 00de 02       		.uleb128 0x2
 20971 00df 17       		.uleb128 0x17
 20972 00e0 00       		.byte	0
 20973 00e1 00       		.byte	0
 20974 00e2 10       		.uleb128 0x10
 20975 00e3 05       		.uleb128 0x5
 20976 00e4 00       		.byte	0
 20977 00e5 03       		.uleb128 0x3
 20978 00e6 0E       		.uleb128 0xe
 20979 00e7 3A       		.uleb128 0x3a
 20980 00e8 0B       		.uleb128 0xb
 20981 00e9 3B       		.uleb128 0x3b
 20982 00ea 05       		.uleb128 0x5
 20983 00eb 49       		.uleb128 0x49
 20984 00ec 13       		.uleb128 0x13
 20985 00ed 02       		.uleb128 0x2
 20986 00ee 17       		.uleb128 0x17
 20987 00ef 00       		.byte	0
 20988 00f0 00       		.byte	0
 20989 00f1 11       		.uleb128 0x11
 20990 00f2 05       		.uleb128 0x5
ARM GAS  C:\Users\Revanth\AppData\Local\Temp\ccqs06ys.s 			page 411


 20991 00f3 00       		.byte	0
 20992 00f4 03       		.uleb128 0x3
 20993 00f5 08       		.uleb128 0x8
 20994 00f6 3A       		.uleb128 0x3a
 20995 00f7 0B       		.uleb128 0xb
 20996 00f8 3B       		.uleb128 0x3b
 20997 00f9 05       		.uleb128 0x5
 20998 00fa 49       		.uleb128 0x49
 20999 00fb 13       		.uleb128 0x13
 21000 00fc 02       		.uleb128 0x2
 21001 00fd 17       		.uleb128 0x17
 21002 00fe 00       		.byte	0
 21003 00ff 00       		.byte	0
 21004 0100 12       		.uleb128 0x12
 21005 0101 34       		.uleb128 0x34
 21006 0102 00       		.byte	0
 21007 0103 03       		.uleb128 0x3
 21008 0104 0E       		.uleb128 0xe
 21009 0105 3A       		.uleb128 0x3a
 21010 0106 0B       		.uleb128 0xb
 21011 0107 3B       		.uleb128 0x3b
 21012 0108 05       		.uleb128 0x5
 21013 0109 49       		.uleb128 0x49
 21014 010a 13       		.uleb128 0x13
 21015 010b 3F       		.uleb128 0x3f
 21016 010c 19       		.uleb128 0x19
 21017 010d 3C       		.uleb128 0x3c
 21018 010e 19       		.uleb128 0x19
 21019 010f 00       		.byte	0
 21020 0110 00       		.byte	0
 21021 0111 13       		.uleb128 0x13
 21022 0112 35       		.uleb128 0x35
 21023 0113 00       		.byte	0
 21024 0114 49       		.uleb128 0x49
 21025 0115 13       		.uleb128 0x13
 21026 0116 00       		.byte	0
 21027 0117 00       		.byte	0
 21028 0118 14       		.uleb128 0x14
 21029 0119 34       		.uleb128 0x34
 21030 011a 00       		.byte	0
 21031 011b 03       		.uleb128 0x3
 21032 011c 08       		.uleb128 0x8
 21033 011d 3A       		.uleb128 0x3a
 21034 011e 0B       		.uleb128 0xb
 21035 011f 3B       		.uleb128 0x3b
 21036 0120 0B       		.uleb128 0xb
 21037 0121 49       		.uleb128 0x49
 21038 0122 13       		.uleb128 0x13
 21039 0123 3F       		.uleb128 0x3f
 21040 0124 19       		.uleb128 0x19
 21041 0125 02       		.uleb128 0x2
 21042 0126 18       		.uleb128 0x18
 21043 0127 00       		.byte	0
 21044 0128 00       		.byte	0
 21045 0129 15       		.uleb128 0x15
 21046 012a 34       		.uleb128 0x34
 21047 012b 00       		.byte	0
ARM GAS  C:\Users\Revanth\AppData\Local\Temp\ccqs06ys.s 			page 412


 21048 012c 03       		.uleb128 0x3
 21049 012d 0E       		.uleb128 0xe
 21050 012e 3A       		.uleb128 0x3a
 21051 012f 0B       		.uleb128 0xb
 21052 0130 3B       		.uleb128 0x3b
 21053 0131 0B       		.uleb128 0xb
 21054 0132 49       		.uleb128 0x49
 21055 0133 13       		.uleb128 0x13
 21056 0134 3F       		.uleb128 0x3f
 21057 0135 19       		.uleb128 0x19
 21058 0136 02       		.uleb128 0x2
 21059 0137 18       		.uleb128 0x18
 21060 0138 00       		.byte	0
 21061 0139 00       		.byte	0
 21062 013a 16       		.uleb128 0x16
 21063 013b 2E       		.uleb128 0x2e
 21064 013c 00       		.byte	0
 21065 013d 3F       		.uleb128 0x3f
 21066 013e 19       		.uleb128 0x19
 21067 013f 3C       		.uleb128 0x3c
 21068 0140 19       		.uleb128 0x19
 21069 0141 6E       		.uleb128 0x6e
 21070 0142 0E       		.uleb128 0xe
 21071 0143 03       		.uleb128 0x3
 21072 0144 0E       		.uleb128 0xe
 21073 0145 3A       		.uleb128 0x3a
 21074 0146 0B       		.uleb128 0xb
 21075 0147 3B       		.uleb128 0x3b
 21076 0148 0B       		.uleb128 0xb
 21077 0149 00       		.byte	0
 21078 014a 00       		.byte	0
 21079 014b 00       		.byte	0
 21080              		.section	.debug_loc,"",%progbits
 21081              	.Ldebug_loc0:
 21082              	.LLST0:
 21083 0000 02000000 		.4byte	.LVL0
 21084 0004 06000000 		.4byte	.LVL1
 21085 0008 0200     		.2byte	0x2
 21086 000a 40       		.byte	0x40
 21087 000b 9F       		.byte	0x9f
 21088 000c 06000000 		.4byte	.LVL1
 21089 0010 26000000 		.4byte	.LVL7
 21090 0014 0100     		.2byte	0x1
 21091 0016 54       		.byte	0x54
 21092 0017 28000000 		.4byte	.LVL8
 21093 001b 2E000000 		.4byte	.LFE82
 21094 001f 0100     		.2byte	0x1
 21095 0021 54       		.byte	0x54
 21096 0022 00000000 		.4byte	0
 21097 0026 00000000 		.4byte	0
 21098              	.LLST1:
 21099 002a 00000000 		.4byte	.LVL9
 21100 002e 06000000 		.4byte	.LVL11
 21101 0032 0100     		.2byte	0x1
 21102 0034 50       		.byte	0x50
 21103 0035 06000000 		.4byte	.LVL11
 21104 0039 60000000 		.4byte	.LFE76
ARM GAS  C:\Users\Revanth\AppData\Local\Temp\ccqs06ys.s 			page 413


 21105 003d 0400     		.2byte	0x4
 21106 003f F3       		.byte	0xf3
 21107 0040 01       		.uleb128 0x1
 21108 0041 50       		.byte	0x50
 21109 0042 9F       		.byte	0x9f
 21110 0043 00000000 		.4byte	0
 21111 0047 00000000 		.4byte	0
 21112              	.LLST2:
 21113 004b 04000000 		.4byte	.LVL10
 21114 004f 1A000000 		.4byte	.LVL15
 21115 0053 0200     		.2byte	0x2
 21116 0055 30       		.byte	0x30
 21117 0056 9F       		.byte	0x9f
 21118 0057 1A000000 		.4byte	.LVL15
 21119 005b 1E000000 		.4byte	.LVL16
 21120 005f 0200     		.2byte	0x2
 21121 0061 40       		.byte	0x40
 21122 0062 9F       		.byte	0x9f
 21123 0063 1E000000 		.4byte	.LVL16
 21124 0067 2B000000 		.4byte	.LVL17-1
 21125 006b 0100     		.2byte	0x1
 21126 006d 53       		.byte	0x53
 21127 006e 46000000 		.4byte	.LVL22
 21128 0072 4D000000 		.4byte	.LVL23-1
 21129 0076 0100     		.2byte	0x1
 21130 0078 53       		.byte	0x53
 21131 0079 00000000 		.4byte	0
 21132 007d 00000000 		.4byte	0
 21133              	.LLST3:
 21134 0081 00000000 		.4byte	.LVL27
 21135 0085 0C000000 		.4byte	.LVL28
 21136 0089 0100     		.2byte	0x1
 21137 008b 50       		.byte	0x50
 21138 008c 0C000000 		.4byte	.LVL28
 21139 0090 20000000 		.4byte	.LFE72
 21140 0094 0400     		.2byte	0x4
 21141 0096 F3       		.byte	0xf3
 21142 0097 01       		.uleb128 0x1
 21143 0098 50       		.byte	0x50
 21144 0099 9F       		.byte	0x9f
 21145 009a 00000000 		.4byte	0
 21146 009e 00000000 		.4byte	0
 21147              	.LLST4:
 21148 00a2 00000000 		.4byte	.LVL27
 21149 00a6 15000000 		.4byte	.LVL29-1
 21150 00aa 0100     		.2byte	0x1
 21151 00ac 51       		.byte	0x51
 21152 00ad 15000000 		.4byte	.LVL29-1
 21153 00b1 20000000 		.4byte	.LFE72
 21154 00b5 0400     		.2byte	0x4
 21155 00b7 F3       		.byte	0xf3
 21156 00b8 01       		.uleb128 0x1
 21157 00b9 51       		.byte	0x51
 21158 00ba 9F       		.byte	0x9f
 21159 00bb 00000000 		.4byte	0
 21160 00bf 00000000 		.4byte	0
 21161              	.LLST5:
ARM GAS  C:\Users\Revanth\AppData\Local\Temp\ccqs06ys.s 			page 414


 21162 00c3 00000000 		.4byte	.LVL30
 21163 00c7 08000000 		.4byte	.LVL31
 21164 00cb 0100     		.2byte	0x1
 21165 00cd 50       		.byte	0x50
 21166 00ce 08000000 		.4byte	.LVL31
 21167 00d2 14000000 		.4byte	.LVL33
 21168 00d6 0400     		.2byte	0x4
 21169 00d8 F3       		.byte	0xf3
 21170 00d9 01       		.uleb128 0x1
 21171 00da 50       		.byte	0x50
 21172 00db 9F       		.byte	0x9f
 21173 00dc 14000000 		.4byte	.LVL33
 21174 00e0 18000000 		.4byte	.LVL34
 21175 00e4 0100     		.2byte	0x1
 21176 00e6 50       		.byte	0x50
 21177 00e7 18000000 		.4byte	.LVL34
 21178 00eb 28000000 		.4byte	.LFE63
 21179 00ef 0400     		.2byte	0x4
 21180 00f1 F3       		.byte	0xf3
 21181 00f2 01       		.uleb128 0x1
 21182 00f3 50       		.byte	0x50
 21183 00f4 9F       		.byte	0x9f
 21184 00f5 00000000 		.4byte	0
 21185 00f9 00000000 		.4byte	0
 21186              	.LLST6:
 21187 00fd 00000000 		.4byte	.LVL41
 21188 0101 06000000 		.4byte	.LVL43
 21189 0105 0100     		.2byte	0x1
 21190 0107 50       		.byte	0x50
 21191 0108 06000000 		.4byte	.LVL43
 21192 010c 60000000 		.4byte	.LFE77
 21193 0110 0400     		.2byte	0x4
 21194 0112 F3       		.byte	0xf3
 21195 0113 01       		.uleb128 0x1
 21196 0114 50       		.byte	0x50
 21197 0115 9F       		.byte	0x9f
 21198 0116 00000000 		.4byte	0
 21199 011a 00000000 		.4byte	0
 21200              	.LLST7:
 21201 011e 04000000 		.4byte	.LVL42
 21202 0122 22000000 		.4byte	.LVL49
 21203 0126 0200     		.2byte	0x2
 21204 0128 30       		.byte	0x30
 21205 0129 9F       		.byte	0x9f
 21206 012a 22000000 		.4byte	.LVL49
 21207 012e 26000000 		.4byte	.LVL50
 21208 0132 0200     		.2byte	0x2
 21209 0134 40       		.byte	0x40
 21210 0135 9F       		.byte	0x9f
 21211 0136 26000000 		.4byte	.LVL50
 21212 013a 33000000 		.4byte	.LVL51-1
 21213 013e 0100     		.2byte	0x1
 21214 0140 53       		.byte	0x53
 21215 0141 4E000000 		.4byte	.LVL56
 21216 0145 57000000 		.4byte	.LVL57-1
 21217 0149 0100     		.2byte	0x1
 21218 014b 53       		.byte	0x53
ARM GAS  C:\Users\Revanth\AppData\Local\Temp\ccqs06ys.s 			page 415


 21219 014c 00000000 		.4byte	0
 21220 0150 00000000 		.4byte	0
 21221              	.LLST8:
 21222 0154 00000000 		.4byte	.LVL59
 21223 0158 0C000000 		.4byte	.LVL60
 21224 015c 0100     		.2byte	0x1
 21225 015e 50       		.byte	0x50
 21226 015f 0C000000 		.4byte	.LVL60
 21227 0163 20000000 		.4byte	.LFE73
 21228 0167 0400     		.2byte	0x4
 21229 0169 F3       		.byte	0xf3
 21230 016a 01       		.uleb128 0x1
 21231 016b 50       		.byte	0x50
 21232 016c 9F       		.byte	0x9f
 21233 016d 00000000 		.4byte	0
 21234 0171 00000000 		.4byte	0
 21235              	.LLST9:
 21236 0175 00000000 		.4byte	.LVL59
 21237 0179 15000000 		.4byte	.LVL61-1
 21238 017d 0100     		.2byte	0x1
 21239 017f 51       		.byte	0x51
 21240 0180 15000000 		.4byte	.LVL61-1
 21241 0184 20000000 		.4byte	.LFE73
 21242 0188 0400     		.2byte	0x4
 21243 018a F3       		.byte	0xf3
 21244 018b 01       		.uleb128 0x1
 21245 018c 51       		.byte	0x51
 21246 018d 9F       		.byte	0x9f
 21247 018e 00000000 		.4byte	0
 21248 0192 00000000 		.4byte	0
 21249              	.LLST10:
 21250 0196 00000000 		.4byte	.LVL62
 21251 019a 08000000 		.4byte	.LVL63
 21252 019e 0100     		.2byte	0x1
 21253 01a0 50       		.byte	0x50
 21254 01a1 08000000 		.4byte	.LVL63
 21255 01a5 14000000 		.4byte	.LVL65
 21256 01a9 0400     		.2byte	0x4
 21257 01ab F3       		.byte	0xf3
 21258 01ac 01       		.uleb128 0x1
 21259 01ad 50       		.byte	0x50
 21260 01ae 9F       		.byte	0x9f
 21261 01af 14000000 		.4byte	.LVL65
 21262 01b3 18000000 		.4byte	.LVL66
 21263 01b7 0100     		.2byte	0x1
 21264 01b9 50       		.byte	0x50
 21265 01ba 18000000 		.4byte	.LVL66
 21266 01be 28000000 		.4byte	.LFE64
 21267 01c2 0400     		.2byte	0x4
 21268 01c4 F3       		.byte	0xf3
 21269 01c5 01       		.uleb128 0x1
 21270 01c6 50       		.byte	0x50
 21271 01c7 9F       		.byte	0x9f
 21272 01c8 00000000 		.4byte	0
 21273 01cc 00000000 		.4byte	0
 21274              	.LLST11:
 21275 01d0 00000000 		.4byte	.LVL73
ARM GAS  C:\Users\Revanth\AppData\Local\Temp\ccqs06ys.s 			page 416


 21276 01d4 06000000 		.4byte	.LVL75
 21277 01d8 0100     		.2byte	0x1
 21278 01da 50       		.byte	0x50
 21279 01db 06000000 		.4byte	.LVL75
 21280 01df 60000000 		.4byte	.LFE78
 21281 01e3 0400     		.2byte	0x4
 21282 01e5 F3       		.byte	0xf3
 21283 01e6 01       		.uleb128 0x1
 21284 01e7 50       		.byte	0x50
 21285 01e8 9F       		.byte	0x9f
 21286 01e9 00000000 		.4byte	0
 21287 01ed 00000000 		.4byte	0
 21288              	.LLST12:
 21289 01f1 04000000 		.4byte	.LVL74
 21290 01f5 16000000 		.4byte	.LVL78
 21291 01f9 0200     		.2byte	0x2
 21292 01fb 30       		.byte	0x30
 21293 01fc 9F       		.byte	0x9f
 21294 01fd 16000000 		.4byte	.LVL78
 21295 0201 1A000000 		.4byte	.LVL79
 21296 0205 0200     		.2byte	0x2
 21297 0207 40       		.byte	0x40
 21298 0208 9F       		.byte	0x9f
 21299 0209 1A000000 		.4byte	.LVL79
 21300 020d 27000000 		.4byte	.LVL80-1
 21301 0211 0100     		.2byte	0x1
 21302 0213 53       		.byte	0x53
 21303 0214 42000000 		.4byte	.LVL85
 21304 0218 49000000 		.4byte	.LVL86-1
 21305 021c 0100     		.2byte	0x1
 21306 021e 53       		.byte	0x53
 21307 021f 00000000 		.4byte	0
 21308 0223 00000000 		.4byte	0
 21309              	.LLST13:
 21310 0227 00000000 		.4byte	.LVL91
 21311 022b 0C000000 		.4byte	.LVL92
 21312 022f 0100     		.2byte	0x1
 21313 0231 50       		.byte	0x50
 21314 0232 0C000000 		.4byte	.LVL92
 21315 0236 20000000 		.4byte	.LFE74
 21316 023a 0400     		.2byte	0x4
 21317 023c F3       		.byte	0xf3
 21318 023d 01       		.uleb128 0x1
 21319 023e 50       		.byte	0x50
 21320 023f 9F       		.byte	0x9f
 21321 0240 00000000 		.4byte	0
 21322 0244 00000000 		.4byte	0
 21323              	.LLST14:
 21324 0248 00000000 		.4byte	.LVL91
 21325 024c 15000000 		.4byte	.LVL93-1
 21326 0250 0100     		.2byte	0x1
 21327 0252 51       		.byte	0x51
 21328 0253 15000000 		.4byte	.LVL93-1
 21329 0257 20000000 		.4byte	.LFE74
 21330 025b 0400     		.2byte	0x4
 21331 025d F3       		.byte	0xf3
 21332 025e 01       		.uleb128 0x1
ARM GAS  C:\Users\Revanth\AppData\Local\Temp\ccqs06ys.s 			page 417


 21333 025f 51       		.byte	0x51
 21334 0260 9F       		.byte	0x9f
 21335 0261 00000000 		.4byte	0
 21336 0265 00000000 		.4byte	0
 21337              	.LLST15:
 21338 0269 00000000 		.4byte	.LVL94
 21339 026d 08000000 		.4byte	.LVL95
 21340 0271 0100     		.2byte	0x1
 21341 0273 50       		.byte	0x50
 21342 0274 08000000 		.4byte	.LVL95
 21343 0278 14000000 		.4byte	.LVL97
 21344 027c 0400     		.2byte	0x4
 21345 027e F3       		.byte	0xf3
 21346 027f 01       		.uleb128 0x1
 21347 0280 50       		.byte	0x50
 21348 0281 9F       		.byte	0x9f
 21349 0282 14000000 		.4byte	.LVL97
 21350 0286 18000000 		.4byte	.LVL98
 21351 028a 0100     		.2byte	0x1
 21352 028c 50       		.byte	0x50
 21353 028d 18000000 		.4byte	.LVL98
 21354 0291 28000000 		.4byte	.LFE65
 21355 0295 0400     		.2byte	0x4
 21356 0297 F3       		.byte	0xf3
 21357 0298 01       		.uleb128 0x1
 21358 0299 50       		.byte	0x50
 21359 029a 9F       		.byte	0x9f
 21360 029b 00000000 		.4byte	0
 21361 029f 00000000 		.4byte	0
 21362              	.LLST16:
 21363 02a3 00000000 		.4byte	.LVL105
 21364 02a7 06000000 		.4byte	.LVL107
 21365 02ab 0100     		.2byte	0x1
 21366 02ad 50       		.byte	0x50
 21367 02ae 06000000 		.4byte	.LVL107
 21368 02b2 60000000 		.4byte	.LFE79
 21369 02b6 0400     		.2byte	0x4
 21370 02b8 F3       		.byte	0xf3
 21371 02b9 01       		.uleb128 0x1
 21372 02ba 50       		.byte	0x50
 21373 02bb 9F       		.byte	0x9f
 21374 02bc 00000000 		.4byte	0
 21375 02c0 00000000 		.4byte	0
 21376              	.LLST17:
 21377 02c4 04000000 		.4byte	.LVL106
 21378 02c8 1E000000 		.4byte	.LVL112
 21379 02cc 0200     		.2byte	0x2
 21380 02ce 30       		.byte	0x30
 21381 02cf 9F       		.byte	0x9f
 21382 02d0 1E000000 		.4byte	.LVL112
 21383 02d4 22000000 		.4byte	.LVL113
 21384 02d8 0200     		.2byte	0x2
 21385 02da 40       		.byte	0x40
 21386 02db 9F       		.byte	0x9f
 21387 02dc 22000000 		.4byte	.LVL113
 21388 02e0 2F000000 		.4byte	.LVL114-1
 21389 02e4 0100     		.2byte	0x1
ARM GAS  C:\Users\Revanth\AppData\Local\Temp\ccqs06ys.s 			page 418


 21390 02e6 53       		.byte	0x53
 21391 02e7 4A000000 		.4byte	.LVL119
 21392 02eb 51000000 		.4byte	.LVL120-1
 21393 02ef 0100     		.2byte	0x1
 21394 02f1 53       		.byte	0x53
 21395 02f2 00000000 		.4byte	0
 21396 02f6 00000000 		.4byte	0
 21397              	.LLST18:
 21398 02fa 00000000 		.4byte	.LVL123
 21399 02fe 0C000000 		.4byte	.LVL124
 21400 0302 0100     		.2byte	0x1
 21401 0304 50       		.byte	0x50
 21402 0305 0C000000 		.4byte	.LVL124
 21403 0309 20000000 		.4byte	.LFE75
 21404 030d 0400     		.2byte	0x4
 21405 030f F3       		.byte	0xf3
 21406 0310 01       		.uleb128 0x1
 21407 0311 50       		.byte	0x50
 21408 0312 9F       		.byte	0x9f
 21409 0313 00000000 		.4byte	0
 21410 0317 00000000 		.4byte	0
 21411              	.LLST19:
 21412 031b 00000000 		.4byte	.LVL123
 21413 031f 15000000 		.4byte	.LVL125-1
 21414 0323 0100     		.2byte	0x1
 21415 0325 51       		.byte	0x51
 21416 0326 15000000 		.4byte	.LVL125-1
 21417 032a 20000000 		.4byte	.LFE75
 21418 032e 0400     		.2byte	0x4
 21419 0330 F3       		.byte	0xf3
 21420 0331 01       		.uleb128 0x1
 21421 0332 51       		.byte	0x51
 21422 0333 9F       		.byte	0x9f
 21423 0334 00000000 		.4byte	0
 21424 0338 00000000 		.4byte	0
 21425              	.LLST20:
 21426 033c 00000000 		.4byte	.LVL126
 21427 0340 08000000 		.4byte	.LVL127
 21428 0344 0100     		.2byte	0x1
 21429 0346 50       		.byte	0x50
 21430 0347 08000000 		.4byte	.LVL127
 21431 034b 14000000 		.4byte	.LVL129
 21432 034f 0400     		.2byte	0x4
 21433 0351 F3       		.byte	0xf3
 21434 0352 01       		.uleb128 0x1
 21435 0353 50       		.byte	0x50
 21436 0354 9F       		.byte	0x9f
 21437 0355 14000000 		.4byte	.LVL129
 21438 0359 18000000 		.4byte	.LVL130
 21439 035d 0100     		.2byte	0x1
 21440 035f 50       		.byte	0x50
 21441 0360 18000000 		.4byte	.LVL130
 21442 0364 28000000 		.4byte	.LFE66
 21443 0368 0400     		.2byte	0x4
 21444 036a F3       		.byte	0xf3
 21445 036b 01       		.uleb128 0x1
 21446 036c 50       		.byte	0x50
ARM GAS  C:\Users\Revanth\AppData\Local\Temp\ccqs06ys.s 			page 419


 21447 036d 9F       		.byte	0x9f
 21448 036e 00000000 		.4byte	0
 21449 0372 00000000 		.4byte	0
 21450              	.LLST21:
 21451 0376 00000000 		.4byte	.LVL351
 21452 037a 09000000 		.4byte	.LVL352-1
 21453 037e 0100     		.2byte	0x1
 21454 0380 50       		.byte	0x50
 21455 0381 09000000 		.4byte	.LVL352-1
 21456 0385 E6140000 		.4byte	.LFE80
 21457 0389 0400     		.2byte	0x4
 21458 038b F3       		.byte	0xf3
 21459 038c 01       		.uleb128 0x1
 21460 038d 50       		.byte	0x50
 21461 038e 9F       		.byte	0x9f
 21462 038f 00000000 		.4byte	0
 21463 0393 00000000 		.4byte	0
 21464              	.LLST22:
 21465 0397 00000000 		.4byte	.LVL351
 21466 039b 09000000 		.4byte	.LVL352-1
 21467 039f 0100     		.2byte	0x1
 21468 03a1 51       		.byte	0x51
 21469 03a2 09000000 		.4byte	.LVL352-1
 21470 03a6 E6140000 		.4byte	.LFE80
 21471 03aa 0400     		.2byte	0x4
 21472 03ac F3       		.byte	0xf3
 21473 03ad 01       		.uleb128 0x1
 21474 03ae 51       		.byte	0x51
 21475 03af 9F       		.byte	0x9f
 21476 03b0 00000000 		.4byte	0
 21477 03b4 00000000 		.4byte	0
 21478              		.section	.debug_aranges,"",%progbits
 21479 0000 BC000000 		.4byte	0xbc
 21480 0004 0200     		.2byte	0x2
 21481 0006 00000000 		.4byte	.Ldebug_info0
 21482 000a 04       		.byte	0x4
 21483 000b 00       		.byte	0
 21484 000c 0000     		.2byte	0
 21485 000e 0000     		.2byte	0
 21486 0010 00000000 		.4byte	.LFB82
 21487 0014 2E000000 		.4byte	.LFE82-.LFB82
 21488 0018 00000000 		.4byte	.LFB76
 21489 001c 60000000 		.4byte	.LFE76-.LFB76
 21490 0020 00000000 		.4byte	.LFB72
 21491 0024 20000000 		.4byte	.LFE72-.LFB72
 21492 0028 00000000 		.4byte	.LFB63
 21493 002c 28000000 		.4byte	.LFE63-.LFB63
 21494 0030 00000000 		.4byte	.LFB67
 21495 0034 28000000 		.4byte	.LFE67-.LFB67
 21496 0038 00000000 		.4byte	.LFB77
 21497 003c 60000000 		.4byte	.LFE77-.LFB77
 21498 0040 00000000 		.4byte	.LFB73
 21499 0044 20000000 		.4byte	.LFE73-.LFB73
 21500 0048 00000000 		.4byte	.LFB64
 21501 004c 28000000 		.4byte	.LFE64-.LFB64
 21502 0050 00000000 		.4byte	.LFB68
 21503 0054 28000000 		.4byte	.LFE68-.LFB68
ARM GAS  C:\Users\Revanth\AppData\Local\Temp\ccqs06ys.s 			page 420


 21504 0058 00000000 		.4byte	.LFB78
 21505 005c 60000000 		.4byte	.LFE78-.LFB78
 21506 0060 00000000 		.4byte	.LFB74
 21507 0064 20000000 		.4byte	.LFE74-.LFB74
 21508 0068 00000000 		.4byte	.LFB65
 21509 006c 28000000 		.4byte	.LFE65-.LFB65
 21510 0070 00000000 		.4byte	.LFB69
 21511 0074 28000000 		.4byte	.LFE69-.LFB69
 21512 0078 00000000 		.4byte	.LFB79
 21513 007c 60000000 		.4byte	.LFE79-.LFB79
 21514 0080 00000000 		.4byte	.LFB75
 21515 0084 20000000 		.4byte	.LFE75-.LFB75
 21516 0088 00000000 		.4byte	.LFB66
 21517 008c 28000000 		.4byte	.LFE66-.LFB66
 21518 0090 00000000 		.4byte	.LFB70
 21519 0094 28000000 		.4byte	.LFE70-.LFB70
 21520 0098 00000000 		.4byte	.LFB81
 21521 009c 52060000 		.4byte	.LFE81-.LFB81
 21522 00a0 00000000 		.4byte	.LFB83
 21523 00a4 1C000000 		.4byte	.LFE83-.LFB83
 21524 00a8 00000000 		.4byte	.LFB71
 21525 00ac 18000000 		.4byte	.LFE71-.LFB71
 21526 00b0 00000000 		.4byte	.LFB80
 21527 00b4 E6140000 		.4byte	.LFE80-.LFB80
 21528 00b8 00000000 		.4byte	0
 21529 00bc 00000000 		.4byte	0
 21530              		.section	.debug_ranges,"",%progbits
 21531              	.Ldebug_ranges0:
 21532 0000 00000000 		.4byte	.LFB82
 21533 0004 2E000000 		.4byte	.LFE82
 21534 0008 00000000 		.4byte	.LFB76
 21535 000c 60000000 		.4byte	.LFE76
 21536 0010 00000000 		.4byte	.LFB72
 21537 0014 20000000 		.4byte	.LFE72
 21538 0018 00000000 		.4byte	.LFB63
 21539 001c 28000000 		.4byte	.LFE63
 21540 0020 00000000 		.4byte	.LFB67
 21541 0024 28000000 		.4byte	.LFE67
 21542 0028 00000000 		.4byte	.LFB77
 21543 002c 60000000 		.4byte	.LFE77
 21544 0030 00000000 		.4byte	.LFB73
 21545 0034 20000000 		.4byte	.LFE73
 21546 0038 00000000 		.4byte	.LFB64
 21547 003c 28000000 		.4byte	.LFE64
 21548 0040 00000000 		.4byte	.LFB68
 21549 0044 28000000 		.4byte	.LFE68
 21550 0048 00000000 		.4byte	.LFB78
 21551 004c 60000000 		.4byte	.LFE78
 21552 0050 00000000 		.4byte	.LFB74
 21553 0054 20000000 		.4byte	.LFE74
 21554 0058 00000000 		.4byte	.LFB65
 21555 005c 28000000 		.4byte	.LFE65
 21556 0060 00000000 		.4byte	.LFB69
 21557 0064 28000000 		.4byte	.LFE69
 21558 0068 00000000 		.4byte	.LFB79
 21559 006c 60000000 		.4byte	.LFE79
 21560 0070 00000000 		.4byte	.LFB75
ARM GAS  C:\Users\Revanth\AppData\Local\Temp\ccqs06ys.s 			page 421


 21561 0074 20000000 		.4byte	.LFE75
 21562 0078 00000000 		.4byte	.LFB66
 21563 007c 28000000 		.4byte	.LFE66
 21564 0080 00000000 		.4byte	.LFB70
 21565 0084 28000000 		.4byte	.LFE70
 21566 0088 00000000 		.4byte	.LFB81
 21567 008c 52060000 		.4byte	.LFE81
 21568 0090 00000000 		.4byte	.LFB83
 21569 0094 1C000000 		.4byte	.LFE83
 21570 0098 00000000 		.4byte	.LFB71
 21571 009c 18000000 		.4byte	.LFE71
 21572 00a0 00000000 		.4byte	.LFB80
 21573 00a4 E6140000 		.4byte	.LFE80
 21574 00a8 00000000 		.4byte	0
 21575 00ac 00000000 		.4byte	0
 21576              		.section	.debug_line,"",%progbits
 21577              	.Ldebug_line0:
 21578 0000 01080000 		.section	.debug_str,"MS",%progbits,1
 21578      02000602 
 21578      00000201 
 21578      FB0E0D00 
 21578      01010101 
 21579              	.LASF22:
 21580 0000 5043415F 		.ascii	"PCA_16Bit_TxOp_1\000"
 21580      31364269 
 21580      745F5478 
 21580      4F705F31 
 21580      00
 21581              	.LASF30:
 21582 0011 5043415F 		.ascii	"PCA_16Bit_TxOp_2\000"
 21582      31364269 
 21582      745F5478 
 21582      4F705F32 
 21582      00
 21583              	.LASF34:
 21584 0022 5043415F 		.ascii	"PCA_16Bit_TxOp_3\000"
 21584      31364269 
 21584      745F5478 
 21584      4F705F33 
 21584      00
 21585              	.LASF38:
 21586 0033 5043415F 		.ascii	"PCA_16Bit_TxOp_4\000"
 21586      31364269 
 21586      745F5478 
 21586      4F705F34 
 21586      00
 21587              	.LASF49:
 21588 0044 5067536C 		.ascii	"PgSl\000"
 21588      00
 21589              	.LASF2:
 21590 0049 73686F72 		.ascii	"short int\000"
 21590      7420696E 
 21590      7400
 21591              	.LASF20:
 21592 0053 73697A65 		.ascii	"sizetype\000"
 21592      74797065 
 21592      00
ARM GAS  C:\Users\Revanth\AppData\Local\Temp\ccqs06ys.s 			page 422


 21593              	.LASF54:
 21594 005c 50696E5F 		.ascii	"Pin_OE_PCA9959_1_Write\000"
 21594      4F455F50 
 21594      43413939 
 21594      35395F31 
 21594      5F577269 
 21595              	.LASF44:
 21596 0073 50434139 		.ascii	"PCA9959_Init_all\000"
 21596      3935395F 
 21596      496E6974 
 21596      5F616C6C 
 21596      00
 21597              	.LASF4:
 21598 0084 5F5F7569 		.ascii	"__uint16_t\000"
 21598      6E743136 
 21598      5F7400
 21599              	.LASF61:
 21600 008f 50434139 		.ascii	"PCA9959.c\000"
 21600      3935392E 
 21600      6300
 21601              	.LASF62:
 21602 0099 433A5C55 		.ascii	"C:\\Users\\Revanth\\Documents\\GitHub\\AS76_FFP\\AS"
 21602      73657273 
 21602      5C526576 
 21602      616E7468 
 21602      5C446F63 
 21603 00c6 37365F46 		.ascii	"76_FFP\\Half_Skeleton_V2_LED_ARRAY.cydsn\000"
 21603      46505C48 
 21603      616C665F 
 21603      536B656C 
 21603      65746F6E 
 21604              	.LASF12:
 21605 00ee 75696E74 		.ascii	"uint8_t\000"
 21605      385F7400 
 21606              	.LASF56:
 21607 00f6 50696E5F 		.ascii	"Pin_OE_PCA9959_3_Write\000"
 21607      4F455F50 
 21607      43413939 
 21607      35395F33 
 21607      5F577269 
 21608              	.LASF15:
 21609 010d 75696E74 		.ascii	"uint8\000"
 21609      3800
 21610              	.LASF51:
 21611 0113 50696E5F 		.ascii	"Pin_SCK_PCA9959_Write\000"
 21611      53434B5F 
 21611      50434139 
 21611      3935395F 
 21611      57726974 
 21612              	.LASF21:
 21613 0129 50434139 		.ascii	"PCA9959_dummy\000"
 21613      3935395F 
 21613      64756D6D 
 21613      7900
 21614              	.LASF16:
 21615 0137 666C6F61 		.ascii	"float\000"
 21615      7400
ARM GAS  C:\Users\Revanth\AppData\Local\Temp\ccqs06ys.s 			page 423


 21616              	.LASF26:
 21617 013d 64617461 		.ascii	"data_w\000"
 21617      5F7700
 21618              	.LASF42:
 21619 0144 50434139 		.ascii	"PCA9959_clear\000"
 21619      3935395F 
 21619      636C6561 
 21619      7200
 21620              	.LASF9:
 21621 0152 6C6F6E67 		.ascii	"long long int\000"
 21621      206C6F6E 
 21621      6720696E 
 21621      7400
 21622              	.LASF27:
 21623 0160 50616765 		.ascii	"PageSel_1\000"
 21623      53656C5F 
 21623      3100
 21624              	.LASF47:
 21625 016a 52656741 		.ascii	"RegAddr\000"
 21625      64647200 
 21626              	.LASF36:
 21627 0172 50616765 		.ascii	"PageSel_3\000"
 21627      53656C5F 
 21627      3300
 21628              	.LASF40:
 21629 017c 50616765 		.ascii	"PageSel_4\000"
 21629      53656C5F 
 21629      3400
 21630              	.LASF23:
 21631 0186 50434139 		.ascii	"PCA9959_Write_1\000"
 21631      3935395F 
 21631      57726974 
 21631      655F3100 
 21632              	.LASF31:
 21633 0196 50434139 		.ascii	"PCA9959_Write_2\000"
 21633      3935395F 
 21633      57726974 
 21633      655F3200 
 21634              	.LASF35:
 21635 01a6 50434139 		.ascii	"PCA9959_Write_3\000"
 21635      3935395F 
 21635      57726974 
 21635      655F3300 
 21636              	.LASF39:
 21637 01b6 50434139 		.ascii	"PCA9959_Write_4\000"
 21637      3935395F 
 21637      57726974 
 21637      655F3400 
 21638              	.LASF3:
 21639 01c6 5F5F7569 		.ascii	"__uint8_t\000"
 21639      6E74385F 
 21639      7400
 21640              	.LASF48:
 21641 01d0 44617461 		.ascii	"Data\000"
 21641      00
 21642              	.LASF53:
 21643 01d5 50696E5F 		.ascii	"Pin_SS_PCA9959_Write\000"
ARM GAS  C:\Users\Revanth\AppData\Local\Temp\ccqs06ys.s 			page 424


 21643      53535F50 
 21643      43413939 
 21643      35395F57 
 21643      72697465 
 21644              	.LASF19:
 21645 01ea 6C6F6E67 		.ascii	"long double\000"
 21645      20646F75 
 21645      626C6500 
 21646              	.LASF32:
 21647 01f6 50616765 		.ascii	"PageSel_2\000"
 21647      53656C5F 
 21647      3200
 21648              	.LASF52:
 21649 0200 43794465 		.ascii	"CyDelayUs\000"
 21649      6C617955 
 21649      7300
 21650              	.LASF1:
 21651 020a 756E7369 		.ascii	"unsigned char\000"
 21651      676E6564 
 21651      20636861 
 21651      7200
 21652              	.LASF0:
 21653 0218 7369676E 		.ascii	"signed char\000"
 21653      65642063 
 21653      68617200 
 21654              	.LASF10:
 21655 0224 6C6F6E67 		.ascii	"long long unsigned int\000"
 21655      206C6F6E 
 21655      6720756E 
 21655      7369676E 
 21655      65642069 
 21656              	.LASF45:
 21657 023b 50434139 		.ascii	"PCA9959_ChnEn\000"
 21657      3935395F 
 21657      43686E45 
 21657      6E00
 21658              	.LASF11:
 21659 0249 756E7369 		.ascii	"unsigned int\000"
 21659      676E6564 
 21659      20696E74 
 21659      00
 21660              	.LASF43:
 21661 0256 52657365 		.ascii	"Reset_Driver\000"
 21661      745F4472 
 21661      69766572 
 21661      00
 21662              	.LASF13:
 21663 0263 75696E74 		.ascii	"uint16_t\000"
 21663      31365F74 
 21663      00
 21664              	.LASF24:
 21665 026c 5043415F 		.ascii	"PCA_Tx16Bit\000"
 21665      54783136 
 21665      42697400 
 21666              	.LASF5:
 21667 0278 73686F72 		.ascii	"short unsigned int\000"
 21667      7420756E 
ARM GAS  C:\Users\Revanth\AppData\Local\Temp\ccqs06ys.s 			page 425


 21667      7369676E 
 21667      65642069 
 21667      6E7400
 21668              	.LASF18:
 21669 028b 63686172 		.ascii	"char\000"
 21669      00
 21670              	.LASF7:
 21671 0290 6C6F6E67 		.ascii	"long int\000"
 21671      20696E74 
 21671      00
 21672              	.LASF14:
 21673 0299 696E7433 		.ascii	"int32_t\000"
 21673      325F7400 
 21674              	.LASF28:
 21675 02a1 5F426F6F 		.ascii	"_Bool\000"
 21675      6C00
 21676              	.LASF55:
 21677 02a7 50696E5F 		.ascii	"Pin_OE_PCA9959_2_Write\000"
 21677      4F455F50 
 21677      43413939 
 21677      35395F32 
 21677      5F577269 
 21678              	.LASF8:
 21679 02be 6C6F6E67 		.ascii	"long unsigned int\000"
 21679      20756E73 
 21679      69676E65 
 21679      6420696E 
 21679      7400
 21680              	.LASF25:
 21681 02d0 72656761 		.ascii	"regaddr_w\000"
 21681      6464725F 
 21681      7700
 21682              	.LASF57:
 21683 02da 50696E5F 		.ascii	"Pin_OE_PCA9959_4_Write\000"
 21683      4F455F50 
 21683      43413939 
 21683      35395F34 
 21683      5F577269 
 21684              	.LASF6:
 21685 02f1 5F5F696E 		.ascii	"__int32_t\000"
 21685      7433325F 
 21685      7400
 21686              	.LASF50:
 21687 02fb 50696E5F 		.ascii	"Pin_MOSI_PCA9959_Write\000"
 21687      4D4F5349 
 21687      5F504341 
 21687      39393539 
 21687      5F577269 
 21688              	.LASF17:
 21689 0312 646F7562 		.ascii	"double\000"
 21689      6C6500
 21690              	.LASF29:
 21691 0319 50434139 		.ascii	"PCA9959_Init_1\000"
 21691      3935395F 
 21691      496E6974 
 21691      5F3100
 21692              	.LASF33:
ARM GAS  C:\Users\Revanth\AppData\Local\Temp\ccqs06ys.s 			page 426


 21693 0328 50434139 		.ascii	"PCA9959_Init_2\000"
 21693      3935395F 
 21693      496E6974 
 21693      5F3200
 21694              	.LASF37:
 21695 0337 50434139 		.ascii	"PCA9959_Init_3\000"
 21695      3935395F 
 21695      496E6974 
 21695      5F3300
 21696              	.LASF41:
 21697 0346 50434139 		.ascii	"PCA9959_Init_4\000"
 21697      3935395F 
 21697      496E6974 
 21697      5F3400
 21698              	.LASF46:
 21699 0355 49544D5F 		.ascii	"ITM_RxBuffer\000"
 21699      52784275 
 21699      66666572 
 21699      00
 21700              	.LASF60:
 21701 0362 474E5520 		.ascii	"GNU C11 5.4.1 20160609 (release) [ARM/embedded-5-br"
 21701      43313120 
 21701      352E342E 
 21701      31203230 
 21701      31363036 
 21702 0395 616E6368 		.ascii	"anch revision 237715] -mcpu=cortex-m3 -mthumb -g -O"
 21702      20726576 
 21702      6973696F 
 21702      6E203233 
 21702      37373135 
 21703 03c8 67202D66 		.ascii	"g -ffunction-sections -ffat-lto-objects\000"
 21703      66756E63 
 21703      74696F6E 
 21703      2D736563 
 21703      74696F6E 
 21704              	.LASF59:
 21705 03f0 43794465 		.ascii	"CyDelay\000"
 21705      6C617900 
 21706              	.LASF58:
 21707 03f8 50696E5F 		.ascii	"Pin_RST_PCA9959_Write\000"
 21707      5253545F 
 21707      50434139 
 21707      3935395F 
 21707      57726974 
 21708              		.ident	"GCC: (GNU Tools for ARM Embedded Processors) 5.4.1 20160609 (release) [ARM/embedded-5-bran
