ARM GAS  C:\Users\Revanth\AppData\Local\Temp\ccqs06ys.s 			page 1


   1              		.syntax unified
   2              		.cpu cortex-m3
   3              		.fpu softvfp
   4              		.eabi_attribute 20, 1
   5              		.eabi_attribute 21, 1
   6              		.eabi_attribute 23, 3
   7              		.eabi_attribute 24, 1
   8              		.eabi_attribute 25, 1
   9              		.eabi_attribute 26, 1
  10              		.eabi_attribute 30, 1
  11              		.eabi_attribute 34, 1
  12              		.eabi_attribute 18, 4
  13              		.thumb
  14              		.syntax unified
  15              		.file	"PCA9959.c"
  16              		.text
  17              	.Ltext0:
  18              		.cfi_sections	.debug_frame
  19              		.section	.text.PCA9959_dummy,"ax",%progbits
  20              		.align	2
  21              		.global	PCA9959_dummy
  22              		.thumb
  23              		.thumb_func
  24              		.type	PCA9959_dummy, %function
  25              	PCA9959_dummy:
  26              	.LFB82:
  27              		.file 1 "PCA9959.c"
   1:PCA9959.c     **** /* ========================================
   2:PCA9959.c     ****  *
   3:PCA9959.c     ****  * Copyright YOUR COMPANY, THE YEAR
   4:PCA9959.c     ****  * All Rights Reserved
   5:PCA9959.c     ****  * UNPUBLISHED, LICENSED SOFTWARE.
   6:PCA9959.c     ****  *
   7:PCA9959.c     ****  * CONFIDENTIAL AND PROPRIETARY INFORMATION
   8:PCA9959.c     ****  * WHICH IS THE PROPERTY OF your company.
   9:PCA9959.c     ****  *
  10:PCA9959.c     ****  * ========================================
  11:PCA9959.c     **** */
  12:PCA9959.c     **** 
  13:PCA9959.c     **** /* [] END OF FILE */
  14:PCA9959.c     **** #include "PCA9959.h"
  15:PCA9959.c     **** 
  16:PCA9959.c     **** /*Variables*/
  17:PCA9959.c     **** 
  18:PCA9959.c     **** uint16_t RX = 0;
  19:PCA9959.c     **** uint16_t TX = 0;
  20:PCA9959.c     **** uint8_t  RegAddr = 0x00;
  21:PCA9959.c     **** uint8_t  Data = 0x00;
  22:PCA9959.c     **** _Bool Op =1;
  23:PCA9959.c     **** uint8_t PgSl = 0;
  24:PCA9959.c     **** 
  25:PCA9959.c     **** ///////////////////////////////////////////////////////////////////////////////////////
  26:PCA9959.c     **** 
  27:PCA9959.c     **** void PageSel_1(_Bool Sel)
  28:PCA9959.c     **** {
  29:PCA9959.c     ****     if(Sel == 0)
  30:PCA9959.c     ****     {
ARM GAS  C:\Users\Revanth\AppData\Local\Temp\ccqs06ys.s 			page 2


  31:PCA9959.c     ****         RegAddr = 0x0B;
  32:PCA9959.c     ****         Data    = 0x00;                                 //Page 0, i.e Grid Registers selected
  33:PCA9959.c     ****         PCA9959_Write_1(RegAddr, Data);
  34:PCA9959.c     ****     }
  35:PCA9959.c     ****     else
  36:PCA9959.c     ****     {
  37:PCA9959.c     ****         RegAddr = 0X0B;
  38:PCA9959.c     ****         Data    = 0x80;                                 //Page 1, i.e Channel Registers selected 
  39:PCA9959.c     ****         PCA9959_Write_1(RegAddr, Data);
  40:PCA9959.c     ****     }
  41:PCA9959.c     **** }
  42:PCA9959.c     **** 
  43:PCA9959.c     **** void PageSel_2(_Bool Sel)
  44:PCA9959.c     **** {
  45:PCA9959.c     ****     if(Sel == 0)
  46:PCA9959.c     ****     {
  47:PCA9959.c     ****         RegAddr = 0x0B;
  48:PCA9959.c     ****         Data    = 0x00;                                 //Page 0, i.e Grid Registers selected
  49:PCA9959.c     ****         PCA9959_Write_2(RegAddr, Data);
  50:PCA9959.c     ****     }
  51:PCA9959.c     ****     else
  52:PCA9959.c     ****     {
  53:PCA9959.c     ****         RegAddr = 0X0B;
  54:PCA9959.c     ****         Data    = 0x80;                                 //Page 1, i.e Channel Registers selected 
  55:PCA9959.c     ****         PCA9959_Write_2(RegAddr, Data);
  56:PCA9959.c     ****     }
  57:PCA9959.c     **** }
  58:PCA9959.c     **** 
  59:PCA9959.c     **** void PageSel_3(_Bool Sel)
  60:PCA9959.c     **** {
  61:PCA9959.c     ****     if(Sel == 0)
  62:PCA9959.c     ****     {
  63:PCA9959.c     ****         RegAddr = 0x0B;
  64:PCA9959.c     ****         Data    = 0x00;                                 //Page 0, i.e Grid Registers selected
  65:PCA9959.c     ****         PCA9959_Write_3(RegAddr, Data);
  66:PCA9959.c     ****     }
  67:PCA9959.c     ****     else
  68:PCA9959.c     ****     {
  69:PCA9959.c     ****         RegAddr = 0X0B;
  70:PCA9959.c     ****         Data    = 0x80;                                 //Page 1, i.e Channel Registers selected 
  71:PCA9959.c     ****         PCA9959_Write_3(RegAddr, Data);
  72:PCA9959.c     ****     }
  73:PCA9959.c     **** }
  74:PCA9959.c     **** 
  75:PCA9959.c     **** void PageSel_4(_Bool Sel)
  76:PCA9959.c     **** {
  77:PCA9959.c     ****     if(Sel == 0)
  78:PCA9959.c     ****     {
  79:PCA9959.c     ****         RegAddr = 0x0B;
  80:PCA9959.c     ****         Data    = 0x00;                                 //Page 0, i.e Grid Registers selected
  81:PCA9959.c     ****         PCA9959_Write_4(RegAddr, Data);
  82:PCA9959.c     ****     }
  83:PCA9959.c     ****     else
  84:PCA9959.c     ****     {
  85:PCA9959.c     ****         RegAddr = 0X0B;
  86:PCA9959.c     ****         Data    = 0x80;                                 //Page 1, i.e Channel Registers selected 
  87:PCA9959.c     ****         PCA9959_Write_4(RegAddr, Data);
ARM GAS  C:\Users\Revanth\AppData\Local\Temp\ccqs06ys.s 			page 3


  88:PCA9959.c     ****     }
  89:PCA9959.c     **** }
  90:PCA9959.c     **** 
  91:PCA9959.c     **** //////////////////////////////////////////////////////////////////////////////////////
  92:PCA9959.c     **** 
  93:PCA9959.c     **** void PCA9959_Init_1(void)
  94:PCA9959.c     **** {
  95:PCA9959.c     **** 
  96:PCA9959.c     ****     PCA9959_Write_1(Mode2, 0x18);
  97:PCA9959.c     ****     Pin_OE_PCA9959_1_Write(1);                                      /*Disable all channels. */
  98:PCA9959.c     ****     PCA9959_Write_1(Side_Ctl, 0x00);                       //Side 0 to be written to and executed
  99:PCA9959.c     ****     PageSel_1(GdSel);
 100:PCA9959.c     ****     PCA9959_Write_1(Grd0_Cf, 0x01);                       //LED Channels mapped to Group O use the 
 101:PCA9959.c     **** //    CyDelay(100);
 102:PCA9959.c     **** 
 103:PCA9959.c     **** }
 104:PCA9959.c     **** 
 105:PCA9959.c     **** void PCA9959_Init_2(void)
 106:PCA9959.c     **** {
 107:PCA9959.c     ****     PCA9959_Write_2(Mode2, 0x18);
 108:PCA9959.c     ****     Pin_OE_PCA9959_2_Write(1);                                      /*Disable all channels. */
 109:PCA9959.c     ****     PCA9959_Write_2(Side_Ctl, 0x00);                       //Side 0 to be written to and executed
 110:PCA9959.c     ****     PageSel_2(GdSel);
 111:PCA9959.c     ****     PCA9959_Write_2(Grd0_Cf, 0x01);                       //LED Channels mapped to Group O use the 
 112:PCA9959.c     **** //    CyDelay(100);
 113:PCA9959.c     **** 
 114:PCA9959.c     **** }
 115:PCA9959.c     **** 
 116:PCA9959.c     **** void PCA9959_Init_3(void)
 117:PCA9959.c     **** {
 118:PCA9959.c     ****     PCA9959_Write_3(Mode2, 0x18);
 119:PCA9959.c     ****     Pin_OE_PCA9959_3_Write(1);                                      /*Disable all channels. */
 120:PCA9959.c     ****     PCA9959_Write_3(Side_Ctl, 0x00);                       //Side 0 to be written to and executed
 121:PCA9959.c     ****     PageSel_3(GdSel);
 122:PCA9959.c     ****     PCA9959_Write_3(Grd0_Cf, 0x01);                       //LED Channels mapped to Group O use the 
 123:PCA9959.c     **** //    CyDelay(100);
 124:PCA9959.c     **** 
 125:PCA9959.c     **** }
 126:PCA9959.c     **** 
 127:PCA9959.c     **** void PCA9959_Init_4(void)
 128:PCA9959.c     **** {
 129:PCA9959.c     ****     PCA9959_Write_4(Mode2, 0x18);
 130:PCA9959.c     ****     Pin_OE_PCA9959_4_Write(1);                                      /*Disable all channels. */
 131:PCA9959.c     ****     PCA9959_Write_4(Side_Ctl, 0x00);                       //Side 0 to be written to and executed
 132:PCA9959.c     ****     PageSel_4(GdSel);
 133:PCA9959.c     ****     PCA9959_Write_4(Grd0_Cf, 0x01);                       //LED Channels mapped to Group O use the 
 134:PCA9959.c     **** //    CyDelay(100);
 135:PCA9959.c     **** 
 136:PCA9959.c     **** }
 137:PCA9959.c     **** 
 138:PCA9959.c     **** void PCA9959_Init_all(void)
 139:PCA9959.c     **** {
 140:PCA9959.c     ****    Reset_Driver();
 141:PCA9959.c     ****    PCA9959_Init_1();
 142:PCA9959.c     ****    PCA9959_Init_2();
 143:PCA9959.c     ****    PCA9959_Init_3();
 144:PCA9959.c     ****    PCA9959_Init_4();
ARM GAS  C:\Users\Revanth\AppData\Local\Temp\ccqs06ys.s 			page 4


 145:PCA9959.c     **** }
 146:PCA9959.c     **** 
 147:PCA9959.c     **** ///////////////////////////////////////////////////////////////////////////////////////
 148:PCA9959.c     **** 
 149:PCA9959.c     **** void PCA9959_Write_1(uint8_t regaddr_w, uint8_t data_w)
 150:PCA9959.c     **** {
 151:PCA9959.c     ****     Op = Write;   
 152:PCA9959.c     ****     TX = ((((regaddr_w << 1) | Op) << 8) | data_w );    //Evaluate TX so that Write operation can b
 153:PCA9959.c     ****     PCA_16Bit_TxOp_1(TX);                                 //Send Write command with register addres
 154:PCA9959.c     **** //    CyDelayUs(1);
 155:PCA9959.c     ****     
 156:PCA9959.c     **** }
 157:PCA9959.c     **** 
 158:PCA9959.c     **** void PCA9959_Write_2(uint8_t regaddr_w, uint8_t data_w)
 159:PCA9959.c     **** {
 160:PCA9959.c     ****     Op = Write;   
 161:PCA9959.c     ****     TX = ((((regaddr_w << 1) | Op) << 8) | data_w );    //Evaluate TX so that Write operation can b
 162:PCA9959.c     ****     PCA_16Bit_TxOp_2(TX);                                 //Send Write command with register addres
 163:PCA9959.c     **** //    CyDelayUs(1);
 164:PCA9959.c     ****     
 165:PCA9959.c     **** }
 166:PCA9959.c     **** 
 167:PCA9959.c     **** void PCA9959_Write_3(uint8_t regaddr_w, uint8_t data_w)
 168:PCA9959.c     **** {
 169:PCA9959.c     ****     Op = Write;   
 170:PCA9959.c     ****     TX = ((((regaddr_w << 1) | Op) << 8) | data_w );    //Evaluate TX so that Write operation can b
 171:PCA9959.c     ****     PCA_16Bit_TxOp_3(TX);                                 //Send Write command with register addres
 172:PCA9959.c     **** //    CyDelayUs(1);
 173:PCA9959.c     ****     
 174:PCA9959.c     **** }
 175:PCA9959.c     **** 
 176:PCA9959.c     **** void PCA9959_Write_4(uint8_t regaddr_w, uint8_t data_w)
 177:PCA9959.c     **** {
 178:PCA9959.c     ****     Op = Write;   
 179:PCA9959.c     ****     TX = ((((regaddr_w << 1) | Op) << 8) | data_w );    //Evaluate TX so that Write operation can b
 180:PCA9959.c     ****     PCA_16Bit_TxOp_4(TX);                                 //Send Write command with register addres
 181:PCA9959.c     **** //    CyDelayUs(1);
 182:PCA9959.c     ****     
 183:PCA9959.c     **** }
 184:PCA9959.c     **** 
 185:PCA9959.c     **** ///////////////////////////////////////////////////////////////////////////////////////
 186:PCA9959.c     **** 
 187:PCA9959.c     **** void PCA_16Bit_TxOp_1(uint16_t PCA_Tx16Bit)
 188:PCA9959.c     **** {
 189:PCA9959.c     ****     uint8_t i=0;
 190:PCA9959.c     ****     Pin_SCK_PCA9959_Write(0);
 191:PCA9959.c     ****     Pin_SS_PCA9959_Write(0);
 192:PCA9959.c     ****     CyDelayUs(1);
 193:PCA9959.c     ****     
 194:PCA9959.c     ****     PCA9959_dummy();
 195:PCA9959.c     ****     
 196:PCA9959.c     ****     for(i=16;i>0;i--)
 197:PCA9959.c     ****     {
 198:PCA9959.c     ****       Pin_MOSI_PCA9959_Write((uint8)((PCA_Tx16Bit >> (i-1))&0x01));
 199:PCA9959.c     ****       Pin_SCK_PCA9959_Write(0);
 200:PCA9959.c     ****       CyDelayUs(1);
 201:PCA9959.c     ****       Pin_SCK_PCA9959_Write(1);
ARM GAS  C:\Users\Revanth\AppData\Local\Temp\ccqs06ys.s 			page 5


 202:PCA9959.c     ****       CyDelayUs(1);
 203:PCA9959.c     ****     }
 204:PCA9959.c     ****     
 205:PCA9959.c     ****     PCA9959_dummy();
 206:PCA9959.c     ****     PCA9959_dummy();
 207:PCA9959.c     ****     
 208:PCA9959.c     ****     Pin_SCK_PCA9959_Write(0);
 209:PCA9959.c     ****     Pin_SS_PCA9959_Write(1);
 210:PCA9959.c     ****     
 211:PCA9959.c     **** }
 212:PCA9959.c     **** 
 213:PCA9959.c     **** void PCA_16Bit_TxOp_2(uint16_t PCA_Tx16Bit)
 214:PCA9959.c     **** {
 215:PCA9959.c     ****     uint8_t i=0;
 216:PCA9959.c     ****     Pin_SCK_PCA9959_Write(0);
 217:PCA9959.c     ****     Pin_SS_PCA9959_Write(0);
 218:PCA9959.c     ****     CyDelayUs(1);
 219:PCA9959.c     ****     
 220:PCA9959.c     ****     PCA9959_dummy();
 221:PCA9959.c     ****     PCA9959_dummy();
 222:PCA9959.c     ****     PCA9959_dummy();
 223:PCA9959.c     ****     
 224:PCA9959.c     ****     for(i=16;i>0;i--)
 225:PCA9959.c     ****     {
 226:PCA9959.c     ****       Pin_MOSI_PCA9959_Write((uint8)((PCA_Tx16Bit >> (i-1))&0x01));
 227:PCA9959.c     ****       Pin_SCK_PCA9959_Write(0);
 228:PCA9959.c     ****       CyDelayUs(1);
 229:PCA9959.c     ****       Pin_SCK_PCA9959_Write(1);
 230:PCA9959.c     ****       CyDelayUs(1);
 231:PCA9959.c     ****     }
 232:PCA9959.c     ****     Pin_SCK_PCA9959_Write(0);
 233:PCA9959.c     ****     Pin_SS_PCA9959_Write(1);
 234:PCA9959.c     ****     
 235:PCA9959.c     **** }
 236:PCA9959.c     **** 
 237:PCA9959.c     **** void PCA_16Bit_TxOp_3(uint16_t PCA_Tx16Bit)
 238:PCA9959.c     **** {
 239:PCA9959.c     ****     uint8_t i=0;
 240:PCA9959.c     ****     Pin_SCK_PCA9959_Write(0);
 241:PCA9959.c     ****     Pin_SS_PCA9959_Write(0);
 242:PCA9959.c     ****     CyDelayUs(1);
 243:PCA9959.c     ****     
 244:PCA9959.c     ****     for(i=16;i>0;i--)
 245:PCA9959.c     ****     {
 246:PCA9959.c     ****       Pin_MOSI_PCA9959_Write((uint8)((PCA_Tx16Bit >> (i-1))&0x01));
 247:PCA9959.c     ****       Pin_SCK_PCA9959_Write(0);
 248:PCA9959.c     ****       CyDelayUs(1);
 249:PCA9959.c     ****       Pin_SCK_PCA9959_Write(1);
 250:PCA9959.c     ****       CyDelayUs(1);
 251:PCA9959.c     ****     }
 252:PCA9959.c     ****     
 253:PCA9959.c     ****     PCA9959_dummy();
 254:PCA9959.c     ****     PCA9959_dummy();
 255:PCA9959.c     ****     PCA9959_dummy();
 256:PCA9959.c     ****     
 257:PCA9959.c     ****     Pin_SCK_PCA9959_Write(0);
 258:PCA9959.c     ****     Pin_SS_PCA9959_Write(1);
ARM GAS  C:\Users\Revanth\AppData\Local\Temp\ccqs06ys.s 			page 6


 259:PCA9959.c     ****     
 260:PCA9959.c     **** }
 261:PCA9959.c     **** 
 262:PCA9959.c     **** void PCA_16Bit_TxOp_4(uint16_t PCA_Tx16Bit)
 263:PCA9959.c     **** {
 264:PCA9959.c     ****     uint8_t i=0;
 265:PCA9959.c     ****     Pin_SCK_PCA9959_Write(0);
 266:PCA9959.c     ****     Pin_SS_PCA9959_Write(0);
 267:PCA9959.c     ****     CyDelayUs(1);
 268:PCA9959.c     ****     
 269:PCA9959.c     ****     PCA9959_dummy();
 270:PCA9959.c     ****     PCA9959_dummy();
 271:PCA9959.c     ****     
 272:PCA9959.c     ****     for(i=16;i>0;i--)
 273:PCA9959.c     ****     {
 274:PCA9959.c     ****       Pin_MOSI_PCA9959_Write((uint8)((PCA_Tx16Bit >> (i-1))&0x01));
 275:PCA9959.c     ****       Pin_SCK_PCA9959_Write(0);
 276:PCA9959.c     ****       CyDelayUs(1);
 277:PCA9959.c     ****       Pin_SCK_PCA9959_Write(1);
 278:PCA9959.c     ****       CyDelayUs(1);
 279:PCA9959.c     ****     }
 280:PCA9959.c     ****     
 281:PCA9959.c     ****     PCA9959_dummy();
 282:PCA9959.c     ****     
 283:PCA9959.c     ****     Pin_SCK_PCA9959_Write(0);
 284:PCA9959.c     ****     Pin_SS_PCA9959_Write(1);
 285:PCA9959.c     ****     
 286:PCA9959.c     **** }
 287:PCA9959.c     **** 
 288:PCA9959.c     **** ///////////////////////////////////////////////////////////////////////////////////////
 289:PCA9959.c     **** 
 290:PCA9959.c     **** void PCA9959_ChnEn(uint8_t Brg, uint8_t Sel)
 291:PCA9959.c     **** {
 292:PCA9959.c     **** 
 293:PCA9959.c     ****     PCA9959_Init_all();
 294:PCA9959.c     ****     CyDelayUs(1);
 295:PCA9959.c     ****     if(Brg <= 255)
 296:PCA9959.c     ****     {
 297:PCA9959.c     ****         
 298:PCA9959.c     ****         
 299:PCA9959.c     ****         if(Sel == 1)
 300:PCA9959.c     ****         {
 301:PCA9959.c     ****             Pin_OE_PCA9959_1_Write(1);
 302:PCA9959.c     ****             PageSel_1(ChSel);
 303:PCA9959.c     ****             PCA9959_Write_1(Ch0_Cf1, 0x00);                       //LED Channel 0 is assigned to Gr
 304:PCA9959.c     ****             PCA9959_Write_1(Ch1_Cf1, 0x00);
 305:PCA9959.c     ****             PCA9959_Write_1(Ch2_Cf1, 0x00); 
 306:PCA9959.c     ****             PCA9959_Write_1(Ch3_Cf1, 0x00); 
 307:PCA9959.c     ****             PCA9959_Write_1(Ch4_Cf1, 0x00); 
 308:PCA9959.c     ****             PCA9959_Write_1(Ch5_Cf1, 0x00); 
 309:PCA9959.c     ****             PCA9959_Write_1(Ch6_Cf1, 0x00); 
 310:PCA9959.c     ****             PCA9959_Write_1(Ch7_Cf1, 0x00); 
 311:PCA9959.c     ****             PCA9959_Write_1(Ch8_Cf1, 0x00); 
 312:PCA9959.c     ****             PCA9959_Write_1(Ch9_Cf1, 0x00); 
 313:PCA9959.c     ****             PCA9959_Write_1(Ch10_Cf1, 0x01);  //
 314:PCA9959.c     ****             PCA9959_Write_1(Ch11_Cf1, 0x00);
 315:PCA9959.c     ****             
ARM GAS  C:\Users\Revanth\AppData\Local\Temp\ccqs06ys.s 			page 7


 316:PCA9959.c     ****             PCA9959_Write_1(Ch12_Cf1, 0x00);
 317:PCA9959.c     ****             PCA9959_Write_1(Ch13_Cf1, 0x00);
 318:PCA9959.c     ****             PCA9959_Write_1(Ch14_Cf1, 0x00);
 319:PCA9959.c     ****             PCA9959_Write_1(Ch15_Cf1, 0x00);
 320:PCA9959.c     ****             PCA9959_Write_1(Ch16_Cf1, 0x00);
 321:PCA9959.c     ****             PCA9959_Write_1(Ch17_Cf1, 0x00);
 322:PCA9959.c     ****             PCA9959_Write_1(Ch18_Cf1, 0x00);
 323:PCA9959.c     ****             PCA9959_Write_1(Ch19_Cf1, 0x00);
 324:PCA9959.c     ****             PCA9959_Write_1(Ch20_Cf1, 0x00);
 325:PCA9959.c     ****             PCA9959_Write_1(Ch21_Cf1, 0x00);
 326:PCA9959.c     ****             PCA9959_Write_1(Ch22_Cf1, 0x00);
 327:PCA9959.c     ****             PCA9959_Write_1(Ch23_Cf1, 0x00);
 328:PCA9959.c     ****             
 329:PCA9959.c     ****             
 330:PCA9959.c     ****             
 331:PCA9959.c     ****             PCA9959_Write_1(Ch0_Cf2, 0x00);                       //Preset Current in CH0_CF2 regis
 332:PCA9959.c     ****             PCA9959_Write_1(Ch1_Cf2, 0x00);
 333:PCA9959.c     ****             PCA9959_Write_1(Ch2_Cf2, 0x00);
 334:PCA9959.c     ****             PCA9959_Write_1(Ch3_Cf2, 0x00);
 335:PCA9959.c     ****             PCA9959_Write_1(Ch4_Cf2, 0x00);
 336:PCA9959.c     ****             PCA9959_Write_1(Ch5_Cf2, 0x00);
 337:PCA9959.c     ****             PCA9959_Write_1(Ch6_Cf2, 0x00);
 338:PCA9959.c     ****             PCA9959_Write_1(Ch7_Cf2, 0x00);
 339:PCA9959.c     ****             PCA9959_Write_1(Ch8_Cf2, 0x00);
 340:PCA9959.c     ****             PCA9959_Write_1(Ch9_Cf2, 0x00);
 341:PCA9959.c     ****             PCA9959_Write_1(Ch10_Cf2, Brg);
 342:PCA9959.c     ****             PCA9959_Write_1(Ch11_Cf2, 0x00);
 343:PCA9959.c     ****             
 344:PCA9959.c     ****             PCA9959_Write_1(Ch12_Cf2, 0x00);
 345:PCA9959.c     ****             PCA9959_Write_1(Ch13_Cf2, 0x00);
 346:PCA9959.c     ****             PCA9959_Write_1(Ch14_Cf2, 0x00);
 347:PCA9959.c     ****             PCA9959_Write_1(Ch15_Cf2, 0x00);
 348:PCA9959.c     ****             PCA9959_Write_1(Ch16_Cf2, 0x00);
 349:PCA9959.c     ****             PCA9959_Write_1(Ch17_Cf2, 0x00);
 350:PCA9959.c     ****             PCA9959_Write_1(Ch18_Cf2, 0x00);
 351:PCA9959.c     ****             PCA9959_Write_1(Ch19_Cf2, 0x00);
 352:PCA9959.c     ****             PCA9959_Write_1(Ch20_Cf2, 0x00);
 353:PCA9959.c     ****             PCA9959_Write_1(Ch21_Cf2, 0x00);
 354:PCA9959.c     ****             PCA9959_Write_1(Ch22_Cf2, 0x00);
 355:PCA9959.c     ****             PCA9959_Write_1(Ch23_Cf2, 0x00);
 356:PCA9959.c     ****             Pin_OE_PCA9959_1_Write(0);
 357:PCA9959.c     ****         }
 358:PCA9959.c     **** 
 359:PCA9959.c     ****         else if(Sel == 2)
 360:PCA9959.c     ****         {
 361:PCA9959.c     ****             Pin_OE_PCA9959_1_Write(1);
 362:PCA9959.c     ****             PageSel_1(ChSel);
 363:PCA9959.c     ****             PCA9959_Write_1(Ch0_Cf1, 0x00);                       //LED Channel 0 is assigned to Gr
 364:PCA9959.c     ****             PCA9959_Write_1(Ch1_Cf1, 0x00);
 365:PCA9959.c     ****             PCA9959_Write_1(Ch2_Cf1, 0x00); 
 366:PCA9959.c     ****             PCA9959_Write_1(Ch3_Cf1, 0x00); 
 367:PCA9959.c     ****             PCA9959_Write_1(Ch4_Cf1, 0x00); 
 368:PCA9959.c     ****             PCA9959_Write_1(Ch5_Cf1, 0x00); 
 369:PCA9959.c     ****             PCA9959_Write_1(Ch6_Cf1, 0x01);  //
 370:PCA9959.c     ****             PCA9959_Write_1(Ch7_Cf1, 0x00); 
 371:PCA9959.c     ****             PCA9959_Write_1(Ch8_Cf1, 0x00); 
 372:PCA9959.c     ****             PCA9959_Write_1(Ch9_Cf1, 0x01);  //
ARM GAS  C:\Users\Revanth\AppData\Local\Temp\ccqs06ys.s 			page 8


 373:PCA9959.c     ****             PCA9959_Write_1(Ch10_Cf1, 0x00); 
 374:PCA9959.c     ****             PCA9959_Write_1(Ch11_Cf1, 0x00);
 375:PCA9959.c     ****             
 376:PCA9959.c     ****             PCA9959_Write_1(Ch12_Cf1, 0x00);
 377:PCA9959.c     ****             PCA9959_Write_1(Ch13_Cf1, 0x01); //
 378:PCA9959.c     ****             PCA9959_Write_1(Ch14_Cf1, 0x00);
 379:PCA9959.c     ****             PCA9959_Write_1(Ch15_Cf1, 0x00);
 380:PCA9959.c     ****             PCA9959_Write_1(Ch16_Cf1, 0x00);
 381:PCA9959.c     ****             PCA9959_Write_1(Ch17_Cf1, 0x00);
 382:PCA9959.c     ****             PCA9959_Write_1(Ch18_Cf1, 0x00);
 383:PCA9959.c     ****             PCA9959_Write_1(Ch19_Cf1, 0x00);
 384:PCA9959.c     ****             PCA9959_Write_1(Ch20_Cf1, 0x00);
 385:PCA9959.c     ****             PCA9959_Write_1(Ch21_Cf1, 0x00);
 386:PCA9959.c     ****             PCA9959_Write_1(Ch22_Cf1, 0x00);
 387:PCA9959.c     ****             PCA9959_Write_1(Ch23_Cf1, 0x00);
 388:PCA9959.c     ****             
 389:PCA9959.c     ****             
 390:PCA9959.c     ****             
 391:PCA9959.c     ****             PCA9959_Write_1(Ch0_Cf2, 0x00);                       //Preset Current in CH0_CF2 regis
 392:PCA9959.c     ****             PCA9959_Write_1(Ch1_Cf2, 0x00);
 393:PCA9959.c     ****             PCA9959_Write_1(Ch2_Cf2, 0x00);
 394:PCA9959.c     ****             PCA9959_Write_1(Ch3_Cf2, 0x00);
 395:PCA9959.c     ****             PCA9959_Write_1(Ch4_Cf2, 0x00);
 396:PCA9959.c     ****             PCA9959_Write_1(Ch5_Cf2, 0x00);
 397:PCA9959.c     ****             PCA9959_Write_1(Ch6_Cf2, Brg); //
 398:PCA9959.c     ****             PCA9959_Write_1(Ch7_Cf2, 0x00);
 399:PCA9959.c     ****             PCA9959_Write_1(Ch8_Cf2, 0x00);
 400:PCA9959.c     ****             PCA9959_Write_1(Ch9_Cf2, Brg);   //
 401:PCA9959.c     ****             PCA9959_Write_1(Ch10_Cf2, 0x00);
 402:PCA9959.c     ****             PCA9959_Write_1(Ch11_Cf2, 0x00);
 403:PCA9959.c     ****             
 404:PCA9959.c     ****             PCA9959_Write_1(Ch12_Cf2, 0x00);
 405:PCA9959.c     ****             PCA9959_Write_1(Ch13_Cf2, Brg); //
 406:PCA9959.c     ****             PCA9959_Write_1(Ch14_Cf2, 0x00);
 407:PCA9959.c     ****             PCA9959_Write_1(Ch15_Cf2, 0x00);
 408:PCA9959.c     ****             PCA9959_Write_1(Ch16_Cf2, 0x00);
 409:PCA9959.c     ****             PCA9959_Write_1(Ch17_Cf2, 0x00);
 410:PCA9959.c     ****             PCA9959_Write_1(Ch18_Cf2, 0x00);
 411:PCA9959.c     ****             PCA9959_Write_1(Ch19_Cf2, 0x00);
 412:PCA9959.c     ****             PCA9959_Write_1(Ch20_Cf2, 0x00);
 413:PCA9959.c     ****             PCA9959_Write_1(Ch21_Cf2, 0x00);
 414:PCA9959.c     ****             PCA9959_Write_1(Ch22_Cf2, 0x00);
 415:PCA9959.c     ****             PCA9959_Write_1(Ch23_Cf2, 0x00);
 416:PCA9959.c     ****             Pin_OE_PCA9959_1_Write(0);
 417:PCA9959.c     ****         }
 418:PCA9959.c     ****         
 419:PCA9959.c     ****         else if(Sel == 3)
 420:PCA9959.c     ****         {
 421:PCA9959.c     ****             Pin_OE_PCA9959_1_Write(1);
 422:PCA9959.c     ****             PageSel_1(ChSel);
 423:PCA9959.c     ****             PCA9959_Write_1(Ch0_Cf1, 0x00);                       //LED Channel 0 is assigned to Gr
 424:PCA9959.c     ****             PCA9959_Write_1(Ch1_Cf1, 0x00);
 425:PCA9959.c     ****             PCA9959_Write_1(Ch2_Cf1, 0x00); 
 426:PCA9959.c     ****             PCA9959_Write_1(Ch3_Cf1, 0x00); 
 427:PCA9959.c     ****             PCA9959_Write_1(Ch4_Cf1, 0x00); 
 428:PCA9959.c     ****             PCA9959_Write_1(Ch5_Cf1, 0x00); 
 429:PCA9959.c     ****             PCA9959_Write_1(Ch6_Cf1, 0x00);  
ARM GAS  C:\Users\Revanth\AppData\Local\Temp\ccqs06ys.s 			page 9


 430:PCA9959.c     ****             PCA9959_Write_1(Ch7_Cf1, 0x01); //
 431:PCA9959.c     ****             PCA9959_Write_1(Ch8_Cf1, 0x00); 
 432:PCA9959.c     ****             PCA9959_Write_1(Ch9_Cf1, 0x00);  
 433:PCA9959.c     ****             PCA9959_Write_1(Ch10_Cf1, 0x00); 
 434:PCA9959.c     ****             PCA9959_Write_1(Ch11_Cf1, 0x01); //
 435:PCA9959.c     ****             
 436:PCA9959.c     ****             PCA9959_Write_1(Ch12_Cf1, 0x00);
 437:PCA9959.c     ****             PCA9959_Write_1(Ch13_Cf1, 0x00); 
 438:PCA9959.c     ****             PCA9959_Write_1(Ch14_Cf1, 0x01); //
 439:PCA9959.c     ****             PCA9959_Write_1(Ch15_Cf1, 0x00);
 440:PCA9959.c     ****             PCA9959_Write_1(Ch16_Cf1, 0x00);
 441:PCA9959.c     ****             PCA9959_Write_1(Ch17_Cf1, 0x00);
 442:PCA9959.c     ****             PCA9959_Write_1(Ch18_Cf1, 0x00);
 443:PCA9959.c     ****             PCA9959_Write_1(Ch19_Cf1, 0x00);
 444:PCA9959.c     ****             PCA9959_Write_1(Ch20_Cf1, 0x00);
 445:PCA9959.c     ****             PCA9959_Write_1(Ch21_Cf1, 0x00);
 446:PCA9959.c     ****             PCA9959_Write_1(Ch22_Cf1, 0x00);
 447:PCA9959.c     ****             PCA9959_Write_1(Ch23_Cf1, 0x00);
 448:PCA9959.c     ****             
 449:PCA9959.c     ****             
 450:PCA9959.c     ****             
 451:PCA9959.c     ****             PCA9959_Write_1(Ch0_Cf2, 0x00);                       //Preset Current in CH0_CF2 regis
 452:PCA9959.c     ****             PCA9959_Write_1(Ch1_Cf2, 0x00);
 453:PCA9959.c     ****             PCA9959_Write_1(Ch2_Cf2, 0x00);
 454:PCA9959.c     ****             PCA9959_Write_1(Ch3_Cf2, 0x00);
 455:PCA9959.c     ****             PCA9959_Write_1(Ch4_Cf2, 0x00);
 456:PCA9959.c     ****             PCA9959_Write_1(Ch5_Cf2, 0x00);
 457:PCA9959.c     ****             PCA9959_Write_1(Ch6_Cf2, 0x00); 
 458:PCA9959.c     ****             PCA9959_Write_1(Ch7_Cf2, Brg);   //
 459:PCA9959.c     ****             PCA9959_Write_1(Ch8_Cf2, 0x00);
 460:PCA9959.c     ****             PCA9959_Write_1(Ch9_Cf2, 0x00);   
 461:PCA9959.c     ****             PCA9959_Write_1(Ch10_Cf2, 0x00);
 462:PCA9959.c     ****             PCA9959_Write_1(Ch11_Cf2, Brg);  //
 463:PCA9959.c     ****             
 464:PCA9959.c     ****             PCA9959_Write_1(Ch12_Cf2, 0x00);
 465:PCA9959.c     ****             PCA9959_Write_1(Ch13_Cf2, 0x00); 
 466:PCA9959.c     ****             PCA9959_Write_1(Ch14_Cf2, Brg);  //
 467:PCA9959.c     ****             PCA9959_Write_1(Ch15_Cf2, 0x00);
 468:PCA9959.c     ****             PCA9959_Write_1(Ch16_Cf2, 0x00);
 469:PCA9959.c     ****             PCA9959_Write_1(Ch17_Cf2, 0x00);
 470:PCA9959.c     ****             PCA9959_Write_1(Ch18_Cf2, 0x00);
 471:PCA9959.c     ****             PCA9959_Write_1(Ch19_Cf2, 0x00);
 472:PCA9959.c     ****             PCA9959_Write_1(Ch20_Cf2, 0x00);
 473:PCA9959.c     ****             PCA9959_Write_1(Ch21_Cf2, 0x00);
 474:PCA9959.c     ****             PCA9959_Write_1(Ch22_Cf2, 0x00);
 475:PCA9959.c     ****             PCA9959_Write_1(Ch23_Cf2, 0x00);
 476:PCA9959.c     ****             Pin_OE_PCA9959_1_Write(0);
 477:PCA9959.c     ****         }
 478:PCA9959.c     ****         
 479:PCA9959.c     ****         else if(Sel == 4)
 480:PCA9959.c     ****         {
 481:PCA9959.c     ****             Pin_OE_PCA9959_1_Write(1);
 482:PCA9959.c     ****             PageSel_1(ChSel);
 483:PCA9959.c     ****             PCA9959_Write_1(Ch0_Cf1, 0x00);                       //LED Channel 0 is assigned to Gr
 484:PCA9959.c     ****             PCA9959_Write_1(Ch1_Cf1, 0x00);
 485:PCA9959.c     ****             PCA9959_Write_1(Ch2_Cf1, 0x00); 
 486:PCA9959.c     ****             PCA9959_Write_1(Ch3_Cf1, 0x00); 
ARM GAS  C:\Users\Revanth\AppData\Local\Temp\ccqs06ys.s 			page 10


 487:PCA9959.c     ****             PCA9959_Write_1(Ch4_Cf1, 0x00); 
 488:PCA9959.c     ****             PCA9959_Write_1(Ch5_Cf1, 0x00); 
 489:PCA9959.c     ****             PCA9959_Write_1(Ch6_Cf1, 0x01);  //
 490:PCA9959.c     ****             PCA9959_Write_1(Ch7_Cf1, 0x01); //
 491:PCA9959.c     ****             PCA9959_Write_1(Ch8_Cf1, 0x00); 
 492:PCA9959.c     ****             PCA9959_Write_1(Ch9_Cf1, 0x01); // 
 493:PCA9959.c     ****             PCA9959_Write_1(Ch10_Cf1, 0x01); 
 494:PCA9959.c     ****             PCA9959_Write_1(Ch11_Cf1, 0x01); //
 495:PCA9959.c     ****             
 496:PCA9959.c     ****             PCA9959_Write_1(Ch12_Cf1, 0x00);
 497:PCA9959.c     ****             PCA9959_Write_1(Ch13_Cf1, 0x01); //
 498:PCA9959.c     ****             PCA9959_Write_1(Ch14_Cf1, 0x01); //
 499:PCA9959.c     ****             PCA9959_Write_1(Ch15_Cf1, 0x00);
 500:PCA9959.c     ****             PCA9959_Write_1(Ch16_Cf1, 0x00);
 501:PCA9959.c     ****             PCA9959_Write_1(Ch17_Cf1, 0x00);
 502:PCA9959.c     ****             PCA9959_Write_1(Ch18_Cf1, 0x00);
 503:PCA9959.c     ****             PCA9959_Write_1(Ch19_Cf1, 0x00);
 504:PCA9959.c     ****             PCA9959_Write_1(Ch20_Cf1, 0x00);
 505:PCA9959.c     ****             PCA9959_Write_1(Ch21_Cf1, 0x00);
 506:PCA9959.c     ****             PCA9959_Write_1(Ch22_Cf1, 0x00);
 507:PCA9959.c     ****             PCA9959_Write_1(Ch23_Cf1, 0x00);
 508:PCA9959.c     ****             
 509:PCA9959.c     ****             
 510:PCA9959.c     ****             
 511:PCA9959.c     ****             PCA9959_Write_1(Ch0_Cf2, 0x00);                       //Preset Current in CH0_CF2 regis
 512:PCA9959.c     ****             PCA9959_Write_1(Ch1_Cf2, 0x00);
 513:PCA9959.c     ****             PCA9959_Write_1(Ch2_Cf2, 0x00);
 514:PCA9959.c     ****             PCA9959_Write_1(Ch3_Cf2, 0x00);
 515:PCA9959.c     ****             PCA9959_Write_1(Ch4_Cf2, 0x00);
 516:PCA9959.c     ****             PCA9959_Write_1(Ch5_Cf2, 0x00);
 517:PCA9959.c     ****             PCA9959_Write_1(Ch6_Cf2, Brg); //
 518:PCA9959.c     ****             PCA9959_Write_1(Ch7_Cf2, Brg); //
 519:PCA9959.c     ****             PCA9959_Write_1(Ch8_Cf2, 0x00);
 520:PCA9959.c     ****             PCA9959_Write_1(Ch9_Cf2, Brg);   //
 521:PCA9959.c     ****             PCA9959_Write_1(Ch10_Cf2, Brg);
 522:PCA9959.c     ****             PCA9959_Write_1(Ch11_Cf2, Brg);//
 523:PCA9959.c     ****             
 524:PCA9959.c     ****             PCA9959_Write_1(Ch12_Cf2, 0x00);
 525:PCA9959.c     ****             PCA9959_Write_1(Ch13_Cf2, Brg); //
 526:PCA9959.c     ****             PCA9959_Write_1(Ch14_Cf2, Brg);//
 527:PCA9959.c     ****             PCA9959_Write_1(Ch15_Cf2, 0x00);
 528:PCA9959.c     ****             PCA9959_Write_1(Ch16_Cf2, 0x00);
 529:PCA9959.c     ****             PCA9959_Write_1(Ch17_Cf2, 0x00);
 530:PCA9959.c     ****             PCA9959_Write_1(Ch18_Cf2, 0x00);
 531:PCA9959.c     ****             PCA9959_Write_1(Ch19_Cf2, 0x00);
 532:PCA9959.c     ****             PCA9959_Write_1(Ch20_Cf2, 0x00);
 533:PCA9959.c     ****             PCA9959_Write_1(Ch21_Cf2, 0x00);
 534:PCA9959.c     ****             PCA9959_Write_1(Ch22_Cf2, 0x00);
 535:PCA9959.c     ****             PCA9959_Write_1(Ch23_Cf2, 0x00);
 536:PCA9959.c     ****             Pin_OE_PCA9959_1_Write(0);
 537:PCA9959.c     ****         }
 538:PCA9959.c     ****         
 539:PCA9959.c     ****         else if(Sel == 5)
 540:PCA9959.c     ****         {
 541:PCA9959.c     ****             Pin_OE_PCA9959_1_Write(1);
 542:PCA9959.c     ****             PageSel_1(ChSel);
 543:PCA9959.c     ****             PCA9959_Write_1(Ch0_Cf1, 0x00);                       //LED Channel 0 is assigned to Gr
ARM GAS  C:\Users\Revanth\AppData\Local\Temp\ccqs06ys.s 			page 11


 544:PCA9959.c     ****             PCA9959_Write_1(Ch1_Cf1, 0x01); //
 545:PCA9959.c     ****             PCA9959_Write_1(Ch2_Cf1, 0x00); 
 546:PCA9959.c     ****             PCA9959_Write_1(Ch3_Cf1, 0x01); //
 547:PCA9959.c     ****             PCA9959_Write_1(Ch4_Cf1, 0x00); 
 548:PCA9959.c     ****             PCA9959_Write_1(Ch5_Cf1, 0x01); //
 549:PCA9959.c     ****             PCA9959_Write_1(Ch6_Cf1, 0x00);  
 550:PCA9959.c     ****             PCA9959_Write_1(Ch7_Cf1, 0x00); 
 551:PCA9959.c     ****             PCA9959_Write_1(Ch8_Cf1, 0x00); 
 552:PCA9959.c     ****             PCA9959_Write_1(Ch9_Cf1, 0x00);  
 553:PCA9959.c     ****             PCA9959_Write_1(Ch10_Cf1, 0x00); 
 554:PCA9959.c     ****             PCA9959_Write_1(Ch11_Cf1, 0x00);
 555:PCA9959.c     ****             
 556:PCA9959.c     ****             PCA9959_Write_1(Ch12_Cf1, 0x01); //
 557:PCA9959.c     ****             PCA9959_Write_1(Ch13_Cf1, 0x00); 
 558:PCA9959.c     ****             PCA9959_Write_1(Ch14_Cf1, 0x00);
 559:PCA9959.c     ****             PCA9959_Write_1(Ch15_Cf1, 0x00);
 560:PCA9959.c     ****             PCA9959_Write_1(Ch16_Cf1, 0x01); //
 561:PCA9959.c     ****             PCA9959_Write_1(Ch17_Cf1, 0x00);
 562:PCA9959.c     ****             PCA9959_Write_1(Ch18_Cf1, 0x01); //
 563:PCA9959.c     ****             PCA9959_Write_1(Ch19_Cf1, 0x00);
 564:PCA9959.c     ****             PCA9959_Write_1(Ch20_Cf1, 0x00);
 565:PCA9959.c     ****             PCA9959_Write_1(Ch21_Cf1, 0x00);
 566:PCA9959.c     ****             PCA9959_Write_1(Ch22_Cf1, 0x00);
 567:PCA9959.c     ****             PCA9959_Write_1(Ch23_Cf1, 0x00);
 568:PCA9959.c     ****             
 569:PCA9959.c     ****             
 570:PCA9959.c     ****             
 571:PCA9959.c     ****             PCA9959_Write_1(Ch0_Cf2, 0x00);                       //Preset Current in CH0_CF2 regis
 572:PCA9959.c     ****             PCA9959_Write_1(Ch1_Cf2, Brg);  //
 573:PCA9959.c     ****             PCA9959_Write_1(Ch2_Cf2, 0x00);
 574:PCA9959.c     ****             PCA9959_Write_1(Ch3_Cf2, Brg);  //
 575:PCA9959.c     ****             PCA9959_Write_1(Ch4_Cf2, 0x00);
 576:PCA9959.c     ****             PCA9959_Write_1(Ch5_Cf2, Brg); //
 577:PCA9959.c     ****             PCA9959_Write_1(Ch6_Cf2, 0x00); 
 578:PCA9959.c     ****             PCA9959_Write_1(Ch7_Cf2, 0x00);
 579:PCA9959.c     ****             PCA9959_Write_1(Ch8_Cf2, 0x00);
 580:PCA9959.c     ****             PCA9959_Write_1(Ch9_Cf2, 0x00);   
 581:PCA9959.c     ****             PCA9959_Write_1(Ch10_Cf2, 0x00);
 582:PCA9959.c     ****             PCA9959_Write_1(Ch11_Cf2, 0x00);
 583:PCA9959.c     ****             
 584:PCA9959.c     ****             PCA9959_Write_1(Ch12_Cf2, Brg); //
 585:PCA9959.c     ****             PCA9959_Write_1(Ch13_Cf2, 0x00); 
 586:PCA9959.c     ****             PCA9959_Write_1(Ch14_Cf2, 0x00);
 587:PCA9959.c     ****             PCA9959_Write_1(Ch15_Cf2, 0x00);
 588:PCA9959.c     ****             PCA9959_Write_1(Ch16_Cf2, Brg); //
 589:PCA9959.c     ****             PCA9959_Write_1(Ch17_Cf2, 0x00);
 590:PCA9959.c     ****             PCA9959_Write_1(Ch18_Cf2, Brg); //
 591:PCA9959.c     ****             PCA9959_Write_1(Ch19_Cf2, 0x00);
 592:PCA9959.c     ****             PCA9959_Write_1(Ch20_Cf2, 0x00);
 593:PCA9959.c     ****             PCA9959_Write_1(Ch21_Cf2, 0x00);
 594:PCA9959.c     ****             PCA9959_Write_1(Ch22_Cf2, 0x00);
 595:PCA9959.c     ****             PCA9959_Write_1(Ch23_Cf2, 0x00);
 596:PCA9959.c     ****             Pin_OE_PCA9959_1_Write(0);
 597:PCA9959.c     ****         }
 598:PCA9959.c     ****         
 599:PCA9959.c     ****         else if(Sel == 6)
 600:PCA9959.c     ****         {
ARM GAS  C:\Users\Revanth\AppData\Local\Temp\ccqs06ys.s 			page 12


 601:PCA9959.c     ****             Pin_OE_PCA9959_1_Write(1);
 602:PCA9959.c     ****             PageSel_1(ChSel);
 603:PCA9959.c     ****             PCA9959_Write_1(Ch0_Cf1, 0x01);    //                 //LED Channel 0 is assigned to Gr
 604:PCA9959.c     ****             PCA9959_Write_1(Ch1_Cf1, 0x00); 
 605:PCA9959.c     ****             PCA9959_Write_1(Ch2_Cf1, 0x01);  //
 606:PCA9959.c     ****             PCA9959_Write_1(Ch3_Cf1, 0x00); 
 607:PCA9959.c     ****             PCA9959_Write_1(Ch4_Cf1, 0x01); //
 608:PCA9959.c     ****             PCA9959_Write_1(Ch5_Cf1, 0x00); 
 609:PCA9959.c     ****             PCA9959_Write_1(Ch6_Cf1, 0x00);  
 610:PCA9959.c     ****             PCA9959_Write_1(Ch7_Cf1, 0x00); 
 611:PCA9959.c     ****             PCA9959_Write_1(Ch8_Cf1, 0x01); //
 612:PCA9959.c     ****             PCA9959_Write_1(Ch9_Cf1, 0x00);  
 613:PCA9959.c     ****             PCA9959_Write_1(Ch10_Cf1, 0x00); 
 614:PCA9959.c     ****             PCA9959_Write_1(Ch11_Cf1, 0x00);
 615:PCA9959.c     ****             
 616:PCA9959.c     ****             PCA9959_Write_1(Ch12_Cf1, 0x00);
 617:PCA9959.c     ****             PCA9959_Write_1(Ch13_Cf1, 0x00); 
 618:PCA9959.c     ****             PCA9959_Write_1(Ch14_Cf1, 0x00);
 619:PCA9959.c     ****             PCA9959_Write_1(Ch15_Cf1, 0x01); //
 620:PCA9959.c     ****             PCA9959_Write_1(Ch16_Cf1, 0x00); 
 621:PCA9959.c     ****             PCA9959_Write_1(Ch17_Cf1, 0x01); //
 622:PCA9959.c     ****             PCA9959_Write_1(Ch18_Cf1, 0x00); 
 623:PCA9959.c     ****             PCA9959_Write_1(Ch19_Cf1, 0x00);
 624:PCA9959.c     ****             PCA9959_Write_1(Ch20_Cf1, 0x00);
 625:PCA9959.c     ****             PCA9959_Write_1(Ch21_Cf1, 0x00);
 626:PCA9959.c     ****             PCA9959_Write_1(Ch22_Cf1, 0x00);
 627:PCA9959.c     ****             PCA9959_Write_1(Ch23_Cf1, 0x00);
 628:PCA9959.c     ****             
 629:PCA9959.c     ****             
 630:PCA9959.c     ****             
 631:PCA9959.c     ****             PCA9959_Write_1(Ch0_Cf2, Brg);        //            //Preset Current in CH0_CF2 registe
 632:PCA9959.c     ****             PCA9959_Write_1(Ch1_Cf2, 0x00);  
 633:PCA9959.c     ****             PCA9959_Write_1(Ch2_Cf2, Brg);  //
 634:PCA9959.c     ****             PCA9959_Write_1(Ch3_Cf2, 0x00); 
 635:PCA9959.c     ****             PCA9959_Write_1(Ch4_Cf2, Brg); //
 636:PCA9959.c     ****             PCA9959_Write_1(Ch5_Cf2, 0x00); 
 637:PCA9959.c     ****             PCA9959_Write_1(Ch6_Cf2, 0x00); 
 638:PCA9959.c     ****             PCA9959_Write_1(Ch7_Cf2, 0x00);
 639:PCA9959.c     ****             PCA9959_Write_1(Ch8_Cf2, Brg);  //
 640:PCA9959.c     ****             PCA9959_Write_1(Ch9_Cf2, 0x00);   
 641:PCA9959.c     ****             PCA9959_Write_1(Ch10_Cf2, 0x00);
 642:PCA9959.c     ****             PCA9959_Write_1(Ch11_Cf2, 0x00);
 643:PCA9959.c     ****             
 644:PCA9959.c     ****             PCA9959_Write_1(Ch12_Cf2, 0x00); 
 645:PCA9959.c     ****             PCA9959_Write_1(Ch13_Cf2, 0x00); 
 646:PCA9959.c     ****             PCA9959_Write_1(Ch14_Cf2, 0x00);
 647:PCA9959.c     ****             PCA9959_Write_1(Ch15_Cf2, Brg);  //
 648:PCA9959.c     ****             PCA9959_Write_1(Ch16_Cf2, 0x00); 
 649:PCA9959.c     ****             PCA9959_Write_1(Ch17_Cf2, Brg);  //
 650:PCA9959.c     ****             PCA9959_Write_1(Ch18_Cf2, 0x00);  
 651:PCA9959.c     ****             PCA9959_Write_1(Ch19_Cf2, 0x00);
 652:PCA9959.c     ****             PCA9959_Write_1(Ch20_Cf2, 0x00);
 653:PCA9959.c     ****             PCA9959_Write_1(Ch21_Cf2, 0x00);
 654:PCA9959.c     ****             PCA9959_Write_1(Ch22_Cf2, 0x00);
 655:PCA9959.c     ****             PCA9959_Write_1(Ch23_Cf2, 0x00);
 656:PCA9959.c     ****             Pin_OE_PCA9959_1_Write(0);
 657:PCA9959.c     ****         }
ARM GAS  C:\Users\Revanth\AppData\Local\Temp\ccqs06ys.s 			page 13


 658:PCA9959.c     ****         
 659:PCA9959.c     ****         else if(Sel == 7)
 660:PCA9959.c     ****         {
 661:PCA9959.c     ****             Pin_OE_PCA9959_1_Write(1);
 662:PCA9959.c     ****             PageSel_1(ChSel);
 663:PCA9959.c     ****             PCA9959_Write_1(Ch0_Cf1, 0x01);  //                     //LED Channel 0 is assigned to 
 664:PCA9959.c     ****             PCA9959_Write_1(Ch1_Cf1, 0x01); //
 665:PCA9959.c     ****             PCA9959_Write_1(Ch2_Cf1, 0x01); //
 666:PCA9959.c     ****             PCA9959_Write_1(Ch3_Cf1, 0x01); //
 667:PCA9959.c     ****             PCA9959_Write_1(Ch4_Cf1, 0x01); //
 668:PCA9959.c     ****             PCA9959_Write_1(Ch5_Cf1, 0x01); //
 669:PCA9959.c     ****             PCA9959_Write_1(Ch6_Cf1, 0x00);  
 670:PCA9959.c     ****             PCA9959_Write_1(Ch7_Cf1, 0x00); 
 671:PCA9959.c     ****             PCA9959_Write_1(Ch8_Cf1, 0x01); //
 672:PCA9959.c     ****             PCA9959_Write_1(Ch9_Cf1, 0x00);  
 673:PCA9959.c     ****             PCA9959_Write_1(Ch10_Cf1, 0x00); 
 674:PCA9959.c     ****             PCA9959_Write_1(Ch11_Cf1, 0x00);
 675:PCA9959.c     ****             
 676:PCA9959.c     ****             PCA9959_Write_1(Ch12_Cf1, 0x01); //
 677:PCA9959.c     ****             PCA9959_Write_1(Ch13_Cf1, 0x00); 
 678:PCA9959.c     ****             PCA9959_Write_1(Ch14_Cf1, 0x00);
 679:PCA9959.c     ****             PCA9959_Write_1(Ch15_Cf1, 0x01); //
 680:PCA9959.c     ****             PCA9959_Write_1(Ch16_Cf1, 0x01); // 
 681:PCA9959.c     ****             PCA9959_Write_1(Ch17_Cf1, 0x01); //
 682:PCA9959.c     ****             PCA9959_Write_1(Ch18_Cf1, 0x01); //
 683:PCA9959.c     ****             PCA9959_Write_1(Ch19_Cf1, 0x00);
 684:PCA9959.c     ****             PCA9959_Write_1(Ch20_Cf1, 0x00);
 685:PCA9959.c     ****             PCA9959_Write_1(Ch21_Cf1, 0x00);
 686:PCA9959.c     ****             PCA9959_Write_1(Ch22_Cf1, 0x00);
 687:PCA9959.c     ****             PCA9959_Write_1(Ch23_Cf1, 0x00);
 688:PCA9959.c     ****             
 689:PCA9959.c     ****             
 690:PCA9959.c     ****             
 691:PCA9959.c     ****             PCA9959_Write_1(Ch0_Cf2, Brg);    //                   //Preset Current in CH0_CF2 regi
 692:PCA9959.c     ****             PCA9959_Write_1(Ch1_Cf2, Brg);  //
 693:PCA9959.c     ****             PCA9959_Write_1(Ch2_Cf2, Brg);  //
 694:PCA9959.c     ****             PCA9959_Write_1(Ch3_Cf2, Brg); // 
 695:PCA9959.c     ****             PCA9959_Write_1(Ch4_Cf2, Brg); //
 696:PCA9959.c     ****             PCA9959_Write_1(Ch5_Cf2, Brg); //
 697:PCA9959.c     ****             PCA9959_Write_1(Ch6_Cf2, 0x00); 
 698:PCA9959.c     ****             PCA9959_Write_1(Ch7_Cf2, 0x00);
 699:PCA9959.c     ****             PCA9959_Write_1(Ch8_Cf2, Brg);  //
 700:PCA9959.c     ****             PCA9959_Write_1(Ch9_Cf2, 0x00);   
 701:PCA9959.c     ****             PCA9959_Write_1(Ch10_Cf2, 0x00);
 702:PCA9959.c     ****             PCA9959_Write_1(Ch11_Cf2, 0x00);
 703:PCA9959.c     ****             
 704:PCA9959.c     ****             PCA9959_Write_1(Ch12_Cf2, Brg); //
 705:PCA9959.c     ****             PCA9959_Write_1(Ch13_Cf2, 0x00); 
 706:PCA9959.c     ****             PCA9959_Write_1(Ch14_Cf2, 0x00);
 707:PCA9959.c     ****             PCA9959_Write_1(Ch15_Cf2, Brg);  //
 708:PCA9959.c     ****             PCA9959_Write_1(Ch16_Cf2, Brg); //
 709:PCA9959.c     ****             PCA9959_Write_1(Ch17_Cf2, Brg);  //
 710:PCA9959.c     ****             PCA9959_Write_1(Ch18_Cf2, Brg);  //
 711:PCA9959.c     ****             PCA9959_Write_1(Ch19_Cf2, 0x00);
 712:PCA9959.c     ****             PCA9959_Write_1(Ch20_Cf2, 0x00);
 713:PCA9959.c     ****             PCA9959_Write_1(Ch21_Cf2, 0x00);
 714:PCA9959.c     ****             PCA9959_Write_1(Ch22_Cf2, 0x00);
ARM GAS  C:\Users\Revanth\AppData\Local\Temp\ccqs06ys.s 			page 14


 715:PCA9959.c     ****             PCA9959_Write_1(Ch23_Cf2, 0x00);
 716:PCA9959.c     ****             Pin_OE_PCA9959_1_Write(0);
 717:PCA9959.c     ****         }
 718:PCA9959.c     ****         
 719:PCA9959.c     ****         else if(Sel == 8)
 720:PCA9959.c     ****         {
 721:PCA9959.c     ****             Pin_OE_PCA9959_1_Write(1);
 722:PCA9959.c     ****             PageSel_1(ChSel);
 723:PCA9959.c     ****             PCA9959_Write_1(Ch0_Cf1, 0x01);  //                     //LED Channel 0 is assigned to 
 724:PCA9959.c     ****             PCA9959_Write_1(Ch1_Cf1, 0x01); //
 725:PCA9959.c     ****             PCA9959_Write_1(Ch2_Cf1, 0x01); //
 726:PCA9959.c     ****             PCA9959_Write_1(Ch3_Cf1, 0x01); //
 727:PCA9959.c     ****             PCA9959_Write_1(Ch4_Cf1, 0x01); //
 728:PCA9959.c     ****             PCA9959_Write_1(Ch5_Cf1, 0x01); //
 729:PCA9959.c     ****             PCA9959_Write_1(Ch6_Cf1, 0x01);  
 730:PCA9959.c     ****             PCA9959_Write_1(Ch7_Cf1, 0x01); 
 731:PCA9959.c     ****             PCA9959_Write_1(Ch8_Cf1, 0x01); //
 732:PCA9959.c     ****             PCA9959_Write_1(Ch9_Cf1, 0x01);  
 733:PCA9959.c     ****             PCA9959_Write_1(Ch10_Cf1, 0x01); 
 734:PCA9959.c     ****             PCA9959_Write_1(Ch11_Cf1, 0x01);
 735:PCA9959.c     ****             
 736:PCA9959.c     ****             PCA9959_Write_1(Ch12_Cf1, 0x01); //
 737:PCA9959.c     ****             PCA9959_Write_1(Ch13_Cf1, 0x01); 
 738:PCA9959.c     ****             PCA9959_Write_1(Ch14_Cf1, 0x01);
 739:PCA9959.c     ****             PCA9959_Write_1(Ch15_Cf1, 0x01); //
 740:PCA9959.c     ****             PCA9959_Write_1(Ch16_Cf1, 0x01); // 
 741:PCA9959.c     ****             PCA9959_Write_1(Ch17_Cf1, 0x01); //
 742:PCA9959.c     ****             PCA9959_Write_1(Ch18_Cf1, 0x01); //
 743:PCA9959.c     ****             PCA9959_Write_1(Ch19_Cf1, 0x01);
 744:PCA9959.c     ****             PCA9959_Write_1(Ch20_Cf1, 0x01);
 745:PCA9959.c     ****             PCA9959_Write_1(Ch21_Cf1, 0x01);
 746:PCA9959.c     ****             PCA9959_Write_1(Ch22_Cf1, 0x01);
 747:PCA9959.c     ****             PCA9959_Write_1(Ch23_Cf1, 0x01);
 748:PCA9959.c     ****             
 749:PCA9959.c     ****             
 750:PCA9959.c     ****             
 751:PCA9959.c     ****             PCA9959_Write_1(Ch0_Cf2, Brg);    //                   //Preset Current in CH0_CF2 regi
 752:PCA9959.c     ****             PCA9959_Write_1(Ch1_Cf2, Brg);  //
 753:PCA9959.c     ****             PCA9959_Write_1(Ch2_Cf2, Brg);  //
 754:PCA9959.c     ****             PCA9959_Write_1(Ch3_Cf2, Brg); // 
 755:PCA9959.c     ****             PCA9959_Write_1(Ch4_Cf2, Brg); //
 756:PCA9959.c     ****             PCA9959_Write_1(Ch5_Cf2, Brg); //
 757:PCA9959.c     ****             PCA9959_Write_1(Ch6_Cf2, Brg); 
 758:PCA9959.c     ****             PCA9959_Write_1(Ch7_Cf2, Brg);
 759:PCA9959.c     ****             PCA9959_Write_1(Ch8_Cf2, Brg);  //
 760:PCA9959.c     ****             PCA9959_Write_1(Ch9_Cf2, Brg);   
 761:PCA9959.c     ****             PCA9959_Write_1(Ch10_Cf2, Brg);
 762:PCA9959.c     ****             PCA9959_Write_1(Ch11_Cf2, Brg);
 763:PCA9959.c     ****             
 764:PCA9959.c     ****             PCA9959_Write_1(Ch12_Cf2, Brg); //
 765:PCA9959.c     ****             PCA9959_Write_1(Ch13_Cf2, Brg); 
 766:PCA9959.c     ****             PCA9959_Write_1(Ch14_Cf2, Brg);
 767:PCA9959.c     ****             PCA9959_Write_1(Ch15_Cf2, Brg);  //
 768:PCA9959.c     ****             PCA9959_Write_1(Ch16_Cf2, Brg); //
 769:PCA9959.c     ****             PCA9959_Write_1(Ch17_Cf2, Brg);  //
 770:PCA9959.c     ****             PCA9959_Write_1(Ch18_Cf2, Brg);  //
 771:PCA9959.c     ****             PCA9959_Write_1(Ch19_Cf2, Brg);
ARM GAS  C:\Users\Revanth\AppData\Local\Temp\ccqs06ys.s 			page 15


 772:PCA9959.c     ****             PCA9959_Write_1(Ch20_Cf2, Brg);
 773:PCA9959.c     ****             PCA9959_Write_1(Ch21_Cf2, Brg);
 774:PCA9959.c     ****             PCA9959_Write_1(Ch22_Cf2, Brg);
 775:PCA9959.c     ****             PCA9959_Write_1(Ch23_Cf2, Brg);
 776:PCA9959.c     ****             Pin_OE_PCA9959_1_Write(0);
 777:PCA9959.c     ****         }
 778:PCA9959.c     ****             
 779:PCA9959.c     ****         else if(Sel == 9)
 780:PCA9959.c     ****         {
 781:PCA9959.c     ****             Pin_OE_PCA9959_4_Write(1);
 782:PCA9959.c     ****             PageSel_4(ChSel);
 783:PCA9959.c     ****             PCA9959_Write_4(Ch0_Cf1, 0x01);   //                    //LED Channel 0 is assigned to 
 784:PCA9959.c     ****             PCA9959_Write_4(Ch1_Cf1, 0x00);
 785:PCA9959.c     ****             PCA9959_Write_4(Ch2_Cf1, 0x01); //
 786:PCA9959.c     ****             PCA9959_Write_4(Ch3_Cf1, 0x00); 
 787:PCA9959.c     ****             PCA9959_Write_4(Ch4_Cf1, 0x01); //
 788:PCA9959.c     ****             PCA9959_Write_4(Ch5_Cf1, 0x00); 
 789:PCA9959.c     ****             PCA9959_Write_4(Ch6_Cf1, 0x01); //
 790:PCA9959.c     ****             PCA9959_Write_4(Ch7_Cf1, 0x00); 
 791:PCA9959.c     ****             PCA9959_Write_4(Ch8_Cf1, 0x01); //
 792:PCA9959.c     ****             PCA9959_Write_4(Ch9_Cf1, 0x00); 
 793:PCA9959.c     ****             PCA9959_Write_4(Ch10_Cf1, 0x01);  //
 794:PCA9959.c     ****             PCA9959_Write_4(Ch11_Cf1, 0x00);
 795:PCA9959.c     ****             
 796:PCA9959.c     ****             PCA9959_Write_4(Ch12_Cf1, 0x01); //
 797:PCA9959.c     ****             PCA9959_Write_4(Ch13_Cf1, 0x00);
 798:PCA9959.c     ****             PCA9959_Write_4(Ch14_Cf1, 0x01); //
 799:PCA9959.c     ****             PCA9959_Write_4(Ch15_Cf1, 0x00);
 800:PCA9959.c     ****             PCA9959_Write_4(Ch16_Cf1, 0x01); //
 801:PCA9959.c     ****             PCA9959_Write_4(Ch17_Cf1, 0x00);
 802:PCA9959.c     ****             PCA9959_Write_4(Ch18_Cf1, 0x01); //
 803:PCA9959.c     ****             PCA9959_Write_4(Ch19_Cf1, 0x00);
 804:PCA9959.c     ****             PCA9959_Write_4(Ch20_Cf1, 0x01); //
 805:PCA9959.c     ****             PCA9959_Write_4(Ch21_Cf1, 0x00);
 806:PCA9959.c     ****             PCA9959_Write_4(Ch22_Cf1, 0x01); //
 807:PCA9959.c     ****             PCA9959_Write_4(Ch23_Cf1, 0x00);
 808:PCA9959.c     ****             
 809:PCA9959.c     ****             
 810:PCA9959.c     ****             
 811:PCA9959.c     ****             PCA9959_Write_4(Ch0_Cf2, Brg);       //                //Preset Current in CH0_CF2 regi
 812:PCA9959.c     ****             PCA9959_Write_4(Ch1_Cf2, 0x00);
 813:PCA9959.c     ****             PCA9959_Write_4(Ch2_Cf2, Brg); //
 814:PCA9959.c     ****             PCA9959_Write_4(Ch3_Cf2, 0x00);
 815:PCA9959.c     ****             PCA9959_Write_4(Ch4_Cf2, Brg); //
 816:PCA9959.c     ****             PCA9959_Write_4(Ch5_Cf2, 0x00);
 817:PCA9959.c     ****             PCA9959_Write_4(Ch6_Cf2, Brg); //
 818:PCA9959.c     ****             PCA9959_Write_4(Ch7_Cf2, 0x00);
 819:PCA9959.c     ****             PCA9959_Write_4(Ch8_Cf2, Brg); //
 820:PCA9959.c     ****             PCA9959_Write_4(Ch9_Cf2, 0x00);
 821:PCA9959.c     ****             PCA9959_Write_4(Ch10_Cf2, Brg); //
 822:PCA9959.c     ****             PCA9959_Write_4(Ch11_Cf2, 0x00);
 823:PCA9959.c     ****             
 824:PCA9959.c     ****             PCA9959_Write_4(Ch12_Cf2, Brg); //
 825:PCA9959.c     ****             PCA9959_Write_4(Ch13_Cf2, 0x00);
 826:PCA9959.c     ****             PCA9959_Write_4(Ch14_Cf2, Brg); //
 827:PCA9959.c     ****             PCA9959_Write_4(Ch15_Cf2, 0x00);
 828:PCA9959.c     ****             PCA9959_Write_4(Ch16_Cf2, Brg); //
ARM GAS  C:\Users\Revanth\AppData\Local\Temp\ccqs06ys.s 			page 16


 829:PCA9959.c     ****             PCA9959_Write_4(Ch17_Cf2, 0x00);
 830:PCA9959.c     ****             PCA9959_Write_4(Ch18_Cf2, Brg); //
 831:PCA9959.c     ****             PCA9959_Write_4(Ch19_Cf2, 0x00);
 832:PCA9959.c     ****             PCA9959_Write_4(Ch20_Cf2, Brg); //
 833:PCA9959.c     ****             PCA9959_Write_4(Ch21_Cf2, 0x00);
 834:PCA9959.c     ****             PCA9959_Write_4(Ch22_Cf2, Brg); //
 835:PCA9959.c     ****             PCA9959_Write_4(Ch23_Cf2, 0x00);
 836:PCA9959.c     ****             Pin_OE_PCA9959_4_Write(0);
 837:PCA9959.c     ****         }
 838:PCA9959.c     ****         
 839:PCA9959.c     ****         else if(Sel == 10)
 840:PCA9959.c     ****         {
 841:PCA9959.c     ****             Pin_OE_PCA9959_4_Write(1);
 842:PCA9959.c     ****             PageSel_4(ChSel);
 843:PCA9959.c     ****             PCA9959_Write_4(Ch0_Cf1, 0x00);                     //LED Channel 0 is assigned to Grou
 844:PCA9959.c     ****             PCA9959_Write_4(Ch1_Cf1, 0x01); //
 845:PCA9959.c     ****             PCA9959_Write_4(Ch2_Cf1, 0x00); 
 846:PCA9959.c     ****             PCA9959_Write_4(Ch3_Cf1, 0x01); //
 847:PCA9959.c     ****             PCA9959_Write_4(Ch4_Cf1, 0x00); 
 848:PCA9959.c     ****             PCA9959_Write_4(Ch5_Cf1, 0x01); //
 849:PCA9959.c     ****             PCA9959_Write_4(Ch6_Cf1, 0x00); 
 850:PCA9959.c     ****             PCA9959_Write_4(Ch7_Cf1, 0x01); //
 851:PCA9959.c     ****             PCA9959_Write_4(Ch8_Cf1, 0x00); 
 852:PCA9959.c     ****             PCA9959_Write_4(Ch9_Cf1, 0x01); //
 853:PCA9959.c     ****             PCA9959_Write_4(Ch10_Cf1, 0x00);  
 854:PCA9959.c     ****             PCA9959_Write_4(Ch11_Cf1, 0x01); //
 855:PCA9959.c     ****             
 856:PCA9959.c     ****             PCA9959_Write_4(Ch12_Cf1, 0x00);
 857:PCA9959.c     ****             PCA9959_Write_4(Ch13_Cf1, 0x01); //
 858:PCA9959.c     ****             PCA9959_Write_4(Ch14_Cf1, 0x00);
 859:PCA9959.c     ****             PCA9959_Write_4(Ch15_Cf1, 0x01); //
 860:PCA9959.c     ****             PCA9959_Write_4(Ch16_Cf1, 0x00);
 861:PCA9959.c     ****             PCA9959_Write_4(Ch17_Cf1, 0x01); //
 862:PCA9959.c     ****             PCA9959_Write_4(Ch18_Cf1, 0x00);
 863:PCA9959.c     ****             PCA9959_Write_4(Ch19_Cf1, 0x01); //
 864:PCA9959.c     ****             PCA9959_Write_4(Ch20_Cf1, 0x00);
 865:PCA9959.c     ****             PCA9959_Write_4(Ch21_Cf1, 0x01); //
 866:PCA9959.c     ****             PCA9959_Write_4(Ch22_Cf1, 0x00);
 867:PCA9959.c     ****             PCA9959_Write_4(Ch23_Cf1, 0x01); //
 868:PCA9959.c     ****             
 869:PCA9959.c     ****             
 870:PCA9959.c     ****             
 871:PCA9959.c     ****             PCA9959_Write_4(Ch0_Cf2, 0x00);                       //Preset Current in CH0_CF2 regis
 872:PCA9959.c     ****             PCA9959_Write_4(Ch1_Cf2, Brg); //
 873:PCA9959.c     ****             PCA9959_Write_4(Ch2_Cf2, 0x00);
 874:PCA9959.c     ****             PCA9959_Write_4(Ch3_Cf2, Brg); //
 875:PCA9959.c     ****             PCA9959_Write_4(Ch4_Cf2, 0x00); 
 876:PCA9959.c     ****             PCA9959_Write_4(Ch5_Cf2, Brg); //
 877:PCA9959.c     ****             PCA9959_Write_4(Ch6_Cf2, 0x00);
 878:PCA9959.c     ****             PCA9959_Write_4(Ch7_Cf2, Brg); //
 879:PCA9959.c     ****             PCA9959_Write_4(Ch8_Cf2, 0x00);
 880:PCA9959.c     ****             PCA9959_Write_4(Ch9_Cf2, Brg); //
 881:PCA9959.c     ****             PCA9959_Write_4(Ch10_Cf2, 0x00);
 882:PCA9959.c     ****             PCA9959_Write_4(Ch11_Cf2, Brg); //
 883:PCA9959.c     ****             
 884:PCA9959.c     ****             PCA9959_Write_4(Ch12_Cf2, 0x00);
 885:PCA9959.c     ****             PCA9959_Write_4(Ch13_Cf2, Brg); //
ARM GAS  C:\Users\Revanth\AppData\Local\Temp\ccqs06ys.s 			page 17


 886:PCA9959.c     ****             PCA9959_Write_4(Ch14_Cf2, 0x00);
 887:PCA9959.c     ****             PCA9959_Write_4(Ch15_Cf2, Brg); //
 888:PCA9959.c     ****             PCA9959_Write_4(Ch16_Cf2, 0x00);
 889:PCA9959.c     ****             PCA9959_Write_4(Ch17_Cf2, Brg); //
 890:PCA9959.c     ****             PCA9959_Write_4(Ch18_Cf2, 0x00);
 891:PCA9959.c     ****             PCA9959_Write_4(Ch19_Cf2, Brg); //
 892:PCA9959.c     ****             PCA9959_Write_4(Ch20_Cf2, 0x00);
 893:PCA9959.c     ****             PCA9959_Write_4(Ch21_Cf2, Brg); //
 894:PCA9959.c     ****             PCA9959_Write_4(Ch22_Cf2, 0x00);
 895:PCA9959.c     ****             PCA9959_Write_4(Ch23_Cf2, Brg); //
 896:PCA9959.c     ****             Pin_OE_PCA9959_4_Write(0);
 897:PCA9959.c     ****         }
 898:PCA9959.c     ****         
 899:PCA9959.c     ****         else if(Sel == 11)
 900:PCA9959.c     ****         {
 901:PCA9959.c     ****             Pin_OE_PCA9959_4_Write(1);
 902:PCA9959.c     ****             PageSel_4(ChSel);
 903:PCA9959.c     ****             PCA9959_Write_4(Ch0_Cf1, 0x01);                       //LED Channel 0 is assigned to Gr
 904:PCA9959.c     ****             PCA9959_Write_4(Ch1_Cf1, 0x01);
 905:PCA9959.c     ****             PCA9959_Write_4(Ch2_Cf1, 0x01); 
 906:PCA9959.c     ****             PCA9959_Write_4(Ch3_Cf1, 0x01); 
 907:PCA9959.c     ****             
 908:PCA9959.c     ****             
 909:PCA9959.c     ****             PCA9959_Write_4(Ch4_Cf1, 0x01); 
 910:PCA9959.c     ****             PCA9959_Write_4(Ch5_Cf1, 0x01); 
 911:PCA9959.c     ****             PCA9959_Write_4(Ch6_Cf1, 0x01); 
 912:PCA9959.c     ****             PCA9959_Write_4(Ch7_Cf1, 0x01); 
 913:PCA9959.c     ****             PCA9959_Write_4(Ch8_Cf1, 0x01); 
 914:PCA9959.c     ****             PCA9959_Write_4(Ch9_Cf1, 0x01); 
 915:PCA9959.c     ****             PCA9959_Write_4(Ch10_Cf1, 0x01); 
 916:PCA9959.c     ****             PCA9959_Write_4(Ch11_Cf1, 0x01);
 917:PCA9959.c     ****             
 918:PCA9959.c     ****             PCA9959_Write_4(Ch12_Cf1, 0x01);
 919:PCA9959.c     ****             PCA9959_Write_4(Ch13_Cf1, 0x01);
 920:PCA9959.c     ****             PCA9959_Write_4(Ch14_Cf1, 0x01);
 921:PCA9959.c     ****             PCA9959_Write_4(Ch15_Cf1, 0x01);
 922:PCA9959.c     ****             PCA9959_Write_4(Ch16_Cf1, 0x01);
 923:PCA9959.c     ****             PCA9959_Write_4(Ch17_Cf1, 0x01);
 924:PCA9959.c     ****             PCA9959_Write_4(Ch18_Cf1, 0x01);
 925:PCA9959.c     ****             PCA9959_Write_4(Ch19_Cf1, 0x01);
 926:PCA9959.c     ****             PCA9959_Write_4(Ch20_Cf1, 0x01);
 927:PCA9959.c     ****             PCA9959_Write_4(Ch21_Cf1, 0x01);
 928:PCA9959.c     ****             PCA9959_Write_4(Ch22_Cf1, 0x01);
 929:PCA9959.c     ****             PCA9959_Write_4(Ch23_Cf1, 0x01);
 930:PCA9959.c     ****             
 931:PCA9959.c     ****             
 932:PCA9959.c     ****             
 933:PCA9959.c     ****             PCA9959_Write_4(Ch0_Cf2, Brg);                       //Preset Current in CH0_CF2 regist
 934:PCA9959.c     ****             PCA9959_Write_4(Ch1_Cf2, Brg);
 935:PCA9959.c     ****             PCA9959_Write_4(Ch2_Cf2, Brg);
 936:PCA9959.c     ****             PCA9959_Write_4(Ch3_Cf2, Brg);
 937:PCA9959.c     ****             PCA9959_Write_4(Ch4_Cf2, Brg);
 938:PCA9959.c     ****             PCA9959_Write_4(Ch5_Cf2, Brg);
 939:PCA9959.c     ****             PCA9959_Write_4(Ch6_Cf2, Brg);
 940:PCA9959.c     ****             PCA9959_Write_4(Ch7_Cf2, Brg);
 941:PCA9959.c     ****             PCA9959_Write_4(Ch8_Cf2, Brg);
 942:PCA9959.c     ****             PCA9959_Write_4(Ch9_Cf2, Brg);
ARM GAS  C:\Users\Revanth\AppData\Local\Temp\ccqs06ys.s 			page 18


 943:PCA9959.c     ****             PCA9959_Write_4(Ch10_Cf2, Brg);
 944:PCA9959.c     ****             PCA9959_Write_4(Ch11_Cf2, Brg);
 945:PCA9959.c     ****             
 946:PCA9959.c     ****             PCA9959_Write_4(Ch12_Cf2, Brg);
 947:PCA9959.c     ****             PCA9959_Write_4(Ch13_Cf2, Brg);
 948:PCA9959.c     ****             PCA9959_Write_4(Ch14_Cf2, Brg);
 949:PCA9959.c     ****             PCA9959_Write_4(Ch15_Cf2, Brg);
 950:PCA9959.c     ****             PCA9959_Write_4(Ch16_Cf2, Brg);
 951:PCA9959.c     ****             PCA9959_Write_4(Ch17_Cf2, Brg);
 952:PCA9959.c     ****             PCA9959_Write_4(Ch18_Cf2, Brg);
 953:PCA9959.c     ****             PCA9959_Write_4(Ch19_Cf2, Brg);
 954:PCA9959.c     ****             PCA9959_Write_4(Ch20_Cf2, Brg);
 955:PCA9959.c     ****             PCA9959_Write_4(Ch21_Cf2, Brg);
 956:PCA9959.c     ****             PCA9959_Write_4(Ch22_Cf2, Brg);
 957:PCA9959.c     ****             PCA9959_Write_4(Ch23_Cf2, Brg); 
 958:PCA9959.c     ****             CyDelay(100);
 959:PCA9959.c     ****             Pin_OE_PCA9959_4_Write(0);
 960:PCA9959.c     ****         }
 961:PCA9959.c     ****         
 962:PCA9959.c     ****         else if(Sel == 12)
 963:PCA9959.c     ****         {
 964:PCA9959.c     ****             Pin_OE_PCA9959_3_Write(1);
 965:PCA9959.c     ****             PageSel_3(ChSel);
 966:PCA9959.c     ****             PCA9959_Write_3(Ch0_Cf1, 0x01);                       //LED Channel 0 is assigned to Gr
 967:PCA9959.c     ****             PCA9959_Write_3(Ch1_Cf1, 0x01);
 968:PCA9959.c     ****             PCA9959_Write_3(Ch2_Cf1, 0x01); 
 969:PCA9959.c     ****             PCA9959_Write_3(Ch3_Cf1, 0x01); 
 970:PCA9959.c     ****             
 971:PCA9959.c     ****             
 972:PCA9959.c     ****             PCA9959_Write_3(Ch4_Cf1, 0x01); 
 973:PCA9959.c     ****             PCA9959_Write_3(Ch5_Cf1, 0x01); 
 974:PCA9959.c     ****             PCA9959_Write_3(Ch6_Cf1, 0x01); 
 975:PCA9959.c     ****             PCA9959_Write_3(Ch7_Cf1, 0x01); 
 976:PCA9959.c     ****             PCA9959_Write_3(Ch8_Cf1, 0x01); 
 977:PCA9959.c     ****             PCA9959_Write_3(Ch9_Cf1, 0x01); 
 978:PCA9959.c     ****             PCA9959_Write_3(Ch10_Cf1, 0x01); 
 979:PCA9959.c     ****             PCA9959_Write_3(Ch11_Cf1, 0x01);
 980:PCA9959.c     ****             
 981:PCA9959.c     ****             PCA9959_Write_3(Ch12_Cf1, 0x01);
 982:PCA9959.c     ****             PCA9959_Write_3(Ch13_Cf1, 0x01);
 983:PCA9959.c     ****             PCA9959_Write_3(Ch14_Cf1, 0x01);
 984:PCA9959.c     ****             PCA9959_Write_3(Ch15_Cf1, 0x00);
 985:PCA9959.c     ****             PCA9959_Write_3(Ch16_Cf1, 0x00);
 986:PCA9959.c     ****             PCA9959_Write_3(Ch17_Cf1, 0x00);
 987:PCA9959.c     ****             PCA9959_Write_3(Ch18_Cf1, 0x00);
 988:PCA9959.c     ****             PCA9959_Write_3(Ch19_Cf1, 0x00);
 989:PCA9959.c     ****             PCA9959_Write_3(Ch20_Cf1, 0x00);
 990:PCA9959.c     ****             PCA9959_Write_3(Ch21_Cf1, 0x00);
 991:PCA9959.c     ****             PCA9959_Write_3(Ch22_Cf1, 0x00);
 992:PCA9959.c     ****             PCA9959_Write_3(Ch23_Cf1, 0x00);
 993:PCA9959.c     ****             
 994:PCA9959.c     ****             
 995:PCA9959.c     ****             
 996:PCA9959.c     ****             PCA9959_Write_3(Ch0_Cf2, Brg);                       //Preset Current in CH0_CF2 regist
 997:PCA9959.c     ****             PCA9959_Write_3(Ch1_Cf2, Brg);
 998:PCA9959.c     ****             PCA9959_Write_3(Ch2_Cf2, Brg);
 999:PCA9959.c     ****             PCA9959_Write_3(Ch3_Cf2, Brg);
ARM GAS  C:\Users\Revanth\AppData\Local\Temp\ccqs06ys.s 			page 19


1000:PCA9959.c     ****             PCA9959_Write_3(Ch4_Cf2, Brg);
1001:PCA9959.c     ****             PCA9959_Write_3(Ch5_Cf2, Brg);
1002:PCA9959.c     ****             PCA9959_Write_3(Ch6_Cf2, Brg);
1003:PCA9959.c     ****             PCA9959_Write_3(Ch7_Cf2, Brg);
1004:PCA9959.c     ****             PCA9959_Write_3(Ch8_Cf2, Brg);
1005:PCA9959.c     ****             PCA9959_Write_3(Ch9_Cf2, Brg);
1006:PCA9959.c     ****             PCA9959_Write_3(Ch10_Cf2, Brg);
1007:PCA9959.c     ****             PCA9959_Write_3(Ch11_Cf2, Brg);
1008:PCA9959.c     ****             
1009:PCA9959.c     ****             PCA9959_Write_3(Ch12_Cf2, Brg);
1010:PCA9959.c     ****             PCA9959_Write_3(Ch13_Cf2, Brg);
1011:PCA9959.c     ****             PCA9959_Write_3(Ch14_Cf2, Brg);
1012:PCA9959.c     ****             PCA9959_Write_3(Ch15_Cf2, 0x00);
1013:PCA9959.c     ****             PCA9959_Write_3(Ch16_Cf2, 0x00);
1014:PCA9959.c     ****             PCA9959_Write_3(Ch17_Cf2, 0x00);
1015:PCA9959.c     ****             PCA9959_Write_3(Ch18_Cf2, 0x00);
1016:PCA9959.c     ****             PCA9959_Write_3(Ch19_Cf2, 0x00);
1017:PCA9959.c     ****             PCA9959_Write_3(Ch20_Cf2, 0x00);
1018:PCA9959.c     ****             PCA9959_Write_3(Ch21_Cf2, 0x00);
1019:PCA9959.c     ****             PCA9959_Write_3(Ch22_Cf2, 0x00);
1020:PCA9959.c     ****             PCA9959_Write_3(Ch23_Cf2, 0x00); 
1021:PCA9959.c     ****             //CyDelay(50);
1022:PCA9959.c     ****             Pin_OE_PCA9959_3_Write(0);
1023:PCA9959.c     ****             
1024:PCA9959.c     ****             Pin_OE_PCA9959_2_Write(1);
1025:PCA9959.c     ****             PageSel_2(ChSel);
1026:PCA9959.c     ****             PCA9959_Write_2(Ch0_Cf1, 0x01);                       //LED Channel 0 is assigned to Gr
1027:PCA9959.c     ****             PCA9959_Write_2(Ch1_Cf1, 0x01);
1028:PCA9959.c     ****             PCA9959_Write_2(Ch2_Cf1, 0x01); 
1029:PCA9959.c     ****             PCA9959_Write_2(Ch3_Cf1, 0x01); 
1030:PCA9959.c     ****             
1031:PCA9959.c     ****             
1032:PCA9959.c     ****             PCA9959_Write_2(Ch4_Cf1, 0x01); 
1033:PCA9959.c     ****             PCA9959_Write_2(Ch5_Cf1, 0x01); 
1034:PCA9959.c     ****             PCA9959_Write_2(Ch6_Cf1, 0x01); 
1035:PCA9959.c     ****             PCA9959_Write_2(Ch7_Cf1, 0x01); 
1036:PCA9959.c     ****             PCA9959_Write_2(Ch8_Cf1, 0x01); 
1037:PCA9959.c     ****             PCA9959_Write_2(Ch9_Cf1, 0x01); 
1038:PCA9959.c     ****             PCA9959_Write_2(Ch10_Cf1, 0x01); 
1039:PCA9959.c     ****             PCA9959_Write_2(Ch11_Cf1, 0x01);
1040:PCA9959.c     ****             
1041:PCA9959.c     ****             PCA9959_Write_2(Ch12_Cf1, 0x01);
1042:PCA9959.c     ****             PCA9959_Write_2(Ch13_Cf1, 0x01);
1043:PCA9959.c     ****             PCA9959_Write_2(Ch14_Cf1, 0x01);
1044:PCA9959.c     ****             PCA9959_Write_2(Ch15_Cf1, 0x00);
1045:PCA9959.c     ****             PCA9959_Write_2(Ch16_Cf1, 0x00);
1046:PCA9959.c     ****             PCA9959_Write_2(Ch17_Cf1, 0x00);
1047:PCA9959.c     ****             PCA9959_Write_2(Ch18_Cf1, 0x00);
1048:PCA9959.c     ****             PCA9959_Write_2(Ch19_Cf1, 0x00);
1049:PCA9959.c     ****             PCA9959_Write_2(Ch20_Cf1, 0x00);
1050:PCA9959.c     ****             PCA9959_Write_2(Ch21_Cf1, 0x00);
1051:PCA9959.c     ****             PCA9959_Write_2(Ch22_Cf1, 0x00);
1052:PCA9959.c     ****             PCA9959_Write_2(Ch23_Cf1, 0x00);
1053:PCA9959.c     ****             
1054:PCA9959.c     ****             
1055:PCA9959.c     ****             
1056:PCA9959.c     ****             PCA9959_Write_2(Ch0_Cf2, Brg);                       //Preset Current in CH0_CF2 regist
ARM GAS  C:\Users\Revanth\AppData\Local\Temp\ccqs06ys.s 			page 20


1057:PCA9959.c     ****             PCA9959_Write_2(Ch1_Cf2, Brg);
1058:PCA9959.c     ****             PCA9959_Write_2(Ch2_Cf2, Brg);
1059:PCA9959.c     ****             PCA9959_Write_2(Ch3_Cf2, Brg);
1060:PCA9959.c     ****             PCA9959_Write_2(Ch4_Cf2, Brg);
1061:PCA9959.c     ****             PCA9959_Write_2(Ch5_Cf2, Brg);
1062:PCA9959.c     ****             PCA9959_Write_2(Ch6_Cf2, Brg);
1063:PCA9959.c     ****             PCA9959_Write_2(Ch7_Cf2, Brg);
1064:PCA9959.c     ****             PCA9959_Write_2(Ch8_Cf2, Brg);
1065:PCA9959.c     ****             PCA9959_Write_2(Ch9_Cf2, Brg);
1066:PCA9959.c     ****             PCA9959_Write_2(Ch10_Cf2, Brg);
1067:PCA9959.c     ****             PCA9959_Write_2(Ch11_Cf2, Brg);
1068:PCA9959.c     ****             
1069:PCA9959.c     ****             PCA9959_Write_2(Ch12_Cf2, Brg);
1070:PCA9959.c     ****             PCA9959_Write_2(Ch13_Cf2, Brg);
1071:PCA9959.c     ****             PCA9959_Write_2(Ch14_Cf2, Brg);
1072:PCA9959.c     ****             PCA9959_Write_2(Ch15_Cf2, 0x00);
1073:PCA9959.c     ****             PCA9959_Write_2(Ch16_Cf2, 0x00);
1074:PCA9959.c     ****             PCA9959_Write_2(Ch17_Cf2, 0x00);
1075:PCA9959.c     ****             PCA9959_Write_2(Ch18_Cf2, 0x00);
1076:PCA9959.c     ****             PCA9959_Write_2(Ch19_Cf2, 0x00);
1077:PCA9959.c     ****             PCA9959_Write_2(Ch20_Cf2, 0x00);
1078:PCA9959.c     ****             PCA9959_Write_2(Ch21_Cf2, 0x00);
1079:PCA9959.c     ****             PCA9959_Write_2(Ch22_Cf2, 0x00);
1080:PCA9959.c     ****             PCA9959_Write_2(Ch23_Cf2, 0x00); 
1081:PCA9959.c     ****             
1082:PCA9959.c     ****             Pin_OE_PCA9959_2_Write(0);
1083:PCA9959.c     ****         }
1084:PCA9959.c     ****         
1085:PCA9959.c     ****         else
1086:PCA9959.c     ****         {
1087:PCA9959.c     ****             
1088:PCA9959.c     ****             PCA9959_clear();
1089:PCA9959.c     ****         }
1090:PCA9959.c     ****     }
1091:PCA9959.c     **** }
1092:PCA9959.c     **** 
1093:PCA9959.c     **** 
1094:PCA9959.c     **** 
1095:PCA9959.c     **** void PCA9959_clear(void)
1096:PCA9959.c     **** {
1097:PCA9959.c     ****     Pin_SS_PCA9959_Write(1);
1098:PCA9959.c     ****     Pin_OE_PCA9959_1_Write(1);
1099:PCA9959.c     ****     PageSel_1(ChSel);
1100:PCA9959.c     ****     PCA9959_Write_1(Ch0_Cf1, 0x00);                       
1101:PCA9959.c     ****     PCA9959_Write_1(Ch1_Cf1, 0x00);
1102:PCA9959.c     ****     PCA9959_Write_1(Ch2_Cf1, 0x00); 
1103:PCA9959.c     ****     PCA9959_Write_1(Ch3_Cf1, 0x00); 
1104:PCA9959.c     ****     PCA9959_Write_1(Ch4_Cf1, 0x00); 
1105:PCA9959.c     ****     PCA9959_Write_1(Ch5_Cf1, 0x00); 
1106:PCA9959.c     ****     PCA9959_Write_1(Ch6_Cf1, 0x00); 
1107:PCA9959.c     ****     PCA9959_Write_1(Ch7_Cf1, 0x00); 
1108:PCA9959.c     ****     PCA9959_Write_1(Ch8_Cf1, 0x00); 
1109:PCA9959.c     ****     PCA9959_Write_1(Ch9_Cf1, 0x00); 
1110:PCA9959.c     ****     PCA9959_Write_1(Ch10_Cf1, 0x00); 
1111:PCA9959.c     ****     PCA9959_Write_1(Ch11_Cf1, 0x00);
1112:PCA9959.c     ****     
1113:PCA9959.c     ****     PCA9959_Write_1(Ch12_Cf1, 0x00);
ARM GAS  C:\Users\Revanth\AppData\Local\Temp\ccqs06ys.s 			page 21


1114:PCA9959.c     ****     PCA9959_Write_1(Ch13_Cf1, 0x00);
1115:PCA9959.c     ****     PCA9959_Write_1(Ch14_Cf1, 0x00);
1116:PCA9959.c     ****     PCA9959_Write_1(Ch15_Cf1, 0x00);
1117:PCA9959.c     ****     PCA9959_Write_1(Ch16_Cf1, 0x00);
1118:PCA9959.c     ****     PCA9959_Write_1(Ch17_Cf1, 0x00);
1119:PCA9959.c     ****     PCA9959_Write_1(Ch18_Cf1, 0x00);
1120:PCA9959.c     ****     PCA9959_Write_1(Ch19_Cf1, 0x00);
1121:PCA9959.c     ****     PCA9959_Write_1(Ch20_Cf1, 0x00);
1122:PCA9959.c     ****     PCA9959_Write_1(Ch21_Cf1, 0x00);
1123:PCA9959.c     ****     PCA9959_Write_1(Ch22_Cf1, 0x00);
1124:PCA9959.c     ****     PCA9959_Write_1(Ch23_Cf1, 0x00);
1125:PCA9959.c     ****     
1126:PCA9959.c     ****     
1127:PCA9959.c     ****     
1128:PCA9959.c     ****     PCA9959_Write_1(Ch0_Cf2, 0x00);                       
1129:PCA9959.c     ****     PCA9959_Write_1(Ch1_Cf2, 0x00);
1130:PCA9959.c     ****     PCA9959_Write_1(Ch2_Cf2, 0x00);
1131:PCA9959.c     ****     PCA9959_Write_1(Ch3_Cf2, 0x00);
1132:PCA9959.c     ****     PCA9959_Write_1(Ch4_Cf2, 0x00);
1133:PCA9959.c     ****     PCA9959_Write_1(Ch5_Cf2, 0x00);
1134:PCA9959.c     ****     PCA9959_Write_1(Ch6_Cf2, 0x00);
1135:PCA9959.c     ****     PCA9959_Write_1(Ch7_Cf2, 0x00);
1136:PCA9959.c     ****     PCA9959_Write_1(Ch8_Cf2, 0x00);
1137:PCA9959.c     ****     PCA9959_Write_1(Ch9_Cf2, 0x00);
1138:PCA9959.c     ****     PCA9959_Write_1(Ch10_Cf2, 0x00);
1139:PCA9959.c     ****     PCA9959_Write_1(Ch11_Cf2, 0x00);
1140:PCA9959.c     ****     
1141:PCA9959.c     ****     PCA9959_Write_1(Ch12_Cf2, 0x00);
1142:PCA9959.c     ****     PCA9959_Write_1(Ch13_Cf2, 0x00);
1143:PCA9959.c     ****     PCA9959_Write_1(Ch14_Cf2, 0x00);
1144:PCA9959.c     ****     PCA9959_Write_1(Ch15_Cf2, 0x00);
1145:PCA9959.c     ****     PCA9959_Write_1(Ch16_Cf2, 0x00);
1146:PCA9959.c     ****     PCA9959_Write_1(Ch17_Cf2, 0x00);
1147:PCA9959.c     ****     PCA9959_Write_1(Ch18_Cf2, 0x00);
1148:PCA9959.c     ****     PCA9959_Write_1(Ch19_Cf2, 0x00);
1149:PCA9959.c     ****     PCA9959_Write_1(Ch20_Cf2, 0x00);
1150:PCA9959.c     ****     PCA9959_Write_1(Ch21_Cf2, 0x00);
1151:PCA9959.c     ****     PCA9959_Write_1(Ch22_Cf2, 0x00);
1152:PCA9959.c     ****     PCA9959_Write_1(Ch23_Cf2, 0x00);
1153:PCA9959.c     ****     Pin_OE_PCA9959_1_Write(1);
1154:PCA9959.c     ****     
1155:PCA9959.c     ****     Pin_OE_PCA9959_2_Write(1);
1156:PCA9959.c     ****     PageSel_2(ChSel);
1157:PCA9959.c     ****     PCA9959_Write_2(Ch0_Cf1, 0x00);                       
1158:PCA9959.c     ****     PCA9959_Write_2(Ch1_Cf1, 0x00);
1159:PCA9959.c     ****     PCA9959_Write_2(Ch2_Cf1, 0x00); 
1160:PCA9959.c     ****     PCA9959_Write_2(Ch3_Cf1, 0x00); 
1161:PCA9959.c     ****     PCA9959_Write_2(Ch4_Cf1, 0x00); 
1162:PCA9959.c     ****     PCA9959_Write_2(Ch5_Cf1, 0x00); 
1163:PCA9959.c     ****     PCA9959_Write_2(Ch6_Cf1, 0x00); 
1164:PCA9959.c     ****     PCA9959_Write_2(Ch7_Cf1, 0x00); 
1165:PCA9959.c     ****     PCA9959_Write_2(Ch8_Cf1, 0x00); 
1166:PCA9959.c     ****     PCA9959_Write_2(Ch9_Cf1, 0x00); 
1167:PCA9959.c     ****     PCA9959_Write_2(Ch10_Cf1, 0x00);  
1168:PCA9959.c     ****     PCA9959_Write_2(Ch11_Cf1, 0x00);
1169:PCA9959.c     ****     
1170:PCA9959.c     ****     PCA9959_Write_2(Ch12_Cf1, 0x00);
ARM GAS  C:\Users\Revanth\AppData\Local\Temp\ccqs06ys.s 			page 22


1171:PCA9959.c     ****     PCA9959_Write_2(Ch13_Cf1, 0x00);
1172:PCA9959.c     ****     PCA9959_Write_2(Ch14_Cf1, 0x00);
1173:PCA9959.c     ****     PCA9959_Write_2(Ch15_Cf1, 0x00);
1174:PCA9959.c     ****     PCA9959_Write_2(Ch16_Cf1, 0x00);
1175:PCA9959.c     ****     PCA9959_Write_2(Ch17_Cf1, 0x00);
1176:PCA9959.c     ****     PCA9959_Write_2(Ch18_Cf1, 0x00);
1177:PCA9959.c     ****     PCA9959_Write_2(Ch19_Cf1, 0x00);
1178:PCA9959.c     ****     PCA9959_Write_2(Ch20_Cf1, 0x00);
1179:PCA9959.c     ****     PCA9959_Write_2(Ch21_Cf1, 0x00);
1180:PCA9959.c     ****     PCA9959_Write_2(Ch22_Cf1, 0x00);
1181:PCA9959.c     ****     PCA9959_Write_2(Ch23_Cf1, 0x00);
1182:PCA9959.c     ****     
1183:PCA9959.c     ****     
1184:PCA9959.c     ****     
1185:PCA9959.c     ****     PCA9959_Write_2(Ch0_Cf2, 0x00);                       
1186:PCA9959.c     ****     PCA9959_Write_2(Ch1_Cf2, 0x00);
1187:PCA9959.c     ****     PCA9959_Write_2(Ch2_Cf2, 0x00);
1188:PCA9959.c     ****     PCA9959_Write_2(Ch3_Cf2, 0x00);
1189:PCA9959.c     ****     PCA9959_Write_2(Ch4_Cf2, 0x00);
1190:PCA9959.c     ****     PCA9959_Write_2(Ch5_Cf2, 0x00);
1191:PCA9959.c     ****     PCA9959_Write_2(Ch6_Cf2, 0x00);
1192:PCA9959.c     ****     PCA9959_Write_2(Ch7_Cf2, 0x00);
1193:PCA9959.c     ****     PCA9959_Write_2(Ch8_Cf2, 0x00);
1194:PCA9959.c     ****     PCA9959_Write_2(Ch9_Cf2, 0x00);
1195:PCA9959.c     ****     PCA9959_Write_2(Ch10_Cf2, 0x00);
1196:PCA9959.c     ****     PCA9959_Write_2(Ch11_Cf2, 0x00);
1197:PCA9959.c     ****     
1198:PCA9959.c     ****     PCA9959_Write_2(Ch12_Cf2, 0x00);
1199:PCA9959.c     ****     PCA9959_Write_2(Ch13_Cf2, 0x00);
1200:PCA9959.c     ****     PCA9959_Write_2(Ch14_Cf2, 0x00);
1201:PCA9959.c     ****     PCA9959_Write_2(Ch15_Cf2, 0x00);
1202:PCA9959.c     ****     PCA9959_Write_2(Ch16_Cf2, 0x00);
1203:PCA9959.c     ****     PCA9959_Write_2(Ch17_Cf2, 0x00);
1204:PCA9959.c     ****     PCA9959_Write_2(Ch18_Cf2, 0x00);
1205:PCA9959.c     ****     PCA9959_Write_2(Ch19_Cf2, 0x00);
1206:PCA9959.c     ****     PCA9959_Write_2(Ch20_Cf2, 0x00);
1207:PCA9959.c     ****     PCA9959_Write_2(Ch21_Cf2, 0x00);
1208:PCA9959.c     ****     PCA9959_Write_2(Ch22_Cf2, 0x00);
1209:PCA9959.c     ****     PCA9959_Write_2(Ch23_Cf2, 0x00);
1210:PCA9959.c     ****     Pin_OE_PCA9959_2_Write(1);
1211:PCA9959.c     ****     
1212:PCA9959.c     ****     Pin_OE_PCA9959_3_Write(1);
1213:PCA9959.c     ****     PageSel_3(ChSel);
1214:PCA9959.c     ****     PCA9959_Write_3(Ch0_Cf1, 0x00);                       
1215:PCA9959.c     ****     PCA9959_Write_3(Ch1_Cf1, 0x00);
1216:PCA9959.c     ****     PCA9959_Write_3(Ch2_Cf1, 0x00); 
1217:PCA9959.c     ****     PCA9959_Write_3(Ch3_Cf1, 0x00); 
1218:PCA9959.c     ****     PCA9959_Write_3(Ch4_Cf1, 0x00); 
1219:PCA9959.c     ****     PCA9959_Write_3(Ch5_Cf1, 0x00); 
1220:PCA9959.c     ****     PCA9959_Write_3(Ch6_Cf1, 0x00); 
1221:PCA9959.c     ****     PCA9959_Write_3(Ch7_Cf1, 0x00); 
1222:PCA9959.c     ****     PCA9959_Write_3(Ch8_Cf1, 0x00); 
1223:PCA9959.c     ****     PCA9959_Write_3(Ch9_Cf1, 0x00); 
1224:PCA9959.c     ****     PCA9959_Write_3(Ch10_Cf1, 0x00); 
1225:PCA9959.c     ****     PCA9959_Write_3(Ch11_Cf1, 0x00);
1226:PCA9959.c     ****     
1227:PCA9959.c     ****     PCA9959_Write_3(Ch12_Cf1, 0x00);
ARM GAS  C:\Users\Revanth\AppData\Local\Temp\ccqs06ys.s 			page 23


1228:PCA9959.c     ****     PCA9959_Write_3(Ch13_Cf1, 0x00);
1229:PCA9959.c     ****     PCA9959_Write_3(Ch14_Cf1, 0x00);
1230:PCA9959.c     ****     PCA9959_Write_3(Ch15_Cf1, 0x00);
1231:PCA9959.c     ****     PCA9959_Write_3(Ch16_Cf1, 0x00);
1232:PCA9959.c     ****     PCA9959_Write_3(Ch17_Cf1, 0x00);
1233:PCA9959.c     ****     PCA9959_Write_3(Ch18_Cf1, 0x00);
1234:PCA9959.c     ****     PCA9959_Write_3(Ch19_Cf1, 0x00);
1235:PCA9959.c     ****     PCA9959_Write_3(Ch20_Cf1, 0x00);
1236:PCA9959.c     ****     PCA9959_Write_3(Ch21_Cf1, 0x00);
1237:PCA9959.c     ****     PCA9959_Write_3(Ch22_Cf1, 0x00);
1238:PCA9959.c     ****     PCA9959_Write_3(Ch23_Cf1, 0x00);
1239:PCA9959.c     ****     
1240:PCA9959.c     ****     
1241:PCA9959.c     ****     
1242:PCA9959.c     ****     PCA9959_Write_3(Ch0_Cf2, 0x00);                      
1243:PCA9959.c     ****     PCA9959_Write_3(Ch1_Cf2, 0x00);
1244:PCA9959.c     ****     PCA9959_Write_3(Ch2_Cf2, 0x00);
1245:PCA9959.c     ****     PCA9959_Write_3(Ch3_Cf2, 0x00);
1246:PCA9959.c     ****     PCA9959_Write_3(Ch4_Cf2, 0x00);
1247:PCA9959.c     ****     PCA9959_Write_3(Ch5_Cf2, 0x00);
1248:PCA9959.c     ****     PCA9959_Write_3(Ch6_Cf2, 0x00);
1249:PCA9959.c     ****     PCA9959_Write_3(Ch7_Cf2, 0x00);
1250:PCA9959.c     ****     PCA9959_Write_3(Ch8_Cf2, 0x00);
1251:PCA9959.c     ****     PCA9959_Write_3(Ch9_Cf2, 0x00);
1252:PCA9959.c     ****     PCA9959_Write_3(Ch10_Cf2, 0x00);
1253:PCA9959.c     ****     PCA9959_Write_3(Ch11_Cf2, 0x00);
1254:PCA9959.c     ****     
1255:PCA9959.c     ****     PCA9959_Write_3(Ch12_Cf2, 0x00);
1256:PCA9959.c     ****     PCA9959_Write_3(Ch13_Cf2, 0x00);
1257:PCA9959.c     ****     PCA9959_Write_3(Ch14_Cf2, 0x00);
1258:PCA9959.c     ****     PCA9959_Write_3(Ch15_Cf2, 0x00);
1259:PCA9959.c     ****     PCA9959_Write_3(Ch16_Cf2, 0x00);
1260:PCA9959.c     ****     PCA9959_Write_3(Ch17_Cf2, 0x00);
1261:PCA9959.c     ****     PCA9959_Write_3(Ch18_Cf2, 0x00);
1262:PCA9959.c     ****     PCA9959_Write_3(Ch19_Cf2, 0x00);
1263:PCA9959.c     ****     PCA9959_Write_3(Ch20_Cf2, 0x00);
1264:PCA9959.c     ****     PCA9959_Write_3(Ch21_Cf2, 0x00);
1265:PCA9959.c     ****     PCA9959_Write_3(Ch22_Cf2, 0x00);
1266:PCA9959.c     ****     PCA9959_Write_3(Ch23_Cf2, 0x00);
1267:PCA9959.c     ****     Pin_OE_PCA9959_3_Write(1);
1268:PCA9959.c     ****     
1269:PCA9959.c     ****     Pin_OE_PCA9959_4_Write(1);
1270:PCA9959.c     ****     PageSel_4(ChSel);
1271:PCA9959.c     ****     PCA9959_Write_4(Ch0_Cf1, 0x00);                    
1272:PCA9959.c     ****     PCA9959_Write_4(Ch1_Cf1, 0x00);
1273:PCA9959.c     ****     PCA9959_Write_4(Ch2_Cf1, 0x00); 
1274:PCA9959.c     ****     PCA9959_Write_4(Ch3_Cf1, 0x00); 
1275:PCA9959.c     ****     PCA9959_Write_4(Ch4_Cf1, 0x00); 
1276:PCA9959.c     ****     PCA9959_Write_4(Ch5_Cf1, 0x00); 
1277:PCA9959.c     ****     PCA9959_Write_4(Ch6_Cf1, 0x00); 
1278:PCA9959.c     ****     PCA9959_Write_4(Ch7_Cf1, 0x00); 
1279:PCA9959.c     ****     PCA9959_Write_4(Ch8_Cf1, 0x00); 
1280:PCA9959.c     ****     PCA9959_Write_4(Ch9_Cf1, 0x00); 
1281:PCA9959.c     ****     PCA9959_Write_4(Ch10_Cf1, 0x00); 
1282:PCA9959.c     ****     PCA9959_Write_4(Ch11_Cf1, 0x00);
1283:PCA9959.c     ****     
1284:PCA9959.c     ****     PCA9959_Write_4(Ch12_Cf1, 0x00);
ARM GAS  C:\Users\Revanth\AppData\Local\Temp\ccqs06ys.s 			page 24


1285:PCA9959.c     ****     PCA9959_Write_4(Ch13_Cf1, 0x00);
1286:PCA9959.c     ****     PCA9959_Write_4(Ch14_Cf1, 0x00);
1287:PCA9959.c     ****     PCA9959_Write_4(Ch15_Cf1, 0x00);
1288:PCA9959.c     ****     PCA9959_Write_4(Ch16_Cf1, 0x00);
1289:PCA9959.c     ****     PCA9959_Write_4(Ch17_Cf1, 0x00);
1290:PCA9959.c     ****     PCA9959_Write_4(Ch18_Cf1, 0x00);
1291:PCA9959.c     ****     PCA9959_Write_4(Ch19_Cf1, 0x00);
1292:PCA9959.c     ****     PCA9959_Write_4(Ch20_Cf1, 0x00);
1293:PCA9959.c     ****     PCA9959_Write_4(Ch21_Cf1, 0x00);
1294:PCA9959.c     ****     PCA9959_Write_4(Ch22_Cf1, 0x00);
1295:PCA9959.c     ****     PCA9959_Write_4(Ch23_Cf1, 0x00);
1296:PCA9959.c     ****     
1297:PCA9959.c     ****     
1298:PCA9959.c     ****     
1299:PCA9959.c     ****     PCA9959_Write_4(Ch0_Cf2, 0x00);                       
1300:PCA9959.c     ****     PCA9959_Write_4(Ch1_Cf2, 0x00);
1301:PCA9959.c     ****     PCA9959_Write_4(Ch2_Cf2, 0x00);
1302:PCA9959.c     ****     PCA9959_Write_4(Ch3_Cf2, 0x00);
1303:PCA9959.c     ****     PCA9959_Write_4(Ch4_Cf2, 0x00);
1304:PCA9959.c     ****     PCA9959_Write_4(Ch5_Cf2, 0x00);
1305:PCA9959.c     ****     PCA9959_Write_4(Ch6_Cf2, 0x00);
1306:PCA9959.c     ****     PCA9959_Write_4(Ch7_Cf2, 0x00);
1307:PCA9959.c     ****     PCA9959_Write_4(Ch8_Cf2, 0x00);
1308:PCA9959.c     ****     PCA9959_Write_4(Ch9_Cf2, 0x00);
1309:PCA9959.c     ****     PCA9959_Write_4(Ch10_Cf2, 0x00);
1310:PCA9959.c     ****     PCA9959_Write_4(Ch11_Cf2, 0x00);
1311:PCA9959.c     ****     
1312:PCA9959.c     ****     PCA9959_Write_4(Ch12_Cf2, 0x00);
1313:PCA9959.c     ****     PCA9959_Write_4(Ch13_Cf2, 0x00);
1314:PCA9959.c     ****     PCA9959_Write_4(Ch14_Cf2, 0x00);
1315:PCA9959.c     ****     PCA9959_Write_4(Ch15_Cf2, 0x00);
1316:PCA9959.c     ****     PCA9959_Write_4(Ch16_Cf2, 0x00);
1317:PCA9959.c     ****     PCA9959_Write_4(Ch17_Cf2, 0x00);
1318:PCA9959.c     ****     PCA9959_Write_4(Ch18_Cf2, 0x00);
1319:PCA9959.c     ****     PCA9959_Write_4(Ch19_Cf2, 0x00);
1320:PCA9959.c     ****     PCA9959_Write_4(Ch20_Cf2, 0x00);
1321:PCA9959.c     ****     PCA9959_Write_4(Ch21_Cf2, 0x00);
1322:PCA9959.c     ****     PCA9959_Write_4(Ch22_Cf2, 0x00);
1323:PCA9959.c     ****     PCA9959_Write_4(Ch23_Cf2, 0x00);
1324:PCA9959.c     ****     Pin_OE_PCA9959_4_Write(0);
1325:PCA9959.c     ****     
1326:PCA9959.c     **** }
1327:PCA9959.c     **** 
1328:PCA9959.c     **** void PCA9959_dummy(void)
1329:PCA9959.c     **** {
  28              		.loc 1 1329 0
  29              		.cfi_startproc
  30              		@ args = 0, pretend = 0, frame = 0
  31              		@ frame_needed = 0, uses_anonymous_args = 0
  32 0000 10B5     		push	{r4, lr}
  33              		.cfi_def_cfa_offset 8
  34              		.cfi_offset 4, -8
  35              		.cfi_offset 14, -4
  36              	.LVL0:
1330:PCA9959.c     ****     uint8_t i=0;
1331:PCA9959.c     ****     for(i=16;i>0;i--)
  37              		.loc 1 1331 0
ARM GAS  C:\Users\Revanth\AppData\Local\Temp\ccqs06ys.s 			page 25


  38 0002 1024     		movs	r4, #16
  39 0004 10E0     		b	.L2
  40              	.LVL1:
  41              	.L3:
1332:PCA9959.c     ****     {
1333:PCA9959.c     ****       Pin_MOSI_PCA9959_Write((uint8)(((Side_Ctl << 1) | 1) << 8) | 0x00);
  42              		.loc 1 1333 0 discriminator 3
  43 0006 0020     		movs	r0, #0
  44 0008 FFF7FEFF 		bl	Pin_MOSI_PCA9959_Write
  45              	.LVL2:
1334:PCA9959.c     ****       Pin_SCK_PCA9959_Write(0);
  46              		.loc 1 1334 0 discriminator 3
  47 000c 0020     		movs	r0, #0
  48 000e FFF7FEFF 		bl	Pin_SCK_PCA9959_Write
  49              	.LVL3:
1335:PCA9959.c     ****       CyDelayUs(1);
  50              		.loc 1 1335 0 discriminator 3
  51 0012 0120     		movs	r0, #1
  52 0014 FFF7FEFF 		bl	CyDelayUs
  53              	.LVL4:
1336:PCA9959.c     ****       Pin_SCK_PCA9959_Write(1);
  54              		.loc 1 1336 0 discriminator 3
  55 0018 0120     		movs	r0, #1
  56 001a FFF7FEFF 		bl	Pin_SCK_PCA9959_Write
  57              	.LVL5:
1337:PCA9959.c     ****       CyDelayUs(1);
  58              		.loc 1 1337 0 discriminator 3
  59 001e 0120     		movs	r0, #1
  60 0020 FFF7FEFF 		bl	CyDelayUs
  61              	.LVL6:
1331:PCA9959.c     ****     {
  62              		.loc 1 1331 0 discriminator 3
  63 0024 013C     		subs	r4, r4, #1
  64              	.LVL7:
  65 0026 E4B2     		uxtb	r4, r4
  66              	.LVL8:
  67              	.L2:
1331:PCA9959.c     ****     {
  68              		.loc 1 1331 0 is_stmt 0 discriminator 1
  69 0028 002C     		cmp	r4, #0
  70 002a ECD1     		bne	.L3
1338:PCA9959.c     ****     } 
1339:PCA9959.c     **** }
  71              		.loc 1 1339 0 is_stmt 1
  72 002c 10BD     		pop	{r4, pc}
  73              		.cfi_endproc
  74              	.LFE82:
  75              		.size	PCA9959_dummy, .-PCA9959_dummy
  76 002e 00BF     		.section	.text.PCA_16Bit_TxOp_1,"ax",%progbits
  77              		.align	2
  78              		.global	PCA_16Bit_TxOp_1
  79              		.thumb
  80              		.thumb_func
  81              		.type	PCA_16Bit_TxOp_1, %function
  82              	PCA_16Bit_TxOp_1:
  83              	.LFB76:
 188:PCA9959.c     ****     uint8_t i=0;
ARM GAS  C:\Users\Revanth\AppData\Local\Temp\ccqs06ys.s 			page 26


  84              		.loc 1 188 0
  85              		.cfi_startproc
  86              		@ args = 0, pretend = 0, frame = 0
  87              		@ frame_needed = 0, uses_anonymous_args = 0
  88              	.LVL9:
  89 0000 38B5     		push	{r3, r4, r5, lr}
  90              		.cfi_def_cfa_offset 16
  91              		.cfi_offset 3, -16
  92              		.cfi_offset 4, -12
  93              		.cfi_offset 5, -8
  94              		.cfi_offset 14, -4
  95 0002 0546     		mov	r5, r0
  96              	.LVL10:
 190:PCA9959.c     ****     Pin_SS_PCA9959_Write(0);
  97              		.loc 1 190 0
  98 0004 0020     		movs	r0, #0
  99              	.LVL11:
 100 0006 FFF7FEFF 		bl	Pin_SCK_PCA9959_Write
 101              	.LVL12:
 191:PCA9959.c     ****     CyDelayUs(1);
 102              		.loc 1 191 0
 103 000a 0020     		movs	r0, #0
 104 000c FFF7FEFF 		bl	Pin_SS_PCA9959_Write
 105              	.LVL13:
 192:PCA9959.c     ****     
 106              		.loc 1 192 0
 107 0010 0120     		movs	r0, #1
 108 0012 FFF7FEFF 		bl	CyDelayUs
 109              	.LVL14:
 194:PCA9959.c     ****     
 110              		.loc 1 194 0
 111 0016 FFF7FEFF 		bl	PCA9959_dummy
 112              	.LVL15:
 196:PCA9959.c     ****     {
 113              		.loc 1 196 0
 114 001a 1023     		movs	r3, #16
 115 001c 13E0     		b	.L6
 116              	.LVL16:
 117              	.L7:
 198:PCA9959.c     ****       Pin_SCK_PCA9959_Write(0);
 118              		.loc 1 198 0 discriminator 3
 119 001e 5C1E     		subs	r4, r3, #1
 120 0020 45FA04F0 		asr	r0, r5, r4
 121 0024 00F00100 		and	r0, r0, #1
 122 0028 FFF7FEFF 		bl	Pin_MOSI_PCA9959_Write
 123              	.LVL17:
 199:PCA9959.c     ****       CyDelayUs(1);
 124              		.loc 1 199 0 discriminator 3
 125 002c 0020     		movs	r0, #0
 126 002e FFF7FEFF 		bl	Pin_SCK_PCA9959_Write
 127              	.LVL18:
 200:PCA9959.c     ****       Pin_SCK_PCA9959_Write(1);
 128              		.loc 1 200 0 discriminator 3
 129 0032 0120     		movs	r0, #1
 130 0034 FFF7FEFF 		bl	CyDelayUs
 131              	.LVL19:
 201:PCA9959.c     ****       CyDelayUs(1);
ARM GAS  C:\Users\Revanth\AppData\Local\Temp\ccqs06ys.s 			page 27


 132              		.loc 1 201 0 discriminator 3
 133 0038 0120     		movs	r0, #1
 134 003a FFF7FEFF 		bl	Pin_SCK_PCA9959_Write
 135              	.LVL20:
 202:PCA9959.c     ****     }
 136              		.loc 1 202 0 discriminator 3
 137 003e 0120     		movs	r0, #1
 138 0040 FFF7FEFF 		bl	CyDelayUs
 139              	.LVL21:
 196:PCA9959.c     ****     {
 140              		.loc 1 196 0 discriminator 3
 141 0044 E3B2     		uxtb	r3, r4
 142              	.LVL22:
 143              	.L6:
 196:PCA9959.c     ****     {
 144              		.loc 1 196 0 is_stmt 0 discriminator 1
 145 0046 002B     		cmp	r3, #0
 146 0048 E9D1     		bne	.L7
 205:PCA9959.c     ****     PCA9959_dummy();
 147              		.loc 1 205 0 is_stmt 1
 148 004a FFF7FEFF 		bl	PCA9959_dummy
 149              	.LVL23:
 206:PCA9959.c     ****     
 150              		.loc 1 206 0
 151 004e FFF7FEFF 		bl	PCA9959_dummy
 152              	.LVL24:
 208:PCA9959.c     ****     Pin_SS_PCA9959_Write(1);
 153              		.loc 1 208 0
 154 0052 0020     		movs	r0, #0
 155 0054 FFF7FEFF 		bl	Pin_SCK_PCA9959_Write
 156              	.LVL25:
 209:PCA9959.c     ****     
 157              		.loc 1 209 0
 158 0058 0120     		movs	r0, #1
 159 005a FFF7FEFF 		bl	Pin_SS_PCA9959_Write
 160              	.LVL26:
 161 005e 38BD     		pop	{r3, r4, r5, pc}
 162              		.cfi_endproc
 163              	.LFE76:
 164              		.size	PCA_16Bit_TxOp_1, .-PCA_16Bit_TxOp_1
 165              		.section	.text.PCA9959_Write_1,"ax",%progbits
 166              		.align	2
 167              		.global	PCA9959_Write_1
 168              		.thumb
 169              		.thumb_func
 170              		.type	PCA9959_Write_1, %function
 171              	PCA9959_Write_1:
 172              	.LFB72:
 150:PCA9959.c     ****     Op = Write;   
 173              		.loc 1 150 0
 174              		.cfi_startproc
 175              		@ args = 0, pretend = 0, frame = 0
 176              		@ frame_needed = 0, uses_anonymous_args = 0
 177              	.LVL27:
 178 0000 08B5     		push	{r3, lr}
 179              		.cfi_def_cfa_offset 8
 180              		.cfi_offset 3, -8
ARM GAS  C:\Users\Revanth\AppData\Local\Temp\ccqs06ys.s 			page 28


 181              		.cfi_offset 14, -4
 151:PCA9959.c     ****     TX = ((((regaddr_w << 1) | Op) << 8) | data_w );    //Evaluate TX so that Write operation can b
 182              		.loc 1 151 0
 183 0002 0022     		movs	r2, #0
 184 0004 044B     		ldr	r3, .L11
 185 0006 1A70     		strb	r2, [r3]
 152:PCA9959.c     ****     PCA_16Bit_TxOp_1(TX);                                 //Send Write command with register addres
 186              		.loc 1 152 0
 187 0008 41EA4020 		orr	r0, r1, r0, lsl #9
 188              	.LVL28:
 189 000c 80B2     		uxth	r0, r0
 190 000e 034B     		ldr	r3, .L11+4
 191 0010 1880     		strh	r0, [r3]	@ movhi
 153:PCA9959.c     **** //    CyDelayUs(1);
 192              		.loc 1 153 0
 193 0012 FFF7FEFF 		bl	PCA_16Bit_TxOp_1
 194              	.LVL29:
 195 0016 08BD     		pop	{r3, pc}
 196              	.L12:
 197              		.align	2
 198              	.L11:
 199 0018 00000000 		.word	.LANCHOR0
 200 001c 00000000 		.word	.LANCHOR1
 201              		.cfi_endproc
 202              	.LFE72:
 203              		.size	PCA9959_Write_1, .-PCA9959_Write_1
 204              		.section	.text.PageSel_1,"ax",%progbits
 205              		.align	2
 206              		.global	PageSel_1
 207              		.thumb
 208              		.thumb_func
 209              		.type	PageSel_1, %function
 210              	PageSel_1:
 211              	.LFB63:
  28:PCA9959.c     ****     if(Sel == 0)
 212              		.loc 1 28 0
 213              		.cfi_startproc
 214              		@ args = 0, pretend = 0, frame = 0
 215              		@ frame_needed = 0, uses_anonymous_args = 0
 216              	.LVL30:
 217 0000 08B5     		push	{r3, lr}
 218              		.cfi_def_cfa_offset 8
 219              		.cfi_offset 3, -8
 220              		.cfi_offset 14, -4
  29:PCA9959.c     ****     {
 221              		.loc 1 29 0
 222 0002 38B9     		cbnz	r0, .L14
  31:PCA9959.c     ****         Data    = 0x00;                                 //Page 0, i.e Grid Registers selected
 223              		.loc 1 31 0
 224 0004 074B     		ldr	r3, .L17
 225 0006 0B20     		movs	r0, #11
 226              	.LVL31:
 227 0008 9870     		strb	r0, [r3, #2]
  32:PCA9959.c     ****         PCA9959_Write_1(RegAddr, Data);
 228              		.loc 1 32 0
 229 000a 0021     		movs	r1, #0
 230 000c D970     		strb	r1, [r3, #3]
ARM GAS  C:\Users\Revanth\AppData\Local\Temp\ccqs06ys.s 			page 29


  33:PCA9959.c     ****     }
 231              		.loc 1 33 0
 232 000e FFF7FEFF 		bl	PCA9959_Write_1
 233              	.LVL32:
 234 0012 08BD     		pop	{r3, pc}
 235              	.LVL33:
 236              	.L14:
  37:PCA9959.c     ****         Data    = 0x80;                                 //Page 1, i.e Channel Registers selected 
 237              		.loc 1 37 0
 238 0014 034B     		ldr	r3, .L17
 239 0016 0B20     		movs	r0, #11
 240              	.LVL34:
 241 0018 9870     		strb	r0, [r3, #2]
  38:PCA9959.c     ****         PCA9959_Write_1(RegAddr, Data);
 242              		.loc 1 38 0
 243 001a 8021     		movs	r1, #128
 244 001c D970     		strb	r1, [r3, #3]
  39:PCA9959.c     ****     }
 245              		.loc 1 39 0
 246 001e FFF7FEFF 		bl	PCA9959_Write_1
 247              	.LVL35:
 248 0022 08BD     		pop	{r3, pc}
 249              	.L18:
 250              		.align	2
 251              	.L17:
 252 0024 00000000 		.word	.LANCHOR1
 253              		.cfi_endproc
 254              	.LFE63:
 255              		.size	PageSel_1, .-PageSel_1
 256              		.section	.text.PCA9959_Init_1,"ax",%progbits
 257              		.align	2
 258              		.global	PCA9959_Init_1
 259              		.thumb
 260              		.thumb_func
 261              		.type	PCA9959_Init_1, %function
 262              	PCA9959_Init_1:
 263              	.LFB67:
  94:PCA9959.c     **** 
 264              		.loc 1 94 0
 265              		.cfi_startproc
 266              		@ args = 0, pretend = 0, frame = 0
 267              		@ frame_needed = 0, uses_anonymous_args = 0
 268 0000 08B5     		push	{r3, lr}
 269              		.cfi_def_cfa_offset 8
 270              		.cfi_offset 3, -8
 271              		.cfi_offset 14, -4
  96:PCA9959.c     ****     Pin_OE_PCA9959_1_Write(1);                                      /*Disable all channels. */
 272              		.loc 1 96 0
 273 0002 1821     		movs	r1, #24
 274 0004 0120     		movs	r0, #1
 275 0006 FFF7FEFF 		bl	PCA9959_Write_1
 276              	.LVL36:
  97:PCA9959.c     ****     PCA9959_Write_1(Side_Ctl, 0x00);                       //Side 0 to be written to and executed
 277              		.loc 1 97 0
 278 000a 0120     		movs	r0, #1
 279 000c FFF7FEFF 		bl	Pin_OE_PCA9959_1_Write
 280              	.LVL37:
ARM GAS  C:\Users\Revanth\AppData\Local\Temp\ccqs06ys.s 			page 30


  98:PCA9959.c     ****     PageSel_1(GdSel);
 281              		.loc 1 98 0
 282 0010 0021     		movs	r1, #0
 283 0012 0A20     		movs	r0, #10
 284 0014 FFF7FEFF 		bl	PCA9959_Write_1
 285              	.LVL38:
  99:PCA9959.c     ****     PCA9959_Write_1(Grd0_Cf, 0x01);                       //LED Channels mapped to Group O use the 
 286              		.loc 1 99 0
 287 0018 0020     		movs	r0, #0
 288 001a FFF7FEFF 		bl	PageSel_1
 289              	.LVL39:
 100:PCA9959.c     **** //    CyDelay(100);
 290              		.loc 1 100 0
 291 001e 0121     		movs	r1, #1
 292 0020 2020     		movs	r0, #32
 293 0022 FFF7FEFF 		bl	PCA9959_Write_1
 294              	.LVL40:
 295 0026 08BD     		pop	{r3, pc}
 296              		.cfi_endproc
 297              	.LFE67:
 298              		.size	PCA9959_Init_1, .-PCA9959_Init_1
 299              		.section	.text.PCA_16Bit_TxOp_2,"ax",%progbits
 300              		.align	2
 301              		.global	PCA_16Bit_TxOp_2
 302              		.thumb
 303              		.thumb_func
 304              		.type	PCA_16Bit_TxOp_2, %function
 305              	PCA_16Bit_TxOp_2:
 306              	.LFB77:
 214:PCA9959.c     ****     uint8_t i=0;
 307              		.loc 1 214 0
 308              		.cfi_startproc
 309              		@ args = 0, pretend = 0, frame = 0
 310              		@ frame_needed = 0, uses_anonymous_args = 0
 311              	.LVL41:
 312 0000 38B5     		push	{r3, r4, r5, lr}
 313              		.cfi_def_cfa_offset 16
 314              		.cfi_offset 3, -16
 315              		.cfi_offset 4, -12
 316              		.cfi_offset 5, -8
 317              		.cfi_offset 14, -4
 318 0002 0546     		mov	r5, r0
 319              	.LVL42:
 216:PCA9959.c     ****     Pin_SS_PCA9959_Write(0);
 320              		.loc 1 216 0
 321 0004 0020     		movs	r0, #0
 322              	.LVL43:
 323 0006 FFF7FEFF 		bl	Pin_SCK_PCA9959_Write
 324              	.LVL44:
 217:PCA9959.c     ****     CyDelayUs(1);
 325              		.loc 1 217 0
 326 000a 0020     		movs	r0, #0
 327 000c FFF7FEFF 		bl	Pin_SS_PCA9959_Write
 328              	.LVL45:
 218:PCA9959.c     ****     
 329              		.loc 1 218 0
 330 0010 0120     		movs	r0, #1
ARM GAS  C:\Users\Revanth\AppData\Local\Temp\ccqs06ys.s 			page 31


 331 0012 FFF7FEFF 		bl	CyDelayUs
 332              	.LVL46:
 220:PCA9959.c     ****     PCA9959_dummy();
 333              		.loc 1 220 0
 334 0016 FFF7FEFF 		bl	PCA9959_dummy
 335              	.LVL47:
 221:PCA9959.c     ****     PCA9959_dummy();
 336              		.loc 1 221 0
 337 001a FFF7FEFF 		bl	PCA9959_dummy
 338              	.LVL48:
 222:PCA9959.c     ****     
 339              		.loc 1 222 0
 340 001e FFF7FEFF 		bl	PCA9959_dummy
 341              	.LVL49:
 224:PCA9959.c     ****     {
 342              		.loc 1 224 0
 343 0022 1023     		movs	r3, #16
 344 0024 13E0     		b	.L22
 345              	.LVL50:
 346              	.L23:
 226:PCA9959.c     ****       Pin_SCK_PCA9959_Write(0);
 347              		.loc 1 226 0 discriminator 3
 348 0026 5C1E     		subs	r4, r3, #1
 349 0028 45FA04F0 		asr	r0, r5, r4
 350 002c 00F00100 		and	r0, r0, #1
 351 0030 FFF7FEFF 		bl	Pin_MOSI_PCA9959_Write
 352              	.LVL51:
 227:PCA9959.c     ****       CyDelayUs(1);
 353              		.loc 1 227 0 discriminator 3
 354 0034 0020     		movs	r0, #0
 355 0036 FFF7FEFF 		bl	Pin_SCK_PCA9959_Write
 356              	.LVL52:
 228:PCA9959.c     ****       Pin_SCK_PCA9959_Write(1);
 357              		.loc 1 228 0 discriminator 3
 358 003a 0120     		movs	r0, #1
 359 003c FFF7FEFF 		bl	CyDelayUs
 360              	.LVL53:
 229:PCA9959.c     ****       CyDelayUs(1);
 361              		.loc 1 229 0 discriminator 3
 362 0040 0120     		movs	r0, #1
 363 0042 FFF7FEFF 		bl	Pin_SCK_PCA9959_Write
 364              	.LVL54:
 230:PCA9959.c     ****     }
 365              		.loc 1 230 0 discriminator 3
 366 0046 0120     		movs	r0, #1
 367 0048 FFF7FEFF 		bl	CyDelayUs
 368              	.LVL55:
 224:PCA9959.c     ****     {
 369              		.loc 1 224 0 discriminator 3
 370 004c E3B2     		uxtb	r3, r4
 371              	.LVL56:
 372              	.L22:
 224:PCA9959.c     ****     {
 373              		.loc 1 224 0 is_stmt 0 discriminator 1
 374 004e 002B     		cmp	r3, #0
 375 0050 E9D1     		bne	.L23
 232:PCA9959.c     ****     Pin_SS_PCA9959_Write(1);
ARM GAS  C:\Users\Revanth\AppData\Local\Temp\ccqs06ys.s 			page 32


 376              		.loc 1 232 0 is_stmt 1
 377 0052 0020     		movs	r0, #0
 378 0054 FFF7FEFF 		bl	Pin_SCK_PCA9959_Write
 379              	.LVL57:
 233:PCA9959.c     ****     
 380              		.loc 1 233 0
 381 0058 0120     		movs	r0, #1
 382 005a FFF7FEFF 		bl	Pin_SS_PCA9959_Write
 383              	.LVL58:
 384 005e 38BD     		pop	{r3, r4, r5, pc}
 385              		.cfi_endproc
 386              	.LFE77:
 387              		.size	PCA_16Bit_TxOp_2, .-PCA_16Bit_TxOp_2
 388              		.section	.text.PCA9959_Write_2,"ax",%progbits
 389              		.align	2
 390              		.global	PCA9959_Write_2
 391              		.thumb
 392              		.thumb_func
 393              		.type	PCA9959_Write_2, %function
 394              	PCA9959_Write_2:
 395              	.LFB73:
 159:PCA9959.c     ****     Op = Write;   
 396              		.loc 1 159 0
 397              		.cfi_startproc
 398              		@ args = 0, pretend = 0, frame = 0
 399              		@ frame_needed = 0, uses_anonymous_args = 0
 400              	.LVL59:
 401 0000 08B5     		push	{r3, lr}
 402              		.cfi_def_cfa_offset 8
 403              		.cfi_offset 3, -8
 404              		.cfi_offset 14, -4
 160:PCA9959.c     ****     TX = ((((regaddr_w << 1) | Op) << 8) | data_w );    //Evaluate TX so that Write operation can b
 405              		.loc 1 160 0
 406 0002 0022     		movs	r2, #0
 407 0004 044B     		ldr	r3, .L27
 408 0006 1A70     		strb	r2, [r3]
 161:PCA9959.c     ****     PCA_16Bit_TxOp_2(TX);                                 //Send Write command with register addres
 409              		.loc 1 161 0
 410 0008 41EA4020 		orr	r0, r1, r0, lsl #9
 411              	.LVL60:
 412 000c 80B2     		uxth	r0, r0
 413 000e 034B     		ldr	r3, .L27+4
 414 0010 1880     		strh	r0, [r3]	@ movhi
 162:PCA9959.c     **** //    CyDelayUs(1);
 415              		.loc 1 162 0
 416 0012 FFF7FEFF 		bl	PCA_16Bit_TxOp_2
 417              	.LVL61:
 418 0016 08BD     		pop	{r3, pc}
 419              	.L28:
 420              		.align	2
 421              	.L27:
 422 0018 00000000 		.word	.LANCHOR0
 423 001c 00000000 		.word	.LANCHOR1
 424              		.cfi_endproc
 425              	.LFE73:
 426              		.size	PCA9959_Write_2, .-PCA9959_Write_2
 427              		.section	.text.PageSel_2,"ax",%progbits
ARM GAS  C:\Users\Revanth\AppData\Local\Temp\ccqs06ys.s 			page 33


 428              		.align	2
 429              		.global	PageSel_2
 430              		.thumb
 431              		.thumb_func
 432              		.type	PageSel_2, %function
 433              	PageSel_2:
 434              	.LFB64:
  44:PCA9959.c     ****     if(Sel == 0)
 435              		.loc 1 44 0
 436              		.cfi_startproc
 437              		@ args = 0, pretend = 0, frame = 0
 438              		@ frame_needed = 0, uses_anonymous_args = 0
 439              	.LVL62:
 440 0000 08B5     		push	{r3, lr}
 441              		.cfi_def_cfa_offset 8
 442              		.cfi_offset 3, -8
 443              		.cfi_offset 14, -4
  45:PCA9959.c     ****     {
 444              		.loc 1 45 0
 445 0002 38B9     		cbnz	r0, .L30
  47:PCA9959.c     ****         Data    = 0x00;                                 //Page 0, i.e Grid Registers selected
 446              		.loc 1 47 0
 447 0004 074B     		ldr	r3, .L33
 448 0006 0B20     		movs	r0, #11
 449              	.LVL63:
 450 0008 9870     		strb	r0, [r3, #2]
  48:PCA9959.c     ****         PCA9959_Write_2(RegAddr, Data);
 451              		.loc 1 48 0
 452 000a 0021     		movs	r1, #0
 453 000c D970     		strb	r1, [r3, #3]
  49:PCA9959.c     ****     }
 454              		.loc 1 49 0
 455 000e FFF7FEFF 		bl	PCA9959_Write_2
 456              	.LVL64:
 457 0012 08BD     		pop	{r3, pc}
 458              	.LVL65:
 459              	.L30:
  53:PCA9959.c     ****         Data    = 0x80;                                 //Page 1, i.e Channel Registers selected 
 460              		.loc 1 53 0
 461 0014 034B     		ldr	r3, .L33
 462 0016 0B20     		movs	r0, #11
 463              	.LVL66:
 464 0018 9870     		strb	r0, [r3, #2]
  54:PCA9959.c     ****         PCA9959_Write_2(RegAddr, Data);
 465              		.loc 1 54 0
 466 001a 8021     		movs	r1, #128
 467 001c D970     		strb	r1, [r3, #3]
  55:PCA9959.c     ****     }
 468              		.loc 1 55 0
 469 001e FFF7FEFF 		bl	PCA9959_Write_2
 470              	.LVL67:
 471 0022 08BD     		pop	{r3, pc}
 472              	.L34:
 473              		.align	2
 474              	.L33:
 475 0024 00000000 		.word	.LANCHOR1
 476              		.cfi_endproc
ARM GAS  C:\Users\Revanth\AppData\Local\Temp\ccqs06ys.s 			page 34


 477              	.LFE64:
 478              		.size	PageSel_2, .-PageSel_2
 479              		.section	.text.PCA9959_Init_2,"ax",%progbits
 480              		.align	2
 481              		.global	PCA9959_Init_2
 482              		.thumb
 483              		.thumb_func
 484              		.type	PCA9959_Init_2, %function
 485              	PCA9959_Init_2:
 486              	.LFB68:
 106:PCA9959.c     ****     PCA9959_Write_2(Mode2, 0x18);
 487              		.loc 1 106 0
 488              		.cfi_startproc
 489              		@ args = 0, pretend = 0, frame = 0
 490              		@ frame_needed = 0, uses_anonymous_args = 0
 491 0000 08B5     		push	{r3, lr}
 492              		.cfi_def_cfa_offset 8
 493              		.cfi_offset 3, -8
 494              		.cfi_offset 14, -4
 107:PCA9959.c     ****     Pin_OE_PCA9959_2_Write(1);                                      /*Disable all channels. */
 495              		.loc 1 107 0
 496 0002 1821     		movs	r1, #24
 497 0004 0120     		movs	r0, #1
 498 0006 FFF7FEFF 		bl	PCA9959_Write_2
 499              	.LVL68:
 108:PCA9959.c     ****     PCA9959_Write_2(Side_Ctl, 0x00);                       //Side 0 to be written to and executed
 500              		.loc 1 108 0
 501 000a 0120     		movs	r0, #1
 502 000c FFF7FEFF 		bl	Pin_OE_PCA9959_2_Write
 503              	.LVL69:
 109:PCA9959.c     ****     PageSel_2(GdSel);
 504              		.loc 1 109 0
 505 0010 0021     		movs	r1, #0
 506 0012 0A20     		movs	r0, #10
 507 0014 FFF7FEFF 		bl	PCA9959_Write_2
 508              	.LVL70:
 110:PCA9959.c     ****     PCA9959_Write_2(Grd0_Cf, 0x01);                       //LED Channels mapped to Group O use the 
 509              		.loc 1 110 0
 510 0018 0020     		movs	r0, #0
 511 001a FFF7FEFF 		bl	PageSel_2
 512              	.LVL71:
 111:PCA9959.c     **** //    CyDelay(100);
 513              		.loc 1 111 0
 514 001e 0121     		movs	r1, #1
 515 0020 2020     		movs	r0, #32
 516 0022 FFF7FEFF 		bl	PCA9959_Write_2
 517              	.LVL72:
 518 0026 08BD     		pop	{r3, pc}
 519              		.cfi_endproc
 520              	.LFE68:
 521              		.size	PCA9959_Init_2, .-PCA9959_Init_2
 522              		.section	.text.PCA_16Bit_TxOp_3,"ax",%progbits
 523              		.align	2
 524              		.global	PCA_16Bit_TxOp_3
 525              		.thumb
 526              		.thumb_func
 527              		.type	PCA_16Bit_TxOp_3, %function
ARM GAS  C:\Users\Revanth\AppData\Local\Temp\ccqs06ys.s 			page 35


 528              	PCA_16Bit_TxOp_3:
 529              	.LFB78:
 238:PCA9959.c     ****     uint8_t i=0;
 530              		.loc 1 238 0
 531              		.cfi_startproc
 532              		@ args = 0, pretend = 0, frame = 0
 533              		@ frame_needed = 0, uses_anonymous_args = 0
 534              	.LVL73:
 535 0000 38B5     		push	{r3, r4, r5, lr}
 536              		.cfi_def_cfa_offset 16
 537              		.cfi_offset 3, -16
 538              		.cfi_offset 4, -12
 539              		.cfi_offset 5, -8
 540              		.cfi_offset 14, -4
 541 0002 0546     		mov	r5, r0
 542              	.LVL74:
 240:PCA9959.c     ****     Pin_SS_PCA9959_Write(0);
 543              		.loc 1 240 0
 544 0004 0020     		movs	r0, #0
 545              	.LVL75:
 546 0006 FFF7FEFF 		bl	Pin_SCK_PCA9959_Write
 547              	.LVL76:
 241:PCA9959.c     ****     CyDelayUs(1);
 548              		.loc 1 241 0
 549 000a 0020     		movs	r0, #0
 550 000c FFF7FEFF 		bl	Pin_SS_PCA9959_Write
 551              	.LVL77:
 242:PCA9959.c     ****     
 552              		.loc 1 242 0
 553 0010 0120     		movs	r0, #1
 554 0012 FFF7FEFF 		bl	CyDelayUs
 555              	.LVL78:
 244:PCA9959.c     ****     {
 556              		.loc 1 244 0
 557 0016 1023     		movs	r3, #16
 558 0018 13E0     		b	.L38
 559              	.LVL79:
 560              	.L39:
 246:PCA9959.c     ****       Pin_SCK_PCA9959_Write(0);
 561              		.loc 1 246 0 discriminator 3
 562 001a 5C1E     		subs	r4, r3, #1
 563 001c 45FA04F0 		asr	r0, r5, r4
 564 0020 00F00100 		and	r0, r0, #1
 565 0024 FFF7FEFF 		bl	Pin_MOSI_PCA9959_Write
 566              	.LVL80:
 247:PCA9959.c     ****       CyDelayUs(1);
 567              		.loc 1 247 0 discriminator 3
 568 0028 0020     		movs	r0, #0
 569 002a FFF7FEFF 		bl	Pin_SCK_PCA9959_Write
 570              	.LVL81:
 248:PCA9959.c     ****       Pin_SCK_PCA9959_Write(1);
 571              		.loc 1 248 0 discriminator 3
 572 002e 0120     		movs	r0, #1
 573 0030 FFF7FEFF 		bl	CyDelayUs
 574              	.LVL82:
 249:PCA9959.c     ****       CyDelayUs(1);
 575              		.loc 1 249 0 discriminator 3
ARM GAS  C:\Users\Revanth\AppData\Local\Temp\ccqs06ys.s 			page 36


 576 0034 0120     		movs	r0, #1
 577 0036 FFF7FEFF 		bl	Pin_SCK_PCA9959_Write
 578              	.LVL83:
 250:PCA9959.c     ****     }
 579              		.loc 1 250 0 discriminator 3
 580 003a 0120     		movs	r0, #1
 581 003c FFF7FEFF 		bl	CyDelayUs
 582              	.LVL84:
 244:PCA9959.c     ****     {
 583              		.loc 1 244 0 discriminator 3
 584 0040 E3B2     		uxtb	r3, r4
 585              	.LVL85:
 586              	.L38:
 244:PCA9959.c     ****     {
 587              		.loc 1 244 0 is_stmt 0 discriminator 1
 588 0042 002B     		cmp	r3, #0
 589 0044 E9D1     		bne	.L39
 253:PCA9959.c     ****     PCA9959_dummy();
 590              		.loc 1 253 0 is_stmt 1
 591 0046 FFF7FEFF 		bl	PCA9959_dummy
 592              	.LVL86:
 254:PCA9959.c     ****     PCA9959_dummy();
 593              		.loc 1 254 0
 594 004a FFF7FEFF 		bl	PCA9959_dummy
 595              	.LVL87:
 255:PCA9959.c     ****     
 596              		.loc 1 255 0
 597 004e FFF7FEFF 		bl	PCA9959_dummy
 598              	.LVL88:
 257:PCA9959.c     ****     Pin_SS_PCA9959_Write(1);
 599              		.loc 1 257 0
 600 0052 0020     		movs	r0, #0
 601 0054 FFF7FEFF 		bl	Pin_SCK_PCA9959_Write
 602              	.LVL89:
 258:PCA9959.c     ****     
 603              		.loc 1 258 0
 604 0058 0120     		movs	r0, #1
 605 005a FFF7FEFF 		bl	Pin_SS_PCA9959_Write
 606              	.LVL90:
 607 005e 38BD     		pop	{r3, r4, r5, pc}
 608              		.cfi_endproc
 609              	.LFE78:
 610              		.size	PCA_16Bit_TxOp_3, .-PCA_16Bit_TxOp_3
 611              		.section	.text.PCA9959_Write_3,"ax",%progbits
 612              		.align	2
 613              		.global	PCA9959_Write_3
 614              		.thumb
 615              		.thumb_func
 616              		.type	PCA9959_Write_3, %function
 617              	PCA9959_Write_3:
 618              	.LFB74:
 168:PCA9959.c     ****     Op = Write;   
 619              		.loc 1 168 0
 620              		.cfi_startproc
 621              		@ args = 0, pretend = 0, frame = 0
 622              		@ frame_needed = 0, uses_anonymous_args = 0
 623              	.LVL91:
ARM GAS  C:\Users\Revanth\AppData\Local\Temp\ccqs06ys.s 			page 37


 624 0000 08B5     		push	{r3, lr}
 625              		.cfi_def_cfa_offset 8
 626              		.cfi_offset 3, -8
 627              		.cfi_offset 14, -4
 169:PCA9959.c     ****     TX = ((((regaddr_w << 1) | Op) << 8) | data_w );    //Evaluate TX so that Write operation can b
 628              		.loc 1 169 0
 629 0002 0022     		movs	r2, #0
 630 0004 044B     		ldr	r3, .L43
 631 0006 1A70     		strb	r2, [r3]
 170:PCA9959.c     ****     PCA_16Bit_TxOp_3(TX);                                 //Send Write command with register addres
 632              		.loc 1 170 0
 633 0008 41EA4020 		orr	r0, r1, r0, lsl #9
 634              	.LVL92:
 635 000c 80B2     		uxth	r0, r0
 636 000e 034B     		ldr	r3, .L43+4
 637 0010 1880     		strh	r0, [r3]	@ movhi
 171:PCA9959.c     **** //    CyDelayUs(1);
 638              		.loc 1 171 0
 639 0012 FFF7FEFF 		bl	PCA_16Bit_TxOp_3
 640              	.LVL93:
 641 0016 08BD     		pop	{r3, pc}
 642              	.L44:
 643              		.align	2
 644              	.L43:
 645 0018 00000000 		.word	.LANCHOR0
 646 001c 00000000 		.word	.LANCHOR1
 647              		.cfi_endproc
 648              	.LFE74:
 649              		.size	PCA9959_Write_3, .-PCA9959_Write_3
 650              		.section	.text.PageSel_3,"ax",%progbits
 651              		.align	2
 652              		.global	PageSel_3
 653              		.thumb
 654              		.thumb_func
 655              		.type	PageSel_3, %function
 656              	PageSel_3:
 657              	.LFB65:
  60:PCA9959.c     ****     if(Sel == 0)
 658              		.loc 1 60 0
 659              		.cfi_startproc
 660              		@ args = 0, pretend = 0, frame = 0
 661              		@ frame_needed = 0, uses_anonymous_args = 0
 662              	.LVL94:
 663 0000 08B5     		push	{r3, lr}
 664              		.cfi_def_cfa_offset 8
 665              		.cfi_offset 3, -8
 666              		.cfi_offset 14, -4
  61:PCA9959.c     ****     {
 667              		.loc 1 61 0
 668 0002 38B9     		cbnz	r0, .L46
  63:PCA9959.c     ****         Data    = 0x00;                                 //Page 0, i.e Grid Registers selected
 669              		.loc 1 63 0
 670 0004 074B     		ldr	r3, .L49
 671 0006 0B20     		movs	r0, #11
 672              	.LVL95:
 673 0008 9870     		strb	r0, [r3, #2]
  64:PCA9959.c     ****         PCA9959_Write_3(RegAddr, Data);
ARM GAS  C:\Users\Revanth\AppData\Local\Temp\ccqs06ys.s 			page 38


 674              		.loc 1 64 0
 675 000a 0021     		movs	r1, #0
 676 000c D970     		strb	r1, [r3, #3]
  65:PCA9959.c     ****     }
 677              		.loc 1 65 0
 678 000e FFF7FEFF 		bl	PCA9959_Write_3
 679              	.LVL96:
 680 0012 08BD     		pop	{r3, pc}
 681              	.LVL97:
 682              	.L46:
  69:PCA9959.c     ****         Data    = 0x80;                                 //Page 1, i.e Channel Registers selected 
 683              		.loc 1 69 0
 684 0014 034B     		ldr	r3, .L49
 685 0016 0B20     		movs	r0, #11
 686              	.LVL98:
 687 0018 9870     		strb	r0, [r3, #2]
  70:PCA9959.c     ****         PCA9959_Write_3(RegAddr, Data);
 688              		.loc 1 70 0
 689 001a 8021     		movs	r1, #128
 690 001c D970     		strb	r1, [r3, #3]
  71:PCA9959.c     ****     }
 691              		.loc 1 71 0
 692 001e FFF7FEFF 		bl	PCA9959_Write_3
 693              	.LVL99:
 694 0022 08BD     		pop	{r3, pc}
 695              	.L50:
 696              		.align	2
 697              	.L49:
 698 0024 00000000 		.word	.LANCHOR1
 699              		.cfi_endproc
 700              	.LFE65:
 701              		.size	PageSel_3, .-PageSel_3
 702              		.section	.text.PCA9959_Init_3,"ax",%progbits
 703              		.align	2
 704              		.global	PCA9959_Init_3
 705              		.thumb
 706              		.thumb_func
 707              		.type	PCA9959_Init_3, %function
 708              	PCA9959_Init_3:
 709              	.LFB69:
 117:PCA9959.c     ****     PCA9959_Write_3(Mode2, 0x18);
 710              		.loc 1 117 0
 711              		.cfi_startproc
 712              		@ args = 0, pretend = 0, frame = 0
 713              		@ frame_needed = 0, uses_anonymous_args = 0
 714 0000 08B5     		push	{r3, lr}
 715              		.cfi_def_cfa_offset 8
 716              		.cfi_offset 3, -8
 717              		.cfi_offset 14, -4
 118:PCA9959.c     ****     Pin_OE_PCA9959_3_Write(1);                                      /*Disable all channels. */
 718              		.loc 1 118 0
 719 0002 1821     		movs	r1, #24
 720 0004 0120     		movs	r0, #1
 721 0006 FFF7FEFF 		bl	PCA9959_Write_3
 722              	.LVL100:
 119:PCA9959.c     ****     PCA9959_Write_3(Side_Ctl, 0x00);                       //Side 0 to be written to and executed
 723              		.loc 1 119 0
ARM GAS  C:\Users\Revanth\AppData\Local\Temp\ccqs06ys.s 			page 39


 724 000a 0120     		movs	r0, #1
 725 000c FFF7FEFF 		bl	Pin_OE_PCA9959_3_Write
 726              	.LVL101:
 120:PCA9959.c     ****     PageSel_3(GdSel);
 727              		.loc 1 120 0
 728 0010 0021     		movs	r1, #0
 729 0012 0A20     		movs	r0, #10
 730 0014 FFF7FEFF 		bl	PCA9959_Write_3
 731              	.LVL102:
 121:PCA9959.c     ****     PCA9959_Write_3(Grd0_Cf, 0x01);                       //LED Channels mapped to Group O use the 
 732              		.loc 1 121 0
 733 0018 0020     		movs	r0, #0
 734 001a FFF7FEFF 		bl	PageSel_3
 735              	.LVL103:
 122:PCA9959.c     **** //    CyDelay(100);
 736              		.loc 1 122 0
 737 001e 0121     		movs	r1, #1
 738 0020 2020     		movs	r0, #32
 739 0022 FFF7FEFF 		bl	PCA9959_Write_3
 740              	.LVL104:
 741 0026 08BD     		pop	{r3, pc}
 742              		.cfi_endproc
 743              	.LFE69:
 744              		.size	PCA9959_Init_3, .-PCA9959_Init_3
 745              		.section	.text.PCA_16Bit_TxOp_4,"ax",%progbits
 746              		.align	2
 747              		.global	PCA_16Bit_TxOp_4
 748              		.thumb
 749              		.thumb_func
 750              		.type	PCA_16Bit_TxOp_4, %function
 751              	PCA_16Bit_TxOp_4:
 752              	.LFB79:
 263:PCA9959.c     ****     uint8_t i=0;
 753              		.loc 1 263 0
 754              		.cfi_startproc
 755              		@ args = 0, pretend = 0, frame = 0
 756              		@ frame_needed = 0, uses_anonymous_args = 0
 757              	.LVL105:
 758 0000 38B5     		push	{r3, r4, r5, lr}
 759              		.cfi_def_cfa_offset 16
 760              		.cfi_offset 3, -16
 761              		.cfi_offset 4, -12
 762              		.cfi_offset 5, -8
 763              		.cfi_offset 14, -4
 764 0002 0546     		mov	r5, r0
 765              	.LVL106:
 265:PCA9959.c     ****     Pin_SS_PCA9959_Write(0);
 766              		.loc 1 265 0
 767 0004 0020     		movs	r0, #0
 768              	.LVL107:
 769 0006 FFF7FEFF 		bl	Pin_SCK_PCA9959_Write
 770              	.LVL108:
 266:PCA9959.c     ****     CyDelayUs(1);
 771              		.loc 1 266 0
 772 000a 0020     		movs	r0, #0
 773 000c FFF7FEFF 		bl	Pin_SS_PCA9959_Write
 774              	.LVL109:
ARM GAS  C:\Users\Revanth\AppData\Local\Temp\ccqs06ys.s 			page 40


 267:PCA9959.c     ****     
 775              		.loc 1 267 0
 776 0010 0120     		movs	r0, #1
 777 0012 FFF7FEFF 		bl	CyDelayUs
 778              	.LVL110:
 269:PCA9959.c     ****     PCA9959_dummy();
 779              		.loc 1 269 0
 780 0016 FFF7FEFF 		bl	PCA9959_dummy
 781              	.LVL111:
 270:PCA9959.c     ****     
 782              		.loc 1 270 0
 783 001a FFF7FEFF 		bl	PCA9959_dummy
 784              	.LVL112:
 272:PCA9959.c     ****     {
 785              		.loc 1 272 0
 786 001e 1023     		movs	r3, #16
 787 0020 13E0     		b	.L54
 788              	.LVL113:
 789              	.L55:
 274:PCA9959.c     ****       Pin_SCK_PCA9959_Write(0);
 790              		.loc 1 274 0 discriminator 3
 791 0022 5C1E     		subs	r4, r3, #1
 792 0024 45FA04F0 		asr	r0, r5, r4
 793 0028 00F00100 		and	r0, r0, #1
 794 002c FFF7FEFF 		bl	Pin_MOSI_PCA9959_Write
 795              	.LVL114:
 275:PCA9959.c     ****       CyDelayUs(1);
 796              		.loc 1 275 0 discriminator 3
 797 0030 0020     		movs	r0, #0
 798 0032 FFF7FEFF 		bl	Pin_SCK_PCA9959_Write
 799              	.LVL115:
 276:PCA9959.c     ****       Pin_SCK_PCA9959_Write(1);
 800              		.loc 1 276 0 discriminator 3
 801 0036 0120     		movs	r0, #1
 802 0038 FFF7FEFF 		bl	CyDelayUs
 803              	.LVL116:
 277:PCA9959.c     ****       CyDelayUs(1);
 804              		.loc 1 277 0 discriminator 3
 805 003c 0120     		movs	r0, #1
 806 003e FFF7FEFF 		bl	Pin_SCK_PCA9959_Write
 807              	.LVL117:
 278:PCA9959.c     ****     }
 808              		.loc 1 278 0 discriminator 3
 809 0042 0120     		movs	r0, #1
 810 0044 FFF7FEFF 		bl	CyDelayUs
 811              	.LVL118:
 272:PCA9959.c     ****     {
 812              		.loc 1 272 0 discriminator 3
 813 0048 E3B2     		uxtb	r3, r4
 814              	.LVL119:
 815              	.L54:
 272:PCA9959.c     ****     {
 816              		.loc 1 272 0 is_stmt 0 discriminator 1
 817 004a 002B     		cmp	r3, #0
 818 004c E9D1     		bne	.L55
 281:PCA9959.c     ****     
 819              		.loc 1 281 0 is_stmt 1
ARM GAS  C:\Users\Revanth\AppData\Local\Temp\ccqs06ys.s 			page 41


 820 004e FFF7FEFF 		bl	PCA9959_dummy
 821              	.LVL120:
 283:PCA9959.c     ****     Pin_SS_PCA9959_Write(1);
 822              		.loc 1 283 0
 823 0052 0020     		movs	r0, #0
 824 0054 FFF7FEFF 		bl	Pin_SCK_PCA9959_Write
 825              	.LVL121:
 284:PCA9959.c     ****     
 826              		.loc 1 284 0
 827 0058 0120     		movs	r0, #1
 828 005a FFF7FEFF 		bl	Pin_SS_PCA9959_Write
 829              	.LVL122:
 830 005e 38BD     		pop	{r3, r4, r5, pc}
 831              		.cfi_endproc
 832              	.LFE79:
 833              		.size	PCA_16Bit_TxOp_4, .-PCA_16Bit_TxOp_4
 834              		.section	.text.PCA9959_Write_4,"ax",%progbits
 835              		.align	2
 836              		.global	PCA9959_Write_4
 837              		.thumb
 838              		.thumb_func
 839              		.type	PCA9959_Write_4, %function
 840              	PCA9959_Write_4:
 841              	.LFB75:
 177:PCA9959.c     ****     Op = Write;   
 842              		.loc 1 177 0
 843              		.cfi_startproc
 844              		@ args = 0, pretend = 0, frame = 0
 845              		@ frame_needed = 0, uses_anonymous_args = 0
 846              	.LVL123:
 847 0000 08B5     		push	{r3, lr}
 848              		.cfi_def_cfa_offset 8
 849              		.cfi_offset 3, -8
 850              		.cfi_offset 14, -4
 178:PCA9959.c     ****     TX = ((((regaddr_w << 1) | Op) << 8) | data_w );    //Evaluate TX so that Write operation can b
 851              		.loc 1 178 0
 852 0002 0022     		movs	r2, #0
 853 0004 044B     		ldr	r3, .L59
 854 0006 1A70     		strb	r2, [r3]
 179:PCA9959.c     ****     PCA_16Bit_TxOp_4(TX);                                 //Send Write command with register addres
 855              		.loc 1 179 0
 856 0008 41EA4020 		orr	r0, r1, r0, lsl #9
 857              	.LVL124:
 858 000c 80B2     		uxth	r0, r0
 859 000e 034B     		ldr	r3, .L59+4
 860 0010 1880     		strh	r0, [r3]	@ movhi
 180:PCA9959.c     **** //    CyDelayUs(1);
 861              		.loc 1 180 0
 862 0012 FFF7FEFF 		bl	PCA_16Bit_TxOp_4
 863              	.LVL125:
 864 0016 08BD     		pop	{r3, pc}
 865              	.L60:
 866              		.align	2
 867              	.L59:
 868 0018 00000000 		.word	.LANCHOR0
 869 001c 00000000 		.word	.LANCHOR1
 870              		.cfi_endproc
ARM GAS  C:\Users\Revanth\AppData\Local\Temp\ccqs06ys.s 			page 42


 871              	.LFE75:
 872              		.size	PCA9959_Write_4, .-PCA9959_Write_4
 873              		.section	.text.PageSel_4,"ax",%progbits
 874              		.align	2
 875              		.global	PageSel_4
 876              		.thumb
 877              		.thumb_func
 878              		.type	PageSel_4, %function
 879              	PageSel_4:
 880              	.LFB66:
  76:PCA9959.c     ****     if(Sel == 0)
 881              		.loc 1 76 0
 882              		.cfi_startproc
 883              		@ args = 0, pretend = 0, frame = 0
 884              		@ frame_needed = 0, uses_anonymous_args = 0
 885              	.LVL126:
 886 0000 08B5     		push	{r3, lr}
 887              		.cfi_def_cfa_offset 8
 888              		.cfi_offset 3, -8
 889              		.cfi_offset 14, -4
  77:PCA9959.c     ****     {
 890              		.loc 1 77 0
 891 0002 38B9     		cbnz	r0, .L62
  79:PCA9959.c     ****         Data    = 0x00;                                 //Page 0, i.e Grid Registers selected
 892              		.loc 1 79 0
 893 0004 074B     		ldr	r3, .L65
 894 0006 0B20     		movs	r0, #11
 895              	.LVL127:
 896 0008 9870     		strb	r0, [r3, #2]
  80:PCA9959.c     ****         PCA9959_Write_4(RegAddr, Data);
 897              		.loc 1 80 0
 898 000a 0021     		movs	r1, #0
 899 000c D970     		strb	r1, [r3, #3]
  81:PCA9959.c     ****     }
 900              		.loc 1 81 0
 901 000e FFF7FEFF 		bl	PCA9959_Write_4
 902              	.LVL128:
 903 0012 08BD     		pop	{r3, pc}
 904              	.LVL129:
 905              	.L62:
  85:PCA9959.c     ****         Data    = 0x80;                                 //Page 1, i.e Channel Registers selected 
 906              		.loc 1 85 0
 907 0014 034B     		ldr	r3, .L65
 908 0016 0B20     		movs	r0, #11
 909              	.LVL130:
 910 0018 9870     		strb	r0, [r3, #2]
  86:PCA9959.c     ****         PCA9959_Write_4(RegAddr, Data);
 911              		.loc 1 86 0
 912 001a 8021     		movs	r1, #128
 913 001c D970     		strb	r1, [r3, #3]
  87:PCA9959.c     ****     }
 914              		.loc 1 87 0
 915 001e FFF7FEFF 		bl	PCA9959_Write_4
 916              	.LVL131:
 917 0022 08BD     		pop	{r3, pc}
 918              	.L66:
 919              		.align	2
ARM GAS  C:\Users\Revanth\AppData\Local\Temp\ccqs06ys.s 			page 43


 920              	.L65:
 921 0024 00000000 		.word	.LANCHOR1
 922              		.cfi_endproc
 923              	.LFE66:
 924              		.size	PageSel_4, .-PageSel_4
 925              		.section	.text.PCA9959_Init_4,"ax",%progbits
 926              		.align	2
 927              		.global	PCA9959_Init_4
 928              		.thumb
 929              		.thumb_func
 930              		.type	PCA9959_Init_4, %function
 931              	PCA9959_Init_4:
 932              	.LFB70:
 128:PCA9959.c     ****     PCA9959_Write_4(Mode2, 0x18);
 933              		.loc 1 128 0
 934              		.cfi_startproc
 935              		@ args = 0, pretend = 0, frame = 0
 936              		@ frame_needed = 0, uses_anonymous_args = 0
 937 0000 08B5     		push	{r3, lr}
 938              		.cfi_def_cfa_offset 8
 939              		.cfi_offset 3, -8
 940              		.cfi_offset 14, -4
 129:PCA9959.c     ****     Pin_OE_PCA9959_4_Write(1);                                      /*Disable all channels. */
 941              		.loc 1 129 0
 942 0002 1821     		movs	r1, #24
 943 0004 0120     		movs	r0, #1
 944 0006 FFF7FEFF 		bl	PCA9959_Write_4
 945              	.LVL132:
 130:PCA9959.c     ****     PCA9959_Write_4(Side_Ctl, 0x00);                       //Side 0 to be written to and executed
 946              		.loc 1 130 0
 947 000a 0120     		movs	r0, #1
 948 000c FFF7FEFF 		bl	Pin_OE_PCA9959_4_Write
 949              	.LVL133:
 131:PCA9959.c     ****     PageSel_4(GdSel);
 950              		.loc 1 131 0
 951 0010 0021     		movs	r1, #0
 952 0012 0A20     		movs	r0, #10
 953 0014 FFF7FEFF 		bl	PCA9959_Write_4
 954              	.LVL134:
 132:PCA9959.c     ****     PCA9959_Write_4(Grd0_Cf, 0x01);                       //LED Channels mapped to Group O use the 
 955              		.loc 1 132 0
 956 0018 0020     		movs	r0, #0
 957 001a FFF7FEFF 		bl	PageSel_4
 958              	.LVL135:
 133:PCA9959.c     **** //    CyDelay(100);
 959              		.loc 1 133 0
 960 001e 0121     		movs	r1, #1
 961 0020 2020     		movs	r0, #32
 962 0022 FFF7FEFF 		bl	PCA9959_Write_4
 963              	.LVL136:
 964 0026 08BD     		pop	{r3, pc}
 965              		.cfi_endproc
 966              	.LFE70:
 967              		.size	PCA9959_Init_4, .-PCA9959_Init_4
 968              		.section	.text.PCA9959_clear,"ax",%progbits
 969              		.align	2
 970              		.global	PCA9959_clear
ARM GAS  C:\Users\Revanth\AppData\Local\Temp\ccqs06ys.s 			page 44


 971              		.thumb
 972              		.thumb_func
 973              		.type	PCA9959_clear, %function
 974              	PCA9959_clear:
 975              	.LFB81:
1096:PCA9959.c     ****     Pin_SS_PCA9959_Write(1);
 976              		.loc 1 1096 0
 977              		.cfi_startproc
 978              		@ args = 0, pretend = 0, frame = 0
 979              		@ frame_needed = 0, uses_anonymous_args = 0
 980 0000 08B5     		push	{r3, lr}
 981              		.cfi_def_cfa_offset 8
 982              		.cfi_offset 3, -8
 983              		.cfi_offset 14, -4
1097:PCA9959.c     ****     Pin_OE_PCA9959_1_Write(1);
 984              		.loc 1 1097 0
 985 0002 0120     		movs	r0, #1
 986 0004 FFF7FEFF 		bl	Pin_SS_PCA9959_Write
 987              	.LVL137:
1098:PCA9959.c     ****     PageSel_1(ChSel);
 988              		.loc 1 1098 0
 989 0008 0120     		movs	r0, #1
 990 000a FFF7FEFF 		bl	Pin_OE_PCA9959_1_Write
 991              	.LVL138:
1099:PCA9959.c     ****     PCA9959_Write_1(Ch0_Cf1, 0x00);                       
 992              		.loc 1 1099 0
 993 000e 0120     		movs	r0, #1
 994 0010 FFF7FEFF 		bl	PageSel_1
 995              	.LVL139:
1100:PCA9959.c     ****     PCA9959_Write_1(Ch1_Cf1, 0x00);
 996              		.loc 1 1100 0
 997 0014 0021     		movs	r1, #0
 998 0016 2020     		movs	r0, #32
 999 0018 FFF7FEFF 		bl	PCA9959_Write_1
 1000              	.LVL140:
1101:PCA9959.c     ****     PCA9959_Write_1(Ch2_Cf1, 0x00); 
 1001              		.loc 1 1101 0
 1002 001c 0021     		movs	r1, #0
 1003 001e 2420     		movs	r0, #36
 1004 0020 FFF7FEFF 		bl	PCA9959_Write_1
 1005              	.LVL141:
1102:PCA9959.c     ****     PCA9959_Write_1(Ch3_Cf1, 0x00); 
 1006              		.loc 1 1102 0
 1007 0024 0021     		movs	r1, #0
 1008 0026 2820     		movs	r0, #40
 1009 0028 FFF7FEFF 		bl	PCA9959_Write_1
 1010              	.LVL142:
1103:PCA9959.c     ****     PCA9959_Write_1(Ch4_Cf1, 0x00); 
 1011              		.loc 1 1103 0
 1012 002c 0021     		movs	r1, #0
 1013 002e 2C20     		movs	r0, #44
 1014 0030 FFF7FEFF 		bl	PCA9959_Write_1
 1015              	.LVL143:
1104:PCA9959.c     ****     PCA9959_Write_1(Ch5_Cf1, 0x00); 
 1016              		.loc 1 1104 0
 1017 0034 0021     		movs	r1, #0
 1018 0036 3020     		movs	r0, #48
ARM GAS  C:\Users\Revanth\AppData\Local\Temp\ccqs06ys.s 			page 45


 1019 0038 FFF7FEFF 		bl	PCA9959_Write_1
 1020              	.LVL144:
1105:PCA9959.c     ****     PCA9959_Write_1(Ch6_Cf1, 0x00); 
 1021              		.loc 1 1105 0
 1022 003c 0021     		movs	r1, #0
 1023 003e 3420     		movs	r0, #52
 1024 0040 FFF7FEFF 		bl	PCA9959_Write_1
 1025              	.LVL145:
1106:PCA9959.c     ****     PCA9959_Write_1(Ch7_Cf1, 0x00); 
 1026              		.loc 1 1106 0
 1027 0044 0021     		movs	r1, #0
 1028 0046 3820     		movs	r0, #56
 1029 0048 FFF7FEFF 		bl	PCA9959_Write_1
 1030              	.LVL146:
1107:PCA9959.c     ****     PCA9959_Write_1(Ch8_Cf1, 0x00); 
 1031              		.loc 1 1107 0
 1032 004c 0021     		movs	r1, #0
 1033 004e 3C20     		movs	r0, #60
 1034 0050 FFF7FEFF 		bl	PCA9959_Write_1
 1035              	.LVL147:
1108:PCA9959.c     ****     PCA9959_Write_1(Ch9_Cf1, 0x00); 
 1036              		.loc 1 1108 0
 1037 0054 0021     		movs	r1, #0
 1038 0056 4020     		movs	r0, #64
 1039 0058 FFF7FEFF 		bl	PCA9959_Write_1
 1040              	.LVL148:
1109:PCA9959.c     ****     PCA9959_Write_1(Ch10_Cf1, 0x00); 
 1041              		.loc 1 1109 0
 1042 005c 0021     		movs	r1, #0
 1043 005e 4420     		movs	r0, #68
 1044 0060 FFF7FEFF 		bl	PCA9959_Write_1
 1045              	.LVL149:
1110:PCA9959.c     ****     PCA9959_Write_1(Ch11_Cf1, 0x00);
 1046              		.loc 1 1110 0
 1047 0064 0021     		movs	r1, #0
 1048 0066 4820     		movs	r0, #72
 1049 0068 FFF7FEFF 		bl	PCA9959_Write_1
 1050              	.LVL150:
1111:PCA9959.c     ****     
 1051              		.loc 1 1111 0
 1052 006c 0021     		movs	r1, #0
 1053 006e 4C20     		movs	r0, #76
 1054 0070 FFF7FEFF 		bl	PCA9959_Write_1
 1055              	.LVL151:
1113:PCA9959.c     ****     PCA9959_Write_1(Ch13_Cf1, 0x00);
 1056              		.loc 1 1113 0
 1057 0074 0021     		movs	r1, #0
 1058 0076 5020     		movs	r0, #80
 1059 0078 FFF7FEFF 		bl	PCA9959_Write_1
 1060              	.LVL152:
1114:PCA9959.c     ****     PCA9959_Write_1(Ch14_Cf1, 0x00);
 1061              		.loc 1 1114 0
 1062 007c 0021     		movs	r1, #0
 1063 007e 5420     		movs	r0, #84
 1064 0080 FFF7FEFF 		bl	PCA9959_Write_1
 1065              	.LVL153:
1115:PCA9959.c     ****     PCA9959_Write_1(Ch15_Cf1, 0x00);
ARM GAS  C:\Users\Revanth\AppData\Local\Temp\ccqs06ys.s 			page 46


 1066              		.loc 1 1115 0
 1067 0084 0021     		movs	r1, #0
 1068 0086 5820     		movs	r0, #88
 1069 0088 FFF7FEFF 		bl	PCA9959_Write_1
 1070              	.LVL154:
1116:PCA9959.c     ****     PCA9959_Write_1(Ch16_Cf1, 0x00);
 1071              		.loc 1 1116 0
 1072 008c 0021     		movs	r1, #0
 1073 008e 5C20     		movs	r0, #92
 1074 0090 FFF7FEFF 		bl	PCA9959_Write_1
 1075              	.LVL155:
1117:PCA9959.c     ****     PCA9959_Write_1(Ch17_Cf1, 0x00);
 1076              		.loc 1 1117 0
 1077 0094 0021     		movs	r1, #0
 1078 0096 6020     		movs	r0, #96
 1079 0098 FFF7FEFF 		bl	PCA9959_Write_1
 1080              	.LVL156:
1118:PCA9959.c     ****     PCA9959_Write_1(Ch18_Cf1, 0x00);
 1081              		.loc 1 1118 0
 1082 009c 0021     		movs	r1, #0
 1083 009e 6420     		movs	r0, #100
 1084 00a0 FFF7FEFF 		bl	PCA9959_Write_1
 1085              	.LVL157:
1119:PCA9959.c     ****     PCA9959_Write_1(Ch19_Cf1, 0x00);
 1086              		.loc 1 1119 0
 1087 00a4 0021     		movs	r1, #0
 1088 00a6 6820     		movs	r0, #104
 1089 00a8 FFF7FEFF 		bl	PCA9959_Write_1
 1090              	.LVL158:
1120:PCA9959.c     ****     PCA9959_Write_1(Ch20_Cf1, 0x00);
 1091              		.loc 1 1120 0
 1092 00ac 0021     		movs	r1, #0
 1093 00ae 6C20     		movs	r0, #108
 1094 00b0 FFF7FEFF 		bl	PCA9959_Write_1
 1095              	.LVL159:
1121:PCA9959.c     ****     PCA9959_Write_1(Ch21_Cf1, 0x00);
 1096              		.loc 1 1121 0
 1097 00b4 0021     		movs	r1, #0
 1098 00b6 7020     		movs	r0, #112
 1099 00b8 FFF7FEFF 		bl	PCA9959_Write_1
 1100              	.LVL160:
1122:PCA9959.c     ****     PCA9959_Write_1(Ch22_Cf1, 0x00);
 1101              		.loc 1 1122 0
 1102 00bc 0021     		movs	r1, #0
 1103 00be 7420     		movs	r0, #116
 1104 00c0 FFF7FEFF 		bl	PCA9959_Write_1
 1105              	.LVL161:
1123:PCA9959.c     ****     PCA9959_Write_1(Ch23_Cf1, 0x00);
 1106              		.loc 1 1123 0
 1107 00c4 0021     		movs	r1, #0
 1108 00c6 7820     		movs	r0, #120
 1109 00c8 FFF7FEFF 		bl	PCA9959_Write_1
 1110              	.LVL162:
1124:PCA9959.c     ****     
 1111              		.loc 1 1124 0
 1112 00cc 0021     		movs	r1, #0
 1113 00ce 7C20     		movs	r0, #124
ARM GAS  C:\Users\Revanth\AppData\Local\Temp\ccqs06ys.s 			page 47


 1114 00d0 FFF7FEFF 		bl	PCA9959_Write_1
 1115              	.LVL163:
1128:PCA9959.c     ****     PCA9959_Write_1(Ch1_Cf2, 0x00);
 1116              		.loc 1 1128 0
 1117 00d4 0021     		movs	r1, #0
 1118 00d6 2120     		movs	r0, #33
 1119 00d8 FFF7FEFF 		bl	PCA9959_Write_1
 1120              	.LVL164:
1129:PCA9959.c     ****     PCA9959_Write_1(Ch2_Cf2, 0x00);
 1121              		.loc 1 1129 0
 1122 00dc 0021     		movs	r1, #0
 1123 00de 2520     		movs	r0, #37
 1124 00e0 FFF7FEFF 		bl	PCA9959_Write_1
 1125              	.LVL165:
1130:PCA9959.c     ****     PCA9959_Write_1(Ch3_Cf2, 0x00);
 1126              		.loc 1 1130 0
 1127 00e4 0021     		movs	r1, #0
 1128 00e6 2920     		movs	r0, #41
 1129 00e8 FFF7FEFF 		bl	PCA9959_Write_1
 1130              	.LVL166:
1131:PCA9959.c     ****     PCA9959_Write_1(Ch4_Cf2, 0x00);
 1131              		.loc 1 1131 0
 1132 00ec 0021     		movs	r1, #0
 1133 00ee 2D20     		movs	r0, #45
 1134 00f0 FFF7FEFF 		bl	PCA9959_Write_1
 1135              	.LVL167:
1132:PCA9959.c     ****     PCA9959_Write_1(Ch5_Cf2, 0x00);
 1136              		.loc 1 1132 0
 1137 00f4 0021     		movs	r1, #0
 1138 00f6 3120     		movs	r0, #49
 1139 00f8 FFF7FEFF 		bl	PCA9959_Write_1
 1140              	.LVL168:
1133:PCA9959.c     ****     PCA9959_Write_1(Ch6_Cf2, 0x00);
 1141              		.loc 1 1133 0
 1142 00fc 0021     		movs	r1, #0
 1143 00fe 3520     		movs	r0, #53
 1144 0100 FFF7FEFF 		bl	PCA9959_Write_1
 1145              	.LVL169:
1134:PCA9959.c     ****     PCA9959_Write_1(Ch7_Cf2, 0x00);
 1146              		.loc 1 1134 0
 1147 0104 0021     		movs	r1, #0
 1148 0106 3920     		movs	r0, #57
 1149 0108 FFF7FEFF 		bl	PCA9959_Write_1
 1150              	.LVL170:
1135:PCA9959.c     ****     PCA9959_Write_1(Ch8_Cf2, 0x00);
 1151              		.loc 1 1135 0
 1152 010c 0021     		movs	r1, #0
 1153 010e 3D20     		movs	r0, #61
 1154 0110 FFF7FEFF 		bl	PCA9959_Write_1
 1155              	.LVL171:
1136:PCA9959.c     ****     PCA9959_Write_1(Ch9_Cf2, 0x00);
 1156              		.loc 1 1136 0
 1157 0114 0021     		movs	r1, #0
 1158 0116 4120     		movs	r0, #65
 1159 0118 FFF7FEFF 		bl	PCA9959_Write_1
 1160              	.LVL172:
1137:PCA9959.c     ****     PCA9959_Write_1(Ch10_Cf2, 0x00);
ARM GAS  C:\Users\Revanth\AppData\Local\Temp\ccqs06ys.s 			page 48


 1161              		.loc 1 1137 0
 1162 011c 0021     		movs	r1, #0
 1163 011e 4520     		movs	r0, #69
 1164 0120 FFF7FEFF 		bl	PCA9959_Write_1
 1165              	.LVL173:
1138:PCA9959.c     ****     PCA9959_Write_1(Ch11_Cf2, 0x00);
 1166              		.loc 1 1138 0
 1167 0124 0021     		movs	r1, #0
 1168 0126 4920     		movs	r0, #73
 1169 0128 FFF7FEFF 		bl	PCA9959_Write_1
 1170              	.LVL174:
1139:PCA9959.c     ****     
 1171              		.loc 1 1139 0
 1172 012c 0021     		movs	r1, #0
 1173 012e 4D20     		movs	r0, #77
 1174 0130 FFF7FEFF 		bl	PCA9959_Write_1
 1175              	.LVL175:
1141:PCA9959.c     ****     PCA9959_Write_1(Ch13_Cf2, 0x00);
 1176              		.loc 1 1141 0
 1177 0134 0021     		movs	r1, #0
 1178 0136 5120     		movs	r0, #81
 1179 0138 FFF7FEFF 		bl	PCA9959_Write_1
 1180              	.LVL176:
1142:PCA9959.c     ****     PCA9959_Write_1(Ch14_Cf2, 0x00);
 1181              		.loc 1 1142 0
 1182 013c 0021     		movs	r1, #0
 1183 013e 5520     		movs	r0, #85
 1184 0140 FFF7FEFF 		bl	PCA9959_Write_1
 1185              	.LVL177:
1143:PCA9959.c     ****     PCA9959_Write_1(Ch15_Cf2, 0x00);
 1186              		.loc 1 1143 0
 1187 0144 0021     		movs	r1, #0
 1188 0146 5920     		movs	r0, #89
 1189 0148 FFF7FEFF 		bl	PCA9959_Write_1
 1190              	.LVL178:
1144:PCA9959.c     ****     PCA9959_Write_1(Ch16_Cf2, 0x00);
 1191              		.loc 1 1144 0
 1192 014c 0021     		movs	r1, #0
 1193 014e 5D20     		movs	r0, #93
 1194 0150 FFF7FEFF 		bl	PCA9959_Write_1
 1195              	.LVL179:
1145:PCA9959.c     ****     PCA9959_Write_1(Ch17_Cf2, 0x00);
 1196              		.loc 1 1145 0
 1197 0154 0021     		movs	r1, #0
 1198 0156 6120     		movs	r0, #97
 1199 0158 FFF7FEFF 		bl	PCA9959_Write_1
 1200              	.LVL180:
1146:PCA9959.c     ****     PCA9959_Write_1(Ch18_Cf2, 0x00);
 1201              		.loc 1 1146 0
 1202 015c 0021     		movs	r1, #0
 1203 015e 6520     		movs	r0, #101
 1204 0160 FFF7FEFF 		bl	PCA9959_Write_1
 1205              	.LVL181:
1147:PCA9959.c     ****     PCA9959_Write_1(Ch19_Cf2, 0x00);
 1206              		.loc 1 1147 0
 1207 0164 0021     		movs	r1, #0
 1208 0166 6920     		movs	r0, #105
ARM GAS  C:\Users\Revanth\AppData\Local\Temp\ccqs06ys.s 			page 49


 1209 0168 FFF7FEFF 		bl	PCA9959_Write_1
 1210              	.LVL182:
1148:PCA9959.c     ****     PCA9959_Write_1(Ch20_Cf2, 0x00);
 1211              		.loc 1 1148 0
 1212 016c 0021     		movs	r1, #0
 1213 016e 6D20     		movs	r0, #109
 1214 0170 FFF7FEFF 		bl	PCA9959_Write_1
 1215              	.LVL183:
1149:PCA9959.c     ****     PCA9959_Write_1(Ch21_Cf2, 0x00);
 1216              		.loc 1 1149 0
 1217 0174 0021     		movs	r1, #0
 1218 0176 7120     		movs	r0, #113
 1219 0178 FFF7FEFF 		bl	PCA9959_Write_1
 1220              	.LVL184:
1150:PCA9959.c     ****     PCA9959_Write_1(Ch22_Cf2, 0x00);
 1221              		.loc 1 1150 0
 1222 017c 0021     		movs	r1, #0
 1223 017e 7520     		movs	r0, #117
 1224 0180 FFF7FEFF 		bl	PCA9959_Write_1
 1225              	.LVL185:
1151:PCA9959.c     ****     PCA9959_Write_1(Ch23_Cf2, 0x00);
 1226              		.loc 1 1151 0
 1227 0184 0021     		movs	r1, #0
 1228 0186 7920     		movs	r0, #121
 1229 0188 FFF7FEFF 		bl	PCA9959_Write_1
 1230              	.LVL186:
1152:PCA9959.c     ****     Pin_OE_PCA9959_1_Write(1);
 1231              		.loc 1 1152 0
 1232 018c 0021     		movs	r1, #0
 1233 018e 7D20     		movs	r0, #125
 1234 0190 FFF7FEFF 		bl	PCA9959_Write_1
 1235              	.LVL187:
1153:PCA9959.c     ****     
 1236              		.loc 1 1153 0
 1237 0194 0120     		movs	r0, #1
 1238 0196 FFF7FEFF 		bl	Pin_OE_PCA9959_1_Write
 1239              	.LVL188:
1155:PCA9959.c     ****     PageSel_2(ChSel);
 1240              		.loc 1 1155 0
 1241 019a 0120     		movs	r0, #1
 1242 019c FFF7FEFF 		bl	Pin_OE_PCA9959_2_Write
 1243              	.LVL189:
1156:PCA9959.c     ****     PCA9959_Write_2(Ch0_Cf1, 0x00);                       
 1244              		.loc 1 1156 0
 1245 01a0 0120     		movs	r0, #1
 1246 01a2 FFF7FEFF 		bl	PageSel_2
 1247              	.LVL190:
1157:PCA9959.c     ****     PCA9959_Write_2(Ch1_Cf1, 0x00);
 1248              		.loc 1 1157 0
 1249 01a6 0021     		movs	r1, #0
 1250 01a8 2020     		movs	r0, #32
 1251 01aa FFF7FEFF 		bl	PCA9959_Write_2
 1252              	.LVL191:
1158:PCA9959.c     ****     PCA9959_Write_2(Ch2_Cf1, 0x00); 
 1253              		.loc 1 1158 0
 1254 01ae 0021     		movs	r1, #0
 1255 01b0 2420     		movs	r0, #36
ARM GAS  C:\Users\Revanth\AppData\Local\Temp\ccqs06ys.s 			page 50


 1256 01b2 FFF7FEFF 		bl	PCA9959_Write_2
 1257              	.LVL192:
1159:PCA9959.c     ****     PCA9959_Write_2(Ch3_Cf1, 0x00); 
 1258              		.loc 1 1159 0
 1259 01b6 0021     		movs	r1, #0
 1260 01b8 2820     		movs	r0, #40
 1261 01ba FFF7FEFF 		bl	PCA9959_Write_2
 1262              	.LVL193:
1160:PCA9959.c     ****     PCA9959_Write_2(Ch4_Cf1, 0x00); 
 1263              		.loc 1 1160 0
 1264 01be 0021     		movs	r1, #0
 1265 01c0 2C20     		movs	r0, #44
 1266 01c2 FFF7FEFF 		bl	PCA9959_Write_2
 1267              	.LVL194:
1161:PCA9959.c     ****     PCA9959_Write_2(Ch5_Cf1, 0x00); 
 1268              		.loc 1 1161 0
 1269 01c6 0021     		movs	r1, #0
 1270 01c8 3020     		movs	r0, #48
 1271 01ca FFF7FEFF 		bl	PCA9959_Write_2
 1272              	.LVL195:
1162:PCA9959.c     ****     PCA9959_Write_2(Ch6_Cf1, 0x00); 
 1273              		.loc 1 1162 0
 1274 01ce 0021     		movs	r1, #0
 1275 01d0 3420     		movs	r0, #52
 1276 01d2 FFF7FEFF 		bl	PCA9959_Write_2
 1277              	.LVL196:
1163:PCA9959.c     ****     PCA9959_Write_2(Ch7_Cf1, 0x00); 
 1278              		.loc 1 1163 0
 1279 01d6 0021     		movs	r1, #0
 1280 01d8 3820     		movs	r0, #56
 1281 01da FFF7FEFF 		bl	PCA9959_Write_2
 1282              	.LVL197:
1164:PCA9959.c     ****     PCA9959_Write_2(Ch8_Cf1, 0x00); 
 1283              		.loc 1 1164 0
 1284 01de 0021     		movs	r1, #0
 1285 01e0 3C20     		movs	r0, #60
 1286 01e2 FFF7FEFF 		bl	PCA9959_Write_2
 1287              	.LVL198:
1165:PCA9959.c     ****     PCA9959_Write_2(Ch9_Cf1, 0x00); 
 1288              		.loc 1 1165 0
 1289 01e6 0021     		movs	r1, #0
 1290 01e8 4020     		movs	r0, #64
 1291 01ea FFF7FEFF 		bl	PCA9959_Write_2
 1292              	.LVL199:
1166:PCA9959.c     ****     PCA9959_Write_2(Ch10_Cf1, 0x00);  
 1293              		.loc 1 1166 0
 1294 01ee 0021     		movs	r1, #0
 1295 01f0 4420     		movs	r0, #68
 1296 01f2 FFF7FEFF 		bl	PCA9959_Write_2
 1297              	.LVL200:
1167:PCA9959.c     ****     PCA9959_Write_2(Ch11_Cf1, 0x00);
 1298              		.loc 1 1167 0
 1299 01f6 0021     		movs	r1, #0
 1300 01f8 4820     		movs	r0, #72
 1301 01fa FFF7FEFF 		bl	PCA9959_Write_2
 1302              	.LVL201:
1168:PCA9959.c     ****     
ARM GAS  C:\Users\Revanth\AppData\Local\Temp\ccqs06ys.s 			page 51


 1303              		.loc 1 1168 0
 1304 01fe 0021     		movs	r1, #0
 1305 0200 4C20     		movs	r0, #76
 1306 0202 FFF7FEFF 		bl	PCA9959_Write_2
 1307              	.LVL202:
1170:PCA9959.c     ****     PCA9959_Write_2(Ch13_Cf1, 0x00);
 1308              		.loc 1 1170 0
 1309 0206 0021     		movs	r1, #0
 1310 0208 5020     		movs	r0, #80
 1311 020a FFF7FEFF 		bl	PCA9959_Write_2
 1312              	.LVL203:
1171:PCA9959.c     ****     PCA9959_Write_2(Ch14_Cf1, 0x00);
 1313              		.loc 1 1171 0
 1314 020e 0021     		movs	r1, #0
 1315 0210 5420     		movs	r0, #84
 1316 0212 FFF7FEFF 		bl	PCA9959_Write_2
 1317              	.LVL204:
1172:PCA9959.c     ****     PCA9959_Write_2(Ch15_Cf1, 0x00);
 1318              		.loc 1 1172 0
 1319 0216 0021     		movs	r1, #0
 1320 0218 5820     		movs	r0, #88
 1321 021a FFF7FEFF 		bl	PCA9959_Write_2
 1322              	.LVL205:
1173:PCA9959.c     ****     PCA9959_Write_2(Ch16_Cf1, 0x00);
 1323              		.loc 1 1173 0
 1324 021e 0021     		movs	r1, #0
 1325 0220 5C20     		movs	r0, #92
 1326 0222 FFF7FEFF 		bl	PCA9959_Write_2
 1327              	.LVL206:
1174:PCA9959.c     ****     PCA9959_Write_2(Ch17_Cf1, 0x00);
 1328              		.loc 1 1174 0
 1329 0226 0021     		movs	r1, #0
 1330 0228 6020     		movs	r0, #96
 1331 022a FFF7FEFF 		bl	PCA9959_Write_2
 1332              	.LVL207:
1175:PCA9959.c     ****     PCA9959_Write_2(Ch18_Cf1, 0x00);
 1333              		.loc 1 1175 0
 1334 022e 0021     		movs	r1, #0
 1335 0230 6420     		movs	r0, #100
 1336 0232 FFF7FEFF 		bl	PCA9959_Write_2
 1337              	.LVL208:
1176:PCA9959.c     ****     PCA9959_Write_2(Ch19_Cf1, 0x00);
 1338              		.loc 1 1176 0
 1339 0236 0021     		movs	r1, #0
 1340 0238 6820     		movs	r0, #104
 1341 023a FFF7FEFF 		bl	PCA9959_Write_2
 1342              	.LVL209:
1177:PCA9959.c     ****     PCA9959_Write_2(Ch20_Cf1, 0x00);
 1343              		.loc 1 1177 0
 1344 023e 0021     		movs	r1, #0
 1345 0240 6C20     		movs	r0, #108
 1346 0242 FFF7FEFF 		bl	PCA9959_Write_2
 1347              	.LVL210:
1178:PCA9959.c     ****     PCA9959_Write_2(Ch21_Cf1, 0x00);
 1348              		.loc 1 1178 0
 1349 0246 0021     		movs	r1, #0
 1350 0248 7020     		movs	r0, #112
ARM GAS  C:\Users\Revanth\AppData\Local\Temp\ccqs06ys.s 			page 52


 1351 024a FFF7FEFF 		bl	PCA9959_Write_2
 1352              	.LVL211:
1179:PCA9959.c     ****     PCA9959_Write_2(Ch22_Cf1, 0x00);
 1353              		.loc 1 1179 0
 1354 024e 0021     		movs	r1, #0
 1355 0250 7420     		movs	r0, #116
 1356 0252 FFF7FEFF 		bl	PCA9959_Write_2
 1357              	.LVL212:
1180:PCA9959.c     ****     PCA9959_Write_2(Ch23_Cf1, 0x00);
 1358              		.loc 1 1180 0
 1359 0256 0021     		movs	r1, #0
 1360 0258 7820     		movs	r0, #120
 1361 025a FFF7FEFF 		bl	PCA9959_Write_2
 1362              	.LVL213:
1181:PCA9959.c     ****     
 1363              		.loc 1 1181 0
 1364 025e 0021     		movs	r1, #0
 1365 0260 7C20     		movs	r0, #124
 1366 0262 FFF7FEFF 		bl	PCA9959_Write_2
 1367              	.LVL214:
1185:PCA9959.c     ****     PCA9959_Write_2(Ch1_Cf2, 0x00);
 1368              		.loc 1 1185 0
 1369 0266 0021     		movs	r1, #0
 1370 0268 2120     		movs	r0, #33
 1371 026a FFF7FEFF 		bl	PCA9959_Write_2
 1372              	.LVL215:
1186:PCA9959.c     ****     PCA9959_Write_2(Ch2_Cf2, 0x00);
 1373              		.loc 1 1186 0
 1374 026e 0021     		movs	r1, #0
 1375 0270 2520     		movs	r0, #37
 1376 0272 FFF7FEFF 		bl	PCA9959_Write_2
 1377              	.LVL216:
1187:PCA9959.c     ****     PCA9959_Write_2(Ch3_Cf2, 0x00);
 1378              		.loc 1 1187 0
 1379 0276 0021     		movs	r1, #0
 1380 0278 2920     		movs	r0, #41
 1381 027a FFF7FEFF 		bl	PCA9959_Write_2
 1382              	.LVL217:
1188:PCA9959.c     ****     PCA9959_Write_2(Ch4_Cf2, 0x00);
 1383              		.loc 1 1188 0
 1384 027e 0021     		movs	r1, #0
 1385 0280 2D20     		movs	r0, #45
 1386 0282 FFF7FEFF 		bl	PCA9959_Write_2
 1387              	.LVL218:
1189:PCA9959.c     ****     PCA9959_Write_2(Ch5_Cf2, 0x00);
 1388              		.loc 1 1189 0
 1389 0286 0021     		movs	r1, #0
 1390 0288 3120     		movs	r0, #49
 1391 028a FFF7FEFF 		bl	PCA9959_Write_2
 1392              	.LVL219:
1190:PCA9959.c     ****     PCA9959_Write_2(Ch6_Cf2, 0x00);
 1393              		.loc 1 1190 0
 1394 028e 0021     		movs	r1, #0
 1395 0290 3520     		movs	r0, #53
 1396 0292 FFF7FEFF 		bl	PCA9959_Write_2
 1397              	.LVL220:
1191:PCA9959.c     ****     PCA9959_Write_2(Ch7_Cf2, 0x00);
ARM GAS  C:\Users\Revanth\AppData\Local\Temp\ccqs06ys.s 			page 53


 1398              		.loc 1 1191 0
 1399 0296 0021     		movs	r1, #0
 1400 0298 3920     		movs	r0, #57
 1401 029a FFF7FEFF 		bl	PCA9959_Write_2
 1402              	.LVL221:
1192:PCA9959.c     ****     PCA9959_Write_2(Ch8_Cf2, 0x00);
 1403              		.loc 1 1192 0
 1404 029e 0021     		movs	r1, #0
 1405 02a0 3D20     		movs	r0, #61
 1406 02a2 FFF7FEFF 		bl	PCA9959_Write_2
 1407              	.LVL222:
1193:PCA9959.c     ****     PCA9959_Write_2(Ch9_Cf2, 0x00);
 1408              		.loc 1 1193 0
 1409 02a6 0021     		movs	r1, #0
 1410 02a8 4120     		movs	r0, #65
 1411 02aa FFF7FEFF 		bl	PCA9959_Write_2
 1412              	.LVL223:
1194:PCA9959.c     ****     PCA9959_Write_2(Ch10_Cf2, 0x00);
 1413              		.loc 1 1194 0
 1414 02ae 0021     		movs	r1, #0
 1415 02b0 4520     		movs	r0, #69
 1416 02b2 FFF7FEFF 		bl	PCA9959_Write_2
 1417              	.LVL224:
1195:PCA9959.c     ****     PCA9959_Write_2(Ch11_Cf2, 0x00);
 1418              		.loc 1 1195 0
 1419 02b6 0021     		movs	r1, #0
 1420 02b8 4920     		movs	r0, #73
 1421 02ba FFF7FEFF 		bl	PCA9959_Write_2
 1422              	.LVL225:
1196:PCA9959.c     ****     
 1423              		.loc 1 1196 0
 1424 02be 0021     		movs	r1, #0
 1425 02c0 4D20     		movs	r0, #77
 1426 02c2 FFF7FEFF 		bl	PCA9959_Write_2
 1427              	.LVL226:
1198:PCA9959.c     ****     PCA9959_Write_2(Ch13_Cf2, 0x00);
 1428              		.loc 1 1198 0
 1429 02c6 0021     		movs	r1, #0
 1430 02c8 5120     		movs	r0, #81
 1431 02ca FFF7FEFF 		bl	PCA9959_Write_2
 1432              	.LVL227:
1199:PCA9959.c     ****     PCA9959_Write_2(Ch14_Cf2, 0x00);
 1433              		.loc 1 1199 0
 1434 02ce 0021     		movs	r1, #0
 1435 02d0 5520     		movs	r0, #85
 1436 02d2 FFF7FEFF 		bl	PCA9959_Write_2
 1437              	.LVL228:
1200:PCA9959.c     ****     PCA9959_Write_2(Ch15_Cf2, 0x00);
 1438              		.loc 1 1200 0
 1439 02d6 0021     		movs	r1, #0
 1440 02d8 5920     		movs	r0, #89
 1441 02da FFF7FEFF 		bl	PCA9959_Write_2
 1442              	.LVL229:
1201:PCA9959.c     ****     PCA9959_Write_2(Ch16_Cf2, 0x00);
 1443              		.loc 1 1201 0
 1444 02de 0021     		movs	r1, #0
 1445 02e0 5D20     		movs	r0, #93
ARM GAS  C:\Users\Revanth\AppData\Local\Temp\ccqs06ys.s 			page 54


 1446 02e2 FFF7FEFF 		bl	PCA9959_Write_2
 1447              	.LVL230:
1202:PCA9959.c     ****     PCA9959_Write_2(Ch17_Cf2, 0x00);
 1448              		.loc 1 1202 0
 1449 02e6 0021     		movs	r1, #0
 1450 02e8 6120     		movs	r0, #97
 1451 02ea FFF7FEFF 		bl	PCA9959_Write_2
 1452              	.LVL231:
1203:PCA9959.c     ****     PCA9959_Write_2(Ch18_Cf2, 0x00);
 1453              		.loc 1 1203 0
 1454 02ee 0021     		movs	r1, #0
 1455 02f0 6520     		movs	r0, #101
 1456 02f2 FFF7FEFF 		bl	PCA9959_Write_2
 1457              	.LVL232:
1204:PCA9959.c     ****     PCA9959_Write_2(Ch19_Cf2, 0x00);
 1458              		.loc 1 1204 0
 1459 02f6 0021     		movs	r1, #0
 1460 02f8 6920     		movs	r0, #105
 1461 02fa FFF7FEFF 		bl	PCA9959_Write_2
 1462              	.LVL233:
1205:PCA9959.c     ****     PCA9959_Write_2(Ch20_Cf2, 0x00);
 1463              		.loc 1 1205 0
 1464 02fe 0021     		movs	r1, #0
 1465 0300 6D20     		movs	r0, #109
 1466 0302 FFF7FEFF 		bl	PCA9959_Write_2
 1467              	.LVL234:
1206:PCA9959.c     ****     PCA9959_Write_2(Ch21_Cf2, 0x00);
 1468              		.loc 1 1206 0
 1469 0306 0021     		movs	r1, #0
 1470 0308 7120     		movs	r0, #113
 1471 030a FFF7FEFF 		bl	PCA9959_Write_2
 1472              	.LVL235:
1207:PCA9959.c     ****     PCA9959_Write_2(Ch22_Cf2, 0x00);
 1473              		.loc 1 1207 0
 1474 030e 0021     		movs	r1, #0
 1475 0310 7520     		movs	r0, #117
 1476 0312 FFF7FEFF 		bl	PCA9959_Write_2
 1477              	.LVL236:
1208:PCA9959.c     ****     PCA9959_Write_2(Ch23_Cf2, 0x00);
 1478              		.loc 1 1208 0
 1479 0316 0021     		movs	r1, #0
 1480 0318 7920     		movs	r0, #121
 1481 031a FFF7FEFF 		bl	PCA9959_Write_2
 1482              	.LVL237:
1209:PCA9959.c     ****     Pin_OE_PCA9959_2_Write(1);
 1483              		.loc 1 1209 0
 1484 031e 0021     		movs	r1, #0
 1485 0320 7D20     		movs	r0, #125
 1486 0322 FFF7FEFF 		bl	PCA9959_Write_2
 1487              	.LVL238:
1210:PCA9959.c     ****     
 1488              		.loc 1 1210 0
 1489 0326 0120     		movs	r0, #1
 1490 0328 FFF7FEFF 		bl	Pin_OE_PCA9959_2_Write
 1491              	.LVL239:
1212:PCA9959.c     ****     PageSel_3(ChSel);
 1492              		.loc 1 1212 0
ARM GAS  C:\Users\Revanth\AppData\Local\Temp\ccqs06ys.s 			page 55


 1493 032c 0120     		movs	r0, #1
 1494 032e FFF7FEFF 		bl	Pin_OE_PCA9959_3_Write
 1495              	.LVL240:
1213:PCA9959.c     ****     PCA9959_Write_3(Ch0_Cf1, 0x00);                       
 1496              		.loc 1 1213 0
 1497 0332 0120     		movs	r0, #1
 1498 0334 FFF7FEFF 		bl	PageSel_3
 1499              	.LVL241:
1214:PCA9959.c     ****     PCA9959_Write_3(Ch1_Cf1, 0x00);
 1500              		.loc 1 1214 0
 1501 0338 0021     		movs	r1, #0
 1502 033a 2020     		movs	r0, #32
 1503 033c FFF7FEFF 		bl	PCA9959_Write_3
 1504              	.LVL242:
1215:PCA9959.c     ****     PCA9959_Write_3(Ch2_Cf1, 0x00); 
 1505              		.loc 1 1215 0
 1506 0340 0021     		movs	r1, #0
 1507 0342 2420     		movs	r0, #36
 1508 0344 FFF7FEFF 		bl	PCA9959_Write_3
 1509              	.LVL243:
1216:PCA9959.c     ****     PCA9959_Write_3(Ch3_Cf1, 0x00); 
 1510              		.loc 1 1216 0
 1511 0348 0021     		movs	r1, #0
 1512 034a 2820     		movs	r0, #40
 1513 034c FFF7FEFF 		bl	PCA9959_Write_3
 1514              	.LVL244:
1217:PCA9959.c     ****     PCA9959_Write_3(Ch4_Cf1, 0x00); 
 1515              		.loc 1 1217 0
 1516 0350 0021     		movs	r1, #0
 1517 0352 2C20     		movs	r0, #44
 1518 0354 FFF7FEFF 		bl	PCA9959_Write_3
 1519              	.LVL245:
1218:PCA9959.c     ****     PCA9959_Write_3(Ch5_Cf1, 0x00); 
 1520              		.loc 1 1218 0
 1521 0358 0021     		movs	r1, #0
 1522 035a 3020     		movs	r0, #48
 1523 035c FFF7FEFF 		bl	PCA9959_Write_3
 1524              	.LVL246:
1219:PCA9959.c     ****     PCA9959_Write_3(Ch6_Cf1, 0x00); 
 1525              		.loc 1 1219 0
 1526 0360 0021     		movs	r1, #0
 1527 0362 3420     		movs	r0, #52
 1528 0364 FFF7FEFF 		bl	PCA9959_Write_3
 1529              	.LVL247:
1220:PCA9959.c     ****     PCA9959_Write_3(Ch7_Cf1, 0x00); 
 1530              		.loc 1 1220 0
 1531 0368 0021     		movs	r1, #0
 1532 036a 3820     		movs	r0, #56
 1533 036c FFF7FEFF 		bl	PCA9959_Write_3
 1534              	.LVL248:
1221:PCA9959.c     ****     PCA9959_Write_3(Ch8_Cf1, 0x00); 
 1535              		.loc 1 1221 0
 1536 0370 0021     		movs	r1, #0
 1537 0372 3C20     		movs	r0, #60
 1538 0374 FFF7FEFF 		bl	PCA9959_Write_3
 1539              	.LVL249:
1222:PCA9959.c     ****     PCA9959_Write_3(Ch9_Cf1, 0x00); 
ARM GAS  C:\Users\Revanth\AppData\Local\Temp\ccqs06ys.s 			page 56


 1540              		.loc 1 1222 0
 1541 0378 0021     		movs	r1, #0
 1542 037a 4020     		movs	r0, #64
 1543 037c FFF7FEFF 		bl	PCA9959_Write_3
 1544              	.LVL250:
1223:PCA9959.c     ****     PCA9959_Write_3(Ch10_Cf1, 0x00); 
 1545              		.loc 1 1223 0
 1546 0380 0021     		movs	r1, #0
 1547 0382 4420     		movs	r0, #68
 1548 0384 FFF7FEFF 		bl	PCA9959_Write_3
 1549              	.LVL251:
1224:PCA9959.c     ****     PCA9959_Write_3(Ch11_Cf1, 0x00);
 1550              		.loc 1 1224 0
 1551 0388 0021     		movs	r1, #0
 1552 038a 4820     		movs	r0, #72
 1553 038c FFF7FEFF 		bl	PCA9959_Write_3
 1554              	.LVL252:
1225:PCA9959.c     ****     
 1555              		.loc 1 1225 0
 1556 0390 0021     		movs	r1, #0
 1557 0392 4C20     		movs	r0, #76
 1558 0394 FFF7FEFF 		bl	PCA9959_Write_3
 1559              	.LVL253:
1227:PCA9959.c     ****     PCA9959_Write_3(Ch13_Cf1, 0x00);
 1560              		.loc 1 1227 0
 1561 0398 0021     		movs	r1, #0
 1562 039a 5020     		movs	r0, #80
 1563 039c FFF7FEFF 		bl	PCA9959_Write_3
 1564              	.LVL254:
1228:PCA9959.c     ****     PCA9959_Write_3(Ch14_Cf1, 0x00);
 1565              		.loc 1 1228 0
 1566 03a0 0021     		movs	r1, #0
 1567 03a2 5420     		movs	r0, #84
 1568 03a4 FFF7FEFF 		bl	PCA9959_Write_3
 1569              	.LVL255:
1229:PCA9959.c     ****     PCA9959_Write_3(Ch15_Cf1, 0x00);
 1570              		.loc 1 1229 0
 1571 03a8 0021     		movs	r1, #0
 1572 03aa 5820     		movs	r0, #88
 1573 03ac FFF7FEFF 		bl	PCA9959_Write_3
 1574              	.LVL256:
1230:PCA9959.c     ****     PCA9959_Write_3(Ch16_Cf1, 0x00);
 1575              		.loc 1 1230 0
 1576 03b0 0021     		movs	r1, #0
 1577 03b2 5C20     		movs	r0, #92
 1578 03b4 FFF7FEFF 		bl	PCA9959_Write_3
 1579              	.LVL257:
1231:PCA9959.c     ****     PCA9959_Write_3(Ch17_Cf1, 0x00);
 1580              		.loc 1 1231 0
 1581 03b8 0021     		movs	r1, #0
 1582 03ba 6020     		movs	r0, #96
 1583 03bc FFF7FEFF 		bl	PCA9959_Write_3
 1584              	.LVL258:
1232:PCA9959.c     ****     PCA9959_Write_3(Ch18_Cf1, 0x00);
 1585              		.loc 1 1232 0
 1586 03c0 0021     		movs	r1, #0
 1587 03c2 6420     		movs	r0, #100
ARM GAS  C:\Users\Revanth\AppData\Local\Temp\ccqs06ys.s 			page 57


 1588 03c4 FFF7FEFF 		bl	PCA9959_Write_3
 1589              	.LVL259:
1233:PCA9959.c     ****     PCA9959_Write_3(Ch19_Cf1, 0x00);
 1590              		.loc 1 1233 0
 1591 03c8 0021     		movs	r1, #0
 1592 03ca 6820     		movs	r0, #104
 1593 03cc FFF7FEFF 		bl	PCA9959_Write_3
 1594              	.LVL260:
1234:PCA9959.c     ****     PCA9959_Write_3(Ch20_Cf1, 0x00);
 1595              		.loc 1 1234 0
 1596 03d0 0021     		movs	r1, #0
 1597 03d2 6C20     		movs	r0, #108
 1598 03d4 FFF7FEFF 		bl	PCA9959_Write_3
 1599              	.LVL261:
1235:PCA9959.c     ****     PCA9959_Write_3(Ch21_Cf1, 0x00);
 1600              		.loc 1 1235 0
 1601 03d8 0021     		movs	r1, #0
 1602 03da 7020     		movs	r0, #112
 1603 03dc FFF7FEFF 		bl	PCA9959_Write_3
 1604              	.LVL262:
1236:PCA9959.c     ****     PCA9959_Write_3(Ch22_Cf1, 0x00);
 1605              		.loc 1 1236 0
 1606 03e0 0021     		movs	r1, #0
 1607 03e2 7420     		movs	r0, #116
 1608 03e4 FFF7FEFF 		bl	PCA9959_Write_3
 1609              	.LVL263:
1237:PCA9959.c     ****     PCA9959_Write_3(Ch23_Cf1, 0x00);
 1610              		.loc 1 1237 0
 1611 03e8 0021     		movs	r1, #0
 1612 03ea 7820     		movs	r0, #120
 1613 03ec FFF7FEFF 		bl	PCA9959_Write_3
 1614              	.LVL264:
1238:PCA9959.c     ****     
 1615              		.loc 1 1238 0
 1616 03f0 0021     		movs	r1, #0
 1617 03f2 7C20     		movs	r0, #124
 1618 03f4 FFF7FEFF 		bl	PCA9959_Write_3
 1619              	.LVL265:
1242:PCA9959.c     ****     PCA9959_Write_3(Ch1_Cf2, 0x00);
 1620              		.loc 1 1242 0
 1621 03f8 0021     		movs	r1, #0
 1622 03fa 2120     		movs	r0, #33
 1623 03fc FFF7FEFF 		bl	PCA9959_Write_3
 1624              	.LVL266:
1243:PCA9959.c     ****     PCA9959_Write_3(Ch2_Cf2, 0x00);
 1625              		.loc 1 1243 0
 1626 0400 0021     		movs	r1, #0
 1627 0402 2520     		movs	r0, #37
 1628 0404 FFF7FEFF 		bl	PCA9959_Write_3
 1629              	.LVL267:
1244:PCA9959.c     ****     PCA9959_Write_3(Ch3_Cf2, 0x00);
 1630              		.loc 1 1244 0
 1631 0408 0021     		movs	r1, #0
 1632 040a 2920     		movs	r0, #41
 1633 040c FFF7FEFF 		bl	PCA9959_Write_3
 1634              	.LVL268:
1245:PCA9959.c     ****     PCA9959_Write_3(Ch4_Cf2, 0x00);
ARM GAS  C:\Users\Revanth\AppData\Local\Temp\ccqs06ys.s 			page 58


 1635              		.loc 1 1245 0
 1636 0410 0021     		movs	r1, #0
 1637 0412 2D20     		movs	r0, #45
 1638 0414 FFF7FEFF 		bl	PCA9959_Write_3
 1639              	.LVL269:
1246:PCA9959.c     ****     PCA9959_Write_3(Ch5_Cf2, 0x00);
 1640              		.loc 1 1246 0
 1641 0418 0021     		movs	r1, #0
 1642 041a 3120     		movs	r0, #49
 1643 041c FFF7FEFF 		bl	PCA9959_Write_3
 1644              	.LVL270:
1247:PCA9959.c     ****     PCA9959_Write_3(Ch6_Cf2, 0x00);
 1645              		.loc 1 1247 0
 1646 0420 0021     		movs	r1, #0
 1647 0422 3520     		movs	r0, #53
 1648 0424 FFF7FEFF 		bl	PCA9959_Write_3
 1649              	.LVL271:
1248:PCA9959.c     ****     PCA9959_Write_3(Ch7_Cf2, 0x00);
 1650              		.loc 1 1248 0
 1651 0428 0021     		movs	r1, #0
 1652 042a 3920     		movs	r0, #57
 1653 042c FFF7FEFF 		bl	PCA9959_Write_3
 1654              	.LVL272:
1249:PCA9959.c     ****     PCA9959_Write_3(Ch8_Cf2, 0x00);
 1655              		.loc 1 1249 0
 1656 0430 0021     		movs	r1, #0
 1657 0432 3D20     		movs	r0, #61
 1658 0434 FFF7FEFF 		bl	PCA9959_Write_3
 1659              	.LVL273:
1250:PCA9959.c     ****     PCA9959_Write_3(Ch9_Cf2, 0x00);
 1660              		.loc 1 1250 0
 1661 0438 0021     		movs	r1, #0
 1662 043a 4120     		movs	r0, #65
 1663 043c FFF7FEFF 		bl	PCA9959_Write_3
 1664              	.LVL274:
1251:PCA9959.c     ****     PCA9959_Write_3(Ch10_Cf2, 0x00);
 1665              		.loc 1 1251 0
 1666 0440 0021     		movs	r1, #0
 1667 0442 4520     		movs	r0, #69
 1668 0444 FFF7FEFF 		bl	PCA9959_Write_3
 1669              	.LVL275:
1252:PCA9959.c     ****     PCA9959_Write_3(Ch11_Cf2, 0x00);
 1670              		.loc 1 1252 0
 1671 0448 0021     		movs	r1, #0
 1672 044a 4920     		movs	r0, #73
 1673 044c FFF7FEFF 		bl	PCA9959_Write_3
 1674              	.LVL276:
1253:PCA9959.c     ****     
 1675              		.loc 1 1253 0
 1676 0450 0021     		movs	r1, #0
 1677 0452 4D20     		movs	r0, #77
 1678 0454 FFF7FEFF 		bl	PCA9959_Write_3
 1679              	.LVL277:
1255:PCA9959.c     ****     PCA9959_Write_3(Ch13_Cf2, 0x00);
 1680              		.loc 1 1255 0
 1681 0458 0021     		movs	r1, #0
 1682 045a 5120     		movs	r0, #81
ARM GAS  C:\Users\Revanth\AppData\Local\Temp\ccqs06ys.s 			page 59


 1683 045c FFF7FEFF 		bl	PCA9959_Write_3
 1684              	.LVL278:
1256:PCA9959.c     ****     PCA9959_Write_3(Ch14_Cf2, 0x00);
 1685              		.loc 1 1256 0
 1686 0460 0021     		movs	r1, #0
 1687 0462 5520     		movs	r0, #85
 1688 0464 FFF7FEFF 		bl	PCA9959_Write_3
 1689              	.LVL279:
1257:PCA9959.c     ****     PCA9959_Write_3(Ch15_Cf2, 0x00);
 1690              		.loc 1 1257 0
 1691 0468 0021     		movs	r1, #0
 1692 046a 5920     		movs	r0, #89
 1693 046c FFF7FEFF 		bl	PCA9959_Write_3
 1694              	.LVL280:
1258:PCA9959.c     ****     PCA9959_Write_3(Ch16_Cf2, 0x00);
 1695              		.loc 1 1258 0
 1696 0470 0021     		movs	r1, #0
 1697 0472 5D20     		movs	r0, #93
 1698 0474 FFF7FEFF 		bl	PCA9959_Write_3
 1699              	.LVL281:
1259:PCA9959.c     ****     PCA9959_Write_3(Ch17_Cf2, 0x00);
 1700              		.loc 1 1259 0
 1701 0478 0021     		movs	r1, #0
 1702 047a 6120     		movs	r0, #97
 1703 047c FFF7FEFF 		bl	PCA9959_Write_3
 1704              	.LVL282:
1260:PCA9959.c     ****     PCA9959_Write_3(Ch18_Cf2, 0x00);
 1705              		.loc 1 1260 0
 1706 0480 0021     		movs	r1, #0
 1707 0482 6520     		movs	r0, #101
 1708 0484 FFF7FEFF 		bl	PCA9959_Write_3
 1709              	.LVL283:
1261:PCA9959.c     ****     PCA9959_Write_3(Ch19_Cf2, 0x00);
 1710              		.loc 1 1261 0
 1711 0488 0021     		movs	r1, #0
 1712 048a 6920     		movs	r0, #105
 1713 048c FFF7FEFF 		bl	PCA9959_Write_3
 1714              	.LVL284:
1262:PCA9959.c     ****     PCA9959_Write_3(Ch20_Cf2, 0x00);
 1715              		.loc 1 1262 0
 1716 0490 0021     		movs	r1, #0
 1717 0492 6D20     		movs	r0, #109
 1718 0494 FFF7FEFF 		bl	PCA9959_Write_3
 1719              	.LVL285:
1263:PCA9959.c     ****     PCA9959_Write_3(Ch21_Cf2, 0x00);
 1720              		.loc 1 1263 0
 1721 0498 0021     		movs	r1, #0
 1722 049a 7120     		movs	r0, #113
 1723 049c FFF7FEFF 		bl	PCA9959_Write_3
 1724              	.LVL286:
1264:PCA9959.c     ****     PCA9959_Write_3(Ch22_Cf2, 0x00);
 1725              		.loc 1 1264 0
 1726 04a0 0021     		movs	r1, #0
 1727 04a2 7520     		movs	r0, #117
 1728 04a4 FFF7FEFF 		bl	PCA9959_Write_3
 1729              	.LVL287:
1265:PCA9959.c     ****     PCA9959_Write_3(Ch23_Cf2, 0x00);
ARM GAS  C:\Users\Revanth\AppData\Local\Temp\ccqs06ys.s 			page 60


 1730              		.loc 1 1265 0
 1731 04a8 0021     		movs	r1, #0
 1732 04aa 7920     		movs	r0, #121
 1733 04ac FFF7FEFF 		bl	PCA9959_Write_3
 1734              	.LVL288:
1266:PCA9959.c     ****     Pin_OE_PCA9959_3_Write(1);
 1735              		.loc 1 1266 0
 1736 04b0 0021     		movs	r1, #0
 1737 04b2 7D20     		movs	r0, #125
 1738 04b4 FFF7FEFF 		bl	PCA9959_Write_3
 1739              	.LVL289:
1267:PCA9959.c     ****     
 1740              		.loc 1 1267 0
 1741 04b8 0120     		movs	r0, #1
 1742 04ba FFF7FEFF 		bl	Pin_OE_PCA9959_3_Write
 1743              	.LVL290:
1269:PCA9959.c     ****     PageSel_4(ChSel);
 1744              		.loc 1 1269 0
 1745 04be 0120     		movs	r0, #1
 1746 04c0 FFF7FEFF 		bl	Pin_OE_PCA9959_4_Write
 1747              	.LVL291:
1270:PCA9959.c     ****     PCA9959_Write_4(Ch0_Cf1, 0x00);                    
 1748              		.loc 1 1270 0
 1749 04c4 0120     		movs	r0, #1
 1750 04c6 FFF7FEFF 		bl	PageSel_4
 1751              	.LVL292:
1271:PCA9959.c     ****     PCA9959_Write_4(Ch1_Cf1, 0x00);
 1752              		.loc 1 1271 0
 1753 04ca 0021     		movs	r1, #0
 1754 04cc 2020     		movs	r0, #32
 1755 04ce FFF7FEFF 		bl	PCA9959_Write_4
 1756              	.LVL293:
1272:PCA9959.c     ****     PCA9959_Write_4(Ch2_Cf1, 0x00); 
 1757              		.loc 1 1272 0
 1758 04d2 0021     		movs	r1, #0
 1759 04d4 2420     		movs	r0, #36
 1760 04d6 FFF7FEFF 		bl	PCA9959_Write_4
 1761              	.LVL294:
1273:PCA9959.c     ****     PCA9959_Write_4(Ch3_Cf1, 0x00); 
 1762              		.loc 1 1273 0
 1763 04da 0021     		movs	r1, #0
 1764 04dc 2820     		movs	r0, #40
 1765 04de FFF7FEFF 		bl	PCA9959_Write_4
 1766              	.LVL295:
1274:PCA9959.c     ****     PCA9959_Write_4(Ch4_Cf1, 0x00); 
 1767              		.loc 1 1274 0
 1768 04e2 0021     		movs	r1, #0
 1769 04e4 2C20     		movs	r0, #44
 1770 04e6 FFF7FEFF 		bl	PCA9959_Write_4
 1771              	.LVL296:
1275:PCA9959.c     ****     PCA9959_Write_4(Ch5_Cf1, 0x00); 
 1772              		.loc 1 1275 0
 1773 04ea 0021     		movs	r1, #0
 1774 04ec 3020     		movs	r0, #48
 1775 04ee FFF7FEFF 		bl	PCA9959_Write_4
 1776              	.LVL297:
1276:PCA9959.c     ****     PCA9959_Write_4(Ch6_Cf1, 0x00); 
ARM GAS  C:\Users\Revanth\AppData\Local\Temp\ccqs06ys.s 			page 61


 1777              		.loc 1 1276 0
 1778 04f2 0021     		movs	r1, #0
 1779 04f4 3420     		movs	r0, #52
 1780 04f6 FFF7FEFF 		bl	PCA9959_Write_4
 1781              	.LVL298:
1277:PCA9959.c     ****     PCA9959_Write_4(Ch7_Cf1, 0x00); 
 1782              		.loc 1 1277 0
 1783 04fa 0021     		movs	r1, #0
 1784 04fc 3820     		movs	r0, #56
 1785 04fe FFF7FEFF 		bl	PCA9959_Write_4
 1786              	.LVL299:
1278:PCA9959.c     ****     PCA9959_Write_4(Ch8_Cf1, 0x00); 
 1787              		.loc 1 1278 0
 1788 0502 0021     		movs	r1, #0
 1789 0504 3C20     		movs	r0, #60
 1790 0506 FFF7FEFF 		bl	PCA9959_Write_4
 1791              	.LVL300:
1279:PCA9959.c     ****     PCA9959_Write_4(Ch9_Cf1, 0x00); 
 1792              		.loc 1 1279 0
 1793 050a 0021     		movs	r1, #0
 1794 050c 4020     		movs	r0, #64
 1795 050e FFF7FEFF 		bl	PCA9959_Write_4
 1796              	.LVL301:
1280:PCA9959.c     ****     PCA9959_Write_4(Ch10_Cf1, 0x00); 
 1797              		.loc 1 1280 0
 1798 0512 0021     		movs	r1, #0
 1799 0514 4420     		movs	r0, #68
 1800 0516 FFF7FEFF 		bl	PCA9959_Write_4
 1801              	.LVL302:
1281:PCA9959.c     ****     PCA9959_Write_4(Ch11_Cf1, 0x00);
 1802              		.loc 1 1281 0
 1803 051a 0021     		movs	r1, #0
 1804 051c 4820     		movs	r0, #72
 1805 051e FFF7FEFF 		bl	PCA9959_Write_4
 1806              	.LVL303:
1282:PCA9959.c     ****     
 1807              		.loc 1 1282 0
 1808 0522 0021     		movs	r1, #0
 1809 0524 4C20     		movs	r0, #76
 1810 0526 FFF7FEFF 		bl	PCA9959_Write_4
 1811              	.LVL304:
1284:PCA9959.c     ****     PCA9959_Write_4(Ch13_Cf1, 0x00);
 1812              		.loc 1 1284 0
 1813 052a 0021     		movs	r1, #0
 1814 052c 5020     		movs	r0, #80
 1815 052e FFF7FEFF 		bl	PCA9959_Write_4
 1816              	.LVL305:
1285:PCA9959.c     ****     PCA9959_Write_4(Ch14_Cf1, 0x00);
 1817              		.loc 1 1285 0
 1818 0532 0021     		movs	r1, #0
 1819 0534 5420     		movs	r0, #84
 1820 0536 FFF7FEFF 		bl	PCA9959_Write_4
 1821              	.LVL306:
1286:PCA9959.c     ****     PCA9959_Write_4(Ch15_Cf1, 0x00);
 1822              		.loc 1 1286 0
 1823 053a 0021     		movs	r1, #0
 1824 053c 5820     		movs	r0, #88
ARM GAS  C:\Users\Revanth\AppData\Local\Temp\ccqs06ys.s 			page 62


 1825 053e FFF7FEFF 		bl	PCA9959_Write_4
 1826              	.LVL307:
1287:PCA9959.c     ****     PCA9959_Write_4(Ch16_Cf1, 0x00);
 1827              		.loc 1 1287 0
 1828 0542 0021     		movs	r1, #0
 1829 0544 5C20     		movs	r0, #92
 1830 0546 FFF7FEFF 		bl	PCA9959_Write_4
 1831              	.LVL308:
1288:PCA9959.c     ****     PCA9959_Write_4(Ch17_Cf1, 0x00);
 1832              		.loc 1 1288 0
 1833 054a 0021     		movs	r1, #0
 1834 054c 6020     		movs	r0, #96
 1835 054e FFF7FEFF 		bl	PCA9959_Write_4
 1836              	.LVL309:
1289:PCA9959.c     ****     PCA9959_Write_4(Ch18_Cf1, 0x00);
 1837              		.loc 1 1289 0
 1838 0552 0021     		movs	r1, #0
 1839 0554 6420     		movs	r0, #100
 1840 0556 FFF7FEFF 		bl	PCA9959_Write_4
 1841              	.LVL310:
1290:PCA9959.c     ****     PCA9959_Write_4(Ch19_Cf1, 0x00);
 1842              		.loc 1 1290 0
 1843 055a 0021     		movs	r1, #0
 1844 055c 6820     		movs	r0, #104
 1845 055e FFF7FEFF 		bl	PCA9959_Write_4
 1846              	.LVL311:
1291:PCA9959.c     ****     PCA9959_Write_4(Ch20_Cf1, 0x00);
 1847              		.loc 1 1291 0
 1848 0562 0021     		movs	r1, #0
 1849 0564 6C20     		movs	r0, #108
 1850 0566 FFF7FEFF 		bl	PCA9959_Write_4
 1851              	.LVL312:
1292:PCA9959.c     ****     PCA9959_Write_4(Ch21_Cf1, 0x00);
 1852              		.loc 1 1292 0
 1853 056a 0021     		movs	r1, #0
 1854 056c 7020     		movs	r0, #112
 1855 056e FFF7FEFF 		bl	PCA9959_Write_4
 1856              	.LVL313:
1293:PCA9959.c     ****     PCA9959_Write_4(Ch22_Cf1, 0x00);
 1857              		.loc 1 1293 0
 1858 0572 0021     		movs	r1, #0
 1859 0574 7420     		movs	r0, #116
 1860 0576 FFF7FEFF 		bl	PCA9959_Write_4
 1861              	.LVL314:
1294:PCA9959.c     ****     PCA9959_Write_4(Ch23_Cf1, 0x00);
 1862              		.loc 1 1294 0
 1863 057a 0021     		movs	r1, #0
 1864 057c 7820     		movs	r0, #120
 1865 057e FFF7FEFF 		bl	PCA9959_Write_4
 1866              	.LVL315:
1295:PCA9959.c     ****     
 1867              		.loc 1 1295 0
 1868 0582 0021     		movs	r1, #0
 1869 0584 7C20     		movs	r0, #124
 1870 0586 FFF7FEFF 		bl	PCA9959_Write_4
 1871              	.LVL316:
1299:PCA9959.c     ****     PCA9959_Write_4(Ch1_Cf2, 0x00);
ARM GAS  C:\Users\Revanth\AppData\Local\Temp\ccqs06ys.s 			page 63


 1872              		.loc 1 1299 0
 1873 058a 0021     		movs	r1, #0
 1874 058c 2120     		movs	r0, #33
 1875 058e FFF7FEFF 		bl	PCA9959_Write_4
 1876              	.LVL317:
1300:PCA9959.c     ****     PCA9959_Write_4(Ch2_Cf2, 0x00);
 1877              		.loc 1 1300 0
 1878 0592 0021     		movs	r1, #0
 1879 0594 2520     		movs	r0, #37
 1880 0596 FFF7FEFF 		bl	PCA9959_Write_4
 1881              	.LVL318:
1301:PCA9959.c     ****     PCA9959_Write_4(Ch3_Cf2, 0x00);
 1882              		.loc 1 1301 0
 1883 059a 0021     		movs	r1, #0
 1884 059c 2920     		movs	r0, #41
 1885 059e FFF7FEFF 		bl	PCA9959_Write_4
 1886              	.LVL319:
1302:PCA9959.c     ****     PCA9959_Write_4(Ch4_Cf2, 0x00);
 1887              		.loc 1 1302 0
 1888 05a2 0021     		movs	r1, #0
 1889 05a4 2D20     		movs	r0, #45
 1890 05a6 FFF7FEFF 		bl	PCA9959_Write_4
 1891              	.LVL320:
1303:PCA9959.c     ****     PCA9959_Write_4(Ch5_Cf2, 0x00);
 1892              		.loc 1 1303 0
 1893 05aa 0021     		movs	r1, #0
 1894 05ac 3120     		movs	r0, #49
 1895 05ae FFF7FEFF 		bl	PCA9959_Write_4
 1896              	.LVL321:
1304:PCA9959.c     ****     PCA9959_Write_4(Ch6_Cf2, 0x00);
 1897              		.loc 1 1304 0
 1898 05b2 0021     		movs	r1, #0
 1899 05b4 3520     		movs	r0, #53
 1900 05b6 FFF7FEFF 		bl	PCA9959_Write_4
 1901              	.LVL322:
1305:PCA9959.c     ****     PCA9959_Write_4(Ch7_Cf2, 0x00);
 1902              		.loc 1 1305 0
 1903 05ba 0021     		movs	r1, #0
 1904 05bc 3920     		movs	r0, #57
 1905 05be FFF7FEFF 		bl	PCA9959_Write_4
 1906              	.LVL323:
1306:PCA9959.c     ****     PCA9959_Write_4(Ch8_Cf2, 0x00);
 1907              		.loc 1 1306 0
 1908 05c2 0021     		movs	r1, #0
 1909 05c4 3D20     		movs	r0, #61
 1910 05c6 FFF7FEFF 		bl	PCA9959_Write_4
 1911              	.LVL324:
1307:PCA9959.c     ****     PCA9959_Write_4(Ch9_Cf2, 0x00);
 1912              		.loc 1 1307 0
 1913 05ca 0021     		movs	r1, #0
 1914 05cc 4120     		movs	r0, #65
 1915 05ce FFF7FEFF 		bl	PCA9959_Write_4
 1916              	.LVL325:
1308:PCA9959.c     ****     PCA9959_Write_4(Ch10_Cf2, 0x00);
 1917              		.loc 1 1308 0
 1918 05d2 0021     		movs	r1, #0
 1919 05d4 4520     		movs	r0, #69
ARM GAS  C:\Users\Revanth\AppData\Local\Temp\ccqs06ys.s 			page 64


 1920 05d6 FFF7FEFF 		bl	PCA9959_Write_4
 1921              	.LVL326:
1309:PCA9959.c     ****     PCA9959_Write_4(Ch11_Cf2, 0x00);
 1922              		.loc 1 1309 0
 1923 05da 0021     		movs	r1, #0
 1924 05dc 4920     		movs	r0, #73
 1925 05de FFF7FEFF 		bl	PCA9959_Write_4
 1926              	.LVL327:
1310:PCA9959.c     ****     
 1927              		.loc 1 1310 0
 1928 05e2 0021     		movs	r1, #0
 1929 05e4 4D20     		movs	r0, #77
 1930 05e6 FFF7FEFF 		bl	PCA9959_Write_4
 1931              	.LVL328:
1312:PCA9959.c     ****     PCA9959_Write_4(Ch13_Cf2, 0x00);
 1932              		.loc 1 1312 0
 1933 05ea 0021     		movs	r1, #0
 1934 05ec 5120     		movs	r0, #81
 1935 05ee FFF7FEFF 		bl	PCA9959_Write_4
 1936              	.LVL329:
1313:PCA9959.c     ****     PCA9959_Write_4(Ch14_Cf2, 0x00);
 1937              		.loc 1 1313 0
 1938 05f2 0021     		movs	r1, #0
 1939 05f4 5520     		movs	r0, #85
 1940 05f6 FFF7FEFF 		bl	PCA9959_Write_4
 1941              	.LVL330:
1314:PCA9959.c     ****     PCA9959_Write_4(Ch15_Cf2, 0x00);
 1942              		.loc 1 1314 0
 1943 05fa 0021     		movs	r1, #0
 1944 05fc 5920     		movs	r0, #89
 1945 05fe FFF7FEFF 		bl	PCA9959_Write_4
 1946              	.LVL331:
1315:PCA9959.c     ****     PCA9959_Write_4(Ch16_Cf2, 0x00);
 1947              		.loc 1 1315 0
 1948 0602 0021     		movs	r1, #0
 1949 0604 5D20     		movs	r0, #93
 1950 0606 FFF7FEFF 		bl	PCA9959_Write_4
 1951              	.LVL332:
1316:PCA9959.c     ****     PCA9959_Write_4(Ch17_Cf2, 0x00);
 1952              		.loc 1 1316 0
 1953 060a 0021     		movs	r1, #0
 1954 060c 6120     		movs	r0, #97
 1955 060e FFF7FEFF 		bl	PCA9959_Write_4
 1956              	.LVL333:
1317:PCA9959.c     ****     PCA9959_Write_4(Ch18_Cf2, 0x00);
 1957              		.loc 1 1317 0
 1958 0612 0021     		movs	r1, #0
 1959 0614 6520     		movs	r0, #101
 1960 0616 FFF7FEFF 		bl	PCA9959_Write_4
 1961              	.LVL334:
1318:PCA9959.c     ****     PCA9959_Write_4(Ch19_Cf2, 0x00);
 1962              		.loc 1 1318 0
 1963 061a 0021     		movs	r1, #0
 1964 061c 6920     		movs	r0, #105
 1965 061e FFF7FEFF 		bl	PCA9959_Write_4
 1966              	.LVL335:
1319:PCA9959.c     ****     PCA9959_Write_4(Ch20_Cf2, 0x00);
ARM GAS  C:\Users\Revanth\AppData\Local\Temp\ccqs06ys.s 			page 65


 1967              		.loc 1 1319 0
 1968 0622 0021     		movs	r1, #0
 1969 0624 6D20     		movs	r0, #109
 1970 0626 FFF7FEFF 		bl	PCA9959_Write_4
 1971              	.LVL336:
1320:PCA9959.c     ****     PCA9959_Write_4(Ch21_Cf2, 0x00);
 1972              		.loc 1 1320 0
 1973 062a 0021     		movs	r1, #0
 1974 062c 7120     		movs	r0, #113
 1975 062e FFF7FEFF 		bl	PCA9959_Write_4
 1976              	.LVL337:
1321:PCA9959.c     ****     PCA9959_Write_4(Ch22_Cf2, 0x00);
 1977              		.loc 1 1321 0
 1978 0632 0021     		movs	r1, #0
 1979 0634 7520     		movs	r0, #117
 1980 0636 FFF7FEFF 		bl	PCA9959_Write_4
 1981              	.LVL338:
1322:PCA9959.c     ****     PCA9959_Write_4(Ch23_Cf2, 0x00);
 1982              		.loc 1 1322 0
 1983 063a 0021     		movs	r1, #0
 1984 063c 7920     		movs	r0, #121
 1985 063e FFF7FEFF 		bl	PCA9959_Write_4
 1986              	.LVL339:
1323:PCA9959.c     ****     Pin_OE_PCA9959_4_Write(0);
 1987              		.loc 1 1323 0
 1988 0642 0021     		movs	r1, #0
 1989 0644 7D20     		movs	r0, #125
 1990 0646 FFF7FEFF 		bl	PCA9959_Write_4
 1991              	.LVL340:
1324:PCA9959.c     ****     
 1992              		.loc 1 1324 0
 1993 064a 0020     		movs	r0, #0
 1994 064c FFF7FEFF 		bl	Pin_OE_PCA9959_4_Write
 1995              	.LVL341:
 1996 0650 08BD     		pop	{r3, pc}
 1997              		.cfi_endproc
 1998              	.LFE81:
 1999              		.size	PCA9959_clear, .-PCA9959_clear
 2000 0652 00BF     		.section	.text.Reset_Driver,"ax",%progbits
 2001              		.align	2
 2002              		.global	Reset_Driver
 2003              		.thumb
 2004              		.thumb_func
 2005              		.type	Reset_Driver, %function
 2006              	Reset_Driver:
 2007              	.LFB83:
1340:PCA9959.c     **** 
1341:PCA9959.c     **** void Reset_Driver(void) 
1342:PCA9959.c     **** {
 2008              		.loc 1 1342 0
 2009              		.cfi_startproc
 2010              		@ args = 0, pretend = 0, frame = 0
 2011              		@ frame_needed = 0, uses_anonymous_args = 0
 2012 0000 08B5     		push	{r3, lr}
 2013              		.cfi_def_cfa_offset 8
 2014              		.cfi_offset 3, -8
 2015              		.cfi_offset 14, -4
ARM GAS  C:\Users\Revanth\AppData\Local\Temp\ccqs06ys.s 			page 66


1343:PCA9959.c     ****     Pin_RST_PCA9959_Write(0);
 2016              		.loc 1 1343 0
 2017 0002 0020     		movs	r0, #0
 2018 0004 FFF7FEFF 		bl	Pin_RST_PCA9959_Write
 2019              	.LVL342:
1344:PCA9959.c     ****     CyDelayUs(1);
 2020              		.loc 1 1344 0
 2021 0008 0120     		movs	r0, #1
 2022 000a FFF7FEFF 		bl	CyDelayUs
 2023              	.LVL343:
1345:PCA9959.c     ****     Pin_RST_PCA9959_Write(1);
 2024              		.loc 1 1345 0
 2025 000e 0120     		movs	r0, #1
 2026 0010 FFF7FEFF 		bl	Pin_RST_PCA9959_Write
 2027              	.LVL344:
1346:PCA9959.c     ****     CyDelayUs(1);
 2028              		.loc 1 1346 0
 2029 0014 0120     		movs	r0, #1
 2030 0016 FFF7FEFF 		bl	CyDelayUs
 2031              	.LVL345:
 2032 001a 08BD     		pop	{r3, pc}
 2033              		.cfi_endproc
 2034              	.LFE83:
 2035              		.size	Reset_Driver, .-Reset_Driver
 2036              		.section	.text.PCA9959_Init_all,"ax",%progbits
 2037              		.align	2
 2038              		.global	PCA9959_Init_all
 2039              		.thumb
 2040              		.thumb_func
 2041              		.type	PCA9959_Init_all, %function
 2042              	PCA9959_Init_all:
 2043              	.LFB71:
 139:PCA9959.c     ****    Reset_Driver();
 2044              		.loc 1 139 0
 2045              		.cfi_startproc
 2046              		@ args = 0, pretend = 0, frame = 0
 2047              		@ frame_needed = 0, uses_anonymous_args = 0
 2048 0000 08B5     		push	{r3, lr}
 2049              		.cfi_def_cfa_offset 8
 2050              		.cfi_offset 3, -8
 2051              		.cfi_offset 14, -4
 140:PCA9959.c     ****    PCA9959_Init_1();
 2052              		.loc 1 140 0
 2053 0002 FFF7FEFF 		bl	Reset_Driver
 2054              	.LVL346:
 141:PCA9959.c     ****    PCA9959_Init_2();
 2055              		.loc 1 141 0
 2056 0006 FFF7FEFF 		bl	PCA9959_Init_1
 2057              	.LVL347:
 142:PCA9959.c     ****    PCA9959_Init_3();
 2058              		.loc 1 142 0
 2059 000a FFF7FEFF 		bl	PCA9959_Init_2
 2060              	.LVL348:
 143:PCA9959.c     ****    PCA9959_Init_4();
 2061              		.loc 1 143 0
 2062 000e FFF7FEFF 		bl	PCA9959_Init_3
 2063              	.LVL349:
ARM GAS  C:\Users\Revanth\AppData\Local\Temp\ccqs06ys.s 			page 67


 144:PCA9959.c     **** }
 2064              		.loc 1 144 0
 2065 0012 FFF7FEFF 		bl	PCA9959_Init_4
 2066              	.LVL350:
 2067 0016 08BD     		pop	{r3, pc}
 2068              		.cfi_endproc
 2069              	.LFE71:
 2070              		.size	PCA9959_Init_all, .-PCA9959_Init_all
 2071              		.section	.text.PCA9959_ChnEn,"ax",%progbits
 2072              		.align	2
 2073              		.global	PCA9959_ChnEn
 2074              		.thumb
 2075              		.thumb_func
 2076              		.type	PCA9959_ChnEn, %function
 2077              	PCA9959_ChnEn:
 2078              	.LFB80:
 291:PCA9959.c     **** 
 2079              		.loc 1 291 0
 2080              		.cfi_startproc
 2081              		@ args = 0, pretend = 0, frame = 0
 2082              		@ frame_needed = 0, uses_anonymous_args = 0
 2083              	.LVL351:
 2084 0000 38B5     		push	{r3, r4, r5, lr}
 2085              		.cfi_def_cfa_offset 16
 2086              		.cfi_offset 3, -16
 2087              		.cfi_offset 4, -12
 2088              		.cfi_offset 5, -8
 2089              		.cfi_offset 14, -4
 2090 0002 0546     		mov	r5, r0
 2091 0004 0C46     		mov	r4, r1
 293:PCA9959.c     ****     CyDelayUs(1);
 2092              		.loc 1 293 0
 2093 0006 FFF7FEFF 		bl	PCA9959_Init_all
 2094              	.LVL352:
 294:PCA9959.c     ****     if(Brg <= 255)
 2095              		.loc 1 294 0
 2096 000a 0120     		movs	r0, #1
 2097 000c FFF7FEFF 		bl	CyDelayUs
 2098              	.LVL353:
 299:PCA9959.c     ****         {
 2099              		.loc 1 299 0
 2100 0010 012C     		cmp	r4, #1
 2101 0012 40F0CA80 		bne	.L76
 301:PCA9959.c     ****             PageSel_1(ChSel);
 2102              		.loc 1 301 0
 2103 0016 0120     		movs	r0, #1
 2104 0018 FFF7FEFF 		bl	Pin_OE_PCA9959_1_Write
 2105              	.LVL354:
 302:PCA9959.c     ****             PCA9959_Write_1(Ch0_Cf1, 0x00);                       //LED Channel 0 is assigned to Gr
 2106              		.loc 1 302 0
 2107 001c 0120     		movs	r0, #1
 2108 001e FFF7FEFF 		bl	PageSel_1
 2109              	.LVL355:
 303:PCA9959.c     ****             PCA9959_Write_1(Ch1_Cf1, 0x00);
 2110              		.loc 1 303 0
 2111 0022 0021     		movs	r1, #0
 2112 0024 2020     		movs	r0, #32
ARM GAS  C:\Users\Revanth\AppData\Local\Temp\ccqs06ys.s 			page 68


 2113 0026 FFF7FEFF 		bl	PCA9959_Write_1
 2114              	.LVL356:
 304:PCA9959.c     ****             PCA9959_Write_1(Ch2_Cf1, 0x00); 
 2115              		.loc 1 304 0
 2116 002a 0021     		movs	r1, #0
 2117 002c 2420     		movs	r0, #36
 2118 002e FFF7FEFF 		bl	PCA9959_Write_1
 2119              	.LVL357:
 305:PCA9959.c     ****             PCA9959_Write_1(Ch3_Cf1, 0x00); 
 2120              		.loc 1 305 0
 2121 0032 0021     		movs	r1, #0
 2122 0034 2820     		movs	r0, #40
 2123 0036 FFF7FEFF 		bl	PCA9959_Write_1
 2124              	.LVL358:
 306:PCA9959.c     ****             PCA9959_Write_1(Ch4_Cf1, 0x00); 
 2125              		.loc 1 306 0
 2126 003a 0021     		movs	r1, #0
 2127 003c 2C20     		movs	r0, #44
 2128 003e FFF7FEFF 		bl	PCA9959_Write_1
 2129              	.LVL359:
 307:PCA9959.c     ****             PCA9959_Write_1(Ch5_Cf1, 0x00); 
 2130              		.loc 1 307 0
 2131 0042 0021     		movs	r1, #0
 2132 0044 3020     		movs	r0, #48
 2133 0046 FFF7FEFF 		bl	PCA9959_Write_1
 2134              	.LVL360:
 308:PCA9959.c     ****             PCA9959_Write_1(Ch6_Cf1, 0x00); 
 2135              		.loc 1 308 0
 2136 004a 0021     		movs	r1, #0
 2137 004c 3420     		movs	r0, #52
 2138 004e FFF7FEFF 		bl	PCA9959_Write_1
 2139              	.LVL361:
 309:PCA9959.c     ****             PCA9959_Write_1(Ch7_Cf1, 0x00); 
 2140              		.loc 1 309 0
 2141 0052 0021     		movs	r1, #0
 2142 0054 3820     		movs	r0, #56
 2143 0056 FFF7FEFF 		bl	PCA9959_Write_1
 2144              	.LVL362:
 310:PCA9959.c     ****             PCA9959_Write_1(Ch8_Cf1, 0x00); 
 2145              		.loc 1 310 0
 2146 005a 0021     		movs	r1, #0
 2147 005c 3C20     		movs	r0, #60
 2148 005e FFF7FEFF 		bl	PCA9959_Write_1
 2149              	.LVL363:
 311:PCA9959.c     ****             PCA9959_Write_1(Ch9_Cf1, 0x00); 
 2150              		.loc 1 311 0
 2151 0062 0021     		movs	r1, #0
 2152 0064 4020     		movs	r0, #64
 2153 0066 FFF7FEFF 		bl	PCA9959_Write_1
 2154              	.LVL364:
 312:PCA9959.c     ****             PCA9959_Write_1(Ch10_Cf1, 0x01);  //
 2155              		.loc 1 312 0
 2156 006a 0021     		movs	r1, #0
 2157 006c 4420     		movs	r0, #68
 2158 006e FFF7FEFF 		bl	PCA9959_Write_1
 2159              	.LVL365:
 313:PCA9959.c     ****             PCA9959_Write_1(Ch11_Cf1, 0x00);
ARM GAS  C:\Users\Revanth\AppData\Local\Temp\ccqs06ys.s 			page 69


 2160              		.loc 1 313 0
 2161 0072 0121     		movs	r1, #1
 2162 0074 4820     		movs	r0, #72
 2163 0076 FFF7FEFF 		bl	PCA9959_Write_1
 2164              	.LVL366:
 314:PCA9959.c     ****             
 2165              		.loc 1 314 0
 2166 007a 0021     		movs	r1, #0
 2167 007c 4C20     		movs	r0, #76
 2168 007e FFF7FEFF 		bl	PCA9959_Write_1
 2169              	.LVL367:
 316:PCA9959.c     ****             PCA9959_Write_1(Ch13_Cf1, 0x00);
 2170              		.loc 1 316 0
 2171 0082 0021     		movs	r1, #0
 2172 0084 5020     		movs	r0, #80
 2173 0086 FFF7FEFF 		bl	PCA9959_Write_1
 2174              	.LVL368:
 317:PCA9959.c     ****             PCA9959_Write_1(Ch14_Cf1, 0x00);
 2175              		.loc 1 317 0
 2176 008a 0021     		movs	r1, #0
 2177 008c 5420     		movs	r0, #84
 2178 008e FFF7FEFF 		bl	PCA9959_Write_1
 2179              	.LVL369:
 318:PCA9959.c     ****             PCA9959_Write_1(Ch15_Cf1, 0x00);
 2180              		.loc 1 318 0
 2181 0092 0021     		movs	r1, #0
 2182 0094 5820     		movs	r0, #88
 2183 0096 FFF7FEFF 		bl	PCA9959_Write_1
 2184              	.LVL370:
 319:PCA9959.c     ****             PCA9959_Write_1(Ch16_Cf1, 0x00);
 2185              		.loc 1 319 0
 2186 009a 0021     		movs	r1, #0
 2187 009c 5C20     		movs	r0, #92
 2188 009e FFF7FEFF 		bl	PCA9959_Write_1
 2189              	.LVL371:
 320:PCA9959.c     ****             PCA9959_Write_1(Ch17_Cf1, 0x00);
 2190              		.loc 1 320 0
 2191 00a2 0021     		movs	r1, #0
 2192 00a4 6020     		movs	r0, #96
 2193 00a6 FFF7FEFF 		bl	PCA9959_Write_1
 2194              	.LVL372:
 321:PCA9959.c     ****             PCA9959_Write_1(Ch18_Cf1, 0x00);
 2195              		.loc 1 321 0
 2196 00aa 0021     		movs	r1, #0
 2197 00ac 6420     		movs	r0, #100
 2198 00ae FFF7FEFF 		bl	PCA9959_Write_1
 2199              	.LVL373:
 322:PCA9959.c     ****             PCA9959_Write_1(Ch19_Cf1, 0x00);
 2200              		.loc 1 322 0
 2201 00b2 0021     		movs	r1, #0
 2202 00b4 6820     		movs	r0, #104
 2203 00b6 FFF7FEFF 		bl	PCA9959_Write_1
 2204              	.LVL374:
 323:PCA9959.c     ****             PCA9959_Write_1(Ch20_Cf1, 0x00);
 2205              		.loc 1 323 0
 2206 00ba 0021     		movs	r1, #0
 2207 00bc 6C20     		movs	r0, #108
ARM GAS  C:\Users\Revanth\AppData\Local\Temp\ccqs06ys.s 			page 70


 2208 00be FFF7FEFF 		bl	PCA9959_Write_1
 2209              	.LVL375:
 324:PCA9959.c     ****             PCA9959_Write_1(Ch21_Cf1, 0x00);
 2210              		.loc 1 324 0
 2211 00c2 0021     		movs	r1, #0
 2212 00c4 7020     		movs	r0, #112
 2213 00c6 FFF7FEFF 		bl	PCA9959_Write_1
 2214              	.LVL376:
 325:PCA9959.c     ****             PCA9959_Write_1(Ch22_Cf1, 0x00);
 2215              		.loc 1 325 0
 2216 00ca 0021     		movs	r1, #0
 2217 00cc 7420     		movs	r0, #116
 2218 00ce FFF7FEFF 		bl	PCA9959_Write_1
 2219              	.LVL377:
 326:PCA9959.c     ****             PCA9959_Write_1(Ch23_Cf1, 0x00);
 2220              		.loc 1 326 0
 2221 00d2 0021     		movs	r1, #0
 2222 00d4 7820     		movs	r0, #120
 2223 00d6 FFF7FEFF 		bl	PCA9959_Write_1
 2224              	.LVL378:
 327:PCA9959.c     ****             
 2225              		.loc 1 327 0
 2226 00da 0021     		movs	r1, #0
 2227 00dc 7C20     		movs	r0, #124
 2228 00de FFF7FEFF 		bl	PCA9959_Write_1
 2229              	.LVL379:
 331:PCA9959.c     ****             PCA9959_Write_1(Ch1_Cf2, 0x00);
 2230              		.loc 1 331 0
 2231 00e2 0021     		movs	r1, #0
 2232 00e4 2120     		movs	r0, #33
 2233 00e6 FFF7FEFF 		bl	PCA9959_Write_1
 2234              	.LVL380:
 332:PCA9959.c     ****             PCA9959_Write_1(Ch2_Cf2, 0x00);
 2235              		.loc 1 332 0
 2236 00ea 0021     		movs	r1, #0
 2237 00ec 2520     		movs	r0, #37
 2238 00ee FFF7FEFF 		bl	PCA9959_Write_1
 2239              	.LVL381:
 333:PCA9959.c     ****             PCA9959_Write_1(Ch3_Cf2, 0x00);
 2240              		.loc 1 333 0
 2241 00f2 0021     		movs	r1, #0
 2242 00f4 2920     		movs	r0, #41
 2243 00f6 FFF7FEFF 		bl	PCA9959_Write_1
 2244              	.LVL382:
 334:PCA9959.c     ****             PCA9959_Write_1(Ch4_Cf2, 0x00);
 2245              		.loc 1 334 0
 2246 00fa 0021     		movs	r1, #0
 2247 00fc 2D20     		movs	r0, #45
 2248 00fe FFF7FEFF 		bl	PCA9959_Write_1
 2249              	.LVL383:
 335:PCA9959.c     ****             PCA9959_Write_1(Ch5_Cf2, 0x00);
 2250              		.loc 1 335 0
 2251 0102 0021     		movs	r1, #0
 2252 0104 3120     		movs	r0, #49
 2253 0106 FFF7FEFF 		bl	PCA9959_Write_1
 2254              	.LVL384:
 336:PCA9959.c     ****             PCA9959_Write_1(Ch6_Cf2, 0x00);
ARM GAS  C:\Users\Revanth\AppData\Local\Temp\ccqs06ys.s 			page 71


 2255              		.loc 1 336 0
 2256 010a 0021     		movs	r1, #0
 2257 010c 3520     		movs	r0, #53
 2258 010e FFF7FEFF 		bl	PCA9959_Write_1
 2259              	.LVL385:
 337:PCA9959.c     ****             PCA9959_Write_1(Ch7_Cf2, 0x00);
 2260              		.loc 1 337 0
 2261 0112 0021     		movs	r1, #0
 2262 0114 3920     		movs	r0, #57
 2263 0116 FFF7FEFF 		bl	PCA9959_Write_1
 2264              	.LVL386:
 338:PCA9959.c     ****             PCA9959_Write_1(Ch8_Cf2, 0x00);
 2265              		.loc 1 338 0
 2266 011a 0021     		movs	r1, #0
 2267 011c 3D20     		movs	r0, #61
 2268 011e FFF7FEFF 		bl	PCA9959_Write_1
 2269              	.LVL387:
 339:PCA9959.c     ****             PCA9959_Write_1(Ch9_Cf2, 0x00);
 2270              		.loc 1 339 0
 2271 0122 0021     		movs	r1, #0
 2272 0124 4120     		movs	r0, #65
 2273 0126 FFF7FEFF 		bl	PCA9959_Write_1
 2274              	.LVL388:
 340:PCA9959.c     ****             PCA9959_Write_1(Ch10_Cf2, Brg);
 2275              		.loc 1 340 0
 2276 012a 0021     		movs	r1, #0
 2277 012c 4520     		movs	r0, #69
 2278 012e FFF7FEFF 		bl	PCA9959_Write_1
 2279              	.LVL389:
 341:PCA9959.c     ****             PCA9959_Write_1(Ch11_Cf2, 0x00);
 2280              		.loc 1 341 0
 2281 0132 2946     		mov	r1, r5
 2282 0134 4920     		movs	r0, #73
 2283 0136 FFF7FEFF 		bl	PCA9959_Write_1
 2284              	.LVL390:
 342:PCA9959.c     ****             
 2285              		.loc 1 342 0
 2286 013a 0021     		movs	r1, #0
 2287 013c 4D20     		movs	r0, #77
 2288 013e FFF7FEFF 		bl	PCA9959_Write_1
 2289              	.LVL391:
 344:PCA9959.c     ****             PCA9959_Write_1(Ch13_Cf2, 0x00);
 2290              		.loc 1 344 0
 2291 0142 0021     		movs	r1, #0
 2292 0144 5120     		movs	r0, #81
 2293 0146 FFF7FEFF 		bl	PCA9959_Write_1
 2294              	.LVL392:
 345:PCA9959.c     ****             PCA9959_Write_1(Ch14_Cf2, 0x00);
 2295              		.loc 1 345 0
 2296 014a 0021     		movs	r1, #0
 2297 014c 5520     		movs	r0, #85
 2298 014e FFF7FEFF 		bl	PCA9959_Write_1
 2299              	.LVL393:
 346:PCA9959.c     ****             PCA9959_Write_1(Ch15_Cf2, 0x00);
 2300              		.loc 1 346 0
 2301 0152 0021     		movs	r1, #0
 2302 0154 5920     		movs	r0, #89
ARM GAS  C:\Users\Revanth\AppData\Local\Temp\ccqs06ys.s 			page 72


 2303 0156 FFF7FEFF 		bl	PCA9959_Write_1
 2304              	.LVL394:
 347:PCA9959.c     ****             PCA9959_Write_1(Ch16_Cf2, 0x00);
 2305              		.loc 1 347 0
 2306 015a 0021     		movs	r1, #0
 2307 015c 5D20     		movs	r0, #93
 2308 015e FFF7FEFF 		bl	PCA9959_Write_1
 2309              	.LVL395:
 348:PCA9959.c     ****             PCA9959_Write_1(Ch17_Cf2, 0x00);
 2310              		.loc 1 348 0
 2311 0162 0021     		movs	r1, #0
 2312 0164 6120     		movs	r0, #97
 2313 0166 FFF7FEFF 		bl	PCA9959_Write_1
 2314              	.LVL396:
 349:PCA9959.c     ****             PCA9959_Write_1(Ch18_Cf2, 0x00);
 2315              		.loc 1 349 0
 2316 016a 0021     		movs	r1, #0
 2317 016c 6520     		movs	r0, #101
 2318 016e FFF7FEFF 		bl	PCA9959_Write_1
 2319              	.LVL397:
 350:PCA9959.c     ****             PCA9959_Write_1(Ch19_Cf2, 0x00);
 2320              		.loc 1 350 0
 2321 0172 0021     		movs	r1, #0
 2322 0174 6920     		movs	r0, #105
 2323 0176 FFF7FEFF 		bl	PCA9959_Write_1
 2324              	.LVL398:
 351:PCA9959.c     ****             PCA9959_Write_1(Ch20_Cf2, 0x00);
 2325              		.loc 1 351 0
 2326 017a 0021     		movs	r1, #0
 2327 017c 6D20     		movs	r0, #109
 2328 017e FFF7FEFF 		bl	PCA9959_Write_1
 2329              	.LVL399:
 352:PCA9959.c     ****             PCA9959_Write_1(Ch21_Cf2, 0x00);
 2330              		.loc 1 352 0
 2331 0182 0021     		movs	r1, #0
 2332 0184 7120     		movs	r0, #113
 2333 0186 FFF7FEFF 		bl	PCA9959_Write_1
 2334              	.LVL400:
 353:PCA9959.c     ****             PCA9959_Write_1(Ch22_Cf2, 0x00);
 2335              		.loc 1 353 0
 2336 018a 0021     		movs	r1, #0
 2337 018c 7520     		movs	r0, #117
 2338 018e FFF7FEFF 		bl	PCA9959_Write_1
 2339              	.LVL401:
 354:PCA9959.c     ****             PCA9959_Write_1(Ch23_Cf2, 0x00);
 2340              		.loc 1 354 0
 2341 0192 0021     		movs	r1, #0
 2342 0194 7920     		movs	r0, #121
 2343 0196 FFF7FEFF 		bl	PCA9959_Write_1
 2344              	.LVL402:
 355:PCA9959.c     ****             Pin_OE_PCA9959_1_Write(0);
 2345              		.loc 1 355 0
 2346 019a 0021     		movs	r1, #0
 2347 019c 7D20     		movs	r0, #125
 2348 019e FFF7FEFF 		bl	PCA9959_Write_1
 2349              	.LVL403:
 356:PCA9959.c     ****         }
ARM GAS  C:\Users\Revanth\AppData\Local\Temp\ccqs06ys.s 			page 73


 2350              		.loc 1 356 0
 2351 01a2 0020     		movs	r0, #0
 2352 01a4 FFF7FEFF 		bl	Pin_OE_PCA9959_1_Write
 2353              	.LVL404:
 2354 01a8 38BD     		pop	{r3, r4, r5, pc}
 2355              	.L76:
 359:PCA9959.c     ****         {
 2356              		.loc 1 359 0
 2357 01aa 022C     		cmp	r4, #2
 2358 01ac 40F0CA80 		bne	.L78
 361:PCA9959.c     ****             PageSel_1(ChSel);
 2359              		.loc 1 361 0
 2360 01b0 0120     		movs	r0, #1
 2361 01b2 FFF7FEFF 		bl	Pin_OE_PCA9959_1_Write
 2362              	.LVL405:
 362:PCA9959.c     ****             PCA9959_Write_1(Ch0_Cf1, 0x00);                       //LED Channel 0 is assigned to Gr
 2363              		.loc 1 362 0
 2364 01b6 0120     		movs	r0, #1
 2365 01b8 FFF7FEFF 		bl	PageSel_1
 2366              	.LVL406:
 363:PCA9959.c     ****             PCA9959_Write_1(Ch1_Cf1, 0x00);
 2367              		.loc 1 363 0
 2368 01bc 0021     		movs	r1, #0
 2369 01be 2020     		movs	r0, #32
 2370 01c0 FFF7FEFF 		bl	PCA9959_Write_1
 2371              	.LVL407:
 364:PCA9959.c     ****             PCA9959_Write_1(Ch2_Cf1, 0x00); 
 2372              		.loc 1 364 0
 2373 01c4 0021     		movs	r1, #0
 2374 01c6 2420     		movs	r0, #36
 2375 01c8 FFF7FEFF 		bl	PCA9959_Write_1
 2376              	.LVL408:
 365:PCA9959.c     ****             PCA9959_Write_1(Ch3_Cf1, 0x00); 
 2377              		.loc 1 365 0
 2378 01cc 0021     		movs	r1, #0
 2379 01ce 2820     		movs	r0, #40
 2380 01d0 FFF7FEFF 		bl	PCA9959_Write_1
 2381              	.LVL409:
 366:PCA9959.c     ****             PCA9959_Write_1(Ch4_Cf1, 0x00); 
 2382              		.loc 1 366 0
 2383 01d4 0021     		movs	r1, #0
 2384 01d6 2C20     		movs	r0, #44
 2385 01d8 FFF7FEFF 		bl	PCA9959_Write_1
 2386              	.LVL410:
 367:PCA9959.c     ****             PCA9959_Write_1(Ch5_Cf1, 0x00); 
 2387              		.loc 1 367 0
 2388 01dc 0021     		movs	r1, #0
 2389 01de 3020     		movs	r0, #48
 2390 01e0 FFF7FEFF 		bl	PCA9959_Write_1
 2391              	.LVL411:
 368:PCA9959.c     ****             PCA9959_Write_1(Ch6_Cf1, 0x01);  //
 2392              		.loc 1 368 0
 2393 01e4 0021     		movs	r1, #0
 2394 01e6 3420     		movs	r0, #52
 2395 01e8 FFF7FEFF 		bl	PCA9959_Write_1
 2396              	.LVL412:
 369:PCA9959.c     ****             PCA9959_Write_1(Ch7_Cf1, 0x00); 
ARM GAS  C:\Users\Revanth\AppData\Local\Temp\ccqs06ys.s 			page 74


 2397              		.loc 1 369 0
 2398 01ec 0121     		movs	r1, #1
 2399 01ee 3820     		movs	r0, #56
 2400 01f0 FFF7FEFF 		bl	PCA9959_Write_1
 2401              	.LVL413:
 370:PCA9959.c     ****             PCA9959_Write_1(Ch8_Cf1, 0x00); 
 2402              		.loc 1 370 0
 2403 01f4 0021     		movs	r1, #0
 2404 01f6 3C20     		movs	r0, #60
 2405 01f8 FFF7FEFF 		bl	PCA9959_Write_1
 2406              	.LVL414:
 371:PCA9959.c     ****             PCA9959_Write_1(Ch9_Cf1, 0x01);  //
 2407              		.loc 1 371 0
 2408 01fc 0021     		movs	r1, #0
 2409 01fe 4020     		movs	r0, #64
 2410 0200 FFF7FEFF 		bl	PCA9959_Write_1
 2411              	.LVL415:
 372:PCA9959.c     ****             PCA9959_Write_1(Ch10_Cf1, 0x00); 
 2412              		.loc 1 372 0
 2413 0204 0121     		movs	r1, #1
 2414 0206 4420     		movs	r0, #68
 2415 0208 FFF7FEFF 		bl	PCA9959_Write_1
 2416              	.LVL416:
 373:PCA9959.c     ****             PCA9959_Write_1(Ch11_Cf1, 0x00);
 2417              		.loc 1 373 0
 2418 020c 0021     		movs	r1, #0
 2419 020e 4820     		movs	r0, #72
 2420 0210 FFF7FEFF 		bl	PCA9959_Write_1
 2421              	.LVL417:
 374:PCA9959.c     ****             
 2422              		.loc 1 374 0
 2423 0214 0021     		movs	r1, #0
 2424 0216 4C20     		movs	r0, #76
 2425 0218 FFF7FEFF 		bl	PCA9959_Write_1
 2426              	.LVL418:
 376:PCA9959.c     ****             PCA9959_Write_1(Ch13_Cf1, 0x01); //
 2427              		.loc 1 376 0
 2428 021c 0021     		movs	r1, #0
 2429 021e 5020     		movs	r0, #80
 2430 0220 FFF7FEFF 		bl	PCA9959_Write_1
 2431              	.LVL419:
 377:PCA9959.c     ****             PCA9959_Write_1(Ch14_Cf1, 0x00);
 2432              		.loc 1 377 0
 2433 0224 0121     		movs	r1, #1
 2434 0226 5420     		movs	r0, #84
 2435 0228 FFF7FEFF 		bl	PCA9959_Write_1
 2436              	.LVL420:
 378:PCA9959.c     ****             PCA9959_Write_1(Ch15_Cf1, 0x00);
 2437              		.loc 1 378 0
 2438 022c 0021     		movs	r1, #0
 2439 022e 5820     		movs	r0, #88
 2440 0230 FFF7FEFF 		bl	PCA9959_Write_1
 2441              	.LVL421:
 379:PCA9959.c     ****             PCA9959_Write_1(Ch16_Cf1, 0x00);
 2442              		.loc 1 379 0
 2443 0234 0021     		movs	r1, #0
 2444 0236 5C20     		movs	r0, #92
ARM GAS  C:\Users\Revanth\AppData\Local\Temp\ccqs06ys.s 			page 75


 2445 0238 FFF7FEFF 		bl	PCA9959_Write_1
 2446              	.LVL422:
 380:PCA9959.c     ****             PCA9959_Write_1(Ch17_Cf1, 0x00);
 2447              		.loc 1 380 0
 2448 023c 0021     		movs	r1, #0
 2449 023e 6020     		movs	r0, #96
 2450 0240 FFF7FEFF 		bl	PCA9959_Write_1
 2451              	.LVL423:
 381:PCA9959.c     ****             PCA9959_Write_1(Ch18_Cf1, 0x00);
 2452              		.loc 1 381 0
 2453 0244 0021     		movs	r1, #0
 2454 0246 6420     		movs	r0, #100
 2455 0248 FFF7FEFF 		bl	PCA9959_Write_1
 2456              	.LVL424:
 382:PCA9959.c     ****             PCA9959_Write_1(Ch19_Cf1, 0x00);
 2457              		.loc 1 382 0
 2458 024c 0021     		movs	r1, #0
 2459 024e 6820     		movs	r0, #104
 2460 0250 FFF7FEFF 		bl	PCA9959_Write_1
 2461              	.LVL425:
 383:PCA9959.c     ****             PCA9959_Write_1(Ch20_Cf1, 0x00);
 2462              		.loc 1 383 0
 2463 0254 0021     		movs	r1, #0
 2464 0256 6C20     		movs	r0, #108
 2465 0258 FFF7FEFF 		bl	PCA9959_Write_1
 2466              	.LVL426:
 384:PCA9959.c     ****             PCA9959_Write_1(Ch21_Cf1, 0x00);
 2467              		.loc 1 384 0
 2468 025c 0021     		movs	r1, #0
 2469 025e 7020     		movs	r0, #112
 2470 0260 FFF7FEFF 		bl	PCA9959_Write_1
 2471              	.LVL427:
 385:PCA9959.c     ****             PCA9959_Write_1(Ch22_Cf1, 0x00);
 2472              		.loc 1 385 0
 2473 0264 0021     		movs	r1, #0
 2474 0266 7420     		movs	r0, #116
 2475 0268 FFF7FEFF 		bl	PCA9959_Write_1
 2476              	.LVL428:
 386:PCA9959.c     ****             PCA9959_Write_1(Ch23_Cf1, 0x00);
 2477              		.loc 1 386 0
 2478 026c 0021     		movs	r1, #0
 2479 026e 7820     		movs	r0, #120
 2480 0270 FFF7FEFF 		bl	PCA9959_Write_1
 2481              	.LVL429:
 387:PCA9959.c     ****             
 2482              		.loc 1 387 0
 2483 0274 0021     		movs	r1, #0
 2484 0276 7C20     		movs	r0, #124
 2485 0278 FFF7FEFF 		bl	PCA9959_Write_1
 2486              	.LVL430:
 391:PCA9959.c     ****             PCA9959_Write_1(Ch1_Cf2, 0x00);
 2487              		.loc 1 391 0
 2488 027c 0021     		movs	r1, #0
 2489 027e 2120     		movs	r0, #33
 2490 0280 FFF7FEFF 		bl	PCA9959_Write_1
 2491              	.LVL431:
 392:PCA9959.c     ****             PCA9959_Write_1(Ch2_Cf2, 0x00);
ARM GAS  C:\Users\Revanth\AppData\Local\Temp\ccqs06ys.s 			page 76


 2492              		.loc 1 392 0
 2493 0284 0021     		movs	r1, #0
 2494 0286 2520     		movs	r0, #37
 2495 0288 FFF7FEFF 		bl	PCA9959_Write_1
 2496              	.LVL432:
 393:PCA9959.c     ****             PCA9959_Write_1(Ch3_Cf2, 0x00);
 2497              		.loc 1 393 0
 2498 028c 0021     		movs	r1, #0
 2499 028e 2920     		movs	r0, #41
 2500 0290 FFF7FEFF 		bl	PCA9959_Write_1
 2501              	.LVL433:
 394:PCA9959.c     ****             PCA9959_Write_1(Ch4_Cf2, 0x00);
 2502              		.loc 1 394 0
 2503 0294 0021     		movs	r1, #0
 2504 0296 2D20     		movs	r0, #45
 2505 0298 FFF7FEFF 		bl	PCA9959_Write_1
 2506              	.LVL434:
 395:PCA9959.c     ****             PCA9959_Write_1(Ch5_Cf2, 0x00);
 2507              		.loc 1 395 0
 2508 029c 0021     		movs	r1, #0
 2509 029e 3120     		movs	r0, #49
 2510 02a0 FFF7FEFF 		bl	PCA9959_Write_1
 2511              	.LVL435:
 396:PCA9959.c     ****             PCA9959_Write_1(Ch6_Cf2, Brg); //
 2512              		.loc 1 396 0
 2513 02a4 0021     		movs	r1, #0
 2514 02a6 3520     		movs	r0, #53
 2515 02a8 FFF7FEFF 		bl	PCA9959_Write_1
 2516              	.LVL436:
 397:PCA9959.c     ****             PCA9959_Write_1(Ch7_Cf2, 0x00);
 2517              		.loc 1 397 0
 2518 02ac 2946     		mov	r1, r5
 2519 02ae 3920     		movs	r0, #57
 2520 02b0 FFF7FEFF 		bl	PCA9959_Write_1
 2521              	.LVL437:
 398:PCA9959.c     ****             PCA9959_Write_1(Ch8_Cf2, 0x00);
 2522              		.loc 1 398 0
 2523 02b4 0021     		movs	r1, #0
 2524 02b6 3D20     		movs	r0, #61
 2525 02b8 FFF7FEFF 		bl	PCA9959_Write_1
 2526              	.LVL438:
 399:PCA9959.c     ****             PCA9959_Write_1(Ch9_Cf2, Brg);   //
 2527              		.loc 1 399 0
 2528 02bc 0021     		movs	r1, #0
 2529 02be 4120     		movs	r0, #65
 2530 02c0 FFF7FEFF 		bl	PCA9959_Write_1
 2531              	.LVL439:
 400:PCA9959.c     ****             PCA9959_Write_1(Ch10_Cf2, 0x00);
 2532              		.loc 1 400 0
 2533 02c4 2946     		mov	r1, r5
 2534 02c6 4520     		movs	r0, #69
 2535 02c8 FFF7FEFF 		bl	PCA9959_Write_1
 2536              	.LVL440:
 401:PCA9959.c     ****             PCA9959_Write_1(Ch11_Cf2, 0x00);
 2537              		.loc 1 401 0
 2538 02cc 0021     		movs	r1, #0
 2539 02ce 4920     		movs	r0, #73
ARM GAS  C:\Users\Revanth\AppData\Local\Temp\ccqs06ys.s 			page 77


 2540 02d0 FFF7FEFF 		bl	PCA9959_Write_1
 2541              	.LVL441:
 402:PCA9959.c     ****             
 2542              		.loc 1 402 0
 2543 02d4 0021     		movs	r1, #0
 2544 02d6 4D20     		movs	r0, #77
 2545 02d8 FFF7FEFF 		bl	PCA9959_Write_1
 2546              	.LVL442:
 404:PCA9959.c     ****             PCA9959_Write_1(Ch13_Cf2, Brg); //
 2547              		.loc 1 404 0
 2548 02dc 0021     		movs	r1, #0
 2549 02de 5120     		movs	r0, #81
 2550 02e0 FFF7FEFF 		bl	PCA9959_Write_1
 2551              	.LVL443:
 405:PCA9959.c     ****             PCA9959_Write_1(Ch14_Cf2, 0x00);
 2552              		.loc 1 405 0
 2553 02e4 2946     		mov	r1, r5
 2554 02e6 5520     		movs	r0, #85
 2555 02e8 FFF7FEFF 		bl	PCA9959_Write_1
 2556              	.LVL444:
 406:PCA9959.c     ****             PCA9959_Write_1(Ch15_Cf2, 0x00);
 2557              		.loc 1 406 0
 2558 02ec 0021     		movs	r1, #0
 2559 02ee 5920     		movs	r0, #89
 2560 02f0 FFF7FEFF 		bl	PCA9959_Write_1
 2561              	.LVL445:
 407:PCA9959.c     ****             PCA9959_Write_1(Ch16_Cf2, 0x00);
 2562              		.loc 1 407 0
 2563 02f4 0021     		movs	r1, #0
 2564 02f6 5D20     		movs	r0, #93
 2565 02f8 FFF7FEFF 		bl	PCA9959_Write_1
 2566              	.LVL446:
 408:PCA9959.c     ****             PCA9959_Write_1(Ch17_Cf2, 0x00);
 2567              		.loc 1 408 0
 2568 02fc 0021     		movs	r1, #0
 2569 02fe 6120     		movs	r0, #97
 2570 0300 FFF7FEFF 		bl	PCA9959_Write_1
 2571              	.LVL447:
 409:PCA9959.c     ****             PCA9959_Write_1(Ch18_Cf2, 0x00);
 2572              		.loc 1 409 0
 2573 0304 0021     		movs	r1, #0
 2574 0306 6520     		movs	r0, #101
 2575 0308 FFF7FEFF 		bl	PCA9959_Write_1
 2576              	.LVL448:
 410:PCA9959.c     ****             PCA9959_Write_1(Ch19_Cf2, 0x00);
 2577              		.loc 1 410 0
 2578 030c 0021     		movs	r1, #0
 2579 030e 6920     		movs	r0, #105
 2580 0310 FFF7FEFF 		bl	PCA9959_Write_1
 2581              	.LVL449:
 411:PCA9959.c     ****             PCA9959_Write_1(Ch20_Cf2, 0x00);
 2582              		.loc 1 411 0
 2583 0314 0021     		movs	r1, #0
 2584 0316 6D20     		movs	r0, #109
 2585 0318 FFF7FEFF 		bl	PCA9959_Write_1
 2586              	.LVL450:
 412:PCA9959.c     ****             PCA9959_Write_1(Ch21_Cf2, 0x00);
ARM GAS  C:\Users\Revanth\AppData\Local\Temp\ccqs06ys.s 			page 78


 2587              		.loc 1 412 0
 2588 031c 0021     		movs	r1, #0
 2589 031e 7120     		movs	r0, #113
 2590 0320 FFF7FEFF 		bl	PCA9959_Write_1
 2591              	.LVL451:
 413:PCA9959.c     ****             PCA9959_Write_1(Ch22_Cf2, 0x00);
 2592              		.loc 1 413 0
 2593 0324 0021     		movs	r1, #0
 2594 0326 7520     		movs	r0, #117
 2595 0328 FFF7FEFF 		bl	PCA9959_Write_1
 2596              	.LVL452:
 414:PCA9959.c     ****             PCA9959_Write_1(Ch23_Cf2, 0x00);
 2597              		.loc 1 414 0
 2598 032c 0021     		movs	r1, #0
 2599 032e 7920     		movs	r0, #121
 2600 0330 FFF7FEFF 		bl	PCA9959_Write_1
 2601              	.LVL453:
 415:PCA9959.c     ****             Pin_OE_PCA9959_1_Write(0);
 2602              		.loc 1 415 0
 2603 0334 0021     		movs	r1, #0
 2604 0336 7D20     		movs	r0, #125
 2605 0338 FFF7FEFF 		bl	PCA9959_Write_1
 2606              	.LVL454:
 416:PCA9959.c     ****         }
 2607              		.loc 1 416 0
 2608 033c 0020     		movs	r0, #0
 2609 033e FFF7FEFF 		bl	Pin_OE_PCA9959_1_Write
 2610              	.LVL455:
 2611 0342 38BD     		pop	{r3, r4, r5, pc}
 2612              	.L78:
 419:PCA9959.c     ****         {
 2613              		.loc 1 419 0
 2614 0344 032C     		cmp	r4, #3
 2615 0346 40F0CA80 		bne	.L79
 421:PCA9959.c     ****             PageSel_1(ChSel);
 2616              		.loc 1 421 0
 2617 034a 0120     		movs	r0, #1
 2618 034c FFF7FEFF 		bl	Pin_OE_PCA9959_1_Write
 2619              	.LVL456:
 422:PCA9959.c     ****             PCA9959_Write_1(Ch0_Cf1, 0x00);                       //LED Channel 0 is assigned to Gr
 2620              		.loc 1 422 0
 2621 0350 0120     		movs	r0, #1
 2622 0352 FFF7FEFF 		bl	PageSel_1
 2623              	.LVL457:
 423:PCA9959.c     ****             PCA9959_Write_1(Ch1_Cf1, 0x00);
 2624              		.loc 1 423 0
 2625 0356 0021     		movs	r1, #0
 2626 0358 2020     		movs	r0, #32
 2627 035a FFF7FEFF 		bl	PCA9959_Write_1
 2628              	.LVL458:
 424:PCA9959.c     ****             PCA9959_Write_1(Ch2_Cf1, 0x00); 
 2629              		.loc 1 424 0
 2630 035e 0021     		movs	r1, #0
 2631 0360 2420     		movs	r0, #36
 2632 0362 FFF7FEFF 		bl	PCA9959_Write_1
 2633              	.LVL459:
 425:PCA9959.c     ****             PCA9959_Write_1(Ch3_Cf1, 0x00); 
ARM GAS  C:\Users\Revanth\AppData\Local\Temp\ccqs06ys.s 			page 79


 2634              		.loc 1 425 0
 2635 0366 0021     		movs	r1, #0
 2636 0368 2820     		movs	r0, #40
 2637 036a FFF7FEFF 		bl	PCA9959_Write_1
 2638              	.LVL460:
 426:PCA9959.c     ****             PCA9959_Write_1(Ch4_Cf1, 0x00); 
 2639              		.loc 1 426 0
 2640 036e 0021     		movs	r1, #0
 2641 0370 2C20     		movs	r0, #44
 2642 0372 FFF7FEFF 		bl	PCA9959_Write_1
 2643              	.LVL461:
 427:PCA9959.c     ****             PCA9959_Write_1(Ch5_Cf1, 0x00); 
 2644              		.loc 1 427 0
 2645 0376 0021     		movs	r1, #0
 2646 0378 3020     		movs	r0, #48
 2647 037a FFF7FEFF 		bl	PCA9959_Write_1
 2648              	.LVL462:
 428:PCA9959.c     ****             PCA9959_Write_1(Ch6_Cf1, 0x00);  
 2649              		.loc 1 428 0
 2650 037e 0021     		movs	r1, #0
 2651 0380 3420     		movs	r0, #52
 2652 0382 FFF7FEFF 		bl	PCA9959_Write_1
 2653              	.LVL463:
 429:PCA9959.c     ****             PCA9959_Write_1(Ch7_Cf1, 0x01); //
 2654              		.loc 1 429 0
 2655 0386 0021     		movs	r1, #0
 2656 0388 3820     		movs	r0, #56
 2657 038a FFF7FEFF 		bl	PCA9959_Write_1
 2658              	.LVL464:
 430:PCA9959.c     ****             PCA9959_Write_1(Ch8_Cf1, 0x00); 
 2659              		.loc 1 430 0
 2660 038e 0121     		movs	r1, #1
 2661 0390 3C20     		movs	r0, #60
 2662 0392 FFF7FEFF 		bl	PCA9959_Write_1
 2663              	.LVL465:
 431:PCA9959.c     ****             PCA9959_Write_1(Ch9_Cf1, 0x00);  
 2664              		.loc 1 431 0
 2665 0396 0021     		movs	r1, #0
 2666 0398 4020     		movs	r0, #64
 2667 039a FFF7FEFF 		bl	PCA9959_Write_1
 2668              	.LVL466:
 432:PCA9959.c     ****             PCA9959_Write_1(Ch10_Cf1, 0x00); 
 2669              		.loc 1 432 0
 2670 039e 0021     		movs	r1, #0
 2671 03a0 4420     		movs	r0, #68
 2672 03a2 FFF7FEFF 		bl	PCA9959_Write_1
 2673              	.LVL467:
 433:PCA9959.c     ****             PCA9959_Write_1(Ch11_Cf1, 0x01); //
 2674              		.loc 1 433 0
 2675 03a6 0021     		movs	r1, #0
 2676 03a8 4820     		movs	r0, #72
 2677 03aa FFF7FEFF 		bl	PCA9959_Write_1
 2678              	.LVL468:
 434:PCA9959.c     ****             
 2679              		.loc 1 434 0
 2680 03ae 0121     		movs	r1, #1
 2681 03b0 4C20     		movs	r0, #76
ARM GAS  C:\Users\Revanth\AppData\Local\Temp\ccqs06ys.s 			page 80


 2682 03b2 FFF7FEFF 		bl	PCA9959_Write_1
 2683              	.LVL469:
 436:PCA9959.c     ****             PCA9959_Write_1(Ch13_Cf1, 0x00); 
 2684              		.loc 1 436 0
 2685 03b6 0021     		movs	r1, #0
 2686 03b8 5020     		movs	r0, #80
 2687 03ba FFF7FEFF 		bl	PCA9959_Write_1
 2688              	.LVL470:
 437:PCA9959.c     ****             PCA9959_Write_1(Ch14_Cf1, 0x01); //
 2689              		.loc 1 437 0
 2690 03be 0021     		movs	r1, #0
 2691 03c0 5420     		movs	r0, #84
 2692 03c2 FFF7FEFF 		bl	PCA9959_Write_1
 2693              	.LVL471:
 438:PCA9959.c     ****             PCA9959_Write_1(Ch15_Cf1, 0x00);
 2694              		.loc 1 438 0
 2695 03c6 0121     		movs	r1, #1
 2696 03c8 5820     		movs	r0, #88
 2697 03ca FFF7FEFF 		bl	PCA9959_Write_1
 2698              	.LVL472:
 439:PCA9959.c     ****             PCA9959_Write_1(Ch16_Cf1, 0x00);
 2699              		.loc 1 439 0
 2700 03ce 0021     		movs	r1, #0
 2701 03d0 5C20     		movs	r0, #92
 2702 03d2 FFF7FEFF 		bl	PCA9959_Write_1
 2703              	.LVL473:
 440:PCA9959.c     ****             PCA9959_Write_1(Ch17_Cf1, 0x00);
 2704              		.loc 1 440 0
 2705 03d6 0021     		movs	r1, #0
 2706 03d8 6020     		movs	r0, #96
 2707 03da FFF7FEFF 		bl	PCA9959_Write_1
 2708              	.LVL474:
 441:PCA9959.c     ****             PCA9959_Write_1(Ch18_Cf1, 0x00);
 2709              		.loc 1 441 0
 2710 03de 0021     		movs	r1, #0
 2711 03e0 6420     		movs	r0, #100
 2712 03e2 FFF7FEFF 		bl	PCA9959_Write_1
 2713              	.LVL475:
 442:PCA9959.c     ****             PCA9959_Write_1(Ch19_Cf1, 0x00);
 2714              		.loc 1 442 0
 2715 03e6 0021     		movs	r1, #0
 2716 03e8 6820     		movs	r0, #104
 2717 03ea FFF7FEFF 		bl	PCA9959_Write_1
 2718              	.LVL476:
 443:PCA9959.c     ****             PCA9959_Write_1(Ch20_Cf1, 0x00);
 2719              		.loc 1 443 0
 2720 03ee 0021     		movs	r1, #0
 2721 03f0 6C20     		movs	r0, #108
 2722 03f2 FFF7FEFF 		bl	PCA9959_Write_1
 2723              	.LVL477:
 444:PCA9959.c     ****             PCA9959_Write_1(Ch21_Cf1, 0x00);
 2724              		.loc 1 444 0
 2725 03f6 0021     		movs	r1, #0
 2726 03f8 7020     		movs	r0, #112
 2727 03fa FFF7FEFF 		bl	PCA9959_Write_1
 2728              	.LVL478:
 445:PCA9959.c     ****             PCA9959_Write_1(Ch22_Cf1, 0x00);
ARM GAS  C:\Users\Revanth\AppData\Local\Temp\ccqs06ys.s 			page 81


 2729              		.loc 1 445 0
 2730 03fe 0021     		movs	r1, #0
 2731 0400 7420     		movs	r0, #116
 2732 0402 FFF7FEFF 		bl	PCA9959_Write_1
 2733              	.LVL479:
 446:PCA9959.c     ****             PCA9959_Write_1(Ch23_Cf1, 0x00);
 2734              		.loc 1 446 0
 2735 0406 0021     		movs	r1, #0
 2736 0408 7820     		movs	r0, #120
 2737 040a FFF7FEFF 		bl	PCA9959_Write_1
 2738              	.LVL480:
 447:PCA9959.c     ****             
 2739              		.loc 1 447 0
 2740 040e 0021     		movs	r1, #0
 2741 0410 7C20     		movs	r0, #124
 2742 0412 FFF7FEFF 		bl	PCA9959_Write_1
 2743              	.LVL481:
 451:PCA9959.c     ****             PCA9959_Write_1(Ch1_Cf2, 0x00);
 2744              		.loc 1 451 0
 2745 0416 0021     		movs	r1, #0
 2746 0418 2120     		movs	r0, #33
 2747 041a FFF7FEFF 		bl	PCA9959_Write_1
 2748              	.LVL482:
 452:PCA9959.c     ****             PCA9959_Write_1(Ch2_Cf2, 0x00);
 2749              		.loc 1 452 0
 2750 041e 0021     		movs	r1, #0
 2751 0420 2520     		movs	r0, #37
 2752 0422 FFF7FEFF 		bl	PCA9959_Write_1
 2753              	.LVL483:
 453:PCA9959.c     ****             PCA9959_Write_1(Ch3_Cf2, 0x00);
 2754              		.loc 1 453 0
 2755 0426 0021     		movs	r1, #0
 2756 0428 2920     		movs	r0, #41
 2757 042a FFF7FEFF 		bl	PCA9959_Write_1
 2758              	.LVL484:
 454:PCA9959.c     ****             PCA9959_Write_1(Ch4_Cf2, 0x00);
 2759              		.loc 1 454 0
 2760 042e 0021     		movs	r1, #0
 2761 0430 2D20     		movs	r0, #45
 2762 0432 FFF7FEFF 		bl	PCA9959_Write_1
 2763              	.LVL485:
 455:PCA9959.c     ****             PCA9959_Write_1(Ch5_Cf2, 0x00);
 2764              		.loc 1 455 0
 2765 0436 0021     		movs	r1, #0
 2766 0438 3120     		movs	r0, #49
 2767 043a FFF7FEFF 		bl	PCA9959_Write_1
 2768              	.LVL486:
 456:PCA9959.c     ****             PCA9959_Write_1(Ch6_Cf2, 0x00); 
 2769              		.loc 1 456 0
 2770 043e 0021     		movs	r1, #0
 2771 0440 3520     		movs	r0, #53
 2772 0442 FFF7FEFF 		bl	PCA9959_Write_1
 2773              	.LVL487:
 457:PCA9959.c     ****             PCA9959_Write_1(Ch7_Cf2, Brg);   //
 2774              		.loc 1 457 0
 2775 0446 0021     		movs	r1, #0
 2776 0448 3920     		movs	r0, #57
ARM GAS  C:\Users\Revanth\AppData\Local\Temp\ccqs06ys.s 			page 82


 2777 044a FFF7FEFF 		bl	PCA9959_Write_1
 2778              	.LVL488:
 458:PCA9959.c     ****             PCA9959_Write_1(Ch8_Cf2, 0x00);
 2779              		.loc 1 458 0
 2780 044e 2946     		mov	r1, r5
 2781 0450 3D20     		movs	r0, #61
 2782 0452 FFF7FEFF 		bl	PCA9959_Write_1
 2783              	.LVL489:
 459:PCA9959.c     ****             PCA9959_Write_1(Ch9_Cf2, 0x00);   
 2784              		.loc 1 459 0
 2785 0456 0021     		movs	r1, #0
 2786 0458 4120     		movs	r0, #65
 2787 045a FFF7FEFF 		bl	PCA9959_Write_1
 2788              	.LVL490:
 460:PCA9959.c     ****             PCA9959_Write_1(Ch10_Cf2, 0x00);
 2789              		.loc 1 460 0
 2790 045e 0021     		movs	r1, #0
 2791 0460 4520     		movs	r0, #69
 2792 0462 FFF7FEFF 		bl	PCA9959_Write_1
 2793              	.LVL491:
 461:PCA9959.c     ****             PCA9959_Write_1(Ch11_Cf2, Brg);  //
 2794              		.loc 1 461 0
 2795 0466 0021     		movs	r1, #0
 2796 0468 4920     		movs	r0, #73
 2797 046a FFF7FEFF 		bl	PCA9959_Write_1
 2798              	.LVL492:
 462:PCA9959.c     ****             
 2799              		.loc 1 462 0
 2800 046e 2946     		mov	r1, r5
 2801 0470 4D20     		movs	r0, #77
 2802 0472 FFF7FEFF 		bl	PCA9959_Write_1
 2803              	.LVL493:
 464:PCA9959.c     ****             PCA9959_Write_1(Ch13_Cf2, 0x00); 
 2804              		.loc 1 464 0
 2805 0476 0021     		movs	r1, #0
 2806 0478 5120     		movs	r0, #81
 2807 047a FFF7FEFF 		bl	PCA9959_Write_1
 2808              	.LVL494:
 465:PCA9959.c     ****             PCA9959_Write_1(Ch14_Cf2, Brg);  //
 2809              		.loc 1 465 0
 2810 047e 0021     		movs	r1, #0
 2811 0480 5520     		movs	r0, #85
 2812 0482 FFF7FEFF 		bl	PCA9959_Write_1
 2813              	.LVL495:
 466:PCA9959.c     ****             PCA9959_Write_1(Ch15_Cf2, 0x00);
 2814              		.loc 1 466 0
 2815 0486 2946     		mov	r1, r5
 2816 0488 5920     		movs	r0, #89
 2817 048a FFF7FEFF 		bl	PCA9959_Write_1
 2818              	.LVL496:
 467:PCA9959.c     ****             PCA9959_Write_1(Ch16_Cf2, 0x00);
 2819              		.loc 1 467 0
 2820 048e 0021     		movs	r1, #0
 2821 0490 5D20     		movs	r0, #93
 2822 0492 FFF7FEFF 		bl	PCA9959_Write_1
 2823              	.LVL497:
 468:PCA9959.c     ****             PCA9959_Write_1(Ch17_Cf2, 0x00);
ARM GAS  C:\Users\Revanth\AppData\Local\Temp\ccqs06ys.s 			page 83


 2824              		.loc 1 468 0
 2825 0496 0021     		movs	r1, #0
 2826 0498 6120     		movs	r0, #97
 2827 049a FFF7FEFF 		bl	PCA9959_Write_1
 2828              	.LVL498:
 469:PCA9959.c     ****             PCA9959_Write_1(Ch18_Cf2, 0x00);
 2829              		.loc 1 469 0
 2830 049e 0021     		movs	r1, #0
 2831 04a0 6520     		movs	r0, #101
 2832 04a2 FFF7FEFF 		bl	PCA9959_Write_1
 2833              	.LVL499:
 470:PCA9959.c     ****             PCA9959_Write_1(Ch19_Cf2, 0x00);
 2834              		.loc 1 470 0
 2835 04a6 0021     		movs	r1, #0
 2836 04a8 6920     		movs	r0, #105
 2837 04aa FFF7FEFF 		bl	PCA9959_Write_1
 2838              	.LVL500:
 471:PCA9959.c     ****             PCA9959_Write_1(Ch20_Cf2, 0x00);
 2839              		.loc 1 471 0
 2840 04ae 0021     		movs	r1, #0
 2841 04b0 6D20     		movs	r0, #109
 2842 04b2 FFF7FEFF 		bl	PCA9959_Write_1
 2843              	.LVL501:
 472:PCA9959.c     ****             PCA9959_Write_1(Ch21_Cf2, 0x00);
 2844              		.loc 1 472 0
 2845 04b6 0021     		movs	r1, #0
 2846 04b8 7120     		movs	r0, #113
 2847 04ba FFF7FEFF 		bl	PCA9959_Write_1
 2848              	.LVL502:
 473:PCA9959.c     ****             PCA9959_Write_1(Ch22_Cf2, 0x00);
 2849              		.loc 1 473 0
 2850 04be 0021     		movs	r1, #0
 2851 04c0 7520     		movs	r0, #117
 2852 04c2 FFF7FEFF 		bl	PCA9959_Write_1
 2853              	.LVL503:
 474:PCA9959.c     ****             PCA9959_Write_1(Ch23_Cf2, 0x00);
 2854              		.loc 1 474 0
 2855 04c6 0021     		movs	r1, #0
 2856 04c8 7920     		movs	r0, #121
 2857 04ca FFF7FEFF 		bl	PCA9959_Write_1
 2858              	.LVL504:
 475:PCA9959.c     ****             Pin_OE_PCA9959_1_Write(0);
 2859              		.loc 1 475 0
 2860 04ce 0021     		movs	r1, #0
 2861 04d0 7D20     		movs	r0, #125
 2862 04d2 FFF7FEFF 		bl	PCA9959_Write_1
 2863              	.LVL505:
 476:PCA9959.c     ****         }
 2864              		.loc 1 476 0
 2865 04d6 0020     		movs	r0, #0
 2866 04d8 FFF7FEFF 		bl	Pin_OE_PCA9959_1_Write
 2867              	.LVL506:
 2868 04dc 38BD     		pop	{r3, r4, r5, pc}
 2869              	.L79:
 479:PCA9959.c     ****         {
 2870              		.loc 1 479 0
 2871 04de 042C     		cmp	r4, #4
ARM GAS  C:\Users\Revanth\AppData\Local\Temp\ccqs06ys.s 			page 84


 2872 04e0 40F0CA80 		bne	.L80
 481:PCA9959.c     ****             PageSel_1(ChSel);
 2873              		.loc 1 481 0
 2874 04e4 0120     		movs	r0, #1
 2875 04e6 FFF7FEFF 		bl	Pin_OE_PCA9959_1_Write
 2876              	.LVL507:
 482:PCA9959.c     ****             PCA9959_Write_1(Ch0_Cf1, 0x00);                       //LED Channel 0 is assigned to Gr
 2877              		.loc 1 482 0
 2878 04ea 0120     		movs	r0, #1
 2879 04ec FFF7FEFF 		bl	PageSel_1
 2880              	.LVL508:
 483:PCA9959.c     ****             PCA9959_Write_1(Ch1_Cf1, 0x00);
 2881              		.loc 1 483 0
 2882 04f0 0021     		movs	r1, #0
 2883 04f2 2020     		movs	r0, #32
 2884 04f4 FFF7FEFF 		bl	PCA9959_Write_1
 2885              	.LVL509:
 484:PCA9959.c     ****             PCA9959_Write_1(Ch2_Cf1, 0x00); 
 2886              		.loc 1 484 0
 2887 04f8 0021     		movs	r1, #0
 2888 04fa 2420     		movs	r0, #36
 2889 04fc FFF7FEFF 		bl	PCA9959_Write_1
 2890              	.LVL510:
 485:PCA9959.c     ****             PCA9959_Write_1(Ch3_Cf1, 0x00); 
 2891              		.loc 1 485 0
 2892 0500 0021     		movs	r1, #0
 2893 0502 2820     		movs	r0, #40
 2894 0504 FFF7FEFF 		bl	PCA9959_Write_1
 2895              	.LVL511:
 486:PCA9959.c     ****             PCA9959_Write_1(Ch4_Cf1, 0x00); 
 2896              		.loc 1 486 0
 2897 0508 0021     		movs	r1, #0
 2898 050a 2C20     		movs	r0, #44
 2899 050c FFF7FEFF 		bl	PCA9959_Write_1
 2900              	.LVL512:
 487:PCA9959.c     ****             PCA9959_Write_1(Ch5_Cf1, 0x00); 
 2901              		.loc 1 487 0
 2902 0510 0021     		movs	r1, #0
 2903 0512 3020     		movs	r0, #48
 2904 0514 FFF7FEFF 		bl	PCA9959_Write_1
 2905              	.LVL513:
 488:PCA9959.c     ****             PCA9959_Write_1(Ch6_Cf1, 0x01);  //
 2906              		.loc 1 488 0
 2907 0518 0021     		movs	r1, #0
 2908 051a 3420     		movs	r0, #52
 2909 051c FFF7FEFF 		bl	PCA9959_Write_1
 2910              	.LVL514:
 489:PCA9959.c     ****             PCA9959_Write_1(Ch7_Cf1, 0x01); //
 2911              		.loc 1 489 0
 2912 0520 0121     		movs	r1, #1
 2913 0522 3820     		movs	r0, #56
 2914 0524 FFF7FEFF 		bl	PCA9959_Write_1
 2915              	.LVL515:
 490:PCA9959.c     ****             PCA9959_Write_1(Ch8_Cf1, 0x00); 
 2916              		.loc 1 490 0
 2917 0528 0121     		movs	r1, #1
 2918 052a 3C20     		movs	r0, #60
ARM GAS  C:\Users\Revanth\AppData\Local\Temp\ccqs06ys.s 			page 85


 2919 052c FFF7FEFF 		bl	PCA9959_Write_1
 2920              	.LVL516:
 491:PCA9959.c     ****             PCA9959_Write_1(Ch9_Cf1, 0x01); // 
 2921              		.loc 1 491 0
 2922 0530 0021     		movs	r1, #0
 2923 0532 4020     		movs	r0, #64
 2924 0534 FFF7FEFF 		bl	PCA9959_Write_1
 2925              	.LVL517:
 492:PCA9959.c     ****             PCA9959_Write_1(Ch10_Cf1, 0x01); 
 2926              		.loc 1 492 0
 2927 0538 0121     		movs	r1, #1
 2928 053a 4420     		movs	r0, #68
 2929 053c FFF7FEFF 		bl	PCA9959_Write_1
 2930              	.LVL518:
 493:PCA9959.c     ****             PCA9959_Write_1(Ch11_Cf1, 0x01); //
 2931              		.loc 1 493 0
 2932 0540 0121     		movs	r1, #1
 2933 0542 4820     		movs	r0, #72
 2934 0544 FFF7FEFF 		bl	PCA9959_Write_1
 2935              	.LVL519:
 494:PCA9959.c     ****             
 2936              		.loc 1 494 0
 2937 0548 0121     		movs	r1, #1
 2938 054a 4C20     		movs	r0, #76
 2939 054c FFF7FEFF 		bl	PCA9959_Write_1
 2940              	.LVL520:
 496:PCA9959.c     ****             PCA9959_Write_1(Ch13_Cf1, 0x01); //
 2941              		.loc 1 496 0
 2942 0550 0021     		movs	r1, #0
 2943 0552 5020     		movs	r0, #80
 2944 0554 FFF7FEFF 		bl	PCA9959_Write_1
 2945              	.LVL521:
 497:PCA9959.c     ****             PCA9959_Write_1(Ch14_Cf1, 0x01); //
 2946              		.loc 1 497 0
 2947 0558 0121     		movs	r1, #1
 2948 055a 5420     		movs	r0, #84
 2949 055c FFF7FEFF 		bl	PCA9959_Write_1
 2950              	.LVL522:
 498:PCA9959.c     ****             PCA9959_Write_1(Ch15_Cf1, 0x00);
 2951              		.loc 1 498 0
 2952 0560 0121     		movs	r1, #1
 2953 0562 5820     		movs	r0, #88
 2954 0564 FFF7FEFF 		bl	PCA9959_Write_1
 2955              	.LVL523:
 499:PCA9959.c     ****             PCA9959_Write_1(Ch16_Cf1, 0x00);
 2956              		.loc 1 499 0
 2957 0568 0021     		movs	r1, #0
 2958 056a 5C20     		movs	r0, #92
 2959 056c FFF7FEFF 		bl	PCA9959_Write_1
 2960              	.LVL524:
 500:PCA9959.c     ****             PCA9959_Write_1(Ch17_Cf1, 0x00);
 2961              		.loc 1 500 0
 2962 0570 0021     		movs	r1, #0
 2963 0572 6020     		movs	r0, #96
 2964 0574 FFF7FEFF 		bl	PCA9959_Write_1
 2965              	.LVL525:
 501:PCA9959.c     ****             PCA9959_Write_1(Ch18_Cf1, 0x00);
ARM GAS  C:\Users\Revanth\AppData\Local\Temp\ccqs06ys.s 			page 86


 2966              		.loc 1 501 0
 2967 0578 0021     		movs	r1, #0
 2968 057a 6420     		movs	r0, #100
 2969 057c FFF7FEFF 		bl	PCA9959_Write_1
 2970              	.LVL526:
 502:PCA9959.c     ****             PCA9959_Write_1(Ch19_Cf1, 0x00);
 2971              		.loc 1 502 0
 2972 0580 0021     		movs	r1, #0
 2973 0582 6820     		movs	r0, #104
 2974 0584 FFF7FEFF 		bl	PCA9959_Write_1
 2975              	.LVL527:
 503:PCA9959.c     ****             PCA9959_Write_1(Ch20_Cf1, 0x00);
 2976              		.loc 1 503 0
 2977 0588 0021     		movs	r1, #0
 2978 058a 6C20     		movs	r0, #108
 2979 058c FFF7FEFF 		bl	PCA9959_Write_1
 2980              	.LVL528:
 504:PCA9959.c     ****             PCA9959_Write_1(Ch21_Cf1, 0x00);
 2981              		.loc 1 504 0
 2982 0590 0021     		movs	r1, #0
 2983 0592 7020     		movs	r0, #112
 2984 0594 FFF7FEFF 		bl	PCA9959_Write_1
 2985              	.LVL529:
 505:PCA9959.c     ****             PCA9959_Write_1(Ch22_Cf1, 0x00);
 2986              		.loc 1 505 0
 2987 0598 0021     		movs	r1, #0
 2988 059a 7420     		movs	r0, #116
 2989 059c FFF7FEFF 		bl	PCA9959_Write_1
 2990              	.LVL530:
 506:PCA9959.c     ****             PCA9959_Write_1(Ch23_Cf1, 0x00);
 2991              		.loc 1 506 0
 2992 05a0 0021     		movs	r1, #0
 2993 05a2 7820     		movs	r0, #120
 2994 05a4 FFF7FEFF 		bl	PCA9959_Write_1
 2995              	.LVL531:
 507:PCA9959.c     ****             
 2996              		.loc 1 507 0
 2997 05a8 0021     		movs	r1, #0
 2998 05aa 7C20     		movs	r0, #124
 2999 05ac FFF7FEFF 		bl	PCA9959_Write_1
 3000              	.LVL532:
 511:PCA9959.c     ****             PCA9959_Write_1(Ch1_Cf2, 0x00);
 3001              		.loc 1 511 0
 3002 05b0 0021     		movs	r1, #0
 3003 05b2 2120     		movs	r0, #33
 3004 05b4 FFF7FEFF 		bl	PCA9959_Write_1
 3005              	.LVL533:
 512:PCA9959.c     ****             PCA9959_Write_1(Ch2_Cf2, 0x00);
 3006              		.loc 1 512 0
 3007 05b8 0021     		movs	r1, #0
 3008 05ba 2520     		movs	r0, #37
 3009 05bc FFF7FEFF 		bl	PCA9959_Write_1
 3010              	.LVL534:
 513:PCA9959.c     ****             PCA9959_Write_1(Ch3_Cf2, 0x00);
 3011              		.loc 1 513 0
 3012 05c0 0021     		movs	r1, #0
 3013 05c2 2920     		movs	r0, #41
ARM GAS  C:\Users\Revanth\AppData\Local\Temp\ccqs06ys.s 			page 87


 3014 05c4 FFF7FEFF 		bl	PCA9959_Write_1
 3015              	.LVL535:
 514:PCA9959.c     ****             PCA9959_Write_1(Ch4_Cf2, 0x00);
 3016              		.loc 1 514 0
 3017 05c8 0021     		movs	r1, #0
 3018 05ca 2D20     		movs	r0, #45
 3019 05cc FFF7FEFF 		bl	PCA9959_Write_1
 3020              	.LVL536:
 515:PCA9959.c     ****             PCA9959_Write_1(Ch5_Cf2, 0x00);
 3021              		.loc 1 515 0
 3022 05d0 0021     		movs	r1, #0
 3023 05d2 3120     		movs	r0, #49
 3024 05d4 FFF7FEFF 		bl	PCA9959_Write_1
 3025              	.LVL537:
 516:PCA9959.c     ****             PCA9959_Write_1(Ch6_Cf2, Brg); //
 3026              		.loc 1 516 0
 3027 05d8 0021     		movs	r1, #0
 3028 05da 3520     		movs	r0, #53
 3029 05dc FFF7FEFF 		bl	PCA9959_Write_1
 3030              	.LVL538:
 517:PCA9959.c     ****             PCA9959_Write_1(Ch7_Cf2, Brg); //
 3031              		.loc 1 517 0
 3032 05e0 2946     		mov	r1, r5
 3033 05e2 3920     		movs	r0, #57
 3034 05e4 FFF7FEFF 		bl	PCA9959_Write_1
 3035              	.LVL539:
 518:PCA9959.c     ****             PCA9959_Write_1(Ch8_Cf2, 0x00);
 3036              		.loc 1 518 0
 3037 05e8 2946     		mov	r1, r5
 3038 05ea 3D20     		movs	r0, #61
 3039 05ec FFF7FEFF 		bl	PCA9959_Write_1
 3040              	.LVL540:
 519:PCA9959.c     ****             PCA9959_Write_1(Ch9_Cf2, Brg);   //
 3041              		.loc 1 519 0
 3042 05f0 0021     		movs	r1, #0
 3043 05f2 4120     		movs	r0, #65
 3044 05f4 FFF7FEFF 		bl	PCA9959_Write_1
 3045              	.LVL541:
 520:PCA9959.c     ****             PCA9959_Write_1(Ch10_Cf2, Brg);
 3046              		.loc 1 520 0
 3047 05f8 2946     		mov	r1, r5
 3048 05fa 4520     		movs	r0, #69
 3049 05fc FFF7FEFF 		bl	PCA9959_Write_1
 3050              	.LVL542:
 521:PCA9959.c     ****             PCA9959_Write_1(Ch11_Cf2, Brg);//
 3051              		.loc 1 521 0
 3052 0600 2946     		mov	r1, r5
 3053 0602 4920     		movs	r0, #73
 3054 0604 FFF7FEFF 		bl	PCA9959_Write_1
 3055              	.LVL543:
 522:PCA9959.c     ****             
 3056              		.loc 1 522 0
 3057 0608 2946     		mov	r1, r5
 3058 060a 4D20     		movs	r0, #77
 3059 060c FFF7FEFF 		bl	PCA9959_Write_1
 3060              	.LVL544:
 524:PCA9959.c     ****             PCA9959_Write_1(Ch13_Cf2, Brg); //
ARM GAS  C:\Users\Revanth\AppData\Local\Temp\ccqs06ys.s 			page 88


 3061              		.loc 1 524 0
 3062 0610 0021     		movs	r1, #0
 3063 0612 5120     		movs	r0, #81
 3064 0614 FFF7FEFF 		bl	PCA9959_Write_1
 3065              	.LVL545:
 525:PCA9959.c     ****             PCA9959_Write_1(Ch14_Cf2, Brg);//
 3066              		.loc 1 525 0
 3067 0618 2946     		mov	r1, r5
 3068 061a 5520     		movs	r0, #85
 3069 061c FFF7FEFF 		bl	PCA9959_Write_1
 3070              	.LVL546:
 526:PCA9959.c     ****             PCA9959_Write_1(Ch15_Cf2, 0x00);
 3071              		.loc 1 526 0
 3072 0620 2946     		mov	r1, r5
 3073 0622 5920     		movs	r0, #89
 3074 0624 FFF7FEFF 		bl	PCA9959_Write_1
 3075              	.LVL547:
 527:PCA9959.c     ****             PCA9959_Write_1(Ch16_Cf2, 0x00);
 3076              		.loc 1 527 0
 3077 0628 0021     		movs	r1, #0
 3078 062a 5D20     		movs	r0, #93
 3079 062c FFF7FEFF 		bl	PCA9959_Write_1
 3080              	.LVL548:
 528:PCA9959.c     ****             PCA9959_Write_1(Ch17_Cf2, 0x00);
 3081              		.loc 1 528 0
 3082 0630 0021     		movs	r1, #0
 3083 0632 6120     		movs	r0, #97
 3084 0634 FFF7FEFF 		bl	PCA9959_Write_1
 3085              	.LVL549:
 529:PCA9959.c     ****             PCA9959_Write_1(Ch18_Cf2, 0x00);
 3086              		.loc 1 529 0
 3087 0638 0021     		movs	r1, #0
 3088 063a 6520     		movs	r0, #101
 3089 063c FFF7FEFF 		bl	PCA9959_Write_1
 3090              	.LVL550:
 530:PCA9959.c     ****             PCA9959_Write_1(Ch19_Cf2, 0x00);
 3091              		.loc 1 530 0
 3092 0640 0021     		movs	r1, #0
 3093 0642 6920     		movs	r0, #105
 3094 0644 FFF7FEFF 		bl	PCA9959_Write_1
 3095              	.LVL551:
 531:PCA9959.c     ****             PCA9959_Write_1(Ch20_Cf2, 0x00);
 3096              		.loc 1 531 0
 3097 0648 0021     		movs	r1, #0
 3098 064a 6D20     		movs	r0, #109
 3099 064c FFF7FEFF 		bl	PCA9959_Write_1
 3100              	.LVL552:
 532:PCA9959.c     ****             PCA9959_Write_1(Ch21_Cf2, 0x00);
 3101              		.loc 1 532 0
 3102 0650 0021     		movs	r1, #0
 3103 0652 7120     		movs	r0, #113
 3104 0654 FFF7FEFF 		bl	PCA9959_Write_1
 3105              	.LVL553:
 533:PCA9959.c     ****             PCA9959_Write_1(Ch22_Cf2, 0x00);
 3106              		.loc 1 533 0
 3107 0658 0021     		movs	r1, #0
 3108 065a 7520     		movs	r0, #117
ARM GAS  C:\Users\Revanth\AppData\Local\Temp\ccqs06ys.s 			page 89


 3109 065c FFF7FEFF 		bl	PCA9959_Write_1
 3110              	.LVL554:
 534:PCA9959.c     ****             PCA9959_Write_1(Ch23_Cf2, 0x00);
 3111              		.loc 1 534 0
 3112 0660 0021     		movs	r1, #0
 3113 0662 7920     		movs	r0, #121
 3114 0664 FFF7FEFF 		bl	PCA9959_Write_1
 3115              	.LVL555:
 535:PCA9959.c     ****             Pin_OE_PCA9959_1_Write(0);
 3116              		.loc 1 535 0
 3117 0668 0021     		movs	r1, #0
 3118 066a 7D20     		movs	r0, #125
 3119 066c FFF7FEFF 		bl	PCA9959_Write_1
 3120              	.LVL556:
 536:PCA9959.c     ****         }
 3121              		.loc 1 536 0
 3122 0670 0020     		movs	r0, #0
 3123 0672 FFF7FEFF 		bl	Pin_OE_PCA9959_1_Write
 3124              	.LVL557:
 3125 0676 38BD     		pop	{r3, r4, r5, pc}
 3126              	.L80:
 539:PCA9959.c     ****         {
 3127              		.loc 1 539 0
 3128 0678 052C     		cmp	r4, #5
 3129 067a 40F0CA80 		bne	.L81
 541:PCA9959.c     ****             PageSel_1(ChSel);
 3130              		.loc 1 541 0
 3131 067e 0120     		movs	r0, #1
 3132 0680 FFF7FEFF 		bl	Pin_OE_PCA9959_1_Write
 3133              	.LVL558:
 542:PCA9959.c     ****             PCA9959_Write_1(Ch0_Cf1, 0x00);                       //LED Channel 0 is assigned to Gr
 3134              		.loc 1 542 0
 3135 0684 0120     		movs	r0, #1
 3136 0686 FFF7FEFF 		bl	PageSel_1
 3137              	.LVL559:
 543:PCA9959.c     ****             PCA9959_Write_1(Ch1_Cf1, 0x01); //
 3138              		.loc 1 543 0
 3139 068a 0021     		movs	r1, #0
 3140 068c 2020     		movs	r0, #32
 3141 068e FFF7FEFF 		bl	PCA9959_Write_1
 3142              	.LVL560:
 544:PCA9959.c     ****             PCA9959_Write_1(Ch2_Cf1, 0x00); 
 3143              		.loc 1 544 0
 3144 0692 0121     		movs	r1, #1
 3145 0694 2420     		movs	r0, #36
 3146 0696 FFF7FEFF 		bl	PCA9959_Write_1
 3147              	.LVL561:
 545:PCA9959.c     ****             PCA9959_Write_1(Ch3_Cf1, 0x01); //
 3148              		.loc 1 545 0
 3149 069a 0021     		movs	r1, #0
 3150 069c 2820     		movs	r0, #40
 3151 069e FFF7FEFF 		bl	PCA9959_Write_1
 3152              	.LVL562:
 546:PCA9959.c     ****             PCA9959_Write_1(Ch4_Cf1, 0x00); 
 3153              		.loc 1 546 0
 3154 06a2 0121     		movs	r1, #1
 3155 06a4 2C20     		movs	r0, #44
ARM GAS  C:\Users\Revanth\AppData\Local\Temp\ccqs06ys.s 			page 90


 3156 06a6 FFF7FEFF 		bl	PCA9959_Write_1
 3157              	.LVL563:
 547:PCA9959.c     ****             PCA9959_Write_1(Ch5_Cf1, 0x01); //
 3158              		.loc 1 547 0
 3159 06aa 0021     		movs	r1, #0
 3160 06ac 3020     		movs	r0, #48
 3161 06ae FFF7FEFF 		bl	PCA9959_Write_1
 3162              	.LVL564:
 548:PCA9959.c     ****             PCA9959_Write_1(Ch6_Cf1, 0x00);  
 3163              		.loc 1 548 0
 3164 06b2 0121     		movs	r1, #1
 3165 06b4 3420     		movs	r0, #52
 3166 06b6 FFF7FEFF 		bl	PCA9959_Write_1
 3167              	.LVL565:
 549:PCA9959.c     ****             PCA9959_Write_1(Ch7_Cf1, 0x00); 
 3168              		.loc 1 549 0
 3169 06ba 0021     		movs	r1, #0
 3170 06bc 3820     		movs	r0, #56
 3171 06be FFF7FEFF 		bl	PCA9959_Write_1
 3172              	.LVL566:
 550:PCA9959.c     ****             PCA9959_Write_1(Ch8_Cf1, 0x00); 
 3173              		.loc 1 550 0
 3174 06c2 0021     		movs	r1, #0
 3175 06c4 3C20     		movs	r0, #60
 3176 06c6 FFF7FEFF 		bl	PCA9959_Write_1
 3177              	.LVL567:
 551:PCA9959.c     ****             PCA9959_Write_1(Ch9_Cf1, 0x00);  
 3178              		.loc 1 551 0
 3179 06ca 0021     		movs	r1, #0
 3180 06cc 4020     		movs	r0, #64
 3181 06ce FFF7FEFF 		bl	PCA9959_Write_1
 3182              	.LVL568:
 552:PCA9959.c     ****             PCA9959_Write_1(Ch10_Cf1, 0x00); 
 3183              		.loc 1 552 0
 3184 06d2 0021     		movs	r1, #0
 3185 06d4 4420     		movs	r0, #68
 3186 06d6 FFF7FEFF 		bl	PCA9959_Write_1
 3187              	.LVL569:
 553:PCA9959.c     ****             PCA9959_Write_1(Ch11_Cf1, 0x00);
 3188              		.loc 1 553 0
 3189 06da 0021     		movs	r1, #0
 3190 06dc 4820     		movs	r0, #72
 3191 06de FFF7FEFF 		bl	PCA9959_Write_1
 3192              	.LVL570:
 554:PCA9959.c     ****             
 3193              		.loc 1 554 0
 3194 06e2 0021     		movs	r1, #0
 3195 06e4 4C20     		movs	r0, #76
 3196 06e6 FFF7FEFF 		bl	PCA9959_Write_1
 3197              	.LVL571:
 556:PCA9959.c     ****             PCA9959_Write_1(Ch13_Cf1, 0x00); 
 3198              		.loc 1 556 0
 3199 06ea 0121     		movs	r1, #1
 3200 06ec 5020     		movs	r0, #80
 3201 06ee FFF7FEFF 		bl	PCA9959_Write_1
 3202              	.LVL572:
 557:PCA9959.c     ****             PCA9959_Write_1(Ch14_Cf1, 0x00);
ARM GAS  C:\Users\Revanth\AppData\Local\Temp\ccqs06ys.s 			page 91


 3203              		.loc 1 557 0
 3204 06f2 0021     		movs	r1, #0
 3205 06f4 5420     		movs	r0, #84
 3206 06f6 FFF7FEFF 		bl	PCA9959_Write_1
 3207              	.LVL573:
 558:PCA9959.c     ****             PCA9959_Write_1(Ch15_Cf1, 0x00);
 3208              		.loc 1 558 0
 3209 06fa 0021     		movs	r1, #0
 3210 06fc 5820     		movs	r0, #88
 3211 06fe FFF7FEFF 		bl	PCA9959_Write_1
 3212              	.LVL574:
 559:PCA9959.c     ****             PCA9959_Write_1(Ch16_Cf1, 0x01); //
 3213              		.loc 1 559 0
 3214 0702 0021     		movs	r1, #0
 3215 0704 5C20     		movs	r0, #92
 3216 0706 FFF7FEFF 		bl	PCA9959_Write_1
 3217              	.LVL575:
 560:PCA9959.c     ****             PCA9959_Write_1(Ch17_Cf1, 0x00);
 3218              		.loc 1 560 0
 3219 070a 0121     		movs	r1, #1
 3220 070c 6020     		movs	r0, #96
 3221 070e FFF7FEFF 		bl	PCA9959_Write_1
 3222              	.LVL576:
 561:PCA9959.c     ****             PCA9959_Write_1(Ch18_Cf1, 0x01); //
 3223              		.loc 1 561 0
 3224 0712 0021     		movs	r1, #0
 3225 0714 6420     		movs	r0, #100
 3226 0716 FFF7FEFF 		bl	PCA9959_Write_1
 3227              	.LVL577:
 562:PCA9959.c     ****             PCA9959_Write_1(Ch19_Cf1, 0x00);
 3228              		.loc 1 562 0
 3229 071a 0121     		movs	r1, #1
 3230 071c 6820     		movs	r0, #104
 3231 071e FFF7FEFF 		bl	PCA9959_Write_1
 3232              	.LVL578:
 563:PCA9959.c     ****             PCA9959_Write_1(Ch20_Cf1, 0x00);
 3233              		.loc 1 563 0
 3234 0722 0021     		movs	r1, #0
 3235 0724 6C20     		movs	r0, #108
 3236 0726 FFF7FEFF 		bl	PCA9959_Write_1
 3237              	.LVL579:
 564:PCA9959.c     ****             PCA9959_Write_1(Ch21_Cf1, 0x00);
 3238              		.loc 1 564 0
 3239 072a 0021     		movs	r1, #0
 3240 072c 7020     		movs	r0, #112
 3241 072e FFF7FEFF 		bl	PCA9959_Write_1
 3242              	.LVL580:
 565:PCA9959.c     ****             PCA9959_Write_1(Ch22_Cf1, 0x00);
 3243              		.loc 1 565 0
 3244 0732 0021     		movs	r1, #0
 3245 0734 7420     		movs	r0, #116
 3246 0736 FFF7FEFF 		bl	PCA9959_Write_1
 3247              	.LVL581:
 566:PCA9959.c     ****             PCA9959_Write_1(Ch23_Cf1, 0x00);
 3248              		.loc 1 566 0
 3249 073a 0021     		movs	r1, #0
 3250 073c 7820     		movs	r0, #120
ARM GAS  C:\Users\Revanth\AppData\Local\Temp\ccqs06ys.s 			page 92


 3251 073e FFF7FEFF 		bl	PCA9959_Write_1
 3252              	.LVL582:
 567:PCA9959.c     ****             
 3253              		.loc 1 567 0
 3254 0742 0021     		movs	r1, #0
 3255 0744 7C20     		movs	r0, #124
 3256 0746 FFF7FEFF 		bl	PCA9959_Write_1
 3257              	.LVL583:
 571:PCA9959.c     ****             PCA9959_Write_1(Ch1_Cf2, Brg);  //
 3258              		.loc 1 571 0
 3259 074a 0021     		movs	r1, #0
 3260 074c 2120     		movs	r0, #33
 3261 074e FFF7FEFF 		bl	PCA9959_Write_1
 3262              	.LVL584:
 572:PCA9959.c     ****             PCA9959_Write_1(Ch2_Cf2, 0x00);
 3263              		.loc 1 572 0
 3264 0752 2946     		mov	r1, r5
 3265 0754 2520     		movs	r0, #37
 3266 0756 FFF7FEFF 		bl	PCA9959_Write_1
 3267              	.LVL585:
 573:PCA9959.c     ****             PCA9959_Write_1(Ch3_Cf2, Brg);  //
 3268              		.loc 1 573 0
 3269 075a 0021     		movs	r1, #0
 3270 075c 2920     		movs	r0, #41
 3271 075e FFF7FEFF 		bl	PCA9959_Write_1
 3272              	.LVL586:
 574:PCA9959.c     ****             PCA9959_Write_1(Ch4_Cf2, 0x00);
 3273              		.loc 1 574 0
 3274 0762 2946     		mov	r1, r5
 3275 0764 2D20     		movs	r0, #45
 3276 0766 FFF7FEFF 		bl	PCA9959_Write_1
 3277              	.LVL587:
 575:PCA9959.c     ****             PCA9959_Write_1(Ch5_Cf2, Brg); //
 3278              		.loc 1 575 0
 3279 076a 0021     		movs	r1, #0
 3280 076c 3120     		movs	r0, #49
 3281 076e FFF7FEFF 		bl	PCA9959_Write_1
 3282              	.LVL588:
 576:PCA9959.c     ****             PCA9959_Write_1(Ch6_Cf2, 0x00); 
 3283              		.loc 1 576 0
 3284 0772 2946     		mov	r1, r5
 3285 0774 3520     		movs	r0, #53
 3286 0776 FFF7FEFF 		bl	PCA9959_Write_1
 3287              	.LVL589:
 577:PCA9959.c     ****             PCA9959_Write_1(Ch7_Cf2, 0x00);
 3288              		.loc 1 577 0
 3289 077a 0021     		movs	r1, #0
 3290 077c 3920     		movs	r0, #57
 3291 077e FFF7FEFF 		bl	PCA9959_Write_1
 3292              	.LVL590:
 578:PCA9959.c     ****             PCA9959_Write_1(Ch8_Cf2, 0x00);
 3293              		.loc 1 578 0
 3294 0782 0021     		movs	r1, #0
 3295 0784 3D20     		movs	r0, #61
 3296 0786 FFF7FEFF 		bl	PCA9959_Write_1
 3297              	.LVL591:
 579:PCA9959.c     ****             PCA9959_Write_1(Ch9_Cf2, 0x00);   
ARM GAS  C:\Users\Revanth\AppData\Local\Temp\ccqs06ys.s 			page 93


 3298              		.loc 1 579 0
 3299 078a 0021     		movs	r1, #0
 3300 078c 4120     		movs	r0, #65
 3301 078e FFF7FEFF 		bl	PCA9959_Write_1
 3302              	.LVL592:
 580:PCA9959.c     ****             PCA9959_Write_1(Ch10_Cf2, 0x00);
 3303              		.loc 1 580 0
 3304 0792 0021     		movs	r1, #0
 3305 0794 4520     		movs	r0, #69
 3306 0796 FFF7FEFF 		bl	PCA9959_Write_1
 3307              	.LVL593:
 581:PCA9959.c     ****             PCA9959_Write_1(Ch11_Cf2, 0x00);
 3308              		.loc 1 581 0
 3309 079a 0021     		movs	r1, #0
 3310 079c 4920     		movs	r0, #73
 3311 079e FFF7FEFF 		bl	PCA9959_Write_1
 3312              	.LVL594:
 582:PCA9959.c     ****             
 3313              		.loc 1 582 0
 3314 07a2 0021     		movs	r1, #0
 3315 07a4 4D20     		movs	r0, #77
 3316 07a6 FFF7FEFF 		bl	PCA9959_Write_1
 3317              	.LVL595:
 584:PCA9959.c     ****             PCA9959_Write_1(Ch13_Cf2, 0x00); 
 3318              		.loc 1 584 0
 3319 07aa 2946     		mov	r1, r5
 3320 07ac 5120     		movs	r0, #81
 3321 07ae FFF7FEFF 		bl	PCA9959_Write_1
 3322              	.LVL596:
 585:PCA9959.c     ****             PCA9959_Write_1(Ch14_Cf2, 0x00);
 3323              		.loc 1 585 0
 3324 07b2 0021     		movs	r1, #0
 3325 07b4 5520     		movs	r0, #85
 3326 07b6 FFF7FEFF 		bl	PCA9959_Write_1
 3327              	.LVL597:
 586:PCA9959.c     ****             PCA9959_Write_1(Ch15_Cf2, 0x00);
 3328              		.loc 1 586 0
 3329 07ba 0021     		movs	r1, #0
 3330 07bc 5920     		movs	r0, #89
 3331 07be FFF7FEFF 		bl	PCA9959_Write_1
 3332              	.LVL598:
 587:PCA9959.c     ****             PCA9959_Write_1(Ch16_Cf2, Brg); //
 3333              		.loc 1 587 0
 3334 07c2 0021     		movs	r1, #0
 3335 07c4 5D20     		movs	r0, #93
 3336 07c6 FFF7FEFF 		bl	PCA9959_Write_1
 3337              	.LVL599:
 588:PCA9959.c     ****             PCA9959_Write_1(Ch17_Cf2, 0x00);
 3338              		.loc 1 588 0
 3339 07ca 2946     		mov	r1, r5
 3340 07cc 6120     		movs	r0, #97
 3341 07ce FFF7FEFF 		bl	PCA9959_Write_1
 3342              	.LVL600:
 589:PCA9959.c     ****             PCA9959_Write_1(Ch18_Cf2, Brg); //
 3343              		.loc 1 589 0
 3344 07d2 0021     		movs	r1, #0
 3345 07d4 6520     		movs	r0, #101
ARM GAS  C:\Users\Revanth\AppData\Local\Temp\ccqs06ys.s 			page 94


 3346 07d6 FFF7FEFF 		bl	PCA9959_Write_1
 3347              	.LVL601:
 590:PCA9959.c     ****             PCA9959_Write_1(Ch19_Cf2, 0x00);
 3348              		.loc 1 590 0
 3349 07da 2946     		mov	r1, r5
 3350 07dc 6920     		movs	r0, #105
 3351 07de FFF7FEFF 		bl	PCA9959_Write_1
 3352              	.LVL602:
 591:PCA9959.c     ****             PCA9959_Write_1(Ch20_Cf2, 0x00);
 3353              		.loc 1 591 0
 3354 07e2 0021     		movs	r1, #0
 3355 07e4 6D20     		movs	r0, #109
 3356 07e6 FFF7FEFF 		bl	PCA9959_Write_1
 3357              	.LVL603:
 592:PCA9959.c     ****             PCA9959_Write_1(Ch21_Cf2, 0x00);
 3358              		.loc 1 592 0
 3359 07ea 0021     		movs	r1, #0
 3360 07ec 7120     		movs	r0, #113
 3361 07ee FFF7FEFF 		bl	PCA9959_Write_1
 3362              	.LVL604:
 593:PCA9959.c     ****             PCA9959_Write_1(Ch22_Cf2, 0x00);
 3363              		.loc 1 593 0
 3364 07f2 0021     		movs	r1, #0
 3365 07f4 7520     		movs	r0, #117
 3366 07f6 FFF7FEFF 		bl	PCA9959_Write_1
 3367              	.LVL605:
 594:PCA9959.c     ****             PCA9959_Write_1(Ch23_Cf2, 0x00);
 3368              		.loc 1 594 0
 3369 07fa 0021     		movs	r1, #0
 3370 07fc 7920     		movs	r0, #121
 3371 07fe FFF7FEFF 		bl	PCA9959_Write_1
 3372              	.LVL606:
 595:PCA9959.c     ****             Pin_OE_PCA9959_1_Write(0);
 3373              		.loc 1 595 0
 3374 0802 0021     		movs	r1, #0
 3375 0804 7D20     		movs	r0, #125
 3376 0806 FFF7FEFF 		bl	PCA9959_Write_1
 3377              	.LVL607:
 596:PCA9959.c     ****         }
 3378              		.loc 1 596 0
 3379 080a 0020     		movs	r0, #0
 3380 080c FFF7FEFF 		bl	Pin_OE_PCA9959_1_Write
 3381              	.LVL608:
 3382 0810 38BD     		pop	{r3, r4, r5, pc}
 3383              	.L81:
 599:PCA9959.c     ****         {
 3384              		.loc 1 599 0
 3385 0812 062C     		cmp	r4, #6
 3386 0814 40F0CA80 		bne	.L82
 601:PCA9959.c     ****             PageSel_1(ChSel);
 3387              		.loc 1 601 0
 3388 0818 0120     		movs	r0, #1
 3389 081a FFF7FEFF 		bl	Pin_OE_PCA9959_1_Write
 3390              	.LVL609:
 602:PCA9959.c     ****             PCA9959_Write_1(Ch0_Cf1, 0x01);    //                 //LED Channel 0 is assigned to Gr
 3391              		.loc 1 602 0
 3392 081e 0120     		movs	r0, #1
ARM GAS  C:\Users\Revanth\AppData\Local\Temp\ccqs06ys.s 			page 95


 3393 0820 FFF7FEFF 		bl	PageSel_1
 3394              	.LVL610:
 603:PCA9959.c     ****             PCA9959_Write_1(Ch1_Cf1, 0x00); 
 3395              		.loc 1 603 0
 3396 0824 0121     		movs	r1, #1
 3397 0826 2020     		movs	r0, #32
 3398 0828 FFF7FEFF 		bl	PCA9959_Write_1
 3399              	.LVL611:
 604:PCA9959.c     ****             PCA9959_Write_1(Ch2_Cf1, 0x01);  //
 3400              		.loc 1 604 0
 3401 082c 0021     		movs	r1, #0
 3402 082e 2420     		movs	r0, #36
 3403 0830 FFF7FEFF 		bl	PCA9959_Write_1
 3404              	.LVL612:
 605:PCA9959.c     ****             PCA9959_Write_1(Ch3_Cf1, 0x00); 
 3405              		.loc 1 605 0
 3406 0834 0121     		movs	r1, #1
 3407 0836 2820     		movs	r0, #40
 3408 0838 FFF7FEFF 		bl	PCA9959_Write_1
 3409              	.LVL613:
 606:PCA9959.c     ****             PCA9959_Write_1(Ch4_Cf1, 0x01); //
 3410              		.loc 1 606 0
 3411 083c 0021     		movs	r1, #0
 3412 083e 2C20     		movs	r0, #44
 3413 0840 FFF7FEFF 		bl	PCA9959_Write_1
 3414              	.LVL614:
 607:PCA9959.c     ****             PCA9959_Write_1(Ch5_Cf1, 0x00); 
 3415              		.loc 1 607 0
 3416 0844 0121     		movs	r1, #1
 3417 0846 3020     		movs	r0, #48
 3418 0848 FFF7FEFF 		bl	PCA9959_Write_1
 3419              	.LVL615:
 608:PCA9959.c     ****             PCA9959_Write_1(Ch6_Cf1, 0x00);  
 3420              		.loc 1 608 0
 3421 084c 0021     		movs	r1, #0
 3422 084e 3420     		movs	r0, #52
 3423 0850 FFF7FEFF 		bl	PCA9959_Write_1
 3424              	.LVL616:
 609:PCA9959.c     ****             PCA9959_Write_1(Ch7_Cf1, 0x00); 
 3425              		.loc 1 609 0
 3426 0854 0021     		movs	r1, #0
 3427 0856 3820     		movs	r0, #56
 3428 0858 FFF7FEFF 		bl	PCA9959_Write_1
 3429              	.LVL617:
 610:PCA9959.c     ****             PCA9959_Write_1(Ch8_Cf1, 0x01); //
 3430              		.loc 1 610 0
 3431 085c 0021     		movs	r1, #0
 3432 085e 3C20     		movs	r0, #60
 3433 0860 FFF7FEFF 		bl	PCA9959_Write_1
 3434              	.LVL618:
 611:PCA9959.c     ****             PCA9959_Write_1(Ch9_Cf1, 0x00);  
 3435              		.loc 1 611 0
 3436 0864 0121     		movs	r1, #1
 3437 0866 4020     		movs	r0, #64
 3438 0868 FFF7FEFF 		bl	PCA9959_Write_1
 3439              	.LVL619:
 612:PCA9959.c     ****             PCA9959_Write_1(Ch10_Cf1, 0x00); 
ARM GAS  C:\Users\Revanth\AppData\Local\Temp\ccqs06ys.s 			page 96


 3440              		.loc 1 612 0
 3441 086c 0021     		movs	r1, #0
 3442 086e 4420     		movs	r0, #68
 3443 0870 FFF7FEFF 		bl	PCA9959_Write_1
 3444              	.LVL620:
 613:PCA9959.c     ****             PCA9959_Write_1(Ch11_Cf1, 0x00);
 3445              		.loc 1 613 0
 3446 0874 0021     		movs	r1, #0
 3447 0876 4820     		movs	r0, #72
 3448 0878 FFF7FEFF 		bl	PCA9959_Write_1
 3449              	.LVL621:
 614:PCA9959.c     ****             
 3450              		.loc 1 614 0
 3451 087c 0021     		movs	r1, #0
 3452 087e 4C20     		movs	r0, #76
 3453 0880 FFF7FEFF 		bl	PCA9959_Write_1
 3454              	.LVL622:
 616:PCA9959.c     ****             PCA9959_Write_1(Ch13_Cf1, 0x00); 
 3455              		.loc 1 616 0
 3456 0884 0021     		movs	r1, #0
 3457 0886 5020     		movs	r0, #80
 3458 0888 FFF7FEFF 		bl	PCA9959_Write_1
 3459              	.LVL623:
 617:PCA9959.c     ****             PCA9959_Write_1(Ch14_Cf1, 0x00);
 3460              		.loc 1 617 0
 3461 088c 0021     		movs	r1, #0
 3462 088e 5420     		movs	r0, #84
 3463 0890 FFF7FEFF 		bl	PCA9959_Write_1
 3464              	.LVL624:
 618:PCA9959.c     ****             PCA9959_Write_1(Ch15_Cf1, 0x01); //
 3465              		.loc 1 618 0
 3466 0894 0021     		movs	r1, #0
 3467 0896 5820     		movs	r0, #88
 3468 0898 FFF7FEFF 		bl	PCA9959_Write_1
 3469              	.LVL625:
 619:PCA9959.c     ****             PCA9959_Write_1(Ch16_Cf1, 0x00); 
 3470              		.loc 1 619 0
 3471 089c 0121     		movs	r1, #1
 3472 089e 5C20     		movs	r0, #92
 3473 08a0 FFF7FEFF 		bl	PCA9959_Write_1
 3474              	.LVL626:
 620:PCA9959.c     ****             PCA9959_Write_1(Ch17_Cf1, 0x01); //
 3475              		.loc 1 620 0
 3476 08a4 0021     		movs	r1, #0
 3477 08a6 6020     		movs	r0, #96
 3478 08a8 FFF7FEFF 		bl	PCA9959_Write_1
 3479              	.LVL627:
 621:PCA9959.c     ****             PCA9959_Write_1(Ch18_Cf1, 0x00); 
 3480              		.loc 1 621 0
 3481 08ac 0121     		movs	r1, #1
 3482 08ae 6420     		movs	r0, #100
 3483 08b0 FFF7FEFF 		bl	PCA9959_Write_1
 3484              	.LVL628:
 622:PCA9959.c     ****             PCA9959_Write_1(Ch19_Cf1, 0x00);
 3485              		.loc 1 622 0
 3486 08b4 0021     		movs	r1, #0
