ARM GAS  C:\Users\Revanth\AppData\Local\Temp\ccq5TJLm.s 			page 1


   1              		.syntax unified
   2              		.cpu cortex-m3
   3              		.fpu softvfp
   4              		.eabi_attribute 20, 1
   5              		.eabi_attribute 21, 1
   6              		.eabi_attribute 23, 3
   7              		.eabi_attribute 24, 1
   8              		.eabi_attribute 25, 1
   9              		.eabi_attribute 26, 1
  10              		.eabi_attribute 30, 1
  11              		.eabi_attribute 34, 1
  12              		.eabi_attribute 18, 4
  13              		.thumb
  14              		.syntax unified
  15              		.file	"AS76.c"
  16              		.text
  17              	.Ltext0:
  18              		.cfi_sections	.debug_frame
  19              		.section	.text.wait_interrupt_Handler,"ax",%progbits
  20              		.align	2
  21              		.global	wait_interrupt_Handler
  22              		.thumb
  23              		.thumb_func
  24              		.type	wait_interrupt_Handler, %function
  25              	wait_interrupt_Handler:
  26              	.LFB64:
  27              		.file 1 "AS76.c"
   1:AS76.c        **** 
   2:AS76.c        **** /* ========================================
   3:AS76.c        **** 
   4:AS76.c        ****    Copyright Sigtuple, 2022
   5:AS76.c        ****    All Rights Reserved
   6:AS76.c        ****    UNPUBLISHED, LICENSED SOFTWARE.
   7:AS76.c        **** 
   8:AS76.c        ****    CONFIDENTIAL AND PROPRIETARY INFORMATION
   9:AS76.c        ****    WHICH IS THE PROPERTY OF SIGTUPLE.
  10:AS76.c        **** 
  11:AS76.c        ****    ========================================
  12:AS76.c        **** */
  13:AS76.c        **** #include "AS76.h"
  14:AS76.c        **** #include "variables.h"
  15:AS76.c        **** #include "project.h"
  16:AS76.c        **** #include "math.h"
  17:AS76.c        **** #include "configuration.h"
  18:AS76.c        **** #include <stdlib.h>
  19:AS76.c        **** #include "APA102.h"
  20:AS76.c        **** 
  21:AS76.c        **** bool Time_Out_Error = true;
  22:AS76.c        **** unsigned int command;
  23:AS76.c        **** int Error = 0;
  24:AS76.c        **** 
  25:AS76.c        **** int32 Position_Y_Requested = 0; // Variable to hold position of Motor X in uSteps 51200 uSteps = 1 
  26:AS76.c        **** int32 Position_X_Requested = 0; // Variable to hold position of Motor X in uSteps 51200 uSteps = 1 
  27:AS76.c        **** int32 Position_Z_Requested = 0; // Variable to hold position of Motor X in uSteps 51200 uSteps = 1 
  28:AS76.c        **** int32 Position_T_Requested = 0; // Variable to hold position of Motor X in uSteps 51200 uSteps = 1 
  29:AS76.c        **** 
  30:AS76.c        **** int32 Previous_X_Position = 0;
ARM GAS  C:\Users\Revanth\AppData\Local\Temp\ccq5TJLm.s 			page 2


  31:AS76.c        **** int32 Previous_Y_Position = 0;
  32:AS76.c        **** int32 Previous_Z_Position = 0;
  33:AS76.c        **** 
  34:AS76.c        **** int32 Input_Position_X_Temp =0;
  35:AS76.c        **** 
  36:AS76.c        **** int32 time_ms   = 0;
  37:AS76.c        **** int32 oil_speed = 0;
  38:AS76.c        **** int32 oil_dir   = 0;
  39:AS76.c        **** 
  40:AS76.c        **** volatile int32 X_QuadPosition = 0; // Variable to hold position of Motor X in encoder steps, this v
  41:AS76.c        **** volatile int32 Y_QuadPosition = 0; // Variable to hold position of Motor Y in encoder steps, this v
  42:AS76.c        **** volatile int32 Z_QuadPosition = 0; // Variable to hold position of Motor Z in encoder steps, this v
  43:AS76.c        **** volatile int32 T_QuadPosition = 0; // Variable to hold position of Motor T in encoder steps, this v
  44:AS76.c        **** int EncoderTZSelect = 0; //Variable to indicate which encoder is being currently selected Z or T
  45:AS76.c        **** int Buffer_Z_QuadPosition = 0; //Buffer variable to store Z Encoder value when T Encoder channel is
  46:AS76.c        **** int Buffer_T_QuadPosition = 0; //Buffer variable to store T Encoder value when Z Encoder channel is
  47:AS76.c        **** 
  48:AS76.c        **** float X_Pitchfactor = 12.8; //Pitchfactor = 51200/(Encoder CPR * 4), where 51200 is the uStep requi
  49:AS76.c        **** float Y_Pitchfactor = 12.8; //Pitchfactor = 51200/(Encoder CPR * 4), where 51200 is the uStep requi
  50:AS76.c        **** float Z_Pitchfactor = 3.2;  //Pitchfactor = 51200/(Encoder CPR * 4), where 51200 is the uStep requi
  51:AS76.c        **** float T_Pitchfactor = 3.2;  //Pitchfactor = 51200/(Encoder CPR * 4), where 51200 is the uStep requi
  52:AS76.c        **** 
  53:AS76.c        **** unsigned int Motor_Speed_X = (51200*6); //Default_X_Motor_Speed - 6 Rotations per second;
  54:AS76.c        **** unsigned int Motor_Speed_Y = (51200*6); //Default_Y_Motor_Speed - 6 Rotations per second;
  55:AS76.c        **** unsigned int Motor_Speed_Z = (51200*6); //Default_Z_Motor_Speed - 3 Rotations per second;
  56:AS76.c        **** 
  57:AS76.c        **** bool HomeX_done = false; //Variable to indicate if Homing procedure done  or not in X Motor, intial
  58:AS76.c        **** bool HomeY_done = false; //Variable to indicate if Homing procedure done  or not in Y Motor, intial
  59:AS76.c        **** bool HomeZ_done = false; //Variable to indicate if Homing procedure done  or not in Z Motor, intial
  60:AS76.c        **** bool HomeT_done = false; //Variable to indicate if Homing procedure done  or not in T Motor, intial
  61:AS76.c        **** 
  62:AS76.c        **** bool HomeX_done_Buffer = false; //Variable to indicate if Homing procedure done  or not in X Motor,
  63:AS76.c        **** bool HomeY_done_Buffer = false; //Variable to indicate if Homing procedure done  or not in Y Motor,
  64:AS76.c        **** bool HomeZ_done_Buffer = false; //Variable to indicate if Homing procedure done  or not in Z Motor,
  65:AS76.c        **** bool HomeT_done_Buffer = false; //Variable to indicate if Homing procedure done  or not in T Motor,
  66:AS76.c        **** 
  67:AS76.c        **** // PWM Value for Condenser LED and Barcode LED
  68:AS76.c        **** int PWM_Condenser_comare_value = 200;
  69:AS76.c        **** int PWM_barcode_comare_value = 0;
  70:AS76.c        **** 
  71:AS76.c        **** // Variable to store the status byte of the corresponding motor driver
  72:AS76.c        **** extern uint8_t status_x;
  73:AS76.c        **** extern uint8_t status_y;
  74:AS76.c        **** extern uint8_t status_z;
  75:AS76.c        **** extern uint8_t status_t;
  76:AS76.c        **** 
  77:AS76.c        **** 
  78:AS76.c        **** uint16_t ms_count = 0;
  79:AS76.c        **** bool exit_loop =0;
  80:AS76.c        **** CY_ISR(wait_interrupt_Handler) {
  28              		.loc 1 80 0
  29              		.cfi_startproc
  30              		@ args = 0, pretend = 0, frame = 0
  31              		@ frame_needed = 0, uses_anonymous_args = 0
  32              		@ link register save eliminated.
  81:AS76.c        ****     ms_count++;
  33              		.loc 1 81 0
ARM GAS  C:\Users\Revanth\AppData\Local\Temp\ccq5TJLm.s 			page 3


  34 0000 074A     		ldr	r2, .L3
  35 0002 1388     		ldrh	r3, [r2]
  36 0004 0133     		adds	r3, r3, #1
  37 0006 9BB2     		uxth	r3, r3
  38 0008 1380     		strh	r3, [r2]	@ movhi
  82:AS76.c        ****      
  83:AS76.c        ****     if(ms_count == 11000) 
  39              		.loc 1 83 0
  40 000a 42F6F822 		movw	r2, #11000
  41 000e 9342     		cmp	r3, r2
  42 0010 04D1     		bne	.L1
  84:AS76.c        ****     { // ~30 second
  85:AS76.c        ****         
  86:AS76.c        ****         exit_loop = 1;
  43              		.loc 1 86 0
  44 0012 034B     		ldr	r3, .L3
  45 0014 0122     		movs	r2, #1
  46 0016 9A70     		strb	r2, [r3, #2]
  87:AS76.c        ****         ms_count = 0; // reset ms counter
  47              		.loc 1 87 0
  48 0018 0022     		movs	r2, #0
  49 001a 1A80     		strh	r2, [r3]	@ movhi
  50              	.L1:
  51 001c 7047     		bx	lr
  52              	.L4:
  53 001e 00BF     		.align	2
  54              	.L3:
  55 0020 00000000 		.word	.LANCHOR0
  56              		.cfi_endproc
  57              	.LFE64:
  58              		.size	wait_interrupt_Handler, .-wait_interrupt_Handler
  59              		.section	.text.wait_interrupt_Handler1,"ax",%progbits
  60              		.align	2
  61              		.global	wait_interrupt_Handler1
  62              		.thumb
  63              		.thumb_func
  64              		.type	wait_interrupt_Handler1, %function
  65              	wait_interrupt_Handler1:
  66              	.LFB65:
  88:AS76.c        ****     }
  89:AS76.c        **** }
  90:AS76.c        **** bool print_flag =0;
  91:AS76.c        **** 
  92:AS76.c        **** CY_ISR(wait_interrupt_Handler1) 
  93:AS76.c        **** {
  67              		.loc 1 93 0
  68              		.cfi_startproc
  69              		@ args = 0, pretend = 0, frame = 0
  70              		@ frame_needed = 0, uses_anonymous_args = 0
  71              		@ link register save eliminated.
  94:AS76.c        ****     ms_count++;    
  72              		.loc 1 94 0
  73 0000 024A     		ldr	r2, .L6
  74 0002 1388     		ldrh	r3, [r2]
  75 0004 0133     		adds	r3, r3, #1
  76 0006 1380     		strh	r3, [r2]	@ movhi
  77 0008 7047     		bx	lr
ARM GAS  C:\Users\Revanth\AppData\Local\Temp\ccq5TJLm.s 			page 4


  78              	.L7:
  79 000a 00BF     		.align	2
  80              	.L6:
  81 000c 00000000 		.word	.LANCHOR0
  82              		.cfi_endproc
  83              	.LFE65:
  84              		.size	wait_interrupt_Handler1, .-wait_interrupt_Handler1
  85              		.section	.text.Initialize_PWM,"ax",%progbits
  86              		.align	2
  87              		.global	Initialize_PWM
  88              		.thumb
  89              		.thumb_func
  90              		.type	Initialize_PWM, %function
  91              	Initialize_PWM:
  92              	.LFB81:
  95:AS76.c        **** 
  96:AS76.c        **** }
  97:AS76.c        **** 
  98:AS76.c        **** //Motor Movment Functions Start-------------------------------------------------------
  99:AS76.c        **** 
 100:AS76.c        **** /* --------------------------------------------------------------------------------------------
 101:AS76.c        **** Function Name        : GotoPos
 102:AS76.c        **** 
 103:AS76.c        **** Prerequist Knowledge : TMC5160 Register Sets, Stepper Motor
 104:AS76.c        **** 
 105:AS76.c        **** Function Description : This Function is used to move the stepper motor to a desired position in the
 106:AS76.c        ****                        provided axis
 107:AS76.c        **** 
 108:AS76.c        **** Return Type & Data   : Void
 109:AS76.c        **** 
 110:AS76.c        **** Variable Updation:   : Nil
 111:AS76.c        **** 
 112:AS76.c        **** Numnber of Arguments : 2
 113:AS76.c        **** 
 114:AS76.c        **** -----Argument 1-----
 115:AS76.c        **** Name                 : Pos
 116:AS76.c        **** Tupe                 : int
 117:AS76.c        **** Description          : This Argument Represents the Target postion in 1/256 microsteps to which the
 118:AS76.c        ****                        stepper should move
 119:AS76.c        **** Condition            : Nil                       
 120:AS76.c        **** --------------------
 121:AS76.c        **** 
 122:AS76.c        **** -----Argument 2-----
 123:AS76.c        **** Name                 : Motor
 124:AS76.c        **** Tupe                 : uint8_t
 125:AS76.c        **** Description          : This Argument Represents the driver channel
 126:AS76.c        **** Condition            : This Value must range from 0x00 to 0x04 since there are only 5 channels
 127:AS76.c        ****                        available in AS76 System Configuration, condition to be checked in 
 128:AS76.c        ****                        SPI_MOTOR_CHIP_SELECT Function                       
 129:AS76.c        **** --------------------
 130:AS76.c        **** 
 131:AS76.c        **** 
 132:AS76.c        **** 
 133:AS76.c        **** ---------------------------------------------------------------------------------------------*/
 134:AS76.c        **** void GotoPos(int Pos, uint8_t Motor)
 135:AS76.c        **** {
 136:AS76.c        ****     Write_32bitSPI_DATA (0x20  , (int) 0x00000000, Motor );
ARM GAS  C:\Users\Revanth\AppData\Local\Temp\ccq5TJLm.s 			page 5


 137:AS76.c        ****     Write_32bitSPI_DATA (0x05  , Pos, Motor );
 138:AS76.c        ****     Write_32bitSPI_DATA (0x2D  , Pos, Motor );   
 139:AS76.c        **** 
 140:AS76.c        **** }
 141:AS76.c        **** 
 142:AS76.c        **** ///////////////////////////////////////////////////////////////////////////////////////
 143:AS76.c        **** 
 144:AS76.c        **** /////////////////////////////////////Homing X//////////////////////////////////////////
 145:AS76.c        **** 
 146:AS76.c        **** /* --------------------------------------------------------------------------------------------
 147:AS76.c        **** Function Name        : homeX
 148:AS76.c        **** 
 149:AS76.c        **** Prerequist Knowledge : Homing of stepper motor system, TM5160 Datasheet, Encoders
 150:AS76.c        **** 
 151:AS76.c        **** Function Description : This Function is used to home the motor X, where motor moves at specific
 152:AS76.c        ****                        Low speed towards left until it hits the limit switch on the left side then 
 153:AS76.c        ****                        motor rotates 1 rotation next the motor moves at specific Low speed towards 
 154:AS76.c        ****                        left until it hits the limit switch then motor gain moves 1 rotaion with ste
 155:AS76.c        ****                        loss correction and that point TMC5160 marks as position 0 and resets the X 
 156:AS76.c        ****                        Channel encoder.
 157:AS76.c        **** 
 158:AS76.c        **** Return Type & Data   :Void
 159:AS76.c        **** 
 160:AS76.c        **** Variable Updation: status_x, Error, X_QuadPosition
 161:AS76.c        **** 
 162:AS76.c        **** Numnber of Arguments : 1
 163:AS76.c        **** 
 164:AS76.c        **** -----Argument 1-----
 165:AS76.c        **** Name                 : Motor
 166:AS76.c        **** Tupe                 : uint8_t
 167:AS76.c        **** Description          : This Argument Represents the driver channel
 168:AS76.c        **** Condition            : This Value must range from 0x00 to 0x04 since there are only 5 channels
 169:AS76.c        ****                        available in AS76 System Configuration, condition to be checked in 
 170:AS76.c        ****                        SPI_MOTOR_CHIP_SELECT Function                       
 171:AS76.c        **** --------------------
 172:AS76.c        **** 
 173:AS76.c        **** 
 174:AS76.c        **** 
 175:AS76.c        **** ---------------------------------------------------------------------------------------------*/
 176:AS76.c        **** 
 177:AS76.c        **** void homeX(uint8_t Motor)
 178:AS76.c        **** {
 179:AS76.c        ****     Write_32bitSPI_DATA (0x10  , (int) 0x00070503, TMC5160_nCS_MotorX );
 180:AS76.c        ****     update_max_velocity((307200), Motor); // Set Motor to low speed
 181:AS76.c        ****     Write_32bitSPI_DATA (0x20  , (int) 0x00000002, Motor ); // Move the motor to Left continuously
 182:AS76.c        ****     CyDelayUs(200);
 183:AS76.c        ****     Read_32bitSPI_DATA(0x04, Motor, &status_x); // Read the status register of TMC5160
 184:AS76.c        ****     CyDelayUs(500);
 185:AS76.c        ****     Read_32bitSPI_DATA(0x04, Motor, &status_x); // Read the status register of TMC5160
 186:AS76.c        ****     Write_Debug_UART_Char("Limit Switch X going to press \n");
 187:AS76.c        ****     while ( (status_x & 0x40) == 0x00) // Condition to check if the Left limit switch is pressed or
 188:AS76.c        ****     {
 189:AS76.c        ****        wait_timer_Start();
 190:AS76.c        ****        wait_interrupt_StartEx(wait_interrupt_Handler);
 191:AS76.c        ****        Read_32bitSPI_DATA(0x04, Motor, &status_x); // Read the status register of TMC5160
 192:AS76.c        ****        CyDelayUs(100);
 193:AS76.c        ****        if(exit_loop == 1)
ARM GAS  C:\Users\Revanth\AppData\Local\Temp\ccq5TJLm.s 			page 6


 194:AS76.c        ****        {
 195:AS76.c        ****         Error = 4;
 196:AS76.c        ****         Send_Feedback_to_USB(Error);
 197:AS76.c        ****         wait_timer_Stop();
 198:AS76.c        ****         Write_32bitSPI_DATA (0x20  , (int) 0x00000000, Motor );
 199:AS76.c        ****         Write_32bitSPI_DATA (0x21  , (int) 0x0000000, Motor); // Mark the current postion as 0
 200:AS76.c        ****         Write_32bitSPI_DATA (0x2D  , 0x00000000, Motor ); // Set thye target position as 0
 201:AS76.c        ****         exit_loop = 0;
 202:AS76.c        ****         Error =0;
 203:AS76.c        ****         Write_Debug_UART_Char("Home X Stuck in Lopp and terminated due to timeout \n");
 204:AS76.c        ****         return;        
 205:AS76.c        ****     }
 206:AS76.c        ****     }    
 207:AS76.c        ****     wait_timer_Stop();
 208:AS76.c        ****     exit_loop =0;
 209:AS76.c        ****     Write_Debug_UART_Char("Limit Switch X Pressed \n");
 210:AS76.c        ****     
 211:AS76.c        ****     
 212:AS76.c        ****     Write_32bitSPI_DATA (0x21  , (int) 0x0000000, Motor); //Write the X_Actual Register of TMC5160 
 213:AS76.c        ****     CyDelayUs(10);
 214:AS76.c        ****     /*
 215:AS76.c        ****     GotoPos(((256*200)*2), Motor); // Move the motor 2 rotations (102400 uSteps)
 216:AS76.c        ****     CyDelayUs(500);
 217:AS76.c        ****     // Read the status byte register to whther the required position is reached by the motor or not
 218:AS76.c        ****     Read_32bitSPI_DATA(0x04, Motor, &status_x); // Read the status register of TMC5160
 219:AS76.c        ****     CyDelayUs(500);
 220:AS76.c        ****     Read_32bitSPI_DATA(0x04, Motor, &status_x); // Read the status register of TMC5160
 221:AS76.c        ****     while ( (status_x & 0x20) == 0x00) // Check if target position is reached or not
 222:AS76.c        ****     {
 223:AS76.c        ****         Read_32bitSPI_DATA(0x04, Motor, &status_x); // Read the status register of TMC5160
 224:AS76.c        ****         CyDelayUs(100);
 225:AS76.c        ****        
 226:AS76.c        ****     }
 227:AS76.c        ****     
 228:AS76.c        ****     // Till the above point of code 1st homing is done repeat the same procedure at lower speed to 
 229:AS76.c        ****     Write_32bitSPI_DATA (0x0B  , (int) 127, Motor );
 230:AS76.c        ****     Write_32bitSPI_DATA (0x11  , (int) 0x00070103, Motor );
 231:AS76.c        ****     update_max_velocity((53687), Motor); // Update motor speed to 1 rotation/second
 232:AS76.c        ****     Write_32bitSPI_DATA (0x20  , (int) 0x00000002, Motor ); // // Move the motor to Left continuous
 233:AS76.c        ****     CyDelayUs(200);
 234:AS76.c        ****     Read_32bitSPI_DATA(0x04, Motor, &status_x);
 235:AS76.c        ****     CyDelayUs(500);
 236:AS76.c        ****     Read_32bitSPI_DATA(0x04, Motor, &status_x);
 237:AS76.c        ****     while ( (status_x & 0x40) == 0x00)
 238:AS76.c        ****     {
 239:AS76.c        ****        Read_32bitSPI_DATA(0x04, Motor, &status_x);
 240:AS76.c        ****        CyDelayUs(100);
 241:AS76.c        ****     }
 242:AS76.c        **** */
 243:AS76.c        ****     Write_32bitSPI_DATA (0x21  , (int) 0x0000000, Motor);
 244:AS76.c        ****     //X_last_position = 0;
 245:AS76.c        ****     QuadDec_X_SetCounter(0);
 246:AS76.c        ****     //Input_Position_X_Temp = 0;
 247:AS76.c        ****     HomeX_done = true;
 248:AS76.c        ****     HomeY_done = true;
 249:AS76.c        ****     HomeZ_done = true;
 250:AS76.c        ****     HomeT_done = true;
ARM GAS  C:\Users\Revanth\AppData\Local\Temp\ccq5TJLm.s 			page 7


 251:AS76.c        ****     CyDelayUs(100);
 252:AS76.c        ****     goTo_X((256*200)*1); // Move the motor 1 rotation with error corrction mechanism based on encod
 253:AS76.c        ****     //Input_Position_X_Temp = 0;
 254:AS76.c        ****     Write_Debug_UART_Char("Error in Home X Before Goto home pos : ");
 255:AS76.c        ****     Write_Debug_UART_Int(Error);
 256:AS76.c        ****     Write_Debug_UART_Char("\n");
 257:AS76.c        ****     HomeX_done = HomeX_done_Buffer;
 258:AS76.c        ****     HomeY_done = HomeY_done_Buffer;
 259:AS76.c        ****     HomeZ_done = HomeZ_done_Buffer;
 260:AS76.c        ****     HomeT_done = HomeT_done_Buffer;
 261:AS76.c        ****     CyDelayUs(100);
 262:AS76.c        ****     Write_32bitSPI_DATA (0x21  , (int) 0x0000000, Motor); // Mark the current postion as 0
 263:AS76.c        ****     Write_32bitSPI_DATA (0x2D  , 0x00000000, Motor ); // Set thye target position as 0
 264:AS76.c        ****     update_max_velocity(381178, Motor); // update the motor speed to to 10 rotations per second 536
 265:AS76.c        ****     Write_32bitSPI_DATA (0x0B  , (int) 150, Motor );
 266:AS76.c        ****     Write_32bitSPI_DATA (0x10  , (int) 0x00070101, Motor );
 267:AS76.c        ****     //Write_32bitSPI_DATA (0x25  , (51200*5)-100, Motor );
 268:AS76.c        **** 
 269:AS76.c        ****     Error =0;
 270:AS76.c        ****     QuadDec_X_SetCounter(0); //set the encoder counter value as 0
 271:AS76.c        ****     //X_QuadPosition =0 ; // set the encoder variable to 0
 272:AS76.c        ****     //Input_Position_X_Temp = 0;
 273:AS76.c        ****     HomeX_done = true;
 274:AS76.c        ****     HomeX_done_Buffer = true;
 275:AS76.c        ****     Write_Debug_UART_Char("HomeX executed  \r\n");
 276:AS76.c        ****     Write_32bitSPI_DATA (0x10  , (int) 0x00070103, TMC5160_nCS_MotorY );
 277:AS76.c        ****     Write_32bitSPI_DATA (0x10  , (int) 0x00070101, TMC5160_nCS_MotorZ );
 278:AS76.c        ****     Write_32bitSPI_DATA (0x10  , (int) 0x00070103, TMC5160_nCS_MotorX );
 279:AS76.c        ****     Write_32bitSPI_DATA (0x10  , (int) 0x00070103, TMC5160_nCS_MotorT ); 
 280:AS76.c        **** 
 281:AS76.c        **** }
 282:AS76.c        **** 
 283:AS76.c        **** ///////////////////////////////////////////////////////////////////////////////////////
 284:AS76.c        **** 
 285:AS76.c        **** /////////////////////////////////////Homing Y//////////////////////////////////////////
 286:AS76.c        **** 
 287:AS76.c        **** /* --------------------------------------------------------------------------------------------
 288:AS76.c        **** Function Name        : homeY
 289:AS76.c        **** 
 290:AS76.c        **** Prerequist Knowledge : Homing of stepper motor system, TM5160 Datasheet, Encoders
 291:AS76.c        **** 
 292:AS76.c        **** Function Description : This Function is used to home the motor Y, where motor moves at specific
 293:AS76.c        ****                        Low speed towards left until it hits the limit switch on the left side then 
 294:AS76.c        ****                        motor rotates 1 rotation next the motor moves at specific Low speed towards 
 295:AS76.c        ****                        left until it hits the limit switch then motor gain moves 1 rotaion with ste
 296:AS76.c        ****                        loss correction and that point TMC5160 marks as position 0 and resets the Y 
 297:AS76.c        ****                        Channel encoder.
 298:AS76.c        **** 
 299:AS76.c        **** Return Type & Data   :Void
 300:AS76.c        **** 
 301:AS76.c        **** Variable Updation: status_y, Error, Y_QuadPosition
 302:AS76.c        **** 
 303:AS76.c        **** Numnber of Arguments : 1
 304:AS76.c        **** 
 305:AS76.c        **** -----Argument 1-----
 306:AS76.c        **** Name                 : Motor
 307:AS76.c        **** Tupe                 : uint8_t
ARM GAS  C:\Users\Revanth\AppData\Local\Temp\ccq5TJLm.s 			page 8


 308:AS76.c        **** Description          : This Argument Represents the driver channel
 309:AS76.c        **** Condition            : This Value must range from 0x00 to 0x04 since there are only 5 channels
 310:AS76.c        ****                        available in AS76 System Configuration, condition to be checked in 
 311:AS76.c        ****                        SPI_MOTOR_CHIP_SELECT Function                       
 312:AS76.c        **** --------------------
 313:AS76.c        **** 
 314:AS76.c        **** 
 315:AS76.c        **** 
 316:AS76.c        **** ---------------------------------------------------------------------------------------------*/
 317:AS76.c        **** 
 318:AS76.c        **** void homeY(uint8_t Motor)
 319:AS76.c        **** {
 320:AS76.c        ****     Write_32bitSPI_DATA (0x10  , (int) 0x00070203, TMC5160_nCS_MotorY );
 321:AS76.c        ****     update_max_velocity((307200), Motor);
 322:AS76.c        ****     Write_32bitSPI_DATA (0x20  , (int) 0x00000002, Motor );
 323:AS76.c        ****     CyDelayUs(50);
 324:AS76.c        ****     Read_32bitSPI_DATA(0x04, Motor, &status_y);
 325:AS76.c        ****     CyDelayUs(500);
 326:AS76.c        ****     Read_32bitSPI_DATA(0x04, Motor, &status_y);
 327:AS76.c        ****     Write_Debug_UART_Char("Limit Switch Y going to press \n");
 328:AS76.c        ****     while ( (status_y & 0x40) == 0x00)
 329:AS76.c        ****     {
 330:AS76.c        ****         wait_timer_Start();
 331:AS76.c        ****         wait_interrupt_StartEx(wait_interrupt_Handler);
 332:AS76.c        ****         Read_32bitSPI_DATA(0x04, Motor, &status_y);
 333:AS76.c        ****        
 334:AS76.c        ****         if(exit_loop == 1)
 335:AS76.c        ****         {
 336:AS76.c        ****         Error = 11;
 337:AS76.c        ****         Send_Feedback_to_USB(Error);
 338:AS76.c        ****         wait_timer_Stop();
 339:AS76.c        ****         Write_32bitSPI_DATA (0x20  , (int) 0x00000000, Motor );
 340:AS76.c        ****         Write_32bitSPI_DATA (0x21  , (int) 0x0000000, Motor); // Mark the current postion as 0
 341:AS76.c        ****         Write_32bitSPI_DATA (0x2D  , 0x00000000, Motor ); // Set thye target position as 0
 342:AS76.c        ****         exit_loop = 0;
 343:AS76.c        ****         Error = 0;
 344:AS76.c        ****         Write_Debug_UART_Char("Home Y Stuck in Lopp and terminated due to timeout \n");
 345:AS76.c        ****         return;
 346:AS76.c        ****         }
 347:AS76.c        ****     CyDelayUs(100);
 348:AS76.c        ****     }
 349:AS76.c        ****     wait_timer_Stop();
 350:AS76.c        ****     exit_loop =0;
 351:AS76.c        ****     Write_Debug_UART_Char("Limit Switch Y Pressed \n");
 352:AS76.c        ****     
 353:AS76.c        ****     Write_32bitSPI_DATA (0x21  , (int) 0x0000000, Motor);
 354:AS76.c        ****     CyDelayUs(10);
 355:AS76.c        ****     /*
 356:AS76.c        ****     GotoPos(((256*200)*1), Motor);
 357:AS76.c        ****     CyDelayUs(500);
 358:AS76.c        ****     Read_32bitSPI_DATA(0x04, Motor, &status_y);
 359:AS76.c        ****     CyDelayUs(500);
 360:AS76.c        ****     Read_32bitSPI_DATA(0x04, Motor, &status_y);
 361:AS76.c        ****     while ( (status_y & 0x20) == 0x00)
 362:AS76.c        ****     {
 363:AS76.c        ****        Read_32bitSPI_DATA(0x04, Motor, &status_y);
 364:AS76.c        ****         CyDelayUs(100);
ARM GAS  C:\Users\Revanth\AppData\Local\Temp\ccq5TJLm.s 			page 9


 365:AS76.c        ****        
 366:AS76.c        ****     }
 367:AS76.c        ****     Write_32bitSPI_DATA (0x0B  , (int) 180, Motor );
 368:AS76.c        ****     Write_32bitSPI_DATA (0x10  , (int) 0x00070103, Motor );
 369:AS76.c        ****     update_max_velocity(53687, Motor);
 370:AS76.c        ****     Write_32bitSPI_DATA (0x20  , (int) 0x00000002, Motor );
 371:AS76.c        ****     CyDelayUs(200);
 372:AS76.c        ****     Read_32bitSPI_DATA(0x04, Motor, &status_y);
 373:AS76.c        ****     CyDelayUs(500);
 374:AS76.c        ****     Read_32bitSPI_DATA(0x04, Motor, &status_y);
 375:AS76.c        ****     while ( (status_y & 0x40) == 0x00)
 376:AS76.c        ****     {
 377:AS76.c        ****        Read_32bitSPI_DATA(0x04, Motor, &status_y);
 378:AS76.c        ****        CyDelayUs(100);
 379:AS76.c        ****     }
 380:AS76.c        ****     */
 381:AS76.c        **** 
 382:AS76.c        ****     Write_32bitSPI_DATA (0x21  , (int) 0x0000000, Motor);
 383:AS76.c        ****     //Y_last_position = 0;
 384:AS76.c        ****     QuadDec_Y_SetCounter(0);
 385:AS76.c        ****     HomeX_done = true;
 386:AS76.c        ****     HomeY_done = true;
 387:AS76.c        ****     HomeZ_done = true;
 388:AS76.c        ****     HomeT_done = true;
 389:AS76.c        ****     CyDelayUs(100);
 390:AS76.c        ****     //goTo_Y((256*200)*1);
 391:AS76.c        ****     goTo_Y(19200);
 392:AS76.c        ****     Write_Debug_UART_Char("Error in Home Y Before Goto home pos : ");
 393:AS76.c        ****     Write_Debug_UART_Int(Error);
 394:AS76.c        ****     Write_Debug_UART_Char("\n");
 395:AS76.c        ****     HomeX_done = HomeX_done_Buffer;
 396:AS76.c        ****     HomeY_done = HomeY_done_Buffer;
 397:AS76.c        ****     HomeZ_done = HomeZ_done_Buffer;
 398:AS76.c        ****     HomeT_done = HomeT_done_Buffer;
 399:AS76.c        ****     CyDelayUs(100);
 400:AS76.c        ****     Write_32bitSPI_DATA (0x21  , (int) 0x0000000, Motor); 
 401:AS76.c        ****     Write_32bitSPI_DATA (0x2D  , 0x00000000, Motor );
 402:AS76.c        ****     update_max_velocity(381178, Motor);
 403:AS76.c        ****     Write_32bitSPI_DATA (0x0B  , 0, Motor );
 404:AS76.c        ****     Write_32bitSPI_DATA (0x10  , (int) 0x00070101, Motor );
 405:AS76.c        ****     //Write_32bitSPI_DATA (0x25  , (51200*5)-100, Motor );
 406:AS76.c        ****     Error =0;
 407:AS76.c        ****     //Y_last_position = 0;
 408:AS76.c        ****     QuadDec_Y_SetCounter(0);
 409:AS76.c        ****     X_QuadPosition =0 ;
 410:AS76.c        ****     HomeY_done = true;
 411:AS76.c        ****     HomeY_done_Buffer = true;
 412:AS76.c        ****     Write_Debug_UART_Char("HomeY executed  \r\n");
 413:AS76.c        ****     Write_32bitSPI_DATA (0x10  , (int) 0x00070103, TMC5160_nCS_MotorY );
 414:AS76.c        ****     Write_32bitSPI_DATA (0x10  , (int) 0x00070101, TMC5160_nCS_MotorZ );
 415:AS76.c        ****     Write_32bitSPI_DATA (0x10  , (int) 0x00070103, TMC5160_nCS_MotorX );
 416:AS76.c        ****     Write_32bitSPI_DATA (0x10  , (int) 0x00070103, TMC5160_nCS_MotorT ); 
 417:AS76.c        **** 
 418:AS76.c        **** }
 419:AS76.c        **** 
 420:AS76.c        **** ////////////////////////////////////////////////////////////////////////////////////////////
 421:AS76.c        **** 
ARM GAS  C:\Users\Revanth\AppData\Local\Temp\ccq5TJLm.s 			page 10


 422:AS76.c        **** //////////////////////////////////////////Homing Z//////////////////////////////////////////
 423:AS76.c        **** 
 424:AS76.c        **** /* --------------------------------------------------------------------------------------------
 425:AS76.c        **** Function Name        : homeZ
 426:AS76.c        **** 
 427:AS76.c        **** Prerequist Knowledge : Homing of stepper motor system, TM5160 Datasheet, Encoders
 428:AS76.c        **** 
 429:AS76.c        **** Function Description : This Function is used to home the motor Z, where motor moves at specific
 430:AS76.c        ****                        Low speed towards left until it hits the limit switch on the left side then 
 431:AS76.c        ****                        motor rotates 1 rotation next the motor moves at specific Low speed towards 
 432:AS76.c        ****                        left until it hits the limit switch then motor gain moves 1 rotaion with ste
 433:AS76.c        ****                        loss correction and that point TMC5160 marks as position 0 and resets the Z 
 434:AS76.c        ****                        Channel encoder.
 435:AS76.c        **** 
 436:AS76.c        **** Return Type & Data   :Void
 437:AS76.c        **** 
 438:AS76.c        **** Variable Updation: status_z, Error, Z_QuadPosition
 439:AS76.c        **** 
 440:AS76.c        **** Numnber of Arguments : 1
 441:AS76.c        **** 
 442:AS76.c        **** -----Argument 1-----
 443:AS76.c        **** Name                 : Motor
 444:AS76.c        **** Tupe                 : uint8_t
 445:AS76.c        **** Description          : This Argument Represents the driver channel
 446:AS76.c        **** Condition            : This Value must range from 0x00 to 0x04 since there are only 5 channels
 447:AS76.c        ****                        available in AS76 System Configuration, condition to be checked in 
 448:AS76.c        ****                        SPI_MOTOR_CHIP_SELECT Function                       
 449:AS76.c        **** --------------------
 450:AS76.c        **** 
 451:AS76.c        **** 
 452:AS76.c        **** 
 453:AS76.c        **** ---------------------------------------------------------------------------------------------*/
 454:AS76.c        **** 
 455:AS76.c        **** void homeZ(uint8_t Motor)
 456:AS76.c        **** {
 457:AS76.c        ****     Write_32bitSPI_DATA (0x10  , (int) 0x00070203, TMC5160_nCS_MotorZ );
 458:AS76.c        ****     update_max_velocity((53687*2), Motor);
 459:AS76.c        ****     Enable_Encoder_Z(-Buffer_Z_QuadPosition);
 460:AS76.c        ****     Write_32bitSPI_DATA (0x20  , (int) 0x00000002, Motor );
 461:AS76.c        ****     CyDelayUs(50);
 462:AS76.c        ****     Read_32bitSPI_DATA(0x04, Motor, &status_z);
 463:AS76.c        ****     CyDelayUs(500);
 464:AS76.c        ****     Read_32bitSPI_DATA(0x04, Motor, &status_z);
 465:AS76.c        ****     Write_Debug_UART_Char("Limit Switch Z going to press \n");
 466:AS76.c        ****     while ( (status_z & 0x40) == 0x00)
 467:AS76.c        ****     {
 468:AS76.c        ****        wait_timer_Start();
 469:AS76.c        ****        wait_interrupt_StartEx(wait_interrupt_Handler);
 470:AS76.c        ****        Read_32bitSPI_DATA(0x04, Motor, &status_z);
 471:AS76.c        ****        if(exit_loop == 1)
 472:AS76.c        ****             {
 473:AS76.c        ****             Error = 18;
 474:AS76.c        ****             Send_Feedback_to_USB(Error);
 475:AS76.c        ****             wait_timer_Stop();
 476:AS76.c        ****             Write_32bitSPI_DATA (0x20  , (int) 0x00000000, Motor );
 477:AS76.c        ****             Write_32bitSPI_DATA (0x21  , (int) 0x0000000, Motor); // Mark the current postion as 0
 478:AS76.c        ****             Write_32bitSPI_DATA (0x2D  , 0x00000000, Motor ); // Set thye target position as 0
ARM GAS  C:\Users\Revanth\AppData\Local\Temp\ccq5TJLm.s 			page 11


 479:AS76.c        ****             exit_loop = 0;
 480:AS76.c        ****             Write_Debug_UART_Char("Home Z Stuck in Lopp and terminated due to timeout \n");
 481:AS76.c        ****             return;
 482:AS76.c        ****             //break;
 483:AS76.c        ****             }
 484:AS76.c        ****        CyDelayUs(100);
 485:AS76.c        ****     }
 486:AS76.c        ****     wait_timer_Stop();
 487:AS76.c        ****     exit_loop =0;
 488:AS76.c        ****     Write_Debug_UART_Char("Limit Switch Z Pressed \n");
 489:AS76.c        ****     
 490:AS76.c        ****     Write_32bitSPI_DATA (0x21  , (int) 0x0000000, Motor);
 491:AS76.c        ****     //Z_last_position = 0;
 492:AS76.c        ****     Enable_Encoder_Z(0);
 493:AS76.c        ****     Buffer_Z_QuadPosition=0;
 494:AS76.c        ****     CyDelayUs(10);
 495:AS76.c        ****     /*
 496:AS76.c        ****     GotoPos(((256*200)*1), Motor);
 497:AS76.c        ****     CyDelayUs(500);
 498:AS76.c        ****     Read_32bitSPI_DATA(0x04, Motor, &status_z);
 499:AS76.c        ****     CyDelayUs(500);
 500:AS76.c        ****     Read_32bitSPI_DATA(0x04, Motor, &status_z);
 501:AS76.c        ****     while ( (status_z & 0x20) == 0x00)
 502:AS76.c        ****     {
 503:AS76.c        ****        Read_32bitSPI_DATA(0x04, Motor, &status_z);
 504:AS76.c        ****         CyDelayUs(100);
 505:AS76.c        ****        
 506:AS76.c        ****     }
 507:AS76.c        ****     update_max_velocity(53687, Motor);
 508:AS76.c        ****     Write_32bitSPI_DATA (0x20  , (int) 0x00000002, Motor );
 509:AS76.c        ****     CyDelayUs(200);
 510:AS76.c        ****     Read_32bitSPI_DATA(0x04, Motor, &status_z);
 511:AS76.c        ****     CyDelayUs(500);
 512:AS76.c        ****     Read_32bitSPI_DATA(0x04, Motor, &status_z);
 513:AS76.c        ****     while ( (status_z & 0x40) == 0x00)
 514:AS76.c        ****     {
 515:AS76.c        ****        Read_32bitSPI_DATA(0x04, Motor, &status_z);
 516:AS76.c        ****        CyDelayUs(100);
 517:AS76.c        ****     }
 518:AS76.c        ****     */
 519:AS76.c        **** 
 520:AS76.c        ****     Write_32bitSPI_DATA (0x21  , (int) 0x0000000, Motor);
 521:AS76.c        ****     //Z_last_position = 0;
 522:AS76.c        ****     Enable_Encoder_Z(0);
 523:AS76.c        ****     Buffer_Z_QuadPosition=0;
 524:AS76.c        ****     HomeX_done = true;
 525:AS76.c        ****     HomeY_done = true;
 526:AS76.c        ****     HomeZ_done = true;
 527:AS76.c        ****     HomeT_done = true;
 528:AS76.c        ****     CyDelayUs(100);
 529:AS76.c        ****     goTo_Z(((256*200)*1));
 530:AS76.c        ****     Write_Debug_UART_Char("Error in Home Z Before Goto home pos : ");
 531:AS76.c        ****     Write_Debug_UART_Int(Error);
 532:AS76.c        ****     Write_Debug_UART_Char("\n");
 533:AS76.c        ****     Error =0;
 534:AS76.c        ****     HomeX_done = HomeX_done_Buffer;
 535:AS76.c        ****     HomeY_done = HomeY_done_Buffer;
ARM GAS  C:\Users\Revanth\AppData\Local\Temp\ccq5TJLm.s 			page 12


 536:AS76.c        ****     HomeZ_done = HomeZ_done_Buffer;
 537:AS76.c        ****     HomeT_done = HomeT_done_Buffer;
 538:AS76.c        ****     CyDelayUs(100);
 539:AS76.c        ****     Write_32bitSPI_DATA (0x21  , (int) 0x0000000, Motor); 
 540:AS76.c        ****     Write_32bitSPI_DATA (0x2D  , 0x00000000, Motor );
 541:AS76.c        ****     update_max_velocity(53687*2, Motor);
 542:AS76.c        **** 
 543:AS76.c        ****     //Z_last_position = 0;
 544:AS76.c        ****     Enable_Encoder_Z(0);
 545:AS76.c        ****     Buffer_Z_QuadPosition=0;
 546:AS76.c        ****     HomeZ_done = true;
 547:AS76.c        ****     HomeZ_done_Buffer = true;
 548:AS76.c        ****     Write_Debug_UART_Char("HomeZ executed  \r\n");
 549:AS76.c        ****     Write_32bitSPI_DATA (0x10  , (int) 0x00070103, TMC5160_nCS_MotorY );
 550:AS76.c        ****     Write_32bitSPI_DATA (0x10  , (int) 0x00070101, TMC5160_nCS_MotorZ );
 551:AS76.c        ****     Write_32bitSPI_DATA (0x10  , (int) 0x00070103, TMC5160_nCS_MotorX );
 552:AS76.c        ****     Write_32bitSPI_DATA (0x10  , (int) 0x00070103, TMC5160_nCS_MotorT ); 
 553:AS76.c        **** 
 554:AS76.c        **** }
 555:AS76.c        **** 
 556:AS76.c        **** ///////////////////////////////////////////////////////////////////////////////////////
 557:AS76.c        **** 
 558:AS76.c        **** /////////////////////////////////////Homing T//////////////////////////////////////////
 559:AS76.c        **** 
 560:AS76.c        **** void homeT(uint8_t Motor)
 561:AS76.c        **** {
 562:AS76.c        ****     TMC5160_MotorT_EN_Write(0x00);
 563:AS76.c        ****     CyDelayUs(1000);
 564:AS76.c        ****     update_max_velocity(12800, Motor);
 565:AS76.c        ****     Enable_Encoder_T(-Buffer_T_QuadPosition);
 566:AS76.c        ****     Write_32bitSPI_DATA (0x20  , (int) 0x00000002, Motor );
 567:AS76.c        ****     CyDelayUs(50);
 568:AS76.c        ****     Read_32bitSPI_DATA(0x04, Motor, &status_z);
 569:AS76.c        ****     CyDelayUs(500);
 570:AS76.c        ****     Read_32bitSPI_DATA(0x04, Motor, &status_z);
 571:AS76.c        ****     while ( (status_z & 0x40) == 0x00)
 572:AS76.c        ****     {
 573:AS76.c        ****        wait_timer_Start();
 574:AS76.c        ****        wait_interrupt_StartEx(wait_interrupt_Handler);
 575:AS76.c        ****        Read_32bitSPI_DATA(0x04, Motor, &status_z);
 576:AS76.c        ****        if(exit_loop == 1)
 577:AS76.c        ****             {
 578:AS76.c        ****             Error = 22;
 579:AS76.c        ****             Send_Feedback_to_USB(Error);
 580:AS76.c        ****             wait_timer_Stop();
 581:AS76.c        ****             Write_32bitSPI_DATA (0x20  , (int) 0x00000000, Motor );
 582:AS76.c        ****             Write_32bitSPI_DATA (0x21  , (int) 0x0000000, Motor); // Mark the current postion as 0
 583:AS76.c        ****             Write_32bitSPI_DATA (0x2D  , 0x00000000, Motor ); // Set thye target position as 0
 584:AS76.c        ****             exit_loop = 0;
 585:AS76.c        ****             Error =0;
 586:AS76.c        ****             return;
 587:AS76.c        ****             //break;
 588:AS76.c        ****             }
 589:AS76.c        ****        CyDelayUs(100);
 590:AS76.c        ****     }
 591:AS76.c        ****     wait_timer_Stop();
 592:AS76.c        ****     exit_loop =0;
ARM GAS  C:\Users\Revanth\AppData\Local\Temp\ccq5TJLm.s 			page 13


 593:AS76.c        ****     
 594:AS76.c        ****     Write_32bitSPI_DATA (0x21  , (int) 0x0000000, Motor);
 595:AS76.c        ****     CyDelayUs(10);
 596:AS76.c        ****     /*
 597:AS76.c        ****     GotoPos((12800), Motor);
 598:AS76.c        ****     CyDelayUs(500);
 599:AS76.c        ****     Read_32bitSPI_DATA(0x04, Motor, &status_z);
 600:AS76.c        ****     CyDelayUs(500);
 601:AS76.c        ****     Read_32bitSPI_DATA(0x04, Motor, &status_z);
 602:AS76.c        ****     while ( (status_z & 0x20) == 0x00)
 603:AS76.c        ****     {
 604:AS76.c        ****        Read_32bitSPI_DATA(0x04, Motor, &status_z);
 605:AS76.c        ****         CyDelayUs(100);
 606:AS76.c        ****        
 607:AS76.c        ****     }
 608:AS76.c        ****     update_max_velocity(12800, Motor);
 609:AS76.c        ****     Write_32bitSPI_DATA (0x20  , (int) 0x00000002, Motor );
 610:AS76.c        ****     CyDelayUs(200);
 611:AS76.c        ****     Read_32bitSPI_DATA(0x04, Motor, &status_y);
 612:AS76.c        ****     CyDelay0Us(500);
 613:AS76.c        ****     Read_32bitSPI_DATA(0x04, Motor, &status_y);
 614:AS76.c        ****     while ( (status_y & 0x40) == 0x00)
 615:AS76.c        ****     {
 616:AS76.c        ****        Read_32bitSPI_DATA(0x04, Motor, &status_y);
 617:AS76.c        ****        CyDelayUs(100);
 618:AS76.c        ****     }
 619:AS76.c        ****     */
 620:AS76.c        ****     Write_32bitSPI_DATA (0x21  , (int) 0x0000000, Motor);
 621:AS76.c        ****     //T_last_position = 0;
 622:AS76.c        ****     Enable_Encoder_T(0);
 623:AS76.c        ****     Buffer_T_QuadPosition=0;
 624:AS76.c        ****     HomeX_done = true;
 625:AS76.c        ****     HomeY_done = true;
 626:AS76.c        ****     HomeZ_done = true;
 627:AS76.c        ****     HomeT_done = true;
 628:AS76.c        ****     CyDelayUs(100); 
 629:AS76.c        ****     goTo_T(3800);
 630:AS76.c        ****     HomeX_done = HomeX_done_Buffer;
 631:AS76.c        ****     HomeY_done = HomeY_done_Buffer;
 632:AS76.c        ****     HomeZ_done = HomeZ_done_Buffer;
 633:AS76.c        ****     HomeT_done = HomeT_done_Buffer;
 634:AS76.c        ****     CyDelayUs(100);
 635:AS76.c        ****     Write_32bitSPI_DATA (0x21  , (int) 0x0000000, Motor); 
 636:AS76.c        ****     Write_32bitSPI_DATA (0x2D  , 0x00000000, Motor );
 637:AS76.c        ****     update_max_velocity(12800, Motor);
 638:AS76.c        **** 
 639:AS76.c        ****     //T_last_position = 0;
 640:AS76.c        ****     Enable_Encoder_T(0);
 641:AS76.c        ****     Buffer_T_QuadPosition=0;
 642:AS76.c        ****     HomeT_done = true;
 643:AS76.c        ****     HomeT_done_Buffer = true;
 644:AS76.c        ****     Write_Debug_UART_Char("HomeT executed  \r\n");
 645:AS76.c        ****     //TMC5160_MotorT_EN_Write(0xFF);
 646:AS76.c        ****     CyDelayUs(100);
 647:AS76.c        **** }
 648:AS76.c        **** 
 649:AS76.c        **** ///////////////////////////////////////////////////////////////////////////////////////////////////
ARM GAS  C:\Users\Revanth\AppData\Local\Temp\ccq5TJLm.s 			page 14


 650:AS76.c        **** /////////////////////////////////////Go to Position in X Axis//////////////////////////////////////
 651:AS76.c        **** 
 652:AS76.c        **** int goTo_X(int32 Position_X_Requested)
 653:AS76.c        **** {
 654:AS76.c        ****       
 655:AS76.c        ****     if(if_all_homing_done())
 656:AS76.c        ****     
 657:AS76.c        ****     {
 658:AS76.c        ****         Write_32bitSPI_DATA (0x10  , (int) 0x00070103, TMC5160_nCS_MotorY );
 659:AS76.c        ****         Write_32bitSPI_DATA (0x10  , (int) 0x00070102, TMC5160_nCS_MotorZ );
 660:AS76.c        ****         Write_32bitSPI_DATA (0x10  , (int) 0x00070305, TMC5160_nCS_MotorX );
 661:AS76.c        ****         //Position_X_Move = Position_X_Move + Position_X_Requested;
 662:AS76.c        ****         Error = 0;
 663:AS76.c        ****         Read_All_Optical_Encoder();
 664:AS76.c        ****         //X_last_position = X_QuadPosition;
 665:AS76.c        ****         //Write_Debug_UART_Char("GotoX Command Recived--->");
 666:AS76.c        ****         GotoPos(Position_X_Requested, TMC5160_nCS_MotorX); // If provided value is position and not
 667:AS76.c        ****         WaitTillPositionReached (TMC5160_nCS_MotorX);
 668:AS76.c        ****         CyDelayUs(50);
 669:AS76.c        ****         //GotoPos(Position_X_Move, TMC5160_nCS_MotorX); // If provided value is steps to move and n
 670:AS76.c        ****         //Write_Debug_UART_Int(Position_X_Requested);
 671:AS76.c        ****         Write_Debug_UART_Char("  \r\n");
 672:AS76.c        ****         Step_correction_x(Position_X_Requested);
 673:AS76.c        ****         return Error;
 674:AS76.c        ****     }
 675:AS76.c        ****     else
 676:AS76.c        ****     {
 677:AS76.c        ****         //Ring(1,0XFF,0x00,0x00,0x10);
 678:AS76.c        ****         Write_Debug_UART_Char("Homing Not Done");
 679:AS76.c        ****         Error = 32;
 680:AS76.c        ****         return Error;
 681:AS76.c        ****     }
 682:AS76.c        ****     
 683:AS76.c        **** }
 684:AS76.c        **** 
 685:AS76.c        **** int Step_correction_x(int32 steps)
 686:AS76.c        **** {  
 687:AS76.c        ****     int32 Encoder_Position_X_Requested =0;
 688:AS76.c        ****     uint8_t temp;
 689:AS76.c        ****     int32 new_step=0;
 690:AS76.c        ****     //int32 diff_encoder_value=0;
 691:AS76.c        ****     int32 encoder_error_value = 0;
 692:AS76.c        ****     Encoder_Position_X_Requested = steps/X_Pitchfactor;
 693:AS76.c        ****       Read_All_Optical_Encoder();    
 694:AS76.c        ****       Write_Debug_UART_Char("Initial Error X Quadposition: ");
 695:AS76.c        ****       Write_Debug_UART_Int(X_QuadPosition);
 696:AS76.c        ****       Write_Debug_UART_Char("\n");
 697:AS76.c        ****     
 698:AS76.c        ****     for(temp=0; temp<=5; temp++)
 699:AS76.c        ****     {
 700:AS76.c        ****     Write_Debug_UART_Char("X Loop Count: ");
 701:AS76.c        ****     Write_Debug_UART_Int(temp);
 702:AS76.c        ****     Write_Debug_UART_Char("\n");
 703:AS76.c        ****     
 704:AS76.c        ****     Read_All_Optical_Encoder();
 705:AS76.c        ****     
 706:AS76.c        ****     encoder_error_value = Encoder_Position_X_Requested - X_QuadPosition;
ARM GAS  C:\Users\Revanth\AppData\Local\Temp\ccq5TJLm.s 			page 15


 707:AS76.c        ****     if(encoder_error_value >= 2000)
 708:AS76.c        ****     {
 709:AS76.c        ****         Error=  2;
 710:AS76.c        ****         return Error;
 711:AS76.c        ****     }
 712:AS76.c        ****     new_step= encoder_error_value* X_Pitchfactor ;
 713:AS76.c        ****     
 714:AS76.c        ****        
 715:AS76.c        ****     if((abs(encoder_error_value))>= 5 )
 716:AS76.c        ****     {
 717:AS76.c        ****       Write_Debug_UART_Char("X Loop Error difference: ");
 718:AS76.c        ****       Write_Debug_UART_Int(encoder_error_value);
 719:AS76.c        ****       Write_Debug_UART_Char("\n");
 720:AS76.c        ****       new_step = new_step+steps;     
 721:AS76.c        ****       GotoPos(new_step, TMC5160_nCS_MotorX);
 722:AS76.c        ****       WaitTillPositionReached (TMC5160_nCS_MotorX);
 723:AS76.c        ****       CyDelayUs(50);
 724:AS76.c        ****       Write_32bitSPI_DATA (0x21  , steps, TMC5160_nCS_MotorX );
 725:AS76.c        ****     }
 726:AS76.c        ****     }
 727:AS76.c        ****     Read_All_Optical_Encoder();
 728:AS76.c        ****     encoder_error_value = Encoder_Position_X_Requested - X_QuadPosition;
 729:AS76.c        ****     if((temp>5))
 730:AS76.c        ****     {
 731:AS76.c        ****      if(((abs(encoder_error_value))> 7 ) && ((abs(encoder_error_value))<2000))
 732:AS76.c        ****      {
 733:AS76.c        ****         Write_Debug_UART_Char("Fail to reach X position, Error difference: ");
 734:AS76.c        ****         Write_Debug_UART_Int(encoder_error_value);
 735:AS76.c        ****         Write_Debug_UART_Char("\n Quadposition :  ");
 736:AS76.c        ****         Write_Debug_UART_Int(X_QuadPosition);
 737:AS76.c        ****         Write_Debug_UART_Char("\n");
 738:AS76.c        ****         LED3_Write(0xFF);
 739:AS76.c        ****         //GotoPos((steps-1000),TMC5160_nCS_MotorX);
 740:AS76.c        ****         Error=  1;
 741:AS76.c        ****      }
 742:AS76.c        ****     
 743:AS76.c        ****      else if ( ((abs(encoder_error_value))>2000))
 744:AS76.c        ****      {
 745:AS76.c        ****        Write_Debug_UART_Char("X Encoder or X Motor Might Not be Working \r\n");
 746:AS76.c        ****        Error=  2;
 747:AS76.c        ****      }
 748:AS76.c        ****     
 749:AS76.c        ****      else
 750:AS76.c        ****      {
 751:AS76.c        ****         Write_Debug_UART_Char("X position Reached");
 752:AS76.c        ****         Error = 0;
 753:AS76.c        ****         Read_All_Optical_Encoder();
 754:AS76.c        ****         Write_32bitSPI_DATA (0x21  , (int32)(X_QuadPosition*12.8), TMC5160_nCS_MotorX );
 755:AS76.c        ****         CyDelayUs(500);
 756:AS76.c        ****         
 757:AS76.c        ****      }
 758:AS76.c        ****     
 759:AS76.c        ****     }
 760:AS76.c        ****     
 761:AS76.c        ****     return Error;
 762:AS76.c        **** }
 763:AS76.c        **** 
ARM GAS  C:\Users\Revanth\AppData\Local\Temp\ccq5TJLm.s 			page 16


 764:AS76.c        **** ///////////////////////////////////////////////////////////////////////////////////////////////////
 765:AS76.c        **** /////////////////////////////////////Go to Position in Y Axis//////////////////////////////////////
 766:AS76.c        **** 
 767:AS76.c        **** int goTo_Y(int32 Position_Y_Requested)
 768:AS76.c        **** {   
 769:AS76.c        ****     if(if_all_homing_done())
 770:AS76.c        ****     {
 771:AS76.c        ****         Write_32bitSPI_DATA (0x10  , (int) 0x00070103, TMC5160_nCS_MotorX );
 772:AS76.c        ****         Write_32bitSPI_DATA (0x10  , (int) 0x00070102, TMC5160_nCS_MotorZ );
 773:AS76.c        ****         Write_32bitSPI_DATA (0x10  , (int) 0x00070305, TMC5160_nCS_MotorY );
 774:AS76.c        ****         
 775:AS76.c        ****         //Position_Y_Move = Position_Y_Move + Position_Y_Requested;
 776:AS76.c        ****         Error = 0;
 777:AS76.c        ****         Read_All_Optical_Encoder();
 778:AS76.c        ****         //Y_last_position = Y_QuadPosition;
 779:AS76.c        ****         //Write_Debug_UART_Char("GotoX Command Recived--->");
 780:AS76.c        ****         GotoPos(Position_Y_Requested, TMC5160_nCS_MotorY); // If provided value is position and not
 781:AS76.c        ****         WaitTillPositionReached (TMC5160_nCS_MotorY);
 782:AS76.c        ****         CyDelayUs(50);
 783:AS76.c        ****         //GotoPos(Position_X_Move, TMC5160_nCS_MotorX); // If provided value is steps to move and n
 784:AS76.c        ****         //Write_Debug_UART_Int(Position_Y_Requested);
 785:AS76.c        ****         //Write_Debug_UART_Char("  \r\n");
 786:AS76.c        ****         Step_correction_y(Position_Y_Requested);
 787:AS76.c        ****         return Error;
 788:AS76.c        ****     }
 789:AS76.c        ****     else
 790:AS76.c        ****     {
 791:AS76.c        ****         Write_Debug_UART_Char("Homing Not Done");
 792:AS76.c        ****         Error = 32;
 793:AS76.c        ****         return Error;
 794:AS76.c        ****     }
 795:AS76.c        **** }
 796:AS76.c        **** 
 797:AS76.c        **** int Step_correction_y(int32 steps)
 798:AS76.c        **** {  
 799:AS76.c        ****     uint8_t temp=0;
 800:AS76.c        ****     int32 new_step=0;
 801:AS76.c        ****     int32 Encoder_Position_Y_Requested =0;
 802:AS76.c        ****     //int32 diff_encoder_value=0;
 803:AS76.c        ****     int32 encoder_error_value = 0;
 804:AS76.c        ****     Encoder_Position_Y_Requested = steps/12.8;
 805:AS76.c        ****     Read_All_Optical_Encoder();
 806:AS76.c        ****     Write_Debug_UART_Char("Initial Error Y Quadposition: ");
 807:AS76.c        ****     Write_Debug_UART_Int(Y_QuadPosition);
 808:AS76.c        ****     Write_Debug_UART_Char("/n");
 809:AS76.c        ****     
 810:AS76.c        ****     for(temp=0; temp<=5; temp++)
 811:AS76.c        ****     {
 812:AS76.c        ****     Write_Debug_UART_Char("Y Loop Count: ");
 813:AS76.c        ****     Write_Debug_UART_Int(temp);
 814:AS76.c        ****     Write_Debug_UART_Char("\n");
 815:AS76.c        ****     Read_All_Optical_Encoder();
 816:AS76.c        ****     //diff_encoder_value = (X_QuadPosition - X_last_position);
 817:AS76.c        ****     encoder_error_value = Encoder_Position_Y_Requested - Y_QuadPosition;
 818:AS76.c        ****     new_step= encoder_error_value*12.8;
 819:AS76.c        ****     if(encoder_error_value >= 4000)
 820:AS76.c        ****     {
ARM GAS  C:\Users\Revanth\AppData\Local\Temp\ccq5TJLm.s 			page 17


 821:AS76.c        ****         Error=  9;
 822:AS76.c        ****         break;
 823:AS76.c        ****     }
 824:AS76.c        ****     if((abs(encoder_error_value))>3)
 825:AS76.c        ****     {
 826:AS76.c        ****       Write_Debug_UART_Char("Y Loop Error difference: ");
 827:AS76.c        ****       Write_Debug_UART_Int(encoder_error_value);
 828:AS76.c        ****       Write_Debug_UART_Char("\n");
 829:AS76.c        ****       new_step = new_step+steps;     
 830:AS76.c        ****       GotoPos(new_step, TMC5160_nCS_MotorY);
 831:AS76.c        ****       WaitTillPositionReached (TMC5160_nCS_MotorY);
 832:AS76.c        ****       CyDelayUs(50);
 833:AS76.c        ****       Write_32bitSPI_DATA (0x21  , steps, TMC5160_nCS_MotorY );
 834:AS76.c        ****       CyDelayUs(200);
 835:AS76.c        ****     }
 836:AS76.c        ****     
 837:AS76.c        ****     }
 838:AS76.c        ****     
 839:AS76.c        ****     
 840:AS76.c        ****     Read_All_Optical_Encoder();
 841:AS76.c        ****     encoder_error_value = Encoder_Position_Y_Requested - Y_QuadPosition;
 842:AS76.c        ****     
 843:AS76.c        ****     if(temp>=4)
 844:AS76.c        ****     {
 845:AS76.c        ****      if(((abs(encoder_error_value))>5) && ((abs(encoder_error_value))<2000) )
 846:AS76.c        ****      {
 847:AS76.c        ****         Write_Debug_UART_Char("Fail to reach Y position, Error difference: ");
 848:AS76.c        ****         Write_Debug_UART_Int(encoder_error_value);
 849:AS76.c        ****         Write_Debug_UART_Char("\n Quadposition :  ");
 850:AS76.c        ****         Write_Debug_UART_Int(Y_QuadPosition);
 851:AS76.c        ****         Write_Debug_UART_Char("\n");
 852:AS76.c        ****         //GotoPos((steps-1000),TMC5160_nCS_MotorY);
 853:AS76.c        ****         LED3_Write(0xFF);
 854:AS76.c        ****         Error=  8;
 855:AS76.c        ****      }
 856:AS76.c        ****     
 857:AS76.c        ****      else if ( ((abs(encoder_error_value))>2000))
 858:AS76.c        ****      {
 859:AS76.c        ****        Write_Debug_UART_Char("Y Encoder or Y Motor Might Not be Working \r\n"); 
 860:AS76.c        ****        Error=  9;
 861:AS76.c        ****      }
 862:AS76.c        ****     
 863:AS76.c        ****      else
 864:AS76.c        ****      {
 865:AS76.c        ****         Write_Debug_UART_Char("Y position Reached");
 866:AS76.c        ****         Error = 0;
 867:AS76.c        ****         Write_32bitSPI_DATA (0x21  , steps, TMC5160_nCS_MotorY );
 868:AS76.c        ****         CyDelayUs(200);
 869:AS76.c        ****         
 870:AS76.c        ****      }
 871:AS76.c        ****     
 872:AS76.c        ****     }
 873:AS76.c        ****     
 874:AS76.c        ****     return Error;
 875:AS76.c        **** }
 876:AS76.c        **** 
 877:AS76.c        **** ///////////////////////////////////////////////////////////////////////////////////////////////////
ARM GAS  C:\Users\Revanth\AppData\Local\Temp\ccq5TJLm.s 			page 18


 878:AS76.c        **** /////////////////////////////////////Go to Position in Z Axis//////////////////////////////////////
 879:AS76.c        **** 
 880:AS76.c        **** 
 881:AS76.c        **** int goTo_Z(int32 Position_Z_Requested)
 882:AS76.c        **** {
 883:AS76.c        ****     Write_32bitSPI_DATA (0x10  , (int) 0x00070103, TMC5160_nCS_MotorY );
 884:AS76.c        ****     Write_32bitSPI_DATA (0x10  , (int) 0x00070103, TMC5160_nCS_MotorX );
 885:AS76.c        ****     Write_32bitSPI_DATA (0x10  , (int) 0x00070202, TMC5160_nCS_MotorZ );
 886:AS76.c        ****     Position_Z_Requested =  Position_Z_Requested;
 887:AS76.c        ****     Enable_Encoder_Z(-Buffer_Z_QuadPosition);
 888:AS76.c        ****     if(if_all_homing_done())
 889:AS76.c        ****     {
 890:AS76.c        ****         Error = 0;
 891:AS76.c        ****         Read_All_Optical_Encoder();
 892:AS76.c        ****         //Z_last_position = Z_QuadPosition;
 893:AS76.c        ****         //Write_Debug_UART_Char("GotoZ Command Recived--->");
 894:AS76.c        ****         GotoPos(Position_Z_Requested, TMC5160_nCS_MotorZ); // If provided value is position and not
 895:AS76.c        ****         WaitTillPositionReached (TMC5160_nCS_MotorZ);
 896:AS76.c        ****         CyDelayUs(50);
 897:AS76.c        ****         //GotoPos(Position_X_Move, TMC5160_nCS_MotorX); // If provided value is steps to move and n
 898:AS76.c        ****         //Write_Debug_UART_Int(Position_Z_Requested);
 899:AS76.c        ****         //Write_Debug_UART_Char("  \r\n");
 900:AS76.c        ****         Step_correction_z(Position_Z_Requested);
 901:AS76.c        ****         Read_All_Optical_Encoder();
 902:AS76.c        ****         Buffer_Z_QuadPosition = Z_QuadPosition;
 903:AS76.c        ****         return Error;
 904:AS76.c        ****     }
 905:AS76.c        ****     else
 906:AS76.c        ****     {
 907:AS76.c        ****         Write_Debug_UART_Char("Homing Not Done");
 908:AS76.c        ****         Error = 32;
 909:AS76.c        ****         return Error;
 910:AS76.c        ****     }
 911:AS76.c        **** 
 912:AS76.c        **** }
 913:AS76.c        **** 
 914:AS76.c        **** int Step_correction_z(int32 steps)
 915:AS76.c        **** {  
 916:AS76.c        ****    uint8_t temp=0;
 917:AS76.c        ****     int32 new_step=0;
 918:AS76.c        ****     int32 Encoder_Position_Z_Requested =0;
 919:AS76.c        ****     //int32 diff_encoder_value=0;
 920:AS76.c        ****     int32 encoder_error_value = 0;
 921:AS76.c        ****     Encoder_Position_Z_Requested = steps/3.2;
 922:AS76.c        ****     
 923:AS76.c        ****     for(temp=0; temp<=5; temp++)
 924:AS76.c        ****     {
 925:AS76.c        ****     
 926:AS76.c        ****     Read_All_Optical_Encoder();
 927:AS76.c        ****     //diff_encoder_value = (X_QuadPosition - X_last_position);
 928:AS76.c        ****     encoder_error_value = Encoder_Position_Z_Requested - Z_QuadPosition;
 929:AS76.c        ****     new_step= encoder_error_value*3.2;
 930:AS76.c        ****     if(encoder_error_value >= 4000)
 931:AS76.c        ****     {
 932:AS76.c        ****         Error=  16;
 933:AS76.c        ****         break;
 934:AS76.c        ****     }
ARM GAS  C:\Users\Revanth\AppData\Local\Temp\ccq5TJLm.s 			page 19


 935:AS76.c        ****     if((abs(encoder_error_value))>=5)
 936:AS76.c        ****     {
 937:AS76.c        ****       new_step = new_step+steps;     
 938:AS76.c        ****       GotoPos(new_step, TMC5160_nCS_MotorZ);
 939:AS76.c        ****       WaitTillPositionReached (TMC5160_nCS_MotorZ);
 940:AS76.c        ****       CyDelayUs(50);
 941:AS76.c        ****       Write_32bitSPI_DATA (0x21  , steps, TMC5160_nCS_MotorZ );
 942:AS76.c        ****     }
 943:AS76.c        ****     
 944:AS76.c        ****     }
 945:AS76.c        ****     
 946:AS76.c        ****     
 947:AS76.c        ****     Read_All_Optical_Encoder();
 948:AS76.c        ****     encoder_error_value = Encoder_Position_Z_Requested - Z_QuadPosition;
 949:AS76.c        ****     
 950:AS76.c        ****     if(temp>=4)
 951:AS76.c        ****     {
 952:AS76.c        ****      if(((abs(encoder_error_value))>7) && ((abs(encoder_error_value))<4000) )
 953:AS76.c        ****      {
 954:AS76.c        ****         Write_Debug_UART_Char("Fail to reach Z position \r\n");
 955:AS76.c        ****         LED2_Write(0xFF);
 956:AS76.c        ****         Error = 15;
 957:AS76.c        ****      }
 958:AS76.c        ****     
 959:AS76.c        ****      else if ( ((abs(encoder_error_value))>4000))
 960:AS76.c        ****      {
 961:AS76.c        ****        Write_Debug_UART_Char("Z Encoder or Z Motor Might Not be Working \r\n"); 
 962:AS76.c        ****        Error = 16;
 963:AS76.c        ****      }
 964:AS76.c        ****     
 965:AS76.c        ****      else
 966:AS76.c        ****      {
 967:AS76.c        ****        Write_Debug_UART_Char("Z position Reached");
 968:AS76.c        ****        Error = 0;
 969:AS76.c        ****         
 970:AS76.c        ****      }
 971:AS76.c        ****     
 972:AS76.c        ****     }
 973:AS76.c        ****     
 974:AS76.c        ****     return Error;
 975:AS76.c        **** }
 976:AS76.c        **** 
 977:AS76.c        **** /////////////////////////////////////Go to Position in T Axis//////////////////////////////////////
 978:AS76.c        **** 
 979:AS76.c        **** int goTo_T(int32 Position_T_Requested)
 980:AS76.c        **** {
 981:AS76.c        ****     TMC5160_MotorT_EN_Write(0x00);
 982:AS76.c        ****     CyDelayUs(1000);
 983:AS76.c        ****     Enable_Encoder_T(-Buffer_T_QuadPosition);
 984:AS76.c        ****     if(if_all_homing_done())
 985:AS76.c        ****     {
 986:AS76.c        ****         Error = 0;
 987:AS76.c        ****         Read_All_Optical_Encoder();        
 988:AS76.c        ****         Write_Debug_UART_Char("GotoT Command Recived--->");
 989:AS76.c        ****         GotoPos(Position_T_Requested, TMC5160_nCS_MotorT); // If provided value is position and not
 990:AS76.c        ****         WaitTillPositionReached (TMC5160_nCS_MotorT);
 991:AS76.c        ****         CyDelayUs(50);
ARM GAS  C:\Users\Revanth\AppData\Local\Temp\ccq5TJLm.s 			page 20


 992:AS76.c        ****         //GotoPos(Position_X_Move, TMC5160_nCS_MotorX); // If provided value is steps to move and n
 993:AS76.c        ****         Write_Debug_UART_Int(Position_T_Requested);
 994:AS76.c        ****         Write_Debug_UART_Char("  \r\n");
 995:AS76.c        ****         Step_correction_t(Position_T_Requested);
 996:AS76.c        ****         Read_All_Optical_Encoder();
 997:AS76.c        ****         Buffer_T_QuadPosition = T_QuadPosition;
 998:AS76.c        ****         //TMC5160_MotorT_EN_Write(0xFF);
 999:AS76.c        ****         CyDelayUs (100);
1000:AS76.c        ****         return Error;
1001:AS76.c        ****     }
1002:AS76.c        ****     else
1003:AS76.c        ****     {
1004:AS76.c        ****         Write_Debug_UART_Char("Homing Not Done");
1005:AS76.c        ****         Error = 32;
1006:AS76.c        ****          //TMC5160_MotorT_EN_Write(0xFF);
1007:AS76.c        ****         CyDelayUs(100);
1008:AS76.c        ****         return Error;
1009:AS76.c        ****     }
1010:AS76.c        ****     //Buffer_T_QuadPosition = T_QuadPosition;
1011:AS76.c        **** }
1012:AS76.c        **** 
1013:AS76.c        **** int Step_correction_t(int32 steps)
1014:AS76.c        **** {  
1015:AS76.c        ****     uint8_t temp=0;
1016:AS76.c        ****     int32 new_step=0;
1017:AS76.c        ****     int32 Encoder_Position_T_Requested =0;
1018:AS76.c        ****     //int32 diff_encoder_value=0;
1019:AS76.c        ****     int32 encoder_error_value = 0;
1020:AS76.c        ****     Encoder_Position_T_Requested = steps/3.2;
1021:AS76.c        ****     
1022:AS76.c        ****     for(temp=0; temp<=3; temp++)
1023:AS76.c        ****     {
1024:AS76.c        ****     Read_All_Optical_Encoder();
1025:AS76.c        ****     //diff_encoder_value = (X_QuadPosition - X_last_position);
1026:AS76.c        ****     encoder_error_value = Encoder_Position_T_Requested - T_QuadPosition;
1027:AS76.c        ****     new_step= encoder_error_value*3.2;
1028:AS76.c        ****     if(encoder_error_value >= 4000)
1029:AS76.c        ****     {
1030:AS76.c        ****         Error=  23;
1031:AS76.c        ****         break;
1032:AS76.c        ****     }
1033:AS76.c        ****     
1034:AS76.c        ****     if((abs(encoder_error_value))>=5)
1035:AS76.c        ****     {
1036:AS76.c        ****       new_step = new_step+steps;     
1037:AS76.c        ****       GotoPos(new_step, TMC5160_nCS_MotorT);
1038:AS76.c        ****       WaitTillPositionReached (TMC5160_nCS_MotorT);
1039:AS76.c        ****       CyDelayUs(50);
1040:AS76.c        ****       Write_32bitSPI_DATA (0x21  , steps, TMC5160_nCS_MotorT );
1041:AS76.c        ****     }
1042:AS76.c        ****     
1043:AS76.c        ****     }
1044:AS76.c        ****     
1045:AS76.c        ****     Read_All_Optical_Encoder();
1046:AS76.c        ****     encoder_error_value = Encoder_Position_T_Requested - T_QuadPosition;
1047:AS76.c        ****     
1048:AS76.c        ****     if(temp>=4)
ARM GAS  C:\Users\Revanth\AppData\Local\Temp\ccq5TJLm.s 			page 21


1049:AS76.c        ****     {
1050:AS76.c        ****      if(((abs(encoder_error_value))>=10) && ((abs(encoder_error_value))<4000) )
1051:AS76.c        ****      {
1052:AS76.c        ****         Write_Debug_UART_Char("Fail to reach T position \r\n");
1053:AS76.c        ****         Error = 22;
1054:AS76.c        ****      }
1055:AS76.c        ****     
1056:AS76.c        ****      else if ( ((abs(encoder_error_value))>4000))
1057:AS76.c        ****      {
1058:AS76.c        ****        Write_Debug_UART_Char("T Encoder or T Motor Might Not be Working \r\n"); 
1059:AS76.c        ****        Error = 23;
1060:AS76.c        ****      }
1061:AS76.c        ****     
1062:AS76.c        ****      else
1063:AS76.c        ****      {
1064:AS76.c        ****         Write_Debug_UART_Char("T position Reached");
1065:AS76.c        ****         Error = 0;
1066:AS76.c        ****         
1067:AS76.c        ****      }
1068:AS76.c        ****     
1069:AS76.c        ****     }
1070:AS76.c        ****     
1071:AS76.c        ****     return Error;
1072:AS76.c        **** }
1073:AS76.c        **** 
1074:AS76.c        **** 
1075:AS76.c        **** ///////////////////////////////////////////////////////////////////////////////////////////////////
1076:AS76.c        **** /////////////////////////////////////Go to Position in XYZ Axis////////////////////////////////////
1077:AS76.c        **** 
1078:AS76.c        **** int goTo_XYZ(int32 Position_X_Requested,int32 Position_Y_Requested,int32 Position_Z_Requested)
1079:AS76.c        **** {
1080:AS76.c        ****     Read_All_Optical_Encoder();
1081:AS76.c        ****     Write_32bitSPI_DATA (0x10  , (int) 0x00070302, TMC5160_nCS_MotorY );
1082:AS76.c        ****     Write_32bitSPI_DATA (0x10  , (int) 0x00070302, TMC5160_nCS_MotorX );
1083:AS76.c        ****     Write_32bitSPI_DATA (0x10  , (int) 0x00070202, TMC5160_nCS_MotorZ );
1084:AS76.c        ****     CyDelayUs(200);
1085:AS76.c        ****     //X_last_position = X_QuadPosition;
1086:AS76.c        ****     Write_Debug_UART_Char("GotoX Command Recived--->");
1087:AS76.c        ****     if(Position_X_Requested >= 0)
1088:AS76.c        ****     { 
1089:AS76.c        ****         
1090:AS76.c        ****     GotoPos(Position_X_Requested, TMC5160_nCS_MotorX); // If provided value is position and not the
1091:AS76.c        ****     }
1092:AS76.c        ****     if(Position_Y_Requested >= 0)
1093:AS76.c        ****     { 
1094:AS76.c        ****     GotoPos(Position_Y_Requested, TMC5160_nCS_MotorY);
1095:AS76.c        ****     }
1096:AS76.c        ****     if(Position_Z_Requested >= 0)
1097:AS76.c        ****     { 
1098:AS76.c        ****     Enable_Encoder_Z(-Buffer_Z_QuadPosition);
1099:AS76.c        ****     GotoPos(Position_Z_Requested, TMC5160_nCS_MotorZ);
1100:AS76.c        ****     }
1101:AS76.c        ****     
1102:AS76.c        ****     if(Position_X_Requested >= 0)
1103:AS76.c        ****     {
1104:AS76.c        ****     WaitTillPositionReached (TMC5160_nCS_MotorX);
1105:AS76.c        ****     }
ARM GAS  C:\Users\Revanth\AppData\Local\Temp\ccq5TJLm.s 			page 22


1106:AS76.c        ****     if(Position_Y_Requested >= 0)
1107:AS76.c        ****     {
1108:AS76.c        ****     WaitTillPositionReached (TMC5160_nCS_MotorY);
1109:AS76.c        ****     }
1110:AS76.c        ****     if(Position_Z_Requested >= 0)
1111:AS76.c        ****     {
1112:AS76.c        ****     WaitTillPositionReached (TMC5160_nCS_MotorZ);
1113:AS76.c        ****     }
1114:AS76.c        ****     
1115:AS76.c        ****     if(Position_X_Requested >= 0)
1116:AS76.c        ****     {
1117:AS76.c        ****     Step_correction_x(Position_X_Requested);
1118:AS76.c        ****     //Read_All_Optical_Encoder();
1119:AS76.c        ****     }
1120:AS76.c        ****     //Send_Feedback_to_USB(Error);
1121:AS76.c        ****     if(Position_Y_Requested >= 0)
1122:AS76.c        ****     {
1123:AS76.c        ****     Step_correction_y(Position_Y_Requested);
1124:AS76.c        ****     //Read_All_Optical_Encoder();
1125:AS76.c        ****     }
1126:AS76.c        ****     //Send_Feedback_to_USB(Error);
1127:AS76.c        ****     if(Position_Z_Requested >= 0)
1128:AS76.c        ****     {
1129:AS76.c        ****     Step_correction_z(Position_Z_Requested);    
1130:AS76.c        ****     Read_All_Optical_Encoder();
1131:AS76.c        ****     Buffer_Z_QuadPosition = Z_QuadPosition;
1132:AS76.c        ****     }
1133:AS76.c        ****     Read_All_Optical_Encoder();
1134:AS76.c        ****     
1135:AS76.c        ****     
1136:AS76.c        ****     CyDelayUs(50);
1137:AS76.c        ****     return 0;  
1138:AS76.c        ****         
1139:AS76.c        **** }
1140:AS76.c        **** 
1141:AS76.c        **** 
1142:AS76.c        **** bool if_all_homing_done()
1143:AS76.c        **** {
1144:AS76.c        ****     if((HomeY_done == false)&&(Error == 0))
1145:AS76.c        ****     {
1146:AS76.c        ****         Error = 12;//Y_Homing_Not_Done_Yet
1147:AS76.c        ****         Write_Debug_UART_Char("Y_Homing_Not_Done_Yet***********[x12]  \r\n");
1148:AS76.c        ****         UART_print_all_values();
1149:AS76.c        ****         return false;
1150:AS76.c        ****     }
1151:AS76.c        ****     else if((HomeX_done == false)&&(Error == 0))
1152:AS76.c        ****     {
1153:AS76.c        ****         Error = 6;//X_Homing_Not_Done_Yet
1154:AS76.c        ****         Write_Debug_UART_Char("X_Homing_Not_Done_Yet***********  \r\n");
1155:AS76.c        ****         UART_print_all_values();
1156:AS76.c        ****         return false;
1157:AS76.c        ****     }
1158:AS76.c        ****     else if((HomeZ_done == false)&&(Error == 0))
1159:AS76.c        ****     {
1160:AS76.c        ****         Error = 18;//Z_Homing_Not_Done_Yet
1161:AS76.c        ****         Write_Debug_UART_Char("Z_Homing_Not_Done_Yet***********  \r\n");
1162:AS76.c        ****         UART_print_all_values();
ARM GAS  C:\Users\Revanth\AppData\Local\Temp\ccq5TJLm.s 			page 23


1163:AS76.c        ****         return false;
1164:AS76.c        ****     } 
1165:AS76.c        ****    /* else if((HomeT_done == false)&&(Error == 0))
1166:AS76.c        ****     {
1167:AS76.c        ****         Error = 27;//T_Homing_Not_Done_Yet
1168:AS76.c        ****         Write_Debug_UART_Char("Z_Homing_Not_Done_Yet***********  \r\n");
1169:AS76.c        ****         UART_print_all_values();
1170:AS76.c        ****         return false;
1171:AS76.c        ****     } */
1172:AS76.c        ****     else
1173:AS76.c        ****     {
1174:AS76.c        ****         return true;
1175:AS76.c        ****     }
1176:AS76.c        **** }
1177:AS76.c        **** 
1178:AS76.c        **** ///////////////////////////////////////////////////////////////////////////////////////////////////
1179:AS76.c        **** //PWM Functions Start-------------------------------------------------------
1180:AS76.c        **** void Initialize_PWM()
1181:AS76.c        **** {
  93              		.loc 1 1181 0
  94              		.cfi_startproc
  95              		@ args = 0, pretend = 0, frame = 0
  96              		@ frame_needed = 0, uses_anonymous_args = 0
  97 0000 08B5     		push	{r3, lr}
  98              		.cfi_def_cfa_offset 8
  99              		.cfi_offset 3, -8
 100              		.cfi_offset 14, -4
1182:AS76.c        ****     PWM_CondenserLED_Start();
 101              		.loc 1 1182 0
 102 0002 FFF7FEFF 		bl	PWM_CondenserLED_Start
 103              	.LVL0:
1183:AS76.c        ****     PWM_CondenserLED_WriteCompare(PWM_Condenser_comare_value); 
 104              		.loc 1 1183 0
 105 0006 114B     		ldr	r3, .L10
 106 0008 1888     		ldrh	r0, [r3]
 107 000a FFF7FEFF 		bl	PWM_CondenserLED_WriteCompare
 108              	.LVL1:
1184:AS76.c        ****     
1185:AS76.c        ****     PWM_BarcodeCondenser_LED_Start();
 109              		.loc 1 1185 0
 110 000e FFF7FEFF 		bl	PWM_BarcodeCondenser_LED_Start
 111              	.LVL2:
1186:AS76.c        ****     PWM_BarcodeCondenser_LED_WriteCompare(2);
 112              		.loc 1 1186 0
 113 0012 0220     		movs	r0, #2
 114 0014 FFF7FEFF 		bl	PWM_BarcodeCondenser_LED_WriteCompare
 115              	.LVL3:
1187:AS76.c        ****     
1188:AS76.c        ****     PWM_Buzzer_Start();
 116              		.loc 1 1188 0
 117 0018 FFF7FEFF 		bl	PWM_Buzzer_Start
 118              	.LVL4:
1189:AS76.c        ****     PWM_Buzzer_WriteCompare(2500);
 119              		.loc 1 1189 0
 120 001c 40F6C410 		movw	r0, #2500
 121 0020 FFF7FEFF 		bl	PWM_Buzzer_WriteCompare
 122              	.LVL5:
ARM GAS  C:\Users\Revanth\AppData\Local\Temp\ccq5TJLm.s 			page 24


1190:AS76.c        ****     CyDelay(200);
 123              		.loc 1 1190 0
 124 0024 C820     		movs	r0, #200
 125 0026 FFF7FEFF 		bl	CyDelay
 126              	.LVL6:
1191:AS76.c        ****     PWM_Buzzer_WriteCompare(0);
 127              		.loc 1 1191 0
 128 002a 0020     		movs	r0, #0
 129 002c FFF7FEFF 		bl	PWM_Buzzer_WriteCompare
 130              	.LVL7:
1192:AS76.c        ****     CyDelay(200);
 131              		.loc 1 1192 0
 132 0030 C820     		movs	r0, #200
 133 0032 FFF7FEFF 		bl	CyDelay
 134              	.LVL8:
1193:AS76.c        ****     PWM_Buzzer_WriteCompare(2500);
 135              		.loc 1 1193 0
 136 0036 40F6C410 		movw	r0, #2500
 137 003a FFF7FEFF 		bl	PWM_Buzzer_WriteCompare
 138              	.LVL9:
1194:AS76.c        ****     CyDelay(200);
 139              		.loc 1 1194 0
 140 003e C820     		movs	r0, #200
 141 0040 FFF7FEFF 		bl	CyDelay
 142              	.LVL10:
1195:AS76.c        ****     PWM_Buzzer_WriteCompare(0);
 143              		.loc 1 1195 0
 144 0044 0020     		movs	r0, #0
 145 0046 FFF7FEFF 		bl	PWM_Buzzer_WriteCompare
 146              	.LVL11:
 147 004a 08BD     		pop	{r3, pc}
 148              	.L11:
 149              		.align	2
 150              	.L10:
 151 004c 00000000 		.word	.LANCHOR1
 152              		.cfi_endproc
 153              	.LFE81:
 154              		.size	Initialize_PWM, .-Initialize_PWM
 155              		.section	.text.Set_Backlight_LED,"ax",%progbits
 156              		.align	2
 157              		.global	Set_Backlight_LED
 158              		.thumb
 159              		.thumb_func
 160              		.type	Set_Backlight_LED, %function
 161              	Set_Backlight_LED:
 162              	.LFB87:
1196:AS76.c        **** }
1197:AS76.c        **** int set_BarcodeCondenser_LED()//Set Barcode Condenser LED light intensity
1198:AS76.c        **** {
1199:AS76.c        ****     PWM_barcode_comare_value = ((unsigned int)USB_received[3] << 8) + USB_received[2];  //Read LED 
1200:AS76.c        ****     PWM_BarcodeCondenser_LED_WriteCompare((PWM_barcode_comare_value*0.6)/10);    //Writing LED valu
1201:AS76.c        ****     Write_Debug_UART_Char("LED Barcode Value Recived--->");
1202:AS76.c        ****     Write_Debug_UART_Int(PWM_barcode_comare_value);
1203:AS76.c        ****     Write_Debug_UART_Char("\r\n");
1204:AS76.c        ****     Write_Debug_UART_Char("Set Barcode LED Command Executed  \r\n");
1205:AS76.c        ****     return 0;
1206:AS76.c        **** }
ARM GAS  C:\Users\Revanth\AppData\Local\Temp\ccq5TJLm.s 			page 25


1207:AS76.c        **** 
1208:AS76.c        **** int set_CondenserLED()//Set Condenser LED light intensity
1209:AS76.c        **** {
1210:AS76.c        ****     PWM_Condenser_comare_value = ((unsigned int)USB_received[3] << 8) + USB_received[2];  //Read LE
1211:AS76.c        ****     PWM_CondenserLED_WriteCompare((PWM_Condenser_comare_value*0.6)/10);    //Writing LED value in t
1212:AS76.c        ****     Write_Debug_UART_Char(" LED Value Recived--->");
1213:AS76.c        ****     Write_Debug_UART_Int(PWM_Condenser_comare_value);
1214:AS76.c        ****     Write_Debug_UART_Char("\r\n");
1215:AS76.c        ****     Write_Debug_UART_Char("Set LED Command Executed  \r\n");
1216:AS76.c        ****     return 0;
1217:AS76.c        **** }
1218:AS76.c        **** 
1219:AS76.c        **** int Beep_Once()//Set Condenser LED light intensity
1220:AS76.c        **** {
1221:AS76.c        ****     PWM_Buzzer_WriteCompare(2500);
1222:AS76.c        ****     CyDelay(200);
1223:AS76.c        ****     PWM_Buzzer_WriteCompare(0);
1224:AS76.c        ****     Write_Debug_UART_Char("Beeped Once  \r\n");
1225:AS76.c        ****     return 0;
1226:AS76.c        **** }
1227:AS76.c        **** 
1228:AS76.c        **** int Beep_Twice()//Set Condenser LED light intensity
1229:AS76.c        **** {
1230:AS76.c        ****     PWM_Buzzer_WriteCompare(2500);
1231:AS76.c        ****     CyDelay(200);
1232:AS76.c        ****     PWM_Buzzer_WriteCompare(0);
1233:AS76.c        ****     CyDelay(200);
1234:AS76.c        ****     PWM_Buzzer_WriteCompare(2500);
1235:AS76.c        ****     CyDelay(200);
1236:AS76.c        ****     PWM_Buzzer_WriteCompare(0);
1237:AS76.c        ****     Write_Debug_UART_Char("Beeped Twice  \r\n");
1238:AS76.c        ****     return 0;
1239:AS76.c        **** }
1240:AS76.c        **** 
1241:AS76.c        **** int Long_Beep()//Set Condenser LED light intensity
1242:AS76.c        **** {
1243:AS76.c        ****     PWM_Buzzer_WriteCompare(2500);
1244:AS76.c        ****     CyDelay(2000);
1245:AS76.c        ****     PWM_Buzzer_WriteCompare(0);
1246:AS76.c        ****     CyDelay(200);
1247:AS76.c        ****     
1248:AS76.c        ****     Write_Debug_UART_Char("Beeped Long  \r\n");
1249:AS76.c        ****     return 0;
1250:AS76.c        **** }
1251:AS76.c        **** 
1252:AS76.c        **** //PWM Functions Stop-------------------------------------------------------
1253:AS76.c        **** 
1254:AS76.c        **** void Set_Backlight_LED(uint8_t value)
1255:AS76.c        **** {
 163              		.loc 1 1255 0
 164              		.cfi_startproc
 165              		@ args = 0, pretend = 0, frame = 0
 166              		@ frame_needed = 0, uses_anonymous_args = 0
 167              	.LVL12:
 168 0000 08B5     		push	{r3, lr}
 169              		.cfi_def_cfa_offset 8
 170              		.cfi_offset 3, -8
ARM GAS  C:\Users\Revanth\AppData\Local\Temp\ccq5TJLm.s 			page 26


 171              		.cfi_offset 14, -4
1256:AS76.c        ****     Pin_Backlight_Write(value);
 172              		.loc 1 1256 0
 173 0002 FFF7FEFF 		bl	Pin_Backlight_Write
 174              	.LVL13:
 175 0006 08BD     		pop	{r3, pc}
 176              		.cfi_endproc
 177              	.LFE87:
 178              		.size	Set_Backlight_LED, .-Set_Backlight_LED
 179              		.section	.text.Enable_Encoder_T,"ax",%progbits
 180              		.align	2
 181              		.global	Enable_Encoder_T
 182              		.thumb
 183              		.thumb_func
 184              		.type	Enable_Encoder_T, %function
 185              	Enable_Encoder_T:
 186              	.LFB89:
1257:AS76.c        **** }
1258:AS76.c        **** 
1259:AS76.c        **** //Optical Decoder Functions Start-------------------------------------------------------
1260:AS76.c        **** void Initialize_And_Start_All_Opt_Encoder()//Initialize and start Interrupt for XY encoder count an
1261:AS76.c        **** {   
1262:AS76.c        ****     X_QuadPosition = 0;
1263:AS76.c        ****     Y_QuadPosition = 0;
1264:AS76.c        ****     Z_QuadPosition =0 ;
1265:AS76.c        ****     T_QuadPosition=0;
1266:AS76.c        ****     QuadDec_TZ_Start();
1267:AS76.c        ****     QuadDec_Y_Start();
1268:AS76.c        ****     QuadDec_X_Start();
1269:AS76.c        **** 
1270:AS76.c        ****     Enable_Encoder_Z(0);
1271:AS76.c        ****     Enable_Encoder_T(0);
1272:AS76.c        **** }
1273:AS76.c        **** 
1274:AS76.c        **** 
1275:AS76.c        **** void Enable_Encoder_T(int steps)
1276:AS76.c        **** {
 187              		.loc 1 1276 0
 188              		.cfi_startproc
 189              		@ args = 0, pretend = 0, frame = 0
 190              		@ frame_needed = 0, uses_anonymous_args = 0
 191              	.LVL14:
 192 0000 10B5     		push	{r4, lr}
 193              		.cfi_def_cfa_offset 8
 194              		.cfi_offset 4, -8
 195              		.cfi_offset 14, -4
1277:AS76.c        ****     EncoderTZSelect = 0; // 0 for T and 1 for Z
 196              		.loc 1 1277 0
 197 0002 0024     		movs	r4, #0
 198 0004 034B     		ldr	r3, .L16
 199 0006 5C60     		str	r4, [r3, #4]
1278:AS76.c        ****     QuadDec_TZ_SetCounter(steps);      
 200              		.loc 1 1278 0
 201 0008 FFF7FEFF 		bl	QuadDec_TZ_SetCounter
 202              	.LVL15:
1279:AS76.c        ****     Encoder_T_Z_Select_Write(0);
 203              		.loc 1 1279 0
ARM GAS  C:\Users\Revanth\AppData\Local\Temp\ccq5TJLm.s 			page 27


 204 000c 2046     		mov	r0, r4
 205 000e FFF7FEFF 		bl	Encoder_T_Z_Select_Write
 206              	.LVL16:
 207 0012 10BD     		pop	{r4, pc}
 208              	.L17:
 209              		.align	2
 210              	.L16:
 211 0014 00000000 		.word	.LANCHOR0
 212              		.cfi_endproc
 213              	.LFE89:
 214              		.size	Enable_Encoder_T, .-Enable_Encoder_T
 215              		.section	.text.Enable_Encoder_Z,"ax",%progbits
 216              		.align	2
 217              		.global	Enable_Encoder_Z
 218              		.thumb
 219              		.thumb_func
 220              		.type	Enable_Encoder_Z, %function
 221              	Enable_Encoder_Z:
 222              	.LFB90:
1280:AS76.c        **** }
1281:AS76.c        **** 
1282:AS76.c        **** void Enable_Encoder_Z(int steps)
1283:AS76.c        **** {
 223              		.loc 1 1283 0
 224              		.cfi_startproc
 225              		@ args = 0, pretend = 0, frame = 0
 226              		@ frame_needed = 0, uses_anonymous_args = 0
 227              	.LVL17:
 228 0000 10B5     		push	{r4, lr}
 229              		.cfi_def_cfa_offset 8
 230              		.cfi_offset 4, -8
 231              		.cfi_offset 14, -4
1284:AS76.c        ****     EncoderTZSelect = 1; // 0 for T and 1 for Z
 232              		.loc 1 1284 0
 233 0002 0124     		movs	r4, #1
 234 0004 034B     		ldr	r3, .L20
 235 0006 5C60     		str	r4, [r3, #4]
1285:AS76.c        ****     QuadDec_TZ_SetCounter(steps);
 236              		.loc 1 1285 0
 237 0008 FFF7FEFF 		bl	QuadDec_TZ_SetCounter
 238              	.LVL18:
1286:AS76.c        ****     Encoder_T_Z_Select_Write(1);
 239              		.loc 1 1286 0
 240 000c 2046     		mov	r0, r4
 241 000e FFF7FEFF 		bl	Encoder_T_Z_Select_Write
 242              	.LVL19:
 243 0012 10BD     		pop	{r4, pc}
 244              	.L21:
 245              		.align	2
 246              	.L20:
 247 0014 00000000 		.word	.LANCHOR0
 248              		.cfi_endproc
 249              	.LFE90:
 250              		.size	Enable_Encoder_Z, .-Enable_Encoder_Z
 251              		.section	.text.Initialize_And_Start_All_Opt_Encoder,"ax",%progbits
 252              		.align	2
 253              		.global	Initialize_And_Start_All_Opt_Encoder
ARM GAS  C:\Users\Revanth\AppData\Local\Temp\ccq5TJLm.s 			page 28


 254              		.thumb
 255              		.thumb_func
 256              		.type	Initialize_And_Start_All_Opt_Encoder, %function
 257              	Initialize_And_Start_All_Opt_Encoder:
 258              	.LFB88:
1261:AS76.c        ****     X_QuadPosition = 0;
 259              		.loc 1 1261 0
 260              		.cfi_startproc
 261              		@ args = 0, pretend = 0, frame = 0
 262              		@ frame_needed = 0, uses_anonymous_args = 0
 263 0000 10B5     		push	{r4, lr}
 264              		.cfi_def_cfa_offset 8
 265              		.cfi_offset 4, -8
 266              		.cfi_offset 14, -4
1262:AS76.c        ****     Y_QuadPosition = 0;
 267              		.loc 1 1262 0
 268 0002 094B     		ldr	r3, .L24
 269 0004 0024     		movs	r4, #0
 270 0006 9C60     		str	r4, [r3, #8]
1263:AS76.c        ****     Z_QuadPosition =0 ;
 271              		.loc 1 1263 0
 272 0008 DC60     		str	r4, [r3, #12]
1264:AS76.c        ****     T_QuadPosition=0;
 273              		.loc 1 1264 0
 274 000a 1C61     		str	r4, [r3, #16]
1265:AS76.c        ****     QuadDec_TZ_Start();
 275              		.loc 1 1265 0
 276 000c 5C61     		str	r4, [r3, #20]
1266:AS76.c        ****     QuadDec_Y_Start();
 277              		.loc 1 1266 0
 278 000e FFF7FEFF 		bl	QuadDec_TZ_Start
 279              	.LVL20:
1267:AS76.c        ****     QuadDec_X_Start();
 280              		.loc 1 1267 0
 281 0012 FFF7FEFF 		bl	QuadDec_Y_Start
 282              	.LVL21:
1268:AS76.c        **** 
 283              		.loc 1 1268 0
 284 0016 FFF7FEFF 		bl	QuadDec_X_Start
 285              	.LVL22:
1270:AS76.c        ****     Enable_Encoder_T(0);
 286              		.loc 1 1270 0
 287 001a 2046     		mov	r0, r4
 288 001c FFF7FEFF 		bl	Enable_Encoder_Z
 289              	.LVL23:
1271:AS76.c        **** }
 290              		.loc 1 1271 0
 291 0020 2046     		mov	r0, r4
 292 0022 FFF7FEFF 		bl	Enable_Encoder_T
 293              	.LVL24:
 294 0026 10BD     		pop	{r4, pc}
 295              	.L25:
 296              		.align	2
 297              	.L24:
 298 0028 00000000 		.word	.LANCHOR0
 299              		.cfi_endproc
 300              	.LFE88:
ARM GAS  C:\Users\Revanth\AppData\Local\Temp\ccq5TJLm.s 			page 29


 301              		.size	Initialize_And_Start_All_Opt_Encoder, .-Initialize_And_Start_All_Opt_Encoder
 302              		.section	.text.Read_All_Optical_Encoder,"ax",%progbits
 303              		.align	2
 304              		.global	Read_All_Optical_Encoder
 305              		.thumb
 306              		.thumb_func
 307              		.type	Read_All_Optical_Encoder, %function
 308              	Read_All_Optical_Encoder:
 309              	.LFB91:
1287:AS76.c        **** }
1288:AS76.c        **** 
1289:AS76.c        **** void Read_All_Optical_Encoder()//Read all optical encoder value and update XYZ value
1290:AS76.c        **** {
 310              		.loc 1 1290 0
 311              		.cfi_startproc
 312              		@ args = 0, pretend = 0, frame = 0
 313              		@ frame_needed = 0, uses_anonymous_args = 0
 314 0000 10B5     		push	{r4, lr}
 315              		.cfi_def_cfa_offset 8
 316              		.cfi_offset 4, -8
 317              		.cfi_offset 14, -4
1291:AS76.c        ****     if(EncoderTZSelect == 0)
 318              		.loc 1 1291 0
 319 0002 0F4B     		ldr	r3, .L30
 320 0004 5B68     		ldr	r3, [r3, #4]
 321 0006 33B9     		cbnz	r3, .L27
1292:AS76.c        ****     {
1293:AS76.c        ****         T_QuadPosition = -QuadDec_TZ_GetCounter();
 322              		.loc 1 1293 0
 323 0008 FFF7FEFF 		bl	QuadDec_TZ_GetCounter
 324              	.LVL25:
 325 000c 4042     		negs	r0, r0
 326 000e 0C4B     		ldr	r3, .L30
 327 0010 5861     		str	r0, [r3, #20]
1294:AS76.c        ****         Z_QuadPosition = Buffer_Z_QuadPosition;
 328              		.loc 1 1294 0
 329 0012 9A69     		ldr	r2, [r3, #24]
 330 0014 1A61     		str	r2, [r3, #16]
 331              	.L27:
1295:AS76.c        ****     }
1296:AS76.c        ****     if(EncoderTZSelect == 1)
 332              		.loc 1 1296 0
 333 0016 0A4B     		ldr	r3, .L30
 334 0018 5B68     		ldr	r3, [r3, #4]
 335 001a 012B     		cmp	r3, #1
 336 001c 06D1     		bne	.L28
1297:AS76.c        ****     {
1298:AS76.c        ****         T_QuadPosition = Buffer_T_QuadPosition;
 337              		.loc 1 1298 0
 338 001e 084C     		ldr	r4, .L30
 339 0020 E369     		ldr	r3, [r4, #28]
 340 0022 6361     		str	r3, [r4, #20]
1299:AS76.c        ****         Z_QuadPosition = -QuadDec_TZ_GetCounter();
 341              		.loc 1 1299 0
 342 0024 FFF7FEFF 		bl	QuadDec_TZ_GetCounter
 343              	.LVL26:
 344 0028 4042     		negs	r0, r0
ARM GAS  C:\Users\Revanth\AppData\Local\Temp\ccq5TJLm.s 			page 30


 345 002a 2061     		str	r0, [r4, #16]
 346              	.L28:
1300:AS76.c        ****     }
1301:AS76.c        ****     //X_QuadPosition =  Input_Position_X_Temp ;
1302:AS76.c        ****     X_QuadPosition = -QuadDec_X_GetCounter();
 347              		.loc 1 1302 0
 348 002c FFF7FEFF 		bl	QuadDec_X_GetCounter
 349              	.LVL27:
 350 0030 4042     		negs	r0, r0
 351 0032 034C     		ldr	r4, .L30
 352 0034 A060     		str	r0, [r4, #8]
1303:AS76.c        ****     Y_QuadPosition = -QuadDec_Y_GetCounter();
 353              		.loc 1 1303 0
 354 0036 FFF7FEFF 		bl	QuadDec_Y_GetCounter
 355              	.LVL28:
 356 003a 4042     		negs	r0, r0
 357 003c E060     		str	r0, [r4, #12]
 358 003e 10BD     		pop	{r4, pc}
 359              	.L31:
 360              		.align	2
 361              	.L30:
 362 0040 00000000 		.word	.LANCHOR0
 363              		.cfi_endproc
 364              	.LFE91:
 365              		.size	Read_All_Optical_Encoder, .-Read_All_Optical_Encoder
 366              		.section	.text.USB_Detect_Indication_Via_LED,"ax",%progbits
 367              		.align	2
 368              		.global	USB_Detect_Indication_Via_LED
 369              		.thumb
 370              		.thumb_func
 371              		.type	USB_Detect_Indication_Via_LED, %function
 372              	USB_Detect_Indication_Via_LED:
 373              	.LFB94:
1304:AS76.c        **** }    
1305:AS76.c        **** //Optical Decoder Functions Stop-------------------------------------------------------
1306:AS76.c        **** 
1307:AS76.c        **** 
1308:AS76.c        **** //USB Functions Start-------------------------------------------------------
1309:AS76.c        **** void Process_USB_Data()/* Process USB incoming data command. */
1310:AS76.c        **** {
1311:AS76.c        ****     //Pin_USB_RX_TX_Indicator_LED_Write(1); /* turn ON LED as a indicator to start process the comm
1312:AS76.c        ****     Error = 0;
1313:AS76.c        ****     command = ((unsigned int)USB_received[1] << 8) + USB_received[0];   /* Reading USB data. */
1314:AS76.c        ****     /*Compare USB data and execute the command*/
1315:AS76.c        **** 
1316:AS76.c        ****     if (command == HomeX)                                          
1317:AS76.c        ****     {
1318:AS76.c        ****         Write_Debug_UART_Char("\n\n\n\n\nHome X Starting \n");
1319:AS76.c        ****         
1320:AS76.c        ****         TMC5160_MotorZ_EN_Write(0xFF);
1321:AS76.c        ****         CyDelayUs(500);
1322:AS76.c        ****         TMC5160_MotorY_EN_Write(0xFF);
1323:AS76.c        ****         CyDelayUs(500);
1324:AS76.c        ****         TMC5160_MotorX_EN_Write(0x00);
1325:AS76.c        ****         CyDelayUs(500);
1326:AS76.c        ****         update_max_velocity(381178, TMC5160_nCS_MotorX);
1327:AS76.c        ****         //Write_32bitSPI_DATA (0x26  , (int) 45000, TMC5160_nCS_MotorX );
ARM GAS  C:\Users\Revanth\AppData\Local\Temp\ccq5TJLm.s 			page 31


1328:AS76.c        ****         CyDelay(1);
1329:AS76.c        ****         Input_Position_X_Temp = 0;
1330:AS76.c        ****         goTo_X(0);
1331:AS76.c        ****         Write_32bitSPI_DATA (0x10  , (int) 0x00070101, TMC5160_nCS_MotorY );
1332:AS76.c        ****         Write_32bitSPI_DATA (0x10  , (int) 0x00070101, TMC5160_nCS_MotorZ );
1333:AS76.c        ****         Write_32bitSPI_DATA (0x10  , (int) 0x00070407, TMC5160_nCS_MotorX );
1334:AS76.c        ****         homeX(TMC5160_nCS_MotorX);   
1335:AS76.c        ****         //Write_32bitSPI_DATA (0x26  , (int) 0x0000FFFF, TMC5160_nCS_MotorX );
1336:AS76.c        ****         Write_32bitSPI_DATA (0x10  , (int) 0x00070301, TMC5160_nCS_MotorX );
1337:AS76.c        ****         CyDelay(50);
1338:AS76.c        ****         TMC5160_MotorZ_EN_Write(0x00);
1339:AS76.c        ****         CyDelay(50);
1340:AS76.c        ****         TMC5160_MotorY_EN_Write(0x00);
1341:AS76.c        ****         CyDelayUs(500);
1342:AS76.c        ****         Previous_X_Position = 0;  
1343:AS76.c        ****         Send_Feedback_to_USB(Error);
1344:AS76.c        ****     
1345:AS76.c        ****     }
1346:AS76.c        ****     else if (command == HomeY)                           
1347:AS76.c        ****     {
1348:AS76.c        ****         Write_Debug_UART_Char("\n\n\n\n\nHome Y Starting \n");
1349:AS76.c        ****         TMC5160_MotorZ_EN_Write(0xFF);
1350:AS76.c        ****         CyDelayUs(500);
1351:AS76.c        ****         TMC5160_MotorX_EN_Write(0xFF);
1352:AS76.c        ****         CyDelayUs(500);
1353:AS76.c        ****         TMC5160_MotorY_EN_Write(0x00);
1354:AS76.c        ****         CyDelayUs(500);
1355:AS76.c        ****         //Write_32bitSPI_DATA (0x26  , (int) 45000, TMC5160_nCS_MotorY );
1356:AS76.c        ****         update_max_velocity(381178, TMC5160_nCS_MotorY);
1357:AS76.c        ****         CyDelay(1);
1358:AS76.c        ****         goTo_Y(0);
1359:AS76.c        ****         Write_32bitSPI_DATA (0x10  , (int) 0x00070203, TMC5160_nCS_MotorY );
1360:AS76.c        ****         Write_32bitSPI_DATA (0x10  , (int) 0x00070101, TMC5160_nCS_MotorZ );
1361:AS76.c        ****         Write_32bitSPI_DATA (0x10  , (int) 0x00070301, TMC5160_nCS_MotorX );
1362:AS76.c        ****         homeY(TMC5160_nCS_MotorY);
1363:AS76.c        ****         Write_32bitSPI_DATA (0x10  , (int) 0x00070301, TMC5160_nCS_MotorY );
1364:AS76.c        ****         CyDelay(50);
1365:AS76.c        ****         TMC5160_MotorZ_EN_Write(0x00);
1366:AS76.c        ****         CyDelay(50);
1367:AS76.c        ****         TMC5160_MotorX_EN_Write(0x00);
1368:AS76.c        ****         CyDelay(50);
1369:AS76.c        ****         Previous_Y_Position = 0;  
1370:AS76.c        ****         Send_Feedback_to_USB(Error);
1371:AS76.c        ****         
1372:AS76.c        ****     }
1373:AS76.c        ****     else if (command == HomeZ)                           
1374:AS76.c        ****     {
1375:AS76.c        ****         Write_Debug_UART_Char("\n\n\n\n\nHome Z Starting \n");
1376:AS76.c        ****         TMC5160_MotorY_EN_Write(0xFF);
1377:AS76.c        ****         CyDelayUs(500);
1378:AS76.c        ****         TMC5160_MotorX_EN_Write(0xFF);
1379:AS76.c        ****         CyDelayUs(500);
1380:AS76.c        ****         TMC5160_MotorZ_EN_Write(0x00);
1381:AS76.c        ****         CyDelayUs(500);
1382:AS76.c        ****         //Write_32bitSPI_DATA (0x26  , (int) 45000, TMC5160_nCS_MotorZ );
1383:AS76.c        ****         update_max_velocity(53687*2, TMC5160_nCS_MotorZ);
1384:AS76.c        ****         CyDelay(1);
ARM GAS  C:\Users\Revanth\AppData\Local\Temp\ccq5TJLm.s 			page 32


1385:AS76.c        ****         goTo_Z(0);
1386:AS76.c        ****         Write_32bitSPI_DATA (0x10  , (int) 0x00070101, TMC5160_nCS_MotorY );
1387:AS76.c        ****         Write_32bitSPI_DATA (0x10  , (int) 0x00070303, TMC5160_nCS_MotorZ );
1388:AS76.c        ****         Write_32bitSPI_DATA (0x10  , (int) 0x00070301, TMC5160_nCS_MotorX );
1389:AS76.c        ****         homeZ(TMC5160_nCS_MotorZ);
1390:AS76.c        ****         CyDelay(50);
1391:AS76.c        ****         TMC5160_MotorY_EN_Write(0x00);
1392:AS76.c        ****         CyDelay(50);
1393:AS76.c        ****         TMC5160_MotorX_EN_Write(0x00);
1394:AS76.c        ****         CyDelay(50);
1395:AS76.c        ****         Previous_Z_Position = 0;  
1396:AS76.c        ****         //Write_32bitSPI_DATA (0x26  , (int) 0x0000FFFF, TMC5160_nCS_MotorZ );
1397:AS76.c        ****         Send_Feedback_to_USB(Error);
1398:AS76.c        ****     }
1399:AS76.c        ****     else if (command == HomeT)                           
1400:AS76.c        ****     {
1401:AS76.c        ****         TMC5160_MotorZ_EN_Write(0xFF);
1402:AS76.c        ****         CyDelayUs(500);
1403:AS76.c        ****         TMC5160_MotorY_EN_Write(0xFF);
1404:AS76.c        ****         CyDelayUs(500);
1405:AS76.c        ****         TMC5160_MotorX_EN_Write(0xFF);
1406:AS76.c        ****         CyDelayUs(500);
1407:AS76.c        ****         Write_32bitSPI_DATA (0x10  , (int) 0x00070501, TMC5160_nCS_MotorT ); 
1408:AS76.c        ****         CyDelayUs(500);
1409:AS76.c        ****         TMC5160_MotorT_EN_Write(0x00);
1410:AS76.c        ****         CyDelay(10);
1411:AS76.c        ****         goTo_T(0);
1412:AS76.c        ****         homeT(TMC5160_nCS_MotorT);
1413:AS76.c        ****         CyDelayUs(1000);
1414:AS76.c        ****         TMC5160_MotorT_EN_Write(0xFF);
1415:AS76.c        ****         CyDelayUs(1000);
1416:AS76.c        ****         TMC5160_MotorZ_EN_Write(0x00);
1417:AS76.c        ****         CyDelayUs(1000);
1418:AS76.c        ****         TMC5160_MotorY_EN_Write(0x00);
1419:AS76.c        ****         CyDelayUs(1000);
1420:AS76.c        ****         TMC5160_MotorX_EN_Write(0x00);
1421:AS76.c        ****         CyDelayUs(1000);
1422:AS76.c        ****         Send_Feedback_to_USB(Error);
1423:AS76.c        ****     }
1424:AS76.c        ****     else if (command == GotoX)                           
1425:AS76.c        ****     {
1426:AS76.c        ****         Write_Debug_UART_Char("\n\n\n\n\nGoto X Starting \n");
1427:AS76.c        ****         Position_X_Requested = ((int32)USB_received[5] << 24) + ((int32)USB_received[4] << 16) + ((
1428:AS76.c        ****         Write_Debug_UART_Char("Requested Position :");
1429:AS76.c        ****         Write_Debug_UART_Int(Position_X_Requested);
1430:AS76.c        ****         Write_Debug_UART_Char("\n");
1431:AS76.c        ****         if(Previous_X_Position != Position_X_Requested)
1432:AS76.c        ****         {
1433:AS76.c        ****         
1434:AS76.c        ****         {
1435:AS76.c        ****             Previous_X_Position = Position_X_Requested;
1436:AS76.c        ****             Position_X_Requested = (int)(Position_X_Requested / 4);
1437:AS76.c        ****             Position_X_Requested = (int)Position_X_Requested * 12.8;
1438:AS76.c        ****             Error = goTo_X(Position_X_Requested);
1439:AS76.c        ****         }
1440:AS76.c        ****         
1441:AS76.c        ****         
ARM GAS  C:\Users\Revanth\AppData\Local\Temp\ccq5TJLm.s 			page 33


1442:AS76.c        ****         
1443:AS76.c        ****         
1444:AS76.c        ****         //Write_32bitSPI_DATA (0x10  , (int) 0x00070105, TMC5160_nCS_MotorX );
1445:AS76.c        ****         CyDelay(10);
1446:AS76.c        ****         Write_32bitSPI_DATA (0x10  , (int) 0x00070102, TMC5160_nCS_MotorY );
1447:AS76.c        ****         Write_32bitSPI_DATA (0x10  , (int) 0x00070102, TMC5160_nCS_MotorZ );
1448:AS76.c        ****         Write_32bitSPI_DATA (0x10  , (int) 0x00070102, TMC5160_nCS_MotorX );
1449:AS76.c        ****         Write_32bitSPI_DATA (0x10  , (int) 0x00070102, TMC5160_nCS_MotorT ); 
1450:AS76.c        ****         }
1451:AS76.c        ****         Send_Feedback_to_USB(Error);
1452:AS76.c        ****         
1453:AS76.c        ****         
1454:AS76.c        ****     }
1455:AS76.c        ****     else if (command == GotoY)          
1456:AS76.c        ****     {
1457:AS76.c        ****         Write_Debug_UART_Char("\n\n\n\n\nGoto Y Starting \n");
1458:AS76.c        ****         Position_Y_Requested = ((int32)USB_received[5] << 24) + ((int32)USB_received[4] << 16) + ((
1459:AS76.c        ****         Write_Debug_UART_Char("Requested Position :");
1460:AS76.c        ****         Write_Debug_UART_Int(Position_Y_Requested);
1461:AS76.c        ****         Write_Debug_UART_Char("\n");
1462:AS76.c        ****         if(Previous_Y_Position != Position_Y_Requested)
1463:AS76.c        ****         {
1464:AS76.c        ****         Previous_Y_Position = Position_Y_Requested;
1465:AS76.c        ****         Position_Y_Requested = (int)(Position_Y_Requested / 4);
1466:AS76.c        ****         Position_Y_Requested = (int)(Position_Y_Requested * 12.8);
1467:AS76.c        ****         Error = goTo_Y(Position_Y_Requested);
1468:AS76.c        ****                
1469:AS76.c        ****         //Write_32bitSPI_DATA (0x10  , (int) 0x00070105, TMC5160_nCS_MotorY );
1470:AS76.c        ****         CyDelay(10);        
1471:AS76.c        ****         Write_32bitSPI_DATA (0x10  , (int) 0x00070102, TMC5160_nCS_MotorY );
1472:AS76.c        ****         Write_32bitSPI_DATA (0x10  , (int) 0x00070102, TMC5160_nCS_MotorZ );
1473:AS76.c        ****         Write_32bitSPI_DATA (0x10  , (int) 0x00070102, TMC5160_nCS_MotorX );
1474:AS76.c        ****         Write_32bitSPI_DATA (0x10  , (int) 0x00070102, TMC5160_nCS_MotorT ); 
1475:AS76.c        ****         }
1476:AS76.c        ****         Send_Feedback_to_USB(Error);
1477:AS76.c        ****     }
1478:AS76.c        ****     else if (command == GotoZ)        
1479:AS76.c        ****     {
1480:AS76.c        ****         Write_Debug_UART_Char("\n\n\n\n\nGoto Z Starting \n");
1481:AS76.c        ****         update_max_velocity(107374,TMC5160_nCS_MotorZ);
1482:AS76.c        ****         Position_Z_Requested = ((int32)USB_received[5] << 24) + ((int32)USB_received[4] << 16) + ((
1483:AS76.c        ****         Write_Debug_UART_Char("Requested Position :");
1484:AS76.c        ****         Write_Debug_UART_Int(Position_Z_Requested);
1485:AS76.c        ****         Write_Debug_UART_Char("\n");
1486:AS76.c        ****         if(Previous_Z_Position != Position_Z_Requested)
1487:AS76.c        ****         {
1488:AS76.c        ****         Previous_Z_Position = Position_Z_Requested;
1489:AS76.c        ****         Position_Z_Requested = (Position_Z_Requested / 16);
1490:AS76.c        ****         Position_Z_Requested = Position_Z_Requested * 51.2;
1491:AS76.c        ****         Error = goTo_Z(Position_Z_Requested);
1492:AS76.c        ****         }
1493:AS76.c        ****         Send_Feedback_to_USB(Error);
1494:AS76.c        ****     }
1495:AS76.c        ****     else if (command == GotoT)        
1496:AS76.c        ****     {
1497:AS76.c        ****         Write_Debug_UART_Char("\n\n\n\n\nGoto T Starting \n");
1498:AS76.c        ****         TMC5160_MotorZ_EN_Write(0xFF);
ARM GAS  C:\Users\Revanth\AppData\Local\Temp\ccq5TJLm.s 			page 34


1499:AS76.c        ****         CyDelayUs(500);
1500:AS76.c        ****         TMC5160_MotorY_EN_Write(0xFF);
1501:AS76.c        ****         CyDelayUs(500);
1502:AS76.c        ****         TMC5160_MotorX_EN_Write(0xFF);
1503:AS76.c        ****         CyDelayUs(500);
1504:AS76.c        ****         Write_32bitSPI_DATA (0x10  , (int) 0x00070501, TMC5160_nCS_MotorT ); 
1505:AS76.c        ****         CyDelayUs(500);
1506:AS76.c        ****         TMC5160_MotorT_EN_Write(0x00);
1507:AS76.c        ****         CyDelay(10); 
1508:AS76.c        ****         Position_T_Requested = ((int32)USB_received[5] << 24) + ((int32)USB_received[4] << 16) + ((
1509:AS76.c        ****         Position_T_Requested = (Position_T_Requested / 1);
1510:AS76.c        ****         Position_T_Requested = Position_T_Requested * 1;
1511:AS76.c        ****         Error = goTo_T(Position_T_Requested);
1512:AS76.c        ****          CyDelayUs(1000);
1513:AS76.c        ****         TMC5160_MotorT_EN_Write(0xFF);
1514:AS76.c        ****         CyDelayUs(1000);
1515:AS76.c        ****         TMC5160_MotorZ_EN_Write(0x00);
1516:AS76.c        ****         CyDelayUs(1000);
1517:AS76.c        ****         TMC5160_MotorY_EN_Write(0x00);
1518:AS76.c        ****         CyDelayUs(1000);
1519:AS76.c        ****         TMC5160_MotorX_EN_Write(0x00);
1520:AS76.c        ****         CyDelayUs(1000);
1521:AS76.c        ****         Send_Feedback_to_USB(Error);
1522:AS76.c        ****         //Write_32bitSPI_DATA (0x10  , (int) 0x00070303, TMC5160_nCS_MotorT );
1523:AS76.c        ****    
1524:AS76.c        ****     }
1525:AS76.c        ****     else if ( command == Set_OilDispenser )
1526:AS76.c        ****     {
1527:AS76.c        ****         Write_Debug_UART_Char("\n\n\n\n\nOil Pump Starting \n");
1528:AS76.c        ****         int time_ms=0;
1529:AS76.c        ****         uint8_t direction=0;
1530:AS76.c        ****         time_ms = ((int32)USB_received[5] << 24) + ((int32)USB_received[4] << 16) + ((int32)USB_rec
1531:AS76.c        ****         if((USB_received[6] == 0x00) || (USB_received[6] == 0x01))
1532:AS76.c        ****         {
1533:AS76.c        ****             CyDelayUs(10);
1534:AS76.c        ****         }
1535:AS76.c        ****         else
1536:AS76.c        ****         {
1537:AS76.c        ****           USB_received[6] = 0x00;
1538:AS76.c        ****         }
1539:AS76.c        ****         
1540:AS76.c        ****         direction = USB_received[6];
1541:AS76.c        ****         run_pump (time_ms, direction);
1542:AS76.c        ****         Send_Feedback_to_USB(Error);
1543:AS76.c        ****     }
1544:AS76.c        ****     
1545:AS76.c        ****     else if (command == GotoXYZ)
1546:AS76.c        ****     {
1547:AS76.c        ****         update_max_velocity(107374,TMC5160_nCS_MotorZ);
1548:AS76.c        ****         Write_Debug_UART_Char("\n\n\n\n\nGoto XYZ Starting \n");
1549:AS76.c        ****         Position_X_Requested = ((int32)USB_received[5] << 24) + ((int32)USB_received[4] << 16) + ((
1550:AS76.c        ****         Position_Y_Requested = ((int32)USB_received[9] << 24) + ((int32)USB_received[8] << 16) + ((
1551:AS76.c        ****         Position_Z_Requested = ((int32)USB_received[13] << 24) + ((int32)USB_received[12] << 16) + 
1552:AS76.c        ****         //Input_Position_X_Temp = Position_X_Requested;
1553:AS76.c        ****         
1554:AS76.c        ****         if(Previous_X_Position == Position_X_Requested)
1555:AS76.c        ****         {
ARM GAS  C:\Users\Revanth\AppData\Local\Temp\ccq5TJLm.s 			page 35


1556:AS76.c        ****           Position_X_Requested = -1  ;
1557:AS76.c        ****         }
1558:AS76.c        ****         if(Previous_Y_Position == Position_Y_Requested)
1559:AS76.c        ****         {
1560:AS76.c        ****           Position_Y_Requested = -1  ;
1561:AS76.c        ****         }
1562:AS76.c        ****         if(Previous_Z_Position == Position_Z_Requested)
1563:AS76.c        ****         {
1564:AS76.c        ****           Position_Z_Requested = -1  ;
1565:AS76.c        ****         }
1566:AS76.c        ****         
1567:AS76.c        ****         
1568:AS76.c        ****         if(Position_X_Requested >= 0)
1569:AS76.c        ****         {   
1570:AS76.c        ****         Previous_X_Position = Position_X_Requested;    
1571:AS76.c        ****         Position_X_Requested = (Position_X_Requested / 4);
1572:AS76.c        ****         Position_X_Requested = Position_X_Requested * 12.8;
1573:AS76.c        ****         }
1574:AS76.c        ****         if(Position_Y_Requested >= 0)
1575:AS76.c        ****         {
1576:AS76.c        ****         Previous_Y_Position = Position_Y_Requested;    
1577:AS76.c        ****         Position_Y_Requested = (Position_Y_Requested / 4);
1578:AS76.c        ****         Position_Y_Requested = Position_Y_Requested * 12.8;
1579:AS76.c        ****         }
1580:AS76.c        ****         if(Position_Z_Requested >= 0)
1581:AS76.c        ****         {
1582:AS76.c        ****         Previous_Z_Position = Position_Z_Requested;    
1583:AS76.c        ****         Position_Z_Requested = (Position_Z_Requested / 16);
1584:AS76.c        ****         Position_Z_Requested = Position_Z_Requested * 51.2;
1585:AS76.c        ****         }
1586:AS76.c        ****         
1587:AS76.c        ****         Error = goTo_XYZ(Position_X_Requested, Position_Y_Requested, Position_Z_Requested);
1588:AS76.c        ****         CyDelay(10);
1589:AS76.c        ****         Write_32bitSPI_DATA (0x10  , (int) 0x00070103, TMC5160_nCS_MotorY );
1590:AS76.c        ****         Write_32bitSPI_DATA (0x10  , (int) 0x00070103, TMC5160_nCS_MotorZ );
1591:AS76.c        ****         Write_32bitSPI_DATA (0x10  , (int) 0x00070103, TMC5160_nCS_MotorX );
1592:AS76.c        ****         Write_32bitSPI_DATA (0x10  , (int) 0x00070103, TMC5160_nCS_MotorT );
1593:AS76.c        ****         Send_Feedback_to_USB(Error);
1594:AS76.c        ****         
1595:AS76.c        ****     }
1596:AS76.c        ****     
1597:AS76.c        ****     else if (command == Set_LED_voltage)
1598:AS76.c        ****     { 
1599:AS76.c        ****         Write_Debug_UART_Char("\n\n\n\n\nSet condender Starting \n");
1600:AS76.c        ****         set_CondenserLED();
1601:AS76.c        ****         CyDelay(100);
1602:AS76.c        ****         Send_Feedback_to_USB(Error);  
1603:AS76.c        ****     }
1604:AS76.c        ****     
1605:AS76.c        ****     else if (command == Set_BarClight)
1606:AS76.c        ****     {
1607:AS76.c        ****         Write_Debug_UART_Char("\n\n\n\n\nBarcode ligt Starting \n");
1608:AS76.c        ****         set_BarcodeCondenser_LED();
1609:AS76.c        ****         CyDelay(100);
1610:AS76.c        ****         Send_Feedback_to_USB(Error);  
1611:AS76.c        ****     }
1612:AS76.c        ****     
ARM GAS  C:\Users\Revanth\AppData\Local\Temp\ccq5TJLm.s 			page 36


1613:AS76.c        ****     else if (command == Set_Backlight)
1614:AS76.c        ****     {
1615:AS76.c        ****         Write_Debug_UART_Char("\n\n\n\n\nSet Backlight Starting \n");
1616:AS76.c        ****         uint8_t value=0;
1617:AS76.c        ****         value = USB_received[2];
1618:AS76.c        ****         if(value == 0)
1619:AS76.c        ****         {
1620:AS76.c        ****         value = 0x00;
1621:AS76.c        ****         }
1622:AS76.c        ****         else if(value == 1)
1623:AS76.c        ****         {
1624:AS76.c        ****         value =0xFF;
1625:AS76.c        ****         }
1626:AS76.c        ****         else
1627:AS76.c        ****         {
1628:AS76.c        ****         Write_Debug_UART_Char("Backlight LED wrong Value Provided  \r\n");
1629:AS76.c        ****         }
1630:AS76.c        ****        
1631:AS76.c        ****         Pin_Backlight_Write(value);
1632:AS76.c        ****         Send_Feedback_to_USB(Error);
1633:AS76.c        ****     }
1634:AS76.c        ****     
1635:AS76.c        ****     else if (command == PCB_Reset)                     
1636:AS76.c        ****     {
1637:AS76.c        ****         Write_Debug_UART_Char("PCB Reset Command Recived  \r\n");
1638:AS76.c        ****         Write_Debug_UART_Char("\r\n");
1639:AS76.c        ****         CyDelay(500);
1640:AS76.c        ****         Send_Feedback_to_USB(0);
1641:AS76.c        ****         CyDelay(500);
1642:AS76.c        ****         CySoftwareReset();
1643:AS76.c        ****     }
1644:AS76.c        ****     else if(command == SetSpeed)  
1645:AS76.c        ****     {
1646:AS76.c        ****         
1647:AS76.c        ****         Motor_Speed_X = ((int32)USB_received[5] << 24) + ((int32)USB_received[4] << 16) + ((int32)U
1648:AS76.c        ****         Motor_Speed_Y = ((int32)USB_received[9] << 24) + ((int32)USB_received[8] << 16) + ((int32)U
1649:AS76.c        ****         Motor_Speed_Z = ((int32)USB_received[13] << 24) + ((int32)USB_received[12] << 16) + ((int32
1650:AS76.c        ****         
1651:AS76.c        ****         Write_Debug_UART_Char("SetNoOfExecution Command Recived  \r\n");
1652:AS76.c        ****         
1653:AS76.c        ****         update_max_velocity(Motor_Speed_X, TMC5160_nCS_MotorX);        
1654:AS76.c        ****         update_max_velocity(Motor_Speed_Y, TMC5160_nCS_MotorY);        
1655:AS76.c        ****         update_max_velocity(Motor_Speed_Z, TMC5160_nCS_MotorZ);
1656:AS76.c        ****         Write_Debug_UART_Char("Value received for x,y and z is --->");
1657:AS76.c        ****         Write_Debug_UART_Int(Motor_Speed_X);
1658:AS76.c        ****         Write_Debug_UART_Char(",");
1659:AS76.c        ****         Write_Debug_UART_Int(Motor_Speed_Y);
1660:AS76.c        ****         Write_Debug_UART_Char(",");
1661:AS76.c        ****         Write_Debug_UART_Int(Motor_Speed_Z);
1662:AS76.c        ****         Write_Debug_UART_Char(",");
1663:AS76.c        ****         Send_Feedback_to_USB(Error);
1664:AS76.c        ****     }
1665:AS76.c        ****     
1666:AS76.c        ****     
1667:AS76.c        ****     else if(command == GotoZ_Vs)
1668:AS76.c        ****     {
1669:AS76.c        ****     ms_count=0;
ARM GAS  C:\Users\Revanth\AppData\Local\Temp\ccq5TJLm.s 			page 37


1670:AS76.c        ****     //wait_timer_Start();
1671:AS76.c        ****     //wait_interrupt_StartEx(wait_interrupt_Handler1); 
1672:AS76.c        ****     //print_flag =1;
1673:AS76.c        ****     //Write_Debug_UART_Char("\n\n\n\n\nGotoZ Vs \n");
1674:AS76.c        ****     //Write_Debug_UART_Char("\n***---Command Start Movement Time : ");
1675:AS76.c        ****     Write_Debug_UART_Char("..\n");
1676:AS76.c        ****     Write_Debug_UART_Int((int)(ms_count*2.5));
1677:AS76.c        ****     Write_Debug_UART_Char(" \n");
1678:AS76.c        ****     
1679:AS76.c        ****     
1680:AS76.c        ****     
1681:AS76.c        ****     
1682:AS76.c        ****     Position_Z_Requested = ((int32)USB_received[5] << 24) + ((int32)USB_received[4] << 16) + ((int3
1683:AS76.c        ****     Motor_Speed_Z = ((int32)USB_received[9] << 24) + ((int32)USB_received[8] << 16) + ((int32)USB_r
1684:AS76.c        ****     update_max_velocity(Motor_Speed_Z,TMC5160_nCS_MotorZ);
1685:AS76.c        ****      
1686:AS76.c        ****     
1687:AS76.c        ****     if((abs(Position_Z_Requested-Previous_Z_Position)) >= 500)
1688:AS76.c        ****     {
1689:AS76.c        ****     Previous_Z_Position = Position_Z_Requested;
1690:AS76.c        ****     Position_Z_Requested = (Position_Z_Requested / 16);
1691:AS76.c        ****     Position_Z_Requested = Position_Z_Requested * 51.2;
1692:AS76.c        ****     
1693:AS76.c        ****     Write_Debug_UART_Int((int)(ms_count*2.5));
1694:AS76.c        ****     Write_Debug_UART_Char(" \n");
1695:AS76.c        ****     goTo_Z(Position_Z_Requested);
1696:AS76.c        ****     }
1697:AS76.c        ****     
1698:AS76.c        ****     else
1699:AS76.c        ****     {
1700:AS76.c        ****     Previous_Z_Position = Position_Z_Requested;
1701:AS76.c        ****     Position_Z_Requested = (Position_Z_Requested / 16);
1702:AS76.c        ****     Position_Z_Requested = Position_Z_Requested * 51.2;
1703:AS76.c        ****     Write_32bitSPI_DATA (0x10  , (int) 0x00070101, TMC5160_nCS_MotorY );
1704:AS76.c        ****     Write_32bitSPI_DATA (0x10  , (int) 0x00070101, TMC5160_nCS_MotorX );
1705:AS76.c        ****     Write_32bitSPI_DATA (0x10  , (int) 0x00070202, TMC5160_nCS_MotorZ );
1706:AS76.c        ****     Position_Z_Requested =  Position_Z_Requested;
1707:AS76.c        ****     Enable_Encoder_Z(-Buffer_Z_QuadPosition);
1708:AS76.c        ****    
1709:AS76.c        ****         Error = 0;
1710:AS76.c        ****         Read_All_Optical_Encoder();       
1711:AS76.c        ****         Write_Debug_UART_Int((int)(ms_count*2.5));
1712:AS76.c        ****         Write_Debug_UART_Char(" \n");
1713:AS76.c        ****         GotoPos(Position_Z_Requested, TMC5160_nCS_MotorZ); // If provided value is position and not
1714:AS76.c        ****         WaitTillPositionReached (TMC5160_nCS_MotorZ);        
1715:AS76.c        ****         Write_Debug_UART_Int((int)(ms_count*2.5));
1716:AS76.c        ****         Write_Debug_UART_Char(" \n");
1717:AS76.c        ****         //CyDelayUs(50);        
1718:AS76.c        ****         Read_All_Optical_Encoder();
1719:AS76.c        ****         Buffer_Z_QuadPosition = Z_QuadPosition;
1720:AS76.c        ****         
1721:AS76.c        ****     }
1722:AS76.c        **** 
1723:AS76.c        ****     
1724:AS76.c        ****     
1725:AS76.c        ****     
1726:AS76.c        ****     Write_Debug_UART_Int((int)(ms_count*2.5));
ARM GAS  C:\Users\Revanth\AppData\Local\Temp\ccq5TJLm.s 			page 38


1727:AS76.c        ****     Write_Debug_UART_Char(" \n");
1728:AS76.c        ****     //wait_timer_Stop();
1729:AS76.c        ****     ms_count=0;
1730:AS76.c        ****     //CyDelayUs(10);
1731:AS76.c        ****     //update_max_velocity(53687*2, TMC5160_nCS_MotorZ);
1732:AS76.c        ****     
1733:AS76.c        ****     Send_Feedback_to_USB(Error);
1734:AS76.c        ****     //print_flag =0;
1735:AS76.c        ****     }
1736:AS76.c        ****     
1737:AS76.c        ****     else if(command == GotoO_Vs)
1738:AS76.c        ****     {        
1739:AS76.c        ****     time_ms   = ((int32)USB_received[5] << 24) + ((int32)USB_received[4] << 16) + ((int32)USB_recei
1740:AS76.c        ****     oil_speed = ((int32)USB_received[9] << 24) + ((int32)USB_received[8] << 16) + ((int32)USB_recei
1741:AS76.c        ****     oil_dir   = USB_received[10];
1742:AS76.c        ****     run_pumpvs (time_ms, oil_speed, oil_dir);
1743:AS76.c        ****     Error = 0;
1744:AS76.c        ****     Send_Feedback_to_USB(Error);
1745:AS76.c        ****     }
1746:AS76.c        ****     
1747:AS76.c        ****     else if (command == GotoXYZ_Vs)
1748:AS76.c        ****     {
1749:AS76.c        ****         Position_X_Requested = ((int32)USB_received[5] << 24) + ((int32)USB_received[4] << 16) + ((
1750:AS76.c        ****         Position_Y_Requested = ((int32)USB_received[9] << 24) + ((int32)USB_received[8] << 16) + ((
1751:AS76.c        ****         Position_Z_Requested = ((int32)USB_received[13] << 24) + ((int32)USB_received[12] << 16) + 
1752:AS76.c        ****         Input_Position_X_Temp = Position_X_Requested;
1753:AS76.c        ****         
1754:AS76.c        ****         Motor_Speed_X = ((int32)USB_received[17] << 24) + ((int32)USB_received[16] << 16) + ((int32
1755:AS76.c        ****         Motor_Speed_Y = ((int32)USB_received[21] << 24) + ((int32)USB_received[20] << 16) + ((int32
1756:AS76.c        ****         Motor_Speed_Z = ((int32)USB_received[25] << 24) + ((int32)USB_received[24] << 16) + ((int32
1757:AS76.c        ****         
1758:AS76.c        ****         CyDelayUs(10);
1759:AS76.c        ****         
1760:AS76.c        ****         update_max_velocity(Motor_Speed_X, TMC5160_nCS_MotorX);        
1761:AS76.c        ****         update_max_velocity(Motor_Speed_Y, TMC5160_nCS_MotorY);        
1762:AS76.c        ****         update_max_velocity(Motor_Speed_Z, TMC5160_nCS_MotorZ);
1763:AS76.c        ****         
1764:AS76.c        ****         Position_X_Requested = (Position_X_Requested / 4);
1765:AS76.c        ****         Position_X_Requested = Position_X_Requested * 12.8;
1766:AS76.c        ****         
1767:AS76.c        ****         Position_Y_Requested = (Position_Y_Requested / 4);
1768:AS76.c        ****         Position_Y_Requested = Position_Y_Requested * 12.8;
1769:AS76.c        ****         
1770:AS76.c        ****         Position_Z_Requested = (Position_Z_Requested / 16);
1771:AS76.c        ****         Position_Z_Requested = Position_Z_Requested * 51.2;
1772:AS76.c        ****         
1773:AS76.c        ****         CyDelayUs(100);
1774:AS76.c        ****         
1775:AS76.c        ****         Error = goTo_XYZ(Position_X_Requested, Position_Y_Requested, Position_Z_Requested);
1776:AS76.c        ****         CyDelay(100);
1777:AS76.c        ****         Send_Feedback_to_USB(Error);
1778:AS76.c        ****     }
1779:AS76.c        ****     else if (command == SetNoOfExecution)
1780:AS76.c        ****     {
1781:AS76.c        ****         //set_no_of_execution();
1782:AS76.c        ****         
1783:AS76.c        ****         Send_Feedback_to_USB(Error);   
ARM GAS  C:\Users\Revanth\AppData\Local\Temp\ccq5TJLm.s 			page 39


1784:AS76.c        ****     }
1785:AS76.c        ****     else if (command == Get_Status)                          
1786:AS76.c        ****     {
1787:AS76.c        ****         LED3_Write(0xFF);
1788:AS76.c        ****         Write_Debug_UART_Char("Get Status Command Recived  \r\n");
1789:AS76.c        ****         CyDelay(10);
1790:AS76.c        ****         Send_Feedback_to_USB(0);
1791:AS76.c        ****         LED3_Write(0x00);
1792:AS76.c        ****     }
1793:AS76.c        ****      else if (command == Strip_LED)                          
1794:AS76.c        ****     {
1795:AS76.c        ****         uint8_t Pattern=0;
1796:AS76.c        ****         uint8_t R1=0;
1797:AS76.c        ****         uint8_t G1=0;
1798:AS76.c        ****         uint8_t B1=0;
1799:AS76.c        ****         uint8_t MB1=0;
1800:AS76.c        ****         
1801:AS76.c        ****         uint8_t R2=0;
1802:AS76.c        ****         uint8_t G2=0;
1803:AS76.c        ****         uint8_t B2=0;
1804:AS76.c        ****         uint8_t MB2=0;
1805:AS76.c        ****         
1806:AS76.c        ****         uint8_t R3=0;
1807:AS76.c        ****         uint8_t G3=0;
1808:AS76.c        ****         uint8_t B3=0;
1809:AS76.c        ****         uint8_t MB3=0;
1810:AS76.c        ****         
1811:AS76.c        ****         uint8_t R4=0;
1812:AS76.c        ****         uint8_t G4=0;
1813:AS76.c        ****         uint8_t B4=0;
1814:AS76.c        ****         uint8_t MB4=0;
1815:AS76.c        ****         
1816:AS76.c        ****         uint8_t R5=0;
1817:AS76.c        ****         uint8_t G5=0;
1818:AS76.c        ****         uint8_t B5=0;
1819:AS76.c        ****         uint8_t MB5=0;
1820:AS76.c        ****         
1821:AS76.c        ****         uint8_t R6=0;
1822:AS76.c        ****         uint8_t G6=0;
1823:AS76.c        ****         uint8_t B6=0;
1824:AS76.c        ****         uint8_t MB6=0;
1825:AS76.c        ****         
1826:AS76.c        ****         Pattern            = USB_received[2];
1827:AS76.c        ****         
1828:AS76.c        ****         R1      = USB_received[3];
1829:AS76.c        ****         G1      = USB_received[4];
1830:AS76.c        ****         B1      = USB_received[5];
1831:AS76.c        ****         MB1     = USB_received[6];
1832:AS76.c        ****         
1833:AS76.c        ****         R2      = USB_received[7];
1834:AS76.c        ****         G2      = USB_received[8];
1835:AS76.c        ****         B2      = USB_received[9];
1836:AS76.c        ****         MB2     = USB_received[10];
1837:AS76.c        ****         
1838:AS76.c        ****         R3      = USB_received[11];
1839:AS76.c        ****         G3      = USB_received[12];
1840:AS76.c        ****         B3      = USB_received[13];
ARM GAS  C:\Users\Revanth\AppData\Local\Temp\ccq5TJLm.s 			page 40


1841:AS76.c        ****         MB3     = USB_received[14];
1842:AS76.c        ****         
1843:AS76.c        ****         R4      = USB_received[15];
1844:AS76.c        ****         G4      = USB_received[16];
1845:AS76.c        ****         B4      = USB_received[17];
1846:AS76.c        ****         MB4     = USB_received[18];
1847:AS76.c        ****         
1848:AS76.c        ****         R5      = USB_received[19];
1849:AS76.c        ****         G5      = USB_received[20];
1850:AS76.c        ****         B5      = USB_received[21];
1851:AS76.c        ****         MB5     = USB_received[22];
1852:AS76.c        ****         
1853:AS76.c        ****         R6      = USB_received[23];
1854:AS76.c        ****         G6      = USB_received[24];
1855:AS76.c        ****         B6      = USB_received[25];
1856:AS76.c        ****         MB6     = USB_received[26];
1857:AS76.c        ****         
1858:AS76.c        ****         
1859:AS76.c        ****         BF22(R1,G1,B1,MB1,R2,G2,B2,MB2,R3,G3,B3,MB3,R4,G4,B4,MB4,R5,G5,B5,MB5,R6,G6,B6,MB6);
1860:AS76.c        ****        // Ring(Pattern,Red_Intensity,Green_Intensity,Blue_Intensity,Strip_Brightness);
1861:AS76.c        ****         Send_Feedback_to_USB(0);
1862:AS76.c        ****     }
1863:AS76.c        ****     
1864:AS76.c        ****     
1865:AS76.c        ****     else
1866:AS76.c        ****     {
1867:AS76.c        ****         Error = 19;//Wrong_Command_Received
1868:AS76.c        ****         Write_Debug_UART_Char("Wrong Command Received*********** \r\n");
1869:AS76.c        ****         UART_print_all_values();
1870:AS76.c        ****         Send_Feedback_to_USB(19);
1871:AS76.c        ****     }
1872:AS76.c        ****     //Pin_USB_RX_TX_Indicator_LED_Write(0);/* turn OFF LED as a indicator to stop process the comma
1873:AS76.c        **** }
1874:AS76.c        **** void Send_Feedback_to_USB(int Error)//Send Feedback to USB if USB command executed correctely 
1875:AS76.c        **** {
1876:AS76.c        ****      Read_All_Optical_Encoder();
1877:AS76.c        **** 
1878:AS76.c        ****     
1879:AS76.c        ****     
1880:AS76.c        ****         if(Error == 0)
1881:AS76.c        ****         {            
1882:AS76.c        ****             USB_transmit[0] = command;
1883:AS76.c        ****             USB_transmit[1] = (command >> 8);
1884:AS76.c        ****             USB_transmit[2] = No_Error;
1885:AS76.c        ****             USB_transmit[3] = No_Error >> 8;
1886:AS76.c        ****             //Write_Debug_UART_Char("\nCommand Sent :");
1887:AS76.c        ****             //Write_Debug_UART_Int(USB_transmit[0]);
1888:AS76.c        ****             //Write_Debug_UART_Int(USB_transmit[1]);
1889:AS76.c        ****             
1890:AS76.c        ****             //command =0;
1891:AS76.c        ****         }
1892:AS76.c        ****         else
1893:AS76.c        ****         {
1894:AS76.c        ****             USB_transmit[0] = command;
1895:AS76.c        ****             USB_transmit[1] = (command >> 8);
1896:AS76.c        ****             //Write_Debug_UART_Char("\nCommand Sent :");
1897:AS76.c        ****             //Write_Debug_UART_Int(USB_transmit[0]);
ARM GAS  C:\Users\Revanth\AppData\Local\Temp\ccq5TJLm.s 			page 41


1898:AS76.c        ****             //Write_Debug_UART_Int(USB_transmit[1]);
1899:AS76.c        ****             //command=0;
1900:AS76.c        ****             switch(Error)
1901:AS76.c        ****             {
1902:AS76.c        ****                 case 1:
1903:AS76.c        ****                 {
1904:AS76.c        ****                     USB_transmit[2] = X_Motor_Not_Working;
1905:AS76.c        ****                     USB_transmit[3] = X_Motor_Not_Working >> 8; 
1906:AS76.c        ****                     break;
1907:AS76.c        ****                 }
1908:AS76.c        ****                 case 2:
1909:AS76.c        ****                 {
1910:AS76.c        ****                     USB_transmit[2] = X_Encoder_Not_Working;
1911:AS76.c        ****                     USB_transmit[3] = X_Encoder_Not_Working >> 8; 
1912:AS76.c        ****                     break;
1913:AS76.c        ****                 }
1914:AS76.c        ****                 case 3:
1915:AS76.c        ****                 {
1916:AS76.c        ****                     USB_transmit[2] = X_Switch_Not_Working;
1917:AS76.c        ****                     USB_transmit[3] = X_Switch_Not_Working >> 8; 
1918:AS76.c        ****                     break;
1919:AS76.c        ****                 }
1920:AS76.c        ****                 case 4:
1921:AS76.c        ****                 {
1922:AS76.c        ****                     USB_transmit[2] = X_Motor_Driver_Fault;
1923:AS76.c        ****                     USB_transmit[3] = X_Motor_Driver_Fault >> 8; 
1924:AS76.c        ****                     break;
1925:AS76.c        ****                 }
1926:AS76.c        ****                 case 5:
1927:AS76.c        ****                 {
1928:AS76.c        ****                     USB_transmit[2] = Requested_X_Step_Exceeding_The_Limit;
1929:AS76.c        ****                     USB_transmit[3] = Requested_X_Step_Exceeding_The_Limit >> 8; 
1930:AS76.c        ****                     break;
1931:AS76.c        ****                 }
1932:AS76.c        ****                 case 6:
1933:AS76.c        ****                 {
1934:AS76.c        ****                     USB_transmit[2] = X_Homing_Not_Done_Yet;
1935:AS76.c        ****                     USB_transmit[3] = X_Homing_Not_Done_Yet >> 8; 
1936:AS76.c        ****                     break;
1937:AS76.c        ****                 }
1938:AS76.c        ****                 case 7:
1939:AS76.c        ****                 {
1940:AS76.c        ****                     USB_transmit[2] = X_Motor_Busy ;
1941:AS76.c        ****                     USB_transmit[3] = X_Motor_Busy >> 8; 
1942:AS76.c        ****                     break;
1943:AS76.c        ****                 }
1944:AS76.c        ****                 case 8:
1945:AS76.c        ****                 {
1946:AS76.c        ****                     USB_transmit[2] = Y_Motor_Not_Working;
1947:AS76.c        ****                     USB_transmit[3] = Y_Motor_Not_Working >> 8; 
1948:AS76.c        ****                     break;
1949:AS76.c        ****                 }
1950:AS76.c        ****                 case 9:
1951:AS76.c        ****                 {
1952:AS76.c        ****                     USB_transmit[2] = Y_Encoder_Not_Working;
1953:AS76.c        ****                     USB_transmit[3] = Y_Encoder_Not_Working >> 8; 
1954:AS76.c        ****                     break;
ARM GAS  C:\Users\Revanth\AppData\Local\Temp\ccq5TJLm.s 			page 42


1955:AS76.c        ****                 }
1956:AS76.c        ****                 case 10:
1957:AS76.c        ****                 {
1958:AS76.c        ****                     USB_transmit[2] = Y_Switch_Not_Working;
1959:AS76.c        ****                     USB_transmit[3] = Y_Switch_Not_Working >> 8; 
1960:AS76.c        ****                     break;
1961:AS76.c        ****                 }
1962:AS76.c        ****                 case 11:
1963:AS76.c        ****                 {
1964:AS76.c        ****                     USB_transmit[2] = Y_Motor_Driver_Fault;
1965:AS76.c        ****                     USB_transmit[3] = Y_Motor_Driver_Fault >> 8; 
1966:AS76.c        ****                     break;
1967:AS76.c        ****                 }
1968:AS76.c        ****                 case 12:
1969:AS76.c        ****                 {
1970:AS76.c        ****                     USB_transmit[2] = Requested_Y_Step_Exceeding_The_Limit;
1971:AS76.c        ****                     USB_transmit[3] = Requested_Y_Step_Exceeding_The_Limit >> 8; 
1972:AS76.c        ****                     break;
1973:AS76.c        ****                 }
1974:AS76.c        ****                 case 13:
1975:AS76.c        ****                 {
1976:AS76.c        ****                     USB_transmit[2] = Y_Homing_Not_Done_Yet;
1977:AS76.c        ****                     USB_transmit[3] = Y_Homing_Not_Done_Yet >> 8; 
1978:AS76.c        ****                     break;
1979:AS76.c        ****                 }
1980:AS76.c        ****                 case 14:
1981:AS76.c        ****                 {
1982:AS76.c        ****                     USB_transmit[2] = Y_Motor_Busy;
1983:AS76.c        ****                     USB_transmit[3] = Y_Motor_Busy >> 8; 
1984:AS76.c        ****                     break;
1985:AS76.c        ****                 }
1986:AS76.c        ****                 case 15:
1987:AS76.c        ****                 {
1988:AS76.c        ****                     USB_transmit[2] = Z_Motor_Not_Working ;
1989:AS76.c        ****                     USB_transmit[3] = Z_Motor_Not_Working >> 8; 
1990:AS76.c        ****                     break;
1991:AS76.c        ****                 }
1992:AS76.c        ****                 case 16:
1993:AS76.c        ****                 {
1994:AS76.c        ****                     USB_transmit[2] = Z_Encoder_Not_Working ;
1995:AS76.c        ****                     USB_transmit[3] = Z_Encoder_Not_Working >> 8; 
1996:AS76.c        ****                     break;
1997:AS76.c        ****                 }
1998:AS76.c        ****                 case 17:
1999:AS76.c        ****                 {
2000:AS76.c        ****                     USB_transmit[2] = Z_Switch_Not_Working;
2001:AS76.c        ****                     USB_transmit[3] = Z_Switch_Not_Working >> 8; 
2002:AS76.c        ****                     break;
2003:AS76.c        ****                 }
2004:AS76.c        ****                 case 18:
2005:AS76.c        ****                 {
2006:AS76.c        ****                     USB_transmit[2] = Z_Motor_Driver_Fault;
2007:AS76.c        ****                     USB_transmit[3] = Z_Motor_Driver_Fault >> 8; 
2008:AS76.c        ****                     break;
2009:AS76.c        ****                 }
2010:AS76.c        ****                 case 19:
2011:AS76.c        ****                 {
ARM GAS  C:\Users\Revanth\AppData\Local\Temp\ccq5TJLm.s 			page 43


2012:AS76.c        ****                     USB_transmit[2] = Requested_Z_Step_Exceeding_The_Limit;
2013:AS76.c        ****                     USB_transmit[3] = Requested_Z_Step_Exceeding_The_Limit >> 8; 
2014:AS76.c        ****                     break;
2015:AS76.c        ****                 }
2016:AS76.c        ****                 case 20:
2017:AS76.c        ****                 {
2018:AS76.c        ****                     USB_transmit[2] = Z_Homing_Not_Done_Yet;
2019:AS76.c        ****                     USB_transmit[3] = Z_Homing_Not_Done_Yet >> 8; 
2020:AS76.c        ****                     break;
2021:AS76.c        ****                 }
2022:AS76.c        ****                 case 21:
2023:AS76.c        ****                 {
2024:AS76.c        ****                     USB_transmit[2] = Z_Motor_Busy;
2025:AS76.c        ****                     USB_transmit[3] = Z_Motor_Busy >> 8; 
2026:AS76.c        ****                     break;
2027:AS76.c        ****                 }
2028:AS76.c        ****                 case 22:
2029:AS76.c        ****                 {
2030:AS76.c        ****                     USB_transmit[2] = T_Motor_Not_Working;
2031:AS76.c        ****                     USB_transmit[3] =  T_Motor_Not_Working>> 8; 
2032:AS76.c        ****                     break;
2033:AS76.c        ****                 }
2034:AS76.c        ****                 case 23:
2035:AS76.c        ****                 {
2036:AS76.c        ****                     USB_transmit[2] = T_Encoder_Not_Working;
2037:AS76.c        ****                     USB_transmit[3] =  T_Encoder_Not_Working>> 8; 
2038:AS76.c        ****                     break;
2039:AS76.c        ****                 }
2040:AS76.c        ****                 case 24:
2041:AS76.c        ****                 {
2042:AS76.c        ****                     USB_transmit[2] = T_Switch_Not_Working;
2043:AS76.c        ****                     USB_transmit[3] =  T_Switch_Not_Working>> 8; 
2044:AS76.c        ****                     break;
2045:AS76.c        ****                 }
2046:AS76.c        ****                 
2047:AS76.c        ****                 case 25:
2048:AS76.c        ****                 {
2049:AS76.c        ****                     USB_transmit[2] = T_Motor_Driver_Fault;
2050:AS76.c        ****                     USB_transmit[3] =  T_Motor_Driver_Fault>> 8; 
2051:AS76.c        ****                     break;
2052:AS76.c        ****                 }
2053:AS76.c        ****                 case 26:
2054:AS76.c        ****                 {
2055:AS76.c        ****                     USB_transmit[2] = Requested_T_Step_Exceeding_The_Limit;
2056:AS76.c        ****                     USB_transmit[3] =  Requested_T_Step_Exceeding_The_Limit>> 8; 
2057:AS76.c        ****                     break;
2058:AS76.c        ****                 }
2059:AS76.c        ****                 case 27:
2060:AS76.c        ****                 {
2061:AS76.c        ****                     USB_transmit[2] = T_Homing_Not_Done_Yet;
2062:AS76.c        ****                     USB_transmit[3] =  T_Homing_Not_Done_Yet>> 8; 
2063:AS76.c        ****                     break;
2064:AS76.c        ****                 }
2065:AS76.c        ****                 case 28:
2066:AS76.c        ****                 {
2067:AS76.c        ****                     USB_transmit[2] = T_Motor_Busy;
2068:AS76.c        ****                     USB_transmit[3] = T_Motor_Busy >> 8; 
ARM GAS  C:\Users\Revanth\AppData\Local\Temp\ccq5TJLm.s 			page 44


2069:AS76.c        ****                     break;
2070:AS76.c        ****                 }
2071:AS76.c        ****                 case 29:
2072:AS76.c        ****                 {
2073:AS76.c        ****                     USB_transmit[2] = Wrong_Command_Received;
2074:AS76.c        ****                     USB_transmit[3] = Wrong_Command_Received >> 8; 
2075:AS76.c        ****                     break;
2076:AS76.c        ****                 }
2077:AS76.c        ****                 case 30:
2078:AS76.c        ****                 {
2079:AS76.c        ****                     USB_transmit[2] = PCB_Paused;
2080:AS76.c        ****                     USB_transmit[3] = PCB_Paused >> 8; 
2081:AS76.c        ****                     break;
2082:AS76.c        ****                 }
2083:AS76.c        ****                 case 31:
2084:AS76.c        ****                 {
2085:AS76.c        ****                     USB_transmit[2] = PCB_Busy;
2086:AS76.c        ****                     USB_transmit[3] = PCB_Busy >> 8; 
2087:AS76.c        ****                     break;
2088:AS76.c        ****                 }
2089:AS76.c        ****                 case 32:
2090:AS76.c        ****                 {
2091:AS76.c        ****                     USB_transmit[2] = All_Motors_Homing_Not_Done;
2092:AS76.c        ****                     USB_transmit[3] = All_Motors_Homing_Not_Done >> 8; 
2093:AS76.c        ****                     break;
2094:AS76.c        ****                 }
2095:AS76.c        ****                 
2096:AS76.c        ****                 case 33:
2097:AS76.c        ****                 {
2098:AS76.c        ****                     USB_transmit[2] = O_Motor_Not_Working;
2099:AS76.c        ****                     USB_transmit[3] = O_Motor_Not_Working >> 8; 
2100:AS76.c        ****                     break;
2101:AS76.c        ****                 }
2102:AS76.c        ****             }
2103:AS76.c        ****         }
2104:AS76.c        ****         
2105:AS76.c        ****         X_QuadPosition = (X_QuadPosition * 4);
2106:AS76.c        ****         Y_QuadPosition = (Y_QuadPosition * 4);  
2107:AS76.c        ****         Z_QuadPosition = (Z_QuadPosition ); 
2108:AS76.c        ****         T_QuadPosition = (int)(T_QuadPosition * 3.2); 
2109:AS76.c        ****         USB_transmit[4] = (X_QuadPosition);
2110:AS76.c        ****         USB_transmit[5] = (X_QuadPosition) >> 8;
2111:AS76.c        ****         USB_transmit[6] = (X_QuadPosition) >> 16;
2112:AS76.c        ****         USB_transmit[7] = (X_QuadPosition) >> 24;
2113:AS76.c        ****         USB_transmit[8] = (Y_QuadPosition);
2114:AS76.c        ****         USB_transmit[9] = (Y_QuadPosition) >> 8;
2115:AS76.c        ****         USB_transmit[10] =(Y_QuadPosition) >> 16;
2116:AS76.c        ****         USB_transmit[11] =(Y_QuadPosition) >> 24;
2117:AS76.c        ****         USB_transmit[12] = Z_QuadPosition;
2118:AS76.c        ****         USB_transmit[13] = Z_QuadPosition >> 8;
2119:AS76.c        ****         USB_transmit[14] = Z_QuadPosition >> 16;
2120:AS76.c        ****         USB_transmit[15] = Z_QuadPosition >> 24;
2121:AS76.c        ****         USB_transmit[16] = T_QuadPosition;
2122:AS76.c        ****         USB_transmit[17] = T_QuadPosition >> 8;
2123:AS76.c        ****         USB_transmit[18] = T_QuadPosition >> 16;
2124:AS76.c        ****         USB_transmit[19] = T_QuadPosition >> 24;
2125:AS76.c        ****         USB_transmit[20] = PWM_Condenser_comare_value;
ARM GAS  C:\Users\Revanth\AppData\Local\Temp\ccq5TJLm.s 			page 45


2126:AS76.c        ****         USB_transmit[21] = PWM_Condenser_comare_value >> 8;
2127:AS76.c        ****         USB_transmit[22] = 0;
2128:AS76.c        ****         USB_transmit[23] = 0;
2129:AS76.c        ****         USB_transmit[24] = 0;
2130:AS76.c        ****         USB_transmit[25] = 0;
2131:AS76.c        ****         USB_transmit[26] = 0;
2132:AS76.c        ****         USB_transmit[27] = 0;
2133:AS76.c        ****         USB_transmit[28] = Motor_Speed_X;
2134:AS76.c        ****         USB_transmit[29] = Motor_Speed_X >> 8;
2135:AS76.c        ****         USB_transmit[30] = Motor_Speed_Y;
2136:AS76.c        ****         USB_transmit[31] = Motor_Speed_Y >> 8;
2137:AS76.c        ****         USB_transmit[32] = Motor_Speed_Z;
2138:AS76.c        ****         USB_transmit[33] = Motor_Speed_Z >> 8;
2139:AS76.c        ****         USB_transmit[34] = 0x00;
2140:AS76.c        ****         USB_transmit[35] = 0x00 >> 8;
2141:AS76.c        ****         USB_transmit[36] = 0x00;
2142:AS76.c        ****         USB_transmit[37] = 0x00;
2143:AS76.c        ****         USB_transmit[38] = 0x00;
2144:AS76.c        ****         USB_transmit[39] = Firmware_Version;
2145:AS76.c        ****         USB_transmit[40] = 0;
2146:AS76.c        ****         USB_transmit[41] = 0;
2147:AS76.c        ****         USB_transmit[42] = 0;
2148:AS76.c        ****         USB_transmit[43] = 0;
2149:AS76.c        ****         USB_transmit[44] = 0;
2150:AS76.c        ****         USB_transmit[45] = 0;
2151:AS76.c        ****         
2152:AS76.c        ****         
2153:AS76.c        ****         
2154:AS76.c        ****         
2155:AS76.c        ****         
2156:AS76.c        ****         Write_Debug_UART_Char("\nFeedback Sent to Motherboard  \r\n");
2157:AS76.c        ****         USB_PutData(USB_transmit, 46);  //send data back to usb
2158:AS76.c        ****     
2159:AS76.c        **** }
2160:AS76.c        **** void USB_Detect_Indication_Via_LED()/* LED Indicator for USB detection. */
2161:AS76.c        **** {
 374              		.loc 1 2161 0
 375              		.cfi_startproc
 376              		@ args = 0, pretend = 0, frame = 0
 377              		@ frame_needed = 0, uses_anonymous_args = 0
 378              		@ link register save eliminated.
 379 0000 7047     		bx	lr
 380              		.cfi_endproc
 381              	.LFE94:
 382              		.size	USB_Detect_Indication_Via_LED, .-USB_Detect_Indication_Via_LED
 383 0002 00BF     		.section	.text.Clear_USB_RX_Buffer,"ax",%progbits
 384              		.align	2
 385              		.global	Clear_USB_RX_Buffer
 386              		.thumb
 387              		.thumb_func
 388              		.type	Clear_USB_RX_Buffer, %function
 389              	Clear_USB_RX_Buffer:
 390              	.LFB97:
2162:AS76.c        **** 
2163:AS76.c        **** }
2164:AS76.c        **** void Initialize_USB()/* Start the USB. */
2165:AS76.c        **** {
ARM GAS  C:\Users\Revanth\AppData\Local\Temp\ccq5TJLm.s 			page 46


2166:AS76.c        ****     USB_Start(0, USB_5V_OPERATION);   
2167:AS76.c        ****     while (0 == USB_GetConfiguration()) /* wait untill USB not found. */
2168:AS76.c        ****     {
2169:AS76.c        ****         Write_Debug_UART_Char("USB not Connected***********  \r\n");
2170:AS76.c        ****         CyDelayUs(1);
2171:AS76.c        ****     }
2172:AS76.c        ****     USB_CDC_Init();
2173:AS76.c        ****     Write_Debug_UART_Char("USB Connected  \r\n");
2174:AS76.c        ****     USB_EnableSofInt();  
2175:AS76.c        **** }
2176:AS76.c        **** void Is_USB_Unpluged()/* Check for changes in USB port reset if USB changes. */
2177:AS76.c        **** {
2178:AS76.c        ****    static bool dont_Execute_1st_Time=false;
2179:AS76.c        ****    if(USB_IsConfigurationChanged() != 0)
2180:AS76.c        ****    {
2181:AS76.c        ****     Beep_Twice();
2182:AS76.c        ****        if(USB_GetConfiguration() != 0)
2183:AS76.c        ****        {
2184:AS76.c        ****             if(dont_Execute_1st_Time)/* Ignore for the first time. */
2185:AS76.c        ****             {
2186:AS76.c        ****                 Write_Debug_UART_Char("USB Unpluged PCB resetting ***********  \r\n");
2187:AS76.c        ****                 UART_print_all_values();
2188:AS76.c        ****                 CyDelay(1);
2189:AS76.c        ****                 CySoftwareReset();
2190:AS76.c        ****             }
2191:AS76.c        ****             dont_Execute_1st_Time = true;
2192:AS76.c        ****        }
2193:AS76.c        ****    }  
2194:AS76.c        **** }
2195:AS76.c        **** void Clear_USB_RX_Buffer()/* Initialize all USB_received 64 bits to 0. */
2196:AS76.c        **** {
 391              		.loc 1 2196 0
 392              		.cfi_startproc
 393              		@ args = 0, pretend = 0, frame = 0
 394              		@ frame_needed = 0, uses_anonymous_args = 0
 395              		@ link register save eliminated.
 396              	.LVL29:
2197:AS76.c        ****     int i =0;
2198:AS76.c        ****     for(i=0;i<65;i++)   //Initializing all bites to 0
 397              		.loc 1 2198 0
 398 0000 0023     		movs	r3, #0
 399 0002 03E0     		b	.L34
 400              	.LVL30:
 401              	.L35:
2199:AS76.c        ****         USB_received[i] = 0;   
 402              		.loc 1 2199 0 discriminator 3
 403 0004 0021     		movs	r1, #0
 404 0006 034A     		ldr	r2, .L36
 405 0008 D154     		strb	r1, [r2, r3]
2198:AS76.c        ****         USB_received[i] = 0;   
 406              		.loc 1 2198 0 discriminator 3
 407 000a 0133     		adds	r3, r3, #1
 408              	.LVL31:
 409              	.L34:
2198:AS76.c        ****         USB_received[i] = 0;   
 410              		.loc 1 2198 0 is_stmt 0 discriminator 1
 411 000c 402B     		cmp	r3, #64
ARM GAS  C:\Users\Revanth\AppData\Local\Temp\ccq5TJLm.s 			page 47


 412 000e F9DD     		ble	.L35
2200:AS76.c        **** }
 413              		.loc 1 2200 0 is_stmt 1
 414 0010 7047     		bx	lr
 415              	.L37:
 416 0012 00BF     		.align	2
 417              	.L36:
 418 0014 00000000 		.word	USB_received
 419              		.cfi_endproc
 420              	.LFE97:
 421              		.size	Clear_USB_RX_Buffer, .-Clear_USB_RX_Buffer
 422              		.section	.text.Clear_Pending_USB_Data,"ax",%progbits
 423              		.align	2
 424              		.global	Clear_Pending_USB_Data
 425              		.thumb
 426              		.thumb_func
 427              		.type	Clear_Pending_USB_Data, %function
 428              	Clear_Pending_USB_Data:
 429              	.LFB98:
2201:AS76.c        **** void Clear_Pending_USB_Data()/* Clear all pending data on usb RX buffer. */
2202:AS76.c        **** {
 430              		.loc 1 2202 0
 431              		.cfi_startproc
 432              		@ args = 0, pretend = 0, frame = 64
 433              		@ frame_needed = 0, uses_anonymous_args = 0
 434 0000 10B5     		push	{r4, lr}
 435              		.cfi_def_cfa_offset 8
 436              		.cfi_offset 4, -8
 437              		.cfi_offset 14, -4
 438 0002 90B0     		sub	sp, sp, #64
 439              		.cfi_def_cfa_offset 72
 440              	.LVL32:
2203:AS76.c        ****     int i;
2204:AS76.c        ****     uint8 USB_received_temp[64];
2205:AS76.c        ****     for(i=0;i<5;i++)
 441              		.loc 1 2205 0
 442 0004 0024     		movs	r4, #0
 443 0006 03E0     		b	.L39
 444              	.LVL33:
 445              	.L40:
2206:AS76.c        ****         {       
2207:AS76.c        ****             USB_GetAll(USB_received_temp);/* read and clear all Pending data. */
 446              		.loc 1 2207 0 discriminator 3
 447 0008 6846     		mov	r0, sp
 448 000a FFF7FEFF 		bl	USB_GetAll
 449              	.LVL34:
2205:AS76.c        ****         {       
 450              		.loc 1 2205 0 discriminator 3
 451 000e 0134     		adds	r4, r4, #1
 452              	.LVL35:
 453              	.L39:
2205:AS76.c        ****         {       
 454              		.loc 1 2205 0 is_stmt 0 discriminator 1
 455 0010 042C     		cmp	r4, #4
 456 0012 F9DD     		ble	.L40
2208:AS76.c        ****         }    
2209:AS76.c        **** }
ARM GAS  C:\Users\Revanth\AppData\Local\Temp\ccq5TJLm.s 			page 48


 457              		.loc 1 2209 0 is_stmt 1
 458 0014 10B0     		add	sp, sp, #64
 459              		.cfi_def_cfa_offset 8
 460              		@ sp needed
 461 0016 10BD     		pop	{r4, pc}
 462              		.cfi_endproc
 463              	.LFE98:
 464              		.size	Clear_Pending_USB_Data, .-Clear_Pending_USB_Data
 465              		.section	.text.Write_Debug_UART_Char,"ax",%progbits
 466              		.align	2
 467              		.global	Write_Debug_UART_Char
 468              		.thumb
 469              		.thumb_func
 470              		.type	Write_Debug_UART_Char, %function
 471              	Write_Debug_UART_Char:
 472              	.LFB99:
2210:AS76.c        **** void Write_Debug_UART_Char(char Str[])
2211:AS76.c        **** {
 473              		.loc 1 2211 0
 474              		.cfi_startproc
 475              		@ args = 0, pretend = 0, frame = 0
 476              		@ frame_needed = 0, uses_anonymous_args = 0
 477              	.LVL36:
2212:AS76.c        ****     if(print_flag ==1)
 478              		.loc 1 2212 0
 479 0000 0C4B     		ldr	r3, .L46
 480 0002 93F82030 		ldrb	r3, [r3, #32]	@ zero_extendqisi2
 481 0006 9BB1     		cbz	r3, .L45
2211:AS76.c        ****     if(print_flag ==1)
 482              		.loc 1 2211 0
 483 0008 10B5     		push	{r4, lr}
 484              		.cfi_def_cfa_offset 8
 485              		.cfi_offset 4, -8
 486              		.cfi_offset 14, -4
 487 000a 0446     		mov	r4, r0
 488              	.LBB2:
2213:AS76.c        ****     {
2214:AS76.c        ****         static char Str_Last_One[] = "ShonitV2.2\r\n";
2215:AS76.c        ****         if((strncmp(Str_Last_One, Str, 10)!=0))
 489              		.loc 1 2215 0
 490 000c 0A22     		movs	r2, #10
 491 000e 0146     		mov	r1, r0
 492 0010 0948     		ldr	r0, .L46+4
 493              	.LVL37:
 494 0012 FFF7FEFF 		bl	strncmp
 495              	.LVL38:
 496 0016 50B1     		cbz	r0, .L42
2216:AS76.c        ****     	{
2217:AS76.c        ****             UART_PCB_LOG_PutString(Str);
 497              		.loc 1 2217 0
 498 0018 2046     		mov	r0, r4
 499 001a FFF7FEFF 		bl	UART_PCB_LOG_PutString
 500              	.LVL39:
2218:AS76.c        ****             CyDelayUs(1);
 501              		.loc 1 2218 0
 502 001e 0120     		movs	r0, #1
 503 0020 FFF7FEFF 		bl	CyDelayUs
ARM GAS  C:\Users\Revanth\AppData\Local\Temp\ccq5TJLm.s 			page 49


 504              	.LVL40:
2219:AS76.c        ****             strncpy(Str_Last_One, Str, 10); 
 505              		.loc 1 2219 0
 506 0024 0A22     		movs	r2, #10
 507 0026 2146     		mov	r1, r4
 508 0028 0348     		ldr	r0, .L46+4
 509 002a FFF7FEFF 		bl	strncpy
 510              	.LVL41:
 511              	.L42:
 512 002e 10BD     		pop	{r4, pc}
 513              	.LVL42:
 514              	.L45:
 515              		.cfi_def_cfa_offset 0
 516              		.cfi_restore 4
 517              		.cfi_restore 14
 518 0030 7047     		bx	lr
 519              	.L47:
 520 0032 00BF     		.align	2
 521              	.L46:
 522 0034 00000000 		.word	.LANCHOR0
 523 0038 04000000 		.word	.LANCHOR1+4
 524              	.LBE2:
 525              		.cfi_endproc
 526              	.LFE99:
 527              		.size	Write_Debug_UART_Char, .-Write_Debug_UART_Char
 528              		.section	.text.Beep_Once,"ax",%progbits
 529              		.align	2
 530              		.global	Beep_Once
 531              		.thumb
 532              		.thumb_func
 533              		.type	Beep_Once, %function
 534              	Beep_Once:
 535              	.LFB84:
1220:AS76.c        ****     PWM_Buzzer_WriteCompare(2500);
 536              		.loc 1 1220 0
 537              		.cfi_startproc
 538              		@ args = 0, pretend = 0, frame = 0
 539              		@ frame_needed = 0, uses_anonymous_args = 0
 540 0000 08B5     		push	{r3, lr}
 541              		.cfi_def_cfa_offset 8
 542              		.cfi_offset 3, -8
 543              		.cfi_offset 14, -4
1221:AS76.c        ****     CyDelay(200);
 544              		.loc 1 1221 0
 545 0002 40F6C410 		movw	r0, #2500
 546 0006 FFF7FEFF 		bl	PWM_Buzzer_WriteCompare
 547              	.LVL43:
1222:AS76.c        ****     PWM_Buzzer_WriteCompare(0);
 548              		.loc 1 1222 0
 549 000a C820     		movs	r0, #200
 550 000c FFF7FEFF 		bl	CyDelay
 551              	.LVL44:
1223:AS76.c        ****     Write_Debug_UART_Char("Beeped Once  \r\n");
 552              		.loc 1 1223 0
 553 0010 0020     		movs	r0, #0
 554 0012 FFF7FEFF 		bl	PWM_Buzzer_WriteCompare
 555              	.LVL45:
ARM GAS  C:\Users\Revanth\AppData\Local\Temp\ccq5TJLm.s 			page 50


1224:AS76.c        ****     return 0;
 556              		.loc 1 1224 0
 557 0016 0248     		ldr	r0, .L50
 558 0018 FFF7FEFF 		bl	Write_Debug_UART_Char
 559              	.LVL46:
1226:AS76.c        **** 
 560              		.loc 1 1226 0
 561 001c 0020     		movs	r0, #0
 562 001e 08BD     		pop	{r3, pc}
 563              	.L51:
 564              		.align	2
 565              	.L50:
 566 0020 00000000 		.word	.LC0
 567              		.cfi_endproc
 568              	.LFE84:
 569              		.size	Beep_Once, .-Beep_Once
 570              		.section	.text.Beep_Twice,"ax",%progbits
 571              		.align	2
 572              		.global	Beep_Twice
 573              		.thumb
 574              		.thumb_func
 575              		.type	Beep_Twice, %function
 576              	Beep_Twice:
 577              	.LFB85:
1229:AS76.c        ****     PWM_Buzzer_WriteCompare(2500);
 578              		.loc 1 1229 0
 579              		.cfi_startproc
 580              		@ args = 0, pretend = 0, frame = 0
 581              		@ frame_needed = 0, uses_anonymous_args = 0
 582 0000 08B5     		push	{r3, lr}
 583              		.cfi_def_cfa_offset 8
 584              		.cfi_offset 3, -8
 585              		.cfi_offset 14, -4
1230:AS76.c        ****     CyDelay(200);
 586              		.loc 1 1230 0
 587 0002 40F6C410 		movw	r0, #2500
 588 0006 FFF7FEFF 		bl	PWM_Buzzer_WriteCompare
 589              	.LVL47:
1231:AS76.c        ****     PWM_Buzzer_WriteCompare(0);
 590              		.loc 1 1231 0
 591 000a C820     		movs	r0, #200
 592 000c FFF7FEFF 		bl	CyDelay
 593              	.LVL48:
1232:AS76.c        ****     CyDelay(200);
 594              		.loc 1 1232 0
 595 0010 0020     		movs	r0, #0
 596 0012 FFF7FEFF 		bl	PWM_Buzzer_WriteCompare
 597              	.LVL49:
1233:AS76.c        ****     PWM_Buzzer_WriteCompare(2500);
 598              		.loc 1 1233 0
 599 0016 C820     		movs	r0, #200
 600 0018 FFF7FEFF 		bl	CyDelay
 601              	.LVL50:
1234:AS76.c        ****     CyDelay(200);
 602              		.loc 1 1234 0
 603 001c 40F6C410 		movw	r0, #2500
 604 0020 FFF7FEFF 		bl	PWM_Buzzer_WriteCompare
ARM GAS  C:\Users\Revanth\AppData\Local\Temp\ccq5TJLm.s 			page 51


 605              	.LVL51:
1235:AS76.c        ****     PWM_Buzzer_WriteCompare(0);
 606              		.loc 1 1235 0
 607 0024 C820     		movs	r0, #200
 608 0026 FFF7FEFF 		bl	CyDelay
 609              	.LVL52:
1236:AS76.c        ****     Write_Debug_UART_Char("Beeped Twice  \r\n");
 610              		.loc 1 1236 0
 611 002a 0020     		movs	r0, #0
 612 002c FFF7FEFF 		bl	PWM_Buzzer_WriteCompare
 613              	.LVL53:
1237:AS76.c        ****     return 0;
 614              		.loc 1 1237 0
 615 0030 0248     		ldr	r0, .L54
 616 0032 FFF7FEFF 		bl	Write_Debug_UART_Char
 617              	.LVL54:
1239:AS76.c        **** 
 618              		.loc 1 1239 0
 619 0036 0020     		movs	r0, #0
 620 0038 08BD     		pop	{r3, pc}
 621              	.L55:
 622 003a 00BF     		.align	2
 623              	.L54:
 624 003c 10000000 		.word	.LC1
 625              		.cfi_endproc
 626              	.LFE85:
 627              		.size	Beep_Twice, .-Beep_Twice
 628              		.section	.text.Long_Beep,"ax",%progbits
 629              		.align	2
 630              		.global	Long_Beep
 631              		.thumb
 632              		.thumb_func
 633              		.type	Long_Beep, %function
 634              	Long_Beep:
 635              	.LFB86:
1242:AS76.c        ****     PWM_Buzzer_WriteCompare(2500);
 636              		.loc 1 1242 0
 637              		.cfi_startproc
 638              		@ args = 0, pretend = 0, frame = 0
 639              		@ frame_needed = 0, uses_anonymous_args = 0
 640 0000 08B5     		push	{r3, lr}
 641              		.cfi_def_cfa_offset 8
 642              		.cfi_offset 3, -8
 643              		.cfi_offset 14, -4
1243:AS76.c        ****     CyDelay(2000);
 644              		.loc 1 1243 0
 645 0002 40F6C410 		movw	r0, #2500
 646 0006 FFF7FEFF 		bl	PWM_Buzzer_WriteCompare
 647              	.LVL55:
1244:AS76.c        ****     PWM_Buzzer_WriteCompare(0);
 648              		.loc 1 1244 0
 649 000a 4FF4FA60 		mov	r0, #2000
 650 000e FFF7FEFF 		bl	CyDelay
 651              	.LVL56:
1245:AS76.c        ****     CyDelay(200);
 652              		.loc 1 1245 0
 653 0012 0020     		movs	r0, #0
ARM GAS  C:\Users\Revanth\AppData\Local\Temp\ccq5TJLm.s 			page 52


 654 0014 FFF7FEFF 		bl	PWM_Buzzer_WriteCompare
 655              	.LVL57:
1246:AS76.c        ****     
 656              		.loc 1 1246 0
 657 0018 C820     		movs	r0, #200
 658 001a FFF7FEFF 		bl	CyDelay
 659              	.LVL58:
1248:AS76.c        ****     return 0;
 660              		.loc 1 1248 0
 661 001e 0248     		ldr	r0, .L58
 662 0020 FFF7FEFF 		bl	Write_Debug_UART_Char
 663              	.LVL59:
1250:AS76.c        **** 
 664              		.loc 1 1250 0
 665 0024 0020     		movs	r0, #0
 666 0026 08BD     		pop	{r3, pc}
 667              	.L59:
 668              		.align	2
 669              	.L58:
 670 0028 24000000 		.word	.LC2
 671              		.cfi_endproc
 672              	.LFE86:
 673              		.size	Long_Beep, .-Long_Beep
 674              		.global	__aeabi_i2d
 675              		.global	__aeabi_dmul
 676              		.global	__aeabi_d2iz
 677              		.section	.text.Send_Feedback_to_USB,"ax",%progbits
 678              		.align	2
 679              		.global	Send_Feedback_to_USB
 680              		.thumb
 681              		.thumb_func
 682              		.type	Send_Feedback_to_USB, %function
 683              	Send_Feedback_to_USB:
 684              	.LFB93:
1875:AS76.c        ****      Read_All_Optical_Encoder();
 685              		.loc 1 1875 0
 686              		.cfi_startproc
 687              		@ args = 0, pretend = 0, frame = 0
 688              		@ frame_needed = 0, uses_anonymous_args = 0
 689              	.LVL60:
 690 0000 38B5     		push	{r3, r4, r5, lr}
 691              		.cfi_def_cfa_offset 16
 692              		.cfi_offset 3, -16
 693              		.cfi_offset 4, -12
 694              		.cfi_offset 5, -8
 695              		.cfi_offset 14, -4
 696 0002 0446     		mov	r4, r0
1876:AS76.c        **** 
 697              		.loc 1 1876 0
 698 0004 FFF7FEFF 		bl	Read_All_Optical_Encoder
 699              	.LVL61:
1880:AS76.c        ****         {            
 700              		.loc 1 1880 0
 701 0008 54B9     		cbnz	r4, .L61
1882:AS76.c        ****             USB_transmit[1] = (command >> 8);
 702              		.loc 1 1882 0
 703 000a 744B     		ldr	r3, .L98
ARM GAS  C:\Users\Revanth\AppData\Local\Temp\ccq5TJLm.s 			page 53


 704 000c 1A68     		ldr	r2, [r3]
 705 000e 744B     		ldr	r3, .L98+4
 706 0010 1A70     		strb	r2, [r3]
1883:AS76.c        ****             USB_transmit[2] = No_Error;
 707              		.loc 1 1883 0
 708 0012 120A     		lsrs	r2, r2, #8
 709 0014 5A70     		strb	r2, [r3, #1]
1884:AS76.c        ****             USB_transmit[3] = No_Error >> 8;
 710              		.loc 1 1884 0
 711 0016 0022     		movs	r2, #0
 712 0018 9A70     		strb	r2, [r3, #2]
1885:AS76.c        ****             //Write_Debug_UART_Char("\nCommand Sent :");
 713              		.loc 1 1885 0
 714 001a FA22     		movs	r2, #250
 715 001c DA70     		strb	r2, [r3, #3]
 716 001e E6E0     		b	.L62
 717              	.L61:
1894:AS76.c        ****             USB_transmit[1] = (command >> 8);
 718              		.loc 1 1894 0
 719 0020 6E4B     		ldr	r3, .L98
 720 0022 1B68     		ldr	r3, [r3]
 721 0024 6E4A     		ldr	r2, .L98+4
 722 0026 1370     		strb	r3, [r2]
1895:AS76.c        ****             //Write_Debug_UART_Char("\nCommand Sent :");
 723              		.loc 1 1895 0
 724 0028 1B0A     		lsrs	r3, r3, #8
 725 002a 5370     		strb	r3, [r2, #1]
1900:AS76.c        ****             {
 726              		.loc 1 1900 0
 727 002c 013C     		subs	r4, r4, #1
 728              	.LVL62:
 729 002e 202C     		cmp	r4, #32
 730 0030 00F2DD80 		bhi	.L62
 731 0034 DFE804F0 		tbb	[pc, r4]
 732              	.L64:
 733 0038 11       		.byte	(.L63-.L64)/2
 734 0039 17       		.byte	(.L65-.L64)/2
 735 003a 1D       		.byte	(.L66-.L64)/2
 736 003b 23       		.byte	(.L67-.L64)/2
 737 003c 29       		.byte	(.L68-.L64)/2
 738 003d 2F       		.byte	(.L69-.L64)/2
 739 003e 35       		.byte	(.L70-.L64)/2
 740 003f 3B       		.byte	(.L71-.L64)/2
 741 0040 41       		.byte	(.L72-.L64)/2
 742 0041 47       		.byte	(.L73-.L64)/2
 743 0042 4D       		.byte	(.L74-.L64)/2
 744 0043 53       		.byte	(.L75-.L64)/2
 745 0044 59       		.byte	(.L76-.L64)/2
 746 0045 5F       		.byte	(.L77-.L64)/2
 747 0046 65       		.byte	(.L78-.L64)/2
 748 0047 6B       		.byte	(.L79-.L64)/2
 749 0048 71       		.byte	(.L80-.L64)/2
 750 0049 77       		.byte	(.L81-.L64)/2
 751 004a 7D       		.byte	(.L82-.L64)/2
 752 004b 83       		.byte	(.L83-.L64)/2
 753 004c 89       		.byte	(.L84-.L64)/2
 754 004d 8F       		.byte	(.L85-.L64)/2
ARM GAS  C:\Users\Revanth\AppData\Local\Temp\ccq5TJLm.s 			page 54


 755 004e 95       		.byte	(.L86-.L64)/2
 756 004f 9B       		.byte	(.L87-.L64)/2
 757 0050 A1       		.byte	(.L88-.L64)/2
 758 0051 A7       		.byte	(.L89-.L64)/2
 759 0052 AD       		.byte	(.L90-.L64)/2
 760 0053 B3       		.byte	(.L91-.L64)/2
 761 0054 B9       		.byte	(.L92-.L64)/2
 762 0055 BF       		.byte	(.L93-.L64)/2
 763 0056 C5       		.byte	(.L94-.L64)/2
 764 0057 CB       		.byte	(.L95-.L64)/2
 765 0058 D6       		.byte	(.L96-.L64)/2
 766 0059 00       		.p2align 1
 767              	.L63:
1904:AS76.c        ****                     USB_transmit[3] = X_Motor_Not_Working >> 8; 
 768              		.loc 1 1904 0
 769 005a 614B     		ldr	r3, .L98+4
 770 005c 0122     		movs	r2, #1
 771 005e 9A70     		strb	r2, [r3, #2]
1905:AS76.c        ****                     break;
 772              		.loc 1 1905 0
 773 0060 FA22     		movs	r2, #250
 774 0062 DA70     		strb	r2, [r3, #3]
1906:AS76.c        ****                 }
 775              		.loc 1 1906 0
 776 0064 C3E0     		b	.L62
 777              	.L65:
1910:AS76.c        ****                     USB_transmit[3] = X_Encoder_Not_Working >> 8; 
 778              		.loc 1 1910 0
 779 0066 5E4B     		ldr	r3, .L98+4
 780 0068 0222     		movs	r2, #2
 781 006a 9A70     		strb	r2, [r3, #2]
1911:AS76.c        ****                     break;
 782              		.loc 1 1911 0
 783 006c FA22     		movs	r2, #250
 784 006e DA70     		strb	r2, [r3, #3]
1912:AS76.c        ****                 }
 785              		.loc 1 1912 0
 786 0070 BDE0     		b	.L62
 787              	.L66:
1916:AS76.c        ****                     USB_transmit[3] = X_Switch_Not_Working >> 8; 
 788              		.loc 1 1916 0
 789 0072 5B4B     		ldr	r3, .L98+4
 790 0074 1722     		movs	r2, #23
 791 0076 9A70     		strb	r2, [r3, #2]
1917:AS76.c        ****                     break;
 792              		.loc 1 1917 0
 793 0078 FA22     		movs	r2, #250
 794 007a DA70     		strb	r2, [r3, #3]
1918:AS76.c        ****                 }
 795              		.loc 1 1918 0
 796 007c B7E0     		b	.L62
 797              	.L67:
1922:AS76.c        ****                     USB_transmit[3] = X_Motor_Driver_Fault >> 8; 
 798              		.loc 1 1922 0
 799 007e 584B     		ldr	r3, .L98+4
 800 0080 0722     		movs	r2, #7
 801 0082 9A70     		strb	r2, [r3, #2]
ARM GAS  C:\Users\Revanth\AppData\Local\Temp\ccq5TJLm.s 			page 55


1923:AS76.c        ****                     break;
 802              		.loc 1 1923 0
 803 0084 FA22     		movs	r2, #250
 804 0086 DA70     		strb	r2, [r3, #3]
1924:AS76.c        ****                 }
 805              		.loc 1 1924 0
 806 0088 B1E0     		b	.L62
 807              	.L68:
1928:AS76.c        ****                     USB_transmit[3] = Requested_X_Step_Exceeding_The_Limit >> 8; 
 808              		.loc 1 1928 0
 809 008a 554B     		ldr	r3, .L98+4
 810 008c 1122     		movs	r2, #17
 811 008e 9A70     		strb	r2, [r3, #2]
1929:AS76.c        ****                     break;
 812              		.loc 1 1929 0
 813 0090 FA22     		movs	r2, #250
 814 0092 DA70     		strb	r2, [r3, #3]
1930:AS76.c        ****                 }
 815              		.loc 1 1930 0
 816 0094 ABE0     		b	.L62
 817              	.L69:
1934:AS76.c        ****                     USB_transmit[3] = X_Homing_Not_Done_Yet >> 8; 
 818              		.loc 1 1934 0
 819 0096 524B     		ldr	r3, .L98+4
 820 0098 1D22     		movs	r2, #29
 821 009a 9A70     		strb	r2, [r3, #2]
1935:AS76.c        ****                     break;
 822              		.loc 1 1935 0
 823 009c FA22     		movs	r2, #250
 824 009e DA70     		strb	r2, [r3, #3]
1936:AS76.c        ****                 }
 825              		.loc 1 1936 0
 826 00a0 A5E0     		b	.L62
 827              	.L70:
1940:AS76.c        ****                     USB_transmit[3] = X_Motor_Busy >> 8; 
 828              		.loc 1 1940 0
 829 00a2 4F4B     		ldr	r3, .L98+4
 830 00a4 2522     		movs	r2, #37
 831 00a6 9A70     		strb	r2, [r3, #2]
1941:AS76.c        ****                     break;
 832              		.loc 1 1941 0
 833 00a8 FA22     		movs	r2, #250
 834 00aa DA70     		strb	r2, [r3, #3]
1942:AS76.c        ****                 }
 835              		.loc 1 1942 0
 836 00ac 9FE0     		b	.L62
 837              	.L71:
1946:AS76.c        ****                     USB_transmit[3] = Y_Motor_Not_Working >> 8; 
 838              		.loc 1 1946 0
 839 00ae 4C4B     		ldr	r3, .L98+4
 840 00b0 0322     		movs	r2, #3
 841 00b2 9A70     		strb	r2, [r3, #2]
1947:AS76.c        ****                     break;
 842              		.loc 1 1947 0
 843 00b4 FA22     		movs	r2, #250
 844 00b6 DA70     		strb	r2, [r3, #3]
1948:AS76.c        ****                 }
ARM GAS  C:\Users\Revanth\AppData\Local\Temp\ccq5TJLm.s 			page 56


 845              		.loc 1 1948 0
 846 00b8 99E0     		b	.L62
 847              	.L72:
1952:AS76.c        ****                     USB_transmit[3] = Y_Encoder_Not_Working >> 8; 
 848              		.loc 1 1952 0
 849 00ba 494B     		ldr	r3, .L98+4
 850 00bc 0422     		movs	r2, #4
 851 00be 9A70     		strb	r2, [r3, #2]
1953:AS76.c        ****                     break;
 852              		.loc 1 1953 0
 853 00c0 FA22     		movs	r2, #250
 854 00c2 DA70     		strb	r2, [r3, #3]
1954:AS76.c        ****                 }
 855              		.loc 1 1954 0
 856 00c4 93E0     		b	.L62
 857              	.L73:
1958:AS76.c        ****                     USB_transmit[3] = Y_Switch_Not_Working >> 8; 
 858              		.loc 1 1958 0
 859 00c6 464B     		ldr	r3, .L98+4
 860 00c8 1822     		movs	r2, #24
 861 00ca 9A70     		strb	r2, [r3, #2]
1959:AS76.c        ****                     break;
 862              		.loc 1 1959 0
 863 00cc FA22     		movs	r2, #250
 864 00ce DA70     		strb	r2, [r3, #3]
1960:AS76.c        ****                 }
 865              		.loc 1 1960 0
 866 00d0 8DE0     		b	.L62
 867              	.L74:
1964:AS76.c        ****                     USB_transmit[3] = Y_Motor_Driver_Fault >> 8; 
 868              		.loc 1 1964 0
 869 00d2 434B     		ldr	r3, .L98+4
 870 00d4 0822     		movs	r2, #8
 871 00d6 9A70     		strb	r2, [r3, #2]
1965:AS76.c        ****                     break;
 872              		.loc 1 1965 0
 873 00d8 FA22     		movs	r2, #250
 874 00da DA70     		strb	r2, [r3, #3]
1966:AS76.c        ****                 }
 875              		.loc 1 1966 0
 876 00dc 87E0     		b	.L62
 877              	.L75:
1970:AS76.c        ****                     USB_transmit[3] = Requested_Y_Step_Exceeding_The_Limit >> 8; 
 878              		.loc 1 1970 0
 879 00de 404B     		ldr	r3, .L98+4
 880 00e0 1222     		movs	r2, #18
 881 00e2 9A70     		strb	r2, [r3, #2]
1971:AS76.c        ****                     break;
 882              		.loc 1 1971 0
 883 00e4 FA22     		movs	r2, #250
 884 00e6 DA70     		strb	r2, [r3, #3]
1972:AS76.c        ****                 }
 885              		.loc 1 1972 0
 886 00e8 81E0     		b	.L62
 887              	.L76:
1976:AS76.c        ****                     USB_transmit[3] = Y_Homing_Not_Done_Yet >> 8; 
 888              		.loc 1 1976 0
ARM GAS  C:\Users\Revanth\AppData\Local\Temp\ccq5TJLm.s 			page 57


 889 00ea 3D4B     		ldr	r3, .L98+4
 890 00ec 1E22     		movs	r2, #30
 891 00ee 9A70     		strb	r2, [r3, #2]
1977:AS76.c        ****                     break;
 892              		.loc 1 1977 0
 893 00f0 FA22     		movs	r2, #250
 894 00f2 DA70     		strb	r2, [r3, #3]
1978:AS76.c        ****                 }
 895              		.loc 1 1978 0
 896 00f4 7BE0     		b	.L62
 897              	.L77:
1982:AS76.c        ****                     USB_transmit[3] = Y_Motor_Busy >> 8; 
 898              		.loc 1 1982 0
 899 00f6 3A4B     		ldr	r3, .L98+4
 900 00f8 2622     		movs	r2, #38
 901 00fa 9A70     		strb	r2, [r3, #2]
1983:AS76.c        ****                     break;
 902              		.loc 1 1983 0
 903 00fc FA22     		movs	r2, #250
 904 00fe DA70     		strb	r2, [r3, #3]
1984:AS76.c        ****                 }
 905              		.loc 1 1984 0
 906 0100 75E0     		b	.L62
 907              	.L78:
1988:AS76.c        ****                     USB_transmit[3] = Z_Motor_Not_Working >> 8; 
 908              		.loc 1 1988 0
 909 0102 374B     		ldr	r3, .L98+4
 910 0104 0522     		movs	r2, #5
 911 0106 9A70     		strb	r2, [r3, #2]
1989:AS76.c        ****                     break;
 912              		.loc 1 1989 0
 913 0108 FA22     		movs	r2, #250
 914 010a DA70     		strb	r2, [r3, #3]
1990:AS76.c        ****                 }
 915              		.loc 1 1990 0
 916 010c 6FE0     		b	.L62
 917              	.L79:
1994:AS76.c        ****                     USB_transmit[3] = Z_Encoder_Not_Working >> 8; 
 918              		.loc 1 1994 0
 919 010e 344B     		ldr	r3, .L98+4
 920 0110 0622     		movs	r2, #6
 921 0112 9A70     		strb	r2, [r3, #2]
1995:AS76.c        ****                     break;
 922              		.loc 1 1995 0
 923 0114 FA22     		movs	r2, #250
 924 0116 DA70     		strb	r2, [r3, #3]
1996:AS76.c        ****                 }
 925              		.loc 1 1996 0
 926 0118 69E0     		b	.L62
 927              	.L80:
2000:AS76.c        ****                     USB_transmit[3] = Z_Switch_Not_Working >> 8; 
 928              		.loc 1 2000 0
 929 011a 314B     		ldr	r3, .L98+4
 930 011c 1922     		movs	r2, #25
 931 011e 9A70     		strb	r2, [r3, #2]
2001:AS76.c        ****                     break;
 932              		.loc 1 2001 0
ARM GAS  C:\Users\Revanth\AppData\Local\Temp\ccq5TJLm.s 			page 58


 933 0120 FA22     		movs	r2, #250
 934 0122 DA70     		strb	r2, [r3, #3]
2002:AS76.c        ****                 }
 935              		.loc 1 2002 0
 936 0124 63E0     		b	.L62
 937              	.L81:
2006:AS76.c        ****                     USB_transmit[3] = Z_Motor_Driver_Fault >> 8; 
 938              		.loc 1 2006 0
 939 0126 2E4B     		ldr	r3, .L98+4
 940 0128 0922     		movs	r2, #9
 941 012a 9A70     		strb	r2, [r3, #2]
2007:AS76.c        ****                     break;
 942              		.loc 1 2007 0
 943 012c FA22     		movs	r2, #250
 944 012e DA70     		strb	r2, [r3, #3]
2008:AS76.c        ****                 }
 945              		.loc 1 2008 0
 946 0130 5DE0     		b	.L62
 947              	.L82:
2012:AS76.c        ****                     USB_transmit[3] = Requested_Z_Step_Exceeding_The_Limit >> 8; 
 948              		.loc 1 2012 0
 949 0132 2B4B     		ldr	r3, .L98+4
 950 0134 1322     		movs	r2, #19
 951 0136 9A70     		strb	r2, [r3, #2]
2013:AS76.c        ****                     break;
 952              		.loc 1 2013 0
 953 0138 FA22     		movs	r2, #250
 954 013a DA70     		strb	r2, [r3, #3]
2014:AS76.c        ****                 }
 955              		.loc 1 2014 0
 956 013c 57E0     		b	.L62
 957              	.L83:
2018:AS76.c        ****                     USB_transmit[3] = Z_Homing_Not_Done_Yet >> 8; 
 958              		.loc 1 2018 0
 959 013e 284B     		ldr	r3, .L98+4
 960 0140 1F22     		movs	r2, #31
 961 0142 9A70     		strb	r2, [r3, #2]
2019:AS76.c        ****                     break;
 962              		.loc 1 2019 0
 963 0144 FA22     		movs	r2, #250
 964 0146 DA70     		strb	r2, [r3, #3]
2020:AS76.c        ****                 }
 965              		.loc 1 2020 0
 966 0148 51E0     		b	.L62
 967              	.L84:
2024:AS76.c        ****                     USB_transmit[3] = Z_Motor_Busy >> 8; 
 968              		.loc 1 2024 0
 969 014a 254B     		ldr	r3, .L98+4
 970 014c 2722     		movs	r2, #39
 971 014e 9A70     		strb	r2, [r3, #2]
2025:AS76.c        ****                     break;
 972              		.loc 1 2025 0
 973 0150 FA22     		movs	r2, #250
 974 0152 DA70     		strb	r2, [r3, #3]
2026:AS76.c        ****                 }
 975              		.loc 1 2026 0
 976 0154 4BE0     		b	.L62
ARM GAS  C:\Users\Revanth\AppData\Local\Temp\ccq5TJLm.s 			page 59


 977              	.L85:
2030:AS76.c        ****                     USB_transmit[3] =  T_Motor_Not_Working>> 8; 
 978              		.loc 1 2030 0
 979 0156 224B     		ldr	r3, .L98+4
 980 0158 2B22     		movs	r2, #43
 981 015a 9A70     		strb	r2, [r3, #2]
2031:AS76.c        ****                     break;
 982              		.loc 1 2031 0
 983 015c FA22     		movs	r2, #250
 984 015e DA70     		strb	r2, [r3, #3]
2032:AS76.c        ****                 }
 985              		.loc 1 2032 0
 986 0160 45E0     		b	.L62
 987              	.L86:
2036:AS76.c        ****                     USB_transmit[3] =  T_Encoder_Not_Working>> 8; 
 988              		.loc 1 2036 0
 989 0162 1F4B     		ldr	r3, .L98+4
 990 0164 2C22     		movs	r2, #44
 991 0166 9A70     		strb	r2, [r3, #2]
2037:AS76.c        ****                     break;
 992              		.loc 1 2037 0
 993 0168 FA22     		movs	r2, #250
 994 016a DA70     		strb	r2, [r3, #3]
2038:AS76.c        ****                 }
 995              		.loc 1 2038 0
 996 016c 3FE0     		b	.L62
 997              	.L87:
2042:AS76.c        ****                     USB_transmit[3] =  T_Switch_Not_Working>> 8; 
 998              		.loc 1 2042 0
 999 016e 1C4B     		ldr	r3, .L98+4
 1000 0170 2D22     		movs	r2, #45
 1001 0172 9A70     		strb	r2, [r3, #2]
2043:AS76.c        ****                     break;
 1002              		.loc 1 2043 0
 1003 0174 FA22     		movs	r2, #250
 1004 0176 DA70     		strb	r2, [r3, #3]
2044:AS76.c        ****                 }
 1005              		.loc 1 2044 0
 1006 0178 39E0     		b	.L62
 1007              	.L88:
2049:AS76.c        ****                     USB_transmit[3] =  T_Motor_Driver_Fault>> 8; 
 1008              		.loc 1 2049 0
 1009 017a 194B     		ldr	r3, .L98+4
 1010 017c 2E22     		movs	r2, #46
 1011 017e 9A70     		strb	r2, [r3, #2]
2050:AS76.c        ****                     break;
 1012              		.loc 1 2050 0
 1013 0180 FA22     		movs	r2, #250
 1014 0182 DA70     		strb	r2, [r3, #3]
2051:AS76.c        ****                 }
 1015              		.loc 1 2051 0
 1016 0184 33E0     		b	.L62
 1017              	.L89:
2055:AS76.c        ****                     USB_transmit[3] =  Requested_T_Step_Exceeding_The_Limit>> 8; 
 1018              		.loc 1 2055 0
 1019 0186 164B     		ldr	r3, .L98+4
 1020 0188 2A22     		movs	r2, #42
ARM GAS  C:\Users\Revanth\AppData\Local\Temp\ccq5TJLm.s 			page 60


 1021 018a 9A70     		strb	r2, [r3, #2]
2056:AS76.c        ****                     break;
 1022              		.loc 1 2056 0
 1023 018c FA22     		movs	r2, #250
 1024 018e DA70     		strb	r2, [r3, #3]
2057:AS76.c        ****                 }
 1025              		.loc 1 2057 0
 1026 0190 2DE0     		b	.L62
 1027              	.L90:
2061:AS76.c        ****                     USB_transmit[3] =  T_Homing_Not_Done_Yet>> 8; 
 1028              		.loc 1 2061 0
 1029 0192 134B     		ldr	r3, .L98+4
 1030 0194 2F22     		movs	r2, #47
 1031 0196 9A70     		strb	r2, [r3, #2]
2062:AS76.c        ****                     break;
 1032              		.loc 1 2062 0
 1033 0198 FA22     		movs	r2, #250
 1034 019a DA70     		strb	r2, [r3, #3]
2063:AS76.c        ****                 }
 1035              		.loc 1 2063 0
 1036 019c 27E0     		b	.L62
 1037              	.L91:
2067:AS76.c        ****                     USB_transmit[3] = T_Motor_Busy >> 8; 
 1038              		.loc 1 2067 0
 1039 019e 104B     		ldr	r3, .L98+4
 1040 01a0 2822     		movs	r2, #40
 1041 01a2 9A70     		strb	r2, [r3, #2]
2068:AS76.c        ****                     break;
 1042              		.loc 1 2068 0
 1043 01a4 FA22     		movs	r2, #250
 1044 01a6 DA70     		strb	r2, [r3, #3]
2069:AS76.c        ****                 }
 1045              		.loc 1 2069 0
 1046 01a8 21E0     		b	.L62
 1047              	.L92:
2073:AS76.c        ****                     USB_transmit[3] = Wrong_Command_Received >> 8; 
 1048              		.loc 1 2073 0
 1049 01aa 0D4B     		ldr	r3, .L98+4
 1050 01ac 2222     		movs	r2, #34
 1051 01ae 9A70     		strb	r2, [r3, #2]
2074:AS76.c        ****                     break;
 1052              		.loc 1 2074 0
 1053 01b0 FA22     		movs	r2, #250
 1054 01b2 DA70     		strb	r2, [r3, #3]
2075:AS76.c        ****                 }
 1055              		.loc 1 2075 0
 1056 01b4 1BE0     		b	.L62
 1057              	.L93:
2079:AS76.c        ****                     USB_transmit[3] = PCB_Paused >> 8; 
 1058              		.loc 1 2079 0
 1059 01b6 0A4B     		ldr	r3, .L98+4
 1060 01b8 2322     		movs	r2, #35
 1061 01ba 9A70     		strb	r2, [r3, #2]
2080:AS76.c        ****                     break;
 1062              		.loc 1 2080 0
 1063 01bc FA22     		movs	r2, #250
 1064 01be DA70     		strb	r2, [r3, #3]
ARM GAS  C:\Users\Revanth\AppData\Local\Temp\ccq5TJLm.s 			page 61


2081:AS76.c        ****                 }
 1065              		.loc 1 2081 0
 1066 01c0 15E0     		b	.L62
 1067              	.L94:
2085:AS76.c        ****                     USB_transmit[3] = PCB_Busy >> 8; 
 1068              		.loc 1 2085 0
 1069 01c2 074B     		ldr	r3, .L98+4
 1070 01c4 2422     		movs	r2, #36
 1071 01c6 9A70     		strb	r2, [r3, #2]
2086:AS76.c        ****                     break;
 1072              		.loc 1 2086 0
 1073 01c8 FA22     		movs	r2, #250
 1074 01ca DA70     		strb	r2, [r3, #3]
2087:AS76.c        ****                 }
 1075              		.loc 1 2087 0
 1076 01cc 0FE0     		b	.L62
 1077              	.L95:
2091:AS76.c        ****                     USB_transmit[3] = All_Motors_Homing_Not_Done >> 8; 
 1078              		.loc 1 2091 0
 1079 01ce 044B     		ldr	r3, .L98+4
 1080 01d0 2922     		movs	r2, #41
 1081 01d2 9A70     		strb	r2, [r3, #2]
2092:AS76.c        ****                     break;
 1082              		.loc 1 2092 0
 1083 01d4 FA22     		movs	r2, #250
 1084 01d6 DA70     		strb	r2, [r3, #3]
2093:AS76.c        ****                 }
 1085              		.loc 1 2093 0
 1086 01d8 09E0     		b	.L62
 1087              	.L99:
 1088 01da 00BF     		.align	2
 1089              	.L98:
 1090 01dc 00000000 		.word	command
 1091 01e0 00000000 		.word	USB_transmit
 1092              	.L96:
2098:AS76.c        ****                     USB_transmit[3] = O_Motor_Not_Working >> 8; 
 1093              		.loc 1 2098 0
 1094 01e4 424B     		ldr	r3, .L100+8
 1095 01e6 3022     		movs	r2, #48
 1096 01e8 9A70     		strb	r2, [r3, #2]
2099:AS76.c        ****                     break;
 1097              		.loc 1 2099 0
 1098 01ea FA22     		movs	r2, #250
 1099 01ec DA70     		strb	r2, [r3, #3]
 1100              	.LVL63:
 1101              	.L62:
2105:AS76.c        ****         Y_QuadPosition = (Y_QuadPosition * 4);  
 1102              		.loc 1 2105 0
 1103 01ee 414D     		ldr	r5, .L100+12
 1104 01f0 AB68     		ldr	r3, [r5, #8]
 1105 01f2 9B00     		lsls	r3, r3, #2
 1106 01f4 AB60     		str	r3, [r5, #8]
2106:AS76.c        ****         Z_QuadPosition = (Z_QuadPosition ); 
 1107              		.loc 1 2106 0
 1108 01f6 EB68     		ldr	r3, [r5, #12]
 1109 01f8 9B00     		lsls	r3, r3, #2
 1110 01fa EB60     		str	r3, [r5, #12]
ARM GAS  C:\Users\Revanth\AppData\Local\Temp\ccq5TJLm.s 			page 62


2107:AS76.c        ****         T_QuadPosition = (int)(T_QuadPosition * 3.2); 
 1111              		.loc 1 2107 0
 1112 01fc 2B69     		ldr	r3, [r5, #16]
 1113 01fe 2B61     		str	r3, [r5, #16]
2108:AS76.c        ****         USB_transmit[4] = (X_QuadPosition);
 1114              		.loc 1 2108 0
 1115 0200 6869     		ldr	r0, [r5, #20]
 1116 0202 FFF7FEFF 		bl	__aeabi_i2d
 1117              	.LVL64:
 1118 0206 38A3     		adr	r3, .L100
 1119 0208 D3E90023 		ldrd	r2, [r3]
 1120 020c FFF7FEFF 		bl	__aeabi_dmul
 1121              	.LVL65:
 1122 0210 FFF7FEFF 		bl	__aeabi_d2iz
 1123              	.LVL66:
 1124 0214 6861     		str	r0, [r5, #20]
2109:AS76.c        ****         USB_transmit[5] = (X_QuadPosition) >> 8;
 1125              		.loc 1 2109 0
 1126 0216 AB68     		ldr	r3, [r5, #8]
 1127 0218 354C     		ldr	r4, .L100+8
 1128 021a 2371     		strb	r3, [r4, #4]
2110:AS76.c        ****         USB_transmit[6] = (X_QuadPosition) >> 16;
 1129              		.loc 1 2110 0
 1130 021c AB68     		ldr	r3, [r5, #8]
 1131 021e 1B12     		asrs	r3, r3, #8
 1132 0220 6371     		strb	r3, [r4, #5]
2111:AS76.c        ****         USB_transmit[7] = (X_QuadPosition) >> 24;
 1133              		.loc 1 2111 0
 1134 0222 AB68     		ldr	r3, [r5, #8]
 1135 0224 1B14     		asrs	r3, r3, #16
 1136 0226 A371     		strb	r3, [r4, #6]
2112:AS76.c        ****         USB_transmit[8] = (Y_QuadPosition);
 1137              		.loc 1 2112 0
 1138 0228 AB68     		ldr	r3, [r5, #8]
 1139 022a 1B16     		asrs	r3, r3, #24
 1140 022c E371     		strb	r3, [r4, #7]
2113:AS76.c        ****         USB_transmit[9] = (Y_QuadPosition) >> 8;
 1141              		.loc 1 2113 0
 1142 022e EB68     		ldr	r3, [r5, #12]
 1143 0230 2372     		strb	r3, [r4, #8]
2114:AS76.c        ****         USB_transmit[10] =(Y_QuadPosition) >> 16;
 1144              		.loc 1 2114 0
 1145 0232 EB68     		ldr	r3, [r5, #12]
 1146 0234 1B12     		asrs	r3, r3, #8
 1147 0236 6372     		strb	r3, [r4, #9]
2115:AS76.c        ****         USB_transmit[11] =(Y_QuadPosition) >> 24;
 1148              		.loc 1 2115 0
 1149 0238 EB68     		ldr	r3, [r5, #12]
 1150 023a 1B14     		asrs	r3, r3, #16
 1151 023c A372     		strb	r3, [r4, #10]
2116:AS76.c        ****         USB_transmit[12] = Z_QuadPosition;
 1152              		.loc 1 2116 0
 1153 023e EB68     		ldr	r3, [r5, #12]
 1154 0240 1B16     		asrs	r3, r3, #24
 1155 0242 E372     		strb	r3, [r4, #11]
2117:AS76.c        ****         USB_transmit[13] = Z_QuadPosition >> 8;
 1156              		.loc 1 2117 0
ARM GAS  C:\Users\Revanth\AppData\Local\Temp\ccq5TJLm.s 			page 63


 1157 0244 2B69     		ldr	r3, [r5, #16]
 1158 0246 2373     		strb	r3, [r4, #12]
2118:AS76.c        ****         USB_transmit[14] = Z_QuadPosition >> 16;
 1159              		.loc 1 2118 0
 1160 0248 2B69     		ldr	r3, [r5, #16]
 1161 024a 1B12     		asrs	r3, r3, #8
 1162 024c 6373     		strb	r3, [r4, #13]
2119:AS76.c        ****         USB_transmit[15] = Z_QuadPosition >> 24;
 1163              		.loc 1 2119 0
 1164 024e 2B69     		ldr	r3, [r5, #16]
 1165 0250 1B14     		asrs	r3, r3, #16
 1166 0252 A373     		strb	r3, [r4, #14]
2120:AS76.c        ****         USB_transmit[16] = T_QuadPosition;
 1167              		.loc 1 2120 0
 1168 0254 2B69     		ldr	r3, [r5, #16]
 1169 0256 1B16     		asrs	r3, r3, #24
 1170 0258 E373     		strb	r3, [r4, #15]
2121:AS76.c        ****         USB_transmit[17] = T_QuadPosition >> 8;
 1171              		.loc 1 2121 0
 1172 025a 6B69     		ldr	r3, [r5, #20]
 1173 025c 2374     		strb	r3, [r4, #16]
2122:AS76.c        ****         USB_transmit[18] = T_QuadPosition >> 16;
 1174              		.loc 1 2122 0
 1175 025e 6B69     		ldr	r3, [r5, #20]
 1176 0260 1B12     		asrs	r3, r3, #8
 1177 0262 6374     		strb	r3, [r4, #17]
2123:AS76.c        ****         USB_transmit[19] = T_QuadPosition >> 24;
 1178              		.loc 1 2123 0
 1179 0264 6B69     		ldr	r3, [r5, #20]
 1180 0266 1B14     		asrs	r3, r3, #16
 1181 0268 A374     		strb	r3, [r4, #18]
2124:AS76.c        ****         USB_transmit[20] = PWM_Condenser_comare_value;
 1182              		.loc 1 2124 0
 1183 026a 6B69     		ldr	r3, [r5, #20]
 1184 026c 1B16     		asrs	r3, r3, #24
 1185 026e E374     		strb	r3, [r4, #19]
2125:AS76.c        ****         USB_transmit[21] = PWM_Condenser_comare_value >> 8;
 1186              		.loc 1 2125 0
 1187 0270 214A     		ldr	r2, .L100+16
 1188 0272 1368     		ldr	r3, [r2]
 1189 0274 2375     		strb	r3, [r4, #20]
2126:AS76.c        ****         USB_transmit[22] = 0;
 1190              		.loc 1 2126 0
 1191 0276 1B12     		asrs	r3, r3, #8
 1192 0278 6375     		strb	r3, [r4, #21]
2127:AS76.c        ****         USB_transmit[23] = 0;
 1193              		.loc 1 2127 0
 1194 027a 0023     		movs	r3, #0
 1195 027c A375     		strb	r3, [r4, #22]
2128:AS76.c        ****         USB_transmit[24] = 0;
 1196              		.loc 1 2128 0
 1197 027e E375     		strb	r3, [r4, #23]
2129:AS76.c        ****         USB_transmit[25] = 0;
 1198              		.loc 1 2129 0
 1199 0280 2376     		strb	r3, [r4, #24]
2130:AS76.c        ****         USB_transmit[26] = 0;
 1200              		.loc 1 2130 0
ARM GAS  C:\Users\Revanth\AppData\Local\Temp\ccq5TJLm.s 			page 64


 1201 0282 6376     		strb	r3, [r4, #25]
2131:AS76.c        ****         USB_transmit[27] = 0;
 1202              		.loc 1 2131 0
 1203 0284 A376     		strb	r3, [r4, #26]
2132:AS76.c        ****         USB_transmit[28] = Motor_Speed_X;
 1204              		.loc 1 2132 0
 1205 0286 E376     		strb	r3, [r4, #27]
2133:AS76.c        ****         USB_transmit[29] = Motor_Speed_X >> 8;
 1206              		.loc 1 2133 0
 1207 0288 5169     		ldr	r1, [r2, #20]
 1208 028a 2177     		strb	r1, [r4, #28]
2134:AS76.c        ****         USB_transmit[30] = Motor_Speed_Y;
 1209              		.loc 1 2134 0
 1210 028c 090A     		lsrs	r1, r1, #8
 1211 028e 6177     		strb	r1, [r4, #29]
2135:AS76.c        ****         USB_transmit[31] = Motor_Speed_Y >> 8;
 1212              		.loc 1 2135 0
 1213 0290 9169     		ldr	r1, [r2, #24]
 1214 0292 A177     		strb	r1, [r4, #30]
2136:AS76.c        ****         USB_transmit[32] = Motor_Speed_Z;
 1215              		.loc 1 2136 0
 1216 0294 090A     		lsrs	r1, r1, #8
 1217 0296 E177     		strb	r1, [r4, #31]
2137:AS76.c        ****         USB_transmit[33] = Motor_Speed_Z >> 8;
 1218              		.loc 1 2137 0
 1219 0298 D269     		ldr	r2, [r2, #28]
 1220 029a 84F82020 		strb	r2, [r4, #32]
2138:AS76.c        ****         USB_transmit[34] = 0x00;
 1221              		.loc 1 2138 0
 1222 029e 120A     		lsrs	r2, r2, #8
 1223 02a0 84F82120 		strb	r2, [r4, #33]
2139:AS76.c        ****         USB_transmit[35] = 0x00 >> 8;
 1224              		.loc 1 2139 0
 1225 02a4 84F82230 		strb	r3, [r4, #34]
2140:AS76.c        ****         USB_transmit[36] = 0x00;
 1226              		.loc 1 2140 0
 1227 02a8 84F82330 		strb	r3, [r4, #35]
2141:AS76.c        ****         USB_transmit[37] = 0x00;
 1228              		.loc 1 2141 0
 1229 02ac 84F82430 		strb	r3, [r4, #36]
2142:AS76.c        ****         USB_transmit[38] = 0x00;
 1230              		.loc 1 2142 0
 1231 02b0 84F82530 		strb	r3, [r4, #37]
2143:AS76.c        ****         USB_transmit[39] = Firmware_Version;
 1232              		.loc 1 2143 0
 1233 02b4 84F82630 		strb	r3, [r4, #38]
2144:AS76.c        ****         USB_transmit[40] = 0;
 1234              		.loc 1 2144 0
 1235 02b8 4C22     		movs	r2, #76
 1236 02ba 84F82720 		strb	r2, [r4, #39]
2145:AS76.c        ****         USB_transmit[41] = 0;
 1237              		.loc 1 2145 0
 1238 02be 84F82830 		strb	r3, [r4, #40]
2146:AS76.c        ****         USB_transmit[42] = 0;
 1239              		.loc 1 2146 0
 1240 02c2 84F82930 		strb	r3, [r4, #41]
2147:AS76.c        ****         USB_transmit[43] = 0;
ARM GAS  C:\Users\Revanth\AppData\Local\Temp\ccq5TJLm.s 			page 65


 1241              		.loc 1 2147 0
 1242 02c6 84F82A30 		strb	r3, [r4, #42]
2148:AS76.c        ****         USB_transmit[44] = 0;
 1243              		.loc 1 2148 0
 1244 02ca 84F82B30 		strb	r3, [r4, #43]
2149:AS76.c        ****         USB_transmit[45] = 0;
 1245              		.loc 1 2149 0
 1246 02ce 84F82C30 		strb	r3, [r4, #44]
2150:AS76.c        ****         
 1247              		.loc 1 2150 0
 1248 02d2 84F82D30 		strb	r3, [r4, #45]
2156:AS76.c        ****         USB_PutData(USB_transmit, 46);  //send data back to usb
 1249              		.loc 1 2156 0
 1250 02d6 0948     		ldr	r0, .L100+20
 1251 02d8 FFF7FEFF 		bl	Write_Debug_UART_Char
 1252              	.LVL67:
2157:AS76.c        ****     
 1253              		.loc 1 2157 0
 1254 02dc 2E21     		movs	r1, #46
 1255 02de 2046     		mov	r0, r4
 1256 02e0 FFF7FEFF 		bl	USB_PutData
 1257              	.LVL68:
 1258 02e4 38BD     		pop	{r3, r4, r5, pc}
 1259              	.L101:
 1260 02e6 00BF     		.align	3
 1261              	.L100:
 1262 02e8 9A999999 		.word	-1717986918
 1263 02ec 99990940 		.word	1074370969
 1264 02f0 00000000 		.word	USB_transmit
 1265 02f4 00000000 		.word	.LANCHOR0
 1266 02f8 00000000 		.word	.LANCHOR1
 1267 02fc 34000000 		.word	.LC3
 1268              		.cfi_endproc
 1269              	.LFE93:
 1270              		.size	Send_Feedback_to_USB, .-Send_Feedback_to_USB
 1271              		.section	.text.Initialize_USB,"ax",%progbits
 1272              		.align	2
 1273              		.global	Initialize_USB
 1274              		.thumb
 1275              		.thumb_func
 1276              		.type	Initialize_USB, %function
 1277              	Initialize_USB:
 1278              	.LFB95:
2165:AS76.c        ****     USB_Start(0, USB_5V_OPERATION);   
 1279              		.loc 1 2165 0
 1280              		.cfi_startproc
 1281              		@ args = 0, pretend = 0, frame = 0
 1282              		@ frame_needed = 0, uses_anonymous_args = 0
 1283 0000 08B5     		push	{r3, lr}
 1284              		.cfi_def_cfa_offset 8
 1285              		.cfi_offset 3, -8
 1286              		.cfi_offset 14, -4
2166:AS76.c        ****     while (0 == USB_GetConfiguration()) /* wait untill USB not found. */
 1287              		.loc 1 2166 0
 1288 0002 0121     		movs	r1, #1
 1289 0004 0020     		movs	r0, #0
 1290 0006 FFF7FEFF 		bl	USB_Start
ARM GAS  C:\Users\Revanth\AppData\Local\Temp\ccq5TJLm.s 			page 66


 1291              	.LVL69:
2167:AS76.c        ****     {
 1292              		.loc 1 2167 0
 1293 000a 05E0     		b	.L103
 1294              	.L104:
2169:AS76.c        ****         CyDelayUs(1);
 1295              		.loc 1 2169 0
 1296 000c 0848     		ldr	r0, .L106
 1297 000e FFF7FEFF 		bl	Write_Debug_UART_Char
 1298              	.LVL70:
2170:AS76.c        ****     }
 1299              		.loc 1 2170 0
 1300 0012 0120     		movs	r0, #1
 1301 0014 FFF7FEFF 		bl	CyDelayUs
 1302              	.LVL71:
 1303              	.L103:
2167:AS76.c        ****     {
 1304              		.loc 1 2167 0
 1305 0018 FFF7FEFF 		bl	USB_GetConfiguration
 1306              	.LVL72:
 1307 001c 0028     		cmp	r0, #0
 1308 001e F5D0     		beq	.L104
2172:AS76.c        ****     Write_Debug_UART_Char("USB Connected  \r\n");
 1309              		.loc 1 2172 0
 1310 0020 FFF7FEFF 		bl	USB_CDC_Init
 1311              	.LVL73:
2173:AS76.c        ****     USB_EnableSofInt();  
 1312              		.loc 1 2173 0
 1313 0024 0348     		ldr	r0, .L106+4
 1314 0026 FFF7FEFF 		bl	Write_Debug_UART_Char
 1315              	.LVL74:
2174:AS76.c        **** }
 1316              		.loc 1 2174 0
 1317 002a FFF7FEFF 		bl	USB_EnableSofInt
 1318              	.LVL75:
 1319 002e 08BD     		pop	{r3, pc}
 1320              	.L107:
 1321              		.align	2
 1322              	.L106:
 1323 0030 58000000 		.word	.LC4
 1324 0034 7C000000 		.word	.LC5
 1325              		.cfi_endproc
 1326              	.LFE95:
 1327              		.size	Initialize_USB, .-Initialize_USB
 1328              		.section	.text.Write_Debug_UART_Int,"ax",%progbits
 1329              		.align	2
 1330              		.global	Write_Debug_UART_Int
 1331              		.thumb
 1332              		.thumb_func
 1333              		.type	Write_Debug_UART_Int, %function
 1334              	Write_Debug_UART_Int:
 1335              	.LFB100:
2220:AS76.c        ****     	}
2221:AS76.c        ****     }
2222:AS76.c        **** }
2223:AS76.c        **** void Write_Debug_UART_Int(int32 num)
2224:AS76.c        **** {
ARM GAS  C:\Users\Revanth\AppData\Local\Temp\ccq5TJLm.s 			page 67


 1336              		.loc 1 2224 0
 1337              		.cfi_startproc
 1338              		@ args = 0, pretend = 0, frame = 24
 1339              		@ frame_needed = 0, uses_anonymous_args = 0
 1340              	.LVL76:
2225:AS76.c        ****     if(print_flag ==1)
 1341              		.loc 1 2225 0
 1342 0000 0A4B     		ldr	r3, .L112
 1343 0002 93F82030 		ldrb	r3, [r3, #32]	@ zero_extendqisi2
 1344 0006 7BB1     		cbz	r3, .L111
2224:AS76.c        ****     if(print_flag ==1)
 1345              		.loc 1 2224 0
 1346 0008 00B5     		push	{lr}
 1347              		.cfi_def_cfa_offset 4
 1348              		.cfi_offset 14, -4
 1349 000a 87B0     		sub	sp, sp, #28
 1350              		.cfi_def_cfa_offset 32
 1351 000c 0246     		mov	r2, r0
 1352              	.LBB3:
2226:AS76.c        ****     {
2227:AS76.c        ****         char uart_Buffer[20];
2228:AS76.c        ****         sprintf(uart_Buffer,"%d, ",(int)num);
 1353              		.loc 1 2228 0
 1354 000e 0849     		ldr	r1, .L112+4
 1355 0010 01A8     		add	r0, sp, #4
 1356              	.LVL77:
 1357 0012 FFF7FEFF 		bl	sprintf
 1358              	.LVL78:
2229:AS76.c        ****         UART_PCB_LOG_PutString(uart_Buffer);
 1359              		.loc 1 2229 0
 1360 0016 01A8     		add	r0, sp, #4
 1361 0018 FFF7FEFF 		bl	UART_PCB_LOG_PutString
 1362              	.LVL79:
2230:AS76.c        ****         CyDelayUs(1);
 1363              		.loc 1 2230 0
 1364 001c 0120     		movs	r0, #1
 1365 001e FFF7FEFF 		bl	CyDelayUs
 1366              	.LVL80:
 1367              	.LBE3:
2231:AS76.c        ****     }
2232:AS76.c        **** }
 1368              		.loc 1 2232 0
 1369 0022 07B0     		add	sp, sp, #28
 1370              		.cfi_def_cfa_offset 4
 1371              		@ sp needed
 1372 0024 5DF804FB 		ldr	pc, [sp], #4
 1373              	.LVL81:
 1374              	.L111:
 1375              		.cfi_def_cfa_offset 0
 1376              		.cfi_restore 14
 1377 0028 7047     		bx	lr
 1378              	.L113:
 1379 002a 00BF     		.align	2
 1380              	.L112:
 1381 002c 00000000 		.word	.LANCHOR0
 1382 0030 90000000 		.word	.LC6
 1383              		.cfi_endproc
ARM GAS  C:\Users\Revanth\AppData\Local\Temp\ccq5TJLm.s 			page 68


 1384              	.LFE100:
 1385              		.size	Write_Debug_UART_Int, .-Write_Debug_UART_Int
 1386              		.global	__aeabi_ddiv
 1387              		.global	__aeabi_d2uiz
 1388              		.section	.text.set_BarcodeCondenser_LED,"ax",%progbits
 1389              		.align	2
 1390              		.global	set_BarcodeCondenser_LED
 1391              		.thumb
 1392              		.thumb_func
 1393              		.type	set_BarcodeCondenser_LED, %function
 1394              	set_BarcodeCondenser_LED:
 1395              	.LFB82:
1198:AS76.c        ****     PWM_barcode_comare_value = ((unsigned int)USB_received[3] << 8) + USB_received[2];  //Read LED 
 1396              		.loc 1 1198 0
 1397              		.cfi_startproc
 1398              		@ args = 0, pretend = 0, frame = 0
 1399              		@ frame_needed = 0, uses_anonymous_args = 0
 1400 0000 10B5     		push	{r4, lr}
 1401              		.cfi_def_cfa_offset 8
 1402              		.cfi_offset 4, -8
 1403              		.cfi_offset 14, -4
1199:AS76.c        ****     PWM_BarcodeCondenser_LED_WriteCompare((PWM_barcode_comare_value*0.6)/10);    //Writing LED valu
 1404              		.loc 1 1199 0
 1405 0002 154B     		ldr	r3, .L116+8
 1406 0004 D878     		ldrb	r0, [r3, #3]	@ zero_extendqisi2
 1407 0006 9B78     		ldrb	r3, [r3, #2]	@ zero_extendqisi2
 1408 0008 03EB0020 		add	r0, r3, r0, lsl #8
 1409 000c 134C     		ldr	r4, .L116+12
 1410 000e 6062     		str	r0, [r4, #36]
1200:AS76.c        ****     Write_Debug_UART_Char("LED Barcode Value Recived--->");
 1411              		.loc 1 1200 0
 1412 0010 FFF7FEFF 		bl	__aeabi_i2d
 1413              	.LVL82:
 1414 0014 0EA3     		adr	r3, .L116
 1415 0016 D3E90023 		ldrd	r2, [r3]
 1416 001a FFF7FEFF 		bl	__aeabi_dmul
 1417              	.LVL83:
 1418 001e 0022     		movs	r2, #0
 1419 0020 0F4B     		ldr	r3, .L116+16
 1420 0022 FFF7FEFF 		bl	__aeabi_ddiv
 1421              	.LVL84:
 1422 0026 FFF7FEFF 		bl	__aeabi_d2uiz
 1423              	.LVL85:
 1424 002a 80B2     		uxth	r0, r0
 1425 002c FFF7FEFF 		bl	PWM_BarcodeCondenser_LED_WriteCompare
 1426              	.LVL86:
1201:AS76.c        ****     Write_Debug_UART_Int(PWM_barcode_comare_value);
 1427              		.loc 1 1201 0
 1428 0030 0C48     		ldr	r0, .L116+20
 1429 0032 FFF7FEFF 		bl	Write_Debug_UART_Char
 1430              	.LVL87:
1202:AS76.c        ****     Write_Debug_UART_Char("\r\n");
 1431              		.loc 1 1202 0
 1432 0036 606A     		ldr	r0, [r4, #36]
 1433 0038 FFF7FEFF 		bl	Write_Debug_UART_Int
 1434              	.LVL88:
1203:AS76.c        ****     Write_Debug_UART_Char("Set Barcode LED Command Executed  \r\n");
ARM GAS  C:\Users\Revanth\AppData\Local\Temp\ccq5TJLm.s 			page 69


 1435              		.loc 1 1203 0
 1436 003c 0A48     		ldr	r0, .L116+24
 1437 003e FFF7FEFF 		bl	Write_Debug_UART_Char
 1438              	.LVL89:
1204:AS76.c        ****     return 0;
 1439              		.loc 1 1204 0
 1440 0042 0A48     		ldr	r0, .L116+28
 1441 0044 FFF7FEFF 		bl	Write_Debug_UART_Char
 1442              	.LVL90:
1206:AS76.c        **** 
 1443              		.loc 1 1206 0
 1444 0048 0020     		movs	r0, #0
 1445 004a 10BD     		pop	{r4, pc}
 1446              	.L117:
 1447 004c AFF30080 		.align	3
 1448              	.L116:
 1449 0050 33333333 		.word	858993459
 1450 0054 3333E33F 		.word	1071854387
 1451 0058 00000000 		.word	USB_received
 1452 005c 00000000 		.word	.LANCHOR0
 1453 0060 00002440 		.word	1076101120
 1454 0064 98000000 		.word	.LC7
 1455 0068 B8000000 		.word	.LC8
 1456 006c BC000000 		.word	.LC9
 1457              		.cfi_endproc
 1458              	.LFE82:
 1459              		.size	set_BarcodeCondenser_LED, .-set_BarcodeCondenser_LED
 1460              		.section	.text.set_CondenserLED,"ax",%progbits
 1461              		.align	2
 1462              		.global	set_CondenserLED
 1463              		.thumb
 1464              		.thumb_func
 1465              		.type	set_CondenserLED, %function
 1466              	set_CondenserLED:
 1467              	.LFB83:
1209:AS76.c        ****     PWM_Condenser_comare_value = ((unsigned int)USB_received[3] << 8) + USB_received[2];  //Read LE
 1468              		.loc 1 1209 0
 1469              		.cfi_startproc
 1470              		@ args = 0, pretend = 0, frame = 0
 1471              		@ frame_needed = 0, uses_anonymous_args = 0
 1472 0000 10B5     		push	{r4, lr}
 1473              		.cfi_def_cfa_offset 8
 1474              		.cfi_offset 4, -8
 1475              		.cfi_offset 14, -4
1210:AS76.c        ****     PWM_CondenserLED_WriteCompare((PWM_Condenser_comare_value*0.6)/10);    //Writing LED value in t
 1476              		.loc 1 1210 0
 1477 0002 154B     		ldr	r3, .L120+8
 1478 0004 D878     		ldrb	r0, [r3, #3]	@ zero_extendqisi2
 1479 0006 9B78     		ldrb	r3, [r3, #2]	@ zero_extendqisi2
 1480 0008 03EB0020 		add	r0, r3, r0, lsl #8
 1481 000c 134C     		ldr	r4, .L120+12
 1482 000e 2060     		str	r0, [r4]
1211:AS76.c        ****     Write_Debug_UART_Char(" LED Value Recived--->");
 1483              		.loc 1 1211 0
 1484 0010 FFF7FEFF 		bl	__aeabi_i2d
 1485              	.LVL91:
 1486 0014 0EA3     		adr	r3, .L120
ARM GAS  C:\Users\Revanth\AppData\Local\Temp\ccq5TJLm.s 			page 70


 1487 0016 D3E90023 		ldrd	r2, [r3]
 1488 001a FFF7FEFF 		bl	__aeabi_dmul
 1489              	.LVL92:
 1490 001e 0022     		movs	r2, #0
 1491 0020 0F4B     		ldr	r3, .L120+16
 1492 0022 FFF7FEFF 		bl	__aeabi_ddiv
 1493              	.LVL93:
 1494 0026 FFF7FEFF 		bl	__aeabi_d2uiz
 1495              	.LVL94:
 1496 002a 80B2     		uxth	r0, r0
 1497 002c FFF7FEFF 		bl	PWM_CondenserLED_WriteCompare
 1498              	.LVL95:
1212:AS76.c        ****     Write_Debug_UART_Int(PWM_Condenser_comare_value);
 1499              		.loc 1 1212 0
 1500 0030 0C48     		ldr	r0, .L120+20
 1501 0032 FFF7FEFF 		bl	Write_Debug_UART_Char
 1502              	.LVL96:
1213:AS76.c        ****     Write_Debug_UART_Char("\r\n");
 1503              		.loc 1 1213 0
 1504 0036 2068     		ldr	r0, [r4]
 1505 0038 FFF7FEFF 		bl	Write_Debug_UART_Int
 1506              	.LVL97:
1214:AS76.c        ****     Write_Debug_UART_Char("Set LED Command Executed  \r\n");
 1507              		.loc 1 1214 0
 1508 003c 0A48     		ldr	r0, .L120+24
 1509 003e FFF7FEFF 		bl	Write_Debug_UART_Char
 1510              	.LVL98:
1215:AS76.c        ****     return 0;
 1511              		.loc 1 1215 0
 1512 0042 0A48     		ldr	r0, .L120+28
 1513 0044 FFF7FEFF 		bl	Write_Debug_UART_Char
 1514              	.LVL99:
1217:AS76.c        **** 
 1515              		.loc 1 1217 0
 1516 0048 0020     		movs	r0, #0
 1517 004a 10BD     		pop	{r4, pc}
 1518              	.L121:
 1519 004c AFF30080 		.align	3
 1520              	.L120:
 1521 0050 33333333 		.word	858993459
 1522 0054 3333E33F 		.word	1071854387
 1523 0058 00000000 		.word	USB_received
 1524 005c 00000000 		.word	.LANCHOR1
 1525 0060 00002440 		.word	1076101120
 1526 0064 E4000000 		.word	.LC10
 1527 0068 B8000000 		.word	.LC8
 1528 006c FC000000 		.word	.LC11
 1529              		.cfi_endproc
 1530              	.LFE83:
 1531              		.size	set_CondenserLED, .-set_CondenserLED
 1532              		.section	.text.UART_print_all_values,"ax",%progbits
 1533              		.align	2
 1534              		.global	UART_print_all_values
 1535              		.thumb
 1536              		.thumb_func
 1537              		.type	UART_print_all_values, %function
 1538              	UART_print_all_values:
ARM GAS  C:\Users\Revanth\AppData\Local\Temp\ccq5TJLm.s 			page 71


 1539              	.LFB101:
2233:AS76.c        **** void UART_print_all_values()
2234:AS76.c        **** {
 1540              		.loc 1 2234 0
 1541              		.cfi_startproc
 1542              		@ args = 0, pretend = 0, frame = 0
 1543              		@ frame_needed = 0, uses_anonymous_args = 0
 1544 0000 08B5     		push	{r3, lr}
 1545              		.cfi_def_cfa_offset 8
 1546              		.cfi_offset 3, -8
 1547              		.cfi_offset 14, -4
2235:AS76.c        ****     Write_Debug_UART_Char("\r\n");
 1548              		.loc 1 2235 0
 1549 0002 0548     		ldr	r0, .L124
 1550 0004 FFF7FEFF 		bl	Write_Debug_UART_Char
 1551              	.LVL100:
2236:AS76.c        ****     Write_Debug_UART_Char("--------------------------------------------------");
 1552              		.loc 1 2236 0
 1553 0008 0448     		ldr	r0, .L124+4
 1554 000a FFF7FEFF 		bl	Write_Debug_UART_Char
 1555              	.LVL101:
2237:AS76.c        ****     Write_Debug_UART_Char("\n");
 1556              		.loc 1 2237 0
 1557 000e 0448     		ldr	r0, .L124+8
 1558 0010 FFF7FEFF 		bl	Write_Debug_UART_Char
 1559              	.LVL102:
 1560 0014 08BD     		pop	{r3, pc}
 1561              	.L125:
 1562 0016 00BF     		.align	2
 1563              	.L124:
 1564 0018 B8000000 		.word	.LC8
 1565 001c 1C010000 		.word	.LC12
 1566 0020 50010000 		.word	.LC13
 1567              		.cfi_endproc
 1568              	.LFE101:
 1569              		.size	UART_print_all_values, .-UART_print_all_values
 1570              		.section	.text.if_all_homing_done,"ax",%progbits
 1571              		.align	2
 1572              		.global	if_all_homing_done
 1573              		.thumb
 1574              		.thumb_func
 1575              		.type	if_all_homing_done, %function
 1576              	if_all_homing_done:
 1577              	.LFB80:
1143:AS76.c        ****     if((HomeY_done == false)&&(Error == 0))
 1578              		.loc 1 1143 0
 1579              		.cfi_startproc
 1580              		@ args = 0, pretend = 0, frame = 0
 1581              		@ frame_needed = 0, uses_anonymous_args = 0
 1582 0000 10B5     		push	{r4, lr}
 1583              		.cfi_def_cfa_offset 8
 1584              		.cfi_offset 4, -8
 1585              		.cfi_offset 14, -4
1144:AS76.c        ****     {
 1586              		.loc 1 1144 0
 1587 0002 184B     		ldr	r3, .L132
 1588 0004 93F82840 		ldrb	r4, [r3, #40]	@ zero_extendqisi2
ARM GAS  C:\Users\Revanth\AppData\Local\Temp\ccq5TJLm.s 			page 72


 1589 0008 54B9     		cbnz	r4, .L127
1144:AS76.c        ****     {
 1590              		.loc 1 1144 0 is_stmt 0 discriminator 1
 1591 000a DB6A     		ldr	r3, [r3, #44]
 1592 000c 43B9     		cbnz	r3, .L127
1146:AS76.c        ****         Write_Debug_UART_Char("Y_Homing_Not_Done_Yet***********[x12]  \r\n");
 1593              		.loc 1 1146 0 is_stmt 1
 1594 000e 0C22     		movs	r2, #12
 1595 0010 144B     		ldr	r3, .L132
 1596 0012 DA62     		str	r2, [r3, #44]
1147:AS76.c        ****         UART_print_all_values();
 1597              		.loc 1 1147 0
 1598 0014 1448     		ldr	r0, .L132+4
 1599 0016 FFF7FEFF 		bl	Write_Debug_UART_Char
 1600              	.LVL103:
1148:AS76.c        ****         return false;
 1601              		.loc 1 1148 0
 1602 001a FFF7FEFF 		bl	UART_print_all_values
 1603              	.LVL104:
1149:AS76.c        ****     }
 1604              		.loc 1 1149 0
 1605 001e 1EE0     		b	.L128
 1606              	.L127:
1151:AS76.c        ****     {
 1607              		.loc 1 1151 0
 1608 0020 104B     		ldr	r3, .L132
 1609 0022 93F83040 		ldrb	r4, [r3, #48]	@ zero_extendqisi2
 1610 0026 54B9     		cbnz	r4, .L129
1151:AS76.c        ****     {
 1611              		.loc 1 1151 0 is_stmt 0 discriminator 1
 1612 0028 DB6A     		ldr	r3, [r3, #44]
 1613 002a 43B9     		cbnz	r3, .L129
1153:AS76.c        ****         Write_Debug_UART_Char("X_Homing_Not_Done_Yet***********  \r\n");
 1614              		.loc 1 1153 0 is_stmt 1
 1615 002c 0622     		movs	r2, #6
 1616 002e 0D4B     		ldr	r3, .L132
 1617 0030 DA62     		str	r2, [r3, #44]
1154:AS76.c        ****         UART_print_all_values();
 1618              		.loc 1 1154 0
 1619 0032 0E48     		ldr	r0, .L132+8
 1620 0034 FFF7FEFF 		bl	Write_Debug_UART_Char
 1621              	.LVL105:
1155:AS76.c        ****         return false;
 1622              		.loc 1 1155 0
 1623 0038 FFF7FEFF 		bl	UART_print_all_values
 1624              	.LVL106:
1156:AS76.c        ****     }
 1625              		.loc 1 1156 0
 1626 003c 0FE0     		b	.L128
 1627              	.L129:
1158:AS76.c        ****     {
 1628              		.loc 1 1158 0
 1629 003e 094B     		ldr	r3, .L132
 1630 0040 93F83140 		ldrb	r4, [r3, #49]	@ zero_extendqisi2
 1631 0044 5CB9     		cbnz	r4, .L128
1158:AS76.c        ****     {
 1632              		.loc 1 1158 0 is_stmt 0 discriminator 1
ARM GAS  C:\Users\Revanth\AppData\Local\Temp\ccq5TJLm.s 			page 73


 1633 0046 DB6A     		ldr	r3, [r3, #44]
 1634 0048 43B9     		cbnz	r3, .L130
1160:AS76.c        ****         Write_Debug_UART_Char("Z_Homing_Not_Done_Yet***********  \r\n");
 1635              		.loc 1 1160 0 is_stmt 1
 1636 004a 1222     		movs	r2, #18
 1637 004c 054B     		ldr	r3, .L132
 1638 004e DA62     		str	r2, [r3, #44]
1161:AS76.c        ****         UART_print_all_values();
 1639              		.loc 1 1161 0
 1640 0050 0748     		ldr	r0, .L132+12
 1641 0052 FFF7FEFF 		bl	Write_Debug_UART_Char
 1642              	.LVL107:
1162:AS76.c        ****         return false;
 1643              		.loc 1 1162 0
 1644 0056 FFF7FEFF 		bl	UART_print_all_values
 1645              	.LVL108:
1163:AS76.c        ****     } 
 1646              		.loc 1 1163 0
 1647 005a 00E0     		b	.L128
 1648              	.L130:
1174:AS76.c        ****     }
 1649              		.loc 1 1174 0
 1650 005c 0124     		movs	r4, #1
 1651              	.L128:
1176:AS76.c        **** 
 1652              		.loc 1 1176 0
 1653 005e 2046     		mov	r0, r4
 1654 0060 10BD     		pop	{r4, pc}
 1655              	.L133:
 1656 0062 00BF     		.align	2
 1657              	.L132:
 1658 0064 00000000 		.word	.LANCHOR0
 1659 0068 54010000 		.word	.LC14
 1660 006c 80010000 		.word	.LC15
 1661 0070 A8010000 		.word	.LC16
 1662              		.cfi_endproc
 1663              	.LFE80:
 1664              		.size	if_all_homing_done, .-if_all_homing_done
 1665              		.section	.text.Is_USB_Unpluged,"ax",%progbits
 1666              		.align	2
 1667              		.global	Is_USB_Unpluged
 1668              		.thumb
 1669              		.thumb_func
 1670              		.type	Is_USB_Unpluged, %function
 1671              	Is_USB_Unpluged:
 1672              	.LFB96:
2177:AS76.c        ****    static bool dont_Execute_1st_Time=false;
 1673              		.loc 1 2177 0
 1674              		.cfi_startproc
 1675              		@ args = 0, pretend = 0, frame = 0
 1676              		@ frame_needed = 0, uses_anonymous_args = 0
 1677 0000 08B5     		push	{r3, lr}
 1678              		.cfi_def_cfa_offset 8
 1679              		.cfi_offset 3, -8
 1680              		.cfi_offset 14, -4
2179:AS76.c        ****    {
 1681              		.loc 1 2179 0
ARM GAS  C:\Users\Revanth\AppData\Local\Temp\ccq5TJLm.s 			page 74


 1682 0002 FFF7FEFF 		bl	USB_IsConfigurationChanged
 1683              	.LVL109:
 1684 0006 B0B1     		cbz	r0, .L134
2181:AS76.c        ****        if(USB_GetConfiguration() != 0)
 1685              		.loc 1 2181 0
 1686 0008 FFF7FEFF 		bl	Beep_Twice
 1687              	.LVL110:
2182:AS76.c        ****        {
 1688              		.loc 1 2182 0
 1689 000c FFF7FEFF 		bl	USB_GetConfiguration
 1690              	.LVL111:
 1691 0010 88B1     		cbz	r0, .L134
2184:AS76.c        ****             {
 1692              		.loc 1 2184 0
 1693 0012 094B     		ldr	r3, .L138
 1694 0014 93F83230 		ldrb	r3, [r3, #50]	@ zero_extendqisi2
 1695 0018 4BB1     		cbz	r3, .L136
2186:AS76.c        ****                 UART_print_all_values();
 1696              		.loc 1 2186 0
 1697 001a 0848     		ldr	r0, .L138+4
 1698 001c FFF7FEFF 		bl	Write_Debug_UART_Char
 1699              	.LVL112:
2187:AS76.c        ****                 CyDelay(1);
 1700              		.loc 1 2187 0
 1701 0020 FFF7FEFF 		bl	UART_print_all_values
 1702              	.LVL113:
2188:AS76.c        ****                 CySoftwareReset();
 1703              		.loc 1 2188 0
 1704 0024 0120     		movs	r0, #1
 1705 0026 FFF7FEFF 		bl	CyDelay
 1706              	.LVL114:
2189:AS76.c        ****             }
 1707              		.loc 1 2189 0
 1708 002a FFF7FEFF 		bl	CySoftwareReset
 1709              	.LVL115:
 1710              	.L136:
2191:AS76.c        ****        }
 1711              		.loc 1 2191 0
 1712 002e 0122     		movs	r2, #1
 1713 0030 014B     		ldr	r3, .L138
 1714 0032 83F83220 		strb	r2, [r3, #50]
 1715              	.L134:
 1716 0036 08BD     		pop	{r3, pc}
 1717              	.L139:
 1718              		.align	2
 1719              	.L138:
 1720 0038 00000000 		.word	.LANCHOR0
 1721 003c D0010000 		.word	.LC17
 1722              		.cfi_endproc
 1723              	.LFE96:
 1724              		.size	Is_USB_Unpluged, .-Is_USB_Unpluged
 1725              		.section	.text.Data_To_Transfer,"ax",%progbits
 1726              		.align	2
 1727              		.global	Data_To_Transfer
 1728              		.thumb
 1729              		.thumb_func
 1730              		.type	Data_To_Transfer, %function
ARM GAS  C:\Users\Revanth\AppData\Local\Temp\ccq5TJLm.s 			page 75


 1731              	Data_To_Transfer:
 1732              	.LFB102:
2238:AS76.c        **** 
2239:AS76.c        **** }
2240:AS76.c        **** //USB Functions Stop-------------------------------------------------------
2241:AS76.c        **** 
2242:AS76.c        **** 
2243:AS76.c        **** //L6470 Motor Driver Functions Stop-------------------------------------------------------
2244:AS76.c        **** 
2245:AS76.c        **** 
2246:AS76.c        **** uint8_t Data_To_Transfer(uint8_t data)
2247:AS76.c        **** {   
 1733              		.loc 1 2247 0
 1734              		.cfi_startproc
 1735              		@ args = 0, pretend = 0, frame = 0
 1736              		@ frame_needed = 0, uses_anonymous_args = 0
 1737              	.LVL116:
 1738 0000 08B5     		push	{r3, lr}
 1739              		.cfi_def_cfa_offset 8
 1740              		.cfi_offset 3, -8
 1741              		.cfi_offset 14, -4
2248:AS76.c        ****     SPIM_WriteTxData(data);
 1742              		.loc 1 2248 0
 1743 0002 FFF7FEFF 		bl	SPIM_WriteTxData
 1744              	.LVL117:
2249:AS76.c        ****     CyDelayUs(10);
 1745              		.loc 1 2249 0
 1746 0006 0A20     		movs	r0, #10
 1747 0008 FFF7FEFF 		bl	CyDelayUs
 1748              	.LVL118:
2250:AS76.c        ****     return 1;
2251:AS76.c        **** }
 1749              		.loc 1 2251 0
 1750 000c 0120     		movs	r0, #1
 1751 000e 08BD     		pop	{r3, pc}
 1752              		.cfi_endproc
 1753              	.LFE102:
 1754              		.size	Data_To_Transfer, .-Data_To_Transfer
 1755              		.section	.text.SPI_MOTOR_CHIP_SELECT,"ax",%progbits
 1756              		.align	2
 1757              		.global	SPI_MOTOR_CHIP_SELECT
 1758              		.thumb
 1759              		.thumb_func
 1760              		.type	SPI_MOTOR_CHIP_SELECT, %function
 1761              	SPI_MOTOR_CHIP_SELECT:
 1762              	.LFB103:
2252:AS76.c        **** 
2253:AS76.c        **** 
2254:AS76.c        **** 
2255:AS76.c        **** /* --------------------------------------------------------------------------------------------
2256:AS76.c        **** Function Name        : SPI_MOTOR_CHIP_SELECT
2257:AS76.c        **** 
2258:AS76.c        **** Prerequist Knowledge : SPI Communication Protocol, SCI Chip Select Pin, GPIO, SWITCH Statement
2259:AS76.c        **** 
2260:AS76.c        **** Function Description : This Function is used to assert or de-assert the chipselect pin of
2261:AS76.c        ****                        selected driver IC.
2262:AS76.c        **** 
ARM GAS  C:\Users\Revanth\AppData\Local\Temp\ccq5TJLm.s 			page 76


2263:AS76.c        **** Return Type & Data   : Void
2264:AS76.c        **** 
2265:AS76.c        **** Numnber of Arguments : 2
2266:AS76.c        **** 
2267:AS76.c        **** -----Argument 1-----
2268:AS76.c        **** Name                 : Motor
2269:AS76.c        **** Tupe                 : uint8_t
2270:AS76.c        **** Description          : This Argument Represents the driver channel
2271:AS76.c        **** Condition            : This Value must range from 0x00 to 0x04 since there are only 5 channels
2272:AS76.c        ****                        available in AS76 System Configuration
2273:AS76.c        **** --------------------
2274:AS76.c        **** 
2275:AS76.c        **** -----Argument 2-----
2276:AS76.c        **** Name                 : Value
2277:AS76.c        **** Tupe                 : uint8_t
2278:AS76.c        **** Description          : This Argument Represents the GPIO Level
2279:AS76.c        **** Condition            : This Value must either 0x00 or 0xFF (Low/High)
2280:AS76.c        **** --------------------
2281:AS76.c        **** 
2282:AS76.c        **** ---------------------------------------------------------------------------------------------*/
2283:AS76.c        **** 
2284:AS76.c        **** void SPI_MOTOR_CHIP_SELECT (uint8_t Motor, uint8_t Value)
2285:AS76.c        **** {
 1763              		.loc 1 2285 0
 1764              		.cfi_startproc
 1765              		@ args = 0, pretend = 0, frame = 0
 1766              		@ frame_needed = 0, uses_anonymous_args = 0
 1767              	.LVL119:
 1768 0000 10B5     		push	{r4, lr}
 1769              		.cfi_def_cfa_offset 8
 1770              		.cfi_offset 4, -8
 1771              		.cfi_offset 14, -4
2286:AS76.c        ****     
2287:AS76.c        **** if ((Value == 0x00) || (Value == 0xFF))  // Condition to check for valid GPIO Value
 1772              		.loc 1 2287 0
 1773 0002 4B1E     		subs	r3, r1, #1
 1774 0004 DBB2     		uxtb	r3, r3
 1775 0006 FD2B     		cmp	r3, #253
 1776 0008 3DD9     		bls	.L143
 1777 000a 0C46     		mov	r4, r1
2288:AS76.c        **** {
2289:AS76.c        ****  switch (Motor) // Condition to select correct motor driver channel
 1778              		.loc 1 2289 0
 1779 000c 0428     		cmp	r0, #4
 1780 000e 36D8     		bhi	.L144
 1781 0010 DFE800F0 		tbb	[pc, r0]
 1782              	.L146:
 1783 0014 03       		.byte	(.L145-.L146)/2
 1784 0015 0D       		.byte	(.L147-.L146)/2
 1785 0016 17       		.byte	(.L148-.L146)/2
 1786 0017 21       		.byte	(.L149-.L146)/2
 1787 0018 2B       		.byte	(.L150-.L146)/2
 1788 0019 00       		.p2align 1
 1789              	.L145:
2290:AS76.c        ****     {
2291:AS76.c        ****     case 0x00:
2292:AS76.c        ****         {
ARM GAS  C:\Users\Revanth\AppData\Local\Temp\ccq5TJLm.s 			page 77


2293:AS76.c        ****           CyDelayUs(10);
 1790              		.loc 1 2293 0
 1791 001a 0A20     		movs	r0, #10
 1792              	.LVL120:
 1793 001c FFF7FEFF 		bl	CyDelayUs
 1794              	.LVL121:
2294:AS76.c        ****           Pin_CSMotorX_Write(Value);
 1795              		.loc 1 2294 0
 1796 0020 2046     		mov	r0, r4
 1797 0022 FFF7FEFF 		bl	Pin_CSMotorX_Write
 1798              	.LVL122:
2295:AS76.c        ****           CyDelayUs(10);
 1799              		.loc 1 2295 0
 1800 0026 0A20     		movs	r0, #10
 1801 0028 FFF7FEFF 		bl	CyDelayUs
 1802              	.LVL123:
2296:AS76.c        ****          // Write_Debug_UART_Char("Motor Channel 1 asserted/de-asserted for SPI Read/Write  \r\n");
2297:AS76.c        ****           break;
 1803              		.loc 1 2297 0
 1804 002c 10BD     		pop	{r4, pc}
 1805              	.LVL124:
 1806              	.L147:
2298:AS76.c        ****         }
2299:AS76.c        ****     case 0x01:
2300:AS76.c        ****         {
2301:AS76.c        ****           CyDelayUs(10);
 1807              		.loc 1 2301 0
 1808 002e 0A20     		movs	r0, #10
 1809              	.LVL125:
 1810 0030 FFF7FEFF 		bl	CyDelayUs
 1811              	.LVL126:
2302:AS76.c        ****           Pin_CSMotorY_Write(Value);
 1812              		.loc 1 2302 0
 1813 0034 2046     		mov	r0, r4
 1814 0036 FFF7FEFF 		bl	Pin_CSMotorY_Write
 1815              	.LVL127:
2303:AS76.c        ****           CyDelayUs(10);
 1816              		.loc 1 2303 0
 1817 003a 0A20     		movs	r0, #10
 1818 003c FFF7FEFF 		bl	CyDelayUs
 1819              	.LVL128:
2304:AS76.c        ****          // Write_Debug_UART_Char("Motor Channel 2 asserted/de-asserted for SPI Read/Write  \r\n");
2305:AS76.c        ****           break;
 1820              		.loc 1 2305 0
 1821 0040 10BD     		pop	{r4, pc}
 1822              	.LVL129:
 1823              	.L148:
2306:AS76.c        ****         }
2307:AS76.c        ****         case 0x02:
2308:AS76.c        ****         {
2309:AS76.c        ****           CyDelayUs(10);
 1824              		.loc 1 2309 0
 1825 0042 0A20     		movs	r0, #10
 1826              	.LVL130:
 1827 0044 FFF7FEFF 		bl	CyDelayUs
 1828              	.LVL131:
2310:AS76.c        ****           Pin_CSMotorZ_Write(Value);
ARM GAS  C:\Users\Revanth\AppData\Local\Temp\ccq5TJLm.s 			page 78


 1829              		.loc 1 2310 0
 1830 0048 2046     		mov	r0, r4
 1831 004a FFF7FEFF 		bl	Pin_CSMotorZ_Write
 1832              	.LVL132:
2311:AS76.c        ****          // Write_Debug_UART_Char("Motor Channel 3 asserted/de-asserted for SPI Read/Write  \r\n");
2312:AS76.c        ****           CyDelayUs(10);
 1833              		.loc 1 2312 0
 1834 004e 0A20     		movs	r0, #10
 1835 0050 FFF7FEFF 		bl	CyDelayUs
 1836              	.LVL133:
2313:AS76.c        ****           break;
 1837              		.loc 1 2313 0
 1838 0054 10BD     		pop	{r4, pc}
 1839              	.LVL134:
 1840              	.L149:
2314:AS76.c        ****         }
2315:AS76.c        ****         case 0x03:
2316:AS76.c        ****         {
2317:AS76.c        ****           CyDelayUs(10);
 1841              		.loc 1 2317 0
 1842 0056 0A20     		movs	r0, #10
 1843              	.LVL135:
 1844 0058 FFF7FEFF 		bl	CyDelayUs
 1845              	.LVL136:
2318:AS76.c        ****           Pin_CSMotorT_Write(Value);
 1846              		.loc 1 2318 0
 1847 005c 2046     		mov	r0, r4
 1848 005e FFF7FEFF 		bl	Pin_CSMotorT_Write
 1849              	.LVL137:
2319:AS76.c        ****         //  Write_Debug_UART_Char("Motor Channel 4 asserted/de-asserted for SPI Read/Write  \r\n");
2320:AS76.c        ****           CyDelayUs(10);
 1850              		.loc 1 2320 0
 1851 0062 0A20     		movs	r0, #10
 1852 0064 FFF7FEFF 		bl	CyDelayUs
 1853              	.LVL138:
2321:AS76.c        ****           break;
 1854              		.loc 1 2321 0
 1855 0068 10BD     		pop	{r4, pc}
 1856              	.LVL139:
 1857              	.L150:
2322:AS76.c        ****         }
2323:AS76.c        ****         case 0x04:
2324:AS76.c        ****         {
2325:AS76.c        ****           CyDelayUs(10);
 1858              		.loc 1 2325 0
 1859 006a 0A20     		movs	r0, #10
 1860              	.LVL140:
 1861 006c FFF7FEFF 		bl	CyDelayUs
 1862              	.LVL141:
2326:AS76.c        ****           Pin_CSMotorO_Write(Value);
 1863              		.loc 1 2326 0
 1864 0070 2046     		mov	r0, r4
 1865 0072 FFF7FEFF 		bl	Pin_CSMotorO_Write
 1866              	.LVL142:
2327:AS76.c        ****         //  Write_Debug_UART_Char("Motor Channel 5 asserted/de-asserted for SPI Read/Write  \r\n");
2328:AS76.c        ****           CyDelayUs(10);
 1867              		.loc 1 2328 0
ARM GAS  C:\Users\Revanth\AppData\Local\Temp\ccq5TJLm.s 			page 79


 1868 0076 0A20     		movs	r0, #10
 1869 0078 FFF7FEFF 		bl	CyDelayUs
 1870              	.LVL143:
2329:AS76.c        ****           break;
 1871              		.loc 1 2329 0
 1872 007c 10BD     		pop	{r4, pc}
 1873              	.LVL144:
 1874              	.L144:
2330:AS76.c        ****         }
2331:AS76.c        ****         
2332:AS76.c        ****         default : // If Invalid motor channel selected print error message
2333:AS76.c        ****         {
2334:AS76.c        ****             Write_Debug_UART_Char("No Valid Driver nCS asserted/de-asserted for SPI Read/Write  \r\
 1875              		.loc 1 2334 0
 1876 007e 0448     		ldr	r0, .L153
 1877              	.LVL145:
 1878 0080 FFF7FEFF 		bl	Write_Debug_UART_Char
 1879              	.LVL146:
 1880 0084 10BD     		pop	{r4, pc}
 1881              	.LVL147:
 1882              	.L143:
2335:AS76.c        ****         }
2336:AS76.c        ****     } 
2337:AS76.c        **** }
2338:AS76.c        **** else // If Invalid GPIO Value given, print error message
2339:AS76.c        **** {
2340:AS76.c        ****    Write_Debug_UART_Char("Invalid GPIO Level Value, Unable to assert/de-assert nCSN Pin for SPI Rea
 1883              		.loc 1 2340 0
 1884 0086 0348     		ldr	r0, .L153+4
 1885              	.LVL148:
 1886 0088 FFF7FEFF 		bl	Write_Debug_UART_Char
 1887              	.LVL149:
 1888 008c 10BD     		pop	{r4, pc}
 1889              	.L154:
 1890 008e 00BF     		.align	2
 1891              	.L153:
 1892 0090 FC010000 		.word	.LC18
 1893 0094 3C020000 		.word	.LC19
 1894              		.cfi_endproc
 1895              	.LFE103:
 1896              		.size	SPI_MOTOR_CHIP_SELECT, .-SPI_MOTOR_CHIP_SELECT
 1897              		.section	.text.Read_32bitSPI_DATA,"ax",%progbits
 1898              		.align	2
 1899              		.global	Read_32bitSPI_DATA
 1900              		.thumb
 1901              		.thumb_func
 1902              		.type	Read_32bitSPI_DATA, %function
 1903              	Read_32bitSPI_DATA:
 1904              	.LFB104:
2341:AS76.c        **** }
2342:AS76.c        **** }
2343:AS76.c        **** 
2344:AS76.c        **** //-------------------------- [] END OF SPI_MOTOR_CHIP_SELECT Function ---------------------------
2345:AS76.c        **** 
2346:AS76.c        **** 
2347:AS76.c        **** /* --------------------------------------------------------------------------------------------
2348:AS76.c        **** Function Name        : Read_32bitSPI_DATA
ARM GAS  C:\Users\Revanth\AppData\Local\Temp\ccq5TJLm.s 			page 80


2349:AS76.c        **** 
2350:AS76.c        **** Prerequist Knowledge : SPI Communication Protocol, TMC5160 SPI Communication Protocol
2351:AS76.c        **** 
2352:AS76.c        **** Function Description : This Function is used to read 32bit data from the driver register
2353:AS76.c        ****                        using 32bit SPI communication protocol specific to TMC5160.
2354:AS76.c        **** 
2355:AS76.c        **** Return Type & Data   :32 bit signed or unsigned integer which was fetched from the register
2356:AS76.c        **** 
2357:AS76.c        **** Numnber of Arguments : 2
2358:AS76.c        **** 
2359:AS76.c        **** -----Argument 1-----
2360:AS76.c        **** Name                 : ADDR
2361:AS76.c        **** Tupe                 : uint8_t
2362:AS76.c        **** Description          : The Address of the TMC5160 Register from which data needs to be read
2363:AS76.c        **** Condition            : Nil
2364:AS76.c        **** --------------------
2365:AS76.c        **** 
2366:AS76.c        **** -----Argument 2-----
2367:AS76.c        **** Name                 : Motor
2368:AS76.c        **** Tupe                 : uint8_t
2369:AS76.c        **** Description          : This Argument Represents the driver channel
2370:AS76.c        **** Condition            : This Value must range from 0x00 to 0x04 since there are only 5 channels
2371:AS76.c        ****                        available in AS76 System Configuration, condition to be checked in 
2372:AS76.c        ****                        SPI_MOTOR_CHIP_SELECT Function                       
2373:AS76.c        **** --------------------
2374:AS76.c        **** 
2375:AS76.c        **** 
2376:AS76.c        **** ---------------------------------------------------------------------------------------------*/
2377:AS76.c        **** 
2378:AS76.c        **** 
2379:AS76.c        **** int Read_32bitSPI_DATA(uint8_t ADDR, uint8_t Motor, uint8_t* motor_status )
2380:AS76.c        **** {
 1905              		.loc 1 2380 0
 1906              		.cfi_startproc
 1907              		@ args = 0, pretend = 0, frame = 0
 1908              		@ frame_needed = 0, uses_anonymous_args = 0
 1909              	.LVL150:
 1910 0000 F8B5     		push	{r3, r4, r5, r6, r7, lr}
 1911              		.cfi_def_cfa_offset 24
 1912              		.cfi_offset 3, -24
 1913              		.cfi_offset 4, -20
 1914              		.cfi_offset 5, -16
 1915              		.cfi_offset 6, -12
 1916              		.cfi_offset 7, -8
 1917              		.cfi_offset 14, -4
 1918 0002 0646     		mov	r6, r0
 1919 0004 0D46     		mov	r5, r1
 1920 0006 1746     		mov	r7, r2
 1921              	.LVL151:
2381:AS76.c        ****                 uint32_t SPI_DATA_VALUE = 0;
2382:AS76.c        ****                
2383:AS76.c        ****                
2384:AS76.c        ****                 SPI_MOTOR_CHIP_SELECT (Motor, 0x00);  
 1922              		.loc 1 2384 0
 1923 0008 0021     		movs	r1, #0
 1924              	.LVL152:
 1925 000a 2846     		mov	r0, r5
ARM GAS  C:\Users\Revanth\AppData\Local\Temp\ccq5TJLm.s 			page 81


 1926              	.LVL153:
 1927 000c FFF7FEFF 		bl	SPI_MOTOR_CHIP_SELECT
 1928              	.LVL154:
2385:AS76.c        ****                 
2386:AS76.c        ****                 Data_To_Transfer(ADDR & 0x7F);                
 1929              		.loc 1 2386 0
 1930 0010 06F07F06 		and	r6, r6, #127
 1931 0014 3046     		mov	r0, r6
 1932 0016 FFF7FEFF 		bl	Data_To_Transfer
 1933              	.LVL155:
2387:AS76.c        ****                 Data_To_Transfer(0x00);                
 1934              		.loc 1 2387 0
 1935 001a 0020     		movs	r0, #0
 1936 001c FFF7FEFF 		bl	Data_To_Transfer
 1937              	.LVL156:
2388:AS76.c        ****                 Data_To_Transfer(0x00);                
 1938              		.loc 1 2388 0
 1939 0020 0020     		movs	r0, #0
 1940 0022 FFF7FEFF 		bl	Data_To_Transfer
 1941              	.LVL157:
2389:AS76.c        ****                 Data_To_Transfer(0x00);                
 1942              		.loc 1 2389 0
 1943 0026 0020     		movs	r0, #0
 1944 0028 FFF7FEFF 		bl	Data_To_Transfer
 1945              	.LVL158:
2390:AS76.c        ****                 Data_To_Transfer(0x00); 
 1946              		.loc 1 2390 0
 1947 002c 0020     		movs	r0, #0
 1948 002e FFF7FEFF 		bl	Data_To_Transfer
 1949              	.LVL159:
2391:AS76.c        ****                 
2392:AS76.c        ****                 SPI_MOTOR_CHIP_SELECT (Motor, 0xFF); 
 1950              		.loc 1 2392 0
 1951 0032 FF21     		movs	r1, #255
 1952 0034 2846     		mov	r0, r5
 1953 0036 FFF7FEFF 		bl	SPI_MOTOR_CHIP_SELECT
 1954              	.LVL160:
2393:AS76.c        ****                 
2394:AS76.c        ****                 CyDelay(1);
 1955              		.loc 1 2394 0
 1956 003a 0120     		movs	r0, #1
 1957 003c FFF7FEFF 		bl	CyDelay
 1958              	.LVL161:
2395:AS76.c        ****                 
2396:AS76.c        ****                 SPI_MOTOR_CHIP_SELECT (Motor, 0x00);
 1959              		.loc 1 2396 0
 1960 0040 0021     		movs	r1, #0
 1961 0042 2846     		mov	r0, r5
 1962 0044 FFF7FEFF 		bl	SPI_MOTOR_CHIP_SELECT
 1963              	.LVL162:
2397:AS76.c        ****                 
2398:AS76.c        ****                 Data_To_Transfer(ADDR & 0x7F);
 1964              		.loc 1 2398 0
 1965 0048 3046     		mov	r0, r6
 1966 004a FFF7FEFF 		bl	Data_To_Transfer
 1967              	.LVL163:
2399:AS76.c        ****                 *motor_status = SPIM_ReadRxData();
ARM GAS  C:\Users\Revanth\AppData\Local\Temp\ccq5TJLm.s 			page 82


 1968              		.loc 1 2399 0
 1969 004e FFF7FEFF 		bl	SPIM_ReadRxData
 1970              	.LVL164:
 1971 0052 3870     		strb	r0, [r7]
2400:AS76.c        ****                 Data_To_Transfer(0x00);
 1972              		.loc 1 2400 0
 1973 0054 0020     		movs	r0, #0
 1974 0056 FFF7FEFF 		bl	Data_To_Transfer
 1975              	.LVL165:
2401:AS76.c        ****                 SPI_DATA_VALUE |= (uint32_t) SPIM_ReadRxData() << 24;
 1976              		.loc 1 2401 0
 1977 005a FFF7FEFF 		bl	SPIM_ReadRxData
 1978              	.LVL166:
 1979 005e 0406     		lsls	r4, r0, #24
 1980              	.LVL167:
2402:AS76.c        ****                 Data_To_Transfer(0x00);
 1981              		.loc 1 2402 0
 1982 0060 0020     		movs	r0, #0
 1983 0062 FFF7FEFF 		bl	Data_To_Transfer
 1984              	.LVL168:
2403:AS76.c        ****                 SPI_DATA_VALUE |= (uint32_t) SPIM_ReadRxData() << 16;
 1985              		.loc 1 2403 0
 1986 0066 FFF7FEFF 		bl	SPIM_ReadRxData
 1987              	.LVL169:
 1988 006a 44EA0044 		orr	r4, r4, r0, lsl #16
 1989              	.LVL170:
2404:AS76.c        ****                 Data_To_Transfer(0x00);
 1990              		.loc 1 2404 0
 1991 006e 0020     		movs	r0, #0
 1992 0070 FFF7FEFF 		bl	Data_To_Transfer
 1993              	.LVL171:
2405:AS76.c        ****                 SPI_DATA_VALUE |= (uint32_t) SPIM_ReadRxData() << 8; 
 1994              		.loc 1 2405 0
 1995 0074 FFF7FEFF 		bl	SPIM_ReadRxData
 1996              	.LVL172:
 1997 0078 44EA0024 		orr	r4, r4, r0, lsl #8
 1998              	.LVL173:
2406:AS76.c        ****                 Data_To_Transfer(0x00); 
 1999              		.loc 1 2406 0
 2000 007c 0020     		movs	r0, #0
 2001 007e FFF7FEFF 		bl	Data_To_Transfer
 2002              	.LVL174:
2407:AS76.c        ****                 SPI_DATA_VALUE |= (uint32_t) SPIM_ReadRxData();
 2003              		.loc 1 2407 0
 2004 0082 FFF7FEFF 		bl	SPIM_ReadRxData
 2005              	.LVL175:
 2006 0086 0443     		orrs	r4, r4, r0
 2007              	.LVL176:
2408:AS76.c        ****                 
2409:AS76.c        ****                 SPI_MOTOR_CHIP_SELECT (Motor, 0xFF);
 2008              		.loc 1 2409 0
 2009 0088 FF21     		movs	r1, #255
 2010 008a 2846     		mov	r0, r5
 2011 008c FFF7FEFF 		bl	SPI_MOTOR_CHIP_SELECT
 2012              	.LVL177:
2410:AS76.c        **** 
2411:AS76.c        ****                 CyDelay(1);
ARM GAS  C:\Users\Revanth\AppData\Local\Temp\ccq5TJLm.s 			page 83


 2013              		.loc 1 2411 0
 2014 0090 0120     		movs	r0, #1
 2015 0092 FFF7FEFF 		bl	CyDelay
 2016              	.LVL178:
2412:AS76.c        ****                 
2413:AS76.c        ****                 SPI_MOTOR_CHIP_SELECT (Motor, 0x00);
 2017              		.loc 1 2413 0
 2018 0096 0021     		movs	r1, #0
 2019 0098 2846     		mov	r0, r5
 2020 009a FFF7FEFF 		bl	SPI_MOTOR_CHIP_SELECT
 2021              	.LVL179:
2414:AS76.c        ****                 
2415:AS76.c        ****                 Data_To_Transfer(ADDR & 0x7F);
 2022              		.loc 1 2415 0
 2023 009e 3046     		mov	r0, r6
 2024 00a0 FFF7FEFF 		bl	Data_To_Transfer
 2025              	.LVL180:
2416:AS76.c        ****                 *motor_status = SPIM_ReadRxData();
 2026              		.loc 1 2416 0
 2027 00a4 FFF7FEFF 		bl	SPIM_ReadRxData
 2028              	.LVL181:
 2029 00a8 3870     		strb	r0, [r7]
2417:AS76.c        ****                 Data_To_Transfer(0x00);
 2030              		.loc 1 2417 0
 2031 00aa 0020     		movs	r0, #0
 2032 00ac FFF7FEFF 		bl	Data_To_Transfer
 2033              	.LVL182:
2418:AS76.c        ****                 SPI_DATA_VALUE |= (uint32_t) SPIM_ReadRxData() << 24;
 2034              		.loc 1 2418 0
 2035 00b0 FFF7FEFF 		bl	SPIM_ReadRxData
 2036              	.LVL183:
 2037 00b4 44EA0064 		orr	r4, r4, r0, lsl #24
 2038              	.LVL184:
2419:AS76.c        ****                 Data_To_Transfer(0x00);
 2039              		.loc 1 2419 0
 2040 00b8 0020     		movs	r0, #0
 2041 00ba FFF7FEFF 		bl	Data_To_Transfer
 2042              	.LVL185:
2420:AS76.c        ****                 SPI_DATA_VALUE |= (uint32_t) SPIM_ReadRxData() << 16;
 2043              		.loc 1 2420 0
 2044 00be FFF7FEFF 		bl	SPIM_ReadRxData
 2045              	.LVL186:
 2046 00c2 44EA0044 		orr	r4, r4, r0, lsl #16
 2047              	.LVL187:
2421:AS76.c        ****                 Data_To_Transfer(0x00);
 2048              		.loc 1 2421 0
 2049 00c6 0020     		movs	r0, #0
 2050 00c8 FFF7FEFF 		bl	Data_To_Transfer
 2051              	.LVL188:
2422:AS76.c        ****                 SPI_DATA_VALUE |= (uint32_t) SPIM_ReadRxData() << 8; 
 2052              		.loc 1 2422 0
 2053 00cc FFF7FEFF 		bl	SPIM_ReadRxData
 2054              	.LVL189:
 2055 00d0 44EA0024 		orr	r4, r4, r0, lsl #8
 2056              	.LVL190:
2423:AS76.c        ****                 Data_To_Transfer(0x00); 
 2057              		.loc 1 2423 0
ARM GAS  C:\Users\Revanth\AppData\Local\Temp\ccq5TJLm.s 			page 84


 2058 00d4 0020     		movs	r0, #0
 2059 00d6 FFF7FEFF 		bl	Data_To_Transfer
 2060              	.LVL191:
2424:AS76.c        ****                 SPI_DATA_VALUE |= (uint32_t) SPIM_ReadRxData();
 2061              		.loc 1 2424 0
 2062 00da FFF7FEFF 		bl	SPIM_ReadRxData
 2063              	.LVL192:
 2064 00de 0443     		orrs	r4, r4, r0
 2065              	.LVL193:
2425:AS76.c        ****                 
2426:AS76.c        ****                 SPI_MOTOR_CHIP_SELECT (Motor, 0xFF);
 2066              		.loc 1 2426 0
 2067 00e0 FF21     		movs	r1, #255
 2068 00e2 2846     		mov	r0, r5
 2069 00e4 FFF7FEFF 		bl	SPI_MOTOR_CHIP_SELECT
 2070              	.LVL194:
2427:AS76.c        ****                 
2428:AS76.c        ****                 
2429:AS76.c        ****                 return SPI_DATA_VALUE;
2430:AS76.c        **** }
 2071              		.loc 1 2430 0
 2072 00e8 2046     		mov	r0, r4
 2073 00ea F8BD     		pop	{r3, r4, r5, r6, r7, pc}
 2074              		.cfi_endproc
 2075              	.LFE104:
 2076              		.size	Read_32bitSPI_DATA, .-Read_32bitSPI_DATA
 2077              		.section	.text.Write_32bitSPI_DATA,"ax",%progbits
 2078              		.align	2
 2079              		.global	Write_32bitSPI_DATA
 2080              		.thumb
 2081              		.thumb_func
 2082              		.type	Write_32bitSPI_DATA, %function
 2083              	Write_32bitSPI_DATA:
 2084              	.LFB105:
2431:AS76.c        **** 
2432:AS76.c        **** //-------------------------- [] END OF Read_32bitSPI_DATA Function ---------------------------
2433:AS76.c        **** 
2434:AS76.c        **** 
2435:AS76.c        **** /* --------------------------------------------------------------------------------------------
2436:AS76.c        **** Function Name        : Write_32bitSPI_DATA
2437:AS76.c        **** 
2438:AS76.c        **** Prerequist Knowledge : SPI Communication Protocol, TMC5160 SPI Communication Protocol
2439:AS76.c        **** 
2440:AS76.c        **** Function Description : This Function is used to write 32bit data to the driver register
2441:AS76.c        ****                        using 32bit SPI communication protocol specific to TMC5160.
2442:AS76.c        **** 
2443:AS76.c        **** Return Type & Data   :Void
2444:AS76.c        **** 
2445:AS76.c        **** Numnber of Arguments : 3
2446:AS76.c        **** 
2447:AS76.c        **** -----Argument 1-----
2448:AS76.c        **** Name                 : ADDR
2449:AS76.c        **** Tupe                 : uint8_t
2450:AS76.c        **** Description          : The Address of the TMC5160 Register to which data needs to be written
2451:AS76.c        **** Condition            : Nil
2452:AS76.c        **** --------------------
2453:AS76.c        **** 
ARM GAS  C:\Users\Revanth\AppData\Local\Temp\ccq5TJLm.s 			page 85


2454:AS76.c        **** -----Argument 2-----
2455:AS76.c        **** Name                 : data
2456:AS76.c        **** Tupe                 : uint8_t
2457:AS76.c        **** Description          : The 32bit data that needs to be written to TMC5160 register
2458:AS76.c        **** Condition            : Nil
2459:AS76.c        **** --------------------
2460:AS76.c        **** 
2461:AS76.c        **** -----Argument 3-----
2462:AS76.c        **** Name                 : Motor
2463:AS76.c        **** Tupe                 : uint8_t
2464:AS76.c        **** Description          : This Argument Represents the driver channel
2465:AS76.c        **** Condition            : This Value must range from 0x00 to 0x04 since there are only 5 channels
2466:AS76.c        ****                        available in AS76 System Configuration, condition to be checked in 
2467:AS76.c        ****                        SPI_MOTOR_CHIP_SELECT Function                       
2468:AS76.c        **** --------------------
2469:AS76.c        **** 
2470:AS76.c        **** ---------------------------------------------------------------------------------------------*/
2471:AS76.c        **** 
2472:AS76.c        **** void Write_32bitSPI_DATA (uint8_t ADDR, int data, uint8_t Motor)
2473:AS76.c        **** {
 2085              		.loc 1 2473 0
 2086              		.cfi_startproc
 2087              		@ args = 0, pretend = 0, frame = 0
 2088              		@ frame_needed = 0, uses_anonymous_args = 0
 2089              	.LVL195:
 2090 0000 70B5     		push	{r4, r5, r6, lr}
 2091              		.cfi_def_cfa_offset 16
 2092              		.cfi_offset 4, -16
 2093              		.cfi_offset 5, -12
 2094              		.cfi_offset 6, -8
 2095              		.cfi_offset 14, -4
 2096 0002 0646     		mov	r6, r0
 2097 0004 0C46     		mov	r4, r1
 2098 0006 1546     		mov	r5, r2
2474:AS76.c        ****  
2475:AS76.c        ****                 SPI_MOTOR_CHIP_SELECT (Motor, 0x00);
 2099              		.loc 1 2475 0
 2100 0008 0021     		movs	r1, #0
 2101              	.LVL196:
 2102 000a 1046     		mov	r0, r2
 2103              	.LVL197:
 2104 000c FFF7FEFF 		bl	SPI_MOTOR_CHIP_SELECT
 2105              	.LVL198:
2476:AS76.c        ****                 Data_To_Transfer(ADDR | 0x80);                
 2106              		.loc 1 2476 0
 2107 0010 46F08000 		orr	r0, r6, #128
 2108 0014 FFF7FEFF 		bl	Data_To_Transfer
 2109              	.LVL199:
2477:AS76.c        ****                 Data_To_Transfer((data & 0xFF000000) >> 24);
 2110              		.loc 1 2477 0
 2111 0018 200E     		lsrs	r0, r4, #24
 2112 001a FFF7FEFF 		bl	Data_To_Transfer
 2113              	.LVL200:
2478:AS76.c        ****                 Data_To_Transfer((data & 0xFF0000) >> 16);
 2114              		.loc 1 2478 0
 2115 001e C4F30740 		ubfx	r0, r4, #16, #8
 2116 0022 FFF7FEFF 		bl	Data_To_Transfer
ARM GAS  C:\Users\Revanth\AppData\Local\Temp\ccq5TJLm.s 			page 86


 2117              	.LVL201:
2479:AS76.c        ****                 Data_To_Transfer((data & 0xFF00) >> 8);
 2118              		.loc 1 2479 0
 2119 0026 C4F30720 		ubfx	r0, r4, #8, #8
 2120 002a FFF7FEFF 		bl	Data_To_Transfer
 2121              	.LVL202:
2480:AS76.c        ****                 Data_To_Transfer(data & 0xFF);     
 2122              		.loc 1 2480 0
 2123 002e E0B2     		uxtb	r0, r4
 2124 0030 FFF7FEFF 		bl	Data_To_Transfer
 2125              	.LVL203:
2481:AS76.c        ****                 SPI_MOTOR_CHIP_SELECT (Motor, 0xFF); 
 2126              		.loc 1 2481 0
 2127 0034 FF21     		movs	r1, #255
 2128 0036 2846     		mov	r0, r5
 2129 0038 FFF7FEFF 		bl	SPI_MOTOR_CHIP_SELECT
 2130              	.LVL204:
 2131 003c 70BD     		pop	{r4, r5, r6, pc}
 2132              		.cfi_endproc
 2133              	.LFE105:
 2134              		.size	Write_32bitSPI_DATA, .-Write_32bitSPI_DATA
 2135 003e 00BF     		.section	.text.GotoPos,"ax",%progbits
 2136              		.align	2
 2137              		.global	GotoPos
 2138              		.thumb
 2139              		.thumb_func
 2140              		.type	GotoPos, %function
 2141              	GotoPos:
 2142              	.LFB66:
 135:AS76.c        ****     Write_32bitSPI_DATA (0x20  , (int) 0x00000000, Motor );
 2143              		.loc 1 135 0
 2144              		.cfi_startproc
 2145              		@ args = 0, pretend = 0, frame = 0
 2146              		@ frame_needed = 0, uses_anonymous_args = 0
 2147              	.LVL205:
 2148 0000 38B5     		push	{r3, r4, r5, lr}
 2149              		.cfi_def_cfa_offset 16
 2150              		.cfi_offset 3, -16
 2151              		.cfi_offset 4, -12
 2152              		.cfi_offset 5, -8
 2153              		.cfi_offset 14, -4
 2154 0002 0546     		mov	r5, r0
 2155 0004 0C46     		mov	r4, r1
 136:AS76.c        ****     Write_32bitSPI_DATA (0x05  , Pos, Motor );
 2156              		.loc 1 136 0
 2157 0006 0A46     		mov	r2, r1
 2158 0008 0021     		movs	r1, #0
 2159              	.LVL206:
 2160 000a 2020     		movs	r0, #32
 2161              	.LVL207:
 2162 000c FFF7FEFF 		bl	Write_32bitSPI_DATA
 2163              	.LVL208:
 137:AS76.c        ****     Write_32bitSPI_DATA (0x2D  , Pos, Motor );   
 2164              		.loc 1 137 0
 2165 0010 2246     		mov	r2, r4
 2166 0012 2946     		mov	r1, r5
 2167 0014 0520     		movs	r0, #5
ARM GAS  C:\Users\Revanth\AppData\Local\Temp\ccq5TJLm.s 			page 87


 2168 0016 FFF7FEFF 		bl	Write_32bitSPI_DATA
 2169              	.LVL209:
 138:AS76.c        **** 
 2170              		.loc 1 138 0
 2171 001a 2246     		mov	r2, r4
 2172 001c 2946     		mov	r1, r5
 2173 001e 2D20     		movs	r0, #45
 2174 0020 FFF7FEFF 		bl	Write_32bitSPI_DATA
 2175              	.LVL210:
 2176 0024 38BD     		pop	{r3, r4, r5, pc}
 2177              		.cfi_endproc
 2178              	.LFE66:
 2179              		.size	GotoPos, .-GotoPos
 2180 0026 00BF     		.section	.text.Initialize_Motor,"ax",%progbits
 2181              		.align	2
 2182              		.global	Initialize_Motor
 2183              		.thumb
 2184              		.thumb_func
 2185              		.type	Initialize_Motor, %function
 2186              	Initialize_Motor:
 2187              	.LFB106:
2482:AS76.c        ****    
2483:AS76.c        ****     
2484:AS76.c        **** }
2485:AS76.c        **** 
2486:AS76.c        **** //-------------------------- [] END OF Write_32bitSPI_DATA Function ---------------------------
2487:AS76.c        **** 
2488:AS76.c        **** void Initialize_Motor(uint8_t Motor)
2489:AS76.c        **** {
 2188              		.loc 1 2489 0
 2189              		.cfi_startproc
 2190              		@ args = 0, pretend = 0, frame = 0
 2191              		@ frame_needed = 0, uses_anonymous_args = 0
 2192              	.LVL211:
 2193 0000 10B5     		push	{r4, lr}
 2194              		.cfi_def_cfa_offset 8
 2195              		.cfi_offset 4, -8
 2196              		.cfi_offset 14, -4
 2197 0002 0446     		mov	r4, r0
2490:AS76.c        ****             Write_32bitSPI_DATA (0x01  , (int) 0x00000005, Motor ); // Global Status Flag Register
 2198              		.loc 1 2490 0
 2199 0004 0246     		mov	r2, r0
 2200 0006 0521     		movs	r1, #5
 2201 0008 0120     		movs	r0, #1
 2202              	.LVL212:
 2203 000a FFF7FEFF 		bl	Write_32bitSPI_DATA
 2204              	.LVL213:
2491:AS76.c        ****             Write_32bitSPI_DATA (0x00  , (int) 0x00000008, Motor ); // Global Configuration Flag Re
 2205              		.loc 1 2491 0
 2206 000e 2246     		mov	r2, r4
 2207 0010 0821     		movs	r1, #8
 2208 0012 0020     		movs	r0, #0
 2209 0014 FFF7FEFF 		bl	Write_32bitSPI_DATA
 2210              	.LVL214:
2492:AS76.c        ****             Write_32bitSPI_DATA (0x03  , (int) 0x00000000, Motor ); // Uart Register
 2211              		.loc 1 2492 0
 2212 0018 2246     		mov	r2, r4
ARM GAS  C:\Users\Revanth\AppData\Local\Temp\ccq5TJLm.s 			page 88


 2213 001a 0021     		movs	r1, #0
 2214 001c 0320     		movs	r0, #3
 2215 001e FFF7FEFF 		bl	Write_32bitSPI_DATA
 2216              	.LVL215:
2493:AS76.c        ****             Write_32bitSPI_DATA (0x05  , (int) 0x00000000, Motor ); // X_COMPARE Register (Position
 2217              		.loc 1 2493 0
 2218 0022 2246     		mov	r2, r4
 2219 0024 0021     		movs	r1, #0
 2220 0026 0520     		movs	r0, #5
 2221 0028 FFF7FEFF 		bl	Write_32bitSPI_DATA
 2222              	.LVL216:
2494:AS76.c        ****             Write_32bitSPI_DATA (0x06  , (int) 0x00000000, Motor ); // OTP_Program Register
 2223              		.loc 1 2494 0
 2224 002c 2246     		mov	r2, r4
 2225 002e 0021     		movs	r1, #0
 2226 0030 0620     		movs	r0, #6
 2227 0032 FFF7FEFF 		bl	Write_32bitSPI_DATA
 2228              	.LVL217:
2495:AS76.c        ****             Write_32bitSPI_DATA (0x08  , (int) 0x0000000F, Motor ); // Factory_Config
 2229              		.loc 1 2495 0
 2230 0036 2246     		mov	r2, r4
 2231 0038 0F21     		movs	r1, #15
 2232 003a 0820     		movs	r0, #8
 2233 003c FFF7FEFF 		bl	Write_32bitSPI_DATA
 2234              	.LVL218:
2496:AS76.c        ****             Write_32bitSPI_DATA (0x09  , (int) 0x00010606, Motor ); // Short Config Register
 2235              		.loc 1 2496 0
 2236 0040 2246     		mov	r2, r4
 2237 0042 8249     		ldr	r1, .L168
 2238 0044 0920     		movs	r0, #9
 2239 0046 FFF7FEFF 		bl	Write_32bitSPI_DATA
 2240              	.LVL219:
